	.arch armv6
	.eabi_attribute 28, 1
	.eabi_attribute 20, 1
	.eabi_attribute 21, 1
	.eabi_attribute 23, 3
	.eabi_attribute 24, 1
	.eabi_attribute 25, 1
	.eabi_attribute 26, 2
	.eabi_attribute 30, 2
	.eabi_attribute 34, 1
	.eabi_attribute 18, 4
	.file	"CommandTask.cpp"
	.section	.text._ZNK8opendnp311IMasterTask10IsAuthTaskEv,"axG",%progbits,_ZNK8opendnp311IMasterTask10IsAuthTaskEv,comdat
	.align	2
	.weak	_ZNK8opendnp311IMasterTask10IsAuthTaskEv
	.syntax unified
	.arm
	.fpu vfp
	.type	_ZNK8opendnp311IMasterTask10IsAuthTaskEv, %function
_ZNK8opendnp311IMasterTask10IsAuthTaskEv:
	.fnstart
.LFB2267:
	@ args = 0, pretend = 0, frame = 0
	@ frame_needed = 0, uses_anonymous_args = 0
	@ link register save eliminated.
	mov	r0, #0
	bx	lr
	.cantunwind
	.fnend
	.size	_ZNK8opendnp311IMasterTask10IsAuthTaskEv, .-_ZNK8opendnp311IMasterTask10IsAuthTaskEv
	.section	.text._ZNK8opendnp311CommandTask4NameEv,"axG",%progbits,_ZNK8opendnp311CommandTask4NameEv,comdat
	.align	2
	.weak	_ZNK8opendnp311CommandTask4NameEv
	.syntax unified
	.arm
	.fpu vfp
	.type	_ZNK8opendnp311CommandTask4NameEv, %function
_ZNK8opendnp311CommandTask4NameEv:
	.fnstart
.LFB2774:
	@ args = 0, pretend = 0, frame = 0
	@ frame_needed = 0, uses_anonymous_args = 0
	@ link register save eliminated.
	ldr	r0, .L3
.LPIC0:
	add	r0, pc, r0
	bx	lr
.L4:
	.align	2
.L3:
	.word	.LC0-(.LPIC0+8)
	.cantunwind
	.fnend
	.size	_ZNK8opendnp311CommandTask4NameEv, .-_ZNK8opendnp311CommandTask4NameEv
	.section	.text._ZNK8opendnp311CommandTask8PriorityEv,"axG",%progbits,_ZNK8opendnp311CommandTask8PriorityEv,comdat
	.align	2
	.weak	_ZNK8opendnp311CommandTask8PriorityEv
	.syntax unified
	.arm
	.fpu vfp
	.type	_ZNK8opendnp311CommandTask8PriorityEv, %function
_ZNK8opendnp311CommandTask8PriorityEv:
	.fnstart
.LFB2775:
	@ args = 0, pretend = 0, frame = 0
	@ frame_needed = 0, uses_anonymous_args = 0
	@ link register save eliminated.
	mov	r0, #100
	bx	lr
	.cantunwind
	.fnend
	.size	_ZNK8opendnp311CommandTask8PriorityEv, .-_ZNK8opendnp311CommandTask8PriorityEv
	.section	.text._ZNK8opendnp311CommandTask19BlocksLowerPriorityEv,"axG",%progbits,_ZNK8opendnp311CommandTask19BlocksLowerPriorityEv,comdat
	.align	2
	.weak	_ZNK8opendnp311CommandTask19BlocksLowerPriorityEv
	.syntax unified
	.arm
	.fpu vfp
	.type	_ZNK8opendnp311CommandTask19BlocksLowerPriorityEv, %function
_ZNK8opendnp311CommandTask19BlocksLowerPriorityEv:
	.fnstart
.LFB2776:
	@ args = 0, pretend = 0, frame = 0
	@ frame_needed = 0, uses_anonymous_args = 0
	@ link register save eliminated.
	mov	r0, #0
	bx	lr
	.cantunwind
	.fnend
	.size	_ZNK8opendnp311CommandTask19BlocksLowerPriorityEv, .-_ZNK8opendnp311CommandTask19BlocksLowerPriorityEv
	.section	.text._ZNK8opendnp311CommandTask11IsRecurringEv,"axG",%progbits,_ZNK8opendnp311CommandTask11IsRecurringEv,comdat
	.align	2
	.weak	_ZNK8opendnp311CommandTask11IsRecurringEv
	.syntax unified
	.arm
	.fpu vfp
	.type	_ZNK8opendnp311CommandTask11IsRecurringEv, %function
_ZNK8opendnp311CommandTask11IsRecurringEv:
	.fnstart
.LFB2777:
	@ args = 0, pretend = 0, frame = 0
	@ frame_needed = 0, uses_anonymous_args = 0
	@ link register save eliminated.
	mov	r0, #0
	bx	lr
	.cantunwind
	.fnend
	.size	_ZNK8opendnp311CommandTask11IsRecurringEv, .-_ZNK8opendnp311CommandTask11IsRecurringEv
	.section	.text._ZNK8opendnp311CommandTask9IsEnabledEv,"axG",%progbits,_ZNK8opendnp311CommandTask9IsEnabledEv,comdat
	.align	2
	.weak	_ZNK8opendnp311CommandTask9IsEnabledEv
	.syntax unified
	.arm
	.fpu vfp
	.type	_ZNK8opendnp311CommandTask9IsEnabledEv, %function
_ZNK8opendnp311CommandTask9IsEnabledEv:
	.fnstart
.LFB2778:
	@ args = 0, pretend = 0, frame = 0
	@ frame_needed = 0, uses_anonymous_args = 0
	@ link register save eliminated.
	mov	r0, #1
	bx	lr
	.cantunwind
	.fnend
	.size	_ZNK8opendnp311CommandTask9IsEnabledEv, .-_ZNK8opendnp311CommandTask9IsEnabledEv
	.section	.text._ZNK8opendnp311CommandTask11GetTaskTypeEv,"axG",%progbits,_ZNK8opendnp311CommandTask11GetTaskTypeEv,comdat
	.align	2
	.weak	_ZNK8opendnp311CommandTask11GetTaskTypeEv
	.syntax unified
	.arm
	.fpu vfp
	.type	_ZNK8opendnp311CommandTask11GetTaskTypeEv, %function
_ZNK8opendnp311CommandTask11GetTaskTypeEv:
	.fnstart
.LFB2779:
	@ args = 0, pretend = 0, frame = 0
	@ frame_needed = 0, uses_anonymous_args = 0
	@ link register save eliminated.
	mov	r0, #7
	bx	lr
	.cantunwind
	.fnend
	.size	_ZNK8opendnp311CommandTask11GetTaskTypeEv, .-_ZNK8opendnp311CommandTask11GetTaskTypeEv
	.text
	.align	2
	.global	_ZN8opendnp311CommandTask10InitializeEv
	.syntax unified
	.arm
	.fpu vfp
	.type	_ZN8opendnp311CommandTask10InitializeEv, %function
_ZN8opendnp311CommandTask10InitializeEv:
	.fnstart
.LFB2981:
	@ args = 0, pretend = 0, frame = 0
	@ frame_needed = 0, uses_anonymous_args = 0
	@ link register save eliminated.
	mov	r3, #127
	strb	r3, [r0, #104]
	bx	lr
	.cantunwind
	.fnend
	.size	_ZN8opendnp311CommandTask10InitializeEv, .-_ZN8opendnp311CommandTask10InitializeEv
	.section	.text._ZNSt23_Sp_counted_ptr_inplaceIN8opendnp311CommandTaskESaIS1_ELN9__gnu_cxx12_Lock_policyE1EED2Ev,"axG",%progbits,_ZNSt23_Sp_counted_ptr_inplaceIN8opendnp311CommandTaskESaIS1_ELN9__gnu_cxx12_Lock_policyE1EED5Ev,comdat
	.align	2
	.weak	_ZNSt23_Sp_counted_ptr_inplaceIN8opendnp311CommandTaskESaIS1_ELN9__gnu_cxx12_Lock_policyE1EED2Ev
	.syntax unified
	.arm
	.fpu vfp
	.type	_ZNSt23_Sp_counted_ptr_inplaceIN8opendnp311CommandTaskESaIS1_ELN9__gnu_cxx12_Lock_policyE1EED2Ev, %function
_ZNSt23_Sp_counted_ptr_inplaceIN8opendnp311CommandTaskESaIS1_ELN9__gnu_cxx12_Lock_policyE1EED2Ev:
	.fnstart
.LFB3884:
	@ args = 0, pretend = 0, frame = 0
	@ frame_needed = 0, uses_anonymous_args = 0
	@ link register save eliminated.
	bx	lr
	.cantunwind
	.fnend
	.size	_ZNSt23_Sp_counted_ptr_inplaceIN8opendnp311CommandTaskESaIS1_ELN9__gnu_cxx12_Lock_policyE1EED2Ev, .-_ZNSt23_Sp_counted_ptr_inplaceIN8opendnp311CommandTaskESaIS1_ELN9__gnu_cxx12_Lock_policyE1EED2Ev
	.weak	_ZNSt23_Sp_counted_ptr_inplaceIN8opendnp311CommandTaskESaIS1_ELN9__gnu_cxx12_Lock_policyE1EED1Ev
	.set	_ZNSt23_Sp_counted_ptr_inplaceIN8opendnp311CommandTaskESaIS1_ELN9__gnu_cxx12_Lock_policyE1EED1Ev,_ZNSt23_Sp_counted_ptr_inplaceIN8opendnp311CommandTaskESaIS1_ELN9__gnu_cxx12_Lock_policyE1EED2Ev
	.section	.text._ZNSt23_Sp_counted_ptr_inplaceIN8opendnp311CommandTaskESaIS1_ELN9__gnu_cxx12_Lock_policyE1EE10_M_disposeEv,"axG",%progbits,_ZNSt23_Sp_counted_ptr_inplaceIN8opendnp311CommandTaskESaIS1_ELN9__gnu_cxx12_Lock_policyE1EE10_M_disposeEv,comdat
	.align	2
	.weak	_ZNSt23_Sp_counted_ptr_inplaceIN8opendnp311CommandTaskESaIS1_ELN9__gnu_cxx12_Lock_policyE1EE10_M_disposeEv
	.syntax unified
	.arm
	.fpu vfp
	.type	_ZNSt23_Sp_counted_ptr_inplaceIN8opendnp311CommandTaskESaIS1_ELN9__gnu_cxx12_Lock_policyE1EE10_M_disposeEv, %function
_ZNSt23_Sp_counted_ptr_inplaceIN8opendnp311CommandTaskESaIS1_ELN9__gnu_cxx12_Lock_policyE1EE10_M_disposeEv:
	.fnstart
.LFB3887:
	@ args = 0, pretend = 0, frame = 0
	@ frame_needed = 0, uses_anonymous_args = 0
	@ link register save eliminated.
	mov	r3, r0
	add	r0, r0, #40
	ldr	r3, [r3, #40]
	ldr	r3, [r3]
	bx	r3
	.cantunwind
	.fnend
	.size	_ZNSt23_Sp_counted_ptr_inplaceIN8opendnp311CommandTaskESaIS1_ELN9__gnu_cxx12_Lock_policyE1EE10_M_disposeEv, .-_ZNSt23_Sp_counted_ptr_inplaceIN8opendnp311CommandTaskESaIS1_ELN9__gnu_cxx12_Lock_policyE1EE10_M_disposeEv
	.section	.text._ZNSt23_Sp_counted_ptr_inplaceIN8opendnp311CommandTaskESaIS1_ELN9__gnu_cxx12_Lock_policyE1EE14_M_get_deleterERKSt9type_info,"axG",%progbits,_ZNSt23_Sp_counted_ptr_inplaceIN8opendnp311CommandTaskESaIS1_ELN9__gnu_cxx12_Lock_policyE1EE14_M_get_deleterERKSt9type_info,comdat
	.align	2
	.weak	_ZNSt23_Sp_counted_ptr_inplaceIN8opendnp311CommandTaskESaIS1_ELN9__gnu_cxx12_Lock_policyE1EE14_M_get_deleterERKSt9type_info
	.syntax unified
	.arm
	.fpu vfp
	.type	_ZNSt23_Sp_counted_ptr_inplaceIN8opendnp311CommandTaskESaIS1_ELN9__gnu_cxx12_Lock_policyE1EE14_M_get_deleterERKSt9type_info, %function
_ZNSt23_Sp_counted_ptr_inplaceIN8opendnp311CommandTaskESaIS1_ELN9__gnu_cxx12_Lock_policyE1EE14_M_get_deleterERKSt9type_info:
	.fnstart
.LFB3889:
	@ args = 0, pretend = 0, frame = 0
	@ frame_needed = 0, uses_anonymous_args = 0
	ldr	r3, .L18
	ldr	r2, .L18+4
.LPIC1:
	add	r3, pc, r3
	push	{r4, lr}
	mov	r4, r0
	ldr	r2, [r3, r2]
	mov	r0, r1
	mov	r1, r2
	bl	_ZNKSt9type_infoeqERKS_(PLT)
	cmp	r0, #0
	addne	r0, r4, #40
	pop	{r4, pc}
.L19:
	.align	2
.L18:
	.word	_GLOBAL_OFFSET_TABLE_-(.LPIC1+8)
	.word	_ZTISt19_Sp_make_shared_tag(GOT)
	.cantunwind
	.fnend
	.size	_ZNSt23_Sp_counted_ptr_inplaceIN8opendnp311CommandTaskESaIS1_ELN9__gnu_cxx12_Lock_policyE1EE14_M_get_deleterERKSt9type_info, .-_ZNSt23_Sp_counted_ptr_inplaceIN8opendnp311CommandTaskESaIS1_ELN9__gnu_cxx12_Lock_policyE1EE14_M_get_deleterERKSt9type_info
	.section	.text._ZNSt23_Sp_counted_ptr_inplaceIN8opendnp311CommandTaskESaIS1_ELN9__gnu_cxx12_Lock_policyE1EE10_M_destroyEv,"axG",%progbits,_ZNSt23_Sp_counted_ptr_inplaceIN8opendnp311CommandTaskESaIS1_ELN9__gnu_cxx12_Lock_policyE1EE10_M_destroyEv,comdat
	.align	2
	.weak	_ZNSt23_Sp_counted_ptr_inplaceIN8opendnp311CommandTaskESaIS1_ELN9__gnu_cxx12_Lock_policyE1EE10_M_destroyEv
	.syntax unified
	.arm
	.fpu vfp
	.type	_ZNSt23_Sp_counted_ptr_inplaceIN8opendnp311CommandTaskESaIS1_ELN9__gnu_cxx12_Lock_policyE1EE10_M_destroyEv, %function
_ZNSt23_Sp_counted_ptr_inplaceIN8opendnp311CommandTaskESaIS1_ELN9__gnu_cxx12_Lock_policyE1EE10_M_destroyEv:
	.fnstart
.LFB3888:
	@ args = 0, pretend = 0, frame = 0
	@ frame_needed = 0, uses_anonymous_args = 0
	@ link register save eliminated.
	b	_ZdlPv(PLT)
	.cantunwind
	.fnend
	.size	_ZNSt23_Sp_counted_ptr_inplaceIN8opendnp311CommandTaskESaIS1_ELN9__gnu_cxx12_Lock_policyE1EE10_M_destroyEv, .-_ZNSt23_Sp_counted_ptr_inplaceIN8opendnp311CommandTaskESaIS1_ELN9__gnu_cxx12_Lock_policyE1EE10_M_destroyEv
	.section	.text._ZNSt23_Sp_counted_ptr_inplaceIN8opendnp311CommandTaskESaIS1_ELN9__gnu_cxx12_Lock_policyE1EED0Ev,"axG",%progbits,_ZNSt23_Sp_counted_ptr_inplaceIN8opendnp311CommandTaskESaIS1_ELN9__gnu_cxx12_Lock_policyE1EED5Ev,comdat
	.align	2
	.weak	_ZNSt23_Sp_counted_ptr_inplaceIN8opendnp311CommandTaskESaIS1_ELN9__gnu_cxx12_Lock_policyE1EED0Ev
	.syntax unified
	.arm
	.fpu vfp
	.type	_ZNSt23_Sp_counted_ptr_inplaceIN8opendnp311CommandTaskESaIS1_ELN9__gnu_cxx12_Lock_policyE1EED0Ev, %function
_ZNSt23_Sp_counted_ptr_inplaceIN8opendnp311CommandTaskESaIS1_ELN9__gnu_cxx12_Lock_policyE1EED0Ev:
	.fnstart
.LFB3886:
	@ args = 0, pretend = 0, frame = 0
	@ frame_needed = 0, uses_anonymous_args = 0
	push	{r4, lr}
	mov	r1, #176
	mov	r4, r0
	bl	_ZdlPvj(PLT)
	mov	r0, r4
	pop	{r4, pc}
	.cantunwind
	.fnend
	.size	_ZNSt23_Sp_counted_ptr_inplaceIN8opendnp311CommandTaskESaIS1_ELN9__gnu_cxx12_Lock_policyE1EED0Ev, .-_ZNSt23_Sp_counted_ptr_inplaceIN8opendnp311CommandTaskESaIS1_ELN9__gnu_cxx12_Lock_policyE1EED0Ev
	.text
	.align	2
	.global	_ZN8opendnp311CommandTask14OnTaskCompleteENS_14TaskCompletionEN7openpal18MonotonicTimestampE
	.syntax unified
	.arm
	.fpu vfp
	.type	_ZN8opendnp311CommandTask14OnTaskCompleteENS_14TaskCompletionEN7openpal18MonotonicTimestampE, %function
_ZN8opendnp311CommandTask14OnTaskCompleteENS_14TaskCompletionEN7openpal18MonotonicTimestampE:
	.fnstart
.LFB2980:
	@ args = 8, pretend = 0, frame = 8
	@ frame_needed = 0, uses_anonymous_args = 0
	mov	r3, r1
	push	{r4, lr}
	.save {r4, lr}
	mov	r1, r2
	.pad #8
	sub	sp, sp, #8
	mov	r4, r0
	add	r2, r3, #108
	add	r0, r3, #124
	bl	_ZN8opendnp313CommandSetOps14InvokeCallbackERKNS_10CommandSetENS_14TaskCompletionERSt8functionIFvRKNS_18ICommandTaskResultEEE(PLT)
	mov	r0, sp
	bl	_ZN7openpal18MonotonicTimestamp3MaxEv(PLT)
	ldrd	r2, [sp]
	mov	r1, #0
	mov	r0, r4
	strb	r1, [r4]
	strd	r2, [r4, #8]
	add	sp, sp, #8
	@ sp needed
	pop	{r4, pc}
	.fnend
	.size	_ZN8opendnp311CommandTask14OnTaskCompleteENS_14TaskCompletionEN7openpal18MonotonicTimestampE, .-_ZN8opendnp311CommandTask14OnTaskCompleteENS_14TaskCompletionEN7openpal18MonotonicTimestampE
	.align	2
	.global	_ZN8opendnp311CommandTask12BuildRequestERNS_11APDURequestEh
	.syntax unified
	.arm
	.fpu vfp
	.type	_ZN8opendnp311CommandTask12BuildRequestERNS_11APDURequestEh, %function
_ZN8opendnp311CommandTask12BuildRequestERNS_11APDURequestEh:
	.fnstart
.LFB2978:
	@ args = 0, pretend = 0, frame = 24
	@ frame_needed = 0, uses_anonymous_args = 0
	ldr	r3, [r0, #72]
	ldr	ip, [r0, #88]
	cmp	r3, ip
	beq	.L29
	push	{r4, r5, r6, lr}
	.save {r4, r5, r6, lr}
	mov	r4, r0
	mov	r6, r1
	.pad #24
	sub	sp, sp, #24
	ldrb	r1, [r3]	@ zero_extendqisi2
	mov	r0, r6
	mov	r5, r2
	bl	_ZN8opendnp311APDUWrapper11SetFunctionENS_12FunctionCodeE(PLT)
	ldr	r2, [r4, #80]
	ldr	r3, [r4, #72]
	sub	r2, r2, #1
	cmp	r3, r2
	beq	.L27
	add	r3, r3, #1
	str	r3, [r4, #72]
.L28:
	mov	r1, r5
	mov	r0, sp
	bl	_ZN8opendnp315AppControlField7RequestEh(PLT)
	add	r5, sp, #8
	ldm	sp, {r1, r2}
	mov	r0, r6
	bl	_ZN8opendnp311APDUWrapper10SetControlENS_15AppControlFieldE(PLT)
	mov	r1, r6
	mov	r0, r5
	bl	_ZN8opendnp311APDUWrapper9GetWriterEv(PLT)
	mov	r1, r5
	add	r0, r4, #124
	bl	_ZN8opendnp313CommandSetOps5WriteERKNS_10CommandSetERNS_12HeaderWriterE(PLT)
	add	sp, sp, #24
	@ sp needed
	pop	{r4, r5, r6, pc}
.L29:
	mov	r0, #0
	bx	lr
.L27:
	ldr	r0, [r4, #76]
	bl	_ZdlPv(PLT)
	ldr	r3, [r4, #84]
	add	r2, r3, #4
	ldr	r3, [r3, #4]
	str	r2, [r4, #84]
	add	r2, r3, #512
	str	r3, [r4, #76]
	str	r3, [r4, #72]
	str	r2, [r4, #80]
	b	.L28
	.fnend
	.size	_ZN8opendnp311CommandTask12BuildRequestERNS_11APDURequestEh, .-_ZN8opendnp311CommandTask12BuildRequestERNS_11APDURequestEh
	.section	.text._ZN8opendnp311CommandTaskD0Ev,"axG",%progbits,_ZN8opendnp311CommandTaskD5Ev,comdat
	.align	2
	.weak	_ZN8opendnp311CommandTaskD0Ev
	.syntax unified
	.arm
	.fpu vfp
	.type	_ZN8opendnp311CommandTaskD0Ev, %function
_ZN8opendnp311CommandTaskD0Ev:
	.fnstart
.LFB3866:
	@ args = 0, pretend = 0, frame = 0
	@ frame_needed = 0, uses_anonymous_args = 0
	ldr	r3, .L47
	ldr	r2, .L47+4
.LPIC10:
	add	r3, pc, r3
	push	{r4, r5, r6, lr}
	.save {r4, r5, r6, lr}
	mov	r6, r0
	ldr	r2, [r3, r2]
	add	r3, r2, #8
	str	r3, [r0], #124
	bl	_ZN8opendnp310CommandSetD1Ev(PLT)
	ldr	r3, [r6, #116]
	cmp	r3, #0
	beq	.L35
	add	r1, r6, #108
	mov	r0, r1
	mov	r2, #3
	blx	r3
.L35:
	ldr	r0, [r6, #64]
	cmp	r0, #0
	beq	.L36
	ldr	r5, [r6, #100]
	ldr	r4, [r6, #84]
	add	r5, r5, #4
	cmp	r4, r5
	bcs	.L37
.L38:
	ldr	r0, [r4], #4
	bl	_ZdlPv(PLT)
	cmp	r5, r4
	bhi	.L38
	ldr	r0, [r6, #64]
.L37:
	bl	_ZdlPv(PLT)
.L36:
	mov	r0, r6
	bl	_ZN8opendnp311IMasterTaskD2Ev(PLT)
	mov	r0, r6
	mov	r1, #136
	bl	_ZdlPvj(PLT)
	mov	r0, r6
	pop	{r4, r5, r6, pc}
.L48:
	.align	2
.L47:
	.word	_GLOBAL_OFFSET_TABLE_-(.LPIC10+8)
	.word	_ZTVN8opendnp311CommandTaskE(GOT)
	.global	__gxx_personality_v0
	.personality	__gxx_personality_v0
	.handlerdata
.LLSDA3866:
	.byte	0xff
	.byte	0xff
	.byte	0x1
	.uleb128 .LLSDACSE3866-.LLSDACSB3866
.LLSDACSB3866:
.LLSDACSE3866:
	.section	.text._ZN8opendnp311CommandTaskD0Ev,"axG",%progbits,_ZN8opendnp311CommandTaskD5Ev,comdat
	.fnend
	.size	_ZN8opendnp311CommandTaskD0Ev, .-_ZN8opendnp311CommandTaskD0Ev
	.section	.text._ZN8opendnp311CommandTaskD2Ev,"axG",%progbits,_ZN8opendnp311CommandTaskD5Ev,comdat
	.align	2
	.weak	_ZN8opendnp311CommandTaskD2Ev
	.syntax unified
	.arm
	.fpu vfp
	.type	_ZN8opendnp311CommandTaskD2Ev, %function
_ZN8opendnp311CommandTaskD2Ev:
	.fnstart
.LFB3864:
	@ args = 0, pretend = 0, frame = 0
	@ frame_needed = 0, uses_anonymous_args = 0
	ldr	r3, .L62
	ldr	r2, .L62+4
.LPIC11:
	add	r3, pc, r3
	push	{r4, r5, r6, lr}
	.save {r4, r5, r6, lr}
	mov	r6, r0
	ldr	r2, [r3, r2]
	add	r3, r2, #8
	str	r3, [r0], #124
	bl	_ZN8opendnp310CommandSetD1Ev(PLT)
	ldr	r3, [r6, #116]
	cmp	r3, #0
	beq	.L50
	add	r1, r6, #108
	mov	r0, r1
	mov	r2, #3
	blx	r3
.L50:
	ldr	r0, [r6, #64]
	cmp	r0, #0
	beq	.L51
	ldr	r5, [r6, #100]
	ldr	r4, [r6, #84]
	add	r5, r5, #4
	cmp	r4, r5
	bcs	.L52
.L53:
	ldr	r0, [r4], #4
	bl	_ZdlPv(PLT)
	cmp	r5, r4
	bhi	.L53
	ldr	r0, [r6, #64]
.L52:
	bl	_ZdlPv(PLT)
.L51:
	mov	r0, r6
	bl	_ZN8opendnp311IMasterTaskD2Ev(PLT)
	mov	r0, r6
	pop	{r4, r5, r6, pc}
.L63:
	.align	2
.L62:
	.word	_GLOBAL_OFFSET_TABLE_-(.LPIC11+8)
	.word	_ZTVN8opendnp311CommandTaskE(GOT)
	.personality	__gxx_personality_v0
	.handlerdata
.LLSDA3864:
	.byte	0xff
	.byte	0xff
	.byte	0x1
	.uleb128 .LLSDACSE3864-.LLSDACSB3864
.LLSDACSB3864:
.LLSDACSE3864:
	.section	.text._ZN8opendnp311CommandTaskD2Ev,"axG",%progbits,_ZN8opendnp311CommandTaskD5Ev,comdat
	.fnend
	.size	_ZN8opendnp311CommandTaskD2Ev, .-_ZN8opendnp311CommandTaskD2Ev
	.weak	_ZN8opendnp311CommandTaskD1Ev
	.set	_ZN8opendnp311CommandTaskD1Ev,_ZN8opendnp311CommandTaskD2Ev
	.section	.text._ZN7openpal6LoggerD2Ev,"axG",%progbits,_ZN7openpal6LoggerD5Ev,comdat
	.align	2
	.weak	_ZN7openpal6LoggerD2Ev
	.syntax unified
	.arm
	.fpu vfp
	.type	_ZN7openpal6LoggerD2Ev, %function
_ZN7openpal6LoggerD2Ev:
	.fnstart
.LFB1980:
	@ args = 0, pretend = 0, frame = 0
	@ frame_needed = 0, uses_anonymous_args = 0
	push	{r4, r5, r6, lr}
	mov	r4, r0
	ldr	r5, [r0, #12]
	ldr	r6, .L91
	cmp	r5, #0
.LPIC12:
	add	r6, pc, r6
	beq	.L66
	ldr	r3, .L91+4
	ldr	r3, [r6, r3]
	cmp	r3, #0
	beq	.L67
	add	r3, r5, #28
	mcr	p15, 0, r0, c7, c10, 5
.L83:
	ldrex	r2, [r3]
	sub	r1, r2, #1
	strex	r0, r1, [r3]
	cmp	r0, #0
	bne	.L83
	cmp	r2, #1
	mcr	p15, 0, r0, c7, c10, 5
	beq	.L89
.L66:
	ldr	r5, [r4, #4]
	cmp	r5, #0
	beq	.L79
	ldr	r3, .L91+4
	ldr	r3, [r6, r3]
	cmp	r3, #0
	beq	.L73
	add	r3, r5, #28
	mcr	p15, 0, r0, c7, c10, 5
.L82:
	ldrex	r2, [r3]
	sub	r1, r2, #1
	strex	r0, r1, [r3]
	cmp	r0, #0
	bne	.L82
	cmp	r2, #1
	mcr	p15, 0, r0, c7, c10, 5
	beq	.L90
.L79:
	mov	r0, r4
	pop	{r4, r5, r6, pc}
.L67:
	ldr	r3, [r5, #28]
	cmp	r3, #1
	sub	r3, r3, #1
	str	r3, [r5, #28]
	bne	.L66
	ldr	r3, [r5]
	mov	r0, r5
	ldr	r3, [r3, #8]
	blx	r3
	mcr	p15, 0, r0, c7, c10, 5
	ldr	r2, [r5, #32]
	sub	r3, r2, #1
	str	r3, [r5, #32]
	b	.L77
.L73:
	ldr	r3, [r5, #28]
	cmp	r3, #1
	sub	r3, r3, #1
	str	r3, [r5, #28]
	bne	.L79
	ldr	r3, [r5]
	mov	r0, r5
	ldr	r3, [r3, #8]
	blx	r3
	mcr	p15, 0, r0, c7, c10, 5
	ldr	r2, [r5, #32]
	sub	r3, r2, #1
	str	r3, [r5, #32]
	b	.L78
.L90:
	ldr	r3, [r5]
	mov	r0, r5
	ldr	r3, [r3, #8]
	blx	r3
	add	r3, r5, #32
	mcr	p15, 0, r0, c7, c10, 5
	mcr	p15, 0, r0, c7, c10, 5
.L80:
	ldrex	r2, [r3]
	sub	r1, r2, #1
	strex	r0, r1, [r3]
	cmp	r0, #0
	bne	.L80
	mcr	p15, 0, r0, c7, c10, 5
.L78:
	cmp	r2, #1
	bne	.L79
	ldr	r3, [r5]
	mov	r0, r5
	ldr	r3, [r3, #12]
	blx	r3
	b	.L79
.L89:
	ldr	r3, [r5]
	mov	r0, r5
	ldr	r3, [r3, #8]
	blx	r3
	add	r3, r5, #32
	mcr	p15, 0, r0, c7, c10, 5
	mcr	p15, 0, r0, c7, c10, 5
.L81:
	ldrex	r2, [r3]
	sub	r1, r2, #1
	strex	r0, r1, [r3]
	cmp	r0, #0
	bne	.L81
	mcr	p15, 0, r0, c7, c10, 5
.L77:
	cmp	r2, #1
	bne	.L66
	ldr	r3, [r5]
	mov	r0, r5
	ldr	r3, [r3, #12]
	blx	r3
	b	.L66
.L92:
	.align	2
.L91:
	.word	_GLOBAL_OFFSET_TABLE_-(.LPIC12+8)
	.word	_ZL28__gthrw___pthread_key_createPjPFvPvE(GOT)
	.cantunwind
	.fnend
	.size	_ZN7openpal6LoggerD2Ev, .-_ZN7openpal6LoggerD2Ev
	.weak	_ZN7openpal6LoggerD1Ev
	.set	_ZN7openpal6LoggerD1Ev,_ZN7openpal6LoggerD2Ev
	.text
	.align	2
	.global	_ZN8opendnp311CommandTaskC2EONS_10CommandSetERNS_18IMasterApplicationERKSt8functionIFvRKNS_18ICommandTaskResultEEERKNS_10TaskConfigEN7openpal6LoggerE
	.syntax unified
	.arm
	.fpu vfp
	.type	_ZN8opendnp311CommandTaskC2EONS_10CommandSetERNS_18IMasterApplicationERKSt8functionIFvRKNS_18ICommandTaskResultEEERKNS_10TaskConfigEN7openpal6LoggerE, %function
_ZN8opendnp311CommandTaskC2EONS_10CommandSetERNS_18IMasterApplicationERKSt8functionIFvRKNS_18ICommandTaskResultEEERKNS_10TaskConfigEN7openpal6LoggerE:
	.fnstart
.LFB2974:
	@ args = 8, pretend = 0, frame = 32
	@ frame_needed = 0, uses_anonymous_args = 0
	push	{r4, r5, r6, r7, r8, r9, r10, lr}
	.save {r4, r5, r6, r7, r8, r9, r10, lr}
	.pad #48
	sub	sp, sp, #48
	mov	r4, r0
	ldr	r6, [sp, #84]
	add	r0, sp, #24
	mov	r8, r1
	mov	r10, r2
	mov	r7, r3
	ldr	r9, [sp, #80]
.LEHB0:
	bl	_ZN7openpal18MonotonicTimestamp3MinEv(PLT)
.LEHE0:
	ldm	r6, {r2, r3}
	ldrd	r0, [sp, #24]
	ldr	r5, .L170
	cmp	r3, #0
	str	r3, [sp, #36]
	str	r2, [sp, #32]
	strd	r0, [sp, #16]
.LPIC13:
	add	r5, pc, r5
	beq	.L94
	ldr	r2, .L170+4
	ldr	r2, [r5, r2]
	cmp	r2, #0
	beq	.L95
	add	r3, r3, #28
	mcr	p15, 0, r0, c7, c10, 5
.L160:
	ldrex	r2, [r3]
	add	r2, r2, #1
	strex	r1, r2, [r3]
	cmp	r1, #0
	bne	.L160
	mcr	p15, 0, r0, c7, c10, 5
	ldr	r2, [r6, #12]
	ldr	r3, [r6, #8]
	cmp	r2, #0
	str	r3, [sp, #40]
	str	r2, [sp, #44]
	beq	.L97
.L162:
	add	r2, r2, #28
	mcr	p15, 0, r0, c7, c10, 5
.L159:
	ldrex	r3, [r2]
	add	r3, r3, #1
	strex	r1, r3, [r2]
	cmp	r1, #0
	bne	.L159
	mcr	p15, 0, r0, c7, c10, 5
.L97:
	ldm	r9, {r0, r1, r2}
	add	r6, sp, #32
	str	r6, [sp]
	stmib	sp, {r0, r1, r2}
	mov	r1, r10
	ldrd	r2, [sp, #16]
	mov	r0, r4
.LEHB1:
	bl	_ZN8opendnp311IMasterTaskC2ERNS_18IMasterApplicationEN7openpal18MonotonicTimestampENS3_6LoggerENS_10TaskConfigE(PLT)
.LEHE1:
	ldr	r6, [sp, #44]
	cmp	r6, #0
	beq	.L101
	ldr	r3, .L170+4
	ldr	r3, [r5, r3]
	cmp	r3, #0
	beq	.L102
	add	r3, r6, #28
	mcr	p15, 0, r0, c7, c10, 5
.L158:
	ldrex	r2, [r3]
	sub	r1, r2, #1
	strex	r0, r1, [r3]
	cmp	r0, #0
	bne	.L158
	cmp	r2, #1
	mcr	p15, 0, r0, c7, c10, 5
	beq	.L168
.L101:
	ldr	r6, [sp, #36]
	cmp	r6, #0
	beq	.L107
	ldr	r3, .L170+4
	ldr	r3, [r5, r3]
	cmp	r3, #0
	beq	.L108
	add	r3, r6, #28
	mcr	p15, 0, r0, c7, c10, 5
.L157:
	ldrex	r2, [r3]
	sub	r1, r2, #1
	strex	r0, r1, [r3]
	cmp	r0, #0
	bne	.L157
	cmp	r2, #1
	mcr	p15, 0, r0, c7, c10, 5
	beq	.L169
.L107:
	ldr	r2, .L170+8
	mov	r1, #8
	mov	r3, #0
	ldr	r2, [r5, r2]
	mov	r0, #32
	add	r2, r2, r1
	str	r2, [r4]
	str	r3, [r4, #64]
	str	r3, [r4, #72]
	str	r3, [r4, #76]
	str	r3, [r4, #80]
	str	r3, [r4, #84]
	str	r3, [r4, #88]
	str	r3, [r4, #92]
	str	r3, [r4, #96]
	str	r3, [r4, #100]
	str	r1, [r4, #68]
.LEHB2:
	bl	_Znwj(PLT)
.LEHE2:
	ldr	r5, [r4, #68]
	mov	r6, r0
	sub	r5, r5, #1
	str	r0, [r4, #64]
	lsr	r5, r5, #1
	mov	r0, #512
	add	r9, r6, r5, lsl #2
.LEHB3:
	bl	_Znwj(PLT)
.LEHE3:
	mov	r3, #0
	str	r3, [r4, #116]
	ldr	r10, [r7, #8]
	add	r3, r0, #512
	mov	r2, #127
	cmp	r10, #0
	str	r0, [r6, r5, lsl #2]
	str	r0, [r4, #76]
	str	r0, [r4, #92]
	str	r0, [r4, #72]
	str	r0, [r4, #88]
	str	r3, [r4, #80]
	str	r3, [r4, #96]
	str	r9, [r4, #84]
	str	r9, [r4, #100]
	strb	r2, [r4, #104]
	add	r5, r4, #108
	beq	.L113
	mov	r2, #2
	mov	r1, r7
	mov	r0, r5
.LEHB4:
	blx	r10
.LEHE4:
	ldr	r2, [r7, #12]
	ldr	r3, [r7, #8]
	str	r2, [r4, #120]
	str	r3, [r4, #116]
.L113:
	mov	r1, r8
	add	r0, r4, #124
.LEHB5:
	bl	_ZN8opendnp310CommandSetC1EOS0_(PLT)
.LEHE5:
	mov	r0, r4
	add	sp, sp, #48
	@ sp needed
	pop	{r4, r5, r6, r7, r8, r9, r10, pc}
.L102:
	ldr	r3, [r6, #28]
	cmp	r3, #1
	sub	r3, r3, #1
	str	r3, [r6, #28]
	bne	.L101
	ldr	r3, [r6]
	mov	r0, r6
	ldr	r3, [r3, #8]
	blx	r3
	mcr	p15, 0, r0, c7, c10, 5
	ldr	r2, [r6, #32]
	sub	r3, r2, #1
	str	r3, [r6, #32]
	b	.L129
.L95:
	ldr	r2, [r6, #12]
	ldr	r1, [r3, #28]
	ldr	r0, [r6, #8]
	add	r1, r1, #1
	cmp	r2, #0
	str	r1, [r3, #28]
	str	r2, [sp, #44]
	str	r0, [sp, #40]
	beq	.L97
.L98:
	ldr	r3, [r2, #28]
	add	r3, r3, #1
	str	r3, [r2, #28]
	b	.L97
.L108:
	ldr	r3, [r6, #28]
	cmp	r3, #1
	sub	r3, r3, #1
	str	r3, [r6, #28]
	bne	.L107
	ldr	r3, [r6]
	mov	r0, r6
	ldr	r3, [r3, #8]
	blx	r3
	mcr	p15, 0, r0, c7, c10, 5
	ldr	r2, [r6, #32]
	sub	r3, r2, #1
	str	r3, [r6, #32]
	b	.L130
.L169:
	ldr	r3, [r6]
	mov	r0, r6
	ldr	r3, [r3, #8]
	blx	r3
	add	r3, r6, #32
	mcr	p15, 0, r0, c7, c10, 5
	mcr	p15, 0, r0, c7, c10, 5
.L155:
	ldrex	r2, [r3]
	sub	r1, r2, #1
	strex	r0, r1, [r3]
	cmp	r0, #0
	bne	.L155
	mcr	p15, 0, r0, c7, c10, 5
.L130:
	cmp	r2, #1
	bne	.L107
	ldr	r3, [r6]
	mov	r0, r6
	ldr	r3, [r3, #12]
	blx	r3
	b	.L107
.L168:
	ldr	r3, [r6]
	mov	r0, r6
	ldr	r3, [r3, #8]
	blx	r3
	add	r3, r6, #32
	mcr	p15, 0, r0, c7, c10, 5
	mcr	p15, 0, r0, c7, c10, 5
.L156:
	ldrex	r2, [r3]
	sub	r1, r2, #1
	strex	r0, r1, [r3]
	cmp	r0, #0
	bne	.L156
	mcr	p15, 0, r0, c7, c10, 5
.L129:
	cmp	r2, #1
	bne	.L101
	ldr	r3, [r6]
	mov	r0, r6
	ldr	r3, [r3, #12]
	blx	r3
	b	.L101
.L94:
	ldr	r2, [r6, #12]
	ldr	r3, [r6, #8]
	cmp	r2, #0
	str	r2, [sp, #44]
	str	r3, [sp, #40]
	beq	.L97
	ldr	r3, .L170+4
	ldr	r3, [r5, r3]
	cmp	r3, #0
	bne	.L162
	b	.L98
.L135:
	bl	__cxa_begin_catch(PLT)
.LEHB6:
	bl	__cxa_rethrow(PLT)
.LEHE6:
.L133:
	ldr	r3, [r4, #116]
	cmp	r3, #0
	beq	.L121
	mov	r2, #3
	mov	r1, r5
	mov	r0, r5
	blx	r3
.L121:
	ldr	r0, [r4, #64]
	cmp	r0, #0
	beq	.L117
	ldr	r5, [r4, #100]
	ldr	r6, [r4, #84]
	add	r5, r5, #4
	cmp	r6, r5
	bcs	.L126
.L127:
	ldr	r0, [r6], #4
	bl	_ZdlPv(PLT)
	cmp	r5, r6
	bhi	.L127
	ldr	r0, [r4, #64]
.L126:
	bl	_ZdlPv(PLT)
	b	.L117
.L132:
.L117:
	mov	r0, r4
	bl	_ZN8opendnp311IMasterTaskD2Ev(PLT)
.LEHB7:
	bl	__cxa_end_cleanup(PLT)
.L131:
	mov	r0, r6
	bl	_ZN7openpal6LoggerD1Ev(PLT)
	bl	__cxa_end_cleanup(PLT)
.LEHE7:
.L136:
	mov	r5, r0
	bl	__cxa_end_catch(PLT)
	mov	r0, r5
	bl	__cxa_begin_catch(PLT)
	ldr	r0, [r4, #64]
	bl	_ZdlPv(PLT)
	mov	r3, #0
	str	r3, [r4, #64]
	str	r3, [r4, #68]
.LEHB8:
	bl	__cxa_rethrow(PLT)
.LEHE8:
.L137:
	ldr	r3, [r4, #116]
	cmp	r3, #0
	beq	.L121
	mov	r2, #3
	mov	r1, r5
	mov	r0, r5
	blx	r3
	b	.L121
.L134:
	bl	__cxa_end_catch(PLT)
	b	.L117
.L171:
	.align	2
.L170:
	.word	_GLOBAL_OFFSET_TABLE_-(.LPIC13+8)
	.word	_ZL28__gthrw___pthread_key_createPjPFvPvE(GOT)
	.word	_ZTVN8opendnp311CommandTaskE(GOT)
	.personality	__gxx_personality_v0
	.handlerdata
	.align	2
.LLSDA2974:
	.byte	0xff
	.byte	0x90
	.uleb128 .LLSDATT2974-.LLSDATTD2974
.LLSDATTD2974:
	.byte	0x1
	.uleb128 .LLSDACSE2974-.LLSDACSB2974
.LLSDACSB2974:
	.uleb128 .LEHB0-.LFB2974
	.uleb128 .LEHE0-.LEHB0
	.uleb128 0
	.uleb128 0
	.uleb128 .LEHB1-.LFB2974
	.uleb128 .LEHE1-.LEHB1
	.uleb128 .L131-.LFB2974
	.uleb128 0
	.uleb128 .LEHB2-.LFB2974
	.uleb128 .LEHE2-.LEHB2
	.uleb128 .L132-.LFB2974
	.uleb128 0
	.uleb128 .LEHB3-.LFB2974
	.uleb128 .LEHE3-.LEHB3
	.uleb128 .L135-.LFB2974
	.uleb128 0x1
	.uleb128 .LEHB4-.LFB2974
	.uleb128 .LEHE4-.LEHB4
	.uleb128 .L137-.LFB2974
	.uleb128 0
	.uleb128 .LEHB5-.LFB2974
	.uleb128 .LEHE5-.LEHB5
	.uleb128 .L133-.LFB2974
	.uleb128 0
	.uleb128 .LEHB6-.LFB2974
	.uleb128 .LEHE6-.LEHB6
	.uleb128 .L136-.LFB2974
	.uleb128 0x1
	.uleb128 .LEHB7-.LFB2974
	.uleb128 .LEHE7-.LEHB7
	.uleb128 0
	.uleb128 0
	.uleb128 .LEHB8-.LFB2974
	.uleb128 .LEHE8-.LEHB8
	.uleb128 .L134-.LFB2974
	.uleb128 0
.LLSDACSE2974:
	.byte	0x1
	.byte	0
	.align	2
	.word	0
.LLSDATT2974:
	.text
	.fnend
	.size	_ZN8opendnp311CommandTaskC2EONS_10CommandSetERNS_18IMasterApplicationERKSt8functionIFvRKNS_18ICommandTaskResultEEERKNS_10TaskConfigEN7openpal6LoggerE, .-_ZN8opendnp311CommandTaskC2EONS_10CommandSetERNS_18IMasterApplicationERKSt8functionIFvRKNS_18ICommandTaskResultEEERKNS_10TaskConfigEN7openpal6LoggerE
	.global	_ZN8opendnp311CommandTaskC1EONS_10CommandSetERNS_18IMasterApplicationERKSt8functionIFvRKNS_18ICommandTaskResultEEERKNS_10TaskConfigEN7openpal6LoggerE
	.set	_ZN8opendnp311CommandTaskC1EONS_10CommandSetERNS_18IMasterApplicationERKSt8functionIFvRKNS_18ICommandTaskResultEEERKNS_10TaskConfigEN7openpal6LoggerE,_ZN8opendnp311CommandTaskC2EONS_10CommandSetERNS_18IMasterApplicationERKSt8functionIFvRKNS_18ICommandTaskResultEEERKNS_10TaskConfigEN7openpal6LoggerE
	.align	2
	.global	_ZN8opendnp311CommandTask15ProcessResponseERKN7openpal6RSliceE
	.syntax unified
	.arm
	.fpu vfp
	.type	_ZN8opendnp311CommandTask15ProcessResponseERKN7openpal6RSliceE, %function
_ZN8opendnp311CommandTask15ProcessResponseERKN7openpal6RSliceE:
	.fnstart
.LFB2982:
	@ args = 0, pretend = 0, frame = 0
	@ frame_needed = 0, uses_anonymous_args = 0
	ldr	r2, [r0, #88]
	ldr	r3, [r0, #72]
	push	{r4, lr}
	.save {r4, lr}
	cmp	r2, r3
	add	r2, r0, #8
	add	r0, r0, #124
	beq	.L180
	bl	_ZN8opendnp313CommandSetOps21ProcessSelectResponseERNS_10CommandSetERKN7openpal6RSliceEPNS3_6LoggerE(PLT)
	cmp	r0, #0
	beq	.L178
	cmp	r0, #2
	moveq	r0, #2
	movne	r0, #0
	pop	{r4, pc}
.L178:
	mov	r0, #3
	pop	{r4, pc}
.L180:
	bl	_ZN8opendnp313CommandSetOps22ProcessOperateResponseERNS_10CommandSetERKN7openpal6RSliceEPNS3_6LoggerE(PLT)
	cmp	r0, #1
	movne	r0, #2
	moveq	r0, #0
	pop	{r4, pc}
	.fnend
	.size	_ZN8opendnp311CommandTask15ProcessResponseERKN7openpal6RSliceE, .-_ZN8opendnp311CommandTask15ProcessResponseERKN7openpal6RSliceE
	.align	2
	.global	_ZN8opendnp311CommandTask15ProcessResponseERKNS_18APDUResponseHeaderERKN7openpal6RSliceE
	.syntax unified
	.arm
	.fpu vfp
	.type	_ZN8opendnp311CommandTask15ProcessResponseERKNS_18APDUResponseHeaderERKN7openpal6RSliceE, %function
_ZN8opendnp311CommandTask15ProcessResponseERKNS_18APDUResponseHeaderERKN7openpal6RSliceE:
	.fnstart
.LFB2979:
	@ args = 0, pretend = 0, frame = 0
	@ frame_needed = 0, uses_anonymous_args = 0
	push	{r4, r5, r6, lr}
	.save {r4, r5, r6, lr}
	mov	r5, r2
	mov	r4, r0
	bl	_ZN8opendnp311IMasterTask22ValidateSingleResponseERKNS_18APDUResponseHeaderE(PLT)
	cmp	r0, #0
	popeq	{r4, r5, r6, pc}
	mov	r1, r5
	mov	r0, r4
	pop	{r4, r5, r6, lr}
	b	_ZN8opendnp311CommandTask15ProcessResponseERKN7openpal6RSliceE(PLT)
	.fnend
	.size	_ZN8opendnp311CommandTask15ProcessResponseERKNS_18APDUResponseHeaderERKN7openpal6RSliceE, .-_ZN8opendnp311CommandTask15ProcessResponseERKNS_18APDUResponseHeaderERKN7openpal6RSliceE
	.section	.text._ZNSt16_Sp_counted_baseILN9__gnu_cxx12_Lock_policyE1EE10_M_releaseEv,"axG",%progbits,_ZNSt16_Sp_counted_baseILN9__gnu_cxx12_Lock_policyE1EE10_M_releaseEv,comdat
	.align	2
	.weak	_ZNSt16_Sp_counted_baseILN9__gnu_cxx12_Lock_policyE1EE10_M_releaseEv
	.syntax unified
	.arm
	.fpu vfp
	.type	_ZNSt16_Sp_counted_baseILN9__gnu_cxx12_Lock_policyE1EE10_M_releaseEv, %function
_ZNSt16_Sp_counted_baseILN9__gnu_cxx12_Lock_policyE1EE10_M_releaseEv:
	.fnstart
.LFB3368:
	@ args = 0, pretend = 0, frame = 0
	@ frame_needed = 0, uses_anonymous_args = 0
	ldr	r3, .L196
	ldr	r2, .L196+4
.LPIC14:
	add	r3, pc, r3
	push	{r4, r5, r6, lr}
	mov	r4, r0
	ldr	r3, [r3, r2]
	cmp	r3, #0
	beq	.L185
	add	r3, r0, #28
	mcr	p15, 0, r0, c7, c10, 5
.L192:
	ldrex	r2, [r3]
	sub	r1, r2, #1
	strex	ip, r1, [r3]
	cmp	ip, #0
	bne	.L192
	cmp	r2, #1
	mcr	p15, 0, r0, c7, c10, 5
	popne	{r4, r5, r6, pc}
	mov	r5, r4
	ldr	r3, [r5], #32
	ldr	r3, [r3, #8]
	blx	r3
	mcr	p15, 0, r0, c7, c10, 5
	mcr	p15, 0, r0, c7, c10, 5
.L191:
	ldrex	r3, [r5]
	sub	r2, r3, #1
	strex	r1, r2, [r5]
	cmp	r1, #0
	bne	.L191
	mcr	p15, 0, r0, c7, c10, 5
.L190:
	cmp	r3, #1
	popne	{r4, r5, r6, pc}
	ldr	r3, [r4]
	mov	r0, r4
	pop	{r4, r5, r6, lr}
	ldr	r3, [r3, #12]
	bx	r3	@ indirect register sibling call
.L185:
	ldr	r3, [r0, #28]
	cmp	r3, #1
	sub	r3, r3, #1
	str	r3, [r0, #28]
	popne	{r4, r5, r6, pc}
	ldr	r3, [r0]
	ldr	r3, [r3, #8]
	blx	r3
	mcr	p15, 0, r0, c7, c10, 5
	ldr	r3, [r4, #32]
	sub	r2, r3, #1
	str	r2, [r4, #32]
	b	.L190
.L197:
	.align	2
.L196:
	.word	_GLOBAL_OFFSET_TABLE_-(.LPIC14+8)
	.word	_ZL28__gthrw___pthread_key_createPjPFvPvE(GOT)
	.cantunwind
	.fnend
	.size	_ZNSt16_Sp_counted_baseILN9__gnu_cxx12_Lock_policyE1EE10_M_releaseEv, .-_ZNSt16_Sp_counted_baseILN9__gnu_cxx12_Lock_policyE1EE10_M_releaseEv
	.section	.text._ZNSt5dequeIN8opendnp312FunctionCodeESaIS1_EE12emplace_backIJS1_EEEvDpOT_,"axG",%progbits,_ZNSt5dequeIN8opendnp312FunctionCodeESaIS1_EE12emplace_backIJS1_EEEvDpOT_,comdat
	.align	2
	.weak	_ZNSt5dequeIN8opendnp312FunctionCodeESaIS1_EE12emplace_backIJS1_EEEvDpOT_
	.syntax unified
	.arm
	.fpu vfp
	.type	_ZNSt5dequeIN8opendnp312FunctionCodeESaIS1_EE12emplace_backIJS1_EEEvDpOT_, %function
_ZNSt5dequeIN8opendnp312FunctionCodeESaIS1_EE12emplace_backIJS1_EEEvDpOT_:
	.fnstart
.LFB3444:
	@ args = 0, pretend = 0, frame = 0
	@ frame_needed = 0, uses_anonymous_args = 0
	ldr	r2, [r0, #32]
	ldr	r3, [r0, #24]
	sub	r2, r2, #1
	cmp	r3, r2
	beq	.L199
	ldrb	r2, [r1]	@ zero_extendqisi2
	cmp	r3, #0
	add	r3, r3, #1
	strbne	r2, [r3, #-1]
	str	r3, [r0, #24]
	bx	lr
.L199:
	push	{r4, r5, r6, r7, r8, r9, r10, lr}
	.save {r4, r5, r6, r7, r8, r9, r10, lr}
	mov	r4, r0
	ldr	r6, [r0, #36]
	ldm	r0, {r0, r2}
	mov	r5, r1
	sub	r3, r6, r0
	sub	r3, r2, r3, asr #2
	cmp	r3, #1
	bls	.L228
.L202:
	mov	r0, #512
	bl	_Znwj(PLT)
	ldrb	r2, [r5]	@ zero_extendqisi2
	str	r0, [r6, #4]
	ldr	r3, [r4, #24]
	cmp	r3, #0
	strbne	r2, [r3]
	ldr	r3, [r4, #36]
	add	r2, r3, #4
	ldr	r3, [r3, #4]
	str	r2, [r4, #36]
	add	r2, r3, #512
	str	r3, [r4, #28]
	str	r3, [r4, #24]
	str	r2, [r4, #32]
	pop	{r4, r5, r6, r7, r8, r9, r10, pc}
.L228:
	ldr	r1, [r4, #20]
	sub	r9, r6, r1
	asr	r9, r9, #2
	add	r9, r9, #1
	add	r7, r9, #1
	cmp	r2, r7, lsl #1
	bls	.L203
	sub	r7, r2, r7
	add	r2, r6, #4
	lsr	r7, r7, #1
	sub	r2, r2, r1
	add	r7, r0, r7, lsl #2
	cmp	r1, r7
	bls	.L204
	lsrs	r3, r2, #2
	beq	.L205
	mov	r0, r7
	bl	memmove(PLT)
.L205:
	ldr	r3, [r7]
	sub	r6, r9, #-1073741823
	add	r2, r3, #512
	str	r2, [r4, #16]
	str	r3, [r4, #12]
	ldr	r3, [r7, r6, lsl #2]
	add	r6, r7, r6, lsl #2
	add	r2, r3, #512
	str	r7, [r4, #20]
	str	r3, [r4, #28]
	str	r2, [r4, #32]
	str	r6, [r4, #36]
	b	.L202
.L203:
	cmp	r2, #0
	beq	.L209
	lsl	r2, r2, #1
	add	r8, r2, #2
	cmn	r8, #-1073741823
	bhi	.L229
.L206:
	lsl	r0, r8, #2
	bl	_Znwj(PLT)
	ldr	r2, [r4, #36]
	sub	r7, r8, r7
	ldr	r1, [r4, #20]
	add	r2, r2, #4
	lsr	r7, r7, #1
	sub	r2, r2, r1
	lsrs	r3, r2, #2
	mov	r6, r0
	add	r7, r0, r7, lsl #2
	bne	.L230
.L207:
	ldr	r0, [r4]
	bl	_ZdlPv(PLT)
	stm	r4, {r6, r8}
	b	.L205
.L209:
	mov	r8, #3
	b	.L206
.L230:
	mov	r0, r7
	bl	memmove(PLT)
	b	.L207
.L204:
	lsrs	r3, r2, #2
	lsl	r3, r9, #2
	beq	.L205
	sub	r3, r3, r2
	add	r0, r7, r3
	bl	memmove(PLT)
	b	.L205
.L229:
	bl	_ZSt17__throw_bad_allocv(PLT)
	.fnend
	.size	_ZNSt5dequeIN8opendnp312FunctionCodeESaIS1_EE12emplace_backIJS1_EEEvDpOT_, .-_ZNSt5dequeIN8opendnp312FunctionCodeESaIS1_EE12emplace_backIJS1_EEEvDpOT_
	.text
	.align	2
	.global	_ZN8opendnp311CommandTask20LoadSelectAndOperateEv
	.syntax unified
	.arm
	.fpu vfp
	.type	_ZN8opendnp311CommandTask20LoadSelectAndOperateEv, %function
_ZN8opendnp311CommandTask20LoadSelectAndOperateEv:
	.fnstart
.LFB2976:
	@ args = 0, pretend = 0, frame = 8
	@ frame_needed = 0, uses_anonymous_args = 0
	push	{r4, r5, r6, r7, r8, r9, r10, fp, lr}
	.save {r4, r5, r6, r7, r8, r9, r10, fp, lr}
	add	r9, r0, #72
	ldr	r8, [r0, #84]
	ldr	r5, [r0, #100]
	add	r4, r8, #4
	add	r5, r5, #4
	cmp	r4, r5
	.pad #12
	sub	sp, sp, #12
	mov	r6, r0
	add	r7, r0, #64
	ldm	r9, {r9, r10, fp}
	bcs	.L233
.L234:
	ldr	r0, [r4], #4
	bl	_ZdlPv(PLT)
	cmp	r5, r4
	bhi	.L234
.L233:
	add	r4, sp, #8
	mov	r3, #3
	strb	r3, [r4, #-1]!
	mov	r0, r7
	mov	r1, r4
	str	r9, [r6, #88]
	str	r10, [r6, #92]
	str	fp, [r6, #96]
	str	r8, [r6, #100]
	bl	_ZNSt5dequeIN8opendnp312FunctionCodeESaIS1_EE12emplace_backIJS1_EEEvDpOT_(PLT)
	mov	r3, #4
	mov	r1, r4
	mov	r0, r7
	strb	r3, [sp, #7]
	bl	_ZNSt5dequeIN8opendnp312FunctionCodeESaIS1_EE12emplace_backIJS1_EEEvDpOT_(PLT)
	add	sp, sp, #12
	@ sp needed
	pop	{r4, r5, r6, r7, r8, r9, r10, fp, pc}
	.fnend
	.size	_ZN8opendnp311CommandTask20LoadSelectAndOperateEv, .-_ZN8opendnp311CommandTask20LoadSelectAndOperateEv
	.align	2
	.global	_ZN8opendnp311CommandTask22CreateSelectAndOperateEONS_10CommandSetERNS_18IMasterApplicationERKSt8functionIFvRKNS_18ICommandTaskResultEEERKNS_10TaskConfigEN7openpal6LoggerE
	.syntax unified
	.arm
	.fpu vfp
	.type	_ZN8opendnp311CommandTask22CreateSelectAndOperateEONS_10CommandSetERNS_18IMasterApplicationERKSt8functionIFvRKNS_18ICommandTaskResultEEERKNS_10TaskConfigEN7openpal6LoggerE, %function
_ZN8opendnp311CommandTask22CreateSelectAndOperateEONS_10CommandSetERNS_18IMasterApplicationERKSt8functionIFvRKNS_18ICommandTaskResultEEERKNS_10TaskConfigEN7openpal6LoggerE:
	.fnstart
.LFB2969:
	@ args = 8, pretend = 0, frame = 16
	@ frame_needed = 0, uses_anonymous_args = 0
	push	{r4, r5, r6, r7, r8, r9, r10, lr}
	.save {r4, r5, r6, r7, r8, r9, r10, lr}
	.pad #24
	sub	sp, sp, #24
	mov	r6, r0
	mov	r0, #176
	ldr	r10, [sp, #60]
	mov	r8, r2
	mov	r9, r3
	mov	r7, r1
.LEHB9:
	bl	_Znwj(PLT)
.LEHE9:
	ldr	r5, .L285
	ldr	r3, .L285+4
.LPIC15:
	add	r5, pc, r5
	mov	r2, #1
	ldr	ip, [r10, #4]
	cmp	ip, #0
	mov	r4, r0
	mov	r0, #0
	str	r0, [r4, #4]
	str	r0, [r4, #8]
	str	r0, [r4, #12]
	str	r0, [r4, #16]
	str	r0, [r4, #20]
	str	r0, [r4, #24]
	str	r2, [r4, #28]
	str	r2, [r4, #32]
	ldr	r3, [r5, r3]
	mov	r0, r4
	ldr	r2, [r10]
	add	r3, r3, #8
	str	r3, [r0], #40
	str	ip, [sp, #12]
	str	r2, [sp, #8]
	beq	.L238
	ldr	r3, .L285+8
	ldr	r3, [r5, r3]
	cmp	r3, #0
	beq	.L239
	add	ip, ip, #28
	mcr	p15, 0, r0, c7, c10, 5
.L275:
	ldrex	r3, [ip]
	add	r3, r3, #1
	strex	r2, r3, [ip]
	cmp	r2, #0
	bne	.L275
	mcr	p15, 0, r0, c7, c10, 5
	ldr	r3, [r10, #12]
	ldr	r2, [r10, #8]
	cmp	r3, #0
	str	r2, [sp, #16]
	str	r3, [sp, #20]
	beq	.L241
.L277:
	add	r3, r3, #28
	mcr	p15, 0, r0, c7, c10, 5
.L274:
	ldrex	r2, [r3]
	add	r2, r2, #1
	strex	r1, r2, [r3]
	cmp	r1, #0
	bne	.L274
	mcr	p15, 0, r0, c7, c10, 5
.L241:
	ldr	r3, [sp, #56]
	add	r10, sp, #8
	str	r3, [sp]
	mov	r2, r8
	mov	r3, r9
	mov	r1, r7
	str	r10, [sp, #4]
.LEHB10:
	bl	_ZN8opendnp311CommandTaskC1EONS_10CommandSetERNS_18IMasterApplicationERKSt8functionIFvRKNS_18ICommandTaskResultEEERKNS_10TaskConfigEN7openpal6LoggerE(PLT)
.LEHE10:
	ldr	r7, [sp, #20]
	cmp	r7, #0
	beq	.L245
	ldr	r3, .L285+8
	ldr	r3, [r5, r3]
	cmp	r3, #0
	beq	.L246
	add	r3, r7, #28
	mcr	p15, 0, r0, c7, c10, 5
.L273:
	ldrex	r2, [r3]
	sub	r1, r2, #1
	strex	r0, r1, [r3]
	cmp	r0, #0
	bne	.L273
	cmp	r2, #1
	mcr	p15, 0, r0, c7, c10, 5
	beq	.L283
.L245:
	ldr	r7, [sp, #12]
	cmp	r7, #0
	beq	.L251
	ldr	r3, .L285+8
	ldr	r3, [r5, r3]
	cmp	r3, #0
	beq	.L252
	add	r3, r7, #28
	mcr	p15, 0, r0, c7, c10, 5
.L272:
	ldrex	r2, [r3]
	sub	r1, r2, #1
	strex	r0, r1, [r3]
	cmp	r0, #0
	bne	.L272
	cmp	r2, #1
	mcr	p15, 0, r0, c7, c10, 5
	beq	.L284
.L251:
	ldr	r3, .L285+12
	ldr	r2, [r4]
	mov	r0, r4
	ldr	r1, [r5, r3]
	ldr	r3, [r2, #16]
	blx	r3
	mov	r5, r0
.LEHB11:
	bl	_ZN8opendnp311CommandTask20LoadSelectAndOperateEv(PLT)
.LEHE11:
	mov	r0, r6
	str	r5, [r6]
	str	r4, [r6, #4]
	add	sp, sp, #24
	@ sp needed
	pop	{r4, r5, r6, r7, r8, r9, r10, pc}
.L239:
	ldr	r3, [r10, #12]
	ldr	r2, [ip, #28]
	ldr	r1, [r10, #8]
	add	r2, r2, #1
	cmp	r3, #0
	str	r2, [ip, #28]
	str	r3, [sp, #20]
	str	r1, [sp, #16]
	beq	.L241
.L242:
	ldr	r2, [r3, #28]
	add	r2, r2, #1
	str	r2, [r3, #28]
	b	.L241
.L252:
	ldr	r3, [r7, #28]
	cmp	r3, #1
	sub	r3, r3, #1
	str	r3, [r7, #28]
	bne	.L251
	ldr	r3, [r7]
	mov	r0, r7
	ldr	r3, [r3, #8]
	blx	r3
	mcr	p15, 0, r0, c7, c10, 5
	ldr	r2, [r7, #32]
	sub	r3, r2, #1
	str	r3, [r7, #32]
	b	.L261
.L246:
	ldr	r3, [r7, #28]
	cmp	r3, #1
	sub	r3, r3, #1
	str	r3, [r7, #28]
	bne	.L245
	ldr	r3, [r7]
	mov	r0, r7
	ldr	r3, [r3, #8]
	blx	r3
	mcr	p15, 0, r0, c7, c10, 5
	ldr	r2, [r7, #32]
	sub	r3, r2, #1
	str	r3, [r7, #32]
	b	.L260
.L284:
	ldr	r3, [r7]
	mov	r0, r7
	ldr	r3, [r3, #8]
	blx	r3
	add	r3, r7, #32
	mcr	p15, 0, r0, c7, c10, 5
	mcr	p15, 0, r0, c7, c10, 5
.L270:
	ldrex	r2, [r3]
	sub	r1, r2, #1
	strex	r0, r1, [r3]
	cmp	r0, #0
	bne	.L270
	mcr	p15, 0, r0, c7, c10, 5
.L261:
	cmp	r2, #1
	bne	.L251
	ldr	r3, [r7]
	mov	r0, r7
	ldr	r3, [r3, #12]
	blx	r3
	b	.L251
.L238:
	ldr	r3, [r10, #12]
	ldr	r2, [r10, #8]
	cmp	r3, #0
	str	r3, [sp, #20]
	str	r2, [sp, #16]
	beq	.L241
	ldr	r2, .L285+8
	ldr	r2, [r5, r2]
	cmp	r2, #0
	bne	.L277
	b	.L242
.L283:
	ldr	r3, [r7]
	mov	r0, r7
	ldr	r3, [r3, #8]
	blx	r3
	add	r3, r7, #32
	mcr	p15, 0, r0, c7, c10, 5
	mcr	p15, 0, r0, c7, c10, 5
.L271:
	ldrex	r2, [r3]
	sub	r1, r2, #1
	strex	r0, r1, [r3]
	cmp	r0, #0
	bne	.L271
	mcr	p15, 0, r0, c7, c10, 5
.L260:
	cmp	r2, #1
	bne	.L245
	ldr	r3, [r7]
	mov	r0, r7
	ldr	r3, [r3, #12]
	blx	r3
	b	.L245
.L263:
	mov	r0, r4
	bl	_ZNSt16_Sp_counted_baseILN9__gnu_cxx12_Lock_policyE1EE10_M_releaseEv(PLT)
.LEHB12:
	bl	__cxa_end_cleanup(PLT)
.L264:
	mov	r0, r10
	bl	_ZN7openpal6LoggerD1Ev(PLT)
	mov	r0, r4
	bl	_ZdlPv(PLT)
	bl	__cxa_end_cleanup(PLT)
.LEHE12:
.L286:
	.align	2
.L285:
	.word	_GLOBAL_OFFSET_TABLE_-(.LPIC15+8)
	.word	_ZTVSt23_Sp_counted_ptr_inplaceIN8opendnp311CommandTaskESaIS1_ELN9__gnu_cxx12_Lock_policyE1EE(GOT)
	.word	_ZL28__gthrw___pthread_key_createPjPFvPvE(GOT)
	.word	_ZTISt19_Sp_make_shared_tag(GOT)
	.personality	__gxx_personality_v0
	.handlerdata
.LLSDA2969:
	.byte	0xff
	.byte	0xff
	.byte	0x1
	.uleb128 .LLSDACSE2969-.LLSDACSB2969
.LLSDACSB2969:
	.uleb128 .LEHB9-.LFB2969
	.uleb128 .LEHE9-.LEHB9
	.uleb128 0
	.uleb128 0
	.uleb128 .LEHB10-.LFB2969
	.uleb128 .LEHE10-.LEHB10
	.uleb128 .L264-.LFB2969
	.uleb128 0
	.uleb128 .LEHB11-.LFB2969
	.uleb128 .LEHE11-.LEHB11
	.uleb128 .L263-.LFB2969
	.uleb128 0
	.uleb128 .LEHB12-.LFB2969
	.uleb128 .LEHE12-.LEHB12
	.uleb128 0
	.uleb128 0
.LLSDACSE2969:
	.text
	.fnend
	.size	_ZN8opendnp311CommandTask22CreateSelectAndOperateEONS_10CommandSetERNS_18IMasterApplicationERKSt8functionIFvRKNS_18ICommandTaskResultEEERKNS_10TaskConfigEN7openpal6LoggerE, .-_ZN8opendnp311CommandTask22CreateSelectAndOperateEONS_10CommandSetERNS_18IMasterApplicationERKSt8functionIFvRKNS_18ICommandTaskResultEEERKNS_10TaskConfigEN7openpal6LoggerE
	.align	2
	.global	_ZN8opendnp311CommandTask17LoadDirectOperateEv
	.syntax unified
	.arm
	.fpu vfp
	.type	_ZN8opendnp311CommandTask17LoadDirectOperateEv, %function
_ZN8opendnp311CommandTask17LoadDirectOperateEv:
	.fnstart
.LFB2977:
	@ args = 0, pretend = 0, frame = 8
	@ frame_needed = 0, uses_anonymous_args = 0
	push	{r4, r5, r6, r7, r8, r9, r10, fp, lr}
	.save {r4, r5, r6, r7, r8, r9, r10, fp, lr}
	add	r9, r0, #72
	ldr	r7, [r0, #84]
	ldr	r5, [r0, #100]
	add	r4, r7, #4
	add	r5, r5, #4
	cmp	r4, r5
	.pad #12
	sub	sp, sp, #12
	mov	r6, r0
	add	r8, r0, #64
	ldm	r9, {r9, r10, fp}
	bcs	.L289
.L290:
	ldr	r0, [r4], #4
	bl	_ZdlPv(PLT)
	cmp	r5, r4
	bhi	.L290
.L289:
	add	r1, sp, #8
	mov	r3, #5
	str	r9, [r6, #88]
	str	r10, [r6, #92]
	str	fp, [r6, #96]
	str	r7, [r6, #100]
	mov	r0, r8
	strb	r3, [r1, #-1]!
	bl	_ZNSt5dequeIN8opendnp312FunctionCodeESaIS1_EE12emplace_backIJS1_EEEvDpOT_(PLT)
	add	sp, sp, #12
	@ sp needed
	pop	{r4, r5, r6, r7, r8, r9, r10, fp, pc}
	.fnend
	.size	_ZN8opendnp311CommandTask17LoadDirectOperateEv, .-_ZN8opendnp311CommandTask17LoadDirectOperateEv
	.align	2
	.global	_ZN8opendnp311CommandTask19CreateDirectOperateEONS_10CommandSetERNS_18IMasterApplicationERKSt8functionIFvRKNS_18ICommandTaskResultEEERKNS_10TaskConfigEN7openpal6LoggerE
	.syntax unified
	.arm
	.fpu vfp
	.type	_ZN8opendnp311CommandTask19CreateDirectOperateEONS_10CommandSetERNS_18IMasterApplicationERKSt8functionIFvRKNS_18ICommandTaskResultEEERKNS_10TaskConfigEN7openpal6LoggerE, %function
_ZN8opendnp311CommandTask19CreateDirectOperateEONS_10CommandSetERNS_18IMasterApplicationERKSt8functionIFvRKNS_18ICommandTaskResultEEERKNS_10TaskConfigEN7openpal6LoggerE:
	.fnstart
.LFB2955:
	@ args = 8, pretend = 0, frame = 16
	@ frame_needed = 0, uses_anonymous_args = 0
	push	{r4, r5, r6, r7, r8, r9, r10, lr}
	.save {r4, r5, r6, r7, r8, r9, r10, lr}
	.pad #24
	sub	sp, sp, #24
	mov	r6, r0
	mov	r0, #176
	ldr	r10, [sp, #60]
	mov	r8, r2
	mov	r9, r3
	mov	r7, r1
.LEHB13:
	bl	_Znwj(PLT)
.LEHE13:
	ldr	r5, .L341
	ldr	r3, .L341+4
.LPIC16:
	add	r5, pc, r5
	mov	r2, #1
	ldr	ip, [r10, #4]
	cmp	ip, #0
	mov	r4, r0
	mov	r0, #0
	str	r0, [r4, #4]
	str	r0, [r4, #8]
	str	r0, [r4, #12]
	str	r0, [r4, #16]
	str	r0, [r4, #20]
	str	r0, [r4, #24]
	str	r2, [r4, #28]
	str	r2, [r4, #32]
	ldr	r3, [r5, r3]
	mov	r0, r4
	ldr	r2, [r10]
	add	r3, r3, #8
	str	r3, [r0], #40
	str	ip, [sp, #12]
	str	r2, [sp, #8]
	beq	.L294
	ldr	r3, .L341+8
	ldr	r3, [r5, r3]
	cmp	r3, #0
	beq	.L295
	add	ip, ip, #28
	mcr	p15, 0, r0, c7, c10, 5
.L331:
	ldrex	r3, [ip]
	add	r3, r3, #1
	strex	r2, r3, [ip]
	cmp	r2, #0
	bne	.L331
	mcr	p15, 0, r0, c7, c10, 5
	ldr	r3, [r10, #12]
	ldr	r2, [r10, #8]
	cmp	r3, #0
	str	r2, [sp, #16]
	str	r3, [sp, #20]
	beq	.L297
.L333:
	add	r3, r3, #28
	mcr	p15, 0, r0, c7, c10, 5
.L330:
	ldrex	r2, [r3]
	add	r2, r2, #1
	strex	r1, r2, [r3]
	cmp	r1, #0
	bne	.L330
	mcr	p15, 0, r0, c7, c10, 5
.L297:
	ldr	r3, [sp, #56]
	add	r10, sp, #8
	str	r3, [sp]
	mov	r2, r8
	mov	r3, r9
	mov	r1, r7
	str	r10, [sp, #4]
.LEHB14:
	bl	_ZN8opendnp311CommandTaskC1EONS_10CommandSetERNS_18IMasterApplicationERKSt8functionIFvRKNS_18ICommandTaskResultEEERKNS_10TaskConfigEN7openpal6LoggerE(PLT)
.LEHE14:
	ldr	r7, [sp, #20]
	cmp	r7, #0
	beq	.L301
	ldr	r3, .L341+8
	ldr	r3, [r5, r3]
	cmp	r3, #0
	beq	.L302
	add	r3, r7, #28
	mcr	p15, 0, r0, c7, c10, 5
.L329:
	ldrex	r2, [r3]
	sub	r1, r2, #1
	strex	r0, r1, [r3]
	cmp	r0, #0
	bne	.L329
	cmp	r2, #1
	mcr	p15, 0, r0, c7, c10, 5
	beq	.L339
.L301:
	ldr	r7, [sp, #12]
	cmp	r7, #0
	beq	.L307
	ldr	r3, .L341+8
	ldr	r3, [r5, r3]
	cmp	r3, #0
	beq	.L308
	add	r3, r7, #28
	mcr	p15, 0, r0, c7, c10, 5
.L328:
	ldrex	r2, [r3]
	sub	r1, r2, #1
	strex	r0, r1, [r3]
	cmp	r0, #0
	bne	.L328
	cmp	r2, #1
	mcr	p15, 0, r0, c7, c10, 5
	beq	.L340
.L307:
	ldr	r3, .L341+12
	ldr	r2, [r4]
	mov	r0, r4
	ldr	r1, [r5, r3]
	ldr	r3, [r2, #16]
	blx	r3
	mov	r5, r0
.LEHB15:
	bl	_ZN8opendnp311CommandTask17LoadDirectOperateEv(PLT)
.LEHE15:
	mov	r0, r6
	str	r5, [r6]
	str	r4, [r6, #4]
	add	sp, sp, #24
	@ sp needed
	pop	{r4, r5, r6, r7, r8, r9, r10, pc}
.L295:
	ldr	r3, [r10, #12]
	ldr	r2, [ip, #28]
	ldr	r1, [r10, #8]
	add	r2, r2, #1
	cmp	r3, #0
	str	r2, [ip, #28]
	str	r3, [sp, #20]
	str	r1, [sp, #16]
	beq	.L297
.L298:
	ldr	r2, [r3, #28]
	add	r2, r2, #1
	str	r2, [r3, #28]
	b	.L297
.L308:
	ldr	r3, [r7, #28]
	cmp	r3, #1
	sub	r3, r3, #1
	str	r3, [r7, #28]
	bne	.L307
	ldr	r3, [r7]
	mov	r0, r7
	ldr	r3, [r3, #8]
	blx	r3
	mcr	p15, 0, r0, c7, c10, 5
	ldr	r2, [r7, #32]
	sub	r3, r2, #1
	str	r3, [r7, #32]
	b	.L317
.L302:
	ldr	r3, [r7, #28]
	cmp	r3, #1
	sub	r3, r3, #1
	str	r3, [r7, #28]
	bne	.L301
	ldr	r3, [r7]
	mov	r0, r7
	ldr	r3, [r3, #8]
	blx	r3
	mcr	p15, 0, r0, c7, c10, 5
	ldr	r2, [r7, #32]
	sub	r3, r2, #1
	str	r3, [r7, #32]
	b	.L316
.L340:
	ldr	r3, [r7]
	mov	r0, r7
	ldr	r3, [r3, #8]
	blx	r3
	add	r3, r7, #32
	mcr	p15, 0, r0, c7, c10, 5
	mcr	p15, 0, r0, c7, c10, 5
.L326:
	ldrex	r2, [r3]
	sub	r1, r2, #1
	strex	r0, r1, [r3]
	cmp	r0, #0
	bne	.L326
	mcr	p15, 0, r0, c7, c10, 5
.L317:
	cmp	r2, #1
	bne	.L307
	ldr	r3, [r7]
	mov	r0, r7
	ldr	r3, [r3, #12]
	blx	r3
	b	.L307
.L294:
	ldr	r3, [r10, #12]
	ldr	r2, [r10, #8]
	cmp	r3, #0
	str	r3, [sp, #20]
	str	r2, [sp, #16]
	beq	.L297
	ldr	r2, .L341+8
	ldr	r2, [r5, r2]
	cmp	r2, #0
	bne	.L333
	b	.L298
.L339:
	ldr	r3, [r7]
	mov	r0, r7
	ldr	r3, [r3, #8]
	blx	r3
	add	r3, r7, #32
	mcr	p15, 0, r0, c7, c10, 5
	mcr	p15, 0, r0, c7, c10, 5
.L327:
	ldrex	r2, [r3]
	sub	r1, r2, #1
	strex	r0, r1, [r3]
	cmp	r0, #0
	bne	.L327
	mcr	p15, 0, r0, c7, c10, 5
.L316:
	cmp	r2, #1
	bne	.L301
	ldr	r3, [r7]
	mov	r0, r7
	ldr	r3, [r3, #12]
	blx	r3
	b	.L301
.L319:
	mov	r0, r4
	bl	_ZNSt16_Sp_counted_baseILN9__gnu_cxx12_Lock_policyE1EE10_M_releaseEv(PLT)
.LEHB16:
	bl	__cxa_end_cleanup(PLT)
.L320:
	mov	r0, r10
	bl	_ZN7openpal6LoggerD1Ev(PLT)
	mov	r0, r4
	bl	_ZdlPv(PLT)
	bl	__cxa_end_cleanup(PLT)
.LEHE16:
.L342:
	.align	2
.L341:
	.word	_GLOBAL_OFFSET_TABLE_-(.LPIC16+8)
	.word	_ZTVSt23_Sp_counted_ptr_inplaceIN8opendnp311CommandTaskESaIS1_ELN9__gnu_cxx12_Lock_policyE1EE(GOT)
	.word	_ZL28__gthrw___pthread_key_createPjPFvPvE(GOT)
	.word	_ZTISt19_Sp_make_shared_tag(GOT)
	.personality	__gxx_personality_v0
	.handlerdata
.LLSDA2955:
	.byte	0xff
	.byte	0xff
	.byte	0x1
	.uleb128 .LLSDACSE2955-.LLSDACSB2955
.LLSDACSB2955:
	.uleb128 .LEHB13-.LFB2955
	.uleb128 .LEHE13-.LEHB13
	.uleb128 0
	.uleb128 0
	.uleb128 .LEHB14-.LFB2955
	.uleb128 .LEHE14-.LEHB14
	.uleb128 .L320-.LFB2955
	.uleb128 0
	.uleb128 .LEHB15-.LFB2955
	.uleb128 .LEHE15-.LEHB15
	.uleb128 .L319-.LFB2955
	.uleb128 0
	.uleb128 .LEHB16-.LFB2955
	.uleb128 .LEHE16-.LEHB16
	.uleb128 0
	.uleb128 0
.LLSDACSE2955:
	.text
	.fnend
	.size	_ZN8opendnp311CommandTask19CreateDirectOperateEONS_10CommandSetERNS_18IMasterApplicationERKSt8functionIFvRKNS_18ICommandTaskResultEEERKNS_10TaskConfigEN7openpal6LoggerE, .-_ZN8opendnp311CommandTask19CreateDirectOperateEONS_10CommandSetERNS_18IMasterApplicationERKSt8functionIFvRKNS_18ICommandTaskResultEEERKNS_10TaskConfigEN7openpal6LoggerE
	.weak	_ZTSN9__gnu_cxx7__mutexE
	.section	.rodata._ZTSN9__gnu_cxx7__mutexE,"aG",%progbits,_ZTSN9__gnu_cxx7__mutexE,comdat
	.align	2
	.type	_ZTSN9__gnu_cxx7__mutexE, %object
	.size	_ZTSN9__gnu_cxx7__mutexE, 21
_ZTSN9__gnu_cxx7__mutexE:
	.ascii	"N9__gnu_cxx7__mutexE\000"
	.weak	_ZTIN9__gnu_cxx7__mutexE
	.section	.data.rel.ro._ZTIN9__gnu_cxx7__mutexE,"awG",%progbits,_ZTIN9__gnu_cxx7__mutexE,comdat
	.align	2
	.type	_ZTIN9__gnu_cxx7__mutexE, %object
	.size	_ZTIN9__gnu_cxx7__mutexE, 8
_ZTIN9__gnu_cxx7__mutexE:
	.word	_ZTVN10__cxxabiv117__class_type_infoE+8
	.word	_ZTSN9__gnu_cxx7__mutexE
	.weak	_ZTSSt11_Mutex_baseILN9__gnu_cxx12_Lock_policyE1EE
	.section	.rodata._ZTSSt11_Mutex_baseILN9__gnu_cxx12_Lock_policyE1EE,"aG",%progbits,_ZTSSt11_Mutex_baseILN9__gnu_cxx12_Lock_policyE1EE,comdat
	.align	2
	.type	_ZTSSt11_Mutex_baseILN9__gnu_cxx12_Lock_policyE1EE, %object
	.size	_ZTSSt11_Mutex_baseILN9__gnu_cxx12_Lock_policyE1EE, 47
_ZTSSt11_Mutex_baseILN9__gnu_cxx12_Lock_policyE1EE:
	.ascii	"St11_Mutex_baseILN9__gnu_cxx12_Lock_policyE1EE\000"
	.weak	_ZTISt11_Mutex_baseILN9__gnu_cxx12_Lock_policyE1EE
	.section	.data.rel.ro._ZTISt11_Mutex_baseILN9__gnu_cxx12_Lock_policyE1EE,"awG",%progbits,_ZTISt11_Mutex_baseILN9__gnu_cxx12_Lock_policyE1EE,comdat
	.align	2
	.type	_ZTISt11_Mutex_baseILN9__gnu_cxx12_Lock_policyE1EE, %object
	.size	_ZTISt11_Mutex_baseILN9__gnu_cxx12_Lock_policyE1EE, 12
_ZTISt11_Mutex_baseILN9__gnu_cxx12_Lock_policyE1EE:
	.word	_ZTVN10__cxxabiv120__si_class_type_infoE+8
	.word	_ZTSSt11_Mutex_baseILN9__gnu_cxx12_Lock_policyE1EE
	.word	_ZTIN9__gnu_cxx7__mutexE
	.weak	_ZTSSt16_Sp_counted_baseILN9__gnu_cxx12_Lock_policyE1EE
	.section	.rodata._ZTSSt16_Sp_counted_baseILN9__gnu_cxx12_Lock_policyE1EE,"aG",%progbits,_ZTSSt16_Sp_counted_baseILN9__gnu_cxx12_Lock_policyE1EE,comdat
	.align	2
	.type	_ZTSSt16_Sp_counted_baseILN9__gnu_cxx12_Lock_policyE1EE, %object
	.size	_ZTSSt16_Sp_counted_baseILN9__gnu_cxx12_Lock_policyE1EE, 52
_ZTSSt16_Sp_counted_baseILN9__gnu_cxx12_Lock_policyE1EE:
	.ascii	"St16_Sp_counted_baseILN9__gnu_cxx12_Lock_policyE1EE"
	.ascii	"\000"
	.weak	_ZTISt16_Sp_counted_baseILN9__gnu_cxx12_Lock_policyE1EE
	.section	.data.rel.ro._ZTISt16_Sp_counted_baseILN9__gnu_cxx12_Lock_policyE1EE,"awG",%progbits,_ZTISt16_Sp_counted_baseILN9__gnu_cxx12_Lock_policyE1EE,comdat
	.align	2
	.type	_ZTISt16_Sp_counted_baseILN9__gnu_cxx12_Lock_policyE1EE, %object
	.size	_ZTISt16_Sp_counted_baseILN9__gnu_cxx12_Lock_policyE1EE, 24
_ZTISt16_Sp_counted_baseILN9__gnu_cxx12_Lock_policyE1EE:
	.word	_ZTVN10__cxxabiv121__vmi_class_type_infoE+8
	.word	_ZTSSt16_Sp_counted_baseILN9__gnu_cxx12_Lock_policyE1EE
	.word	0
	.word	1
	.word	_ZTISt11_Mutex_baseILN9__gnu_cxx12_Lock_policyE1EE
	.word	1026
	.global	_ZTSN8opendnp311CommandTaskE
	.global	_ZTIN8opendnp311CommandTaskE
	.weak	_ZTSSt19_Sp_make_shared_tag
	.section	.rodata._ZTSSt19_Sp_make_shared_tag,"aG",%progbits,_ZTSSt19_Sp_make_shared_tag,comdat
	.align	2
	.type	_ZTSSt19_Sp_make_shared_tag, %object
	.size	_ZTSSt19_Sp_make_shared_tag, 24
_ZTSSt19_Sp_make_shared_tag:
	.ascii	"St19_Sp_make_shared_tag\000"
	.weak	_ZTISt19_Sp_make_shared_tag
	.section	.data.rel.ro._ZTISt19_Sp_make_shared_tag,"awG",%progbits,_ZTISt19_Sp_make_shared_tag,comdat
	.align	2
	.type	_ZTISt19_Sp_make_shared_tag, %object
	.size	_ZTISt19_Sp_make_shared_tag, 8
_ZTISt19_Sp_make_shared_tag:
	.word	_ZTVN10__cxxabiv117__class_type_infoE+8
	.word	_ZTSSt19_Sp_make_shared_tag
	.weak	_ZTSSt23_Sp_counted_ptr_inplaceIN8opendnp311CommandTaskESaIS1_ELN9__gnu_cxx12_Lock_policyE1EE
	.section	.rodata._ZTSSt23_Sp_counted_ptr_inplaceIN8opendnp311CommandTaskESaIS1_ELN9__gnu_cxx12_Lock_policyE1EE,"aG",%progbits,_ZTSSt23_Sp_counted_ptr_inplaceIN8opendnp311CommandTaskESaIS1_ELN9__gnu_cxx12_Lock_policyE1EE,comdat
	.align	2
	.type	_ZTSSt23_Sp_counted_ptr_inplaceIN8opendnp311CommandTaskESaIS1_ELN9__gnu_cxx12_Lock_policyE1EE, %object
	.size	_ZTSSt23_Sp_counted_ptr_inplaceIN8opendnp311CommandTaskESaIS1_ELN9__gnu_cxx12_Lock_policyE1EE, 90
_ZTSSt23_Sp_counted_ptr_inplaceIN8opendnp311CommandTaskESaIS1_ELN9__gnu_cxx12_Lock_policyE1EE:
	.ascii	"St23_Sp_counted_ptr_inplaceIN8opendnp311CommandTask"
	.ascii	"ESaIS1_ELN9__gnu_cxx12_Lock_policyE1EE\000"
	.weak	_ZTISt23_Sp_counted_ptr_inplaceIN8opendnp311CommandTaskESaIS1_ELN9__gnu_cxx12_Lock_policyE1EE
	.section	.data.rel.ro._ZTISt23_Sp_counted_ptr_inplaceIN8opendnp311CommandTaskESaIS1_ELN9__gnu_cxx12_Lock_policyE1EE,"awG",%progbits,_ZTISt23_Sp_counted_ptr_inplaceIN8opendnp311CommandTaskESaIS1_ELN9__gnu_cxx12_Lock_policyE1EE,comdat
	.align	2
	.type	_ZTISt23_Sp_counted_ptr_inplaceIN8opendnp311CommandTaskESaIS1_ELN9__gnu_cxx12_Lock_policyE1EE, %object
	.size	_ZTISt23_Sp_counted_ptr_inplaceIN8opendnp311CommandTaskESaIS1_ELN9__gnu_cxx12_Lock_policyE1EE, 12
_ZTISt23_Sp_counted_ptr_inplaceIN8opendnp311CommandTaskESaIS1_ELN9__gnu_cxx12_Lock_policyE1EE:
	.word	_ZTVN10__cxxabiv120__si_class_type_infoE+8
	.word	_ZTSSt23_Sp_counted_ptr_inplaceIN8opendnp311CommandTaskESaIS1_ELN9__gnu_cxx12_Lock_policyE1EE
	.word	_ZTISt16_Sp_counted_baseILN9__gnu_cxx12_Lock_policyE1EE
	.global	_ZTVN8opendnp311CommandTaskE
	.weak	_ZTVSt23_Sp_counted_ptr_inplaceIN8opendnp311CommandTaskESaIS1_ELN9__gnu_cxx12_Lock_policyE1EE
	.section	.data.rel.ro._ZTVSt23_Sp_counted_ptr_inplaceIN8opendnp311CommandTaskESaIS1_ELN9__gnu_cxx12_Lock_policyE1EE,"awG",%progbits,_ZTVSt23_Sp_counted_ptr_inplaceIN8opendnp311CommandTaskESaIS1_ELN9__gnu_cxx12_Lock_policyE1EE,comdat
	.align	2
	.type	_ZTVSt23_Sp_counted_ptr_inplaceIN8opendnp311CommandTaskESaIS1_ELN9__gnu_cxx12_Lock_policyE1EE, %object
	.size	_ZTVSt23_Sp_counted_ptr_inplaceIN8opendnp311CommandTaskESaIS1_ELN9__gnu_cxx12_Lock_policyE1EE, 28
_ZTVSt23_Sp_counted_ptr_inplaceIN8opendnp311CommandTaskESaIS1_ELN9__gnu_cxx12_Lock_policyE1EE:
	.word	0
	.word	_ZTISt23_Sp_counted_ptr_inplaceIN8opendnp311CommandTaskESaIS1_ELN9__gnu_cxx12_Lock_policyE1EE
	.word	_ZNSt23_Sp_counted_ptr_inplaceIN8opendnp311CommandTaskESaIS1_ELN9__gnu_cxx12_Lock_policyE1EED1Ev
	.word	_ZNSt23_Sp_counted_ptr_inplaceIN8opendnp311CommandTaskESaIS1_ELN9__gnu_cxx12_Lock_policyE1EED0Ev
	.word	_ZNSt23_Sp_counted_ptr_inplaceIN8opendnp311CommandTaskESaIS1_ELN9__gnu_cxx12_Lock_policyE1EE10_M_disposeEv
	.word	_ZNSt23_Sp_counted_ptr_inplaceIN8opendnp311CommandTaskESaIS1_ELN9__gnu_cxx12_Lock_policyE1EE10_M_destroyEv
	.word	_ZNSt23_Sp_counted_ptr_inplaceIN8opendnp311CommandTaskESaIS1_ELN9__gnu_cxx12_Lock_policyE1EE14_M_get_deleterERKSt9type_info
	.weakref	_ZL28__gthrw___pthread_key_createPjPFvPvE,__pthread_key_create
	.section	.rodata
	.align	2
	.type	_ZTSN8opendnp311CommandTaskE, %object
	.size	_ZTSN8opendnp311CommandTaskE, 25
_ZTSN8opendnp311CommandTaskE:
	.ascii	"N8opendnp311CommandTaskE\000"
	.section	.data.rel.ro,"aw",%progbits
	.align	2
	.type	_ZTIN8opendnp311CommandTaskE, %object
	.size	_ZTIN8opendnp311CommandTaskE, 12
_ZTIN8opendnp311CommandTaskE:
	.word	_ZTVN10__cxxabiv120__si_class_type_infoE+8
	.word	_ZTSN8opendnp311CommandTaskE
	.word	_ZTIN8opendnp311IMasterTaskE
	.type	_ZTVN8opendnp311CommandTaskE, %object
	.size	_ZTVN8opendnp311CommandTaskE, 60
_ZTVN8opendnp311CommandTaskE:
	.word	0
	.word	_ZTIN8opendnp311CommandTaskE
	.word	_ZN8opendnp311CommandTaskD1Ev
	.word	_ZN8opendnp311CommandTaskD0Ev
	.word	_ZNK8opendnp311IMasterTask10IsAuthTaskEv
	.word	_ZNK8opendnp311CommandTask4NameEv
	.word	_ZNK8opendnp311CommandTask8PriorityEv
	.word	_ZNK8opendnp311CommandTask19BlocksLowerPriorityEv
	.word	_ZNK8opendnp311CommandTask11IsRecurringEv
	.word	_ZN8opendnp311CommandTask12BuildRequestERNS_11APDURequestEh
	.word	_ZN8opendnp311CommandTask10InitializeEv
	.word	_ZN8opendnp311CommandTask15ProcessResponseERKNS_18APDUResponseHeaderERKN7openpal6RSliceE
	.word	_ZN8opendnp311CommandTask14OnTaskCompleteENS_14TaskCompletionEN7openpal18MonotonicTimestampE
	.word	_ZNK8opendnp311CommandTask9IsEnabledEv
	.word	_ZNK8opendnp311CommandTask11GetTaskTypeEv
	.section	.rodata._ZNK8opendnp311CommandTask4NameEv.str1.4,"aMS",%progbits,1
	.align	2
.LC0:
	.ascii	"Command Task\000"
	.ident	"GCC: (Raspbian 6.3.0-18+rpi1+deb9u1) 6.3.0 20170516"
	.section	.note.GNU-stack,"",%progbits
