	.arch armv6
	.eabi_attribute 28, 1
	.eabi_attribute 20, 1
	.eabi_attribute 21, 1
	.eabi_attribute 23, 3
	.eabi_attribute 24, 1
	.eabi_attribute 25, 1
	.eabi_attribute 26, 2
	.eabi_attribute 30, 2
	.eabi_attribute 34, 1
	.eabi_attribute 18, 4
	.file	"CommandSetOps.cpp"
	.section	.text._ZN8opendnp312IAPDUHandler14OnHeaderResultERKNS_12HeaderRecordERKNS_8IINFieldE,"axG",%progbits,_ZN8opendnp312IAPDUHandler14OnHeaderResultERKNS_12HeaderRecordERKNS_8IINFieldE,comdat
	.align	2
	.weak	_ZN8opendnp312IAPDUHandler14OnHeaderResultERKNS_12HeaderRecordERKNS_8IINFieldE
	.syntax unified
	.arm
	.fpu vfp
	.type	_ZN8opendnp312IAPDUHandler14OnHeaderResultERKNS_12HeaderRecordERKNS_8IINFieldE, %function
_ZN8opendnp312IAPDUHandler14OnHeaderResultERKNS_12HeaderRecordERKNS_8IINFieldE:
	.fnstart
.LFB2023:
	@ args = 0, pretend = 0, frame = 0
	@ frame_needed = 0, uses_anonymous_args = 0
	@ link register save eliminated.
	bx	lr
	.cantunwind
	.fnend
	.size	_ZN8opendnp312IAPDUHandler14OnHeaderResultERKNS_12HeaderRecordERKNS_8IINFieldE, .-_ZN8opendnp312IAPDUHandler14OnHeaderResultERKNS_12HeaderRecordERKNS_8IINFieldE
	.section	.text._ZN8opendnp314ICommandHeader19ApplySelectResponseERKNS_11ICollectionINS_7IndexedINS_23ControlRelayOutputBlockEEEEE,"axG",%progbits,_ZN8opendnp314ICommandHeader19ApplySelectResponseERKNS_11ICollectionINS_7IndexedINS_23ControlRelayOutputBlockEEEEE,comdat
	.align	2
	.weak	_ZN8opendnp314ICommandHeader19ApplySelectResponseERKNS_11ICollectionINS_7IndexedINS_23ControlRelayOutputBlockEEEEE
	.syntax unified
	.arm
	.fpu vfp
	.type	_ZN8opendnp314ICommandHeader19ApplySelectResponseERKNS_11ICollectionINS_7IndexedINS_23ControlRelayOutputBlockEEEEE, %function
_ZN8opendnp314ICommandHeader19ApplySelectResponseERKNS_11ICollectionINS_7IndexedINS_23ControlRelayOutputBlockEEEEE:
	.fnstart
.LFB2657:
	@ args = 0, pretend = 0, frame = 0
	@ frame_needed = 0, uses_anonymous_args = 0
	@ link register save eliminated.
	bx	lr
	.cantunwind
	.fnend
	.size	_ZN8opendnp314ICommandHeader19ApplySelectResponseERKNS_11ICollectionINS_7IndexedINS_23ControlRelayOutputBlockEEEEE, .-_ZN8opendnp314ICommandHeader19ApplySelectResponseERKNS_11ICollectionINS_7IndexedINS_23ControlRelayOutputBlockEEEEE
	.section	.text._ZN8opendnp314ICommandHeader19ApplySelectResponseERKNS_11ICollectionINS_7IndexedINS_17AnalogOutputInt16EEEEE,"axG",%progbits,_ZN8opendnp314ICommandHeader19ApplySelectResponseERKNS_11ICollectionINS_7IndexedINS_17AnalogOutputInt16EEEEE,comdat
	.align	2
	.weak	_ZN8opendnp314ICommandHeader19ApplySelectResponseERKNS_11ICollectionINS_7IndexedINS_17AnalogOutputInt16EEEEE
	.syntax unified
	.arm
	.fpu vfp
	.type	_ZN8opendnp314ICommandHeader19ApplySelectResponseERKNS_11ICollectionINS_7IndexedINS_17AnalogOutputInt16EEEEE, %function
_ZN8opendnp314ICommandHeader19ApplySelectResponseERKNS_11ICollectionINS_7IndexedINS_17AnalogOutputInt16EEEEE:
	.fnstart
.LFB2658:
	@ args = 0, pretend = 0, frame = 0
	@ frame_needed = 0, uses_anonymous_args = 0
	@ link register save eliminated.
	bx	lr
	.cantunwind
	.fnend
	.size	_ZN8opendnp314ICommandHeader19ApplySelectResponseERKNS_11ICollectionINS_7IndexedINS_17AnalogOutputInt16EEEEE, .-_ZN8opendnp314ICommandHeader19ApplySelectResponseERKNS_11ICollectionINS_7IndexedINS_17AnalogOutputInt16EEEEE
	.section	.text._ZN8opendnp314ICommandHeader19ApplySelectResponseERKNS_11ICollectionINS_7IndexedINS_17AnalogOutputInt32EEEEE,"axG",%progbits,_ZN8opendnp314ICommandHeader19ApplySelectResponseERKNS_11ICollectionINS_7IndexedINS_17AnalogOutputInt32EEEEE,comdat
	.align	2
	.weak	_ZN8opendnp314ICommandHeader19ApplySelectResponseERKNS_11ICollectionINS_7IndexedINS_17AnalogOutputInt32EEEEE
	.syntax unified
	.arm
	.fpu vfp
	.type	_ZN8opendnp314ICommandHeader19ApplySelectResponseERKNS_11ICollectionINS_7IndexedINS_17AnalogOutputInt32EEEEE, %function
_ZN8opendnp314ICommandHeader19ApplySelectResponseERKNS_11ICollectionINS_7IndexedINS_17AnalogOutputInt32EEEEE:
	.fnstart
.LFB2659:
	@ args = 0, pretend = 0, frame = 0
	@ frame_needed = 0, uses_anonymous_args = 0
	@ link register save eliminated.
	bx	lr
	.cantunwind
	.fnend
	.size	_ZN8opendnp314ICommandHeader19ApplySelectResponseERKNS_11ICollectionINS_7IndexedINS_17AnalogOutputInt32EEEEE, .-_ZN8opendnp314ICommandHeader19ApplySelectResponseERKNS_11ICollectionINS_7IndexedINS_17AnalogOutputInt32EEEEE
	.section	.text._ZN8opendnp314ICommandHeader19ApplySelectResponseERKNS_11ICollectionINS_7IndexedINS_19AnalogOutputFloat32EEEEE,"axG",%progbits,_ZN8opendnp314ICommandHeader19ApplySelectResponseERKNS_11ICollectionINS_7IndexedINS_19AnalogOutputFloat32EEEEE,comdat
	.align	2
	.weak	_ZN8opendnp314ICommandHeader19ApplySelectResponseERKNS_11ICollectionINS_7IndexedINS_19AnalogOutputFloat32EEEEE
	.syntax unified
	.arm
	.fpu vfp
	.type	_ZN8opendnp314ICommandHeader19ApplySelectResponseERKNS_11ICollectionINS_7IndexedINS_19AnalogOutputFloat32EEEEE, %function
_ZN8opendnp314ICommandHeader19ApplySelectResponseERKNS_11ICollectionINS_7IndexedINS_19AnalogOutputFloat32EEEEE:
	.fnstart
.LFB2660:
	@ args = 0, pretend = 0, frame = 0
	@ frame_needed = 0, uses_anonymous_args = 0
	@ link register save eliminated.
	bx	lr
	.cantunwind
	.fnend
	.size	_ZN8opendnp314ICommandHeader19ApplySelectResponseERKNS_11ICollectionINS_7IndexedINS_19AnalogOutputFloat32EEEEE, .-_ZN8opendnp314ICommandHeader19ApplySelectResponseERKNS_11ICollectionINS_7IndexedINS_19AnalogOutputFloat32EEEEE
	.section	.text._ZN8opendnp314ICommandHeader19ApplySelectResponseERKNS_11ICollectionINS_7IndexedINS_20AnalogOutputDouble64EEEEE,"axG",%progbits,_ZN8opendnp314ICommandHeader19ApplySelectResponseERKNS_11ICollectionINS_7IndexedINS_20AnalogOutputDouble64EEEEE,comdat
	.align	2
	.weak	_ZN8opendnp314ICommandHeader19ApplySelectResponseERKNS_11ICollectionINS_7IndexedINS_20AnalogOutputDouble64EEEEE
	.syntax unified
	.arm
	.fpu vfp
	.type	_ZN8opendnp314ICommandHeader19ApplySelectResponseERKNS_11ICollectionINS_7IndexedINS_20AnalogOutputDouble64EEEEE, %function
_ZN8opendnp314ICommandHeader19ApplySelectResponseERKNS_11ICollectionINS_7IndexedINS_20AnalogOutputDouble64EEEEE:
	.fnstart
.LFB2661:
	@ args = 0, pretend = 0, frame = 0
	@ frame_needed = 0, uses_anonymous_args = 0
	@ link register save eliminated.
	bx	lr
	.cantunwind
	.fnend
	.size	_ZN8opendnp314ICommandHeader19ApplySelectResponseERKNS_11ICollectionINS_7IndexedINS_20AnalogOutputDouble64EEEEE, .-_ZN8opendnp314ICommandHeader19ApplySelectResponseERKNS_11ICollectionINS_7IndexedINS_20AnalogOutputDouble64EEEEE
	.section	.text._ZN8opendnp314ICommandHeader20ApplyOperateResponseERKNS_11ICollectionINS_7IndexedINS_23ControlRelayOutputBlockEEEEE,"axG",%progbits,_ZN8opendnp314ICommandHeader20ApplyOperateResponseERKNS_11ICollectionINS_7IndexedINS_23ControlRelayOutputBlockEEEEE,comdat
	.align	2
	.weak	_ZN8opendnp314ICommandHeader20ApplyOperateResponseERKNS_11ICollectionINS_7IndexedINS_23ControlRelayOutputBlockEEEEE
	.syntax unified
	.arm
	.fpu vfp
	.type	_ZN8opendnp314ICommandHeader20ApplyOperateResponseERKNS_11ICollectionINS_7IndexedINS_23ControlRelayOutputBlockEEEEE, %function
_ZN8opendnp314ICommandHeader20ApplyOperateResponseERKNS_11ICollectionINS_7IndexedINS_23ControlRelayOutputBlockEEEEE:
	.fnstart
.LFB2662:
	@ args = 0, pretend = 0, frame = 0
	@ frame_needed = 0, uses_anonymous_args = 0
	@ link register save eliminated.
	bx	lr
	.cantunwind
	.fnend
	.size	_ZN8opendnp314ICommandHeader20ApplyOperateResponseERKNS_11ICollectionINS_7IndexedINS_23ControlRelayOutputBlockEEEEE, .-_ZN8opendnp314ICommandHeader20ApplyOperateResponseERKNS_11ICollectionINS_7IndexedINS_23ControlRelayOutputBlockEEEEE
	.section	.text._ZN8opendnp314ICommandHeader20ApplyOperateResponseERKNS_11ICollectionINS_7IndexedINS_17AnalogOutputInt16EEEEE,"axG",%progbits,_ZN8opendnp314ICommandHeader20ApplyOperateResponseERKNS_11ICollectionINS_7IndexedINS_17AnalogOutputInt16EEEEE,comdat
	.align	2
	.weak	_ZN8opendnp314ICommandHeader20ApplyOperateResponseERKNS_11ICollectionINS_7IndexedINS_17AnalogOutputInt16EEEEE
	.syntax unified
	.arm
	.fpu vfp
	.type	_ZN8opendnp314ICommandHeader20ApplyOperateResponseERKNS_11ICollectionINS_7IndexedINS_17AnalogOutputInt16EEEEE, %function
_ZN8opendnp314ICommandHeader20ApplyOperateResponseERKNS_11ICollectionINS_7IndexedINS_17AnalogOutputInt16EEEEE:
	.fnstart
.LFB2663:
	@ args = 0, pretend = 0, frame = 0
	@ frame_needed = 0, uses_anonymous_args = 0
	@ link register save eliminated.
	bx	lr
	.cantunwind
	.fnend
	.size	_ZN8opendnp314ICommandHeader20ApplyOperateResponseERKNS_11ICollectionINS_7IndexedINS_17AnalogOutputInt16EEEEE, .-_ZN8opendnp314ICommandHeader20ApplyOperateResponseERKNS_11ICollectionINS_7IndexedINS_17AnalogOutputInt16EEEEE
	.section	.text._ZN8opendnp314ICommandHeader20ApplyOperateResponseERKNS_11ICollectionINS_7IndexedINS_17AnalogOutputInt32EEEEE,"axG",%progbits,_ZN8opendnp314ICommandHeader20ApplyOperateResponseERKNS_11ICollectionINS_7IndexedINS_17AnalogOutputInt32EEEEE,comdat
	.align	2
	.weak	_ZN8opendnp314ICommandHeader20ApplyOperateResponseERKNS_11ICollectionINS_7IndexedINS_17AnalogOutputInt32EEEEE
	.syntax unified
	.arm
	.fpu vfp
	.type	_ZN8opendnp314ICommandHeader20ApplyOperateResponseERKNS_11ICollectionINS_7IndexedINS_17AnalogOutputInt32EEEEE, %function
_ZN8opendnp314ICommandHeader20ApplyOperateResponseERKNS_11ICollectionINS_7IndexedINS_17AnalogOutputInt32EEEEE:
	.fnstart
.LFB2664:
	@ args = 0, pretend = 0, frame = 0
	@ frame_needed = 0, uses_anonymous_args = 0
	@ link register save eliminated.
	bx	lr
	.cantunwind
	.fnend
	.size	_ZN8opendnp314ICommandHeader20ApplyOperateResponseERKNS_11ICollectionINS_7IndexedINS_17AnalogOutputInt32EEEEE, .-_ZN8opendnp314ICommandHeader20ApplyOperateResponseERKNS_11ICollectionINS_7IndexedINS_17AnalogOutputInt32EEEEE
	.section	.text._ZN8opendnp314ICommandHeader20ApplyOperateResponseERKNS_11ICollectionINS_7IndexedINS_19AnalogOutputFloat32EEEEE,"axG",%progbits,_ZN8opendnp314ICommandHeader20ApplyOperateResponseERKNS_11ICollectionINS_7IndexedINS_19AnalogOutputFloat32EEEEE,comdat
	.align	2
	.weak	_ZN8opendnp314ICommandHeader20ApplyOperateResponseERKNS_11ICollectionINS_7IndexedINS_19AnalogOutputFloat32EEEEE
	.syntax unified
	.arm
	.fpu vfp
	.type	_ZN8opendnp314ICommandHeader20ApplyOperateResponseERKNS_11ICollectionINS_7IndexedINS_19AnalogOutputFloat32EEEEE, %function
_ZN8opendnp314ICommandHeader20ApplyOperateResponseERKNS_11ICollectionINS_7IndexedINS_19AnalogOutputFloat32EEEEE:
	.fnstart
.LFB2665:
	@ args = 0, pretend = 0, frame = 0
	@ frame_needed = 0, uses_anonymous_args = 0
	@ link register save eliminated.
	bx	lr
	.cantunwind
	.fnend
	.size	_ZN8opendnp314ICommandHeader20ApplyOperateResponseERKNS_11ICollectionINS_7IndexedINS_19AnalogOutputFloat32EEEEE, .-_ZN8opendnp314ICommandHeader20ApplyOperateResponseERKNS_11ICollectionINS_7IndexedINS_19AnalogOutputFloat32EEEEE
	.section	.text._ZN8opendnp314ICommandHeader20ApplyOperateResponseERKNS_11ICollectionINS_7IndexedINS_20AnalogOutputDouble64EEEEE,"axG",%progbits,_ZN8opendnp314ICommandHeader20ApplyOperateResponseERKNS_11ICollectionINS_7IndexedINS_20AnalogOutputDouble64EEEEE,comdat
	.align	2
	.weak	_ZN8opendnp314ICommandHeader20ApplyOperateResponseERKNS_11ICollectionINS_7IndexedINS_20AnalogOutputDouble64EEEEE
	.syntax unified
	.arm
	.fpu vfp
	.type	_ZN8opendnp314ICommandHeader20ApplyOperateResponseERKNS_11ICollectionINS_7IndexedINS_20AnalogOutputDouble64EEEEE, %function
_ZN8opendnp314ICommandHeader20ApplyOperateResponseERKNS_11ICollectionINS_7IndexedINS_20AnalogOutputDouble64EEEEE:
	.fnstart
.LFB2666:
	@ args = 0, pretend = 0, frame = 0
	@ frame_needed = 0, uses_anonymous_args = 0
	@ link register save eliminated.
	bx	lr
	.cantunwind
	.fnend
	.size	_ZN8opendnp314ICommandHeader20ApplyOperateResponseERKNS_11ICollectionINS_7IndexedINS_20AnalogOutputDouble64EEEEE, .-_ZN8opendnp314ICommandHeader20ApplyOperateResponseERKNS_11ICollectionINS_7IndexedINS_20AnalogOutputDouble64EEEEE
	.text
	.align	2
	.global	_ZN8opendnp313CommandSetOps9IsAllowedEjNS_14GroupVariationENS_13QualifierCodeE
	.syntax unified
	.arm
	.fpu vfp
	.type	_ZN8opendnp313CommandSetOps9IsAllowedEjNS_14GroupVariationENS_13QualifierCodeE, %function
_ZN8opendnp313CommandSetOps9IsAllowedEjNS_14GroupVariationENS_13QualifierCodeE:
	.fnstart
.LFB3089:
	@ args = 0, pretend = 0, frame = 0
	@ frame_needed = 0, uses_anonymous_args = 0
	@ link register save eliminated.
	cmp	r3, #40
	beq	.L18
.L15:
	mov	r0, #0
	bx	lr
.L18:
	ldr	r3, .L19
	cmp	r2, r3
	beq	.L16
	bcc	.L15
	sub	r2, r2, #10496
	sub	r2, r2, #1
	cmp	r2, #3
	bhi	.L15
.L16:
	mov	r0, #1
	bx	lr
.L20:
	.align	2
.L19:
	.word	3073
	.cantunwind
	.fnend
	.size	_ZN8opendnp313CommandSetOps9IsAllowedEjNS_14GroupVariationENS_13QualifierCodeE, .-_ZN8opendnp313CommandSetOps9IsAllowedEjNS_14GroupVariationENS_13QualifierCodeE
	.align	2
	.global	_ZN8opendnp313CommandSetOps13ProcessHeaderERKNS_12PrefixHeaderERKNS_11ICollectionINS_7IndexedINS_23ControlRelayOutputBlockEEEEE
	.syntax unified
	.arm
	.fpu vfp
	.type	_ZN8opendnp313CommandSetOps13ProcessHeaderERKNS_12PrefixHeaderERKNS_11ICollectionINS_7IndexedINS_23ControlRelayOutputBlockEEEEE, %function
_ZN8opendnp313CommandSetOps13ProcessHeaderERKNS_12PrefixHeaderERKNS_11ICollectionINS_7IndexedINS_23ControlRelayOutputBlockEEEEE:
	.fnstart
.LFB3090:
	@ args = 0, pretend = 0, frame = 8
	@ frame_needed = 0, uses_anonymous_args = 0
	push	{r4, r5, r6, lr}
	.save {r4, r5, r6, lr}
	mov	r5, r0
	.pad #8
	sub	sp, sp, #8
	mov	r0, r1
	mov	r4, r1
	mov	r6, r2
	bl	_ZNK8opendnp312HeaderRecord16GetQualifierCodeEv(PLT)
	ldr	r3, .L30
.LPIC0:
	add	r3, pc, r3
	cmp	r0, #40
	bne	.L29
	ldr	r2, [r5, #20]
	ldr	r0, [r4, #12]
	ldm	r2, {r1, r2}
	sub	r2, r2, r1
	cmp	r0, r2, asr #2
	bcs	.L29
	ldrb	r2, [r5, #16]	@ zero_extendqisi2
	ldr	r0, [r1, r0, lsl #2]
	cmp	r2, #0
	bne	.L25
	ldr	r2, .L30+4
	ldr	r1, [r0]
	ldr	r2, [r3, r2]
	ldr	r3, [r1, #24]
	cmp	r3, r2
	bne	.L28
.L26:
	mov	r3, #0
	mov	r0, r3
	orr	r0, r0, r3, lsl #8
	add	sp, sp, #8
	@ sp needed
	pop	{r4, r5, r6, pc}
.L29:
	mov	r3, #0
	add	r0, sp, #4
	mov	r1, #10
	strb	r3, [sp, #4]
	strb	r3, [sp, #5]
	bl	_ZN8opendnp38IINField6SetBitENS_6IINBitE(PLT)
	ldrb	r3, [sp, #5]	@ zero_extendqisi2
	ldrb	r0, [sp, #4]	@ zero_extendqisi2
	orr	r0, r0, r3, lsl #8
	add	sp, sp, #8
	@ sp needed
	pop	{r4, r5, r6, pc}
.L25:
	ldr	r2, .L30+8
	ldr	r1, [r0]
	ldr	r2, [r3, r2]
	ldr	r3, [r1, #44]
	cmp	r3, r2
	beq	.L26
.L28:
	mov	r1, r6
	blx	r3
	b	.L26
.L31:
	.align	2
.L30:
	.word	_GLOBAL_OFFSET_TABLE_-(.LPIC0+8)
	.word	_ZN8opendnp314ICommandHeader19ApplySelectResponseERKNS_11ICollectionINS_7IndexedINS_23ControlRelayOutputBlockEEEEE(GOT)
	.word	_ZN8opendnp314ICommandHeader20ApplyOperateResponseERKNS_11ICollectionINS_7IndexedINS_23ControlRelayOutputBlockEEEEE(GOT)
	.fnend
	.size	_ZN8opendnp313CommandSetOps13ProcessHeaderERKNS_12PrefixHeaderERKNS_11ICollectionINS_7IndexedINS_23ControlRelayOutputBlockEEEEE, .-_ZN8opendnp313CommandSetOps13ProcessHeaderERKNS_12PrefixHeaderERKNS_11ICollectionINS_7IndexedINS_23ControlRelayOutputBlockEEEEE
	.align	2
	.global	_ZN8opendnp313CommandSetOps13ProcessHeaderERKNS_12PrefixHeaderERKNS_11ICollectionINS_7IndexedINS_17AnalogOutputInt16EEEEE
	.syntax unified
	.arm
	.fpu vfp
	.type	_ZN8opendnp313CommandSetOps13ProcessHeaderERKNS_12PrefixHeaderERKNS_11ICollectionINS_7IndexedINS_17AnalogOutputInt16EEEEE, %function
_ZN8opendnp313CommandSetOps13ProcessHeaderERKNS_12PrefixHeaderERKNS_11ICollectionINS_7IndexedINS_17AnalogOutputInt16EEEEE:
	.fnstart
.LFB3091:
	@ args = 0, pretend = 0, frame = 8
	@ frame_needed = 0, uses_anonymous_args = 0
	push	{r4, r5, r6, lr}
	.save {r4, r5, r6, lr}
	mov	r5, r0
	.pad #8
	sub	sp, sp, #8
	mov	r0, r1
	mov	r4, r1
	mov	r6, r2
	bl	_ZNK8opendnp312HeaderRecord16GetQualifierCodeEv(PLT)
	ldr	r3, .L41
.LPIC1:
	add	r3, pc, r3
	cmp	r0, #40
	bne	.L40
	ldr	r2, [r5, #20]
	ldr	r0, [r4, #12]
	ldm	r2, {r1, r2}
	sub	r2, r2, r1
	cmp	r0, r2, asr #2
	bcs	.L40
	ldrb	r2, [r5, #16]	@ zero_extendqisi2
	ldr	r0, [r1, r0, lsl #2]
	cmp	r2, #0
	bne	.L36
	ldr	r2, .L41+4
	ldr	r1, [r0]
	ldr	r2, [r3, r2]
	ldr	r3, [r1, #28]
	cmp	r3, r2
	bne	.L39
.L37:
	mov	r3, #0
	mov	r0, r3
	orr	r0, r0, r3, lsl #8
	add	sp, sp, #8
	@ sp needed
	pop	{r4, r5, r6, pc}
.L40:
	mov	r3, #0
	add	r0, sp, #4
	mov	r1, #10
	strb	r3, [sp, #4]
	strb	r3, [sp, #5]
	bl	_ZN8opendnp38IINField6SetBitENS_6IINBitE(PLT)
	ldrb	r3, [sp, #5]	@ zero_extendqisi2
	ldrb	r0, [sp, #4]	@ zero_extendqisi2
	orr	r0, r0, r3, lsl #8
	add	sp, sp, #8
	@ sp needed
	pop	{r4, r5, r6, pc}
.L36:
	ldr	r2, .L41+8
	ldr	r1, [r0]
	ldr	r2, [r3, r2]
	ldr	r3, [r1, #48]
	cmp	r3, r2
	beq	.L37
.L39:
	mov	r1, r6
	blx	r3
	b	.L37
.L42:
	.align	2
.L41:
	.word	_GLOBAL_OFFSET_TABLE_-(.LPIC1+8)
	.word	_ZN8opendnp314ICommandHeader19ApplySelectResponseERKNS_11ICollectionINS_7IndexedINS_17AnalogOutputInt16EEEEE(GOT)
	.word	_ZN8opendnp314ICommandHeader20ApplyOperateResponseERKNS_11ICollectionINS_7IndexedINS_17AnalogOutputInt16EEEEE(GOT)
	.fnend
	.size	_ZN8opendnp313CommandSetOps13ProcessHeaderERKNS_12PrefixHeaderERKNS_11ICollectionINS_7IndexedINS_17AnalogOutputInt16EEEEE, .-_ZN8opendnp313CommandSetOps13ProcessHeaderERKNS_12PrefixHeaderERKNS_11ICollectionINS_7IndexedINS_17AnalogOutputInt16EEEEE
	.align	2
	.global	_ZN8opendnp313CommandSetOps13ProcessHeaderERKNS_12PrefixHeaderERKNS_11ICollectionINS_7IndexedINS_17AnalogOutputInt32EEEEE
	.syntax unified
	.arm
	.fpu vfp
	.type	_ZN8opendnp313CommandSetOps13ProcessHeaderERKNS_12PrefixHeaderERKNS_11ICollectionINS_7IndexedINS_17AnalogOutputInt32EEEEE, %function
_ZN8opendnp313CommandSetOps13ProcessHeaderERKNS_12PrefixHeaderERKNS_11ICollectionINS_7IndexedINS_17AnalogOutputInt32EEEEE:
	.fnstart
.LFB3092:
	@ args = 0, pretend = 0, frame = 8
	@ frame_needed = 0, uses_anonymous_args = 0
	push	{r4, r5, r6, lr}
	.save {r4, r5, r6, lr}
	mov	r5, r0
	.pad #8
	sub	sp, sp, #8
	mov	r0, r1
	mov	r4, r1
	mov	r6, r2
	bl	_ZNK8opendnp312HeaderRecord16GetQualifierCodeEv(PLT)
	ldr	r3, .L52
.LPIC2:
	add	r3, pc, r3
	cmp	r0, #40
	bne	.L51
	ldr	r2, [r5, #20]
	ldr	r0, [r4, #12]
	ldm	r2, {r1, r2}
	sub	r2, r2, r1
	cmp	r0, r2, asr #2
	bcs	.L51
	ldrb	r2, [r5, #16]	@ zero_extendqisi2
	ldr	r0, [r1, r0, lsl #2]
	cmp	r2, #0
	bne	.L47
	ldr	r2, .L52+4
	ldr	r1, [r0]
	ldr	r2, [r3, r2]
	ldr	r3, [r1, #32]
	cmp	r3, r2
	bne	.L50
.L48:
	mov	r3, #0
	mov	r0, r3
	orr	r0, r0, r3, lsl #8
	add	sp, sp, #8
	@ sp needed
	pop	{r4, r5, r6, pc}
.L51:
	mov	r3, #0
	add	r0, sp, #4
	mov	r1, #10
	strb	r3, [sp, #4]
	strb	r3, [sp, #5]
	bl	_ZN8opendnp38IINField6SetBitENS_6IINBitE(PLT)
	ldrb	r3, [sp, #5]	@ zero_extendqisi2
	ldrb	r0, [sp, #4]	@ zero_extendqisi2
	orr	r0, r0, r3, lsl #8
	add	sp, sp, #8
	@ sp needed
	pop	{r4, r5, r6, pc}
.L47:
	ldr	r2, .L52+8
	ldr	r1, [r0]
	ldr	r2, [r3, r2]
	ldr	r3, [r1, #52]
	cmp	r3, r2
	beq	.L48
.L50:
	mov	r1, r6
	blx	r3
	b	.L48
.L53:
	.align	2
.L52:
	.word	_GLOBAL_OFFSET_TABLE_-(.LPIC2+8)
	.word	_ZN8opendnp314ICommandHeader19ApplySelectResponseERKNS_11ICollectionINS_7IndexedINS_17AnalogOutputInt32EEEEE(GOT)
	.word	_ZN8opendnp314ICommandHeader20ApplyOperateResponseERKNS_11ICollectionINS_7IndexedINS_17AnalogOutputInt32EEEEE(GOT)
	.fnend
	.size	_ZN8opendnp313CommandSetOps13ProcessHeaderERKNS_12PrefixHeaderERKNS_11ICollectionINS_7IndexedINS_17AnalogOutputInt32EEEEE, .-_ZN8opendnp313CommandSetOps13ProcessHeaderERKNS_12PrefixHeaderERKNS_11ICollectionINS_7IndexedINS_17AnalogOutputInt32EEEEE
	.align	2
	.global	_ZN8opendnp313CommandSetOps13ProcessHeaderERKNS_12PrefixHeaderERKNS_11ICollectionINS_7IndexedINS_19AnalogOutputFloat32EEEEE
	.syntax unified
	.arm
	.fpu vfp
	.type	_ZN8opendnp313CommandSetOps13ProcessHeaderERKNS_12PrefixHeaderERKNS_11ICollectionINS_7IndexedINS_19AnalogOutputFloat32EEEEE, %function
_ZN8opendnp313CommandSetOps13ProcessHeaderERKNS_12PrefixHeaderERKNS_11ICollectionINS_7IndexedINS_19AnalogOutputFloat32EEEEE:
	.fnstart
.LFB3093:
	@ args = 0, pretend = 0, frame = 8
	@ frame_needed = 0, uses_anonymous_args = 0
	push	{r4, r5, r6, lr}
	.save {r4, r5, r6, lr}
	mov	r5, r0
	.pad #8
	sub	sp, sp, #8
	mov	r0, r1
	mov	r4, r1
	mov	r6, r2
	bl	_ZNK8opendnp312HeaderRecord16GetQualifierCodeEv(PLT)
	ldr	r3, .L63
.LPIC3:
	add	r3, pc, r3
	cmp	r0, #40
	bne	.L62
	ldr	r2, [r5, #20]
	ldr	r0, [r4, #12]
	ldm	r2, {r1, r2}
	sub	r2, r2, r1
	cmp	r0, r2, asr #2
	bcs	.L62
	ldrb	r2, [r5, #16]	@ zero_extendqisi2
	ldr	r0, [r1, r0, lsl #2]
	cmp	r2, #0
	bne	.L58
	ldr	r2, .L63+4
	ldr	r1, [r0]
	ldr	r2, [r3, r2]
	ldr	r3, [r1, #36]
	cmp	r3, r2
	bne	.L61
.L59:
	mov	r3, #0
	mov	r0, r3
	orr	r0, r0, r3, lsl #8
	add	sp, sp, #8
	@ sp needed
	pop	{r4, r5, r6, pc}
.L62:
	mov	r3, #0
	add	r0, sp, #4
	mov	r1, #10
	strb	r3, [sp, #4]
	strb	r3, [sp, #5]
	bl	_ZN8opendnp38IINField6SetBitENS_6IINBitE(PLT)
	ldrb	r3, [sp, #5]	@ zero_extendqisi2
	ldrb	r0, [sp, #4]	@ zero_extendqisi2
	orr	r0, r0, r3, lsl #8
	add	sp, sp, #8
	@ sp needed
	pop	{r4, r5, r6, pc}
.L58:
	ldr	r2, .L63+8
	ldr	r1, [r0]
	ldr	r2, [r3, r2]
	ldr	r3, [r1, #56]
	cmp	r3, r2
	beq	.L59
.L61:
	mov	r1, r6
	blx	r3
	b	.L59
.L64:
	.align	2
.L63:
	.word	_GLOBAL_OFFSET_TABLE_-(.LPIC3+8)
	.word	_ZN8opendnp314ICommandHeader19ApplySelectResponseERKNS_11ICollectionINS_7IndexedINS_19AnalogOutputFloat32EEEEE(GOT)
	.word	_ZN8opendnp314ICommandHeader20ApplyOperateResponseERKNS_11ICollectionINS_7IndexedINS_19AnalogOutputFloat32EEEEE(GOT)
	.fnend
	.size	_ZN8opendnp313CommandSetOps13ProcessHeaderERKNS_12PrefixHeaderERKNS_11ICollectionINS_7IndexedINS_19AnalogOutputFloat32EEEEE, .-_ZN8opendnp313CommandSetOps13ProcessHeaderERKNS_12PrefixHeaderERKNS_11ICollectionINS_7IndexedINS_19AnalogOutputFloat32EEEEE
	.align	2
	.global	_ZN8opendnp313CommandSetOps13ProcessHeaderERKNS_12PrefixHeaderERKNS_11ICollectionINS_7IndexedINS_20AnalogOutputDouble64EEEEE
	.syntax unified
	.arm
	.fpu vfp
	.type	_ZN8opendnp313CommandSetOps13ProcessHeaderERKNS_12PrefixHeaderERKNS_11ICollectionINS_7IndexedINS_20AnalogOutputDouble64EEEEE, %function
_ZN8opendnp313CommandSetOps13ProcessHeaderERKNS_12PrefixHeaderERKNS_11ICollectionINS_7IndexedINS_20AnalogOutputDouble64EEEEE:
	.fnstart
.LFB3094:
	@ args = 0, pretend = 0, frame = 8
	@ frame_needed = 0, uses_anonymous_args = 0
	push	{r4, r5, r6, lr}
	.save {r4, r5, r6, lr}
	mov	r5, r0
	.pad #8
	sub	sp, sp, #8
	mov	r0, r1
	mov	r4, r1
	mov	r6, r2
	bl	_ZNK8opendnp312HeaderRecord16GetQualifierCodeEv(PLT)
	ldr	r3, .L74
.LPIC4:
	add	r3, pc, r3
	cmp	r0, #40
	bne	.L73
	ldr	r2, [r5, #20]
	ldr	r0, [r4, #12]
	ldm	r2, {r1, r2}
	sub	r2, r2, r1
	cmp	r0, r2, asr #2
	bcs	.L73
	ldrb	r2, [r5, #16]	@ zero_extendqisi2
	ldr	r0, [r1, r0, lsl #2]
	cmp	r2, #0
	bne	.L69
	ldr	r2, .L74+4
	ldr	r1, [r0]
	ldr	r2, [r3, r2]
	ldr	r3, [r1, #40]
	cmp	r3, r2
	bne	.L72
.L70:
	mov	r3, #0
	mov	r0, r3
	orr	r0, r0, r3, lsl #8
	add	sp, sp, #8
	@ sp needed
	pop	{r4, r5, r6, pc}
.L73:
	mov	r3, #0
	add	r0, sp, #4
	mov	r1, #10
	strb	r3, [sp, #4]
	strb	r3, [sp, #5]
	bl	_ZN8opendnp38IINField6SetBitENS_6IINBitE(PLT)
	ldrb	r3, [sp, #5]	@ zero_extendqisi2
	ldrb	r0, [sp, #4]	@ zero_extendqisi2
	orr	r0, r0, r3, lsl #8
	add	sp, sp, #8
	@ sp needed
	pop	{r4, r5, r6, pc}
.L69:
	ldr	r2, .L74+8
	ldr	r1, [r0]
	ldr	r2, [r3, r2]
	ldr	r3, [r1, #60]
	cmp	r3, r2
	beq	.L70
.L72:
	mov	r1, r6
	blx	r3
	b	.L70
.L75:
	.align	2
.L74:
	.word	_GLOBAL_OFFSET_TABLE_-(.LPIC4+8)
	.word	_ZN8opendnp314ICommandHeader19ApplySelectResponseERKNS_11ICollectionINS_7IndexedINS_20AnalogOutputDouble64EEEEE(GOT)
	.word	_ZN8opendnp314ICommandHeader20ApplyOperateResponseERKNS_11ICollectionINS_7IndexedINS_20AnalogOutputDouble64EEEEE(GOT)
	.fnend
	.size	_ZN8opendnp313CommandSetOps13ProcessHeaderERKNS_12PrefixHeaderERKNS_11ICollectionINS_7IndexedINS_20AnalogOutputDouble64EEEEE, .-_ZN8opendnp313CommandSetOps13ProcessHeaderERKNS_12PrefixHeaderERKNS_11ICollectionINS_7IndexedINS_20AnalogOutputDouble64EEEEE
	.align	2
	.global	_ZN8opendnp313CommandSetOpsC2ENS0_4ModeERNS_10CommandSetE
	.syntax unified
	.arm
	.fpu vfp
	.type	_ZN8opendnp313CommandSetOpsC2ENS0_4ModeERNS_10CommandSetE, %function
_ZN8opendnp313CommandSetOpsC2ENS0_4ModeERNS_10CommandSetE:
	.fnstart
.LFB3074:
	@ args = 0, pretend = 0, frame = 0
	@ frame_needed = 0, uses_anonymous_args = 0
	push	{r4, r5, r6, r7, r8, lr}
	.save {r4, r5, r6, r7, r8, lr}
	mov	r4, r0
	ldr	r5, .L78
	mov	r7, r1
	mov	r6, r2
	bl	_ZN8opendnp312IAPDUHandlerC2Ev(PLT)
	ldr	ip, .L78+4
.LPIC5:
	add	r5, pc, r5
	mov	r3, r5
	ldr	r3, [r5, ip]
	mov	r0, r4
	add	r3, r3, #8
	strb	r7, [r4, #16]
	str	r3, [r4]
	str	r6, [r4, #20]
	pop	{r4, r5, r6, r7, r8, pc}
.L79:
	.align	2
.L78:
	.word	_GLOBAL_OFFSET_TABLE_-(.LPIC5+8)
	.word	_ZTVN8opendnp313CommandSetOpsE(GOT)
	.fnend
	.size	_ZN8opendnp313CommandSetOpsC2ENS0_4ModeERNS_10CommandSetE, .-_ZN8opendnp313CommandSetOpsC2ENS0_4ModeERNS_10CommandSetE
	.global	_ZN8opendnp313CommandSetOpsC1ENS0_4ModeERNS_10CommandSetE
	.set	_ZN8opendnp313CommandSetOpsC1ENS0_4ModeERNS_10CommandSetE,_ZN8opendnp313CommandSetOpsC2ENS0_4ModeERNS_10CommandSetE
	.align	2
	.global	_ZN8opendnp313CommandSetOps5WriteERKNS_10CommandSetERNS_12HeaderWriterE
	.syntax unified
	.arm
	.fpu vfp
	.type	_ZN8opendnp313CommandSetOps5WriteERKNS_10CommandSetERNS_12HeaderWriterE, %function
_ZN8opendnp313CommandSetOps5WriteERKNS_10CommandSetERNS_12HeaderWriterE:
	.fnstart
.LFB3076:
	@ args = 0, pretend = 0, frame = 0
	@ frame_needed = 0, uses_anonymous_args = 0
	push	{r4, r5, r6, lr}
	.save {r4, r5, r6, lr}
	ldm	r0, {r4, r6}
	cmp	r4, r6
	movne	r5, r1
	beq	.L84
.L83:
	ldr	r3, [r4], #4
	mov	r1, r5
	mov	r0, r3
	ldr	r3, [r3]
	ldr	r3, [r3, #16]
	blx	r3
	cmp	r0, #0
	popeq	{r4, r5, r6, pc}
	cmp	r6, r4
	bne	.L83
.L84:
	mov	r0, #1
	pop	{r4, r5, r6, pc}
	.fnend
	.size	_ZN8opendnp313CommandSetOps5WriteERKNS_10CommandSetERNS_12HeaderWriterE, .-_ZN8opendnp313CommandSetOps5WriteERKNS_10CommandSetERNS_12HeaderWriterE
	.align	2
	.global	_ZN8opendnp313CommandSetOps14InvokeCallbackERKNS_10CommandSetENS_14TaskCompletionERSt8functionIFvRKNS_18ICommandTaskResultEEE
	.syntax unified
	.arm
	.fpu vfp
	.type	_ZN8opendnp313CommandSetOps14InvokeCallbackERKNS_10CommandSetENS_14TaskCompletionERSt8functionIFvRKNS_18ICommandTaskResultEEE, %function
_ZN8opendnp313CommandSetOps14InvokeCallbackERKNS_10CommandSetENS_14TaskCompletionERSt8functionIFvRKNS_18ICommandTaskResultEEE:
	.fnstart
.LFB3077:
	@ args = 0, pretend = 0, frame = 16
	@ frame_needed = 0, uses_anonymous_args = 0
	push	{r4, r5, lr}
	.save {r4, r5, lr}
	.pad #20
	sub	sp, sp, #20
	mov	r4, r2
	add	r5, sp, #4
	mov	r2, r0
	mov	r0, r5
	bl	_ZN8opendnp317CommandTaskResultC1ENS_14TaskCompletionERKSt6vectorIPNS_14ICommandHeaderESaIS4_EE(PLT)
	ldr	r3, [r4, #8]
	cmp	r3, #0
	beq	.L93
	mov	r1, r5
	ldr	r3, [r4, #12]
	mov	r0, r4
	blx	r3
	add	sp, sp, #20
	@ sp needed
	pop	{r4, r5, pc}
.L93:
	bl	_ZSt25__throw_bad_function_callv(PLT)
	.fnend
	.size	_ZN8opendnp313CommandSetOps14InvokeCallbackERKNS_10CommandSetENS_14TaskCompletionERSt8functionIFvRKNS_18ICommandTaskResultEEE, .-_ZN8opendnp313CommandSetOps14InvokeCallbackERKNS_10CommandSetENS_14TaskCompletionERSt8functionIFvRKNS_18ICommandTaskResultEEE
	.align	2
	.global	_ZN8opendnp313CommandSetOps21ProcessSelectResponseERNS_10CommandSetERKN7openpal6RSliceEPNS3_6LoggerE
	.syntax unified
	.arm
	.fpu vfp
	.type	_ZN8opendnp313CommandSetOps21ProcessSelectResponseERNS_10CommandSetERKN7openpal6RSliceEPNS3_6LoggerE, %function
_ZN8opendnp313CommandSetOps21ProcessSelectResponseERNS_10CommandSetERKN7openpal6RSliceEPNS3_6LoggerE:
	.fnstart
.LFB3081:
	@ args = 0, pretend = 0, frame = 32
	@ frame_needed = 0, uses_anonymous_args = 0
	push	{r4, r5, r6, r7, r8, lr}
	.save {r4, r5, r6, r7, r8, lr}
	.pad #40
	sub	sp, sp, #40
	mov	r6, r0
	add	r5, sp, #16
	mov	r7, r1
	mov	r8, r2
	mov	r1, #0
	mov	r2, r6
	mov	r4, #1
	mov	r0, r5
	bl	_ZN8opendnp313CommandSetOpsC1ENS0_4ModeERNS_10CommandSetE(PLT)
	mov	ip, #8192
	strb	r4, [sp, #8]
	mov	r2, r8
	mov	r1, r5
	mov	r0, r7
	ldr	r3, [sp, #8]
	str	ip, [sp]
	str	ip, [sp, #12]
	bl	_ZN8opendnp310APDUParser5ParseERKN7openpal6RSliceERNS_12IAPDUHandlerEPNS1_6LoggerENS_14ParserSettingsE(PLT)
	cmp	r0, #0
	movne	r0, r4
	beq	.L123
.L95:
	add	sp, sp, #40
	@ sp needed
	pop	{r4, r5, r6, r7, r8, pc}
.L123:
	ldm	r6, {r4, r5}
	sub	r3, r5, r4
	asr	r6, r3, #4
	cmp	r6, #0
	asr	r3, r3, #2
	ble	.L107
	add	r6, r4, r6, lsl #4
	b	.L101
.L128:
	ldr	r3, [r4, #4]
	mov	r0, r3
	ldr	r3, [r3]
	ldr	r3, [r3, #20]
	blx	r3
	cmp	r0, #0
	beq	.L124
	ldr	r3, [r4, #8]
	mov	r0, r3
	ldr	r3, [r3]
	ldr	r3, [r3, #20]
	blx	r3
	cmp	r0, #0
	beq	.L125
	ldr	r3, [r4, #12]
	mov	r0, r3
	ldr	r3, [r3]
	ldr	r3, [r3, #20]
	blx	r3
	cmp	r0, #0
	beq	.L126
	add	r4, r4, #16
	cmp	r6, r4
	beq	.L127
.L101:
	ldr	r3, [r4]
	mov	r0, r3
	ldr	r3, [r3]
	ldr	r3, [r3, #20]
	blx	r3
	cmp	r0, #0
	bne	.L128
.L97:
	cmp	r5, r4
	movne	r0, #2
	moveq	r0, #0
	add	sp, sp, #40
	@ sp needed
	pop	{r4, r5, r6, r7, r8, pc}
.L124:
	add	r4, r4, #4
	b	.L97
.L125:
	add	r4, r4, #8
	b	.L97
.L126:
	add	r4, r4, #12
	b	.L97
.L127:
	sub	r3, r5, r6
	asr	r3, r3, #2
.L96:
	cmp	r3, #2
	beq	.L103
	cmp	r3, #3
	beq	.L104
	cmp	r3, #1
	beq	.L105
.L102:
	mov	r0, #0
	b	.L95
.L104:
	ldr	r3, [r6]
	mov	r0, r3
	ldr	r3, [r3]
	ldr	r3, [r3, #20]
	blx	r3
	cmp	r0, #0
	beq	.L110
	add	r6, r6, #4
.L103:
	ldr	r3, [r6]
	mov	r0, r3
	ldr	r3, [r3]
	ldr	r3, [r3, #20]
	blx	r3
	cmp	r0, #0
	beq	.L110
	add	r6, r6, #4
.L105:
	ldr	r3, [r6]
	mov	r0, r3
	ldr	r3, [r3]
	ldr	r3, [r3, #20]
	blx	r3
	cmp	r0, #0
	bne	.L102
.L110:
	mov	r4, r6
	b	.L97
.L107:
	mov	r6, r4
	b	.L96
	.fnend
	.size	_ZN8opendnp313CommandSetOps21ProcessSelectResponseERNS_10CommandSetERKN7openpal6RSliceEPNS3_6LoggerE, .-_ZN8opendnp313CommandSetOps21ProcessSelectResponseERNS_10CommandSetERKN7openpal6RSliceEPNS3_6LoggerE
	.align	2
	.global	_ZN8opendnp313CommandSetOps22ProcessOperateResponseERNS_10CommandSetERKN7openpal6RSliceEPNS3_6LoggerE
	.syntax unified
	.arm
	.fpu vfp
	.type	_ZN8opendnp313CommandSetOps22ProcessOperateResponseERNS_10CommandSetERKN7openpal6RSliceEPNS3_6LoggerE, %function
_ZN8opendnp313CommandSetOps22ProcessOperateResponseERNS_10CommandSetERKN7openpal6RSliceEPNS3_6LoggerE:
	.fnstart
.LFB3088:
	@ args = 0, pretend = 0, frame = 32
	@ frame_needed = 0, uses_anonymous_args = 0
	push	{r4, r5, r6, lr}
	.save {r4, r5, r6, lr}
	.pad #40
	sub	sp, sp, #40
	add	r4, sp, #16
	mov	r6, r2
	mov	r5, r1
	mov	r2, r0
	mov	r1, #1
	mov	r0, r4
	bl	_ZN8opendnp313CommandSetOpsC1ENS0_4ModeERNS_10CommandSetE(PLT)
	mov	r3, #1
	strb	r3, [sp, #8]
	mov	ip, #8192
	mov	r2, r6
	mov	r1, r4
	mov	r0, r5
	ldr	r3, [sp, #8]
	str	ip, [sp]
	bl	_ZN8opendnp310APDUParser5ParseERKN7openpal6RSliceERNS_12IAPDUHandlerEPNS1_6LoggerENS_14ParserSettingsE(PLT)
	adds	r0, r0, #0
	movne	r0, #1
	add	sp, sp, #40
	@ sp needed
	pop	{r4, r5, r6, pc}
	.fnend
	.size	_ZN8opendnp313CommandSetOps22ProcessOperateResponseERNS_10CommandSetERKN7openpal6RSliceEPNS3_6LoggerE, .-_ZN8opendnp313CommandSetOps22ProcessOperateResponseERNS_10CommandSetERKN7openpal6RSliceEPNS3_6LoggerE
	.weak	_ZTSN7openpal10UncopyableE
	.section	.rodata._ZTSN7openpal10UncopyableE,"aG",%progbits,_ZTSN7openpal10UncopyableE,comdat
	.align	2
	.type	_ZTSN7openpal10UncopyableE, %object
	.size	_ZTSN7openpal10UncopyableE, 23
_ZTSN7openpal10UncopyableE:
	.ascii	"N7openpal10UncopyableE\000"
	.weak	_ZTIN7openpal10UncopyableE
	.section	.data.rel.ro._ZTIN7openpal10UncopyableE,"awG",%progbits,_ZTIN7openpal10UncopyableE,comdat
	.align	2
	.type	_ZTIN7openpal10UncopyableE, %object
	.size	_ZTIN7openpal10UncopyableE, 8
_ZTIN7openpal10UncopyableE:
	.word	_ZTVN10__cxxabiv117__class_type_infoE+8
	.word	_ZTSN7openpal10UncopyableE
	.global	_ZTSN8opendnp313CommandSetOpsE
	.global	_ZTIN8opendnp313CommandSetOpsE
	.global	_ZTVN8opendnp313CommandSetOpsE
	.section	.rodata
	.align	2
	.type	_ZTSN8opendnp313CommandSetOpsE, %object
	.size	_ZTSN8opendnp313CommandSetOpsE, 27
_ZTSN8opendnp313CommandSetOpsE:
	.ascii	"N8opendnp313CommandSetOpsE\000"
	.section	.data.rel.ro,"aw",%progbits
	.align	2
	.type	_ZTIN8opendnp313CommandSetOpsE, %object
	.size	_ZTIN8opendnp313CommandSetOpsE, 32
_ZTIN8opendnp313CommandSetOpsE:
	.word	_ZTVN10__cxxabiv121__vmi_class_type_infoE+8
	.word	_ZTSN8opendnp313CommandSetOpsE
	.word	0
	.word	2
	.word	_ZTIN8opendnp312IAPDUHandlerE
	.word	2
	.word	_ZTIN7openpal10UncopyableE
	.word	0
	.type	_ZTVN8opendnp313CommandSetOpsE, %object
	.size	_ZTVN8opendnp313CommandSetOpsE, 224
_ZTVN8opendnp313CommandSetOpsE:
	.word	0
	.word	_ZTIN8opendnp313CommandSetOpsE
	.word	_ZN8opendnp313CommandSetOps9IsAllowedEjNS_14GroupVariationENS_13QualifierCodeE
	.word	_ZN8opendnp312IAPDUHandler13ProcessHeaderERKNS_16AllObjectsHeaderE
	.word	_ZN8opendnp312IAPDUHandler13ProcessHeaderERKNS_11RangeHeaderE
	.word	_ZN8opendnp312IAPDUHandler13ProcessHeaderERKNS_11CountHeaderE
	.word	_ZN8opendnp312IAPDUHandler13ProcessHeaderERKNS_16FreeFormatHeaderERKNS_12Group120Var1ERKN7openpal6RSliceE
	.word	_ZN8opendnp312IAPDUHandler13ProcessHeaderERKNS_16FreeFormatHeaderERKNS_12Group120Var2ERKN7openpal6RSliceE
	.word	_ZN8opendnp312IAPDUHandler13ProcessHeaderERKNS_16FreeFormatHeaderERKNS_12Group120Var5ERKN7openpal6RSliceE
	.word	_ZN8opendnp312IAPDUHandler13ProcessHeaderERKNS_16FreeFormatHeaderERKNS_12Group120Var6ERKN7openpal6RSliceE
	.word	_ZN8opendnp312IAPDUHandler13ProcessHeaderERKNS_16FreeFormatHeaderERKNS_12Group120Var8ERKN7openpal6RSliceE
	.word	_ZN8opendnp312IAPDUHandler13ProcessHeaderERKNS_16FreeFormatHeaderERKNS_12Group120Var7ERKN7openpal6RSliceE
	.word	_ZN8opendnp312IAPDUHandler13ProcessHeaderERKNS_16FreeFormatHeaderERKNS_12Group120Var9ERKN7openpal6RSliceE
	.word	_ZN8opendnp312IAPDUHandler13ProcessHeaderERKNS_16FreeFormatHeaderERKNS_13Group120Var10ERKN7openpal6RSliceE
	.word	_ZN8opendnp312IAPDUHandler13ProcessHeaderERKNS_16FreeFormatHeaderERKNS_13Group120Var11ERKN7openpal6RSliceE
	.word	_ZN8opendnp312IAPDUHandler13ProcessHeaderERKNS_16FreeFormatHeaderERKNS_13Group120Var12ERKN7openpal6RSliceE
	.word	_ZN8opendnp312IAPDUHandler13ProcessHeaderERKNS_16FreeFormatHeaderERKNS_13Group120Var13ERKN7openpal6RSliceE
	.word	_ZN8opendnp312IAPDUHandler13ProcessHeaderERKNS_16FreeFormatHeaderERKNS_13Group120Var14ERKN7openpal6RSliceE
	.word	_ZN8opendnp312IAPDUHandler13ProcessHeaderERKNS_16FreeFormatHeaderERKNS_13Group120Var15ERKN7openpal6RSliceE
	.word	_ZN8opendnp312IAPDUHandler13ProcessHeaderERKNS_11CountHeaderERKNS_11ICollectionINS_11Group50Var1EEE
	.word	_ZN8opendnp312IAPDUHandler13ProcessHeaderERKNS_11CountHeaderERKNS_11ICollectionINS_11Group51Var1EEE
	.word	_ZN8opendnp312IAPDUHandler13ProcessHeaderERKNS_11CountHeaderERKNS_11ICollectionINS_11Group51Var2EEE
	.word	_ZN8opendnp312IAPDUHandler13ProcessHeaderERKNS_11CountHeaderERKNS_11ICollectionINS_11Group52Var1EEE
	.word	_ZN8opendnp312IAPDUHandler13ProcessHeaderERKNS_11CountHeaderERKNS_11ICollectionINS_11Group52Var2EEE
	.word	_ZN8opendnp312IAPDUHandler13ProcessHeaderERKNS_11CountHeaderERKNS_11ICollectionINS_12Group120Var3EEE
	.word	_ZN8opendnp312IAPDUHandler13ProcessHeaderERKNS_11CountHeaderERKNS_11ICollectionINS_12Group120Var4EEE
	.word	_ZN8opendnp312IAPDUHandler13ProcessHeaderERKNS_11RangeHeaderERKNS_11ICollectionINS_7IndexedINS_8IINValueEEEEE
	.word	_ZN8opendnp312IAPDUHandler13ProcessHeaderERKNS_11RangeHeaderERKNS_11ICollectionINS_7IndexedINS_6BinaryEEEEE
	.word	_ZN8opendnp312IAPDUHandler13ProcessHeaderERKNS_11RangeHeaderERKNS_11ICollectionINS_7IndexedINS_15DoubleBitBinaryEEEEE
	.word	_ZN8opendnp312IAPDUHandler13ProcessHeaderERKNS_11RangeHeaderERKNS_11ICollectionINS_7IndexedINS_18BinaryOutputStatusEEEEE
	.word	_ZN8opendnp312IAPDUHandler13ProcessHeaderERKNS_11RangeHeaderERKNS_11ICollectionINS_7IndexedINS_7CounterEEEEE
	.word	_ZN8opendnp312IAPDUHandler13ProcessHeaderERKNS_11RangeHeaderERKNS_11ICollectionINS_7IndexedINS_13FrozenCounterEEEEE
	.word	_ZN8opendnp312IAPDUHandler13ProcessHeaderERKNS_11RangeHeaderERKNS_11ICollectionINS_7IndexedINS_6AnalogEEEEE
	.word	_ZN8opendnp312IAPDUHandler13ProcessHeaderERKNS_11RangeHeaderERKNS_11ICollectionINS_7IndexedINS_18AnalogOutputStatusEEEEE
	.word	_ZN8opendnp312IAPDUHandler13ProcessHeaderERKNS_11RangeHeaderERKNS_11ICollectionINS_7IndexedINS_11OctetStringEEEEE
	.word	_ZN8opendnp312IAPDUHandler13ProcessHeaderERKNS_11RangeHeaderERKNS_11ICollectionINS_7IndexedINS_15TimeAndIntervalEEEEE
	.word	_ZN8opendnp312IAPDUHandler13ProcessHeaderERKNS_11RangeHeaderERKNS_11ICollectionINS_7IndexedINS_12Group121Var1EEEEE
	.word	_ZN8opendnp312IAPDUHandler13ProcessHeaderERKNS_12PrefixHeaderERKNS_11ICollectionINS_7IndexedINS_6BinaryEEEEE
	.word	_ZN8opendnp312IAPDUHandler13ProcessHeaderERKNS_12PrefixHeaderERKNS_11ICollectionINS_7IndexedINS_18BinaryOutputStatusEEEEE
	.word	_ZN8opendnp312IAPDUHandler13ProcessHeaderERKNS_12PrefixHeaderERKNS_11ICollectionINS_7IndexedINS_15DoubleBitBinaryEEEEE
	.word	_ZN8opendnp312IAPDUHandler13ProcessHeaderERKNS_12PrefixHeaderERKNS_11ICollectionINS_7IndexedINS_7CounterEEEEE
	.word	_ZN8opendnp312IAPDUHandler13ProcessHeaderERKNS_12PrefixHeaderERKNS_11ICollectionINS_7IndexedINS_13FrozenCounterEEEEE
	.word	_ZN8opendnp312IAPDUHandler13ProcessHeaderERKNS_12PrefixHeaderERKNS_11ICollectionINS_7IndexedINS_6AnalogEEEEE
	.word	_ZN8opendnp312IAPDUHandler13ProcessHeaderERKNS_12PrefixHeaderERKNS_11ICollectionINS_7IndexedINS_18AnalogOutputStatusEEEEE
	.word	_ZN8opendnp312IAPDUHandler13ProcessHeaderERKNS_12PrefixHeaderERKNS_11ICollectionINS_7IndexedINS_11OctetStringEEEEE
	.word	_ZN8opendnp312IAPDUHandler13ProcessHeaderERKNS_12PrefixHeaderERKNS_11ICollectionINS_7IndexedINS_15TimeAndIntervalEEEEE
	.word	_ZN8opendnp312IAPDUHandler13ProcessHeaderERKNS_12PrefixHeaderERKNS_11ICollectionINS_7IndexedINS_18BinaryCommandEventEEEEE
	.word	_ZN8opendnp312IAPDUHandler13ProcessHeaderERKNS_12PrefixHeaderERKNS_11ICollectionINS_7IndexedINS_18AnalogCommandEventEEEEE
	.word	_ZN8opendnp312IAPDUHandler13ProcessHeaderERKNS_12PrefixHeaderERKNS_11ICollectionINS_7IndexedINS_12Group122Var1EEEEE
	.word	_ZN8opendnp312IAPDUHandler13ProcessHeaderERKNS_12PrefixHeaderERKNS_11ICollectionINS_7IndexedINS_12Group122Var2EEEEE
	.word	_ZN8opendnp313CommandSetOps13ProcessHeaderERKNS_12PrefixHeaderERKNS_11ICollectionINS_7IndexedINS_23ControlRelayOutputBlockEEEEE
	.word	_ZN8opendnp313CommandSetOps13ProcessHeaderERKNS_12PrefixHeaderERKNS_11ICollectionINS_7IndexedINS_17AnalogOutputInt16EEEEE
	.word	_ZN8opendnp313CommandSetOps13ProcessHeaderERKNS_12PrefixHeaderERKNS_11ICollectionINS_7IndexedINS_17AnalogOutputInt32EEEEE
	.word	_ZN8opendnp313CommandSetOps13ProcessHeaderERKNS_12PrefixHeaderERKNS_11ICollectionINS_7IndexedINS_19AnalogOutputFloat32EEEEE
	.word	_ZN8opendnp313CommandSetOps13ProcessHeaderERKNS_12PrefixHeaderERKNS_11ICollectionINS_7IndexedINS_20AnalogOutputDouble64EEEEE
	.word	_ZN8opendnp312IAPDUHandler14OnHeaderResultERKNS_12HeaderRecordERKNS_8IINFieldE
	.ident	"GCC: (Raspbian 6.3.0-18+rpi1+deb9u1) 6.3.0 20170516"
	.section	.note.GNU-stack,"",%progbits
