	.arch armv6
	.eabi_attribute 28, 1
	.eabi_attribute 20, 1
	.eabi_attribute 21, 1
	.eabi_attribute 23, 3
	.eabi_attribute 24, 1
	.eabi_attribute 25, 1
	.eabi_attribute 26, 2
	.eabi_attribute 30, 2
	.eabi_attribute 34, 1
	.eabi_attribute 18, 4
	.file	"CountParser.cpp"
	.section	.text._ZNK8opendnp318BufferedCollectionINS_12Group120Var4EZNS_11CountParser13InvokeCountOfIS1_EEvRKNS_12HeaderRecordEtRKN7openpal6RSliceERNS_12IAPDUHandlerEEUlRS8_jE_E5CountEv,"axG",%progbits,_ZNK8opendnp318BufferedCollectionINS_12Group120Var4EZNS_11CountParser13InvokeCountOfIS1_EEvRKNS_12HeaderRecordEtRKN7openpal6RSliceERNS_12IAPDUHandlerEEUlRS8_jE_E5CountEv,comdat
	.align	2
	.weak	_ZNK8opendnp318BufferedCollectionINS_12Group120Var4EZNS_11CountParser13InvokeCountOfIS1_EEvRKNS_12HeaderRecordEtRKN7openpal6RSliceERNS_12IAPDUHandlerEEUlRS8_jE_E5CountEv
	.syntax unified
	.arm
	.fpu vfp
	.type	_ZNK8opendnp318BufferedCollectionINS_12Group120Var4EZNS_11CountParser13InvokeCountOfIS1_EEvRKNS_12HeaderRecordEtRKN7openpal6RSliceERNS_12IAPDUHandlerEEUlRS8_jE_E5CountEv, %function
_ZNK8opendnp318BufferedCollectionINS_12Group120Var4EZNS_11CountParser13InvokeCountOfIS1_EEvRKNS_12HeaderRecordEtRKN7openpal6RSliceERNS_12IAPDUHandlerEEUlRS8_jE_E5CountEv:
	.fnstart
.LFB3040:
	@ args = 0, pretend = 0, frame = 0
	@ frame_needed = 0, uses_anonymous_args = 0
	@ link register save eliminated.
	ldr	r0, [r0, #12]
	bx	lr
	.cantunwind
	.fnend
	.size	_ZNK8opendnp318BufferedCollectionINS_12Group120Var4EZNS_11CountParser13InvokeCountOfIS1_EEvRKNS_12HeaderRecordEtRKN7openpal6RSliceERNS_12IAPDUHandlerEEUlRS8_jE_E5CountEv, .-_ZNK8opendnp318BufferedCollectionINS_12Group120Var4EZNS_11CountParser13InvokeCountOfIS1_EEvRKNS_12HeaderRecordEtRKN7openpal6RSliceERNS_12IAPDUHandlerEEUlRS8_jE_E5CountEv
	.section	.text._ZNK8opendnp318BufferedCollectionINS_12Group120Var3EZNS_11CountParser13InvokeCountOfIS1_EEvRKNS_12HeaderRecordEtRKN7openpal6RSliceERNS_12IAPDUHandlerEEUlRS8_jE_E5CountEv,"axG",%progbits,_ZNK8opendnp318BufferedCollectionINS_12Group120Var3EZNS_11CountParser13InvokeCountOfIS1_EEvRKNS_12HeaderRecordEtRKN7openpal6RSliceERNS_12IAPDUHandlerEEUlRS8_jE_E5CountEv,comdat
	.align	2
	.weak	_ZNK8opendnp318BufferedCollectionINS_12Group120Var3EZNS_11CountParser13InvokeCountOfIS1_EEvRKNS_12HeaderRecordEtRKN7openpal6RSliceERNS_12IAPDUHandlerEEUlRS8_jE_E5CountEv
	.syntax unified
	.arm
	.fpu vfp
	.type	_ZNK8opendnp318BufferedCollectionINS_12Group120Var3EZNS_11CountParser13InvokeCountOfIS1_EEvRKNS_12HeaderRecordEtRKN7openpal6RSliceERNS_12IAPDUHandlerEEUlRS8_jE_E5CountEv, %function
_ZNK8opendnp318BufferedCollectionINS_12Group120Var3EZNS_11CountParser13InvokeCountOfIS1_EEvRKNS_12HeaderRecordEtRKN7openpal6RSliceERNS_12IAPDUHandlerEEUlRS8_jE_E5CountEv:
	.fnstart
.LFB3042:
	@ args = 0, pretend = 0, frame = 0
	@ frame_needed = 0, uses_anonymous_args = 0
	@ link register save eliminated.
	ldr	r0, [r0, #12]
	bx	lr
	.cantunwind
	.fnend
	.size	_ZNK8opendnp318BufferedCollectionINS_12Group120Var3EZNS_11CountParser13InvokeCountOfIS1_EEvRKNS_12HeaderRecordEtRKN7openpal6RSliceERNS_12IAPDUHandlerEEUlRS8_jE_E5CountEv, .-_ZNK8opendnp318BufferedCollectionINS_12Group120Var3EZNS_11CountParser13InvokeCountOfIS1_EEvRKNS_12HeaderRecordEtRKN7openpal6RSliceERNS_12IAPDUHandlerEEUlRS8_jE_E5CountEv
	.section	.text._ZNK8opendnp318BufferedCollectionINS_11Group52Var2EZNS_11CountParser13InvokeCountOfIS1_EEvRKNS_12HeaderRecordEtRKN7openpal6RSliceERNS_12IAPDUHandlerEEUlRS8_jE_E5CountEv,"axG",%progbits,_ZNK8opendnp318BufferedCollectionINS_11Group52Var2EZNS_11CountParser13InvokeCountOfIS1_EEvRKNS_12HeaderRecordEtRKN7openpal6RSliceERNS_12IAPDUHandlerEEUlRS8_jE_E5CountEv,comdat
	.align	2
	.weak	_ZNK8opendnp318BufferedCollectionINS_11Group52Var2EZNS_11CountParser13InvokeCountOfIS1_EEvRKNS_12HeaderRecordEtRKN7openpal6RSliceERNS_12IAPDUHandlerEEUlRS8_jE_E5CountEv
	.syntax unified
	.arm
	.fpu vfp
	.type	_ZNK8opendnp318BufferedCollectionINS_11Group52Var2EZNS_11CountParser13InvokeCountOfIS1_EEvRKNS_12HeaderRecordEtRKN7openpal6RSliceERNS_12IAPDUHandlerEEUlRS8_jE_E5CountEv, %function
_ZNK8opendnp318BufferedCollectionINS_11Group52Var2EZNS_11CountParser13InvokeCountOfIS1_EEvRKNS_12HeaderRecordEtRKN7openpal6RSliceERNS_12IAPDUHandlerEEUlRS8_jE_E5CountEv:
	.fnstart
.LFB3044:
	@ args = 0, pretend = 0, frame = 0
	@ frame_needed = 0, uses_anonymous_args = 0
	@ link register save eliminated.
	ldr	r0, [r0, #12]
	bx	lr
	.cantunwind
	.fnend
	.size	_ZNK8opendnp318BufferedCollectionINS_11Group52Var2EZNS_11CountParser13InvokeCountOfIS1_EEvRKNS_12HeaderRecordEtRKN7openpal6RSliceERNS_12IAPDUHandlerEEUlRS8_jE_E5CountEv, .-_ZNK8opendnp318BufferedCollectionINS_11Group52Var2EZNS_11CountParser13InvokeCountOfIS1_EEvRKNS_12HeaderRecordEtRKN7openpal6RSliceERNS_12IAPDUHandlerEEUlRS8_jE_E5CountEv
	.section	.text._ZNK8opendnp318BufferedCollectionINS_11Group52Var1EZNS_11CountParser13InvokeCountOfIS1_EEvRKNS_12HeaderRecordEtRKN7openpal6RSliceERNS_12IAPDUHandlerEEUlRS8_jE_E5CountEv,"axG",%progbits,_ZNK8opendnp318BufferedCollectionINS_11Group52Var1EZNS_11CountParser13InvokeCountOfIS1_EEvRKNS_12HeaderRecordEtRKN7openpal6RSliceERNS_12IAPDUHandlerEEUlRS8_jE_E5CountEv,comdat
	.align	2
	.weak	_ZNK8opendnp318BufferedCollectionINS_11Group52Var1EZNS_11CountParser13InvokeCountOfIS1_EEvRKNS_12HeaderRecordEtRKN7openpal6RSliceERNS_12IAPDUHandlerEEUlRS8_jE_E5CountEv
	.syntax unified
	.arm
	.fpu vfp
	.type	_ZNK8opendnp318BufferedCollectionINS_11Group52Var1EZNS_11CountParser13InvokeCountOfIS1_EEvRKNS_12HeaderRecordEtRKN7openpal6RSliceERNS_12IAPDUHandlerEEUlRS8_jE_E5CountEv, %function
_ZNK8opendnp318BufferedCollectionINS_11Group52Var1EZNS_11CountParser13InvokeCountOfIS1_EEvRKNS_12HeaderRecordEtRKN7openpal6RSliceERNS_12IAPDUHandlerEEUlRS8_jE_E5CountEv:
	.fnstart
.LFB3046:
	@ args = 0, pretend = 0, frame = 0
	@ frame_needed = 0, uses_anonymous_args = 0
	@ link register save eliminated.
	ldr	r0, [r0, #12]
	bx	lr
	.cantunwind
	.fnend
	.size	_ZNK8opendnp318BufferedCollectionINS_11Group52Var1EZNS_11CountParser13InvokeCountOfIS1_EEvRKNS_12HeaderRecordEtRKN7openpal6RSliceERNS_12IAPDUHandlerEEUlRS8_jE_E5CountEv, .-_ZNK8opendnp318BufferedCollectionINS_11Group52Var1EZNS_11CountParser13InvokeCountOfIS1_EEvRKNS_12HeaderRecordEtRKN7openpal6RSliceERNS_12IAPDUHandlerEEUlRS8_jE_E5CountEv
	.section	.text._ZNK8opendnp318BufferedCollectionINS_11Group51Var2EZNS_11CountParser13InvokeCountOfIS1_EEvRKNS_12HeaderRecordEtRKN7openpal6RSliceERNS_12IAPDUHandlerEEUlRS8_jE_E5CountEv,"axG",%progbits,_ZNK8opendnp318BufferedCollectionINS_11Group51Var2EZNS_11CountParser13InvokeCountOfIS1_EEvRKNS_12HeaderRecordEtRKN7openpal6RSliceERNS_12IAPDUHandlerEEUlRS8_jE_E5CountEv,comdat
	.align	2
	.weak	_ZNK8opendnp318BufferedCollectionINS_11Group51Var2EZNS_11CountParser13InvokeCountOfIS1_EEvRKNS_12HeaderRecordEtRKN7openpal6RSliceERNS_12IAPDUHandlerEEUlRS8_jE_E5CountEv
	.syntax unified
	.arm
	.fpu vfp
	.type	_ZNK8opendnp318BufferedCollectionINS_11Group51Var2EZNS_11CountParser13InvokeCountOfIS1_EEvRKNS_12HeaderRecordEtRKN7openpal6RSliceERNS_12IAPDUHandlerEEUlRS8_jE_E5CountEv, %function
_ZNK8opendnp318BufferedCollectionINS_11Group51Var2EZNS_11CountParser13InvokeCountOfIS1_EEvRKNS_12HeaderRecordEtRKN7openpal6RSliceERNS_12IAPDUHandlerEEUlRS8_jE_E5CountEv:
	.fnstart
.LFB3048:
	@ args = 0, pretend = 0, frame = 0
	@ frame_needed = 0, uses_anonymous_args = 0
	@ link register save eliminated.
	ldr	r0, [r0, #12]
	bx	lr
	.cantunwind
	.fnend
	.size	_ZNK8opendnp318BufferedCollectionINS_11Group51Var2EZNS_11CountParser13InvokeCountOfIS1_EEvRKNS_12HeaderRecordEtRKN7openpal6RSliceERNS_12IAPDUHandlerEEUlRS8_jE_E5CountEv, .-_ZNK8opendnp318BufferedCollectionINS_11Group51Var2EZNS_11CountParser13InvokeCountOfIS1_EEvRKNS_12HeaderRecordEtRKN7openpal6RSliceERNS_12IAPDUHandlerEEUlRS8_jE_E5CountEv
	.section	.text._ZNK8opendnp318BufferedCollectionINS_11Group51Var1EZNS_11CountParser13InvokeCountOfIS1_EEvRKNS_12HeaderRecordEtRKN7openpal6RSliceERNS_12IAPDUHandlerEEUlRS8_jE_E5CountEv,"axG",%progbits,_ZNK8opendnp318BufferedCollectionINS_11Group51Var1EZNS_11CountParser13InvokeCountOfIS1_EEvRKNS_12HeaderRecordEtRKN7openpal6RSliceERNS_12IAPDUHandlerEEUlRS8_jE_E5CountEv,comdat
	.align	2
	.weak	_ZNK8opendnp318BufferedCollectionINS_11Group51Var1EZNS_11CountParser13InvokeCountOfIS1_EEvRKNS_12HeaderRecordEtRKN7openpal6RSliceERNS_12IAPDUHandlerEEUlRS8_jE_E5CountEv
	.syntax unified
	.arm
	.fpu vfp
	.type	_ZNK8opendnp318BufferedCollectionINS_11Group51Var1EZNS_11CountParser13InvokeCountOfIS1_EEvRKNS_12HeaderRecordEtRKN7openpal6RSliceERNS_12IAPDUHandlerEEUlRS8_jE_E5CountEv, %function
_ZNK8opendnp318BufferedCollectionINS_11Group51Var1EZNS_11CountParser13InvokeCountOfIS1_EEvRKNS_12HeaderRecordEtRKN7openpal6RSliceERNS_12IAPDUHandlerEEUlRS8_jE_E5CountEv:
	.fnstart
.LFB3050:
	@ args = 0, pretend = 0, frame = 0
	@ frame_needed = 0, uses_anonymous_args = 0
	@ link register save eliminated.
	ldr	r0, [r0, #12]
	bx	lr
	.cantunwind
	.fnend
	.size	_ZNK8opendnp318BufferedCollectionINS_11Group51Var1EZNS_11CountParser13InvokeCountOfIS1_EEvRKNS_12HeaderRecordEtRKN7openpal6RSliceERNS_12IAPDUHandlerEEUlRS8_jE_E5CountEv, .-_ZNK8opendnp318BufferedCollectionINS_11Group51Var1EZNS_11CountParser13InvokeCountOfIS1_EEvRKNS_12HeaderRecordEtRKN7openpal6RSliceERNS_12IAPDUHandlerEEUlRS8_jE_E5CountEv
	.section	.text._ZNK8opendnp318BufferedCollectionINS_11Group50Var1EZNS_11CountParser13InvokeCountOfIS1_EEvRKNS_12HeaderRecordEtRKN7openpal6RSliceERNS_12IAPDUHandlerEEUlRS8_jE_E5CountEv,"axG",%progbits,_ZNK8opendnp318BufferedCollectionINS_11Group50Var1EZNS_11CountParser13InvokeCountOfIS1_EEvRKNS_12HeaderRecordEtRKN7openpal6RSliceERNS_12IAPDUHandlerEEUlRS8_jE_E5CountEv,comdat
	.align	2
	.weak	_ZNK8opendnp318BufferedCollectionINS_11Group50Var1EZNS_11CountParser13InvokeCountOfIS1_EEvRKNS_12HeaderRecordEtRKN7openpal6RSliceERNS_12IAPDUHandlerEEUlRS8_jE_E5CountEv
	.syntax unified
	.arm
	.fpu vfp
	.type	_ZNK8opendnp318BufferedCollectionINS_11Group50Var1EZNS_11CountParser13InvokeCountOfIS1_EEvRKNS_12HeaderRecordEtRKN7openpal6RSliceERNS_12IAPDUHandlerEEUlRS8_jE_E5CountEv, %function
_ZNK8opendnp318BufferedCollectionINS_11Group50Var1EZNS_11CountParser13InvokeCountOfIS1_EEvRKNS_12HeaderRecordEtRKN7openpal6RSliceERNS_12IAPDUHandlerEEUlRS8_jE_E5CountEv:
	.fnstart
.LFB3052:
	@ args = 0, pretend = 0, frame = 0
	@ frame_needed = 0, uses_anonymous_args = 0
	@ link register save eliminated.
	ldr	r0, [r0, #12]
	bx	lr
	.cantunwind
	.fnend
	.size	_ZNK8opendnp318BufferedCollectionINS_11Group50Var1EZNS_11CountParser13InvokeCountOfIS1_EEvRKNS_12HeaderRecordEtRKN7openpal6RSliceERNS_12IAPDUHandlerEEUlRS8_jE_E5CountEv, .-_ZNK8opendnp318BufferedCollectionINS_11Group50Var1EZNS_11CountParser13InvokeCountOfIS1_EEvRKNS_12HeaderRecordEtRKN7openpal6RSliceERNS_12IAPDUHandlerEEUlRS8_jE_E5CountEv
	.section	.text._ZN8opendnp311CountParser13InvokeCountOfINS_11Group50Var1EEEvRKNS_12HeaderRecordEtRKN7openpal6RSliceERNS_12IAPDUHandlerE,"axG",%progbits,_ZN8opendnp311CountParser13InvokeCountOfINS_11Group50Var1EEEvRKNS_12HeaderRecordEtRKN7openpal6RSliceERNS_12IAPDUHandlerE,comdat
	.align	2
	.weak	_ZN8opendnp311CountParser13InvokeCountOfINS_11Group50Var1EEEvRKNS_12HeaderRecordEtRKN7openpal6RSliceERNS_12IAPDUHandlerE
	.syntax unified
	.arm
	.fpu vfp
	.type	_ZN8opendnp311CountParser13InvokeCountOfINS_11Group50Var1EEEvRKNS_12HeaderRecordEtRKN7openpal6RSliceERNS_12IAPDUHandlerE, %function
_ZN8opendnp311CountParser13InvokeCountOfINS_11Group50Var1EEEvRKNS_12HeaderRecordEtRKN7openpal6RSliceERNS_12IAPDUHandlerE:
	.fnstart
.LFB2663:
	@ args = 0, pretend = 0, frame = 40
	@ frame_needed = 0, uses_anonymous_args = 0
	ldr	ip, .L10
	push	{r4, r5, r6, lr}
	.save {r4, r5, r6, lr}
	mov	r5, r1
	.pad #40
	sub	sp, sp, #40
	mov	lr, r0
	ldr	r4, .L10+4
	ldm	r2, {r0, r1}
.LPIC0:
	add	ip, pc, ip
	mov	r6, r3
	add	r3, sp, #4
	ldr	r4, [ip, r4]
	stm	r3, {r0, r1}
	ldm	lr, {r0, r1, r2, r3}
	add	ip, sp, #20
	add	lr, r4, #8
	str	lr, [sp]
	stm	ip, {r0, r1, r2, r3}
	mov	r1, ip
	mov	r0, r6
	mov	r2, sp
	str	r5, [sp, #12]
	strh	r5, [sp, #36]	@ movhi
	bl	_ZN8opendnp312IAPDUHandler8OnHeaderERKNS_11CountHeaderERKNS_11ICollectionINS_11Group50Var1EEE(PLT)
	add	sp, sp, #40
	@ sp needed
	pop	{r4, r5, r6, pc}
.L11:
	.align	2
.L10:
	.word	_GLOBAL_OFFSET_TABLE_-(.LPIC0+8)
	.word	_ZTVN8opendnp318BufferedCollectionINS_11Group50Var1EZNS_11CountParser13InvokeCountOfIS1_EEvRKNS_12HeaderRecordEtRKN7openpal6RSliceERNS_12IAPDUHandlerEEUlRS8_jE_EE(GOT)
	.fnend
	.size	_ZN8opendnp311CountParser13InvokeCountOfINS_11Group50Var1EEEvRKNS_12HeaderRecordEtRKN7openpal6RSliceERNS_12IAPDUHandlerE, .-_ZN8opendnp311CountParser13InvokeCountOfINS_11Group50Var1EEEvRKNS_12HeaderRecordEtRKN7openpal6RSliceERNS_12IAPDUHandlerE
	.section	.text._ZNK8opendnp318BufferedCollectionINS_11Group50Var1EZNS_11CountParser13InvokeCountOfIS1_EEvRKNS_12HeaderRecordEtRKN7openpal6RSliceERNS_12IAPDUHandlerEEUlRS8_jE_E7ForeachERNS_8IVisitorIS1_EE,"axG",%progbits,_ZNK8opendnp318BufferedCollectionINS_11Group50Var1EZNS_11CountParser13InvokeCountOfIS1_EEvRKNS_12HeaderRecordEtRKN7openpal6RSliceERNS_12IAPDUHandlerEEUlRS8_jE_E7ForeachERNS_8IVisitorIS1_EE,comdat
	.align	2
	.weak	_ZNK8opendnp318BufferedCollectionINS_11Group50Var1EZNS_11CountParser13InvokeCountOfIS1_EEvRKNS_12HeaderRecordEtRKN7openpal6RSliceERNS_12IAPDUHandlerEEUlRS8_jE_E7ForeachERNS_8IVisitorIS1_EE
	.syntax unified
	.arm
	.fpu vfp
	.type	_ZNK8opendnp318BufferedCollectionINS_11Group50Var1EZNS_11CountParser13InvokeCountOfIS1_EEvRKNS_12HeaderRecordEtRKN7openpal6RSliceERNS_12IAPDUHandlerEEUlRS8_jE_E7ForeachERNS_8IVisitorIS1_EE, %function
_ZNK8opendnp318BufferedCollectionINS_11Group50Var1EZNS_11CountParser13InvokeCountOfIS1_EEvRKNS_12HeaderRecordEtRKN7openpal6RSliceERNS_12IAPDUHandlerEEUlRS8_jE_E7ForeachERNS_8IVisitorIS1_EE:
	.fnstart
.LFB3053:
	@ args = 0, pretend = 0, frame = 24
	@ frame_needed = 0, uses_anonymous_args = 0
	push	{r4, r5, r6, r7, lr}
	.save {r4, r5, r6, r7, lr}
	mov	r7, r0
	.pad #28
	sub	sp, sp, #28
	ldr	r3, [r0, #12]
	mov	r5, r1
	ldmib	r0, {r0, r1}
	add	r2, sp, #16
	cmp	r3, #0
	str	r2, [sp, #4]
	stm	r2, {r0, r1}
	beq	.L12
	mov	r4, #0
	add	r3, sp, #8
	str	r3, [sp]
.L15:
	ldr	r3, [r5]
	ldr	r0, [sp]
	add	r4, r4, #1
	ldr	r6, [r3]
	bl	_ZN8opendnp311Group50Var1C1Ev(PLT)
	ldr	r1, [sp]
	ldr	r0, [sp, #4]
	bl	_ZN8opendnp311Group50Var14ReadERN7openpal6RSliceERS0_(PLT)
	ldr	r1, [sp]
	mov	r0, r5
	blx	r6
	ldr	r3, [r7, #12]
	cmp	r3, r4
	bhi	.L15
.L12:
	add	sp, sp, #28
	@ sp needed
	pop	{r4, r5, r6, r7, pc}
	.fnend
	.size	_ZNK8opendnp318BufferedCollectionINS_11Group50Var1EZNS_11CountParser13InvokeCountOfIS1_EEvRKNS_12HeaderRecordEtRKN7openpal6RSliceERNS_12IAPDUHandlerEEUlRS8_jE_E7ForeachERNS_8IVisitorIS1_EE, .-_ZNK8opendnp318BufferedCollectionINS_11Group50Var1EZNS_11CountParser13InvokeCountOfIS1_EEvRKNS_12HeaderRecordEtRKN7openpal6RSliceERNS_12IAPDUHandlerEEUlRS8_jE_E7ForeachERNS_8IVisitorIS1_EE
	.section	.text._ZN8opendnp311CountParser13InvokeCountOfINS_11Group51Var1EEEvRKNS_12HeaderRecordEtRKN7openpal6RSliceERNS_12IAPDUHandlerE,"axG",%progbits,_ZN8opendnp311CountParser13InvokeCountOfINS_11Group51Var1EEEvRKNS_12HeaderRecordEtRKN7openpal6RSliceERNS_12IAPDUHandlerE,comdat
	.align	2
	.weak	_ZN8opendnp311CountParser13InvokeCountOfINS_11Group51Var1EEEvRKNS_12HeaderRecordEtRKN7openpal6RSliceERNS_12IAPDUHandlerE
	.syntax unified
	.arm
	.fpu vfp
	.type	_ZN8opendnp311CountParser13InvokeCountOfINS_11Group51Var1EEEvRKNS_12HeaderRecordEtRKN7openpal6RSliceERNS_12IAPDUHandlerE, %function
_ZN8opendnp311CountParser13InvokeCountOfINS_11Group51Var1EEEvRKNS_12HeaderRecordEtRKN7openpal6RSliceERNS_12IAPDUHandlerE:
	.fnstart
.LFB2673:
	@ args = 0, pretend = 0, frame = 40
	@ frame_needed = 0, uses_anonymous_args = 0
	ldr	ip, .L20
	push	{r4, r5, r6, lr}
	.save {r4, r5, r6, lr}
	mov	r5, r1
	.pad #40
	sub	sp, sp, #40
	mov	lr, r0
	ldr	r4, .L20+4
	ldm	r2, {r0, r1}
.LPIC1:
	add	ip, pc, ip
	mov	r6, r3
	add	r3, sp, #4
	ldr	r4, [ip, r4]
	stm	r3, {r0, r1}
	ldm	lr, {r0, r1, r2, r3}
	add	ip, sp, #20
	add	lr, r4, #8
	str	lr, [sp]
	stm	ip, {r0, r1, r2, r3}
	mov	r1, ip
	mov	r0, r6
	mov	r2, sp
	str	r5, [sp, #12]
	strh	r5, [sp, #36]	@ movhi
	bl	_ZN8opendnp312IAPDUHandler8OnHeaderERKNS_11CountHeaderERKNS_11ICollectionINS_11Group51Var1EEE(PLT)
	add	sp, sp, #40
	@ sp needed
	pop	{r4, r5, r6, pc}
.L21:
	.align	2
.L20:
	.word	_GLOBAL_OFFSET_TABLE_-(.LPIC1+8)
	.word	_ZTVN8opendnp318BufferedCollectionINS_11Group51Var1EZNS_11CountParser13InvokeCountOfIS1_EEvRKNS_12HeaderRecordEtRKN7openpal6RSliceERNS_12IAPDUHandlerEEUlRS8_jE_EE(GOT)
	.fnend
	.size	_ZN8opendnp311CountParser13InvokeCountOfINS_11Group51Var1EEEvRKNS_12HeaderRecordEtRKN7openpal6RSliceERNS_12IAPDUHandlerE, .-_ZN8opendnp311CountParser13InvokeCountOfINS_11Group51Var1EEEvRKNS_12HeaderRecordEtRKN7openpal6RSliceERNS_12IAPDUHandlerE
	.section	.text._ZNK8opendnp318BufferedCollectionINS_11Group51Var1EZNS_11CountParser13InvokeCountOfIS1_EEvRKNS_12HeaderRecordEtRKN7openpal6RSliceERNS_12IAPDUHandlerEEUlRS8_jE_E7ForeachERNS_8IVisitorIS1_EE,"axG",%progbits,_ZNK8opendnp318BufferedCollectionINS_11Group51Var1EZNS_11CountParser13InvokeCountOfIS1_EEvRKNS_12HeaderRecordEtRKN7openpal6RSliceERNS_12IAPDUHandlerEEUlRS8_jE_E7ForeachERNS_8IVisitorIS1_EE,comdat
	.align	2
	.weak	_ZNK8opendnp318BufferedCollectionINS_11Group51Var1EZNS_11CountParser13InvokeCountOfIS1_EEvRKNS_12HeaderRecordEtRKN7openpal6RSliceERNS_12IAPDUHandlerEEUlRS8_jE_E7ForeachERNS_8IVisitorIS1_EE
	.syntax unified
	.arm
	.fpu vfp
	.type	_ZNK8opendnp318BufferedCollectionINS_11Group51Var1EZNS_11CountParser13InvokeCountOfIS1_EEvRKNS_12HeaderRecordEtRKN7openpal6RSliceERNS_12IAPDUHandlerEEUlRS8_jE_E7ForeachERNS_8IVisitorIS1_EE, %function
_ZNK8opendnp318BufferedCollectionINS_11Group51Var1EZNS_11CountParser13InvokeCountOfIS1_EEvRKNS_12HeaderRecordEtRKN7openpal6RSliceERNS_12IAPDUHandlerEEUlRS8_jE_E7ForeachERNS_8IVisitorIS1_EE:
	.fnstart
.LFB3051:
	@ args = 0, pretend = 0, frame = 24
	@ frame_needed = 0, uses_anonymous_args = 0
	push	{r4, r5, r6, r7, lr}
	.save {r4, r5, r6, r7, lr}
	mov	r7, r0
	.pad #28
	sub	sp, sp, #28
	ldr	r3, [r0, #12]
	mov	r5, r1
	ldmib	r0, {r0, r1}
	add	r2, sp, #16
	cmp	r3, #0
	str	r2, [sp, #4]
	stm	r2, {r0, r1}
	beq	.L22
	mov	r4, #0
	add	r3, sp, #8
	str	r3, [sp]
.L25:
	ldr	r3, [r5]
	ldr	r0, [sp]
	add	r4, r4, #1
	ldr	r6, [r3]
	bl	_ZN8opendnp311Group51Var1C1Ev(PLT)
	ldr	r1, [sp]
	ldr	r0, [sp, #4]
	bl	_ZN8opendnp311Group51Var14ReadERN7openpal6RSliceERS0_(PLT)
	ldr	r1, [sp]
	mov	r0, r5
	blx	r6
	ldr	r3, [r7, #12]
	cmp	r3, r4
	bhi	.L25
.L22:
	add	sp, sp, #28
	@ sp needed
	pop	{r4, r5, r6, r7, pc}
	.fnend
	.size	_ZNK8opendnp318BufferedCollectionINS_11Group51Var1EZNS_11CountParser13InvokeCountOfIS1_EEvRKNS_12HeaderRecordEtRKN7openpal6RSliceERNS_12IAPDUHandlerEEUlRS8_jE_E7ForeachERNS_8IVisitorIS1_EE, .-_ZNK8opendnp318BufferedCollectionINS_11Group51Var1EZNS_11CountParser13InvokeCountOfIS1_EEvRKNS_12HeaderRecordEtRKN7openpal6RSliceERNS_12IAPDUHandlerEEUlRS8_jE_E7ForeachERNS_8IVisitorIS1_EE
	.section	.text._ZN8opendnp311CountParser13InvokeCountOfINS_11Group51Var2EEEvRKNS_12HeaderRecordEtRKN7openpal6RSliceERNS_12IAPDUHandlerE,"axG",%progbits,_ZN8opendnp311CountParser13InvokeCountOfINS_11Group51Var2EEEvRKNS_12HeaderRecordEtRKN7openpal6RSliceERNS_12IAPDUHandlerE,comdat
	.align	2
	.weak	_ZN8opendnp311CountParser13InvokeCountOfINS_11Group51Var2EEEvRKNS_12HeaderRecordEtRKN7openpal6RSliceERNS_12IAPDUHandlerE
	.syntax unified
	.arm
	.fpu vfp
	.type	_ZN8opendnp311CountParser13InvokeCountOfINS_11Group51Var2EEEvRKNS_12HeaderRecordEtRKN7openpal6RSliceERNS_12IAPDUHandlerE, %function
_ZN8opendnp311CountParser13InvokeCountOfINS_11Group51Var2EEEvRKNS_12HeaderRecordEtRKN7openpal6RSliceERNS_12IAPDUHandlerE:
	.fnstart
.LFB2683:
	@ args = 0, pretend = 0, frame = 40
	@ frame_needed = 0, uses_anonymous_args = 0
	ldr	ip, .L29
	push	{r4, r5, r6, lr}
	.save {r4, r5, r6, lr}
	mov	r5, r1
	.pad #40
	sub	sp, sp, #40
	mov	lr, r0
	ldr	r4, .L29+4
	ldm	r2, {r0, r1}
.LPIC2:
	add	ip, pc, ip
	mov	r6, r3
	add	r3, sp, #4
	ldr	r4, [ip, r4]
	stm	r3, {r0, r1}
	ldm	lr, {r0, r1, r2, r3}
	add	ip, sp, #20
	add	lr, r4, #8
	str	lr, [sp]
	stm	ip, {r0, r1, r2, r3}
	mov	r1, ip
	mov	r0, r6
	mov	r2, sp
	str	r5, [sp, #12]
	strh	r5, [sp, #36]	@ movhi
	bl	_ZN8opendnp312IAPDUHandler8OnHeaderERKNS_11CountHeaderERKNS_11ICollectionINS_11Group51Var2EEE(PLT)
	add	sp, sp, #40
	@ sp needed
	pop	{r4, r5, r6, pc}
.L30:
	.align	2
.L29:
	.word	_GLOBAL_OFFSET_TABLE_-(.LPIC2+8)
	.word	_ZTVN8opendnp318BufferedCollectionINS_11Group51Var2EZNS_11CountParser13InvokeCountOfIS1_EEvRKNS_12HeaderRecordEtRKN7openpal6RSliceERNS_12IAPDUHandlerEEUlRS8_jE_EE(GOT)
	.fnend
	.size	_ZN8opendnp311CountParser13InvokeCountOfINS_11Group51Var2EEEvRKNS_12HeaderRecordEtRKN7openpal6RSliceERNS_12IAPDUHandlerE, .-_ZN8opendnp311CountParser13InvokeCountOfINS_11Group51Var2EEEvRKNS_12HeaderRecordEtRKN7openpal6RSliceERNS_12IAPDUHandlerE
	.section	.text._ZNK8opendnp318BufferedCollectionINS_11Group51Var2EZNS_11CountParser13InvokeCountOfIS1_EEvRKNS_12HeaderRecordEtRKN7openpal6RSliceERNS_12IAPDUHandlerEEUlRS8_jE_E7ForeachERNS_8IVisitorIS1_EE,"axG",%progbits,_ZNK8opendnp318BufferedCollectionINS_11Group51Var2EZNS_11CountParser13InvokeCountOfIS1_EEvRKNS_12HeaderRecordEtRKN7openpal6RSliceERNS_12IAPDUHandlerEEUlRS8_jE_E7ForeachERNS_8IVisitorIS1_EE,comdat
	.align	2
	.weak	_ZNK8opendnp318BufferedCollectionINS_11Group51Var2EZNS_11CountParser13InvokeCountOfIS1_EEvRKNS_12HeaderRecordEtRKN7openpal6RSliceERNS_12IAPDUHandlerEEUlRS8_jE_E7ForeachERNS_8IVisitorIS1_EE
	.syntax unified
	.arm
	.fpu vfp
	.type	_ZNK8opendnp318BufferedCollectionINS_11Group51Var2EZNS_11CountParser13InvokeCountOfIS1_EEvRKNS_12HeaderRecordEtRKN7openpal6RSliceERNS_12IAPDUHandlerEEUlRS8_jE_E7ForeachERNS_8IVisitorIS1_EE, %function
_ZNK8opendnp318BufferedCollectionINS_11Group51Var2EZNS_11CountParser13InvokeCountOfIS1_EEvRKNS_12HeaderRecordEtRKN7openpal6RSliceERNS_12IAPDUHandlerEEUlRS8_jE_E7ForeachERNS_8IVisitorIS1_EE:
	.fnstart
.LFB3049:
	@ args = 0, pretend = 0, frame = 24
	@ frame_needed = 0, uses_anonymous_args = 0
	push	{r4, r5, r6, r7, lr}
	.save {r4, r5, r6, r7, lr}
	mov	r7, r0
	.pad #28
	sub	sp, sp, #28
	ldr	r3, [r0, #12]
	mov	r5, r1
	ldmib	r0, {r0, r1}
	add	r2, sp, #16
	cmp	r3, #0
	str	r2, [sp, #4]
	stm	r2, {r0, r1}
	beq	.L31
	mov	r4, #0
	add	r3, sp, #8
	str	r3, [sp]
.L34:
	ldr	r3, [r5]
	ldr	r0, [sp]
	add	r4, r4, #1
	ldr	r6, [r3]
	bl	_ZN8opendnp311Group51Var2C1Ev(PLT)
	ldr	r1, [sp]
	ldr	r0, [sp, #4]
	bl	_ZN8opendnp311Group51Var24ReadERN7openpal6RSliceERS0_(PLT)
	ldr	r1, [sp]
	mov	r0, r5
	blx	r6
	ldr	r3, [r7, #12]
	cmp	r3, r4
	bhi	.L34
.L31:
	add	sp, sp, #28
	@ sp needed
	pop	{r4, r5, r6, r7, pc}
	.fnend
	.size	_ZNK8opendnp318BufferedCollectionINS_11Group51Var2EZNS_11CountParser13InvokeCountOfIS1_EEvRKNS_12HeaderRecordEtRKN7openpal6RSliceERNS_12IAPDUHandlerEEUlRS8_jE_E7ForeachERNS_8IVisitorIS1_EE, .-_ZNK8opendnp318BufferedCollectionINS_11Group51Var2EZNS_11CountParser13InvokeCountOfIS1_EEvRKNS_12HeaderRecordEtRKN7openpal6RSliceERNS_12IAPDUHandlerEEUlRS8_jE_E7ForeachERNS_8IVisitorIS1_EE
	.section	.text._ZN8opendnp311CountParser13InvokeCountOfINS_11Group52Var1EEEvRKNS_12HeaderRecordEtRKN7openpal6RSliceERNS_12IAPDUHandlerE,"axG",%progbits,_ZN8opendnp311CountParser13InvokeCountOfINS_11Group52Var1EEEvRKNS_12HeaderRecordEtRKN7openpal6RSliceERNS_12IAPDUHandlerE,comdat
	.align	2
	.weak	_ZN8opendnp311CountParser13InvokeCountOfINS_11Group52Var1EEEvRKNS_12HeaderRecordEtRKN7openpal6RSliceERNS_12IAPDUHandlerE
	.syntax unified
	.arm
	.fpu vfp
	.type	_ZN8opendnp311CountParser13InvokeCountOfINS_11Group52Var1EEEvRKNS_12HeaderRecordEtRKN7openpal6RSliceERNS_12IAPDUHandlerE, %function
_ZN8opendnp311CountParser13InvokeCountOfINS_11Group52Var1EEEvRKNS_12HeaderRecordEtRKN7openpal6RSliceERNS_12IAPDUHandlerE:
	.fnstart
.LFB2693:
	@ args = 0, pretend = 0, frame = 40
	@ frame_needed = 0, uses_anonymous_args = 0
	ldr	ip, .L38
	push	{r4, r5, r6, lr}
	.save {r4, r5, r6, lr}
	mov	r5, r1
	.pad #40
	sub	sp, sp, #40
	mov	lr, r0
	ldr	r4, .L38+4
	ldm	r2, {r0, r1}
.LPIC3:
	add	ip, pc, ip
	mov	r6, r3
	add	r3, sp, #4
	ldr	r4, [ip, r4]
	stm	r3, {r0, r1}
	ldm	lr, {r0, r1, r2, r3}
	add	ip, sp, #20
	add	lr, r4, #8
	str	lr, [sp]
	stm	ip, {r0, r1, r2, r3}
	mov	r1, ip
	mov	r0, r6
	mov	r2, sp
	str	r5, [sp, #12]
	strh	r5, [sp, #36]	@ movhi
	bl	_ZN8opendnp312IAPDUHandler8OnHeaderERKNS_11CountHeaderERKNS_11ICollectionINS_11Group52Var1EEE(PLT)
	add	sp, sp, #40
	@ sp needed
	pop	{r4, r5, r6, pc}
.L39:
	.align	2
.L38:
	.word	_GLOBAL_OFFSET_TABLE_-(.LPIC3+8)
	.word	_ZTVN8opendnp318BufferedCollectionINS_11Group52Var1EZNS_11CountParser13InvokeCountOfIS1_EEvRKNS_12HeaderRecordEtRKN7openpal6RSliceERNS_12IAPDUHandlerEEUlRS8_jE_EE(GOT)
	.fnend
	.size	_ZN8opendnp311CountParser13InvokeCountOfINS_11Group52Var1EEEvRKNS_12HeaderRecordEtRKN7openpal6RSliceERNS_12IAPDUHandlerE, .-_ZN8opendnp311CountParser13InvokeCountOfINS_11Group52Var1EEEvRKNS_12HeaderRecordEtRKN7openpal6RSliceERNS_12IAPDUHandlerE
	.section	.text._ZNK8opendnp318BufferedCollectionINS_11Group52Var1EZNS_11CountParser13InvokeCountOfIS1_EEvRKNS_12HeaderRecordEtRKN7openpal6RSliceERNS_12IAPDUHandlerEEUlRS8_jE_E7ForeachERNS_8IVisitorIS1_EE,"axG",%progbits,_ZNK8opendnp318BufferedCollectionINS_11Group52Var1EZNS_11CountParser13InvokeCountOfIS1_EEvRKNS_12HeaderRecordEtRKN7openpal6RSliceERNS_12IAPDUHandlerEEUlRS8_jE_E7ForeachERNS_8IVisitorIS1_EE,comdat
	.align	2
	.weak	_ZNK8opendnp318BufferedCollectionINS_11Group52Var1EZNS_11CountParser13InvokeCountOfIS1_EEvRKNS_12HeaderRecordEtRKN7openpal6RSliceERNS_12IAPDUHandlerEEUlRS8_jE_E7ForeachERNS_8IVisitorIS1_EE
	.syntax unified
	.arm
	.fpu vfp
	.type	_ZNK8opendnp318BufferedCollectionINS_11Group52Var1EZNS_11CountParser13InvokeCountOfIS1_EEvRKNS_12HeaderRecordEtRKN7openpal6RSliceERNS_12IAPDUHandlerEEUlRS8_jE_E7ForeachERNS_8IVisitorIS1_EE, %function
_ZNK8opendnp318BufferedCollectionINS_11Group52Var1EZNS_11CountParser13InvokeCountOfIS1_EEvRKNS_12HeaderRecordEtRKN7openpal6RSliceERNS_12IAPDUHandlerEEUlRS8_jE_E7ForeachERNS_8IVisitorIS1_EE:
	.fnstart
.LFB3047:
	@ args = 0, pretend = 0, frame = 24
	@ frame_needed = 0, uses_anonymous_args = 0
	push	{r4, r5, r6, r7, lr}
	.save {r4, r5, r6, r7, lr}
	mov	r7, r0
	.pad #28
	sub	sp, sp, #28
	ldr	r3, [r0, #12]
	mov	r5, r1
	ldmib	r0, {r0, r1}
	add	r2, sp, #16
	cmp	r3, #0
	str	r2, [sp, #4]
	stm	r2, {r0, r1}
	beq	.L40
	mov	r4, #0
	add	r3, sp, #12
	str	r3, [sp]
.L43:
	ldr	r3, [r5]
	ldr	r0, [sp]
	add	r4, r4, #1
	ldr	r6, [r3]
	bl	_ZN8opendnp311Group52Var1C1Ev(PLT)
	ldr	r1, [sp]
	ldr	r0, [sp, #4]
	bl	_ZN8opendnp311Group52Var14ReadERN7openpal6RSliceERS0_(PLT)
	ldr	r1, [sp]
	mov	r0, r5
	blx	r6
	ldr	r3, [r7, #12]
	cmp	r3, r4
	bhi	.L43
.L40:
	add	sp, sp, #28
	@ sp needed
	pop	{r4, r5, r6, r7, pc}
	.fnend
	.size	_ZNK8opendnp318BufferedCollectionINS_11Group52Var1EZNS_11CountParser13InvokeCountOfIS1_EEvRKNS_12HeaderRecordEtRKN7openpal6RSliceERNS_12IAPDUHandlerEEUlRS8_jE_E7ForeachERNS_8IVisitorIS1_EE, .-_ZNK8opendnp318BufferedCollectionINS_11Group52Var1EZNS_11CountParser13InvokeCountOfIS1_EEvRKNS_12HeaderRecordEtRKN7openpal6RSliceERNS_12IAPDUHandlerEEUlRS8_jE_E7ForeachERNS_8IVisitorIS1_EE
	.section	.text._ZN8opendnp311CountParser13InvokeCountOfINS_11Group52Var2EEEvRKNS_12HeaderRecordEtRKN7openpal6RSliceERNS_12IAPDUHandlerE,"axG",%progbits,_ZN8opendnp311CountParser13InvokeCountOfINS_11Group52Var2EEEvRKNS_12HeaderRecordEtRKN7openpal6RSliceERNS_12IAPDUHandlerE,comdat
	.align	2
	.weak	_ZN8opendnp311CountParser13InvokeCountOfINS_11Group52Var2EEEvRKNS_12HeaderRecordEtRKN7openpal6RSliceERNS_12IAPDUHandlerE
	.syntax unified
	.arm
	.fpu vfp
	.type	_ZN8opendnp311CountParser13InvokeCountOfINS_11Group52Var2EEEvRKNS_12HeaderRecordEtRKN7openpal6RSliceERNS_12IAPDUHandlerE, %function
_ZN8opendnp311CountParser13InvokeCountOfINS_11Group52Var2EEEvRKNS_12HeaderRecordEtRKN7openpal6RSliceERNS_12IAPDUHandlerE:
	.fnstart
.LFB2703:
	@ args = 0, pretend = 0, frame = 40
	@ frame_needed = 0, uses_anonymous_args = 0
	ldr	ip, .L47
	push	{r4, r5, r6, lr}
	.save {r4, r5, r6, lr}
	mov	r5, r1
	.pad #40
	sub	sp, sp, #40
	mov	lr, r0
	ldr	r4, .L47+4
	ldm	r2, {r0, r1}
.LPIC4:
	add	ip, pc, ip
	mov	r6, r3
	add	r3, sp, #4
	ldr	r4, [ip, r4]
	stm	r3, {r0, r1}
	ldm	lr, {r0, r1, r2, r3}
	add	ip, sp, #20
	add	lr, r4, #8
	str	lr, [sp]
	stm	ip, {r0, r1, r2, r3}
	mov	r1, ip
	mov	r0, r6
	mov	r2, sp
	str	r5, [sp, #12]
	strh	r5, [sp, #36]	@ movhi
	bl	_ZN8opendnp312IAPDUHandler8OnHeaderERKNS_11CountHeaderERKNS_11ICollectionINS_11Group52Var2EEE(PLT)
	add	sp, sp, #40
	@ sp needed
	pop	{r4, r5, r6, pc}
.L48:
	.align	2
.L47:
	.word	_GLOBAL_OFFSET_TABLE_-(.LPIC4+8)
	.word	_ZTVN8opendnp318BufferedCollectionINS_11Group52Var2EZNS_11CountParser13InvokeCountOfIS1_EEvRKNS_12HeaderRecordEtRKN7openpal6RSliceERNS_12IAPDUHandlerEEUlRS8_jE_EE(GOT)
	.fnend
	.size	_ZN8opendnp311CountParser13InvokeCountOfINS_11Group52Var2EEEvRKNS_12HeaderRecordEtRKN7openpal6RSliceERNS_12IAPDUHandlerE, .-_ZN8opendnp311CountParser13InvokeCountOfINS_11Group52Var2EEEvRKNS_12HeaderRecordEtRKN7openpal6RSliceERNS_12IAPDUHandlerE
	.section	.text._ZNK8opendnp318BufferedCollectionINS_11Group52Var2EZNS_11CountParser13InvokeCountOfIS1_EEvRKNS_12HeaderRecordEtRKN7openpal6RSliceERNS_12IAPDUHandlerEEUlRS8_jE_E7ForeachERNS_8IVisitorIS1_EE,"axG",%progbits,_ZNK8opendnp318BufferedCollectionINS_11Group52Var2EZNS_11CountParser13InvokeCountOfIS1_EEvRKNS_12HeaderRecordEtRKN7openpal6RSliceERNS_12IAPDUHandlerEEUlRS8_jE_E7ForeachERNS_8IVisitorIS1_EE,comdat
	.align	2
	.weak	_ZNK8opendnp318BufferedCollectionINS_11Group52Var2EZNS_11CountParser13InvokeCountOfIS1_EEvRKNS_12HeaderRecordEtRKN7openpal6RSliceERNS_12IAPDUHandlerEEUlRS8_jE_E7ForeachERNS_8IVisitorIS1_EE
	.syntax unified
	.arm
	.fpu vfp
	.type	_ZNK8opendnp318BufferedCollectionINS_11Group52Var2EZNS_11CountParser13InvokeCountOfIS1_EEvRKNS_12HeaderRecordEtRKN7openpal6RSliceERNS_12IAPDUHandlerEEUlRS8_jE_E7ForeachERNS_8IVisitorIS1_EE, %function
_ZNK8opendnp318BufferedCollectionINS_11Group52Var2EZNS_11CountParser13InvokeCountOfIS1_EEvRKNS_12HeaderRecordEtRKN7openpal6RSliceERNS_12IAPDUHandlerEEUlRS8_jE_E7ForeachERNS_8IVisitorIS1_EE:
	.fnstart
.LFB3045:
	@ args = 0, pretend = 0, frame = 24
	@ frame_needed = 0, uses_anonymous_args = 0
	push	{r4, r5, r6, r7, lr}
	.save {r4, r5, r6, r7, lr}
	mov	r7, r0
	.pad #28
	sub	sp, sp, #28
	ldr	r3, [r0, #12]
	mov	r5, r1
	ldmib	r0, {r0, r1}
	add	r2, sp, #16
	cmp	r3, #0
	str	r2, [sp, #4]
	stm	r2, {r0, r1}
	beq	.L49
	mov	r4, #0
	add	r3, sp, #12
	str	r3, [sp]
.L52:
	ldr	r3, [r5]
	ldr	r0, [sp]
	add	r4, r4, #1
	ldr	r6, [r3]
	bl	_ZN8opendnp311Group52Var2C1Ev(PLT)
	ldr	r1, [sp]
	ldr	r0, [sp, #4]
	bl	_ZN8opendnp311Group52Var24ReadERN7openpal6RSliceERS0_(PLT)
	ldr	r1, [sp]
	mov	r0, r5
	blx	r6
	ldr	r3, [r7, #12]
	cmp	r3, r4
	bhi	.L52
.L49:
	add	sp, sp, #28
	@ sp needed
	pop	{r4, r5, r6, r7, pc}
	.fnend
	.size	_ZNK8opendnp318BufferedCollectionINS_11Group52Var2EZNS_11CountParser13InvokeCountOfIS1_EEvRKNS_12HeaderRecordEtRKN7openpal6RSliceERNS_12IAPDUHandlerEEUlRS8_jE_E7ForeachERNS_8IVisitorIS1_EE, .-_ZNK8opendnp318BufferedCollectionINS_11Group52Var2EZNS_11CountParser13InvokeCountOfIS1_EEvRKNS_12HeaderRecordEtRKN7openpal6RSliceERNS_12IAPDUHandlerEEUlRS8_jE_E7ForeachERNS_8IVisitorIS1_EE
	.section	.text._ZN8opendnp311CountParser13InvokeCountOfINS_12Group120Var3EEEvRKNS_12HeaderRecordEtRKN7openpal6RSliceERNS_12IAPDUHandlerE,"axG",%progbits,_ZN8opendnp311CountParser13InvokeCountOfINS_12Group120Var3EEEvRKNS_12HeaderRecordEtRKN7openpal6RSliceERNS_12IAPDUHandlerE,comdat
	.align	2
	.weak	_ZN8opendnp311CountParser13InvokeCountOfINS_12Group120Var3EEEvRKNS_12HeaderRecordEtRKN7openpal6RSliceERNS_12IAPDUHandlerE
	.syntax unified
	.arm
	.fpu vfp
	.type	_ZN8opendnp311CountParser13InvokeCountOfINS_12Group120Var3EEEvRKNS_12HeaderRecordEtRKN7openpal6RSliceERNS_12IAPDUHandlerE, %function
_ZN8opendnp311CountParser13InvokeCountOfINS_12Group120Var3EEEvRKNS_12HeaderRecordEtRKN7openpal6RSliceERNS_12IAPDUHandlerE:
	.fnstart
.LFB2713:
	@ args = 0, pretend = 0, frame = 40
	@ frame_needed = 0, uses_anonymous_args = 0
	ldr	ip, .L56
	push	{r4, r5, r6, lr}
	.save {r4, r5, r6, lr}
	mov	r5, r1
	.pad #40
	sub	sp, sp, #40
	mov	lr, r0
	ldr	r4, .L56+4
	ldm	r2, {r0, r1}
.LPIC5:
	add	ip, pc, ip
	mov	r6, r3
	add	r3, sp, #4
	ldr	r4, [ip, r4]
	stm	r3, {r0, r1}
	ldm	lr, {r0, r1, r2, r3}
	add	ip, sp, #20
	add	lr, r4, #8
	str	lr, [sp]
	stm	ip, {r0, r1, r2, r3}
	mov	r1, ip
	mov	r0, r6
	mov	r2, sp
	str	r5, [sp, #12]
	strh	r5, [sp, #36]	@ movhi
	bl	_ZN8opendnp312IAPDUHandler8OnHeaderERKNS_11CountHeaderERKNS_11ICollectionINS_12Group120Var3EEE(PLT)
	add	sp, sp, #40
	@ sp needed
	pop	{r4, r5, r6, pc}
.L57:
	.align	2
.L56:
	.word	_GLOBAL_OFFSET_TABLE_-(.LPIC5+8)
	.word	_ZTVN8opendnp318BufferedCollectionINS_12Group120Var3EZNS_11CountParser13InvokeCountOfIS1_EEvRKNS_12HeaderRecordEtRKN7openpal6RSliceERNS_12IAPDUHandlerEEUlRS8_jE_EE(GOT)
	.fnend
	.size	_ZN8opendnp311CountParser13InvokeCountOfINS_12Group120Var3EEEvRKNS_12HeaderRecordEtRKN7openpal6RSliceERNS_12IAPDUHandlerE, .-_ZN8opendnp311CountParser13InvokeCountOfINS_12Group120Var3EEEvRKNS_12HeaderRecordEtRKN7openpal6RSliceERNS_12IAPDUHandlerE
	.section	.text._ZNK8opendnp318BufferedCollectionINS_12Group120Var3EZNS_11CountParser13InvokeCountOfIS1_EEvRKNS_12HeaderRecordEtRKN7openpal6RSliceERNS_12IAPDUHandlerEEUlRS8_jE_E7ForeachERNS_8IVisitorIS1_EE,"axG",%progbits,_ZNK8opendnp318BufferedCollectionINS_12Group120Var3EZNS_11CountParser13InvokeCountOfIS1_EEvRKNS_12HeaderRecordEtRKN7openpal6RSliceERNS_12IAPDUHandlerEEUlRS8_jE_E7ForeachERNS_8IVisitorIS1_EE,comdat
	.align	2
	.weak	_ZNK8opendnp318BufferedCollectionINS_12Group120Var3EZNS_11CountParser13InvokeCountOfIS1_EEvRKNS_12HeaderRecordEtRKN7openpal6RSliceERNS_12IAPDUHandlerEEUlRS8_jE_E7ForeachERNS_8IVisitorIS1_EE
	.syntax unified
	.arm
	.fpu vfp
	.type	_ZNK8opendnp318BufferedCollectionINS_12Group120Var3EZNS_11CountParser13InvokeCountOfIS1_EEvRKNS_12HeaderRecordEtRKN7openpal6RSliceERNS_12IAPDUHandlerEEUlRS8_jE_E7ForeachERNS_8IVisitorIS1_EE, %function
_ZNK8opendnp318BufferedCollectionINS_12Group120Var3EZNS_11CountParser13InvokeCountOfIS1_EEvRKNS_12HeaderRecordEtRKN7openpal6RSliceERNS_12IAPDUHandlerEEUlRS8_jE_E7ForeachERNS_8IVisitorIS1_EE:
	.fnstart
.LFB3043:
	@ args = 0, pretend = 0, frame = 24
	@ frame_needed = 0, uses_anonymous_args = 0
	push	{r4, r5, r6, r7, lr}
	.save {r4, r5, r6, r7, lr}
	mov	r7, r0
	.pad #28
	sub	sp, sp, #28
	ldr	r3, [r0, #12]
	mov	r5, r1
	ldmib	r0, {r0, r1}
	add	r2, sp, #8
	cmp	r3, #0
	str	r2, [sp, #4]
	stm	r2, {r0, r1}
	beq	.L58
	mov	r4, #0
	add	r3, sp, #16
	str	r3, [sp]
.L61:
	ldr	r3, [r5]
	ldr	r0, [sp]
	add	r4, r4, #1
	ldr	r6, [r3]
	bl	_ZN8opendnp312Group120Var3C1Ev(PLT)
	ldr	r1, [sp]
	ldr	r0, [sp, #4]
	bl	_ZN8opendnp312Group120Var34ReadERN7openpal6RSliceERS0_(PLT)
	ldr	r1, [sp]
	mov	r0, r5
	blx	r6
	ldr	r3, [r7, #12]
	cmp	r3, r4
	bhi	.L61
.L58:
	add	sp, sp, #28
	@ sp needed
	pop	{r4, r5, r6, r7, pc}
	.fnend
	.size	_ZNK8opendnp318BufferedCollectionINS_12Group120Var3EZNS_11CountParser13InvokeCountOfIS1_EEvRKNS_12HeaderRecordEtRKN7openpal6RSliceERNS_12IAPDUHandlerEEUlRS8_jE_E7ForeachERNS_8IVisitorIS1_EE, .-_ZNK8opendnp318BufferedCollectionINS_12Group120Var3EZNS_11CountParser13InvokeCountOfIS1_EEvRKNS_12HeaderRecordEtRKN7openpal6RSliceERNS_12IAPDUHandlerEEUlRS8_jE_E7ForeachERNS_8IVisitorIS1_EE
	.section	.text._ZN8opendnp311CountParser13InvokeCountOfINS_12Group120Var4EEEvRKNS_12HeaderRecordEtRKN7openpal6RSliceERNS_12IAPDUHandlerE,"axG",%progbits,_ZN8opendnp311CountParser13InvokeCountOfINS_12Group120Var4EEEvRKNS_12HeaderRecordEtRKN7openpal6RSliceERNS_12IAPDUHandlerE,comdat
	.align	2
	.weak	_ZN8opendnp311CountParser13InvokeCountOfINS_12Group120Var4EEEvRKNS_12HeaderRecordEtRKN7openpal6RSliceERNS_12IAPDUHandlerE
	.syntax unified
	.arm
	.fpu vfp
	.type	_ZN8opendnp311CountParser13InvokeCountOfINS_12Group120Var4EEEvRKNS_12HeaderRecordEtRKN7openpal6RSliceERNS_12IAPDUHandlerE, %function
_ZN8opendnp311CountParser13InvokeCountOfINS_12Group120Var4EEEvRKNS_12HeaderRecordEtRKN7openpal6RSliceERNS_12IAPDUHandlerE:
	.fnstart
.LFB2723:
	@ args = 0, pretend = 0, frame = 40
	@ frame_needed = 0, uses_anonymous_args = 0
	ldr	ip, .L65
	push	{r4, r5, r6, lr}
	.save {r4, r5, r6, lr}
	mov	r5, r1
	.pad #40
	sub	sp, sp, #40
	mov	lr, r0
	ldr	r4, .L65+4
	ldm	r2, {r0, r1}
.LPIC6:
	add	ip, pc, ip
	mov	r6, r3
	add	r3, sp, #4
	ldr	r4, [ip, r4]
	stm	r3, {r0, r1}
	ldm	lr, {r0, r1, r2, r3}
	add	ip, sp, #20
	add	lr, r4, #8
	str	lr, [sp]
	stm	ip, {r0, r1, r2, r3}
	mov	r1, ip
	mov	r0, r6
	mov	r2, sp
	str	r5, [sp, #12]
	strh	r5, [sp, #36]	@ movhi
	bl	_ZN8opendnp312IAPDUHandler8OnHeaderERKNS_11CountHeaderERKNS_11ICollectionINS_12Group120Var4EEE(PLT)
	add	sp, sp, #40
	@ sp needed
	pop	{r4, r5, r6, pc}
.L66:
	.align	2
.L65:
	.word	_GLOBAL_OFFSET_TABLE_-(.LPIC6+8)
	.word	_ZTVN8opendnp318BufferedCollectionINS_12Group120Var4EZNS_11CountParser13InvokeCountOfIS1_EEvRKNS_12HeaderRecordEtRKN7openpal6RSliceERNS_12IAPDUHandlerEEUlRS8_jE_EE(GOT)
	.fnend
	.size	_ZN8opendnp311CountParser13InvokeCountOfINS_12Group120Var4EEEvRKNS_12HeaderRecordEtRKN7openpal6RSliceERNS_12IAPDUHandlerE, .-_ZN8opendnp311CountParser13InvokeCountOfINS_12Group120Var4EEEvRKNS_12HeaderRecordEtRKN7openpal6RSliceERNS_12IAPDUHandlerE
	.section	.text._ZNK8opendnp318BufferedCollectionINS_12Group120Var4EZNS_11CountParser13InvokeCountOfIS1_EEvRKNS_12HeaderRecordEtRKN7openpal6RSliceERNS_12IAPDUHandlerEEUlRS8_jE_E7ForeachERNS_8IVisitorIS1_EE,"axG",%progbits,_ZNK8opendnp318BufferedCollectionINS_12Group120Var4EZNS_11CountParser13InvokeCountOfIS1_EEvRKNS_12HeaderRecordEtRKN7openpal6RSliceERNS_12IAPDUHandlerEEUlRS8_jE_E7ForeachERNS_8IVisitorIS1_EE,comdat
	.align	2
	.weak	_ZNK8opendnp318BufferedCollectionINS_12Group120Var4EZNS_11CountParser13InvokeCountOfIS1_EEvRKNS_12HeaderRecordEtRKN7openpal6RSliceERNS_12IAPDUHandlerEEUlRS8_jE_E7ForeachERNS_8IVisitorIS1_EE
	.syntax unified
	.arm
	.fpu vfp
	.type	_ZNK8opendnp318BufferedCollectionINS_12Group120Var4EZNS_11CountParser13InvokeCountOfIS1_EEvRKNS_12HeaderRecordEtRKN7openpal6RSliceERNS_12IAPDUHandlerEEUlRS8_jE_E7ForeachERNS_8IVisitorIS1_EE, %function
_ZNK8opendnp318BufferedCollectionINS_12Group120Var4EZNS_11CountParser13InvokeCountOfIS1_EEvRKNS_12HeaderRecordEtRKN7openpal6RSliceERNS_12IAPDUHandlerEEUlRS8_jE_E7ForeachERNS_8IVisitorIS1_EE:
	.fnstart
.LFB3041:
	@ args = 0, pretend = 0, frame = 24
	@ frame_needed = 0, uses_anonymous_args = 0
	push	{r4, r5, r6, r7, lr}
	.save {r4, r5, r6, r7, lr}
	mov	r7, r0
	.pad #28
	sub	sp, sp, #28
	ldr	r3, [r0, #12]
	mov	r5, r1
	ldmib	r0, {r0, r1}
	add	r2, sp, #16
	cmp	r3, #0
	str	r2, [sp, #4]
	stm	r2, {r0, r1}
	beq	.L67
	mov	r4, #0
	add	r3, sp, #12
	str	r3, [sp]
.L70:
	ldr	r3, [r5]
	ldr	r0, [sp]
	add	r4, r4, #1
	ldr	r6, [r3]
	bl	_ZN8opendnp312Group120Var4C1Ev(PLT)
	ldr	r1, [sp]
	ldr	r0, [sp, #4]
	bl	_ZN8opendnp312Group120Var44ReadERN7openpal6RSliceERS0_(PLT)
	ldr	r1, [sp]
	mov	r0, r5
	blx	r6
	ldr	r3, [r7, #12]
	cmp	r3, r4
	bhi	.L70
.L67:
	add	sp, sp, #28
	@ sp needed
	pop	{r4, r5, r6, r7, pc}
	.fnend
	.size	_ZNK8opendnp318BufferedCollectionINS_12Group120Var4EZNS_11CountParser13InvokeCountOfIS1_EEvRKNS_12HeaderRecordEtRKN7openpal6RSliceERNS_12IAPDUHandlerEEUlRS8_jE_E7ForeachERNS_8IVisitorIS1_EE, .-_ZNK8opendnp318BufferedCollectionINS_12Group120Var4EZNS_11CountParser13InvokeCountOfIS1_EEvRKNS_12HeaderRecordEtRKN7openpal6RSliceERNS_12IAPDUHandlerEEUlRS8_jE_E7ForeachERNS_8IVisitorIS1_EE
	.text
	.align	2
	.global	_ZN8opendnp311CountParserC2EtjPFvRKNS_12HeaderRecordEtRKN7openpal6RSliceERNS_12IAPDUHandlerEE
	.syntax unified
	.arm
	.fpu vfp
	.type	_ZN8opendnp311CountParserC2EtjPFvRKNS_12HeaderRecordEtRKN7openpal6RSliceERNS_12IAPDUHandlerEE, %function
_ZN8opendnp311CountParserC2EtjPFvRKNS_12HeaderRecordEtRKN7openpal6RSliceERNS_12IAPDUHandlerEE:
	.fnstart
.LFB2282:
	@ args = 0, pretend = 0, frame = 0
	@ frame_needed = 0, uses_anonymous_args = 0
	@ link register save eliminated.
	strh	r1, [r0]	@ movhi
	stmib	r0, {r2, r3}
	bx	lr
	.cantunwind
	.fnend
	.size	_ZN8opendnp311CountParserC2EtjPFvRKNS_12HeaderRecordEtRKN7openpal6RSliceERNS_12IAPDUHandlerEE, .-_ZN8opendnp311CountParserC2EtjPFvRKNS_12HeaderRecordEtRKN7openpal6RSliceERNS_12IAPDUHandlerEE
	.global	_ZN8opendnp311CountParserC1EtjPFvRKNS_12HeaderRecordEtRKN7openpal6RSliceERNS_12IAPDUHandlerEE
	.set	_ZN8opendnp311CountParserC1EtjPFvRKNS_12HeaderRecordEtRKN7openpal6RSliceERNS_12IAPDUHandlerEE,_ZN8opendnp311CountParserC2EtjPFvRKNS_12HeaderRecordEtRKN7openpal6RSliceERNS_12IAPDUHandlerEE
	.align	2
	.global	_ZNK8opendnp311CountParser7ProcessERKNS_12HeaderRecordERN7openpal6RSliceEPNS_12IAPDUHandlerEPNS4_6LoggerE
	.syntax unified
	.arm
	.fpu vfp
	.type	_ZNK8opendnp311CountParser7ProcessERKNS_12HeaderRecordERN7openpal6RSliceEPNS_12IAPDUHandlerEPNS4_6LoggerE, %function
_ZNK8opendnp311CountParser7ProcessERKNS_12HeaderRecordERN7openpal6RSliceEPNS_12IAPDUHandlerEPNS4_6LoggerE:
	.fnstart
.LFB2284:
	@ args = 4, pretend = 0, frame = 8
	@ frame_needed = 0, uses_anonymous_args = 0
	push	{r4, r5, r6, lr}
	.save {r4, r5, r6, lr}
	.pad #8
	sub	sp, sp, #8
	ldr	ip, [r0, #4]
	ldr	lr, [r2]
	cmp	lr, ip
	bcs	.L74
	ldr	r3, [sp, #24]
	cmp	r3, #0
	beq	.L78
	add	r1, sp, #8
	mov	r4, #4
	mov	r0, r3
	str	r4, [r1, #-8]!
	bl	_ZNK7openpal6Logger9IsEnabledERKNS_10LogFiltersE(PLT)
	cmp	r0, #0
	beq	.L78
	add	r1, sp, #8
	ldr	r3, .L85
	ldr	r2, .L85+4
	ldr	r0, [sp, #24]
.LPIC7:
	add	r3, pc, r3
	str	r4, [r1, #-4]!
.LPIC8:
	add	r2, pc, r2
	bl	_ZN7openpal6Logger3LogERKNS_10LogFiltersEPKcS5_(PLT)
	mov	r0, r4
	add	sp, sp, #8
	@ sp needed
	pop	{r4, r5, r6, pc}
.L74:
	cmp	r3, #0
	mov	r5, r2
	beq	.L79
	mov	r4, r0
	mov	r0, r1
	ldr	r6, [r4, #8]
	ldrh	r1, [r4]
	blx	r6
	ldr	ip, [r4, #4]
.L79:
	mov	r0, r5
	mov	r1, ip
	bl	_ZN7openpal6RSlice7AdvanceEj(PLT)
	mov	r0, #0
	add	sp, sp, #8
	@ sp needed
	pop	{r4, r5, r6, pc}
.L78:
	mov	r0, #4
	add	sp, sp, #8
	@ sp needed
	pop	{r4, r5, r6, pc}
.L86:
	.align	2
.L85:
	.word	.LC0-(.LPIC7+8)
	.word	.LC1-(.LPIC8+8)
	.fnend
	.size	_ZNK8opendnp311CountParser7ProcessERKNS_12HeaderRecordERN7openpal6RSliceEPNS_12IAPDUHandlerEPNS4_6LoggerE, .-_ZNK8opendnp311CountParser7ProcessERKNS_12HeaderRecordERN7openpal6RSliceEPNS_12IAPDUHandlerEPNS4_6LoggerE
	.align	2
	.global	_ZN8opendnp311CountParser19ParseCountOfObjectsERN7openpal6RSliceERKNS_12HeaderRecordEtPNS1_6LoggerEPNS_12IAPDUHandlerE
	.syntax unified
	.arm
	.fpu vfp
	.type	_ZN8opendnp311CountParser19ParseCountOfObjectsERN7openpal6RSliceERKNS_12HeaderRecordEtPNS1_6LoggerEPNS_12IAPDUHandlerE, %function
_ZN8opendnp311CountParser19ParseCountOfObjectsERN7openpal6RSliceERKNS_12HeaderRecordEtPNS1_6LoggerEPNS_12IAPDUHandlerE:
	.fnstart
.LFB2286:
	@ args = 4, pretend = 0, frame = 128
	@ frame_needed = 0, uses_anonymous_args = 0
	ldrh	ip, [r1]
	push	{r4, r5, r6, r7, lr}
	.save {r4, r5, r6, r7, lr}
	mov	r5, r3
	ldr	lr, .L111
	ldr	r3, .L111+4
	cmp	ip, lr
	.pad #140
	sub	sp, sp, #140
	mov	r4, r1
	mov	r6, r0
	mov	r1, r2
.LPIC9:
	add	r3, pc, r3
	beq	.L89
	bls	.L109
	ldr	r2, .L111+8
	cmp	ip, r2
	beq	.L94
	add	r2, r2, #1
	cmp	ip, r2
	beq	.L95
	ldr	r2, .L111+12
	cmp	ip, r2
	beq	.L110
.L88:
	cmp	r5, #0
	beq	.L104
	add	r1, sp, #136
	mov	r6, #4
	str	r6, [r1, #-128]!
	mov	r0, r5
	bl	_ZNK7openpal6Logger9IsEnabledERKNS_10LogFiltersE(PLT)
	cmp	r0, #0
	beq	.L104
	mov	r0, r4
	bl	_ZNK8opendnp312HeaderRecord16GetQualifierCodeEv(PLT)
	bl	_ZN8opendnp321QualifierCodeToStringENS_13QualifierCodeE(PLT)
	ldrb	r2, [r4, #9]	@ zero_extendqisi2
	ldrb	r3, [r4, #8]	@ zero_extendqisi2
	add	r4, sp, #16
	str	r2, [sp, #4]
	ldr	r2, .L111+16
	str	r3, [sp]
.LPIC10:
	add	r2, pc, r2
	mov	r1, #120
	mov	r3, r0
	mov	r0, r4
	bl	snprintf(PLT)
	add	r1, sp, #136
	ldr	r2, .L111+20
	mov	r3, r4
	mov	r0, r5
	str	r6, [r1, #-124]!
.LPIC11:
	add	r2, pc, r2
	bl	_ZN7openpal6Logger3LogERKNS_10LogFiltersEPKcS5_(PLT)
.L104:
	mov	r0, #8
	add	sp, sp, #140
	@ sp needed
	pop	{r4, r5, r6, r7, pc}
.L109:
	ldr	r2, .L111+24
	cmp	ip, r2
	beq	.L91
	add	r2, r2, #1
	cmp	ip, r2
	beq	.L92
	ldr	r2, .L111+28
	cmp	ip, r2
	bne	.L88
	ldr	r0, .L111+32
.L106:
	add	r2, r1, r1, lsl #1
	add	r7, sp, #16
	ldr	r3, [r3, r0]
	lsl	r2, r2, #1
	mov	r0, r7
.L103:
	bl	_ZN8opendnp311CountParserC1EtjPFvRKNS_12HeaderRecordEtRKN7openpal6RSliceERNS_12IAPDUHandlerEE(PLT)
	mov	r0, r7
	str	r5, [sp]
	mov	r2, r6
	mov	r1, r4
	ldr	r3, [sp, #160]
	bl	_ZNK8opendnp311CountParser7ProcessERKNS_12HeaderRecordERN7openpal6RSliceEPNS_12IAPDUHandlerEPNS4_6LoggerE(PLT)
	add	sp, sp, #140
	@ sp needed
	pop	{r4, r5, r6, r7, pc}
.L92:
	ldr	r0, .L111+36
	b	.L106
.L95:
	ldr	r2, .L111+40
.L105:
	add	r7, sp, #16
	ldr	r3, [r3, r2]
	mov	r0, r7
	lsl	r2, r1, #1
	b	.L103
.L94:
	ldr	r0, .L111+44
	b	.L106
.L110:
	ldr	r2, .L111+48
	b	.L105
.L91:
	ldr	r0, .L111+52
	b	.L106
.L89:
	ldr	r2, .L111+56
	b	.L105
.L112:
	.align	2
.L111:
	.word	13313
	.word	_GLOBAL_OFFSET_TABLE_-(.LPIC9+8)
	.word	30723
	.word	13314
	.word	.LC2-(.LPIC10+8)
	.word	.LC3-(.LPIC11+8)
	.word	13057
	.word	12801
	.word	_ZN8opendnp311CountParser13InvokeCountOfINS_11Group50Var1EEEvRKNS_12HeaderRecordEtRKN7openpal6RSliceERNS_12IAPDUHandlerE(GOT)
	.word	_ZN8opendnp311CountParser13InvokeCountOfINS_11Group51Var2EEEvRKNS_12HeaderRecordEtRKN7openpal6RSliceERNS_12IAPDUHandlerE(GOT)
	.word	_ZN8opendnp311CountParser13InvokeCountOfINS_12Group120Var4EEEvRKNS_12HeaderRecordEtRKN7openpal6RSliceERNS_12IAPDUHandlerE(GOT)
	.word	_ZN8opendnp311CountParser13InvokeCountOfINS_12Group120Var3EEEvRKNS_12HeaderRecordEtRKN7openpal6RSliceERNS_12IAPDUHandlerE(GOT)
	.word	_ZN8opendnp311CountParser13InvokeCountOfINS_11Group52Var2EEEvRKNS_12HeaderRecordEtRKN7openpal6RSliceERNS_12IAPDUHandlerE(GOT)
	.word	_ZN8opendnp311CountParser13InvokeCountOfINS_11Group51Var1EEEvRKNS_12HeaderRecordEtRKN7openpal6RSliceERNS_12IAPDUHandlerE(GOT)
	.word	_ZN8opendnp311CountParser13InvokeCountOfINS_11Group52Var1EEEvRKNS_12HeaderRecordEtRKN7openpal6RSliceERNS_12IAPDUHandlerE(GOT)
	.fnend
	.size	_ZN8opendnp311CountParser19ParseCountOfObjectsERN7openpal6RSliceERKNS_12HeaderRecordEtPNS1_6LoggerEPNS_12IAPDUHandlerE, .-_ZN8opendnp311CountParser19ParseCountOfObjectsERN7openpal6RSliceERKNS_12HeaderRecordEtPNS1_6LoggerEPNS_12IAPDUHandlerE
	.align	2
	.global	_ZN8opendnp311CountParser11ParseHeaderERN7openpal6RSliceERKNS_9NumParserERKNS_14ParserSettingsERKNS_12HeaderRecordEPNS1_6LoggerEPNS_12IAPDUHandlerE
	.syntax unified
	.arm
	.fpu vfp
	.type	_ZN8opendnp311CountParser11ParseHeaderERN7openpal6RSliceERKNS_9NumParserERKNS_14ParserSettingsERKNS_12HeaderRecordEPNS1_6LoggerEPNS_12IAPDUHandlerE, %function
_ZN8opendnp311CountParser11ParseHeaderERN7openpal6RSliceERKNS_9NumParserERKNS_14ParserSettingsERKNS_12HeaderRecordEPNS1_6LoggerEPNS_12IAPDUHandlerE:
	.fnstart
.LFB2285:
	@ args = 8, pretend = 0, frame = 136
	@ frame_needed = 0, uses_anonymous_args = 0
	push	{r4, r5, r6, r7, r8, r9, r10, lr}
	.save {r4, r5, r6, r7, r8, r9, r10, lr}
	.pad #152
	sub	sp, sp, #152
	mov	r7, r0
	mov	r5, r2
	mov	r0, r1
	mov	r4, r3
	mov	r1, r7
	ldr	r3, [sp, #184]
	add	r2, sp, #22
	bl	_ZNK8opendnp39NumParser10ParseCountERN7openpal6RSliceERtPNS1_6LoggerE(PLT)
	subs	r6, r0, #0
	bne	.L120
	ldr	r3, [sp, #184]
	cmp	r3, #0
	beq	.L116
	mov	r0, r3
	add	r1, sp, #152
	ldr	r3, [r5, #4]
	str	r3, [r1, #-128]!
	bl	_ZNK7openpal6Logger9IsEnabledERKNS_10LogFiltersE(PLT)
	cmp	r0, #0
	beq	.L116
	ldrh	r0, [r4]
	ldrb	r8, [r4, #8]	@ zero_extendqisi2
	ldrb	r9, [r4, #9]	@ zero_extendqisi2
	bl	_ZN8opendnp322GroupVariationToStringENS_14GroupVariationE(PLT)
	mov	r10, r0
	mov	r0, r4
	bl	_ZNK8opendnp312HeaderRecord16GetQualifierCodeEv(PLT)
	bl	_ZN8opendnp321QualifierCodeToStringENS_13QualifierCodeE(PLT)
	ldrh	r2, [sp, #22]
	mov	r3, r8
	add	r8, sp, #32
	str	r2, [sp, #12]
	ldr	r2, .L126
	mov	r1, #120
.LPIC12:
	add	r2, pc, r2
	stm	sp, {r9, r10}
	str	r0, [sp, #8]
	mov	r0, r8
	bl	snprintf(PLT)
	ldr	r2, [r5, #4]
	add	r1, sp, #152
	mov	r3, r8
	str	r2, [r1, #-124]!
	ldr	r2, .L126+4
	ldr	r0, [sp, #184]
.LPIC13:
	add	r2, pc, r2
	bl	_ZN7openpal6Logger3LogERKNS_10LogFiltersEPKcS5_(PLT)
.L116:
	ldrb	r3, [r5]	@ zero_extendqisi2
	cmp	r3, #0
	bne	.L125
	ldr	r3, [sp, #188]
	cmp	r3, #0
	beq	.L120
	ldm	r4, {r0, r1, r2, r3}
	add	ip, sp, #32
	ldrh	lr, [sp, #22]
	stm	ip, {r0, r1, r2, r3}
	mov	r1, ip
	ldr	r0, [sp, #188]
	strh	lr, [sp, #48]	@ movhi
	bl	_ZN8opendnp312IAPDUHandler8OnHeaderERKNS_11CountHeaderE(PLT)
.L120:
	mov	r0, r6
	add	sp, sp, #152
	@ sp needed
	pop	{r4, r5, r6, r7, r8, r9, r10, pc}
.L125:
	ldr	r3, [sp, #188]
	ldrh	r2, [sp, #22]
	str	r3, [sp]
	mov	r1, r4
	mov	r0, r7
	ldr	r3, [sp, #184]
	bl	_ZN8opendnp311CountParser19ParseCountOfObjectsERN7openpal6RSliceERKNS_12HeaderRecordEtPNS1_6LoggerEPNS_12IAPDUHandlerE(PLT)
	mov	r6, r0
	mov	r0, r6
	add	sp, sp, #152
	@ sp needed
	pop	{r4, r5, r6, r7, r8, r9, r10, pc}
.L127:
	.align	2
.L126:
	.word	.LC4-(.LPIC12+8)
	.word	.LC5-(.LPIC13+8)
	.fnend
	.size	_ZN8opendnp311CountParser11ParseHeaderERN7openpal6RSliceERKNS_9NumParserERKNS_14ParserSettingsERKNS_12HeaderRecordEPNS1_6LoggerEPNS_12IAPDUHandlerE, .-_ZN8opendnp311CountParser11ParseHeaderERN7openpal6RSliceERKNS_9NumParserERKNS_14ParserSettingsERKNS_12HeaderRecordEPNS1_6LoggerEPNS_12IAPDUHandlerE
	.weak	_ZTSN8opendnp311ICollectionINS_11Group50Var1EEE
	.section	.rodata._ZTSN8opendnp311ICollectionINS_11Group50Var1EEE,"aG",%progbits,_ZTSN8opendnp311ICollectionINS_11Group50Var1EEE,comdat
	.align	2
	.type	_ZTSN8opendnp311ICollectionINS_11Group50Var1EEE, %object
	.size	_ZTSN8opendnp311ICollectionINS_11Group50Var1EEE, 44
_ZTSN8opendnp311ICollectionINS_11Group50Var1EEE:
	.ascii	"N8opendnp311ICollectionINS_11Group50Var1EEE\000"
	.weak	_ZTIN8opendnp311ICollectionINS_11Group50Var1EEE
	.section	.data.rel.ro._ZTIN8opendnp311ICollectionINS_11Group50Var1EEE,"awG",%progbits,_ZTIN8opendnp311ICollectionINS_11Group50Var1EEE,comdat
	.align	2
	.type	_ZTIN8opendnp311ICollectionINS_11Group50Var1EEE, %object
	.size	_ZTIN8opendnp311ICollectionINS_11Group50Var1EEE, 8
_ZTIN8opendnp311ICollectionINS_11Group50Var1EEE:
	.word	_ZTVN10__cxxabiv117__class_type_infoE+8
	.word	_ZTSN8opendnp311ICollectionINS_11Group50Var1EEE
	.weak	_ZTSN8opendnp318BufferedCollectionINS_11Group50Var1EZNS_11CountParser13InvokeCountOfIS1_EEvRKNS_12HeaderRecordEtRKN7openpal6RSliceERNS_12IAPDUHandlerEEUlRS8_jE_EE
	.section	.rodata._ZTSN8opendnp318BufferedCollectionINS_11Group50Var1EZNS_11CountParser13InvokeCountOfIS1_EEvRKNS_12HeaderRecordEtRKN7openpal6RSliceERNS_12IAPDUHandlerEEUlRS8_jE_EE,"aG",%progbits,_ZTSN8opendnp318BufferedCollectionINS_11Group50Var1EZNS_11CountParser13InvokeCountOfIS1_EEvRKNS_12HeaderRecordEtRKN7openpal6RSliceERNS_12IAPDUHandlerEEUlRS8_jE_EE,comdat
	.align	2
	.type	_ZTSN8opendnp318BufferedCollectionINS_11Group50Var1EZNS_11CountParser13InvokeCountOfIS1_EEvRKNS_12HeaderRecordEtRKN7openpal6RSliceERNS_12IAPDUHandlerEEUlRS8_jE_EE, %object
	.size	_ZTSN8opendnp318BufferedCollectionINS_11Group50Var1EZNS_11CountParser13InvokeCountOfIS1_EEvRKNS_12HeaderRecordEtRKN7openpal6RSliceERNS_12IAPDUHandlerEEUlRS8_jE_EE, 159
_ZTSN8opendnp318BufferedCollectionINS_11Group50Var1EZNS_11CountParser13InvokeCountOfIS1_EEvRKNS_12HeaderRecordEtRKN7openpal6RSliceERNS_12IAPDUHandlerEEUlRS8_jE_EE:
	.ascii	"N8opendnp318BufferedCollectionINS_11Group50Var1EZNS"
	.ascii	"_11CountParser13InvokeCountOfIS1_EEvRKNS_12HeaderRe"
	.ascii	"cordEtRKN7openpal6RSliceERNS_12IAPDUHandlerEEUlRS8_"
	.ascii	"jE_EE\000"
	.weak	_ZTIN8opendnp318BufferedCollectionINS_11Group50Var1EZNS_11CountParser13InvokeCountOfIS1_EEvRKNS_12HeaderRecordEtRKN7openpal6RSliceERNS_12IAPDUHandlerEEUlRS8_jE_EE
	.section	.data.rel.ro._ZTIN8opendnp318BufferedCollectionINS_11Group50Var1EZNS_11CountParser13InvokeCountOfIS1_EEvRKNS_12HeaderRecordEtRKN7openpal6RSliceERNS_12IAPDUHandlerEEUlRS8_jE_EE,"awG",%progbits,_ZTIN8opendnp318BufferedCollectionINS_11Group50Var1EZNS_11CountParser13InvokeCountOfIS1_EEvRKNS_12HeaderRecordEtRKN7openpal6RSliceERNS_12IAPDUHandlerEEUlRS8_jE_EE,comdat
	.align	2
	.type	_ZTIN8opendnp318BufferedCollectionINS_11Group50Var1EZNS_11CountParser13InvokeCountOfIS1_EEvRKNS_12HeaderRecordEtRKN7openpal6RSliceERNS_12IAPDUHandlerEEUlRS8_jE_EE, %object
	.size	_ZTIN8opendnp318BufferedCollectionINS_11Group50Var1EZNS_11CountParser13InvokeCountOfIS1_EEvRKNS_12HeaderRecordEtRKN7openpal6RSliceERNS_12IAPDUHandlerEEUlRS8_jE_EE, 12
_ZTIN8opendnp318BufferedCollectionINS_11Group50Var1EZNS_11CountParser13InvokeCountOfIS1_EEvRKNS_12HeaderRecordEtRKN7openpal6RSliceERNS_12IAPDUHandlerEEUlRS8_jE_EE:
	.word	_ZTVN10__cxxabiv120__si_class_type_infoE+8
	.word	_ZTSN8opendnp318BufferedCollectionINS_11Group50Var1EZNS_11CountParser13InvokeCountOfIS1_EEvRKNS_12HeaderRecordEtRKN7openpal6RSliceERNS_12IAPDUHandlerEEUlRS8_jE_EE
	.word	_ZTIN8opendnp311ICollectionINS_11Group50Var1EEE
	.weak	_ZTSN8opendnp311ICollectionINS_12Group120Var4EEE
	.section	.rodata._ZTSN8opendnp311ICollectionINS_12Group120Var4EEE,"aG",%progbits,_ZTSN8opendnp311ICollectionINS_12Group120Var4EEE,comdat
	.align	2
	.type	_ZTSN8opendnp311ICollectionINS_12Group120Var4EEE, %object
	.size	_ZTSN8opendnp311ICollectionINS_12Group120Var4EEE, 45
_ZTSN8opendnp311ICollectionINS_12Group120Var4EEE:
	.ascii	"N8opendnp311ICollectionINS_12Group120Var4EEE\000"
	.weak	_ZTIN8opendnp311ICollectionINS_12Group120Var4EEE
	.section	.data.rel.ro._ZTIN8opendnp311ICollectionINS_12Group120Var4EEE,"awG",%progbits,_ZTIN8opendnp311ICollectionINS_12Group120Var4EEE,comdat
	.align	2
	.type	_ZTIN8opendnp311ICollectionINS_12Group120Var4EEE, %object
	.size	_ZTIN8opendnp311ICollectionINS_12Group120Var4EEE, 8
_ZTIN8opendnp311ICollectionINS_12Group120Var4EEE:
	.word	_ZTVN10__cxxabiv117__class_type_infoE+8
	.word	_ZTSN8opendnp311ICollectionINS_12Group120Var4EEE
	.weak	_ZTSN8opendnp311ICollectionINS_12Group120Var3EEE
	.section	.rodata._ZTSN8opendnp311ICollectionINS_12Group120Var3EEE,"aG",%progbits,_ZTSN8opendnp311ICollectionINS_12Group120Var3EEE,comdat
	.align	2
	.type	_ZTSN8opendnp311ICollectionINS_12Group120Var3EEE, %object
	.size	_ZTSN8opendnp311ICollectionINS_12Group120Var3EEE, 45
_ZTSN8opendnp311ICollectionINS_12Group120Var3EEE:
	.ascii	"N8opendnp311ICollectionINS_12Group120Var3EEE\000"
	.weak	_ZTIN8opendnp311ICollectionINS_12Group120Var3EEE
	.section	.data.rel.ro._ZTIN8opendnp311ICollectionINS_12Group120Var3EEE,"awG",%progbits,_ZTIN8opendnp311ICollectionINS_12Group120Var3EEE,comdat
	.align	2
	.type	_ZTIN8opendnp311ICollectionINS_12Group120Var3EEE, %object
	.size	_ZTIN8opendnp311ICollectionINS_12Group120Var3EEE, 8
_ZTIN8opendnp311ICollectionINS_12Group120Var3EEE:
	.word	_ZTVN10__cxxabiv117__class_type_infoE+8
	.word	_ZTSN8opendnp311ICollectionINS_12Group120Var3EEE
	.weak	_ZTSN8opendnp311ICollectionINS_11Group52Var2EEE
	.section	.rodata._ZTSN8opendnp311ICollectionINS_11Group52Var2EEE,"aG",%progbits,_ZTSN8opendnp311ICollectionINS_11Group52Var2EEE,comdat
	.align	2
	.type	_ZTSN8opendnp311ICollectionINS_11Group52Var2EEE, %object
	.size	_ZTSN8opendnp311ICollectionINS_11Group52Var2EEE, 44
_ZTSN8opendnp311ICollectionINS_11Group52Var2EEE:
	.ascii	"N8opendnp311ICollectionINS_11Group52Var2EEE\000"
	.weak	_ZTIN8opendnp311ICollectionINS_11Group52Var2EEE
	.section	.data.rel.ro._ZTIN8opendnp311ICollectionINS_11Group52Var2EEE,"awG",%progbits,_ZTIN8opendnp311ICollectionINS_11Group52Var2EEE,comdat
	.align	2
	.type	_ZTIN8opendnp311ICollectionINS_11Group52Var2EEE, %object
	.size	_ZTIN8opendnp311ICollectionINS_11Group52Var2EEE, 8
_ZTIN8opendnp311ICollectionINS_11Group52Var2EEE:
	.word	_ZTVN10__cxxabiv117__class_type_infoE+8
	.word	_ZTSN8opendnp311ICollectionINS_11Group52Var2EEE
	.weak	_ZTSN8opendnp311ICollectionINS_11Group52Var1EEE
	.section	.rodata._ZTSN8opendnp311ICollectionINS_11Group52Var1EEE,"aG",%progbits,_ZTSN8opendnp311ICollectionINS_11Group52Var1EEE,comdat
	.align	2
	.type	_ZTSN8opendnp311ICollectionINS_11Group52Var1EEE, %object
	.size	_ZTSN8opendnp311ICollectionINS_11Group52Var1EEE, 44
_ZTSN8opendnp311ICollectionINS_11Group52Var1EEE:
	.ascii	"N8opendnp311ICollectionINS_11Group52Var1EEE\000"
	.weak	_ZTIN8opendnp311ICollectionINS_11Group52Var1EEE
	.section	.data.rel.ro._ZTIN8opendnp311ICollectionINS_11Group52Var1EEE,"awG",%progbits,_ZTIN8opendnp311ICollectionINS_11Group52Var1EEE,comdat
	.align	2
	.type	_ZTIN8opendnp311ICollectionINS_11Group52Var1EEE, %object
	.size	_ZTIN8opendnp311ICollectionINS_11Group52Var1EEE, 8
_ZTIN8opendnp311ICollectionINS_11Group52Var1EEE:
	.word	_ZTVN10__cxxabiv117__class_type_infoE+8
	.word	_ZTSN8opendnp311ICollectionINS_11Group52Var1EEE
	.weak	_ZTSN8opendnp311ICollectionINS_11Group51Var2EEE
	.section	.rodata._ZTSN8opendnp311ICollectionINS_11Group51Var2EEE,"aG",%progbits,_ZTSN8opendnp311ICollectionINS_11Group51Var2EEE,comdat
	.align	2
	.type	_ZTSN8opendnp311ICollectionINS_11Group51Var2EEE, %object
	.size	_ZTSN8opendnp311ICollectionINS_11Group51Var2EEE, 44
_ZTSN8opendnp311ICollectionINS_11Group51Var2EEE:
	.ascii	"N8opendnp311ICollectionINS_11Group51Var2EEE\000"
	.weak	_ZTIN8opendnp311ICollectionINS_11Group51Var2EEE
	.section	.data.rel.ro._ZTIN8opendnp311ICollectionINS_11Group51Var2EEE,"awG",%progbits,_ZTIN8opendnp311ICollectionINS_11Group51Var2EEE,comdat
	.align	2
	.type	_ZTIN8opendnp311ICollectionINS_11Group51Var2EEE, %object
	.size	_ZTIN8opendnp311ICollectionINS_11Group51Var2EEE, 8
_ZTIN8opendnp311ICollectionINS_11Group51Var2EEE:
	.word	_ZTVN10__cxxabiv117__class_type_infoE+8
	.word	_ZTSN8opendnp311ICollectionINS_11Group51Var2EEE
	.weak	_ZTSN8opendnp311ICollectionINS_11Group51Var1EEE
	.section	.rodata._ZTSN8opendnp311ICollectionINS_11Group51Var1EEE,"aG",%progbits,_ZTSN8opendnp311ICollectionINS_11Group51Var1EEE,comdat
	.align	2
	.type	_ZTSN8opendnp311ICollectionINS_11Group51Var1EEE, %object
	.size	_ZTSN8opendnp311ICollectionINS_11Group51Var1EEE, 44
_ZTSN8opendnp311ICollectionINS_11Group51Var1EEE:
	.ascii	"N8opendnp311ICollectionINS_11Group51Var1EEE\000"
	.weak	_ZTIN8opendnp311ICollectionINS_11Group51Var1EEE
	.section	.data.rel.ro._ZTIN8opendnp311ICollectionINS_11Group51Var1EEE,"awG",%progbits,_ZTIN8opendnp311ICollectionINS_11Group51Var1EEE,comdat
	.align	2
	.type	_ZTIN8opendnp311ICollectionINS_11Group51Var1EEE, %object
	.size	_ZTIN8opendnp311ICollectionINS_11Group51Var1EEE, 8
_ZTIN8opendnp311ICollectionINS_11Group51Var1EEE:
	.word	_ZTVN10__cxxabiv117__class_type_infoE+8
	.word	_ZTSN8opendnp311ICollectionINS_11Group51Var1EEE
	.weak	_ZTSN8opendnp318BufferedCollectionINS_11Group51Var1EZNS_11CountParser13InvokeCountOfIS1_EEvRKNS_12HeaderRecordEtRKN7openpal6RSliceERNS_12IAPDUHandlerEEUlRS8_jE_EE
	.section	.rodata._ZTSN8opendnp318BufferedCollectionINS_11Group51Var1EZNS_11CountParser13InvokeCountOfIS1_EEvRKNS_12HeaderRecordEtRKN7openpal6RSliceERNS_12IAPDUHandlerEEUlRS8_jE_EE,"aG",%progbits,_ZTSN8opendnp318BufferedCollectionINS_11Group51Var1EZNS_11CountParser13InvokeCountOfIS1_EEvRKNS_12HeaderRecordEtRKN7openpal6RSliceERNS_12IAPDUHandlerEEUlRS8_jE_EE,comdat
	.align	2
	.type	_ZTSN8opendnp318BufferedCollectionINS_11Group51Var1EZNS_11CountParser13InvokeCountOfIS1_EEvRKNS_12HeaderRecordEtRKN7openpal6RSliceERNS_12IAPDUHandlerEEUlRS8_jE_EE, %object
	.size	_ZTSN8opendnp318BufferedCollectionINS_11Group51Var1EZNS_11CountParser13InvokeCountOfIS1_EEvRKNS_12HeaderRecordEtRKN7openpal6RSliceERNS_12IAPDUHandlerEEUlRS8_jE_EE, 159
_ZTSN8opendnp318BufferedCollectionINS_11Group51Var1EZNS_11CountParser13InvokeCountOfIS1_EEvRKNS_12HeaderRecordEtRKN7openpal6RSliceERNS_12IAPDUHandlerEEUlRS8_jE_EE:
	.ascii	"N8opendnp318BufferedCollectionINS_11Group51Var1EZNS"
	.ascii	"_11CountParser13InvokeCountOfIS1_EEvRKNS_12HeaderRe"
	.ascii	"cordEtRKN7openpal6RSliceERNS_12IAPDUHandlerEEUlRS8_"
	.ascii	"jE_EE\000"
	.weak	_ZTIN8opendnp318BufferedCollectionINS_11Group51Var1EZNS_11CountParser13InvokeCountOfIS1_EEvRKNS_12HeaderRecordEtRKN7openpal6RSliceERNS_12IAPDUHandlerEEUlRS8_jE_EE
	.section	.data.rel.ro._ZTIN8opendnp318BufferedCollectionINS_11Group51Var1EZNS_11CountParser13InvokeCountOfIS1_EEvRKNS_12HeaderRecordEtRKN7openpal6RSliceERNS_12IAPDUHandlerEEUlRS8_jE_EE,"awG",%progbits,_ZTIN8opendnp318BufferedCollectionINS_11Group51Var1EZNS_11CountParser13InvokeCountOfIS1_EEvRKNS_12HeaderRecordEtRKN7openpal6RSliceERNS_12IAPDUHandlerEEUlRS8_jE_EE,comdat
	.align	2
	.type	_ZTIN8opendnp318BufferedCollectionINS_11Group51Var1EZNS_11CountParser13InvokeCountOfIS1_EEvRKNS_12HeaderRecordEtRKN7openpal6RSliceERNS_12IAPDUHandlerEEUlRS8_jE_EE, %object
	.size	_ZTIN8opendnp318BufferedCollectionINS_11Group51Var1EZNS_11CountParser13InvokeCountOfIS1_EEvRKNS_12HeaderRecordEtRKN7openpal6RSliceERNS_12IAPDUHandlerEEUlRS8_jE_EE, 12
_ZTIN8opendnp318BufferedCollectionINS_11Group51Var1EZNS_11CountParser13InvokeCountOfIS1_EEvRKNS_12HeaderRecordEtRKN7openpal6RSliceERNS_12IAPDUHandlerEEUlRS8_jE_EE:
	.word	_ZTVN10__cxxabiv120__si_class_type_infoE+8
	.word	_ZTSN8opendnp318BufferedCollectionINS_11Group51Var1EZNS_11CountParser13InvokeCountOfIS1_EEvRKNS_12HeaderRecordEtRKN7openpal6RSliceERNS_12IAPDUHandlerEEUlRS8_jE_EE
	.word	_ZTIN8opendnp311ICollectionINS_11Group51Var1EEE
	.weak	_ZTSN8opendnp318BufferedCollectionINS_11Group51Var2EZNS_11CountParser13InvokeCountOfIS1_EEvRKNS_12HeaderRecordEtRKN7openpal6RSliceERNS_12IAPDUHandlerEEUlRS8_jE_EE
	.section	.rodata._ZTSN8opendnp318BufferedCollectionINS_11Group51Var2EZNS_11CountParser13InvokeCountOfIS1_EEvRKNS_12HeaderRecordEtRKN7openpal6RSliceERNS_12IAPDUHandlerEEUlRS8_jE_EE,"aG",%progbits,_ZTSN8opendnp318BufferedCollectionINS_11Group51Var2EZNS_11CountParser13InvokeCountOfIS1_EEvRKNS_12HeaderRecordEtRKN7openpal6RSliceERNS_12IAPDUHandlerEEUlRS8_jE_EE,comdat
	.align	2
	.type	_ZTSN8opendnp318BufferedCollectionINS_11Group51Var2EZNS_11CountParser13InvokeCountOfIS1_EEvRKNS_12HeaderRecordEtRKN7openpal6RSliceERNS_12IAPDUHandlerEEUlRS8_jE_EE, %object
	.size	_ZTSN8opendnp318BufferedCollectionINS_11Group51Var2EZNS_11CountParser13InvokeCountOfIS1_EEvRKNS_12HeaderRecordEtRKN7openpal6RSliceERNS_12IAPDUHandlerEEUlRS8_jE_EE, 159
_ZTSN8opendnp318BufferedCollectionINS_11Group51Var2EZNS_11CountParser13InvokeCountOfIS1_EEvRKNS_12HeaderRecordEtRKN7openpal6RSliceERNS_12IAPDUHandlerEEUlRS8_jE_EE:
	.ascii	"N8opendnp318BufferedCollectionINS_11Group51Var2EZNS"
	.ascii	"_11CountParser13InvokeCountOfIS1_EEvRKNS_12HeaderRe"
	.ascii	"cordEtRKN7openpal6RSliceERNS_12IAPDUHandlerEEUlRS8_"
	.ascii	"jE_EE\000"
	.weak	_ZTIN8opendnp318BufferedCollectionINS_11Group51Var2EZNS_11CountParser13InvokeCountOfIS1_EEvRKNS_12HeaderRecordEtRKN7openpal6RSliceERNS_12IAPDUHandlerEEUlRS8_jE_EE
	.section	.data.rel.ro._ZTIN8opendnp318BufferedCollectionINS_11Group51Var2EZNS_11CountParser13InvokeCountOfIS1_EEvRKNS_12HeaderRecordEtRKN7openpal6RSliceERNS_12IAPDUHandlerEEUlRS8_jE_EE,"awG",%progbits,_ZTIN8opendnp318BufferedCollectionINS_11Group51Var2EZNS_11CountParser13InvokeCountOfIS1_EEvRKNS_12HeaderRecordEtRKN7openpal6RSliceERNS_12IAPDUHandlerEEUlRS8_jE_EE,comdat
	.align	2
	.type	_ZTIN8opendnp318BufferedCollectionINS_11Group51Var2EZNS_11CountParser13InvokeCountOfIS1_EEvRKNS_12HeaderRecordEtRKN7openpal6RSliceERNS_12IAPDUHandlerEEUlRS8_jE_EE, %object
	.size	_ZTIN8opendnp318BufferedCollectionINS_11Group51Var2EZNS_11CountParser13InvokeCountOfIS1_EEvRKNS_12HeaderRecordEtRKN7openpal6RSliceERNS_12IAPDUHandlerEEUlRS8_jE_EE, 12
_ZTIN8opendnp318BufferedCollectionINS_11Group51Var2EZNS_11CountParser13InvokeCountOfIS1_EEvRKNS_12HeaderRecordEtRKN7openpal6RSliceERNS_12IAPDUHandlerEEUlRS8_jE_EE:
	.word	_ZTVN10__cxxabiv120__si_class_type_infoE+8
	.word	_ZTSN8opendnp318BufferedCollectionINS_11Group51Var2EZNS_11CountParser13InvokeCountOfIS1_EEvRKNS_12HeaderRecordEtRKN7openpal6RSliceERNS_12IAPDUHandlerEEUlRS8_jE_EE
	.word	_ZTIN8opendnp311ICollectionINS_11Group51Var2EEE
	.weak	_ZTSN8opendnp318BufferedCollectionINS_11Group52Var1EZNS_11CountParser13InvokeCountOfIS1_EEvRKNS_12HeaderRecordEtRKN7openpal6RSliceERNS_12IAPDUHandlerEEUlRS8_jE_EE
	.section	.rodata._ZTSN8opendnp318BufferedCollectionINS_11Group52Var1EZNS_11CountParser13InvokeCountOfIS1_EEvRKNS_12HeaderRecordEtRKN7openpal6RSliceERNS_12IAPDUHandlerEEUlRS8_jE_EE,"aG",%progbits,_ZTSN8opendnp318BufferedCollectionINS_11Group52Var1EZNS_11CountParser13InvokeCountOfIS1_EEvRKNS_12HeaderRecordEtRKN7openpal6RSliceERNS_12IAPDUHandlerEEUlRS8_jE_EE,comdat
	.align	2
	.type	_ZTSN8opendnp318BufferedCollectionINS_11Group52Var1EZNS_11CountParser13InvokeCountOfIS1_EEvRKNS_12HeaderRecordEtRKN7openpal6RSliceERNS_12IAPDUHandlerEEUlRS8_jE_EE, %object
	.size	_ZTSN8opendnp318BufferedCollectionINS_11Group52Var1EZNS_11CountParser13InvokeCountOfIS1_EEvRKNS_12HeaderRecordEtRKN7openpal6RSliceERNS_12IAPDUHandlerEEUlRS8_jE_EE, 159
_ZTSN8opendnp318BufferedCollectionINS_11Group52Var1EZNS_11CountParser13InvokeCountOfIS1_EEvRKNS_12HeaderRecordEtRKN7openpal6RSliceERNS_12IAPDUHandlerEEUlRS8_jE_EE:
	.ascii	"N8opendnp318BufferedCollectionINS_11Group52Var1EZNS"
	.ascii	"_11CountParser13InvokeCountOfIS1_EEvRKNS_12HeaderRe"
	.ascii	"cordEtRKN7openpal6RSliceERNS_12IAPDUHandlerEEUlRS8_"
	.ascii	"jE_EE\000"
	.weak	_ZTIN8opendnp318BufferedCollectionINS_11Group52Var1EZNS_11CountParser13InvokeCountOfIS1_EEvRKNS_12HeaderRecordEtRKN7openpal6RSliceERNS_12IAPDUHandlerEEUlRS8_jE_EE
	.section	.data.rel.ro._ZTIN8opendnp318BufferedCollectionINS_11Group52Var1EZNS_11CountParser13InvokeCountOfIS1_EEvRKNS_12HeaderRecordEtRKN7openpal6RSliceERNS_12IAPDUHandlerEEUlRS8_jE_EE,"awG",%progbits,_ZTIN8opendnp318BufferedCollectionINS_11Group52Var1EZNS_11CountParser13InvokeCountOfIS1_EEvRKNS_12HeaderRecordEtRKN7openpal6RSliceERNS_12IAPDUHandlerEEUlRS8_jE_EE,comdat
	.align	2
	.type	_ZTIN8opendnp318BufferedCollectionINS_11Group52Var1EZNS_11CountParser13InvokeCountOfIS1_EEvRKNS_12HeaderRecordEtRKN7openpal6RSliceERNS_12IAPDUHandlerEEUlRS8_jE_EE, %object
	.size	_ZTIN8opendnp318BufferedCollectionINS_11Group52Var1EZNS_11CountParser13InvokeCountOfIS1_EEvRKNS_12HeaderRecordEtRKN7openpal6RSliceERNS_12IAPDUHandlerEEUlRS8_jE_EE, 12
_ZTIN8opendnp318BufferedCollectionINS_11Group52Var1EZNS_11CountParser13InvokeCountOfIS1_EEvRKNS_12HeaderRecordEtRKN7openpal6RSliceERNS_12IAPDUHandlerEEUlRS8_jE_EE:
	.word	_ZTVN10__cxxabiv120__si_class_type_infoE+8
	.word	_ZTSN8opendnp318BufferedCollectionINS_11Group52Var1EZNS_11CountParser13InvokeCountOfIS1_EEvRKNS_12HeaderRecordEtRKN7openpal6RSliceERNS_12IAPDUHandlerEEUlRS8_jE_EE
	.word	_ZTIN8opendnp311ICollectionINS_11Group52Var1EEE
	.weak	_ZTSN8opendnp318BufferedCollectionINS_11Group52Var2EZNS_11CountParser13InvokeCountOfIS1_EEvRKNS_12HeaderRecordEtRKN7openpal6RSliceERNS_12IAPDUHandlerEEUlRS8_jE_EE
	.section	.rodata._ZTSN8opendnp318BufferedCollectionINS_11Group52Var2EZNS_11CountParser13InvokeCountOfIS1_EEvRKNS_12HeaderRecordEtRKN7openpal6RSliceERNS_12IAPDUHandlerEEUlRS8_jE_EE,"aG",%progbits,_ZTSN8opendnp318BufferedCollectionINS_11Group52Var2EZNS_11CountParser13InvokeCountOfIS1_EEvRKNS_12HeaderRecordEtRKN7openpal6RSliceERNS_12IAPDUHandlerEEUlRS8_jE_EE,comdat
	.align	2
	.type	_ZTSN8opendnp318BufferedCollectionINS_11Group52Var2EZNS_11CountParser13InvokeCountOfIS1_EEvRKNS_12HeaderRecordEtRKN7openpal6RSliceERNS_12IAPDUHandlerEEUlRS8_jE_EE, %object
	.size	_ZTSN8opendnp318BufferedCollectionINS_11Group52Var2EZNS_11CountParser13InvokeCountOfIS1_EEvRKNS_12HeaderRecordEtRKN7openpal6RSliceERNS_12IAPDUHandlerEEUlRS8_jE_EE, 159
_ZTSN8opendnp318BufferedCollectionINS_11Group52Var2EZNS_11CountParser13InvokeCountOfIS1_EEvRKNS_12HeaderRecordEtRKN7openpal6RSliceERNS_12IAPDUHandlerEEUlRS8_jE_EE:
	.ascii	"N8opendnp318BufferedCollectionINS_11Group52Var2EZNS"
	.ascii	"_11CountParser13InvokeCountOfIS1_EEvRKNS_12HeaderRe"
	.ascii	"cordEtRKN7openpal6RSliceERNS_12IAPDUHandlerEEUlRS8_"
	.ascii	"jE_EE\000"
	.weak	_ZTIN8opendnp318BufferedCollectionINS_11Group52Var2EZNS_11CountParser13InvokeCountOfIS1_EEvRKNS_12HeaderRecordEtRKN7openpal6RSliceERNS_12IAPDUHandlerEEUlRS8_jE_EE
	.section	.data.rel.ro._ZTIN8opendnp318BufferedCollectionINS_11Group52Var2EZNS_11CountParser13InvokeCountOfIS1_EEvRKNS_12HeaderRecordEtRKN7openpal6RSliceERNS_12IAPDUHandlerEEUlRS8_jE_EE,"awG",%progbits,_ZTIN8opendnp318BufferedCollectionINS_11Group52Var2EZNS_11CountParser13InvokeCountOfIS1_EEvRKNS_12HeaderRecordEtRKN7openpal6RSliceERNS_12IAPDUHandlerEEUlRS8_jE_EE,comdat
	.align	2
	.type	_ZTIN8opendnp318BufferedCollectionINS_11Group52Var2EZNS_11CountParser13InvokeCountOfIS1_EEvRKNS_12HeaderRecordEtRKN7openpal6RSliceERNS_12IAPDUHandlerEEUlRS8_jE_EE, %object
	.size	_ZTIN8opendnp318BufferedCollectionINS_11Group52Var2EZNS_11CountParser13InvokeCountOfIS1_EEvRKNS_12HeaderRecordEtRKN7openpal6RSliceERNS_12IAPDUHandlerEEUlRS8_jE_EE, 12
_ZTIN8opendnp318BufferedCollectionINS_11Group52Var2EZNS_11CountParser13InvokeCountOfIS1_EEvRKNS_12HeaderRecordEtRKN7openpal6RSliceERNS_12IAPDUHandlerEEUlRS8_jE_EE:
	.word	_ZTVN10__cxxabiv120__si_class_type_infoE+8
	.word	_ZTSN8opendnp318BufferedCollectionINS_11Group52Var2EZNS_11CountParser13InvokeCountOfIS1_EEvRKNS_12HeaderRecordEtRKN7openpal6RSliceERNS_12IAPDUHandlerEEUlRS8_jE_EE
	.word	_ZTIN8opendnp311ICollectionINS_11Group52Var2EEE
	.weak	_ZTSN8opendnp318BufferedCollectionINS_12Group120Var3EZNS_11CountParser13InvokeCountOfIS1_EEvRKNS_12HeaderRecordEtRKN7openpal6RSliceERNS_12IAPDUHandlerEEUlRS8_jE_EE
	.section	.rodata._ZTSN8opendnp318BufferedCollectionINS_12Group120Var3EZNS_11CountParser13InvokeCountOfIS1_EEvRKNS_12HeaderRecordEtRKN7openpal6RSliceERNS_12IAPDUHandlerEEUlRS8_jE_EE,"aG",%progbits,_ZTSN8opendnp318BufferedCollectionINS_12Group120Var3EZNS_11CountParser13InvokeCountOfIS1_EEvRKNS_12HeaderRecordEtRKN7openpal6RSliceERNS_12IAPDUHandlerEEUlRS8_jE_EE,comdat
	.align	2
	.type	_ZTSN8opendnp318BufferedCollectionINS_12Group120Var3EZNS_11CountParser13InvokeCountOfIS1_EEvRKNS_12HeaderRecordEtRKN7openpal6RSliceERNS_12IAPDUHandlerEEUlRS8_jE_EE, %object
	.size	_ZTSN8opendnp318BufferedCollectionINS_12Group120Var3EZNS_11CountParser13InvokeCountOfIS1_EEvRKNS_12HeaderRecordEtRKN7openpal6RSliceERNS_12IAPDUHandlerEEUlRS8_jE_EE, 160
_ZTSN8opendnp318BufferedCollectionINS_12Group120Var3EZNS_11CountParser13InvokeCountOfIS1_EEvRKNS_12HeaderRecordEtRKN7openpal6RSliceERNS_12IAPDUHandlerEEUlRS8_jE_EE:
	.ascii	"N8opendnp318BufferedCollectionINS_12Group120Var3EZN"
	.ascii	"S_11CountParser13InvokeCountOfIS1_EEvRKNS_12HeaderR"
	.ascii	"ecordEtRKN7openpal6RSliceERNS_12IAPDUHandlerEEUlRS8"
	.ascii	"_jE_EE\000"
	.weak	_ZTIN8opendnp318BufferedCollectionINS_12Group120Var3EZNS_11CountParser13InvokeCountOfIS1_EEvRKNS_12HeaderRecordEtRKN7openpal6RSliceERNS_12IAPDUHandlerEEUlRS8_jE_EE
	.section	.data.rel.ro._ZTIN8opendnp318BufferedCollectionINS_12Group120Var3EZNS_11CountParser13InvokeCountOfIS1_EEvRKNS_12HeaderRecordEtRKN7openpal6RSliceERNS_12IAPDUHandlerEEUlRS8_jE_EE,"awG",%progbits,_ZTIN8opendnp318BufferedCollectionINS_12Group120Var3EZNS_11CountParser13InvokeCountOfIS1_EEvRKNS_12HeaderRecordEtRKN7openpal6RSliceERNS_12IAPDUHandlerEEUlRS8_jE_EE,comdat
	.align	2
	.type	_ZTIN8opendnp318BufferedCollectionINS_12Group120Var3EZNS_11CountParser13InvokeCountOfIS1_EEvRKNS_12HeaderRecordEtRKN7openpal6RSliceERNS_12IAPDUHandlerEEUlRS8_jE_EE, %object
	.size	_ZTIN8opendnp318BufferedCollectionINS_12Group120Var3EZNS_11CountParser13InvokeCountOfIS1_EEvRKNS_12HeaderRecordEtRKN7openpal6RSliceERNS_12IAPDUHandlerEEUlRS8_jE_EE, 12
_ZTIN8opendnp318BufferedCollectionINS_12Group120Var3EZNS_11CountParser13InvokeCountOfIS1_EEvRKNS_12HeaderRecordEtRKN7openpal6RSliceERNS_12IAPDUHandlerEEUlRS8_jE_EE:
	.word	_ZTVN10__cxxabiv120__si_class_type_infoE+8
	.word	_ZTSN8opendnp318BufferedCollectionINS_12Group120Var3EZNS_11CountParser13InvokeCountOfIS1_EEvRKNS_12HeaderRecordEtRKN7openpal6RSliceERNS_12IAPDUHandlerEEUlRS8_jE_EE
	.word	_ZTIN8opendnp311ICollectionINS_12Group120Var3EEE
	.weak	_ZTSN8opendnp318BufferedCollectionINS_12Group120Var4EZNS_11CountParser13InvokeCountOfIS1_EEvRKNS_12HeaderRecordEtRKN7openpal6RSliceERNS_12IAPDUHandlerEEUlRS8_jE_EE
	.section	.rodata._ZTSN8opendnp318BufferedCollectionINS_12Group120Var4EZNS_11CountParser13InvokeCountOfIS1_EEvRKNS_12HeaderRecordEtRKN7openpal6RSliceERNS_12IAPDUHandlerEEUlRS8_jE_EE,"aG",%progbits,_ZTSN8opendnp318BufferedCollectionINS_12Group120Var4EZNS_11CountParser13InvokeCountOfIS1_EEvRKNS_12HeaderRecordEtRKN7openpal6RSliceERNS_12IAPDUHandlerEEUlRS8_jE_EE,comdat
	.align	2
	.type	_ZTSN8opendnp318BufferedCollectionINS_12Group120Var4EZNS_11CountParser13InvokeCountOfIS1_EEvRKNS_12HeaderRecordEtRKN7openpal6RSliceERNS_12IAPDUHandlerEEUlRS8_jE_EE, %object
	.size	_ZTSN8opendnp318BufferedCollectionINS_12Group120Var4EZNS_11CountParser13InvokeCountOfIS1_EEvRKNS_12HeaderRecordEtRKN7openpal6RSliceERNS_12IAPDUHandlerEEUlRS8_jE_EE, 160
_ZTSN8opendnp318BufferedCollectionINS_12Group120Var4EZNS_11CountParser13InvokeCountOfIS1_EEvRKNS_12HeaderRecordEtRKN7openpal6RSliceERNS_12IAPDUHandlerEEUlRS8_jE_EE:
	.ascii	"N8opendnp318BufferedCollectionINS_12Group120Var4EZN"
	.ascii	"S_11CountParser13InvokeCountOfIS1_EEvRKNS_12HeaderR"
	.ascii	"ecordEtRKN7openpal6RSliceERNS_12IAPDUHandlerEEUlRS8"
	.ascii	"_jE_EE\000"
	.weak	_ZTIN8opendnp318BufferedCollectionINS_12Group120Var4EZNS_11CountParser13InvokeCountOfIS1_EEvRKNS_12HeaderRecordEtRKN7openpal6RSliceERNS_12IAPDUHandlerEEUlRS8_jE_EE
	.section	.data.rel.ro._ZTIN8opendnp318BufferedCollectionINS_12Group120Var4EZNS_11CountParser13InvokeCountOfIS1_EEvRKNS_12HeaderRecordEtRKN7openpal6RSliceERNS_12IAPDUHandlerEEUlRS8_jE_EE,"awG",%progbits,_ZTIN8opendnp318BufferedCollectionINS_12Group120Var4EZNS_11CountParser13InvokeCountOfIS1_EEvRKNS_12HeaderRecordEtRKN7openpal6RSliceERNS_12IAPDUHandlerEEUlRS8_jE_EE,comdat
	.align	2
	.type	_ZTIN8opendnp318BufferedCollectionINS_12Group120Var4EZNS_11CountParser13InvokeCountOfIS1_EEvRKNS_12HeaderRecordEtRKN7openpal6RSliceERNS_12IAPDUHandlerEEUlRS8_jE_EE, %object
	.size	_ZTIN8opendnp318BufferedCollectionINS_12Group120Var4EZNS_11CountParser13InvokeCountOfIS1_EEvRKNS_12HeaderRecordEtRKN7openpal6RSliceERNS_12IAPDUHandlerEEUlRS8_jE_EE, 12
_ZTIN8opendnp318BufferedCollectionINS_12Group120Var4EZNS_11CountParser13InvokeCountOfIS1_EEvRKNS_12HeaderRecordEtRKN7openpal6RSliceERNS_12IAPDUHandlerEEUlRS8_jE_EE:
	.word	_ZTVN10__cxxabiv120__si_class_type_infoE+8
	.word	_ZTSN8opendnp318BufferedCollectionINS_12Group120Var4EZNS_11CountParser13InvokeCountOfIS1_EEvRKNS_12HeaderRecordEtRKN7openpal6RSliceERNS_12IAPDUHandlerEEUlRS8_jE_EE
	.word	_ZTIN8opendnp311ICollectionINS_12Group120Var4EEE
	.weak	_ZTVN8opendnp318BufferedCollectionINS_11Group50Var1EZNS_11CountParser13InvokeCountOfIS1_EEvRKNS_12HeaderRecordEtRKN7openpal6RSliceERNS_12IAPDUHandlerEEUlRS8_jE_EE
	.section	.data.rel.ro._ZTVN8opendnp318BufferedCollectionINS_11Group50Var1EZNS_11CountParser13InvokeCountOfIS1_EEvRKNS_12HeaderRecordEtRKN7openpal6RSliceERNS_12IAPDUHandlerEEUlRS8_jE_EE,"awG",%progbits,_ZTVN8opendnp318BufferedCollectionINS_11Group50Var1EZNS_11CountParser13InvokeCountOfIS1_EEvRKNS_12HeaderRecordEtRKN7openpal6RSliceERNS_12IAPDUHandlerEEUlRS8_jE_EE,comdat
	.align	2
	.type	_ZTVN8opendnp318BufferedCollectionINS_11Group50Var1EZNS_11CountParser13InvokeCountOfIS1_EEvRKNS_12HeaderRecordEtRKN7openpal6RSliceERNS_12IAPDUHandlerEEUlRS8_jE_EE, %object
	.size	_ZTVN8opendnp318BufferedCollectionINS_11Group50Var1EZNS_11CountParser13InvokeCountOfIS1_EEvRKNS_12HeaderRecordEtRKN7openpal6RSliceERNS_12IAPDUHandlerEEUlRS8_jE_EE, 16
_ZTVN8opendnp318BufferedCollectionINS_11Group50Var1EZNS_11CountParser13InvokeCountOfIS1_EEvRKNS_12HeaderRecordEtRKN7openpal6RSliceERNS_12IAPDUHandlerEEUlRS8_jE_EE:
	.word	0
	.word	_ZTIN8opendnp318BufferedCollectionINS_11Group50Var1EZNS_11CountParser13InvokeCountOfIS1_EEvRKNS_12HeaderRecordEtRKN7openpal6RSliceERNS_12IAPDUHandlerEEUlRS8_jE_EE
	.word	_ZNK8opendnp318BufferedCollectionINS_11Group50Var1EZNS_11CountParser13InvokeCountOfIS1_EEvRKNS_12HeaderRecordEtRKN7openpal6RSliceERNS_12IAPDUHandlerEEUlRS8_jE_E5CountEv
	.word	_ZNK8opendnp318BufferedCollectionINS_11Group50Var1EZNS_11CountParser13InvokeCountOfIS1_EEvRKNS_12HeaderRecordEtRKN7openpal6RSliceERNS_12IAPDUHandlerEEUlRS8_jE_E7ForeachERNS_8IVisitorIS1_EE
	.weak	_ZTVN8opendnp318BufferedCollectionINS_11Group51Var1EZNS_11CountParser13InvokeCountOfIS1_EEvRKNS_12HeaderRecordEtRKN7openpal6RSliceERNS_12IAPDUHandlerEEUlRS8_jE_EE
	.section	.data.rel.ro._ZTVN8opendnp318BufferedCollectionINS_11Group51Var1EZNS_11CountParser13InvokeCountOfIS1_EEvRKNS_12HeaderRecordEtRKN7openpal6RSliceERNS_12IAPDUHandlerEEUlRS8_jE_EE,"awG",%progbits,_ZTVN8opendnp318BufferedCollectionINS_11Group51Var1EZNS_11CountParser13InvokeCountOfIS1_EEvRKNS_12HeaderRecordEtRKN7openpal6RSliceERNS_12IAPDUHandlerEEUlRS8_jE_EE,comdat
	.align	2
	.type	_ZTVN8opendnp318BufferedCollectionINS_11Group51Var1EZNS_11CountParser13InvokeCountOfIS1_EEvRKNS_12HeaderRecordEtRKN7openpal6RSliceERNS_12IAPDUHandlerEEUlRS8_jE_EE, %object
	.size	_ZTVN8opendnp318BufferedCollectionINS_11Group51Var1EZNS_11CountParser13InvokeCountOfIS1_EEvRKNS_12HeaderRecordEtRKN7openpal6RSliceERNS_12IAPDUHandlerEEUlRS8_jE_EE, 16
_ZTVN8opendnp318BufferedCollectionINS_11Group51Var1EZNS_11CountParser13InvokeCountOfIS1_EEvRKNS_12HeaderRecordEtRKN7openpal6RSliceERNS_12IAPDUHandlerEEUlRS8_jE_EE:
	.word	0
	.word	_ZTIN8opendnp318BufferedCollectionINS_11Group51Var1EZNS_11CountParser13InvokeCountOfIS1_EEvRKNS_12HeaderRecordEtRKN7openpal6RSliceERNS_12IAPDUHandlerEEUlRS8_jE_EE
	.word	_ZNK8opendnp318BufferedCollectionINS_11Group51Var1EZNS_11CountParser13InvokeCountOfIS1_EEvRKNS_12HeaderRecordEtRKN7openpal6RSliceERNS_12IAPDUHandlerEEUlRS8_jE_E5CountEv
	.word	_ZNK8opendnp318BufferedCollectionINS_11Group51Var1EZNS_11CountParser13InvokeCountOfIS1_EEvRKNS_12HeaderRecordEtRKN7openpal6RSliceERNS_12IAPDUHandlerEEUlRS8_jE_E7ForeachERNS_8IVisitorIS1_EE
	.weak	_ZTVN8opendnp318BufferedCollectionINS_11Group51Var2EZNS_11CountParser13InvokeCountOfIS1_EEvRKNS_12HeaderRecordEtRKN7openpal6RSliceERNS_12IAPDUHandlerEEUlRS8_jE_EE
	.section	.data.rel.ro._ZTVN8opendnp318BufferedCollectionINS_11Group51Var2EZNS_11CountParser13InvokeCountOfIS1_EEvRKNS_12HeaderRecordEtRKN7openpal6RSliceERNS_12IAPDUHandlerEEUlRS8_jE_EE,"awG",%progbits,_ZTVN8opendnp318BufferedCollectionINS_11Group51Var2EZNS_11CountParser13InvokeCountOfIS1_EEvRKNS_12HeaderRecordEtRKN7openpal6RSliceERNS_12IAPDUHandlerEEUlRS8_jE_EE,comdat
	.align	2
	.type	_ZTVN8opendnp318BufferedCollectionINS_11Group51Var2EZNS_11CountParser13InvokeCountOfIS1_EEvRKNS_12HeaderRecordEtRKN7openpal6RSliceERNS_12IAPDUHandlerEEUlRS8_jE_EE, %object
	.size	_ZTVN8opendnp318BufferedCollectionINS_11Group51Var2EZNS_11CountParser13InvokeCountOfIS1_EEvRKNS_12HeaderRecordEtRKN7openpal6RSliceERNS_12IAPDUHandlerEEUlRS8_jE_EE, 16
_ZTVN8opendnp318BufferedCollectionINS_11Group51Var2EZNS_11CountParser13InvokeCountOfIS1_EEvRKNS_12HeaderRecordEtRKN7openpal6RSliceERNS_12IAPDUHandlerEEUlRS8_jE_EE:
	.word	0
	.word	_ZTIN8opendnp318BufferedCollectionINS_11Group51Var2EZNS_11CountParser13InvokeCountOfIS1_EEvRKNS_12HeaderRecordEtRKN7openpal6RSliceERNS_12IAPDUHandlerEEUlRS8_jE_EE
	.word	_ZNK8opendnp318BufferedCollectionINS_11Group51Var2EZNS_11CountParser13InvokeCountOfIS1_EEvRKNS_12HeaderRecordEtRKN7openpal6RSliceERNS_12IAPDUHandlerEEUlRS8_jE_E5CountEv
	.word	_ZNK8opendnp318BufferedCollectionINS_11Group51Var2EZNS_11CountParser13InvokeCountOfIS1_EEvRKNS_12HeaderRecordEtRKN7openpal6RSliceERNS_12IAPDUHandlerEEUlRS8_jE_E7ForeachERNS_8IVisitorIS1_EE
	.weak	_ZTVN8opendnp318BufferedCollectionINS_11Group52Var1EZNS_11CountParser13InvokeCountOfIS1_EEvRKNS_12HeaderRecordEtRKN7openpal6RSliceERNS_12IAPDUHandlerEEUlRS8_jE_EE
	.section	.data.rel.ro._ZTVN8opendnp318BufferedCollectionINS_11Group52Var1EZNS_11CountParser13InvokeCountOfIS1_EEvRKNS_12HeaderRecordEtRKN7openpal6RSliceERNS_12IAPDUHandlerEEUlRS8_jE_EE,"awG",%progbits,_ZTVN8opendnp318BufferedCollectionINS_11Group52Var1EZNS_11CountParser13InvokeCountOfIS1_EEvRKNS_12HeaderRecordEtRKN7openpal6RSliceERNS_12IAPDUHandlerEEUlRS8_jE_EE,comdat
	.align	2
	.type	_ZTVN8opendnp318BufferedCollectionINS_11Group52Var1EZNS_11CountParser13InvokeCountOfIS1_EEvRKNS_12HeaderRecordEtRKN7openpal6RSliceERNS_12IAPDUHandlerEEUlRS8_jE_EE, %object
	.size	_ZTVN8opendnp318BufferedCollectionINS_11Group52Var1EZNS_11CountParser13InvokeCountOfIS1_EEvRKNS_12HeaderRecordEtRKN7openpal6RSliceERNS_12IAPDUHandlerEEUlRS8_jE_EE, 16
_ZTVN8opendnp318BufferedCollectionINS_11Group52Var1EZNS_11CountParser13InvokeCountOfIS1_EEvRKNS_12HeaderRecordEtRKN7openpal6RSliceERNS_12IAPDUHandlerEEUlRS8_jE_EE:
	.word	0
	.word	_ZTIN8opendnp318BufferedCollectionINS_11Group52Var1EZNS_11CountParser13InvokeCountOfIS1_EEvRKNS_12HeaderRecordEtRKN7openpal6RSliceERNS_12IAPDUHandlerEEUlRS8_jE_EE
	.word	_ZNK8opendnp318BufferedCollectionINS_11Group52Var1EZNS_11CountParser13InvokeCountOfIS1_EEvRKNS_12HeaderRecordEtRKN7openpal6RSliceERNS_12IAPDUHandlerEEUlRS8_jE_E5CountEv
	.word	_ZNK8opendnp318BufferedCollectionINS_11Group52Var1EZNS_11CountParser13InvokeCountOfIS1_EEvRKNS_12HeaderRecordEtRKN7openpal6RSliceERNS_12IAPDUHandlerEEUlRS8_jE_E7ForeachERNS_8IVisitorIS1_EE
	.weak	_ZTVN8opendnp318BufferedCollectionINS_11Group52Var2EZNS_11CountParser13InvokeCountOfIS1_EEvRKNS_12HeaderRecordEtRKN7openpal6RSliceERNS_12IAPDUHandlerEEUlRS8_jE_EE
	.section	.data.rel.ro._ZTVN8opendnp318BufferedCollectionINS_11Group52Var2EZNS_11CountParser13InvokeCountOfIS1_EEvRKNS_12HeaderRecordEtRKN7openpal6RSliceERNS_12IAPDUHandlerEEUlRS8_jE_EE,"awG",%progbits,_ZTVN8opendnp318BufferedCollectionINS_11Group52Var2EZNS_11CountParser13InvokeCountOfIS1_EEvRKNS_12HeaderRecordEtRKN7openpal6RSliceERNS_12IAPDUHandlerEEUlRS8_jE_EE,comdat
	.align	2
	.type	_ZTVN8opendnp318BufferedCollectionINS_11Group52Var2EZNS_11CountParser13InvokeCountOfIS1_EEvRKNS_12HeaderRecordEtRKN7openpal6RSliceERNS_12IAPDUHandlerEEUlRS8_jE_EE, %object
	.size	_ZTVN8opendnp318BufferedCollectionINS_11Group52Var2EZNS_11CountParser13InvokeCountOfIS1_EEvRKNS_12HeaderRecordEtRKN7openpal6RSliceERNS_12IAPDUHandlerEEUlRS8_jE_EE, 16
_ZTVN8opendnp318BufferedCollectionINS_11Group52Var2EZNS_11CountParser13InvokeCountOfIS1_EEvRKNS_12HeaderRecordEtRKN7openpal6RSliceERNS_12IAPDUHandlerEEUlRS8_jE_EE:
	.word	0
	.word	_ZTIN8opendnp318BufferedCollectionINS_11Group52Var2EZNS_11CountParser13InvokeCountOfIS1_EEvRKNS_12HeaderRecordEtRKN7openpal6RSliceERNS_12IAPDUHandlerEEUlRS8_jE_EE
	.word	_ZNK8opendnp318BufferedCollectionINS_11Group52Var2EZNS_11CountParser13InvokeCountOfIS1_EEvRKNS_12HeaderRecordEtRKN7openpal6RSliceERNS_12IAPDUHandlerEEUlRS8_jE_E5CountEv
	.word	_ZNK8opendnp318BufferedCollectionINS_11Group52Var2EZNS_11CountParser13InvokeCountOfIS1_EEvRKNS_12HeaderRecordEtRKN7openpal6RSliceERNS_12IAPDUHandlerEEUlRS8_jE_E7ForeachERNS_8IVisitorIS1_EE
	.weak	_ZTVN8opendnp318BufferedCollectionINS_12Group120Var3EZNS_11CountParser13InvokeCountOfIS1_EEvRKNS_12HeaderRecordEtRKN7openpal6RSliceERNS_12IAPDUHandlerEEUlRS8_jE_EE
	.section	.data.rel.ro._ZTVN8opendnp318BufferedCollectionINS_12Group120Var3EZNS_11CountParser13InvokeCountOfIS1_EEvRKNS_12HeaderRecordEtRKN7openpal6RSliceERNS_12IAPDUHandlerEEUlRS8_jE_EE,"awG",%progbits,_ZTVN8opendnp318BufferedCollectionINS_12Group120Var3EZNS_11CountParser13InvokeCountOfIS1_EEvRKNS_12HeaderRecordEtRKN7openpal6RSliceERNS_12IAPDUHandlerEEUlRS8_jE_EE,comdat
	.align	2
	.type	_ZTVN8opendnp318BufferedCollectionINS_12Group120Var3EZNS_11CountParser13InvokeCountOfIS1_EEvRKNS_12HeaderRecordEtRKN7openpal6RSliceERNS_12IAPDUHandlerEEUlRS8_jE_EE, %object
	.size	_ZTVN8opendnp318BufferedCollectionINS_12Group120Var3EZNS_11CountParser13InvokeCountOfIS1_EEvRKNS_12HeaderRecordEtRKN7openpal6RSliceERNS_12IAPDUHandlerEEUlRS8_jE_EE, 16
_ZTVN8opendnp318BufferedCollectionINS_12Group120Var3EZNS_11CountParser13InvokeCountOfIS1_EEvRKNS_12HeaderRecordEtRKN7openpal6RSliceERNS_12IAPDUHandlerEEUlRS8_jE_EE:
	.word	0
	.word	_ZTIN8opendnp318BufferedCollectionINS_12Group120Var3EZNS_11CountParser13InvokeCountOfIS1_EEvRKNS_12HeaderRecordEtRKN7openpal6RSliceERNS_12IAPDUHandlerEEUlRS8_jE_EE
	.word	_ZNK8opendnp318BufferedCollectionINS_12Group120Var3EZNS_11CountParser13InvokeCountOfIS1_EEvRKNS_12HeaderRecordEtRKN7openpal6RSliceERNS_12IAPDUHandlerEEUlRS8_jE_E5CountEv
	.word	_ZNK8opendnp318BufferedCollectionINS_12Group120Var3EZNS_11CountParser13InvokeCountOfIS1_EEvRKNS_12HeaderRecordEtRKN7openpal6RSliceERNS_12IAPDUHandlerEEUlRS8_jE_E7ForeachERNS_8IVisitorIS1_EE
	.weak	_ZTVN8opendnp318BufferedCollectionINS_12Group120Var4EZNS_11CountParser13InvokeCountOfIS1_EEvRKNS_12HeaderRecordEtRKN7openpal6RSliceERNS_12IAPDUHandlerEEUlRS8_jE_EE
	.section	.data.rel.ro._ZTVN8opendnp318BufferedCollectionINS_12Group120Var4EZNS_11CountParser13InvokeCountOfIS1_EEvRKNS_12HeaderRecordEtRKN7openpal6RSliceERNS_12IAPDUHandlerEEUlRS8_jE_EE,"awG",%progbits,_ZTVN8opendnp318BufferedCollectionINS_12Group120Var4EZNS_11CountParser13InvokeCountOfIS1_EEvRKNS_12HeaderRecordEtRKN7openpal6RSliceERNS_12IAPDUHandlerEEUlRS8_jE_EE,comdat
	.align	2
	.type	_ZTVN8opendnp318BufferedCollectionINS_12Group120Var4EZNS_11CountParser13InvokeCountOfIS1_EEvRKNS_12HeaderRecordEtRKN7openpal6RSliceERNS_12IAPDUHandlerEEUlRS8_jE_EE, %object
	.size	_ZTVN8opendnp318BufferedCollectionINS_12Group120Var4EZNS_11CountParser13InvokeCountOfIS1_EEvRKNS_12HeaderRecordEtRKN7openpal6RSliceERNS_12IAPDUHandlerEEUlRS8_jE_EE, 16
_ZTVN8opendnp318BufferedCollectionINS_12Group120Var4EZNS_11CountParser13InvokeCountOfIS1_EEvRKNS_12HeaderRecordEtRKN7openpal6RSliceERNS_12IAPDUHandlerEEUlRS8_jE_EE:
	.word	0
	.word	_ZTIN8opendnp318BufferedCollectionINS_12Group120Var4EZNS_11CountParser13InvokeCountOfIS1_EEvRKNS_12HeaderRecordEtRKN7openpal6RSliceERNS_12IAPDUHandlerEEUlRS8_jE_EE
	.word	_ZNK8opendnp318BufferedCollectionINS_12Group120Var4EZNS_11CountParser13InvokeCountOfIS1_EEvRKNS_12HeaderRecordEtRKN7openpal6RSliceERNS_12IAPDUHandlerEEUlRS8_jE_E5CountEv
	.word	_ZNK8opendnp318BufferedCollectionINS_12Group120Var4EZNS_11CountParser13InvokeCountOfIS1_EEvRKNS_12HeaderRecordEtRKN7openpal6RSliceERNS_12IAPDUHandlerEEUlRS8_jE_E7ForeachERNS_8IVisitorIS1_EE
	.section	.rodata.str1.4,"aMS",%progbits,1
	.align	2
.LC0:
	.ascii	"Not enough data for specified objects\000"
	.space	2
.LC1:
	.ascii	"/home/pi/OpenPLC_v3/utils/dnp3_src/cpp/libs/src/ope"
	.ascii	"ndnp3/app/parsing/CountParser.cpp(42)\000"
	.space	3
.LC2:
	.ascii	"Unsupported qualifier/object - %s - %i / %i\000"
.LC3:
	.ascii	"/home/pi/OpenPLC_v3/utils/dnp3_src/cpp/libs/src/ope"
	.ascii	"ndnp3/app/parsing/CountParser.cpp(119)\000"
	.space	2
.LC4:
	.ascii	"%03u,%03u %s, %s [%u]\000"
	.space	2
.LC5:
	.ascii	"/home/pi/OpenPLC_v3/utils/dnp3_src/cpp/libs/src/ope"
	.ascii	"ndnp3/app/parsing/CountParser.cpp(68)\000"
	.ident	"GCC: (Raspbian 6.3.0-18+rpi1+deb9u1) 6.3.0 20170516"
	.section	.note.GNU-stack,"",%progbits
