	.arch armv6
	.eabi_attribute 28, 1
	.eabi_attribute 20, 1
	.eabi_attribute 21, 1
	.eabi_attribute 23, 3
	.eabi_attribute 24, 1
	.eabi_attribute 25, 1
	.eabi_attribute 26, 2
	.eabi_attribute 30, 2
	.eabi_attribute 34, 1
	.eabi_attribute 18, 4
	.file	"CountIndexParser.cpp"
	.section	.text._ZN7openpal12StaticBufferILj255EED2Ev,"axG",%progbits,_ZN7openpal12StaticBufferILj255EED5Ev,comdat
	.align	2
	.weak	_ZN7openpal12StaticBufferILj255EED2Ev
	.syntax unified
	.arm
	.fpu vfp
	.type	_ZN7openpal12StaticBufferILj255EED2Ev, %function
_ZN7openpal12StaticBufferILj255EED2Ev:
	.fnstart
.LFB2697:
	@ args = 0, pretend = 0, frame = 0
	@ frame_needed = 0, uses_anonymous_args = 0
	@ link register save eliminated.
	bx	lr
	.cantunwind
	.fnend
	.size	_ZN7openpal12StaticBufferILj255EED2Ev, .-_ZN7openpal12StaticBufferILj255EED2Ev
	.weak	_ZN7openpal12StaticBufferILj255EED1Ev
	.set	_ZN7openpal12StaticBufferILj255EED1Ev,_ZN7openpal12StaticBufferILj255EED2Ev
	.section	.text._ZNK8opendnp318BufferedCollectionINS_7IndexedINS_12Group122Var2EEEZNS_16CountIndexParser17InvokeCountOfTypeIS2_EEvRKNS_12HeaderRecordEtRKNS_9NumParserERKN7openpal6RSliceERNS_12IAPDUHandlerEEUlRSD_jE_E5CountEv,"axG",%progbits,_ZNK8opendnp318BufferedCollectionINS_7IndexedINS_12Group122Var2EEEZNS_16CountIndexParser17InvokeCountOfTypeIS2_EEvRKNS_12HeaderRecordEtRKNS_9NumParserERKN7openpal6RSliceERNS_12IAPDUHandlerEEUlRSD_jE_E5CountEv,comdat
	.align	2
	.weak	_ZNK8opendnp318BufferedCollectionINS_7IndexedINS_12Group122Var2EEEZNS_16CountIndexParser17InvokeCountOfTypeIS2_EEvRKNS_12HeaderRecordEtRKNS_9NumParserERKN7openpal6RSliceERNS_12IAPDUHandlerEEUlRSD_jE_E5CountEv
	.syntax unified
	.arm
	.fpu vfp
	.type	_ZNK8opendnp318BufferedCollectionINS_7IndexedINS_12Group122Var2EEEZNS_16CountIndexParser17InvokeCountOfTypeIS2_EEvRKNS_12HeaderRecordEtRKNS_9NumParserERKN7openpal6RSliceERNS_12IAPDUHandlerEEUlRSD_jE_E5CountEv, %function
_ZNK8opendnp318BufferedCollectionINS_7IndexedINS_12Group122Var2EEEZNS_16CountIndexParser17InvokeCountOfTypeIS2_EEvRKNS_12HeaderRecordEtRKNS_9NumParserERKN7openpal6RSliceERNS_12IAPDUHandlerEEUlRSD_jE_E5CountEv:
	.fnstart
.LFB3832:
	@ args = 0, pretend = 0, frame = 0
	@ frame_needed = 0, uses_anonymous_args = 0
	@ link register save eliminated.
	ldr	r0, [r0, #12]
	bx	lr
	.cantunwind
	.fnend
	.size	_ZNK8opendnp318BufferedCollectionINS_7IndexedINS_12Group122Var2EEEZNS_16CountIndexParser17InvokeCountOfTypeIS2_EEvRKNS_12HeaderRecordEtRKNS_9NumParserERKN7openpal6RSliceERNS_12IAPDUHandlerEEUlRSD_jE_E5CountEv, .-_ZNK8opendnp318BufferedCollectionINS_7IndexedINS_12Group122Var2EEEZNS_16CountIndexParser17InvokeCountOfTypeIS2_EEvRKNS_12HeaderRecordEtRKNS_9NumParserERKN7openpal6RSliceERNS_12IAPDUHandlerEEUlRSD_jE_E5CountEv
	.section	.text._ZNK8opendnp318BufferedCollectionINS_7IndexedINS_12Group122Var1EEEZNS_16CountIndexParser17InvokeCountOfTypeIS2_EEvRKNS_12HeaderRecordEtRKNS_9NumParserERKN7openpal6RSliceERNS_12IAPDUHandlerEEUlRSD_jE_E5CountEv,"axG",%progbits,_ZNK8opendnp318BufferedCollectionINS_7IndexedINS_12Group122Var1EEEZNS_16CountIndexParser17InvokeCountOfTypeIS2_EEvRKNS_12HeaderRecordEtRKNS_9NumParserERKN7openpal6RSliceERNS_12IAPDUHandlerEEUlRSD_jE_E5CountEv,comdat
	.align	2
	.weak	_ZNK8opendnp318BufferedCollectionINS_7IndexedINS_12Group122Var1EEEZNS_16CountIndexParser17InvokeCountOfTypeIS2_EEvRKNS_12HeaderRecordEtRKNS_9NumParserERKN7openpal6RSliceERNS_12IAPDUHandlerEEUlRSD_jE_E5CountEv
	.syntax unified
	.arm
	.fpu vfp
	.type	_ZNK8opendnp318BufferedCollectionINS_7IndexedINS_12Group122Var1EEEZNS_16CountIndexParser17InvokeCountOfTypeIS2_EEvRKNS_12HeaderRecordEtRKNS_9NumParserERKN7openpal6RSliceERNS_12IAPDUHandlerEEUlRSD_jE_E5CountEv, %function
_ZNK8opendnp318BufferedCollectionINS_7IndexedINS_12Group122Var1EEEZNS_16CountIndexParser17InvokeCountOfTypeIS2_EEvRKNS_12HeaderRecordEtRKNS_9NumParserERKN7openpal6RSliceERNS_12IAPDUHandlerEEUlRSD_jE_E5CountEv:
	.fnstart
.LFB3834:
	@ args = 0, pretend = 0, frame = 0
	@ frame_needed = 0, uses_anonymous_args = 0
	@ link register save eliminated.
	ldr	r0, [r0, #12]
	bx	lr
	.cantunwind
	.fnend
	.size	_ZNK8opendnp318BufferedCollectionINS_7IndexedINS_12Group122Var1EEEZNS_16CountIndexParser17InvokeCountOfTypeIS2_EEvRKNS_12HeaderRecordEtRKNS_9NumParserERKN7openpal6RSliceERNS_12IAPDUHandlerEEUlRSD_jE_E5CountEv, .-_ZNK8opendnp318BufferedCollectionINS_7IndexedINS_12Group122Var1EEEZNS_16CountIndexParser17InvokeCountOfTypeIS2_EEvRKNS_12HeaderRecordEtRKNS_9NumParserERKN7openpal6RSliceERNS_12IAPDUHandlerEEUlRSD_jE_E5CountEv
	.section	.text._ZNK8opendnp318BufferedCollectionINS_7IndexedINS_15TimeAndIntervalEEEZNS_16CountIndexParser13InvokeCountOfINS_11Group50Var4EEEvRKNS_12HeaderRecordEtRKNS_9NumParserERKN7openpal6RSliceERNS_12IAPDUHandlerEEUlRSE_jE_E5CountEv,"axG",%progbits,_ZNK8opendnp318BufferedCollectionINS_7IndexedINS_15TimeAndIntervalEEEZNS_16CountIndexParser13InvokeCountOfINS_11Group50Var4EEEvRKNS_12HeaderRecordEtRKNS_9NumParserERKN7openpal6RSliceERNS_12IAPDUHandlerEEUlRSE_jE_E5CountEv,comdat
	.align	2
	.weak	_ZNK8opendnp318BufferedCollectionINS_7IndexedINS_15TimeAndIntervalEEEZNS_16CountIndexParser13InvokeCountOfINS_11Group50Var4EEEvRKNS_12HeaderRecordEtRKNS_9NumParserERKN7openpal6RSliceERNS_12IAPDUHandlerEEUlRSE_jE_E5CountEv
	.syntax unified
	.arm
	.fpu vfp
	.type	_ZNK8opendnp318BufferedCollectionINS_7IndexedINS_15TimeAndIntervalEEEZNS_16CountIndexParser13InvokeCountOfINS_11Group50Var4EEEvRKNS_12HeaderRecordEtRKNS_9NumParserERKN7openpal6RSliceERNS_12IAPDUHandlerEEUlRSE_jE_E5CountEv, %function
_ZNK8opendnp318BufferedCollectionINS_7IndexedINS_15TimeAndIntervalEEEZNS_16CountIndexParser13InvokeCountOfINS_11Group50Var4EEEvRKNS_12HeaderRecordEtRKNS_9NumParserERKN7openpal6RSliceERNS_12IAPDUHandlerEEUlRSE_jE_E5CountEv:
	.fnstart
.LFB3836:
	@ args = 0, pretend = 0, frame = 0
	@ frame_needed = 0, uses_anonymous_args = 0
	@ link register save eliminated.
	ldr	r0, [r0, #12]
	bx	lr
	.cantunwind
	.fnend
	.size	_ZNK8opendnp318BufferedCollectionINS_7IndexedINS_15TimeAndIntervalEEEZNS_16CountIndexParser13InvokeCountOfINS_11Group50Var4EEEvRKNS_12HeaderRecordEtRKNS_9NumParserERKN7openpal6RSliceERNS_12IAPDUHandlerEEUlRSE_jE_E5CountEv, .-_ZNK8opendnp318BufferedCollectionINS_7IndexedINS_15TimeAndIntervalEEEZNS_16CountIndexParser13InvokeCountOfINS_11Group50Var4EEEvRKNS_12HeaderRecordEtRKNS_9NumParserERKN7openpal6RSliceERNS_12IAPDUHandlerEEUlRSE_jE_E5CountEv
	.section	.text._ZNK8opendnp318BufferedCollectionINS_7IndexedINS_18AnalogCommandEventEEEZNS_16CountIndexParser13InvokeCountOfINS_11Group43Var8EEEvRKNS_12HeaderRecordEtRKNS_9NumParserERKN7openpal6RSliceERNS_12IAPDUHandlerEEUlRSE_jE_E5CountEv,"axG",%progbits,_ZNK8opendnp318BufferedCollectionINS_7IndexedINS_18AnalogCommandEventEEEZNS_16CountIndexParser13InvokeCountOfINS_11Group43Var8EEEvRKNS_12HeaderRecordEtRKNS_9NumParserERKN7openpal6RSliceERNS_12IAPDUHandlerEEUlRSE_jE_E5CountEv,comdat
	.align	2
	.weak	_ZNK8opendnp318BufferedCollectionINS_7IndexedINS_18AnalogCommandEventEEEZNS_16CountIndexParser13InvokeCountOfINS_11Group43Var8EEEvRKNS_12HeaderRecordEtRKNS_9NumParserERKN7openpal6RSliceERNS_12IAPDUHandlerEEUlRSE_jE_E5CountEv
	.syntax unified
	.arm
	.fpu vfp
	.type	_ZNK8opendnp318BufferedCollectionINS_7IndexedINS_18AnalogCommandEventEEEZNS_16CountIndexParser13InvokeCountOfINS_11Group43Var8EEEvRKNS_12HeaderRecordEtRKNS_9NumParserERKN7openpal6RSliceERNS_12IAPDUHandlerEEUlRSE_jE_E5CountEv, %function
_ZNK8opendnp318BufferedCollectionINS_7IndexedINS_18AnalogCommandEventEEEZNS_16CountIndexParser13InvokeCountOfINS_11Group43Var8EEEvRKNS_12HeaderRecordEtRKNS_9NumParserERKN7openpal6RSliceERNS_12IAPDUHandlerEEUlRSE_jE_E5CountEv:
	.fnstart
.LFB3838:
	@ args = 0, pretend = 0, frame = 0
	@ frame_needed = 0, uses_anonymous_args = 0
	@ link register save eliminated.
	ldr	r0, [r0, #12]
	bx	lr
	.cantunwind
	.fnend
	.size	_ZNK8opendnp318BufferedCollectionINS_7IndexedINS_18AnalogCommandEventEEEZNS_16CountIndexParser13InvokeCountOfINS_11Group43Var8EEEvRKNS_12HeaderRecordEtRKNS_9NumParserERKN7openpal6RSliceERNS_12IAPDUHandlerEEUlRSE_jE_E5CountEv, .-_ZNK8opendnp318BufferedCollectionINS_7IndexedINS_18AnalogCommandEventEEEZNS_16CountIndexParser13InvokeCountOfINS_11Group43Var8EEEvRKNS_12HeaderRecordEtRKNS_9NumParserERKN7openpal6RSliceERNS_12IAPDUHandlerEEUlRSE_jE_E5CountEv
	.section	.text._ZNK8opendnp318BufferedCollectionINS_7IndexedINS_18AnalogCommandEventEEEZNS_16CountIndexParser13InvokeCountOfINS_11Group43Var7EEEvRKNS_12HeaderRecordEtRKNS_9NumParserERKN7openpal6RSliceERNS_12IAPDUHandlerEEUlRSE_jE_E5CountEv,"axG",%progbits,_ZNK8opendnp318BufferedCollectionINS_7IndexedINS_18AnalogCommandEventEEEZNS_16CountIndexParser13InvokeCountOfINS_11Group43Var7EEEvRKNS_12HeaderRecordEtRKNS_9NumParserERKN7openpal6RSliceERNS_12IAPDUHandlerEEUlRSE_jE_E5CountEv,comdat
	.align	2
	.weak	_ZNK8opendnp318BufferedCollectionINS_7IndexedINS_18AnalogCommandEventEEEZNS_16CountIndexParser13InvokeCountOfINS_11Group43Var7EEEvRKNS_12HeaderRecordEtRKNS_9NumParserERKN7openpal6RSliceERNS_12IAPDUHandlerEEUlRSE_jE_E5CountEv
	.syntax unified
	.arm
	.fpu vfp
	.type	_ZNK8opendnp318BufferedCollectionINS_7IndexedINS_18AnalogCommandEventEEEZNS_16CountIndexParser13InvokeCountOfINS_11Group43Var7EEEvRKNS_12HeaderRecordEtRKNS_9NumParserERKN7openpal6RSliceERNS_12IAPDUHandlerEEUlRSE_jE_E5CountEv, %function
_ZNK8opendnp318BufferedCollectionINS_7IndexedINS_18AnalogCommandEventEEEZNS_16CountIndexParser13InvokeCountOfINS_11Group43Var7EEEvRKNS_12HeaderRecordEtRKNS_9NumParserERKN7openpal6RSliceERNS_12IAPDUHandlerEEUlRSE_jE_E5CountEv:
	.fnstart
.LFB3840:
	@ args = 0, pretend = 0, frame = 0
	@ frame_needed = 0, uses_anonymous_args = 0
	@ link register save eliminated.
	ldr	r0, [r0, #12]
	bx	lr
	.cantunwind
	.fnend
	.size	_ZNK8opendnp318BufferedCollectionINS_7IndexedINS_18AnalogCommandEventEEEZNS_16CountIndexParser13InvokeCountOfINS_11Group43Var7EEEvRKNS_12HeaderRecordEtRKNS_9NumParserERKN7openpal6RSliceERNS_12IAPDUHandlerEEUlRSE_jE_E5CountEv, .-_ZNK8opendnp318BufferedCollectionINS_7IndexedINS_18AnalogCommandEventEEEZNS_16CountIndexParser13InvokeCountOfINS_11Group43Var7EEEvRKNS_12HeaderRecordEtRKNS_9NumParserERKN7openpal6RSliceERNS_12IAPDUHandlerEEUlRSE_jE_E5CountEv
	.section	.text._ZNK8opendnp318BufferedCollectionINS_7IndexedINS_18AnalogCommandEventEEEZNS_16CountIndexParser13InvokeCountOfINS_11Group43Var6EEEvRKNS_12HeaderRecordEtRKNS_9NumParserERKN7openpal6RSliceERNS_12IAPDUHandlerEEUlRSE_jE_E5CountEv,"axG",%progbits,_ZNK8opendnp318BufferedCollectionINS_7IndexedINS_18AnalogCommandEventEEEZNS_16CountIndexParser13InvokeCountOfINS_11Group43Var6EEEvRKNS_12HeaderRecordEtRKNS_9NumParserERKN7openpal6RSliceERNS_12IAPDUHandlerEEUlRSE_jE_E5CountEv,comdat
	.align	2
	.weak	_ZNK8opendnp318BufferedCollectionINS_7IndexedINS_18AnalogCommandEventEEEZNS_16CountIndexParser13InvokeCountOfINS_11Group43Var6EEEvRKNS_12HeaderRecordEtRKNS_9NumParserERKN7openpal6RSliceERNS_12IAPDUHandlerEEUlRSE_jE_E5CountEv
	.syntax unified
	.arm
	.fpu vfp
	.type	_ZNK8opendnp318BufferedCollectionINS_7IndexedINS_18AnalogCommandEventEEEZNS_16CountIndexParser13InvokeCountOfINS_11Group43Var6EEEvRKNS_12HeaderRecordEtRKNS_9NumParserERKN7openpal6RSliceERNS_12IAPDUHandlerEEUlRSE_jE_E5CountEv, %function
_ZNK8opendnp318BufferedCollectionINS_7IndexedINS_18AnalogCommandEventEEEZNS_16CountIndexParser13InvokeCountOfINS_11Group43Var6EEEvRKNS_12HeaderRecordEtRKNS_9NumParserERKN7openpal6RSliceERNS_12IAPDUHandlerEEUlRSE_jE_E5CountEv:
	.fnstart
.LFB3842:
	@ args = 0, pretend = 0, frame = 0
	@ frame_needed = 0, uses_anonymous_args = 0
	@ link register save eliminated.
	ldr	r0, [r0, #12]
	bx	lr
	.cantunwind
	.fnend
	.size	_ZNK8opendnp318BufferedCollectionINS_7IndexedINS_18AnalogCommandEventEEEZNS_16CountIndexParser13InvokeCountOfINS_11Group43Var6EEEvRKNS_12HeaderRecordEtRKNS_9NumParserERKN7openpal6RSliceERNS_12IAPDUHandlerEEUlRSE_jE_E5CountEv, .-_ZNK8opendnp318BufferedCollectionINS_7IndexedINS_18AnalogCommandEventEEEZNS_16CountIndexParser13InvokeCountOfINS_11Group43Var6EEEvRKNS_12HeaderRecordEtRKNS_9NumParserERKN7openpal6RSliceERNS_12IAPDUHandlerEEUlRSE_jE_E5CountEv
	.section	.text._ZNK8opendnp318BufferedCollectionINS_7IndexedINS_18AnalogCommandEventEEEZNS_16CountIndexParser13InvokeCountOfINS_11Group43Var5EEEvRKNS_12HeaderRecordEtRKNS_9NumParserERKN7openpal6RSliceERNS_12IAPDUHandlerEEUlRSE_jE_E5CountEv,"axG",%progbits,_ZNK8opendnp318BufferedCollectionINS_7IndexedINS_18AnalogCommandEventEEEZNS_16CountIndexParser13InvokeCountOfINS_11Group43Var5EEEvRKNS_12HeaderRecordEtRKNS_9NumParserERKN7openpal6RSliceERNS_12IAPDUHandlerEEUlRSE_jE_E5CountEv,comdat
	.align	2
	.weak	_ZNK8opendnp318BufferedCollectionINS_7IndexedINS_18AnalogCommandEventEEEZNS_16CountIndexParser13InvokeCountOfINS_11Group43Var5EEEvRKNS_12HeaderRecordEtRKNS_9NumParserERKN7openpal6RSliceERNS_12IAPDUHandlerEEUlRSE_jE_E5CountEv
	.syntax unified
	.arm
	.fpu vfp
	.type	_ZNK8opendnp318BufferedCollectionINS_7IndexedINS_18AnalogCommandEventEEEZNS_16CountIndexParser13InvokeCountOfINS_11Group43Var5EEEvRKNS_12HeaderRecordEtRKNS_9NumParserERKN7openpal6RSliceERNS_12IAPDUHandlerEEUlRSE_jE_E5CountEv, %function
_ZNK8opendnp318BufferedCollectionINS_7IndexedINS_18AnalogCommandEventEEEZNS_16CountIndexParser13InvokeCountOfINS_11Group43Var5EEEvRKNS_12HeaderRecordEtRKNS_9NumParserERKN7openpal6RSliceERNS_12IAPDUHandlerEEUlRSE_jE_E5CountEv:
	.fnstart
.LFB3844:
	@ args = 0, pretend = 0, frame = 0
	@ frame_needed = 0, uses_anonymous_args = 0
	@ link register save eliminated.
	ldr	r0, [r0, #12]
	bx	lr
	.cantunwind
	.fnend
	.size	_ZNK8opendnp318BufferedCollectionINS_7IndexedINS_18AnalogCommandEventEEEZNS_16CountIndexParser13InvokeCountOfINS_11Group43Var5EEEvRKNS_12HeaderRecordEtRKNS_9NumParserERKN7openpal6RSliceERNS_12IAPDUHandlerEEUlRSE_jE_E5CountEv, .-_ZNK8opendnp318BufferedCollectionINS_7IndexedINS_18AnalogCommandEventEEEZNS_16CountIndexParser13InvokeCountOfINS_11Group43Var5EEEvRKNS_12HeaderRecordEtRKNS_9NumParserERKN7openpal6RSliceERNS_12IAPDUHandlerEEUlRSE_jE_E5CountEv
	.section	.text._ZNK8opendnp318BufferedCollectionINS_7IndexedINS_18AnalogCommandEventEEEZNS_16CountIndexParser13InvokeCountOfINS_11Group43Var4EEEvRKNS_12HeaderRecordEtRKNS_9NumParserERKN7openpal6RSliceERNS_12IAPDUHandlerEEUlRSE_jE_E5CountEv,"axG",%progbits,_ZNK8opendnp318BufferedCollectionINS_7IndexedINS_18AnalogCommandEventEEEZNS_16CountIndexParser13InvokeCountOfINS_11Group43Var4EEEvRKNS_12HeaderRecordEtRKNS_9NumParserERKN7openpal6RSliceERNS_12IAPDUHandlerEEUlRSE_jE_E5CountEv,comdat
	.align	2
	.weak	_ZNK8opendnp318BufferedCollectionINS_7IndexedINS_18AnalogCommandEventEEEZNS_16CountIndexParser13InvokeCountOfINS_11Group43Var4EEEvRKNS_12HeaderRecordEtRKNS_9NumParserERKN7openpal6RSliceERNS_12IAPDUHandlerEEUlRSE_jE_E5CountEv
	.syntax unified
	.arm
	.fpu vfp
	.type	_ZNK8opendnp318BufferedCollectionINS_7IndexedINS_18AnalogCommandEventEEEZNS_16CountIndexParser13InvokeCountOfINS_11Group43Var4EEEvRKNS_12HeaderRecordEtRKNS_9NumParserERKN7openpal6RSliceERNS_12IAPDUHandlerEEUlRSE_jE_E5CountEv, %function
_ZNK8opendnp318BufferedCollectionINS_7IndexedINS_18AnalogCommandEventEEEZNS_16CountIndexParser13InvokeCountOfINS_11Group43Var4EEEvRKNS_12HeaderRecordEtRKNS_9NumParserERKN7openpal6RSliceERNS_12IAPDUHandlerEEUlRSE_jE_E5CountEv:
	.fnstart
.LFB3846:
	@ args = 0, pretend = 0, frame = 0
	@ frame_needed = 0, uses_anonymous_args = 0
	@ link register save eliminated.
	ldr	r0, [r0, #12]
	bx	lr
	.cantunwind
	.fnend
	.size	_ZNK8opendnp318BufferedCollectionINS_7IndexedINS_18AnalogCommandEventEEEZNS_16CountIndexParser13InvokeCountOfINS_11Group43Var4EEEvRKNS_12HeaderRecordEtRKNS_9NumParserERKN7openpal6RSliceERNS_12IAPDUHandlerEEUlRSE_jE_E5CountEv, .-_ZNK8opendnp318BufferedCollectionINS_7IndexedINS_18AnalogCommandEventEEEZNS_16CountIndexParser13InvokeCountOfINS_11Group43Var4EEEvRKNS_12HeaderRecordEtRKNS_9NumParserERKN7openpal6RSliceERNS_12IAPDUHandlerEEUlRSE_jE_E5CountEv
	.section	.text._ZNK8opendnp318BufferedCollectionINS_7IndexedINS_18AnalogCommandEventEEEZNS_16CountIndexParser13InvokeCountOfINS_11Group43Var3EEEvRKNS_12HeaderRecordEtRKNS_9NumParserERKN7openpal6RSliceERNS_12IAPDUHandlerEEUlRSE_jE_E5CountEv,"axG",%progbits,_ZNK8opendnp318BufferedCollectionINS_7IndexedINS_18AnalogCommandEventEEEZNS_16CountIndexParser13InvokeCountOfINS_11Group43Var3EEEvRKNS_12HeaderRecordEtRKNS_9NumParserERKN7openpal6RSliceERNS_12IAPDUHandlerEEUlRSE_jE_E5CountEv,comdat
	.align	2
	.weak	_ZNK8opendnp318BufferedCollectionINS_7IndexedINS_18AnalogCommandEventEEEZNS_16CountIndexParser13InvokeCountOfINS_11Group43Var3EEEvRKNS_12HeaderRecordEtRKNS_9NumParserERKN7openpal6RSliceERNS_12IAPDUHandlerEEUlRSE_jE_E5CountEv
	.syntax unified
	.arm
	.fpu vfp
	.type	_ZNK8opendnp318BufferedCollectionINS_7IndexedINS_18AnalogCommandEventEEEZNS_16CountIndexParser13InvokeCountOfINS_11Group43Var3EEEvRKNS_12HeaderRecordEtRKNS_9NumParserERKN7openpal6RSliceERNS_12IAPDUHandlerEEUlRSE_jE_E5CountEv, %function
_ZNK8opendnp318BufferedCollectionINS_7IndexedINS_18AnalogCommandEventEEEZNS_16CountIndexParser13InvokeCountOfINS_11Group43Var3EEEvRKNS_12HeaderRecordEtRKNS_9NumParserERKN7openpal6RSliceERNS_12IAPDUHandlerEEUlRSE_jE_E5CountEv:
	.fnstart
.LFB3848:
	@ args = 0, pretend = 0, frame = 0
	@ frame_needed = 0, uses_anonymous_args = 0
	@ link register save eliminated.
	ldr	r0, [r0, #12]
	bx	lr
	.cantunwind
	.fnend
	.size	_ZNK8opendnp318BufferedCollectionINS_7IndexedINS_18AnalogCommandEventEEEZNS_16CountIndexParser13InvokeCountOfINS_11Group43Var3EEEvRKNS_12HeaderRecordEtRKNS_9NumParserERKN7openpal6RSliceERNS_12IAPDUHandlerEEUlRSE_jE_E5CountEv, .-_ZNK8opendnp318BufferedCollectionINS_7IndexedINS_18AnalogCommandEventEEEZNS_16CountIndexParser13InvokeCountOfINS_11Group43Var3EEEvRKNS_12HeaderRecordEtRKNS_9NumParserERKN7openpal6RSliceERNS_12IAPDUHandlerEEUlRSE_jE_E5CountEv
	.section	.text._ZNK8opendnp318BufferedCollectionINS_7IndexedINS_18AnalogCommandEventEEEZNS_16CountIndexParser13InvokeCountOfINS_11Group43Var2EEEvRKNS_12HeaderRecordEtRKNS_9NumParserERKN7openpal6RSliceERNS_12IAPDUHandlerEEUlRSE_jE_E5CountEv,"axG",%progbits,_ZNK8opendnp318BufferedCollectionINS_7IndexedINS_18AnalogCommandEventEEEZNS_16CountIndexParser13InvokeCountOfINS_11Group43Var2EEEvRKNS_12HeaderRecordEtRKNS_9NumParserERKN7openpal6RSliceERNS_12IAPDUHandlerEEUlRSE_jE_E5CountEv,comdat
	.align	2
	.weak	_ZNK8opendnp318BufferedCollectionINS_7IndexedINS_18AnalogCommandEventEEEZNS_16CountIndexParser13InvokeCountOfINS_11Group43Var2EEEvRKNS_12HeaderRecordEtRKNS_9NumParserERKN7openpal6RSliceERNS_12IAPDUHandlerEEUlRSE_jE_E5CountEv
	.syntax unified
	.arm
	.fpu vfp
	.type	_ZNK8opendnp318BufferedCollectionINS_7IndexedINS_18AnalogCommandEventEEEZNS_16CountIndexParser13InvokeCountOfINS_11Group43Var2EEEvRKNS_12HeaderRecordEtRKNS_9NumParserERKN7openpal6RSliceERNS_12IAPDUHandlerEEUlRSE_jE_E5CountEv, %function
_ZNK8opendnp318BufferedCollectionINS_7IndexedINS_18AnalogCommandEventEEEZNS_16CountIndexParser13InvokeCountOfINS_11Group43Var2EEEvRKNS_12HeaderRecordEtRKNS_9NumParserERKN7openpal6RSliceERNS_12IAPDUHandlerEEUlRSE_jE_E5CountEv:
	.fnstart
.LFB3850:
	@ args = 0, pretend = 0, frame = 0
	@ frame_needed = 0, uses_anonymous_args = 0
	@ link register save eliminated.
	ldr	r0, [r0, #12]
	bx	lr
	.cantunwind
	.fnend
	.size	_ZNK8opendnp318BufferedCollectionINS_7IndexedINS_18AnalogCommandEventEEEZNS_16CountIndexParser13InvokeCountOfINS_11Group43Var2EEEvRKNS_12HeaderRecordEtRKNS_9NumParserERKN7openpal6RSliceERNS_12IAPDUHandlerEEUlRSE_jE_E5CountEv, .-_ZNK8opendnp318BufferedCollectionINS_7IndexedINS_18AnalogCommandEventEEEZNS_16CountIndexParser13InvokeCountOfINS_11Group43Var2EEEvRKNS_12HeaderRecordEtRKNS_9NumParserERKN7openpal6RSliceERNS_12IAPDUHandlerEEUlRSE_jE_E5CountEv
	.section	.text._ZNK8opendnp318BufferedCollectionINS_7IndexedINS_18AnalogCommandEventEEEZNS_16CountIndexParser13InvokeCountOfINS_11Group43Var1EEEvRKNS_12HeaderRecordEtRKNS_9NumParserERKN7openpal6RSliceERNS_12IAPDUHandlerEEUlRSE_jE_E5CountEv,"axG",%progbits,_ZNK8opendnp318BufferedCollectionINS_7IndexedINS_18AnalogCommandEventEEEZNS_16CountIndexParser13InvokeCountOfINS_11Group43Var1EEEvRKNS_12HeaderRecordEtRKNS_9NumParserERKN7openpal6RSliceERNS_12IAPDUHandlerEEUlRSE_jE_E5CountEv,comdat
	.align	2
	.weak	_ZNK8opendnp318BufferedCollectionINS_7IndexedINS_18AnalogCommandEventEEEZNS_16CountIndexParser13InvokeCountOfINS_11Group43Var1EEEvRKNS_12HeaderRecordEtRKNS_9NumParserERKN7openpal6RSliceERNS_12IAPDUHandlerEEUlRSE_jE_E5CountEv
	.syntax unified
	.arm
	.fpu vfp
	.type	_ZNK8opendnp318BufferedCollectionINS_7IndexedINS_18AnalogCommandEventEEEZNS_16CountIndexParser13InvokeCountOfINS_11Group43Var1EEEvRKNS_12HeaderRecordEtRKNS_9NumParserERKN7openpal6RSliceERNS_12IAPDUHandlerEEUlRSE_jE_E5CountEv, %function
_ZNK8opendnp318BufferedCollectionINS_7IndexedINS_18AnalogCommandEventEEEZNS_16CountIndexParser13InvokeCountOfINS_11Group43Var1EEEvRKNS_12HeaderRecordEtRKNS_9NumParserERKN7openpal6RSliceERNS_12IAPDUHandlerEEUlRSE_jE_E5CountEv:
	.fnstart
.LFB3852:
	@ args = 0, pretend = 0, frame = 0
	@ frame_needed = 0, uses_anonymous_args = 0
	@ link register save eliminated.
	ldr	r0, [r0, #12]
	bx	lr
	.cantunwind
	.fnend
	.size	_ZNK8opendnp318BufferedCollectionINS_7IndexedINS_18AnalogCommandEventEEEZNS_16CountIndexParser13InvokeCountOfINS_11Group43Var1EEEvRKNS_12HeaderRecordEtRKNS_9NumParserERKN7openpal6RSliceERNS_12IAPDUHandlerEEUlRSE_jE_E5CountEv, .-_ZNK8opendnp318BufferedCollectionINS_7IndexedINS_18AnalogCommandEventEEEZNS_16CountIndexParser13InvokeCountOfINS_11Group43Var1EEEvRKNS_12HeaderRecordEtRKNS_9NumParserERKN7openpal6RSliceERNS_12IAPDUHandlerEEUlRSE_jE_E5CountEv
	.section	.text._ZNK8opendnp318BufferedCollectionINS_7IndexedINS_18AnalogOutputStatusEEEZNS_16CountIndexParser13InvokeCountOfINS_11Group42Var8EEEvRKNS_12HeaderRecordEtRKNS_9NumParserERKN7openpal6RSliceERNS_12IAPDUHandlerEEUlRSE_jE_E5CountEv,"axG",%progbits,_ZNK8opendnp318BufferedCollectionINS_7IndexedINS_18AnalogOutputStatusEEEZNS_16CountIndexParser13InvokeCountOfINS_11Group42Var8EEEvRKNS_12HeaderRecordEtRKNS_9NumParserERKN7openpal6RSliceERNS_12IAPDUHandlerEEUlRSE_jE_E5CountEv,comdat
	.align	2
	.weak	_ZNK8opendnp318BufferedCollectionINS_7IndexedINS_18AnalogOutputStatusEEEZNS_16CountIndexParser13InvokeCountOfINS_11Group42Var8EEEvRKNS_12HeaderRecordEtRKNS_9NumParserERKN7openpal6RSliceERNS_12IAPDUHandlerEEUlRSE_jE_E5CountEv
	.syntax unified
	.arm
	.fpu vfp
	.type	_ZNK8opendnp318BufferedCollectionINS_7IndexedINS_18AnalogOutputStatusEEEZNS_16CountIndexParser13InvokeCountOfINS_11Group42Var8EEEvRKNS_12HeaderRecordEtRKNS_9NumParserERKN7openpal6RSliceERNS_12IAPDUHandlerEEUlRSE_jE_E5CountEv, %function
_ZNK8opendnp318BufferedCollectionINS_7IndexedINS_18AnalogOutputStatusEEEZNS_16CountIndexParser13InvokeCountOfINS_11Group42Var8EEEvRKNS_12HeaderRecordEtRKNS_9NumParserERKN7openpal6RSliceERNS_12IAPDUHandlerEEUlRSE_jE_E5CountEv:
	.fnstart
.LFB3854:
	@ args = 0, pretend = 0, frame = 0
	@ frame_needed = 0, uses_anonymous_args = 0
	@ link register save eliminated.
	ldr	r0, [r0, #12]
	bx	lr
	.cantunwind
	.fnend
	.size	_ZNK8opendnp318BufferedCollectionINS_7IndexedINS_18AnalogOutputStatusEEEZNS_16CountIndexParser13InvokeCountOfINS_11Group42Var8EEEvRKNS_12HeaderRecordEtRKNS_9NumParserERKN7openpal6RSliceERNS_12IAPDUHandlerEEUlRSE_jE_E5CountEv, .-_ZNK8opendnp318BufferedCollectionINS_7IndexedINS_18AnalogOutputStatusEEEZNS_16CountIndexParser13InvokeCountOfINS_11Group42Var8EEEvRKNS_12HeaderRecordEtRKNS_9NumParserERKN7openpal6RSliceERNS_12IAPDUHandlerEEUlRSE_jE_E5CountEv
	.section	.text._ZNK8opendnp318BufferedCollectionINS_7IndexedINS_18AnalogOutputStatusEEEZNS_16CountIndexParser13InvokeCountOfINS_11Group42Var7EEEvRKNS_12HeaderRecordEtRKNS_9NumParserERKN7openpal6RSliceERNS_12IAPDUHandlerEEUlRSE_jE_E5CountEv,"axG",%progbits,_ZNK8opendnp318BufferedCollectionINS_7IndexedINS_18AnalogOutputStatusEEEZNS_16CountIndexParser13InvokeCountOfINS_11Group42Var7EEEvRKNS_12HeaderRecordEtRKNS_9NumParserERKN7openpal6RSliceERNS_12IAPDUHandlerEEUlRSE_jE_E5CountEv,comdat
	.align	2
	.weak	_ZNK8opendnp318BufferedCollectionINS_7IndexedINS_18AnalogOutputStatusEEEZNS_16CountIndexParser13InvokeCountOfINS_11Group42Var7EEEvRKNS_12HeaderRecordEtRKNS_9NumParserERKN7openpal6RSliceERNS_12IAPDUHandlerEEUlRSE_jE_E5CountEv
	.syntax unified
	.arm
	.fpu vfp
	.type	_ZNK8opendnp318BufferedCollectionINS_7IndexedINS_18AnalogOutputStatusEEEZNS_16CountIndexParser13InvokeCountOfINS_11Group42Var7EEEvRKNS_12HeaderRecordEtRKNS_9NumParserERKN7openpal6RSliceERNS_12IAPDUHandlerEEUlRSE_jE_E5CountEv, %function
_ZNK8opendnp318BufferedCollectionINS_7IndexedINS_18AnalogOutputStatusEEEZNS_16CountIndexParser13InvokeCountOfINS_11Group42Var7EEEvRKNS_12HeaderRecordEtRKNS_9NumParserERKN7openpal6RSliceERNS_12IAPDUHandlerEEUlRSE_jE_E5CountEv:
	.fnstart
.LFB3856:
	@ args = 0, pretend = 0, frame = 0
	@ frame_needed = 0, uses_anonymous_args = 0
	@ link register save eliminated.
	ldr	r0, [r0, #12]
	bx	lr
	.cantunwind
	.fnend
	.size	_ZNK8opendnp318BufferedCollectionINS_7IndexedINS_18AnalogOutputStatusEEEZNS_16CountIndexParser13InvokeCountOfINS_11Group42Var7EEEvRKNS_12HeaderRecordEtRKNS_9NumParserERKN7openpal6RSliceERNS_12IAPDUHandlerEEUlRSE_jE_E5CountEv, .-_ZNK8opendnp318BufferedCollectionINS_7IndexedINS_18AnalogOutputStatusEEEZNS_16CountIndexParser13InvokeCountOfINS_11Group42Var7EEEvRKNS_12HeaderRecordEtRKNS_9NumParserERKN7openpal6RSliceERNS_12IAPDUHandlerEEUlRSE_jE_E5CountEv
	.section	.text._ZNK8opendnp318BufferedCollectionINS_7IndexedINS_18AnalogOutputStatusEEEZNS_16CountIndexParser13InvokeCountOfINS_11Group42Var6EEEvRKNS_12HeaderRecordEtRKNS_9NumParserERKN7openpal6RSliceERNS_12IAPDUHandlerEEUlRSE_jE_E5CountEv,"axG",%progbits,_ZNK8opendnp318BufferedCollectionINS_7IndexedINS_18AnalogOutputStatusEEEZNS_16CountIndexParser13InvokeCountOfINS_11Group42Var6EEEvRKNS_12HeaderRecordEtRKNS_9NumParserERKN7openpal6RSliceERNS_12IAPDUHandlerEEUlRSE_jE_E5CountEv,comdat
	.align	2
	.weak	_ZNK8opendnp318BufferedCollectionINS_7IndexedINS_18AnalogOutputStatusEEEZNS_16CountIndexParser13InvokeCountOfINS_11Group42Var6EEEvRKNS_12HeaderRecordEtRKNS_9NumParserERKN7openpal6RSliceERNS_12IAPDUHandlerEEUlRSE_jE_E5CountEv
	.syntax unified
	.arm
	.fpu vfp
	.type	_ZNK8opendnp318BufferedCollectionINS_7IndexedINS_18AnalogOutputStatusEEEZNS_16CountIndexParser13InvokeCountOfINS_11Group42Var6EEEvRKNS_12HeaderRecordEtRKNS_9NumParserERKN7openpal6RSliceERNS_12IAPDUHandlerEEUlRSE_jE_E5CountEv, %function
_ZNK8opendnp318BufferedCollectionINS_7IndexedINS_18AnalogOutputStatusEEEZNS_16CountIndexParser13InvokeCountOfINS_11Group42Var6EEEvRKNS_12HeaderRecordEtRKNS_9NumParserERKN7openpal6RSliceERNS_12IAPDUHandlerEEUlRSE_jE_E5CountEv:
	.fnstart
.LFB3858:
	@ args = 0, pretend = 0, frame = 0
	@ frame_needed = 0, uses_anonymous_args = 0
	@ link register save eliminated.
	ldr	r0, [r0, #12]
	bx	lr
	.cantunwind
	.fnend
	.size	_ZNK8opendnp318BufferedCollectionINS_7IndexedINS_18AnalogOutputStatusEEEZNS_16CountIndexParser13InvokeCountOfINS_11Group42Var6EEEvRKNS_12HeaderRecordEtRKNS_9NumParserERKN7openpal6RSliceERNS_12IAPDUHandlerEEUlRSE_jE_E5CountEv, .-_ZNK8opendnp318BufferedCollectionINS_7IndexedINS_18AnalogOutputStatusEEEZNS_16CountIndexParser13InvokeCountOfINS_11Group42Var6EEEvRKNS_12HeaderRecordEtRKNS_9NumParserERKN7openpal6RSliceERNS_12IAPDUHandlerEEUlRSE_jE_E5CountEv
	.section	.text._ZNK8opendnp318BufferedCollectionINS_7IndexedINS_18AnalogOutputStatusEEEZNS_16CountIndexParser13InvokeCountOfINS_11Group42Var5EEEvRKNS_12HeaderRecordEtRKNS_9NumParserERKN7openpal6RSliceERNS_12IAPDUHandlerEEUlRSE_jE_E5CountEv,"axG",%progbits,_ZNK8opendnp318BufferedCollectionINS_7IndexedINS_18AnalogOutputStatusEEEZNS_16CountIndexParser13InvokeCountOfINS_11Group42Var5EEEvRKNS_12HeaderRecordEtRKNS_9NumParserERKN7openpal6RSliceERNS_12IAPDUHandlerEEUlRSE_jE_E5CountEv,comdat
	.align	2
	.weak	_ZNK8opendnp318BufferedCollectionINS_7IndexedINS_18AnalogOutputStatusEEEZNS_16CountIndexParser13InvokeCountOfINS_11Group42Var5EEEvRKNS_12HeaderRecordEtRKNS_9NumParserERKN7openpal6RSliceERNS_12IAPDUHandlerEEUlRSE_jE_E5CountEv
	.syntax unified
	.arm
	.fpu vfp
	.type	_ZNK8opendnp318BufferedCollectionINS_7IndexedINS_18AnalogOutputStatusEEEZNS_16CountIndexParser13InvokeCountOfINS_11Group42Var5EEEvRKNS_12HeaderRecordEtRKNS_9NumParserERKN7openpal6RSliceERNS_12IAPDUHandlerEEUlRSE_jE_E5CountEv, %function
_ZNK8opendnp318BufferedCollectionINS_7IndexedINS_18AnalogOutputStatusEEEZNS_16CountIndexParser13InvokeCountOfINS_11Group42Var5EEEvRKNS_12HeaderRecordEtRKNS_9NumParserERKN7openpal6RSliceERNS_12IAPDUHandlerEEUlRSE_jE_E5CountEv:
	.fnstart
.LFB3860:
	@ args = 0, pretend = 0, frame = 0
	@ frame_needed = 0, uses_anonymous_args = 0
	@ link register save eliminated.
	ldr	r0, [r0, #12]
	bx	lr
	.cantunwind
	.fnend
	.size	_ZNK8opendnp318BufferedCollectionINS_7IndexedINS_18AnalogOutputStatusEEEZNS_16CountIndexParser13InvokeCountOfINS_11Group42Var5EEEvRKNS_12HeaderRecordEtRKNS_9NumParserERKN7openpal6RSliceERNS_12IAPDUHandlerEEUlRSE_jE_E5CountEv, .-_ZNK8opendnp318BufferedCollectionINS_7IndexedINS_18AnalogOutputStatusEEEZNS_16CountIndexParser13InvokeCountOfINS_11Group42Var5EEEvRKNS_12HeaderRecordEtRKNS_9NumParserERKN7openpal6RSliceERNS_12IAPDUHandlerEEUlRSE_jE_E5CountEv
	.section	.text._ZNK8opendnp318BufferedCollectionINS_7IndexedINS_18AnalogOutputStatusEEEZNS_16CountIndexParser13InvokeCountOfINS_11Group42Var4EEEvRKNS_12HeaderRecordEtRKNS_9NumParserERKN7openpal6RSliceERNS_12IAPDUHandlerEEUlRSE_jE_E5CountEv,"axG",%progbits,_ZNK8opendnp318BufferedCollectionINS_7IndexedINS_18AnalogOutputStatusEEEZNS_16CountIndexParser13InvokeCountOfINS_11Group42Var4EEEvRKNS_12HeaderRecordEtRKNS_9NumParserERKN7openpal6RSliceERNS_12IAPDUHandlerEEUlRSE_jE_E5CountEv,comdat
	.align	2
	.weak	_ZNK8opendnp318BufferedCollectionINS_7IndexedINS_18AnalogOutputStatusEEEZNS_16CountIndexParser13InvokeCountOfINS_11Group42Var4EEEvRKNS_12HeaderRecordEtRKNS_9NumParserERKN7openpal6RSliceERNS_12IAPDUHandlerEEUlRSE_jE_E5CountEv
	.syntax unified
	.arm
	.fpu vfp
	.type	_ZNK8opendnp318BufferedCollectionINS_7IndexedINS_18AnalogOutputStatusEEEZNS_16CountIndexParser13InvokeCountOfINS_11Group42Var4EEEvRKNS_12HeaderRecordEtRKNS_9NumParserERKN7openpal6RSliceERNS_12IAPDUHandlerEEUlRSE_jE_E5CountEv, %function
_ZNK8opendnp318BufferedCollectionINS_7IndexedINS_18AnalogOutputStatusEEEZNS_16CountIndexParser13InvokeCountOfINS_11Group42Var4EEEvRKNS_12HeaderRecordEtRKNS_9NumParserERKN7openpal6RSliceERNS_12IAPDUHandlerEEUlRSE_jE_E5CountEv:
	.fnstart
.LFB3862:
	@ args = 0, pretend = 0, frame = 0
	@ frame_needed = 0, uses_anonymous_args = 0
	@ link register save eliminated.
	ldr	r0, [r0, #12]
	bx	lr
	.cantunwind
	.fnend
	.size	_ZNK8opendnp318BufferedCollectionINS_7IndexedINS_18AnalogOutputStatusEEEZNS_16CountIndexParser13InvokeCountOfINS_11Group42Var4EEEvRKNS_12HeaderRecordEtRKNS_9NumParserERKN7openpal6RSliceERNS_12IAPDUHandlerEEUlRSE_jE_E5CountEv, .-_ZNK8opendnp318BufferedCollectionINS_7IndexedINS_18AnalogOutputStatusEEEZNS_16CountIndexParser13InvokeCountOfINS_11Group42Var4EEEvRKNS_12HeaderRecordEtRKNS_9NumParserERKN7openpal6RSliceERNS_12IAPDUHandlerEEUlRSE_jE_E5CountEv
	.section	.text._ZNK8opendnp318BufferedCollectionINS_7IndexedINS_18AnalogOutputStatusEEEZNS_16CountIndexParser13InvokeCountOfINS_11Group42Var3EEEvRKNS_12HeaderRecordEtRKNS_9NumParserERKN7openpal6RSliceERNS_12IAPDUHandlerEEUlRSE_jE_E5CountEv,"axG",%progbits,_ZNK8opendnp318BufferedCollectionINS_7IndexedINS_18AnalogOutputStatusEEEZNS_16CountIndexParser13InvokeCountOfINS_11Group42Var3EEEvRKNS_12HeaderRecordEtRKNS_9NumParserERKN7openpal6RSliceERNS_12IAPDUHandlerEEUlRSE_jE_E5CountEv,comdat
	.align	2
	.weak	_ZNK8opendnp318BufferedCollectionINS_7IndexedINS_18AnalogOutputStatusEEEZNS_16CountIndexParser13InvokeCountOfINS_11Group42Var3EEEvRKNS_12HeaderRecordEtRKNS_9NumParserERKN7openpal6RSliceERNS_12IAPDUHandlerEEUlRSE_jE_E5CountEv
	.syntax unified
	.arm
	.fpu vfp
	.type	_ZNK8opendnp318BufferedCollectionINS_7IndexedINS_18AnalogOutputStatusEEEZNS_16CountIndexParser13InvokeCountOfINS_11Group42Var3EEEvRKNS_12HeaderRecordEtRKNS_9NumParserERKN7openpal6RSliceERNS_12IAPDUHandlerEEUlRSE_jE_E5CountEv, %function
_ZNK8opendnp318BufferedCollectionINS_7IndexedINS_18AnalogOutputStatusEEEZNS_16CountIndexParser13InvokeCountOfINS_11Group42Var3EEEvRKNS_12HeaderRecordEtRKNS_9NumParserERKN7openpal6RSliceERNS_12IAPDUHandlerEEUlRSE_jE_E5CountEv:
	.fnstart
.LFB3864:
	@ args = 0, pretend = 0, frame = 0
	@ frame_needed = 0, uses_anonymous_args = 0
	@ link register save eliminated.
	ldr	r0, [r0, #12]
	bx	lr
	.cantunwind
	.fnend
	.size	_ZNK8opendnp318BufferedCollectionINS_7IndexedINS_18AnalogOutputStatusEEEZNS_16CountIndexParser13InvokeCountOfINS_11Group42Var3EEEvRKNS_12HeaderRecordEtRKNS_9NumParserERKN7openpal6RSliceERNS_12IAPDUHandlerEEUlRSE_jE_E5CountEv, .-_ZNK8opendnp318BufferedCollectionINS_7IndexedINS_18AnalogOutputStatusEEEZNS_16CountIndexParser13InvokeCountOfINS_11Group42Var3EEEvRKNS_12HeaderRecordEtRKNS_9NumParserERKN7openpal6RSliceERNS_12IAPDUHandlerEEUlRSE_jE_E5CountEv
	.section	.text._ZNK8opendnp318BufferedCollectionINS_7IndexedINS_18AnalogOutputStatusEEEZNS_16CountIndexParser13InvokeCountOfINS_11Group42Var2EEEvRKNS_12HeaderRecordEtRKNS_9NumParserERKN7openpal6RSliceERNS_12IAPDUHandlerEEUlRSE_jE_E5CountEv,"axG",%progbits,_ZNK8opendnp318BufferedCollectionINS_7IndexedINS_18AnalogOutputStatusEEEZNS_16CountIndexParser13InvokeCountOfINS_11Group42Var2EEEvRKNS_12HeaderRecordEtRKNS_9NumParserERKN7openpal6RSliceERNS_12IAPDUHandlerEEUlRSE_jE_E5CountEv,comdat
	.align	2
	.weak	_ZNK8opendnp318BufferedCollectionINS_7IndexedINS_18AnalogOutputStatusEEEZNS_16CountIndexParser13InvokeCountOfINS_11Group42Var2EEEvRKNS_12HeaderRecordEtRKNS_9NumParserERKN7openpal6RSliceERNS_12IAPDUHandlerEEUlRSE_jE_E5CountEv
	.syntax unified
	.arm
	.fpu vfp
	.type	_ZNK8opendnp318BufferedCollectionINS_7IndexedINS_18AnalogOutputStatusEEEZNS_16CountIndexParser13InvokeCountOfINS_11Group42Var2EEEvRKNS_12HeaderRecordEtRKNS_9NumParserERKN7openpal6RSliceERNS_12IAPDUHandlerEEUlRSE_jE_E5CountEv, %function
_ZNK8opendnp318BufferedCollectionINS_7IndexedINS_18AnalogOutputStatusEEEZNS_16CountIndexParser13InvokeCountOfINS_11Group42Var2EEEvRKNS_12HeaderRecordEtRKNS_9NumParserERKN7openpal6RSliceERNS_12IAPDUHandlerEEUlRSE_jE_E5CountEv:
	.fnstart
.LFB3866:
	@ args = 0, pretend = 0, frame = 0
	@ frame_needed = 0, uses_anonymous_args = 0
	@ link register save eliminated.
	ldr	r0, [r0, #12]
	bx	lr
	.cantunwind
	.fnend
	.size	_ZNK8opendnp318BufferedCollectionINS_7IndexedINS_18AnalogOutputStatusEEEZNS_16CountIndexParser13InvokeCountOfINS_11Group42Var2EEEvRKNS_12HeaderRecordEtRKNS_9NumParserERKN7openpal6RSliceERNS_12IAPDUHandlerEEUlRSE_jE_E5CountEv, .-_ZNK8opendnp318BufferedCollectionINS_7IndexedINS_18AnalogOutputStatusEEEZNS_16CountIndexParser13InvokeCountOfINS_11Group42Var2EEEvRKNS_12HeaderRecordEtRKNS_9NumParserERKN7openpal6RSliceERNS_12IAPDUHandlerEEUlRSE_jE_E5CountEv
	.section	.text._ZNK8opendnp318BufferedCollectionINS_7IndexedINS_18AnalogOutputStatusEEEZNS_16CountIndexParser13InvokeCountOfINS_11Group42Var1EEEvRKNS_12HeaderRecordEtRKNS_9NumParserERKN7openpal6RSliceERNS_12IAPDUHandlerEEUlRSE_jE_E5CountEv,"axG",%progbits,_ZNK8opendnp318BufferedCollectionINS_7IndexedINS_18AnalogOutputStatusEEEZNS_16CountIndexParser13InvokeCountOfINS_11Group42Var1EEEvRKNS_12HeaderRecordEtRKNS_9NumParserERKN7openpal6RSliceERNS_12IAPDUHandlerEEUlRSE_jE_E5CountEv,comdat
	.align	2
	.weak	_ZNK8opendnp318BufferedCollectionINS_7IndexedINS_18AnalogOutputStatusEEEZNS_16CountIndexParser13InvokeCountOfINS_11Group42Var1EEEvRKNS_12HeaderRecordEtRKNS_9NumParserERKN7openpal6RSliceERNS_12IAPDUHandlerEEUlRSE_jE_E5CountEv
	.syntax unified
	.arm
	.fpu vfp
	.type	_ZNK8opendnp318BufferedCollectionINS_7IndexedINS_18AnalogOutputStatusEEEZNS_16CountIndexParser13InvokeCountOfINS_11Group42Var1EEEvRKNS_12HeaderRecordEtRKNS_9NumParserERKN7openpal6RSliceERNS_12IAPDUHandlerEEUlRSE_jE_E5CountEv, %function
_ZNK8opendnp318BufferedCollectionINS_7IndexedINS_18AnalogOutputStatusEEEZNS_16CountIndexParser13InvokeCountOfINS_11Group42Var1EEEvRKNS_12HeaderRecordEtRKNS_9NumParserERKN7openpal6RSliceERNS_12IAPDUHandlerEEUlRSE_jE_E5CountEv:
	.fnstart
.LFB3868:
	@ args = 0, pretend = 0, frame = 0
	@ frame_needed = 0, uses_anonymous_args = 0
	@ link register save eliminated.
	ldr	r0, [r0, #12]
	bx	lr
	.cantunwind
	.fnend
	.size	_ZNK8opendnp318BufferedCollectionINS_7IndexedINS_18AnalogOutputStatusEEEZNS_16CountIndexParser13InvokeCountOfINS_11Group42Var1EEEvRKNS_12HeaderRecordEtRKNS_9NumParserERKN7openpal6RSliceERNS_12IAPDUHandlerEEUlRSE_jE_E5CountEv, .-_ZNK8opendnp318BufferedCollectionINS_7IndexedINS_18AnalogOutputStatusEEEZNS_16CountIndexParser13InvokeCountOfINS_11Group42Var1EEEvRKNS_12HeaderRecordEtRKNS_9NumParserERKN7openpal6RSliceERNS_12IAPDUHandlerEEUlRSE_jE_E5CountEv
	.section	.text._ZNK8opendnp318BufferedCollectionINS_7IndexedINS_20AnalogOutputDouble64EEEZNS_16CountIndexParser13InvokeCountOfINS_11Group41Var4EEEvRKNS_12HeaderRecordEtRKNS_9NumParserERKN7openpal6RSliceERNS_12IAPDUHandlerEEUlRSE_jE_E5CountEv,"axG",%progbits,_ZNK8opendnp318BufferedCollectionINS_7IndexedINS_20AnalogOutputDouble64EEEZNS_16CountIndexParser13InvokeCountOfINS_11Group41Var4EEEvRKNS_12HeaderRecordEtRKNS_9NumParserERKN7openpal6RSliceERNS_12IAPDUHandlerEEUlRSE_jE_E5CountEv,comdat
	.align	2
	.weak	_ZNK8opendnp318BufferedCollectionINS_7IndexedINS_20AnalogOutputDouble64EEEZNS_16CountIndexParser13InvokeCountOfINS_11Group41Var4EEEvRKNS_12HeaderRecordEtRKNS_9NumParserERKN7openpal6RSliceERNS_12IAPDUHandlerEEUlRSE_jE_E5CountEv
	.syntax unified
	.arm
	.fpu vfp
	.type	_ZNK8opendnp318BufferedCollectionINS_7IndexedINS_20AnalogOutputDouble64EEEZNS_16CountIndexParser13InvokeCountOfINS_11Group41Var4EEEvRKNS_12HeaderRecordEtRKNS_9NumParserERKN7openpal6RSliceERNS_12IAPDUHandlerEEUlRSE_jE_E5CountEv, %function
_ZNK8opendnp318BufferedCollectionINS_7IndexedINS_20AnalogOutputDouble64EEEZNS_16CountIndexParser13InvokeCountOfINS_11Group41Var4EEEvRKNS_12HeaderRecordEtRKNS_9NumParserERKN7openpal6RSliceERNS_12IAPDUHandlerEEUlRSE_jE_E5CountEv:
	.fnstart
.LFB3870:
	@ args = 0, pretend = 0, frame = 0
	@ frame_needed = 0, uses_anonymous_args = 0
	@ link register save eliminated.
	ldr	r0, [r0, #12]
	bx	lr
	.cantunwind
	.fnend
	.size	_ZNK8opendnp318BufferedCollectionINS_7IndexedINS_20AnalogOutputDouble64EEEZNS_16CountIndexParser13InvokeCountOfINS_11Group41Var4EEEvRKNS_12HeaderRecordEtRKNS_9NumParserERKN7openpal6RSliceERNS_12IAPDUHandlerEEUlRSE_jE_E5CountEv, .-_ZNK8opendnp318BufferedCollectionINS_7IndexedINS_20AnalogOutputDouble64EEEZNS_16CountIndexParser13InvokeCountOfINS_11Group41Var4EEEvRKNS_12HeaderRecordEtRKNS_9NumParserERKN7openpal6RSliceERNS_12IAPDUHandlerEEUlRSE_jE_E5CountEv
	.section	.text._ZNK8opendnp318BufferedCollectionINS_7IndexedINS_19AnalogOutputFloat32EEEZNS_16CountIndexParser13InvokeCountOfINS_11Group41Var3EEEvRKNS_12HeaderRecordEtRKNS_9NumParserERKN7openpal6RSliceERNS_12IAPDUHandlerEEUlRSE_jE_E5CountEv,"axG",%progbits,_ZNK8opendnp318BufferedCollectionINS_7IndexedINS_19AnalogOutputFloat32EEEZNS_16CountIndexParser13InvokeCountOfINS_11Group41Var3EEEvRKNS_12HeaderRecordEtRKNS_9NumParserERKN7openpal6RSliceERNS_12IAPDUHandlerEEUlRSE_jE_E5CountEv,comdat
	.align	2
	.weak	_ZNK8opendnp318BufferedCollectionINS_7IndexedINS_19AnalogOutputFloat32EEEZNS_16CountIndexParser13InvokeCountOfINS_11Group41Var3EEEvRKNS_12HeaderRecordEtRKNS_9NumParserERKN7openpal6RSliceERNS_12IAPDUHandlerEEUlRSE_jE_E5CountEv
	.syntax unified
	.arm
	.fpu vfp
	.type	_ZNK8opendnp318BufferedCollectionINS_7IndexedINS_19AnalogOutputFloat32EEEZNS_16CountIndexParser13InvokeCountOfINS_11Group41Var3EEEvRKNS_12HeaderRecordEtRKNS_9NumParserERKN7openpal6RSliceERNS_12IAPDUHandlerEEUlRSE_jE_E5CountEv, %function
_ZNK8opendnp318BufferedCollectionINS_7IndexedINS_19AnalogOutputFloat32EEEZNS_16CountIndexParser13InvokeCountOfINS_11Group41Var3EEEvRKNS_12HeaderRecordEtRKNS_9NumParserERKN7openpal6RSliceERNS_12IAPDUHandlerEEUlRSE_jE_E5CountEv:
	.fnstart
.LFB3872:
	@ args = 0, pretend = 0, frame = 0
	@ frame_needed = 0, uses_anonymous_args = 0
	@ link register save eliminated.
	ldr	r0, [r0, #12]
	bx	lr
	.cantunwind
	.fnend
	.size	_ZNK8opendnp318BufferedCollectionINS_7IndexedINS_19AnalogOutputFloat32EEEZNS_16CountIndexParser13InvokeCountOfINS_11Group41Var3EEEvRKNS_12HeaderRecordEtRKNS_9NumParserERKN7openpal6RSliceERNS_12IAPDUHandlerEEUlRSE_jE_E5CountEv, .-_ZNK8opendnp318BufferedCollectionINS_7IndexedINS_19AnalogOutputFloat32EEEZNS_16CountIndexParser13InvokeCountOfINS_11Group41Var3EEEvRKNS_12HeaderRecordEtRKNS_9NumParserERKN7openpal6RSliceERNS_12IAPDUHandlerEEUlRSE_jE_E5CountEv
	.section	.text._ZNK8opendnp318BufferedCollectionINS_7IndexedINS_17AnalogOutputInt16EEEZNS_16CountIndexParser13InvokeCountOfINS_11Group41Var2EEEvRKNS_12HeaderRecordEtRKNS_9NumParserERKN7openpal6RSliceERNS_12IAPDUHandlerEEUlRSE_jE_E5CountEv,"axG",%progbits,_ZNK8opendnp318BufferedCollectionINS_7IndexedINS_17AnalogOutputInt16EEEZNS_16CountIndexParser13InvokeCountOfINS_11Group41Var2EEEvRKNS_12HeaderRecordEtRKNS_9NumParserERKN7openpal6RSliceERNS_12IAPDUHandlerEEUlRSE_jE_E5CountEv,comdat
	.align	2
	.weak	_ZNK8opendnp318BufferedCollectionINS_7IndexedINS_17AnalogOutputInt16EEEZNS_16CountIndexParser13InvokeCountOfINS_11Group41Var2EEEvRKNS_12HeaderRecordEtRKNS_9NumParserERKN7openpal6RSliceERNS_12IAPDUHandlerEEUlRSE_jE_E5CountEv
	.syntax unified
	.arm
	.fpu vfp
	.type	_ZNK8opendnp318BufferedCollectionINS_7IndexedINS_17AnalogOutputInt16EEEZNS_16CountIndexParser13InvokeCountOfINS_11Group41Var2EEEvRKNS_12HeaderRecordEtRKNS_9NumParserERKN7openpal6RSliceERNS_12IAPDUHandlerEEUlRSE_jE_E5CountEv, %function
_ZNK8opendnp318BufferedCollectionINS_7IndexedINS_17AnalogOutputInt16EEEZNS_16CountIndexParser13InvokeCountOfINS_11Group41Var2EEEvRKNS_12HeaderRecordEtRKNS_9NumParserERKN7openpal6RSliceERNS_12IAPDUHandlerEEUlRSE_jE_E5CountEv:
	.fnstart
.LFB3874:
	@ args = 0, pretend = 0, frame = 0
	@ frame_needed = 0, uses_anonymous_args = 0
	@ link register save eliminated.
	ldr	r0, [r0, #12]
	bx	lr
	.cantunwind
	.fnend
	.size	_ZNK8opendnp318BufferedCollectionINS_7IndexedINS_17AnalogOutputInt16EEEZNS_16CountIndexParser13InvokeCountOfINS_11Group41Var2EEEvRKNS_12HeaderRecordEtRKNS_9NumParserERKN7openpal6RSliceERNS_12IAPDUHandlerEEUlRSE_jE_E5CountEv, .-_ZNK8opendnp318BufferedCollectionINS_7IndexedINS_17AnalogOutputInt16EEEZNS_16CountIndexParser13InvokeCountOfINS_11Group41Var2EEEvRKNS_12HeaderRecordEtRKNS_9NumParserERKN7openpal6RSliceERNS_12IAPDUHandlerEEUlRSE_jE_E5CountEv
	.section	.text._ZNK8opendnp318BufferedCollectionINS_7IndexedINS_17AnalogOutputInt32EEEZNS_16CountIndexParser13InvokeCountOfINS_11Group41Var1EEEvRKNS_12HeaderRecordEtRKNS_9NumParserERKN7openpal6RSliceERNS_12IAPDUHandlerEEUlRSE_jE_E5CountEv,"axG",%progbits,_ZNK8opendnp318BufferedCollectionINS_7IndexedINS_17AnalogOutputInt32EEEZNS_16CountIndexParser13InvokeCountOfINS_11Group41Var1EEEvRKNS_12HeaderRecordEtRKNS_9NumParserERKN7openpal6RSliceERNS_12IAPDUHandlerEEUlRSE_jE_E5CountEv,comdat
	.align	2
	.weak	_ZNK8opendnp318BufferedCollectionINS_7IndexedINS_17AnalogOutputInt32EEEZNS_16CountIndexParser13InvokeCountOfINS_11Group41Var1EEEvRKNS_12HeaderRecordEtRKNS_9NumParserERKN7openpal6RSliceERNS_12IAPDUHandlerEEUlRSE_jE_E5CountEv
	.syntax unified
	.arm
	.fpu vfp
	.type	_ZNK8opendnp318BufferedCollectionINS_7IndexedINS_17AnalogOutputInt32EEEZNS_16CountIndexParser13InvokeCountOfINS_11Group41Var1EEEvRKNS_12HeaderRecordEtRKNS_9NumParserERKN7openpal6RSliceERNS_12IAPDUHandlerEEUlRSE_jE_E5CountEv, %function
_ZNK8opendnp318BufferedCollectionINS_7IndexedINS_17AnalogOutputInt32EEEZNS_16CountIndexParser13InvokeCountOfINS_11Group41Var1EEEvRKNS_12HeaderRecordEtRKNS_9NumParserERKN7openpal6RSliceERNS_12IAPDUHandlerEEUlRSE_jE_E5CountEv:
	.fnstart
.LFB3876:
	@ args = 0, pretend = 0, frame = 0
	@ frame_needed = 0, uses_anonymous_args = 0
	@ link register save eliminated.
	ldr	r0, [r0, #12]
	bx	lr
	.cantunwind
	.fnend
	.size	_ZNK8opendnp318BufferedCollectionINS_7IndexedINS_17AnalogOutputInt32EEEZNS_16CountIndexParser13InvokeCountOfINS_11Group41Var1EEEvRKNS_12HeaderRecordEtRKNS_9NumParserERKN7openpal6RSliceERNS_12IAPDUHandlerEEUlRSE_jE_E5CountEv, .-_ZNK8opendnp318BufferedCollectionINS_7IndexedINS_17AnalogOutputInt32EEEZNS_16CountIndexParser13InvokeCountOfINS_11Group41Var1EEEvRKNS_12HeaderRecordEtRKNS_9NumParserERKN7openpal6RSliceERNS_12IAPDUHandlerEEUlRSE_jE_E5CountEv
	.section	.text._ZNK8opendnp318BufferedCollectionINS_7IndexedINS_6AnalogEEEZNS_16CountIndexParser13InvokeCountOfINS_11Group32Var8EEEvRKNS_12HeaderRecordEtRKNS_9NumParserERKN7openpal6RSliceERNS_12IAPDUHandlerEEUlRSE_jE_E5CountEv,"axG",%progbits,_ZNK8opendnp318BufferedCollectionINS_7IndexedINS_6AnalogEEEZNS_16CountIndexParser13InvokeCountOfINS_11Group32Var8EEEvRKNS_12HeaderRecordEtRKNS_9NumParserERKN7openpal6RSliceERNS_12IAPDUHandlerEEUlRSE_jE_E5CountEv,comdat
	.align	2
	.weak	_ZNK8opendnp318BufferedCollectionINS_7IndexedINS_6AnalogEEEZNS_16CountIndexParser13InvokeCountOfINS_11Group32Var8EEEvRKNS_12HeaderRecordEtRKNS_9NumParserERKN7openpal6RSliceERNS_12IAPDUHandlerEEUlRSE_jE_E5CountEv
	.syntax unified
	.arm
	.fpu vfp
	.type	_ZNK8opendnp318BufferedCollectionINS_7IndexedINS_6AnalogEEEZNS_16CountIndexParser13InvokeCountOfINS_11Group32Var8EEEvRKNS_12HeaderRecordEtRKNS_9NumParserERKN7openpal6RSliceERNS_12IAPDUHandlerEEUlRSE_jE_E5CountEv, %function
_ZNK8opendnp318BufferedCollectionINS_7IndexedINS_6AnalogEEEZNS_16CountIndexParser13InvokeCountOfINS_11Group32Var8EEEvRKNS_12HeaderRecordEtRKNS_9NumParserERKN7openpal6RSliceERNS_12IAPDUHandlerEEUlRSE_jE_E5CountEv:
	.fnstart
.LFB3878:
	@ args = 0, pretend = 0, frame = 0
	@ frame_needed = 0, uses_anonymous_args = 0
	@ link register save eliminated.
	ldr	r0, [r0, #12]
	bx	lr
	.cantunwind
	.fnend
	.size	_ZNK8opendnp318BufferedCollectionINS_7IndexedINS_6AnalogEEEZNS_16CountIndexParser13InvokeCountOfINS_11Group32Var8EEEvRKNS_12HeaderRecordEtRKNS_9NumParserERKN7openpal6RSliceERNS_12IAPDUHandlerEEUlRSE_jE_E5CountEv, .-_ZNK8opendnp318BufferedCollectionINS_7IndexedINS_6AnalogEEEZNS_16CountIndexParser13InvokeCountOfINS_11Group32Var8EEEvRKNS_12HeaderRecordEtRKNS_9NumParserERKN7openpal6RSliceERNS_12IAPDUHandlerEEUlRSE_jE_E5CountEv
	.section	.text._ZNK8opendnp318BufferedCollectionINS_7IndexedINS_6AnalogEEEZNS_16CountIndexParser13InvokeCountOfINS_11Group32Var7EEEvRKNS_12HeaderRecordEtRKNS_9NumParserERKN7openpal6RSliceERNS_12IAPDUHandlerEEUlRSE_jE_E5CountEv,"axG",%progbits,_ZNK8opendnp318BufferedCollectionINS_7IndexedINS_6AnalogEEEZNS_16CountIndexParser13InvokeCountOfINS_11Group32Var7EEEvRKNS_12HeaderRecordEtRKNS_9NumParserERKN7openpal6RSliceERNS_12IAPDUHandlerEEUlRSE_jE_E5CountEv,comdat
	.align	2
	.weak	_ZNK8opendnp318BufferedCollectionINS_7IndexedINS_6AnalogEEEZNS_16CountIndexParser13InvokeCountOfINS_11Group32Var7EEEvRKNS_12HeaderRecordEtRKNS_9NumParserERKN7openpal6RSliceERNS_12IAPDUHandlerEEUlRSE_jE_E5CountEv
	.syntax unified
	.arm
	.fpu vfp
	.type	_ZNK8opendnp318BufferedCollectionINS_7IndexedINS_6AnalogEEEZNS_16CountIndexParser13InvokeCountOfINS_11Group32Var7EEEvRKNS_12HeaderRecordEtRKNS_9NumParserERKN7openpal6RSliceERNS_12IAPDUHandlerEEUlRSE_jE_E5CountEv, %function
_ZNK8opendnp318BufferedCollectionINS_7IndexedINS_6AnalogEEEZNS_16CountIndexParser13InvokeCountOfINS_11Group32Var7EEEvRKNS_12HeaderRecordEtRKNS_9NumParserERKN7openpal6RSliceERNS_12IAPDUHandlerEEUlRSE_jE_E5CountEv:
	.fnstart
.LFB3880:
	@ args = 0, pretend = 0, frame = 0
	@ frame_needed = 0, uses_anonymous_args = 0
	@ link register save eliminated.
	ldr	r0, [r0, #12]
	bx	lr
	.cantunwind
	.fnend
	.size	_ZNK8opendnp318BufferedCollectionINS_7IndexedINS_6AnalogEEEZNS_16CountIndexParser13InvokeCountOfINS_11Group32Var7EEEvRKNS_12HeaderRecordEtRKNS_9NumParserERKN7openpal6RSliceERNS_12IAPDUHandlerEEUlRSE_jE_E5CountEv, .-_ZNK8opendnp318BufferedCollectionINS_7IndexedINS_6AnalogEEEZNS_16CountIndexParser13InvokeCountOfINS_11Group32Var7EEEvRKNS_12HeaderRecordEtRKNS_9NumParserERKN7openpal6RSliceERNS_12IAPDUHandlerEEUlRSE_jE_E5CountEv
	.section	.text._ZNK8opendnp318BufferedCollectionINS_7IndexedINS_6AnalogEEEZNS_16CountIndexParser13InvokeCountOfINS_11Group32Var6EEEvRKNS_12HeaderRecordEtRKNS_9NumParserERKN7openpal6RSliceERNS_12IAPDUHandlerEEUlRSE_jE_E5CountEv,"axG",%progbits,_ZNK8opendnp318BufferedCollectionINS_7IndexedINS_6AnalogEEEZNS_16CountIndexParser13InvokeCountOfINS_11Group32Var6EEEvRKNS_12HeaderRecordEtRKNS_9NumParserERKN7openpal6RSliceERNS_12IAPDUHandlerEEUlRSE_jE_E5CountEv,comdat
	.align	2
	.weak	_ZNK8opendnp318BufferedCollectionINS_7IndexedINS_6AnalogEEEZNS_16CountIndexParser13InvokeCountOfINS_11Group32Var6EEEvRKNS_12HeaderRecordEtRKNS_9NumParserERKN7openpal6RSliceERNS_12IAPDUHandlerEEUlRSE_jE_E5CountEv
	.syntax unified
	.arm
	.fpu vfp
	.type	_ZNK8opendnp318BufferedCollectionINS_7IndexedINS_6AnalogEEEZNS_16CountIndexParser13InvokeCountOfINS_11Group32Var6EEEvRKNS_12HeaderRecordEtRKNS_9NumParserERKN7openpal6RSliceERNS_12IAPDUHandlerEEUlRSE_jE_E5CountEv, %function
_ZNK8opendnp318BufferedCollectionINS_7IndexedINS_6AnalogEEEZNS_16CountIndexParser13InvokeCountOfINS_11Group32Var6EEEvRKNS_12HeaderRecordEtRKNS_9NumParserERKN7openpal6RSliceERNS_12IAPDUHandlerEEUlRSE_jE_E5CountEv:
	.fnstart
.LFB3882:
	@ args = 0, pretend = 0, frame = 0
	@ frame_needed = 0, uses_anonymous_args = 0
	@ link register save eliminated.
	ldr	r0, [r0, #12]
	bx	lr
	.cantunwind
	.fnend
	.size	_ZNK8opendnp318BufferedCollectionINS_7IndexedINS_6AnalogEEEZNS_16CountIndexParser13InvokeCountOfINS_11Group32Var6EEEvRKNS_12HeaderRecordEtRKNS_9NumParserERKN7openpal6RSliceERNS_12IAPDUHandlerEEUlRSE_jE_E5CountEv, .-_ZNK8opendnp318BufferedCollectionINS_7IndexedINS_6AnalogEEEZNS_16CountIndexParser13InvokeCountOfINS_11Group32Var6EEEvRKNS_12HeaderRecordEtRKNS_9NumParserERKN7openpal6RSliceERNS_12IAPDUHandlerEEUlRSE_jE_E5CountEv
	.section	.text._ZNK8opendnp318BufferedCollectionINS_7IndexedINS_6AnalogEEEZNS_16CountIndexParser13InvokeCountOfINS_11Group32Var5EEEvRKNS_12HeaderRecordEtRKNS_9NumParserERKN7openpal6RSliceERNS_12IAPDUHandlerEEUlRSE_jE_E5CountEv,"axG",%progbits,_ZNK8opendnp318BufferedCollectionINS_7IndexedINS_6AnalogEEEZNS_16CountIndexParser13InvokeCountOfINS_11Group32Var5EEEvRKNS_12HeaderRecordEtRKNS_9NumParserERKN7openpal6RSliceERNS_12IAPDUHandlerEEUlRSE_jE_E5CountEv,comdat
	.align	2
	.weak	_ZNK8opendnp318BufferedCollectionINS_7IndexedINS_6AnalogEEEZNS_16CountIndexParser13InvokeCountOfINS_11Group32Var5EEEvRKNS_12HeaderRecordEtRKNS_9NumParserERKN7openpal6RSliceERNS_12IAPDUHandlerEEUlRSE_jE_E5CountEv
	.syntax unified
	.arm
	.fpu vfp
	.type	_ZNK8opendnp318BufferedCollectionINS_7IndexedINS_6AnalogEEEZNS_16CountIndexParser13InvokeCountOfINS_11Group32Var5EEEvRKNS_12HeaderRecordEtRKNS_9NumParserERKN7openpal6RSliceERNS_12IAPDUHandlerEEUlRSE_jE_E5CountEv, %function
_ZNK8opendnp318BufferedCollectionINS_7IndexedINS_6AnalogEEEZNS_16CountIndexParser13InvokeCountOfINS_11Group32Var5EEEvRKNS_12HeaderRecordEtRKNS_9NumParserERKN7openpal6RSliceERNS_12IAPDUHandlerEEUlRSE_jE_E5CountEv:
	.fnstart
.LFB3884:
	@ args = 0, pretend = 0, frame = 0
	@ frame_needed = 0, uses_anonymous_args = 0
	@ link register save eliminated.
	ldr	r0, [r0, #12]
	bx	lr
	.cantunwind
	.fnend
	.size	_ZNK8opendnp318BufferedCollectionINS_7IndexedINS_6AnalogEEEZNS_16CountIndexParser13InvokeCountOfINS_11Group32Var5EEEvRKNS_12HeaderRecordEtRKNS_9NumParserERKN7openpal6RSliceERNS_12IAPDUHandlerEEUlRSE_jE_E5CountEv, .-_ZNK8opendnp318BufferedCollectionINS_7IndexedINS_6AnalogEEEZNS_16CountIndexParser13InvokeCountOfINS_11Group32Var5EEEvRKNS_12HeaderRecordEtRKNS_9NumParserERKN7openpal6RSliceERNS_12IAPDUHandlerEEUlRSE_jE_E5CountEv
	.section	.text._ZNK8opendnp318BufferedCollectionINS_7IndexedINS_6AnalogEEEZNS_16CountIndexParser13InvokeCountOfINS_11Group32Var4EEEvRKNS_12HeaderRecordEtRKNS_9NumParserERKN7openpal6RSliceERNS_12IAPDUHandlerEEUlRSE_jE_E5CountEv,"axG",%progbits,_ZNK8opendnp318BufferedCollectionINS_7IndexedINS_6AnalogEEEZNS_16CountIndexParser13InvokeCountOfINS_11Group32Var4EEEvRKNS_12HeaderRecordEtRKNS_9NumParserERKN7openpal6RSliceERNS_12IAPDUHandlerEEUlRSE_jE_E5CountEv,comdat
	.align	2
	.weak	_ZNK8opendnp318BufferedCollectionINS_7IndexedINS_6AnalogEEEZNS_16CountIndexParser13InvokeCountOfINS_11Group32Var4EEEvRKNS_12HeaderRecordEtRKNS_9NumParserERKN7openpal6RSliceERNS_12IAPDUHandlerEEUlRSE_jE_E5CountEv
	.syntax unified
	.arm
	.fpu vfp
	.type	_ZNK8opendnp318BufferedCollectionINS_7IndexedINS_6AnalogEEEZNS_16CountIndexParser13InvokeCountOfINS_11Group32Var4EEEvRKNS_12HeaderRecordEtRKNS_9NumParserERKN7openpal6RSliceERNS_12IAPDUHandlerEEUlRSE_jE_E5CountEv, %function
_ZNK8opendnp318BufferedCollectionINS_7IndexedINS_6AnalogEEEZNS_16CountIndexParser13InvokeCountOfINS_11Group32Var4EEEvRKNS_12HeaderRecordEtRKNS_9NumParserERKN7openpal6RSliceERNS_12IAPDUHandlerEEUlRSE_jE_E5CountEv:
	.fnstart
.LFB3886:
	@ args = 0, pretend = 0, frame = 0
	@ frame_needed = 0, uses_anonymous_args = 0
	@ link register save eliminated.
	ldr	r0, [r0, #12]
	bx	lr
	.cantunwind
	.fnend
	.size	_ZNK8opendnp318BufferedCollectionINS_7IndexedINS_6AnalogEEEZNS_16CountIndexParser13InvokeCountOfINS_11Group32Var4EEEvRKNS_12HeaderRecordEtRKNS_9NumParserERKN7openpal6RSliceERNS_12IAPDUHandlerEEUlRSE_jE_E5CountEv, .-_ZNK8opendnp318BufferedCollectionINS_7IndexedINS_6AnalogEEEZNS_16CountIndexParser13InvokeCountOfINS_11Group32Var4EEEvRKNS_12HeaderRecordEtRKNS_9NumParserERKN7openpal6RSliceERNS_12IAPDUHandlerEEUlRSE_jE_E5CountEv
	.section	.text._ZNK8opendnp318BufferedCollectionINS_7IndexedINS_6AnalogEEEZNS_16CountIndexParser13InvokeCountOfINS_11Group32Var3EEEvRKNS_12HeaderRecordEtRKNS_9NumParserERKN7openpal6RSliceERNS_12IAPDUHandlerEEUlRSE_jE_E5CountEv,"axG",%progbits,_ZNK8opendnp318BufferedCollectionINS_7IndexedINS_6AnalogEEEZNS_16CountIndexParser13InvokeCountOfINS_11Group32Var3EEEvRKNS_12HeaderRecordEtRKNS_9NumParserERKN7openpal6RSliceERNS_12IAPDUHandlerEEUlRSE_jE_E5CountEv,comdat
	.align	2
	.weak	_ZNK8opendnp318BufferedCollectionINS_7IndexedINS_6AnalogEEEZNS_16CountIndexParser13InvokeCountOfINS_11Group32Var3EEEvRKNS_12HeaderRecordEtRKNS_9NumParserERKN7openpal6RSliceERNS_12IAPDUHandlerEEUlRSE_jE_E5CountEv
	.syntax unified
	.arm
	.fpu vfp
	.type	_ZNK8opendnp318BufferedCollectionINS_7IndexedINS_6AnalogEEEZNS_16CountIndexParser13InvokeCountOfINS_11Group32Var3EEEvRKNS_12HeaderRecordEtRKNS_9NumParserERKN7openpal6RSliceERNS_12IAPDUHandlerEEUlRSE_jE_E5CountEv, %function
_ZNK8opendnp318BufferedCollectionINS_7IndexedINS_6AnalogEEEZNS_16CountIndexParser13InvokeCountOfINS_11Group32Var3EEEvRKNS_12HeaderRecordEtRKNS_9NumParserERKN7openpal6RSliceERNS_12IAPDUHandlerEEUlRSE_jE_E5CountEv:
	.fnstart
.LFB3888:
	@ args = 0, pretend = 0, frame = 0
	@ frame_needed = 0, uses_anonymous_args = 0
	@ link register save eliminated.
	ldr	r0, [r0, #12]
	bx	lr
	.cantunwind
	.fnend
	.size	_ZNK8opendnp318BufferedCollectionINS_7IndexedINS_6AnalogEEEZNS_16CountIndexParser13InvokeCountOfINS_11Group32Var3EEEvRKNS_12HeaderRecordEtRKNS_9NumParserERKN7openpal6RSliceERNS_12IAPDUHandlerEEUlRSE_jE_E5CountEv, .-_ZNK8opendnp318BufferedCollectionINS_7IndexedINS_6AnalogEEEZNS_16CountIndexParser13InvokeCountOfINS_11Group32Var3EEEvRKNS_12HeaderRecordEtRKNS_9NumParserERKN7openpal6RSliceERNS_12IAPDUHandlerEEUlRSE_jE_E5CountEv
	.section	.text._ZNK8opendnp318BufferedCollectionINS_7IndexedINS_6AnalogEEEZNS_16CountIndexParser13InvokeCountOfINS_11Group32Var2EEEvRKNS_12HeaderRecordEtRKNS_9NumParserERKN7openpal6RSliceERNS_12IAPDUHandlerEEUlRSE_jE_E5CountEv,"axG",%progbits,_ZNK8opendnp318BufferedCollectionINS_7IndexedINS_6AnalogEEEZNS_16CountIndexParser13InvokeCountOfINS_11Group32Var2EEEvRKNS_12HeaderRecordEtRKNS_9NumParserERKN7openpal6RSliceERNS_12IAPDUHandlerEEUlRSE_jE_E5CountEv,comdat
	.align	2
	.weak	_ZNK8opendnp318BufferedCollectionINS_7IndexedINS_6AnalogEEEZNS_16CountIndexParser13InvokeCountOfINS_11Group32Var2EEEvRKNS_12HeaderRecordEtRKNS_9NumParserERKN7openpal6RSliceERNS_12IAPDUHandlerEEUlRSE_jE_E5CountEv
	.syntax unified
	.arm
	.fpu vfp
	.type	_ZNK8opendnp318BufferedCollectionINS_7IndexedINS_6AnalogEEEZNS_16CountIndexParser13InvokeCountOfINS_11Group32Var2EEEvRKNS_12HeaderRecordEtRKNS_9NumParserERKN7openpal6RSliceERNS_12IAPDUHandlerEEUlRSE_jE_E5CountEv, %function
_ZNK8opendnp318BufferedCollectionINS_7IndexedINS_6AnalogEEEZNS_16CountIndexParser13InvokeCountOfINS_11Group32Var2EEEvRKNS_12HeaderRecordEtRKNS_9NumParserERKN7openpal6RSliceERNS_12IAPDUHandlerEEUlRSE_jE_E5CountEv:
	.fnstart
.LFB3890:
	@ args = 0, pretend = 0, frame = 0
	@ frame_needed = 0, uses_anonymous_args = 0
	@ link register save eliminated.
	ldr	r0, [r0, #12]
	bx	lr
	.cantunwind
	.fnend
	.size	_ZNK8opendnp318BufferedCollectionINS_7IndexedINS_6AnalogEEEZNS_16CountIndexParser13InvokeCountOfINS_11Group32Var2EEEvRKNS_12HeaderRecordEtRKNS_9NumParserERKN7openpal6RSliceERNS_12IAPDUHandlerEEUlRSE_jE_E5CountEv, .-_ZNK8opendnp318BufferedCollectionINS_7IndexedINS_6AnalogEEEZNS_16CountIndexParser13InvokeCountOfINS_11Group32Var2EEEvRKNS_12HeaderRecordEtRKNS_9NumParserERKN7openpal6RSliceERNS_12IAPDUHandlerEEUlRSE_jE_E5CountEv
	.section	.text._ZNK8opendnp318BufferedCollectionINS_7IndexedINS_6AnalogEEEZNS_16CountIndexParser13InvokeCountOfINS_11Group32Var1EEEvRKNS_12HeaderRecordEtRKNS_9NumParserERKN7openpal6RSliceERNS_12IAPDUHandlerEEUlRSE_jE_E5CountEv,"axG",%progbits,_ZNK8opendnp318BufferedCollectionINS_7IndexedINS_6AnalogEEEZNS_16CountIndexParser13InvokeCountOfINS_11Group32Var1EEEvRKNS_12HeaderRecordEtRKNS_9NumParserERKN7openpal6RSliceERNS_12IAPDUHandlerEEUlRSE_jE_E5CountEv,comdat
	.align	2
	.weak	_ZNK8opendnp318BufferedCollectionINS_7IndexedINS_6AnalogEEEZNS_16CountIndexParser13InvokeCountOfINS_11Group32Var1EEEvRKNS_12HeaderRecordEtRKNS_9NumParserERKN7openpal6RSliceERNS_12IAPDUHandlerEEUlRSE_jE_E5CountEv
	.syntax unified
	.arm
	.fpu vfp
	.type	_ZNK8opendnp318BufferedCollectionINS_7IndexedINS_6AnalogEEEZNS_16CountIndexParser13InvokeCountOfINS_11Group32Var1EEEvRKNS_12HeaderRecordEtRKNS_9NumParserERKN7openpal6RSliceERNS_12IAPDUHandlerEEUlRSE_jE_E5CountEv, %function
_ZNK8opendnp318BufferedCollectionINS_7IndexedINS_6AnalogEEEZNS_16CountIndexParser13InvokeCountOfINS_11Group32Var1EEEvRKNS_12HeaderRecordEtRKNS_9NumParserERKN7openpal6RSliceERNS_12IAPDUHandlerEEUlRSE_jE_E5CountEv:
	.fnstart
.LFB3892:
	@ args = 0, pretend = 0, frame = 0
	@ frame_needed = 0, uses_anonymous_args = 0
	@ link register save eliminated.
	ldr	r0, [r0, #12]
	bx	lr
	.cantunwind
	.fnend
	.size	_ZNK8opendnp318BufferedCollectionINS_7IndexedINS_6AnalogEEEZNS_16CountIndexParser13InvokeCountOfINS_11Group32Var1EEEvRKNS_12HeaderRecordEtRKNS_9NumParserERKN7openpal6RSliceERNS_12IAPDUHandlerEEUlRSE_jE_E5CountEv, .-_ZNK8opendnp318BufferedCollectionINS_7IndexedINS_6AnalogEEEZNS_16CountIndexParser13InvokeCountOfINS_11Group32Var1EEEvRKNS_12HeaderRecordEtRKNS_9NumParserERKN7openpal6RSliceERNS_12IAPDUHandlerEEUlRSE_jE_E5CountEv
	.section	.text._ZNK8opendnp318BufferedCollectionINS_7IndexedINS_13FrozenCounterEEEZNS_16CountIndexParser13InvokeCountOfINS_11Group23Var6EEEvRKNS_12HeaderRecordEtRKNS_9NumParserERKN7openpal6RSliceERNS_12IAPDUHandlerEEUlRSE_jE_E5CountEv,"axG",%progbits,_ZNK8opendnp318BufferedCollectionINS_7IndexedINS_13FrozenCounterEEEZNS_16CountIndexParser13InvokeCountOfINS_11Group23Var6EEEvRKNS_12HeaderRecordEtRKNS_9NumParserERKN7openpal6RSliceERNS_12IAPDUHandlerEEUlRSE_jE_E5CountEv,comdat
	.align	2
	.weak	_ZNK8opendnp318BufferedCollectionINS_7IndexedINS_13FrozenCounterEEEZNS_16CountIndexParser13InvokeCountOfINS_11Group23Var6EEEvRKNS_12HeaderRecordEtRKNS_9NumParserERKN7openpal6RSliceERNS_12IAPDUHandlerEEUlRSE_jE_E5CountEv
	.syntax unified
	.arm
	.fpu vfp
	.type	_ZNK8opendnp318BufferedCollectionINS_7IndexedINS_13FrozenCounterEEEZNS_16CountIndexParser13InvokeCountOfINS_11Group23Var6EEEvRKNS_12HeaderRecordEtRKNS_9NumParserERKN7openpal6RSliceERNS_12IAPDUHandlerEEUlRSE_jE_E5CountEv, %function
_ZNK8opendnp318BufferedCollectionINS_7IndexedINS_13FrozenCounterEEEZNS_16CountIndexParser13InvokeCountOfINS_11Group23Var6EEEvRKNS_12HeaderRecordEtRKNS_9NumParserERKN7openpal6RSliceERNS_12IAPDUHandlerEEUlRSE_jE_E5CountEv:
	.fnstart
.LFB3894:
	@ args = 0, pretend = 0, frame = 0
	@ frame_needed = 0, uses_anonymous_args = 0
	@ link register save eliminated.
	ldr	r0, [r0, #12]
	bx	lr
	.cantunwind
	.fnend
	.size	_ZNK8opendnp318BufferedCollectionINS_7IndexedINS_13FrozenCounterEEEZNS_16CountIndexParser13InvokeCountOfINS_11Group23Var6EEEvRKNS_12HeaderRecordEtRKNS_9NumParserERKN7openpal6RSliceERNS_12IAPDUHandlerEEUlRSE_jE_E5CountEv, .-_ZNK8opendnp318BufferedCollectionINS_7IndexedINS_13FrozenCounterEEEZNS_16CountIndexParser13InvokeCountOfINS_11Group23Var6EEEvRKNS_12HeaderRecordEtRKNS_9NumParserERKN7openpal6RSliceERNS_12IAPDUHandlerEEUlRSE_jE_E5CountEv
	.section	.text._ZNK8opendnp318BufferedCollectionINS_7IndexedINS_13FrozenCounterEEEZNS_16CountIndexParser13InvokeCountOfINS_11Group23Var5EEEvRKNS_12HeaderRecordEtRKNS_9NumParserERKN7openpal6RSliceERNS_12IAPDUHandlerEEUlRSE_jE_E5CountEv,"axG",%progbits,_ZNK8opendnp318BufferedCollectionINS_7IndexedINS_13FrozenCounterEEEZNS_16CountIndexParser13InvokeCountOfINS_11Group23Var5EEEvRKNS_12HeaderRecordEtRKNS_9NumParserERKN7openpal6RSliceERNS_12IAPDUHandlerEEUlRSE_jE_E5CountEv,comdat
	.align	2
	.weak	_ZNK8opendnp318BufferedCollectionINS_7IndexedINS_13FrozenCounterEEEZNS_16CountIndexParser13InvokeCountOfINS_11Group23Var5EEEvRKNS_12HeaderRecordEtRKNS_9NumParserERKN7openpal6RSliceERNS_12IAPDUHandlerEEUlRSE_jE_E5CountEv
	.syntax unified
	.arm
	.fpu vfp
	.type	_ZNK8opendnp318BufferedCollectionINS_7IndexedINS_13FrozenCounterEEEZNS_16CountIndexParser13InvokeCountOfINS_11Group23Var5EEEvRKNS_12HeaderRecordEtRKNS_9NumParserERKN7openpal6RSliceERNS_12IAPDUHandlerEEUlRSE_jE_E5CountEv, %function
_ZNK8opendnp318BufferedCollectionINS_7IndexedINS_13FrozenCounterEEEZNS_16CountIndexParser13InvokeCountOfINS_11Group23Var5EEEvRKNS_12HeaderRecordEtRKNS_9NumParserERKN7openpal6RSliceERNS_12IAPDUHandlerEEUlRSE_jE_E5CountEv:
	.fnstart
.LFB3896:
	@ args = 0, pretend = 0, frame = 0
	@ frame_needed = 0, uses_anonymous_args = 0
	@ link register save eliminated.
	ldr	r0, [r0, #12]
	bx	lr
	.cantunwind
	.fnend
	.size	_ZNK8opendnp318BufferedCollectionINS_7IndexedINS_13FrozenCounterEEEZNS_16CountIndexParser13InvokeCountOfINS_11Group23Var5EEEvRKNS_12HeaderRecordEtRKNS_9NumParserERKN7openpal6RSliceERNS_12IAPDUHandlerEEUlRSE_jE_E5CountEv, .-_ZNK8opendnp318BufferedCollectionINS_7IndexedINS_13FrozenCounterEEEZNS_16CountIndexParser13InvokeCountOfINS_11Group23Var5EEEvRKNS_12HeaderRecordEtRKNS_9NumParserERKN7openpal6RSliceERNS_12IAPDUHandlerEEUlRSE_jE_E5CountEv
	.section	.text._ZNK8opendnp318BufferedCollectionINS_7IndexedINS_13FrozenCounterEEEZNS_16CountIndexParser13InvokeCountOfINS_11Group23Var2EEEvRKNS_12HeaderRecordEtRKNS_9NumParserERKN7openpal6RSliceERNS_12IAPDUHandlerEEUlRSE_jE_E5CountEv,"axG",%progbits,_ZNK8opendnp318BufferedCollectionINS_7IndexedINS_13FrozenCounterEEEZNS_16CountIndexParser13InvokeCountOfINS_11Group23Var2EEEvRKNS_12HeaderRecordEtRKNS_9NumParserERKN7openpal6RSliceERNS_12IAPDUHandlerEEUlRSE_jE_E5CountEv,comdat
	.align	2
	.weak	_ZNK8opendnp318BufferedCollectionINS_7IndexedINS_13FrozenCounterEEEZNS_16CountIndexParser13InvokeCountOfINS_11Group23Var2EEEvRKNS_12HeaderRecordEtRKNS_9NumParserERKN7openpal6RSliceERNS_12IAPDUHandlerEEUlRSE_jE_E5CountEv
	.syntax unified
	.arm
	.fpu vfp
	.type	_ZNK8opendnp318BufferedCollectionINS_7IndexedINS_13FrozenCounterEEEZNS_16CountIndexParser13InvokeCountOfINS_11Group23Var2EEEvRKNS_12HeaderRecordEtRKNS_9NumParserERKN7openpal6RSliceERNS_12IAPDUHandlerEEUlRSE_jE_E5CountEv, %function
_ZNK8opendnp318BufferedCollectionINS_7IndexedINS_13FrozenCounterEEEZNS_16CountIndexParser13InvokeCountOfINS_11Group23Var2EEEvRKNS_12HeaderRecordEtRKNS_9NumParserERKN7openpal6RSliceERNS_12IAPDUHandlerEEUlRSE_jE_E5CountEv:
	.fnstart
.LFB3898:
	@ args = 0, pretend = 0, frame = 0
	@ frame_needed = 0, uses_anonymous_args = 0
	@ link register save eliminated.
	ldr	r0, [r0, #12]
	bx	lr
	.cantunwind
	.fnend
	.size	_ZNK8opendnp318BufferedCollectionINS_7IndexedINS_13FrozenCounterEEEZNS_16CountIndexParser13InvokeCountOfINS_11Group23Var2EEEvRKNS_12HeaderRecordEtRKNS_9NumParserERKN7openpal6RSliceERNS_12IAPDUHandlerEEUlRSE_jE_E5CountEv, .-_ZNK8opendnp318BufferedCollectionINS_7IndexedINS_13FrozenCounterEEEZNS_16CountIndexParser13InvokeCountOfINS_11Group23Var2EEEvRKNS_12HeaderRecordEtRKNS_9NumParserERKN7openpal6RSliceERNS_12IAPDUHandlerEEUlRSE_jE_E5CountEv
	.section	.text._ZNK8opendnp318BufferedCollectionINS_7IndexedINS_13FrozenCounterEEEZNS_16CountIndexParser13InvokeCountOfINS_11Group23Var1EEEvRKNS_12HeaderRecordEtRKNS_9NumParserERKN7openpal6RSliceERNS_12IAPDUHandlerEEUlRSE_jE_E5CountEv,"axG",%progbits,_ZNK8opendnp318BufferedCollectionINS_7IndexedINS_13FrozenCounterEEEZNS_16CountIndexParser13InvokeCountOfINS_11Group23Var1EEEvRKNS_12HeaderRecordEtRKNS_9NumParserERKN7openpal6RSliceERNS_12IAPDUHandlerEEUlRSE_jE_E5CountEv,comdat
	.align	2
	.weak	_ZNK8opendnp318BufferedCollectionINS_7IndexedINS_13FrozenCounterEEEZNS_16CountIndexParser13InvokeCountOfINS_11Group23Var1EEEvRKNS_12HeaderRecordEtRKNS_9NumParserERKN7openpal6RSliceERNS_12IAPDUHandlerEEUlRSE_jE_E5CountEv
	.syntax unified
	.arm
	.fpu vfp
	.type	_ZNK8opendnp318BufferedCollectionINS_7IndexedINS_13FrozenCounterEEEZNS_16CountIndexParser13InvokeCountOfINS_11Group23Var1EEEvRKNS_12HeaderRecordEtRKNS_9NumParserERKN7openpal6RSliceERNS_12IAPDUHandlerEEUlRSE_jE_E5CountEv, %function
_ZNK8opendnp318BufferedCollectionINS_7IndexedINS_13FrozenCounterEEEZNS_16CountIndexParser13InvokeCountOfINS_11Group23Var1EEEvRKNS_12HeaderRecordEtRKNS_9NumParserERKN7openpal6RSliceERNS_12IAPDUHandlerEEUlRSE_jE_E5CountEv:
	.fnstart
.LFB3900:
	@ args = 0, pretend = 0, frame = 0
	@ frame_needed = 0, uses_anonymous_args = 0
	@ link register save eliminated.
	ldr	r0, [r0, #12]
	bx	lr
	.cantunwind
	.fnend
	.size	_ZNK8opendnp318BufferedCollectionINS_7IndexedINS_13FrozenCounterEEEZNS_16CountIndexParser13InvokeCountOfINS_11Group23Var1EEEvRKNS_12HeaderRecordEtRKNS_9NumParserERKN7openpal6RSliceERNS_12IAPDUHandlerEEUlRSE_jE_E5CountEv, .-_ZNK8opendnp318BufferedCollectionINS_7IndexedINS_13FrozenCounterEEEZNS_16CountIndexParser13InvokeCountOfINS_11Group23Var1EEEvRKNS_12HeaderRecordEtRKNS_9NumParserERKN7openpal6RSliceERNS_12IAPDUHandlerEEUlRSE_jE_E5CountEv
	.section	.text._ZNK8opendnp318BufferedCollectionINS_7IndexedINS_7CounterEEEZNS_16CountIndexParser13InvokeCountOfINS_11Group22Var6EEEvRKNS_12HeaderRecordEtRKNS_9NumParserERKN7openpal6RSliceERNS_12IAPDUHandlerEEUlRSE_jE_E5CountEv,"axG",%progbits,_ZNK8opendnp318BufferedCollectionINS_7IndexedINS_7CounterEEEZNS_16CountIndexParser13InvokeCountOfINS_11Group22Var6EEEvRKNS_12HeaderRecordEtRKNS_9NumParserERKN7openpal6RSliceERNS_12IAPDUHandlerEEUlRSE_jE_E5CountEv,comdat
	.align	2
	.weak	_ZNK8opendnp318BufferedCollectionINS_7IndexedINS_7CounterEEEZNS_16CountIndexParser13InvokeCountOfINS_11Group22Var6EEEvRKNS_12HeaderRecordEtRKNS_9NumParserERKN7openpal6RSliceERNS_12IAPDUHandlerEEUlRSE_jE_E5CountEv
	.syntax unified
	.arm
	.fpu vfp
	.type	_ZNK8opendnp318BufferedCollectionINS_7IndexedINS_7CounterEEEZNS_16CountIndexParser13InvokeCountOfINS_11Group22Var6EEEvRKNS_12HeaderRecordEtRKNS_9NumParserERKN7openpal6RSliceERNS_12IAPDUHandlerEEUlRSE_jE_E5CountEv, %function
_ZNK8opendnp318BufferedCollectionINS_7IndexedINS_7CounterEEEZNS_16CountIndexParser13InvokeCountOfINS_11Group22Var6EEEvRKNS_12HeaderRecordEtRKNS_9NumParserERKN7openpal6RSliceERNS_12IAPDUHandlerEEUlRSE_jE_E5CountEv:
	.fnstart
.LFB3902:
	@ args = 0, pretend = 0, frame = 0
	@ frame_needed = 0, uses_anonymous_args = 0
	@ link register save eliminated.
	ldr	r0, [r0, #12]
	bx	lr
	.cantunwind
	.fnend
	.size	_ZNK8opendnp318BufferedCollectionINS_7IndexedINS_7CounterEEEZNS_16CountIndexParser13InvokeCountOfINS_11Group22Var6EEEvRKNS_12HeaderRecordEtRKNS_9NumParserERKN7openpal6RSliceERNS_12IAPDUHandlerEEUlRSE_jE_E5CountEv, .-_ZNK8opendnp318BufferedCollectionINS_7IndexedINS_7CounterEEEZNS_16CountIndexParser13InvokeCountOfINS_11Group22Var6EEEvRKNS_12HeaderRecordEtRKNS_9NumParserERKN7openpal6RSliceERNS_12IAPDUHandlerEEUlRSE_jE_E5CountEv
	.section	.text._ZNK8opendnp318BufferedCollectionINS_7IndexedINS_7CounterEEEZNS_16CountIndexParser13InvokeCountOfINS_11Group22Var5EEEvRKNS_12HeaderRecordEtRKNS_9NumParserERKN7openpal6RSliceERNS_12IAPDUHandlerEEUlRSE_jE_E5CountEv,"axG",%progbits,_ZNK8opendnp318BufferedCollectionINS_7IndexedINS_7CounterEEEZNS_16CountIndexParser13InvokeCountOfINS_11Group22Var5EEEvRKNS_12HeaderRecordEtRKNS_9NumParserERKN7openpal6RSliceERNS_12IAPDUHandlerEEUlRSE_jE_E5CountEv,comdat
	.align	2
	.weak	_ZNK8opendnp318BufferedCollectionINS_7IndexedINS_7CounterEEEZNS_16CountIndexParser13InvokeCountOfINS_11Group22Var5EEEvRKNS_12HeaderRecordEtRKNS_9NumParserERKN7openpal6RSliceERNS_12IAPDUHandlerEEUlRSE_jE_E5CountEv
	.syntax unified
	.arm
	.fpu vfp
	.type	_ZNK8opendnp318BufferedCollectionINS_7IndexedINS_7CounterEEEZNS_16CountIndexParser13InvokeCountOfINS_11Group22Var5EEEvRKNS_12HeaderRecordEtRKNS_9NumParserERKN7openpal6RSliceERNS_12IAPDUHandlerEEUlRSE_jE_E5CountEv, %function
_ZNK8opendnp318BufferedCollectionINS_7IndexedINS_7CounterEEEZNS_16CountIndexParser13InvokeCountOfINS_11Group22Var5EEEvRKNS_12HeaderRecordEtRKNS_9NumParserERKN7openpal6RSliceERNS_12IAPDUHandlerEEUlRSE_jE_E5CountEv:
	.fnstart
.LFB3904:
	@ args = 0, pretend = 0, frame = 0
	@ frame_needed = 0, uses_anonymous_args = 0
	@ link register save eliminated.
	ldr	r0, [r0, #12]
	bx	lr
	.cantunwind
	.fnend
	.size	_ZNK8opendnp318BufferedCollectionINS_7IndexedINS_7CounterEEEZNS_16CountIndexParser13InvokeCountOfINS_11Group22Var5EEEvRKNS_12HeaderRecordEtRKNS_9NumParserERKN7openpal6RSliceERNS_12IAPDUHandlerEEUlRSE_jE_E5CountEv, .-_ZNK8opendnp318BufferedCollectionINS_7IndexedINS_7CounterEEEZNS_16CountIndexParser13InvokeCountOfINS_11Group22Var5EEEvRKNS_12HeaderRecordEtRKNS_9NumParserERKN7openpal6RSliceERNS_12IAPDUHandlerEEUlRSE_jE_E5CountEv
	.section	.text._ZNK8opendnp318BufferedCollectionINS_7IndexedINS_7CounterEEEZNS_16CountIndexParser13InvokeCountOfINS_11Group22Var2EEEvRKNS_12HeaderRecordEtRKNS_9NumParserERKN7openpal6RSliceERNS_12IAPDUHandlerEEUlRSE_jE_E5CountEv,"axG",%progbits,_ZNK8opendnp318BufferedCollectionINS_7IndexedINS_7CounterEEEZNS_16CountIndexParser13InvokeCountOfINS_11Group22Var2EEEvRKNS_12HeaderRecordEtRKNS_9NumParserERKN7openpal6RSliceERNS_12IAPDUHandlerEEUlRSE_jE_E5CountEv,comdat
	.align	2
	.weak	_ZNK8opendnp318BufferedCollectionINS_7IndexedINS_7CounterEEEZNS_16CountIndexParser13InvokeCountOfINS_11Group22Var2EEEvRKNS_12HeaderRecordEtRKNS_9NumParserERKN7openpal6RSliceERNS_12IAPDUHandlerEEUlRSE_jE_E5CountEv
	.syntax unified
	.arm
	.fpu vfp
	.type	_ZNK8opendnp318BufferedCollectionINS_7IndexedINS_7CounterEEEZNS_16CountIndexParser13InvokeCountOfINS_11Group22Var2EEEvRKNS_12HeaderRecordEtRKNS_9NumParserERKN7openpal6RSliceERNS_12IAPDUHandlerEEUlRSE_jE_E5CountEv, %function
_ZNK8opendnp318BufferedCollectionINS_7IndexedINS_7CounterEEEZNS_16CountIndexParser13InvokeCountOfINS_11Group22Var2EEEvRKNS_12HeaderRecordEtRKNS_9NumParserERKN7openpal6RSliceERNS_12IAPDUHandlerEEUlRSE_jE_E5CountEv:
	.fnstart
.LFB3906:
	@ args = 0, pretend = 0, frame = 0
	@ frame_needed = 0, uses_anonymous_args = 0
	@ link register save eliminated.
	ldr	r0, [r0, #12]
	bx	lr
	.cantunwind
	.fnend
	.size	_ZNK8opendnp318BufferedCollectionINS_7IndexedINS_7CounterEEEZNS_16CountIndexParser13InvokeCountOfINS_11Group22Var2EEEvRKNS_12HeaderRecordEtRKNS_9NumParserERKN7openpal6RSliceERNS_12IAPDUHandlerEEUlRSE_jE_E5CountEv, .-_ZNK8opendnp318BufferedCollectionINS_7IndexedINS_7CounterEEEZNS_16CountIndexParser13InvokeCountOfINS_11Group22Var2EEEvRKNS_12HeaderRecordEtRKNS_9NumParserERKN7openpal6RSliceERNS_12IAPDUHandlerEEUlRSE_jE_E5CountEv
	.section	.text._ZNK8opendnp318BufferedCollectionINS_7IndexedINS_7CounterEEEZNS_16CountIndexParser13InvokeCountOfINS_11Group22Var1EEEvRKNS_12HeaderRecordEtRKNS_9NumParserERKN7openpal6RSliceERNS_12IAPDUHandlerEEUlRSE_jE_E5CountEv,"axG",%progbits,_ZNK8opendnp318BufferedCollectionINS_7IndexedINS_7CounterEEEZNS_16CountIndexParser13InvokeCountOfINS_11Group22Var1EEEvRKNS_12HeaderRecordEtRKNS_9NumParserERKN7openpal6RSliceERNS_12IAPDUHandlerEEUlRSE_jE_E5CountEv,comdat
	.align	2
	.weak	_ZNK8opendnp318BufferedCollectionINS_7IndexedINS_7CounterEEEZNS_16CountIndexParser13InvokeCountOfINS_11Group22Var1EEEvRKNS_12HeaderRecordEtRKNS_9NumParserERKN7openpal6RSliceERNS_12IAPDUHandlerEEUlRSE_jE_E5CountEv
	.syntax unified
	.arm
	.fpu vfp
	.type	_ZNK8opendnp318BufferedCollectionINS_7IndexedINS_7CounterEEEZNS_16CountIndexParser13InvokeCountOfINS_11Group22Var1EEEvRKNS_12HeaderRecordEtRKNS_9NumParserERKN7openpal6RSliceERNS_12IAPDUHandlerEEUlRSE_jE_E5CountEv, %function
_ZNK8opendnp318BufferedCollectionINS_7IndexedINS_7CounterEEEZNS_16CountIndexParser13InvokeCountOfINS_11Group22Var1EEEvRKNS_12HeaderRecordEtRKNS_9NumParserERKN7openpal6RSliceERNS_12IAPDUHandlerEEUlRSE_jE_E5CountEv:
	.fnstart
.LFB3908:
	@ args = 0, pretend = 0, frame = 0
	@ frame_needed = 0, uses_anonymous_args = 0
	@ link register save eliminated.
	ldr	r0, [r0, #12]
	bx	lr
	.cantunwind
	.fnend
	.size	_ZNK8opendnp318BufferedCollectionINS_7IndexedINS_7CounterEEEZNS_16CountIndexParser13InvokeCountOfINS_11Group22Var1EEEvRKNS_12HeaderRecordEtRKNS_9NumParserERKN7openpal6RSliceERNS_12IAPDUHandlerEEUlRSE_jE_E5CountEv, .-_ZNK8opendnp318BufferedCollectionINS_7IndexedINS_7CounterEEEZNS_16CountIndexParser13InvokeCountOfINS_11Group22Var1EEEvRKNS_12HeaderRecordEtRKNS_9NumParserERKN7openpal6RSliceERNS_12IAPDUHandlerEEUlRSE_jE_E5CountEv
	.section	.text._ZNK8opendnp318BufferedCollectionINS_7IndexedINS_18BinaryCommandEventEEEZNS_16CountIndexParser13InvokeCountOfINS_11Group13Var2EEEvRKNS_12HeaderRecordEtRKNS_9NumParserERKN7openpal6RSliceERNS_12IAPDUHandlerEEUlRSE_jE_E5CountEv,"axG",%progbits,_ZNK8opendnp318BufferedCollectionINS_7IndexedINS_18BinaryCommandEventEEEZNS_16CountIndexParser13InvokeCountOfINS_11Group13Var2EEEvRKNS_12HeaderRecordEtRKNS_9NumParserERKN7openpal6RSliceERNS_12IAPDUHandlerEEUlRSE_jE_E5CountEv,comdat
	.align	2
	.weak	_ZNK8opendnp318BufferedCollectionINS_7IndexedINS_18BinaryCommandEventEEEZNS_16CountIndexParser13InvokeCountOfINS_11Group13Var2EEEvRKNS_12HeaderRecordEtRKNS_9NumParserERKN7openpal6RSliceERNS_12IAPDUHandlerEEUlRSE_jE_E5CountEv
	.syntax unified
	.arm
	.fpu vfp
	.type	_ZNK8opendnp318BufferedCollectionINS_7IndexedINS_18BinaryCommandEventEEEZNS_16CountIndexParser13InvokeCountOfINS_11Group13Var2EEEvRKNS_12HeaderRecordEtRKNS_9NumParserERKN7openpal6RSliceERNS_12IAPDUHandlerEEUlRSE_jE_E5CountEv, %function
_ZNK8opendnp318BufferedCollectionINS_7IndexedINS_18BinaryCommandEventEEEZNS_16CountIndexParser13InvokeCountOfINS_11Group13Var2EEEvRKNS_12HeaderRecordEtRKNS_9NumParserERKN7openpal6RSliceERNS_12IAPDUHandlerEEUlRSE_jE_E5CountEv:
	.fnstart
.LFB3910:
	@ args = 0, pretend = 0, frame = 0
	@ frame_needed = 0, uses_anonymous_args = 0
	@ link register save eliminated.
	ldr	r0, [r0, #12]
	bx	lr
	.cantunwind
	.fnend
	.size	_ZNK8opendnp318BufferedCollectionINS_7IndexedINS_18BinaryCommandEventEEEZNS_16CountIndexParser13InvokeCountOfINS_11Group13Var2EEEvRKNS_12HeaderRecordEtRKNS_9NumParserERKN7openpal6RSliceERNS_12IAPDUHandlerEEUlRSE_jE_E5CountEv, .-_ZNK8opendnp318BufferedCollectionINS_7IndexedINS_18BinaryCommandEventEEEZNS_16CountIndexParser13InvokeCountOfINS_11Group13Var2EEEvRKNS_12HeaderRecordEtRKNS_9NumParserERKN7openpal6RSliceERNS_12IAPDUHandlerEEUlRSE_jE_E5CountEv
	.section	.text._ZNK8opendnp318BufferedCollectionINS_7IndexedINS_18BinaryCommandEventEEEZNS_16CountIndexParser13InvokeCountOfINS_11Group13Var1EEEvRKNS_12HeaderRecordEtRKNS_9NumParserERKN7openpal6RSliceERNS_12IAPDUHandlerEEUlRSE_jE_E5CountEv,"axG",%progbits,_ZNK8opendnp318BufferedCollectionINS_7IndexedINS_18BinaryCommandEventEEEZNS_16CountIndexParser13InvokeCountOfINS_11Group13Var1EEEvRKNS_12HeaderRecordEtRKNS_9NumParserERKN7openpal6RSliceERNS_12IAPDUHandlerEEUlRSE_jE_E5CountEv,comdat
	.align	2
	.weak	_ZNK8opendnp318BufferedCollectionINS_7IndexedINS_18BinaryCommandEventEEEZNS_16CountIndexParser13InvokeCountOfINS_11Group13Var1EEEvRKNS_12HeaderRecordEtRKNS_9NumParserERKN7openpal6RSliceERNS_12IAPDUHandlerEEUlRSE_jE_E5CountEv
	.syntax unified
	.arm
	.fpu vfp
	.type	_ZNK8opendnp318BufferedCollectionINS_7IndexedINS_18BinaryCommandEventEEEZNS_16CountIndexParser13InvokeCountOfINS_11Group13Var1EEEvRKNS_12HeaderRecordEtRKNS_9NumParserERKN7openpal6RSliceERNS_12IAPDUHandlerEEUlRSE_jE_E5CountEv, %function
_ZNK8opendnp318BufferedCollectionINS_7IndexedINS_18BinaryCommandEventEEEZNS_16CountIndexParser13InvokeCountOfINS_11Group13Var1EEEvRKNS_12HeaderRecordEtRKNS_9NumParserERKN7openpal6RSliceERNS_12IAPDUHandlerEEUlRSE_jE_E5CountEv:
	.fnstart
.LFB3912:
	@ args = 0, pretend = 0, frame = 0
	@ frame_needed = 0, uses_anonymous_args = 0
	@ link register save eliminated.
	ldr	r0, [r0, #12]
	bx	lr
	.cantunwind
	.fnend
	.size	_ZNK8opendnp318BufferedCollectionINS_7IndexedINS_18BinaryCommandEventEEEZNS_16CountIndexParser13InvokeCountOfINS_11Group13Var1EEEvRKNS_12HeaderRecordEtRKNS_9NumParserERKN7openpal6RSliceERNS_12IAPDUHandlerEEUlRSE_jE_E5CountEv, .-_ZNK8opendnp318BufferedCollectionINS_7IndexedINS_18BinaryCommandEventEEEZNS_16CountIndexParser13InvokeCountOfINS_11Group13Var1EEEvRKNS_12HeaderRecordEtRKNS_9NumParserERKN7openpal6RSliceERNS_12IAPDUHandlerEEUlRSE_jE_E5CountEv
	.section	.text._ZNK8opendnp318BufferedCollectionINS_7IndexedINS_23ControlRelayOutputBlockEEEZNS_16CountIndexParser13InvokeCountOfINS_11Group12Var1EEEvRKNS_12HeaderRecordEtRKNS_9NumParserERKN7openpal6RSliceERNS_12IAPDUHandlerEEUlRSE_jE_E5CountEv,"axG",%progbits,_ZNK8opendnp318BufferedCollectionINS_7IndexedINS_23ControlRelayOutputBlockEEEZNS_16CountIndexParser13InvokeCountOfINS_11Group12Var1EEEvRKNS_12HeaderRecordEtRKNS_9NumParserERKN7openpal6RSliceERNS_12IAPDUHandlerEEUlRSE_jE_E5CountEv,comdat
	.align	2
	.weak	_ZNK8opendnp318BufferedCollectionINS_7IndexedINS_23ControlRelayOutputBlockEEEZNS_16CountIndexParser13InvokeCountOfINS_11Group12Var1EEEvRKNS_12HeaderRecordEtRKNS_9NumParserERKN7openpal6RSliceERNS_12IAPDUHandlerEEUlRSE_jE_E5CountEv
	.syntax unified
	.arm
	.fpu vfp
	.type	_ZNK8opendnp318BufferedCollectionINS_7IndexedINS_23ControlRelayOutputBlockEEEZNS_16CountIndexParser13InvokeCountOfINS_11Group12Var1EEEvRKNS_12HeaderRecordEtRKNS_9NumParserERKN7openpal6RSliceERNS_12IAPDUHandlerEEUlRSE_jE_E5CountEv, %function
_ZNK8opendnp318BufferedCollectionINS_7IndexedINS_23ControlRelayOutputBlockEEEZNS_16CountIndexParser13InvokeCountOfINS_11Group12Var1EEEvRKNS_12HeaderRecordEtRKNS_9NumParserERKN7openpal6RSliceERNS_12IAPDUHandlerEEUlRSE_jE_E5CountEv:
	.fnstart
.LFB3914:
	@ args = 0, pretend = 0, frame = 0
	@ frame_needed = 0, uses_anonymous_args = 0
	@ link register save eliminated.
	ldr	r0, [r0, #12]
	bx	lr
	.cantunwind
	.fnend
	.size	_ZNK8opendnp318BufferedCollectionINS_7IndexedINS_23ControlRelayOutputBlockEEEZNS_16CountIndexParser13InvokeCountOfINS_11Group12Var1EEEvRKNS_12HeaderRecordEtRKNS_9NumParserERKN7openpal6RSliceERNS_12IAPDUHandlerEEUlRSE_jE_E5CountEv, .-_ZNK8opendnp318BufferedCollectionINS_7IndexedINS_23ControlRelayOutputBlockEEEZNS_16CountIndexParser13InvokeCountOfINS_11Group12Var1EEEvRKNS_12HeaderRecordEtRKNS_9NumParserERKN7openpal6RSliceERNS_12IAPDUHandlerEEUlRSE_jE_E5CountEv
	.section	.text._ZNK8opendnp318BufferedCollectionINS_7IndexedINS_18BinaryOutputStatusEEEZNS_16CountIndexParser13InvokeCountOfINS_11Group11Var2EEEvRKNS_12HeaderRecordEtRKNS_9NumParserERKN7openpal6RSliceERNS_12IAPDUHandlerEEUlRSE_jE_E5CountEv,"axG",%progbits,_ZNK8opendnp318BufferedCollectionINS_7IndexedINS_18BinaryOutputStatusEEEZNS_16CountIndexParser13InvokeCountOfINS_11Group11Var2EEEvRKNS_12HeaderRecordEtRKNS_9NumParserERKN7openpal6RSliceERNS_12IAPDUHandlerEEUlRSE_jE_E5CountEv,comdat
	.align	2
	.weak	_ZNK8opendnp318BufferedCollectionINS_7IndexedINS_18BinaryOutputStatusEEEZNS_16CountIndexParser13InvokeCountOfINS_11Group11Var2EEEvRKNS_12HeaderRecordEtRKNS_9NumParserERKN7openpal6RSliceERNS_12IAPDUHandlerEEUlRSE_jE_E5CountEv
	.syntax unified
	.arm
	.fpu vfp
	.type	_ZNK8opendnp318BufferedCollectionINS_7IndexedINS_18BinaryOutputStatusEEEZNS_16CountIndexParser13InvokeCountOfINS_11Group11Var2EEEvRKNS_12HeaderRecordEtRKNS_9NumParserERKN7openpal6RSliceERNS_12IAPDUHandlerEEUlRSE_jE_E5CountEv, %function
_ZNK8opendnp318BufferedCollectionINS_7IndexedINS_18BinaryOutputStatusEEEZNS_16CountIndexParser13InvokeCountOfINS_11Group11Var2EEEvRKNS_12HeaderRecordEtRKNS_9NumParserERKN7openpal6RSliceERNS_12IAPDUHandlerEEUlRSE_jE_E5CountEv:
	.fnstart
.LFB3916:
	@ args = 0, pretend = 0, frame = 0
	@ frame_needed = 0, uses_anonymous_args = 0
	@ link register save eliminated.
	ldr	r0, [r0, #12]
	bx	lr
	.cantunwind
	.fnend
	.size	_ZNK8opendnp318BufferedCollectionINS_7IndexedINS_18BinaryOutputStatusEEEZNS_16CountIndexParser13InvokeCountOfINS_11Group11Var2EEEvRKNS_12HeaderRecordEtRKNS_9NumParserERKN7openpal6RSliceERNS_12IAPDUHandlerEEUlRSE_jE_E5CountEv, .-_ZNK8opendnp318BufferedCollectionINS_7IndexedINS_18BinaryOutputStatusEEEZNS_16CountIndexParser13InvokeCountOfINS_11Group11Var2EEEvRKNS_12HeaderRecordEtRKNS_9NumParserERKN7openpal6RSliceERNS_12IAPDUHandlerEEUlRSE_jE_E5CountEv
	.section	.text._ZNK8opendnp318BufferedCollectionINS_7IndexedINS_18BinaryOutputStatusEEEZNS_16CountIndexParser13InvokeCountOfINS_11Group11Var1EEEvRKNS_12HeaderRecordEtRKNS_9NumParserERKN7openpal6RSliceERNS_12IAPDUHandlerEEUlRSE_jE_E5CountEv,"axG",%progbits,_ZNK8opendnp318BufferedCollectionINS_7IndexedINS_18BinaryOutputStatusEEEZNS_16CountIndexParser13InvokeCountOfINS_11Group11Var1EEEvRKNS_12HeaderRecordEtRKNS_9NumParserERKN7openpal6RSliceERNS_12IAPDUHandlerEEUlRSE_jE_E5CountEv,comdat
	.align	2
	.weak	_ZNK8opendnp318BufferedCollectionINS_7IndexedINS_18BinaryOutputStatusEEEZNS_16CountIndexParser13InvokeCountOfINS_11Group11Var1EEEvRKNS_12HeaderRecordEtRKNS_9NumParserERKN7openpal6RSliceERNS_12IAPDUHandlerEEUlRSE_jE_E5CountEv
	.syntax unified
	.arm
	.fpu vfp
	.type	_ZNK8opendnp318BufferedCollectionINS_7IndexedINS_18BinaryOutputStatusEEEZNS_16CountIndexParser13InvokeCountOfINS_11Group11Var1EEEvRKNS_12HeaderRecordEtRKNS_9NumParserERKN7openpal6RSliceERNS_12IAPDUHandlerEEUlRSE_jE_E5CountEv, %function
_ZNK8opendnp318BufferedCollectionINS_7IndexedINS_18BinaryOutputStatusEEEZNS_16CountIndexParser13InvokeCountOfINS_11Group11Var1EEEvRKNS_12HeaderRecordEtRKNS_9NumParserERKN7openpal6RSliceERNS_12IAPDUHandlerEEUlRSE_jE_E5CountEv:
	.fnstart
.LFB3918:
	@ args = 0, pretend = 0, frame = 0
	@ frame_needed = 0, uses_anonymous_args = 0
	@ link register save eliminated.
	ldr	r0, [r0, #12]
	bx	lr
	.cantunwind
	.fnend
	.size	_ZNK8opendnp318BufferedCollectionINS_7IndexedINS_18BinaryOutputStatusEEEZNS_16CountIndexParser13InvokeCountOfINS_11Group11Var1EEEvRKNS_12HeaderRecordEtRKNS_9NumParserERKN7openpal6RSliceERNS_12IAPDUHandlerEEUlRSE_jE_E5CountEv, .-_ZNK8opendnp318BufferedCollectionINS_7IndexedINS_18BinaryOutputStatusEEEZNS_16CountIndexParser13InvokeCountOfINS_11Group11Var1EEEvRKNS_12HeaderRecordEtRKNS_9NumParserERKN7openpal6RSliceERNS_12IAPDUHandlerEEUlRSE_jE_E5CountEv
	.section	.text._ZNK8opendnp318BufferedCollectionINS_7IndexedINS_15DoubleBitBinaryEEEZNS_16CountIndexParser13InvokeCountOfINS_10Group4Var3EEEvRKNS_12HeaderRecordEtRKNS_9NumParserERKN7openpal6RSliceERNS_12IAPDUHandlerEEUlRSE_jE_E5CountEv,"axG",%progbits,_ZNK8opendnp318BufferedCollectionINS_7IndexedINS_15DoubleBitBinaryEEEZNS_16CountIndexParser13InvokeCountOfINS_10Group4Var3EEEvRKNS_12HeaderRecordEtRKNS_9NumParserERKN7openpal6RSliceERNS_12IAPDUHandlerEEUlRSE_jE_E5CountEv,comdat
	.align	2
	.weak	_ZNK8opendnp318BufferedCollectionINS_7IndexedINS_15DoubleBitBinaryEEEZNS_16CountIndexParser13InvokeCountOfINS_10Group4Var3EEEvRKNS_12HeaderRecordEtRKNS_9NumParserERKN7openpal6RSliceERNS_12IAPDUHandlerEEUlRSE_jE_E5CountEv
	.syntax unified
	.arm
	.fpu vfp
	.type	_ZNK8opendnp318BufferedCollectionINS_7IndexedINS_15DoubleBitBinaryEEEZNS_16CountIndexParser13InvokeCountOfINS_10Group4Var3EEEvRKNS_12HeaderRecordEtRKNS_9NumParserERKN7openpal6RSliceERNS_12IAPDUHandlerEEUlRSE_jE_E5CountEv, %function
_ZNK8opendnp318BufferedCollectionINS_7IndexedINS_15DoubleBitBinaryEEEZNS_16CountIndexParser13InvokeCountOfINS_10Group4Var3EEEvRKNS_12HeaderRecordEtRKNS_9NumParserERKN7openpal6RSliceERNS_12IAPDUHandlerEEUlRSE_jE_E5CountEv:
	.fnstart
.LFB3920:
	@ args = 0, pretend = 0, frame = 0
	@ frame_needed = 0, uses_anonymous_args = 0
	@ link register save eliminated.
	ldr	r0, [r0, #12]
	bx	lr
	.cantunwind
	.fnend
	.size	_ZNK8opendnp318BufferedCollectionINS_7IndexedINS_15DoubleBitBinaryEEEZNS_16CountIndexParser13InvokeCountOfINS_10Group4Var3EEEvRKNS_12HeaderRecordEtRKNS_9NumParserERKN7openpal6RSliceERNS_12IAPDUHandlerEEUlRSE_jE_E5CountEv, .-_ZNK8opendnp318BufferedCollectionINS_7IndexedINS_15DoubleBitBinaryEEEZNS_16CountIndexParser13InvokeCountOfINS_10Group4Var3EEEvRKNS_12HeaderRecordEtRKNS_9NumParserERKN7openpal6RSliceERNS_12IAPDUHandlerEEUlRSE_jE_E5CountEv
	.section	.text._ZNK8opendnp318BufferedCollectionINS_7IndexedINS_15DoubleBitBinaryEEEZNS_16CountIndexParser13InvokeCountOfINS_10Group4Var2EEEvRKNS_12HeaderRecordEtRKNS_9NumParserERKN7openpal6RSliceERNS_12IAPDUHandlerEEUlRSE_jE_E5CountEv,"axG",%progbits,_ZNK8opendnp318BufferedCollectionINS_7IndexedINS_15DoubleBitBinaryEEEZNS_16CountIndexParser13InvokeCountOfINS_10Group4Var2EEEvRKNS_12HeaderRecordEtRKNS_9NumParserERKN7openpal6RSliceERNS_12IAPDUHandlerEEUlRSE_jE_E5CountEv,comdat
	.align	2
	.weak	_ZNK8opendnp318BufferedCollectionINS_7IndexedINS_15DoubleBitBinaryEEEZNS_16CountIndexParser13InvokeCountOfINS_10Group4Var2EEEvRKNS_12HeaderRecordEtRKNS_9NumParserERKN7openpal6RSliceERNS_12IAPDUHandlerEEUlRSE_jE_E5CountEv
	.syntax unified
	.arm
	.fpu vfp
	.type	_ZNK8opendnp318BufferedCollectionINS_7IndexedINS_15DoubleBitBinaryEEEZNS_16CountIndexParser13InvokeCountOfINS_10Group4Var2EEEvRKNS_12HeaderRecordEtRKNS_9NumParserERKN7openpal6RSliceERNS_12IAPDUHandlerEEUlRSE_jE_E5CountEv, %function
_ZNK8opendnp318BufferedCollectionINS_7IndexedINS_15DoubleBitBinaryEEEZNS_16CountIndexParser13InvokeCountOfINS_10Group4Var2EEEvRKNS_12HeaderRecordEtRKNS_9NumParserERKN7openpal6RSliceERNS_12IAPDUHandlerEEUlRSE_jE_E5CountEv:
	.fnstart
.LFB3922:
	@ args = 0, pretend = 0, frame = 0
	@ frame_needed = 0, uses_anonymous_args = 0
	@ link register save eliminated.
	ldr	r0, [r0, #12]
	bx	lr
	.cantunwind
	.fnend
	.size	_ZNK8opendnp318BufferedCollectionINS_7IndexedINS_15DoubleBitBinaryEEEZNS_16CountIndexParser13InvokeCountOfINS_10Group4Var2EEEvRKNS_12HeaderRecordEtRKNS_9NumParserERKN7openpal6RSliceERNS_12IAPDUHandlerEEUlRSE_jE_E5CountEv, .-_ZNK8opendnp318BufferedCollectionINS_7IndexedINS_15DoubleBitBinaryEEEZNS_16CountIndexParser13InvokeCountOfINS_10Group4Var2EEEvRKNS_12HeaderRecordEtRKNS_9NumParserERKN7openpal6RSliceERNS_12IAPDUHandlerEEUlRSE_jE_E5CountEv
	.section	.text._ZNK8opendnp318BufferedCollectionINS_7IndexedINS_15DoubleBitBinaryEEEZNS_16CountIndexParser13InvokeCountOfINS_10Group4Var1EEEvRKNS_12HeaderRecordEtRKNS_9NumParserERKN7openpal6RSliceERNS_12IAPDUHandlerEEUlRSE_jE_E5CountEv,"axG",%progbits,_ZNK8opendnp318BufferedCollectionINS_7IndexedINS_15DoubleBitBinaryEEEZNS_16CountIndexParser13InvokeCountOfINS_10Group4Var1EEEvRKNS_12HeaderRecordEtRKNS_9NumParserERKN7openpal6RSliceERNS_12IAPDUHandlerEEUlRSE_jE_E5CountEv,comdat
	.align	2
	.weak	_ZNK8opendnp318BufferedCollectionINS_7IndexedINS_15DoubleBitBinaryEEEZNS_16CountIndexParser13InvokeCountOfINS_10Group4Var1EEEvRKNS_12HeaderRecordEtRKNS_9NumParserERKN7openpal6RSliceERNS_12IAPDUHandlerEEUlRSE_jE_E5CountEv
	.syntax unified
	.arm
	.fpu vfp
	.type	_ZNK8opendnp318BufferedCollectionINS_7IndexedINS_15DoubleBitBinaryEEEZNS_16CountIndexParser13InvokeCountOfINS_10Group4Var1EEEvRKNS_12HeaderRecordEtRKNS_9NumParserERKN7openpal6RSliceERNS_12IAPDUHandlerEEUlRSE_jE_E5CountEv, %function
_ZNK8opendnp318BufferedCollectionINS_7IndexedINS_15DoubleBitBinaryEEEZNS_16CountIndexParser13InvokeCountOfINS_10Group4Var1EEEvRKNS_12HeaderRecordEtRKNS_9NumParserERKN7openpal6RSliceERNS_12IAPDUHandlerEEUlRSE_jE_E5CountEv:
	.fnstart
.LFB3924:
	@ args = 0, pretend = 0, frame = 0
	@ frame_needed = 0, uses_anonymous_args = 0
	@ link register save eliminated.
	ldr	r0, [r0, #12]
	bx	lr
	.cantunwind
	.fnend
	.size	_ZNK8opendnp318BufferedCollectionINS_7IndexedINS_15DoubleBitBinaryEEEZNS_16CountIndexParser13InvokeCountOfINS_10Group4Var1EEEvRKNS_12HeaderRecordEtRKNS_9NumParserERKN7openpal6RSliceERNS_12IAPDUHandlerEEUlRSE_jE_E5CountEv, .-_ZNK8opendnp318BufferedCollectionINS_7IndexedINS_15DoubleBitBinaryEEEZNS_16CountIndexParser13InvokeCountOfINS_10Group4Var1EEEvRKNS_12HeaderRecordEtRKNS_9NumParserERKN7openpal6RSliceERNS_12IAPDUHandlerEEUlRSE_jE_E5CountEv
	.section	.text._ZNK8opendnp318BufferedCollectionINS_7IndexedINS_6BinaryEEEZNS_16CountIndexParser13InvokeCountOfINS_10Group2Var3EEEvRKNS_12HeaderRecordEtRKNS_9NumParserERKN7openpal6RSliceERNS_12IAPDUHandlerEEUlRSE_jE_E5CountEv,"axG",%progbits,_ZNK8opendnp318BufferedCollectionINS_7IndexedINS_6BinaryEEEZNS_16CountIndexParser13InvokeCountOfINS_10Group2Var3EEEvRKNS_12HeaderRecordEtRKNS_9NumParserERKN7openpal6RSliceERNS_12IAPDUHandlerEEUlRSE_jE_E5CountEv,comdat
	.align	2
	.weak	_ZNK8opendnp318BufferedCollectionINS_7IndexedINS_6BinaryEEEZNS_16CountIndexParser13InvokeCountOfINS_10Group2Var3EEEvRKNS_12HeaderRecordEtRKNS_9NumParserERKN7openpal6RSliceERNS_12IAPDUHandlerEEUlRSE_jE_E5CountEv
	.syntax unified
	.arm
	.fpu vfp
	.type	_ZNK8opendnp318BufferedCollectionINS_7IndexedINS_6BinaryEEEZNS_16CountIndexParser13InvokeCountOfINS_10Group2Var3EEEvRKNS_12HeaderRecordEtRKNS_9NumParserERKN7openpal6RSliceERNS_12IAPDUHandlerEEUlRSE_jE_E5CountEv, %function
_ZNK8opendnp318BufferedCollectionINS_7IndexedINS_6BinaryEEEZNS_16CountIndexParser13InvokeCountOfINS_10Group2Var3EEEvRKNS_12HeaderRecordEtRKNS_9NumParserERKN7openpal6RSliceERNS_12IAPDUHandlerEEUlRSE_jE_E5CountEv:
	.fnstart
.LFB3926:
	@ args = 0, pretend = 0, frame = 0
	@ frame_needed = 0, uses_anonymous_args = 0
	@ link register save eliminated.
	ldr	r0, [r0, #12]
	bx	lr
	.cantunwind
	.fnend
	.size	_ZNK8opendnp318BufferedCollectionINS_7IndexedINS_6BinaryEEEZNS_16CountIndexParser13InvokeCountOfINS_10Group2Var3EEEvRKNS_12HeaderRecordEtRKNS_9NumParserERKN7openpal6RSliceERNS_12IAPDUHandlerEEUlRSE_jE_E5CountEv, .-_ZNK8opendnp318BufferedCollectionINS_7IndexedINS_6BinaryEEEZNS_16CountIndexParser13InvokeCountOfINS_10Group2Var3EEEvRKNS_12HeaderRecordEtRKNS_9NumParserERKN7openpal6RSliceERNS_12IAPDUHandlerEEUlRSE_jE_E5CountEv
	.section	.text._ZNK8opendnp318BufferedCollectionINS_7IndexedINS_6BinaryEEEZNS_16CountIndexParser13InvokeCountOfINS_10Group2Var2EEEvRKNS_12HeaderRecordEtRKNS_9NumParserERKN7openpal6RSliceERNS_12IAPDUHandlerEEUlRSE_jE_E5CountEv,"axG",%progbits,_ZNK8opendnp318BufferedCollectionINS_7IndexedINS_6BinaryEEEZNS_16CountIndexParser13InvokeCountOfINS_10Group2Var2EEEvRKNS_12HeaderRecordEtRKNS_9NumParserERKN7openpal6RSliceERNS_12IAPDUHandlerEEUlRSE_jE_E5CountEv,comdat
	.align	2
	.weak	_ZNK8opendnp318BufferedCollectionINS_7IndexedINS_6BinaryEEEZNS_16CountIndexParser13InvokeCountOfINS_10Group2Var2EEEvRKNS_12HeaderRecordEtRKNS_9NumParserERKN7openpal6RSliceERNS_12IAPDUHandlerEEUlRSE_jE_E5CountEv
	.syntax unified
	.arm
	.fpu vfp
	.type	_ZNK8opendnp318BufferedCollectionINS_7IndexedINS_6BinaryEEEZNS_16CountIndexParser13InvokeCountOfINS_10Group2Var2EEEvRKNS_12HeaderRecordEtRKNS_9NumParserERKN7openpal6RSliceERNS_12IAPDUHandlerEEUlRSE_jE_E5CountEv, %function
_ZNK8opendnp318BufferedCollectionINS_7IndexedINS_6BinaryEEEZNS_16CountIndexParser13InvokeCountOfINS_10Group2Var2EEEvRKNS_12HeaderRecordEtRKNS_9NumParserERKN7openpal6RSliceERNS_12IAPDUHandlerEEUlRSE_jE_E5CountEv:
	.fnstart
.LFB3928:
	@ args = 0, pretend = 0, frame = 0
	@ frame_needed = 0, uses_anonymous_args = 0
	@ link register save eliminated.
	ldr	r0, [r0, #12]
	bx	lr
	.cantunwind
	.fnend
	.size	_ZNK8opendnp318BufferedCollectionINS_7IndexedINS_6BinaryEEEZNS_16CountIndexParser13InvokeCountOfINS_10Group2Var2EEEvRKNS_12HeaderRecordEtRKNS_9NumParserERKN7openpal6RSliceERNS_12IAPDUHandlerEEUlRSE_jE_E5CountEv, .-_ZNK8opendnp318BufferedCollectionINS_7IndexedINS_6BinaryEEEZNS_16CountIndexParser13InvokeCountOfINS_10Group2Var2EEEvRKNS_12HeaderRecordEtRKNS_9NumParserERKN7openpal6RSliceERNS_12IAPDUHandlerEEUlRSE_jE_E5CountEv
	.section	.text._ZNK8opendnp318BufferedCollectionINS_7IndexedINS_6BinaryEEEZNS_16CountIndexParser13InvokeCountOfINS_10Group2Var1EEEvRKNS_12HeaderRecordEtRKNS_9NumParserERKN7openpal6RSliceERNS_12IAPDUHandlerEEUlRSE_jE_E5CountEv,"axG",%progbits,_ZNK8opendnp318BufferedCollectionINS_7IndexedINS_6BinaryEEEZNS_16CountIndexParser13InvokeCountOfINS_10Group2Var1EEEvRKNS_12HeaderRecordEtRKNS_9NumParserERKN7openpal6RSliceERNS_12IAPDUHandlerEEUlRSE_jE_E5CountEv,comdat
	.align	2
	.weak	_ZNK8opendnp318BufferedCollectionINS_7IndexedINS_6BinaryEEEZNS_16CountIndexParser13InvokeCountOfINS_10Group2Var1EEEvRKNS_12HeaderRecordEtRKNS_9NumParserERKN7openpal6RSliceERNS_12IAPDUHandlerEEUlRSE_jE_E5CountEv
	.syntax unified
	.arm
	.fpu vfp
	.type	_ZNK8opendnp318BufferedCollectionINS_7IndexedINS_6BinaryEEEZNS_16CountIndexParser13InvokeCountOfINS_10Group2Var1EEEvRKNS_12HeaderRecordEtRKNS_9NumParserERKN7openpal6RSliceERNS_12IAPDUHandlerEEUlRSE_jE_E5CountEv, %function
_ZNK8opendnp318BufferedCollectionINS_7IndexedINS_6BinaryEEEZNS_16CountIndexParser13InvokeCountOfINS_10Group2Var1EEEvRKNS_12HeaderRecordEtRKNS_9NumParserERKN7openpal6RSliceERNS_12IAPDUHandlerEEUlRSE_jE_E5CountEv:
	.fnstart
.LFB3930:
	@ args = 0, pretend = 0, frame = 0
	@ frame_needed = 0, uses_anonymous_args = 0
	@ link register save eliminated.
	ldr	r0, [r0, #12]
	bx	lr
	.cantunwind
	.fnend
	.size	_ZNK8opendnp318BufferedCollectionINS_7IndexedINS_6BinaryEEEZNS_16CountIndexParser13InvokeCountOfINS_10Group2Var1EEEvRKNS_12HeaderRecordEtRKNS_9NumParserERKN7openpal6RSliceERNS_12IAPDUHandlerEEUlRSE_jE_E5CountEv, .-_ZNK8opendnp318BufferedCollectionINS_7IndexedINS_6BinaryEEEZNS_16CountIndexParser13InvokeCountOfINS_10Group2Var1EEEvRKNS_12HeaderRecordEtRKNS_9NumParserERKN7openpal6RSliceERNS_12IAPDUHandlerEEUlRSE_jE_E5CountEv
	.text
	.align	2
	.syntax unified
	.arm
	.fpu vfp
	.type	_ZNK8opendnp318BufferedCollectionINS_7IndexedINS_11OctetStringEEEZNS_16CountIndexParser27ParseIndexPrefixedOctetDataERN7openpal6RSliceERKNS_12HeaderRecordERKNS_9NumParserEjPNS5_6LoggerEPNS_12IAPDUHandlerEEUlS7_jE_E5CountEv, %function
_ZNK8opendnp318BufferedCollectionINS_7IndexedINS_11OctetStringEEEZNS_16CountIndexParser27ParseIndexPrefixedOctetDataERN7openpal6RSliceERKNS_12HeaderRecordERKNS_9NumParserEjPNS5_6LoggerEPNS_12IAPDUHandlerEEUlS7_jE_E5CountEv:
	.fnstart
.LFB3932:
	@ args = 0, pretend = 0, frame = 0
	@ frame_needed = 0, uses_anonymous_args = 0
	@ link register save eliminated.
	ldr	r0, [r0, #12]
	bx	lr
	.cantunwind
	.fnend
	.size	_ZNK8opendnp318BufferedCollectionINS_7IndexedINS_11OctetStringEEEZNS_16CountIndexParser27ParseIndexPrefixedOctetDataERN7openpal6RSliceERKNS_12HeaderRecordERKNS_9NumParserEjPNS5_6LoggerEPNS_12IAPDUHandlerEEUlS7_jE_E5CountEv, .-_ZNK8opendnp318BufferedCollectionINS_7IndexedINS_11OctetStringEEEZNS_16CountIndexParser27ParseIndexPrefixedOctetDataERN7openpal6RSliceERKNS_12HeaderRecordERKNS_9NumParserEjPNS5_6LoggerEPNS_12IAPDUHandlerEEUlS7_jE_E5CountEv
	.section	.text._ZN8opendnp316CountIndexParser13InvokeCountOfINS_10Group2Var1EEEvRKNS_12HeaderRecordEtRKNS_9NumParserERKN7openpal6RSliceERNS_12IAPDUHandlerE,"axG",%progbits,_ZN8opendnp316CountIndexParser13InvokeCountOfINS_10Group2Var1EEEvRKNS_12HeaderRecordEtRKNS_9NumParserERKN7openpal6RSliceERNS_12IAPDUHandlerE,comdat
	.align	2
	.weak	_ZN8opendnp316CountIndexParser13InvokeCountOfINS_10Group2Var1EEEvRKNS_12HeaderRecordEtRKNS_9NumParserERKN7openpal6RSliceERNS_12IAPDUHandlerE
	.syntax unified
	.arm
	.fpu vfp
	.type	_ZN8opendnp316CountIndexParser13InvokeCountOfINS_10Group2Var1EEEvRKNS_12HeaderRecordEtRKNS_9NumParserERKN7openpal6RSliceERNS_12IAPDUHandlerE, %function
_ZN8opendnp316CountIndexParser13InvokeCountOfINS_10Group2Var1EEEvRKNS_12HeaderRecordEtRKNS_9NumParserERKN7openpal6RSliceERNS_12IAPDUHandlerE:
	.fnstart
.LFB2962:
	@ args = 4, pretend = 0, frame = 40
	@ frame_needed = 0, uses_anonymous_args = 0
	ldr	ip, .L55
	push	{r4, r5, lr}
	.save {r4, r5, lr}
	mov	r5, r1
	.pad #44
	sub	sp, sp, #44
	mov	lr, r0
	ldr	r4, .L55+4
	ldm	r3, {r0, r1}
.LPIC0:
	add	ip, pc, ip
	add	r3, sp, #4
	ldr	r4, [ip, r4]
	str	r2, [sp, #16]
	stm	r3, {r0, r1}
	ldm	lr, {r0, r1, r2, r3}
	add	ip, sp, #20
	add	lr, r4, #8
	str	lr, [sp]
	stm	ip, {r0, r1, r2, r3}
	mov	r1, ip
	mov	r2, sp
	ldr	r0, [sp, #56]
	str	r5, [sp, #12]
	strh	r5, [sp, #36]	@ movhi
	bl	_ZN8opendnp312IAPDUHandler8OnHeaderERKNS_12PrefixHeaderERKNS_11ICollectionINS_7IndexedINS_6BinaryEEEEE(PLT)
	add	sp, sp, #44
	@ sp needed
	pop	{r4, r5, pc}
.L56:
	.align	2
.L55:
	.word	_GLOBAL_OFFSET_TABLE_-(.LPIC0+8)
	.word	_ZTVN8opendnp318BufferedCollectionINS_7IndexedINS_6BinaryEEEZNS_16CountIndexParser13InvokeCountOfINS_10Group2Var1EEEvRKNS_12HeaderRecordEtRKNS_9NumParserERKN7openpal6RSliceERNS_12IAPDUHandlerEEUlRSE_jE_EE(GOT)
	.fnend
	.size	_ZN8opendnp316CountIndexParser13InvokeCountOfINS_10Group2Var1EEEvRKNS_12HeaderRecordEtRKNS_9NumParserERKN7openpal6RSliceERNS_12IAPDUHandlerE, .-_ZN8opendnp316CountIndexParser13InvokeCountOfINS_10Group2Var1EEEvRKNS_12HeaderRecordEtRKNS_9NumParserERKN7openpal6RSliceERNS_12IAPDUHandlerE
	.section	.text._ZN8opendnp316CountIndexParser13InvokeCountOfINS_10Group2Var2EEEvRKNS_12HeaderRecordEtRKNS_9NumParserERKN7openpal6RSliceERNS_12IAPDUHandlerE,"axG",%progbits,_ZN8opendnp316CountIndexParser13InvokeCountOfINS_10Group2Var2EEEvRKNS_12HeaderRecordEtRKNS_9NumParserERKN7openpal6RSliceERNS_12IAPDUHandlerE,comdat
	.align	2
	.weak	_ZN8opendnp316CountIndexParser13InvokeCountOfINS_10Group2Var2EEEvRKNS_12HeaderRecordEtRKNS_9NumParserERKN7openpal6RSliceERNS_12IAPDUHandlerE
	.syntax unified
	.arm
	.fpu vfp
	.type	_ZN8opendnp316CountIndexParser13InvokeCountOfINS_10Group2Var2EEEvRKNS_12HeaderRecordEtRKNS_9NumParserERKN7openpal6RSliceERNS_12IAPDUHandlerE, %function
_ZN8opendnp316CountIndexParser13InvokeCountOfINS_10Group2Var2EEEvRKNS_12HeaderRecordEtRKNS_9NumParserERKN7openpal6RSliceERNS_12IAPDUHandlerE:
	.fnstart
.LFB2970:
	@ args = 4, pretend = 0, frame = 40
	@ frame_needed = 0, uses_anonymous_args = 0
	ldr	ip, .L59
	push	{r4, r5, lr}
	.save {r4, r5, lr}
	mov	r5, r1
	.pad #44
	sub	sp, sp, #44
	mov	lr, r0
	ldr	r4, .L59+4
	ldm	r3, {r0, r1}
.LPIC1:
	add	ip, pc, ip
	add	r3, sp, #4
	ldr	r4, [ip, r4]
	str	r2, [sp, #16]
	stm	r3, {r0, r1}
	ldm	lr, {r0, r1, r2, r3}
	add	ip, sp, #20
	add	lr, r4, #8
	str	lr, [sp]
	stm	ip, {r0, r1, r2, r3}
	mov	r1, ip
	mov	r2, sp
	ldr	r0, [sp, #56]
	str	r5, [sp, #12]
	strh	r5, [sp, #36]	@ movhi
	bl	_ZN8opendnp312IAPDUHandler8OnHeaderERKNS_12PrefixHeaderERKNS_11ICollectionINS_7IndexedINS_6BinaryEEEEE(PLT)
	add	sp, sp, #44
	@ sp needed
	pop	{r4, r5, pc}
.L60:
	.align	2
.L59:
	.word	_GLOBAL_OFFSET_TABLE_-(.LPIC1+8)
	.word	_ZTVN8opendnp318BufferedCollectionINS_7IndexedINS_6BinaryEEEZNS_16CountIndexParser13InvokeCountOfINS_10Group2Var2EEEvRKNS_12HeaderRecordEtRKNS_9NumParserERKN7openpal6RSliceERNS_12IAPDUHandlerEEUlRSE_jE_EE(GOT)
	.fnend
	.size	_ZN8opendnp316CountIndexParser13InvokeCountOfINS_10Group2Var2EEEvRKNS_12HeaderRecordEtRKNS_9NumParserERKN7openpal6RSliceERNS_12IAPDUHandlerE, .-_ZN8opendnp316CountIndexParser13InvokeCountOfINS_10Group2Var2EEEvRKNS_12HeaderRecordEtRKNS_9NumParserERKN7openpal6RSliceERNS_12IAPDUHandlerE
	.section	.text._ZN8opendnp316CountIndexParser13InvokeCountOfINS_10Group2Var3EEEvRKNS_12HeaderRecordEtRKNS_9NumParserERKN7openpal6RSliceERNS_12IAPDUHandlerE,"axG",%progbits,_ZN8opendnp316CountIndexParser13InvokeCountOfINS_10Group2Var3EEEvRKNS_12HeaderRecordEtRKNS_9NumParserERKN7openpal6RSliceERNS_12IAPDUHandlerE,comdat
	.align	2
	.weak	_ZN8opendnp316CountIndexParser13InvokeCountOfINS_10Group2Var3EEEvRKNS_12HeaderRecordEtRKNS_9NumParserERKN7openpal6RSliceERNS_12IAPDUHandlerE
	.syntax unified
	.arm
	.fpu vfp
	.type	_ZN8opendnp316CountIndexParser13InvokeCountOfINS_10Group2Var3EEEvRKNS_12HeaderRecordEtRKNS_9NumParserERKN7openpal6RSliceERNS_12IAPDUHandlerE, %function
_ZN8opendnp316CountIndexParser13InvokeCountOfINS_10Group2Var3EEEvRKNS_12HeaderRecordEtRKNS_9NumParserERKN7openpal6RSliceERNS_12IAPDUHandlerE:
	.fnstart
.LFB2975:
	@ args = 4, pretend = 0, frame = 40
	@ frame_needed = 0, uses_anonymous_args = 0
	ldr	ip, .L63
	push	{r4, r5, lr}
	.save {r4, r5, lr}
	mov	r5, r1
	.pad #44
	sub	sp, sp, #44
	mov	lr, r0
	ldr	r4, .L63+4
	ldm	r3, {r0, r1}
.LPIC2:
	add	ip, pc, ip
	add	r3, sp, #4
	ldr	r4, [ip, r4]
	str	r2, [sp, #16]
	stm	r3, {r0, r1}
	ldm	lr, {r0, r1, r2, r3}
	add	ip, sp, #20
	add	lr, r4, #8
	str	lr, [sp]
	stm	ip, {r0, r1, r2, r3}
	mov	r1, ip
	mov	r2, sp
	ldr	r0, [sp, #56]
	str	r5, [sp, #12]
	strh	r5, [sp, #36]	@ movhi
	bl	_ZN8opendnp312IAPDUHandler8OnHeaderERKNS_12PrefixHeaderERKNS_11ICollectionINS_7IndexedINS_6BinaryEEEEE(PLT)
	add	sp, sp, #44
	@ sp needed
	pop	{r4, r5, pc}
.L64:
	.align	2
.L63:
	.word	_GLOBAL_OFFSET_TABLE_-(.LPIC2+8)
	.word	_ZTVN8opendnp318BufferedCollectionINS_7IndexedINS_6BinaryEEEZNS_16CountIndexParser13InvokeCountOfINS_10Group2Var3EEEvRKNS_12HeaderRecordEtRKNS_9NumParserERKN7openpal6RSliceERNS_12IAPDUHandlerEEUlRSE_jE_EE(GOT)
	.fnend
	.size	_ZN8opendnp316CountIndexParser13InvokeCountOfINS_10Group2Var3EEEvRKNS_12HeaderRecordEtRKNS_9NumParserERKN7openpal6RSliceERNS_12IAPDUHandlerE, .-_ZN8opendnp316CountIndexParser13InvokeCountOfINS_10Group2Var3EEEvRKNS_12HeaderRecordEtRKNS_9NumParserERKN7openpal6RSliceERNS_12IAPDUHandlerE
	.section	.text._ZN8opendnp316CountIndexParser13InvokeCountOfINS_10Group4Var1EEEvRKNS_12HeaderRecordEtRKNS_9NumParserERKN7openpal6RSliceERNS_12IAPDUHandlerE,"axG",%progbits,_ZN8opendnp316CountIndexParser13InvokeCountOfINS_10Group4Var1EEEvRKNS_12HeaderRecordEtRKNS_9NumParserERKN7openpal6RSliceERNS_12IAPDUHandlerE,comdat
	.align	2
	.weak	_ZN8opendnp316CountIndexParser13InvokeCountOfINS_10Group4Var1EEEvRKNS_12HeaderRecordEtRKNS_9NumParserERKN7openpal6RSliceERNS_12IAPDUHandlerE
	.syntax unified
	.arm
	.fpu vfp
	.type	_ZN8opendnp316CountIndexParser13InvokeCountOfINS_10Group4Var1EEEvRKNS_12HeaderRecordEtRKNS_9NumParserERKN7openpal6RSliceERNS_12IAPDUHandlerE, %function
_ZN8opendnp316CountIndexParser13InvokeCountOfINS_10Group4Var1EEEvRKNS_12HeaderRecordEtRKNS_9NumParserERKN7openpal6RSliceERNS_12IAPDUHandlerE:
	.fnstart
.LFB2980:
	@ args = 4, pretend = 0, frame = 40
	@ frame_needed = 0, uses_anonymous_args = 0
	ldr	ip, .L67
	push	{r4, r5, lr}
	.save {r4, r5, lr}
	mov	r5, r1
	.pad #44
	sub	sp, sp, #44
	mov	lr, r0
	ldr	r4, .L67+4
	ldm	r3, {r0, r1}
.LPIC3:
	add	ip, pc, ip
	add	r3, sp, #4
	ldr	r4, [ip, r4]
	str	r2, [sp, #16]
	stm	r3, {r0, r1}
	ldm	lr, {r0, r1, r2, r3}
	add	ip, sp, #20
	add	lr, r4, #8
	str	lr, [sp]
	stm	ip, {r0, r1, r2, r3}
	mov	r1, ip
	mov	r2, sp
	ldr	r0, [sp, #56]
	str	r5, [sp, #12]
	strh	r5, [sp, #36]	@ movhi
	bl	_ZN8opendnp312IAPDUHandler8OnHeaderERKNS_12PrefixHeaderERKNS_11ICollectionINS_7IndexedINS_15DoubleBitBinaryEEEEE(PLT)
	add	sp, sp, #44
	@ sp needed
	pop	{r4, r5, pc}
.L68:
	.align	2
.L67:
	.word	_GLOBAL_OFFSET_TABLE_-(.LPIC3+8)
	.word	_ZTVN8opendnp318BufferedCollectionINS_7IndexedINS_15DoubleBitBinaryEEEZNS_16CountIndexParser13InvokeCountOfINS_10Group4Var1EEEvRKNS_12HeaderRecordEtRKNS_9NumParserERKN7openpal6RSliceERNS_12IAPDUHandlerEEUlRSE_jE_EE(GOT)
	.fnend
	.size	_ZN8opendnp316CountIndexParser13InvokeCountOfINS_10Group4Var1EEEvRKNS_12HeaderRecordEtRKNS_9NumParserERKN7openpal6RSliceERNS_12IAPDUHandlerE, .-_ZN8opendnp316CountIndexParser13InvokeCountOfINS_10Group4Var1EEEvRKNS_12HeaderRecordEtRKNS_9NumParserERKN7openpal6RSliceERNS_12IAPDUHandlerE
	.section	.text._ZN8opendnp316CountIndexParser13InvokeCountOfINS_10Group4Var2EEEvRKNS_12HeaderRecordEtRKNS_9NumParserERKN7openpal6RSliceERNS_12IAPDUHandlerE,"axG",%progbits,_ZN8opendnp316CountIndexParser13InvokeCountOfINS_10Group4Var2EEEvRKNS_12HeaderRecordEtRKNS_9NumParserERKN7openpal6RSliceERNS_12IAPDUHandlerE,comdat
	.align	2
	.weak	_ZN8opendnp316CountIndexParser13InvokeCountOfINS_10Group4Var2EEEvRKNS_12HeaderRecordEtRKNS_9NumParserERKN7openpal6RSliceERNS_12IAPDUHandlerE
	.syntax unified
	.arm
	.fpu vfp
	.type	_ZN8opendnp316CountIndexParser13InvokeCountOfINS_10Group4Var2EEEvRKNS_12HeaderRecordEtRKNS_9NumParserERKN7openpal6RSliceERNS_12IAPDUHandlerE, %function
_ZN8opendnp316CountIndexParser13InvokeCountOfINS_10Group4Var2EEEvRKNS_12HeaderRecordEtRKNS_9NumParserERKN7openpal6RSliceERNS_12IAPDUHandlerE:
	.fnstart
.LFB2988:
	@ args = 4, pretend = 0, frame = 40
	@ frame_needed = 0, uses_anonymous_args = 0
	ldr	ip, .L71
	push	{r4, r5, lr}
	.save {r4, r5, lr}
	mov	r5, r1
	.pad #44
	sub	sp, sp, #44
	mov	lr, r0
	ldr	r4, .L71+4
	ldm	r3, {r0, r1}
.LPIC4:
	add	ip, pc, ip
	add	r3, sp, #4
	ldr	r4, [ip, r4]
	str	r2, [sp, #16]
	stm	r3, {r0, r1}
	ldm	lr, {r0, r1, r2, r3}
	add	ip, sp, #20
	add	lr, r4, #8
	str	lr, [sp]
	stm	ip, {r0, r1, r2, r3}
	mov	r1, ip
	mov	r2, sp
	ldr	r0, [sp, #56]
	str	r5, [sp, #12]
	strh	r5, [sp, #36]	@ movhi
	bl	_ZN8opendnp312IAPDUHandler8OnHeaderERKNS_12PrefixHeaderERKNS_11ICollectionINS_7IndexedINS_15DoubleBitBinaryEEEEE(PLT)
	add	sp, sp, #44
	@ sp needed
	pop	{r4, r5, pc}
.L72:
	.align	2
.L71:
	.word	_GLOBAL_OFFSET_TABLE_-(.LPIC4+8)
	.word	_ZTVN8opendnp318BufferedCollectionINS_7IndexedINS_15DoubleBitBinaryEEEZNS_16CountIndexParser13InvokeCountOfINS_10Group4Var2EEEvRKNS_12HeaderRecordEtRKNS_9NumParserERKN7openpal6RSliceERNS_12IAPDUHandlerEEUlRSE_jE_EE(GOT)
	.fnend
	.size	_ZN8opendnp316CountIndexParser13InvokeCountOfINS_10Group4Var2EEEvRKNS_12HeaderRecordEtRKNS_9NumParserERKN7openpal6RSliceERNS_12IAPDUHandlerE, .-_ZN8opendnp316CountIndexParser13InvokeCountOfINS_10Group4Var2EEEvRKNS_12HeaderRecordEtRKNS_9NumParserERKN7openpal6RSliceERNS_12IAPDUHandlerE
	.section	.text._ZN8opendnp316CountIndexParser13InvokeCountOfINS_10Group4Var3EEEvRKNS_12HeaderRecordEtRKNS_9NumParserERKN7openpal6RSliceERNS_12IAPDUHandlerE,"axG",%progbits,_ZN8opendnp316CountIndexParser13InvokeCountOfINS_10Group4Var3EEEvRKNS_12HeaderRecordEtRKNS_9NumParserERKN7openpal6RSliceERNS_12IAPDUHandlerE,comdat
	.align	2
	.weak	_ZN8opendnp316CountIndexParser13InvokeCountOfINS_10Group4Var3EEEvRKNS_12HeaderRecordEtRKNS_9NumParserERKN7openpal6RSliceERNS_12IAPDUHandlerE
	.syntax unified
	.arm
	.fpu vfp
	.type	_ZN8opendnp316CountIndexParser13InvokeCountOfINS_10Group4Var3EEEvRKNS_12HeaderRecordEtRKNS_9NumParserERKN7openpal6RSliceERNS_12IAPDUHandlerE, %function
_ZN8opendnp316CountIndexParser13InvokeCountOfINS_10Group4Var3EEEvRKNS_12HeaderRecordEtRKNS_9NumParserERKN7openpal6RSliceERNS_12IAPDUHandlerE:
	.fnstart
.LFB2993:
	@ args = 4, pretend = 0, frame = 40
	@ frame_needed = 0, uses_anonymous_args = 0
	ldr	ip, .L75
	push	{r4, r5, lr}
	.save {r4, r5, lr}
	mov	r5, r1
	.pad #44
	sub	sp, sp, #44
	mov	lr, r0
	ldr	r4, .L75+4
	ldm	r3, {r0, r1}
.LPIC5:
	add	ip, pc, ip
	add	r3, sp, #4
	ldr	r4, [ip, r4]
	str	r2, [sp, #16]
	stm	r3, {r0, r1}
	ldm	lr, {r0, r1, r2, r3}
	add	ip, sp, #20
	add	lr, r4, #8
	str	lr, [sp]
	stm	ip, {r0, r1, r2, r3}
	mov	r1, ip
	mov	r2, sp
	ldr	r0, [sp, #56]
	str	r5, [sp, #12]
	strh	r5, [sp, #36]	@ movhi
	bl	_ZN8opendnp312IAPDUHandler8OnHeaderERKNS_12PrefixHeaderERKNS_11ICollectionINS_7IndexedINS_15DoubleBitBinaryEEEEE(PLT)
	add	sp, sp, #44
	@ sp needed
	pop	{r4, r5, pc}
.L76:
	.align	2
.L75:
	.word	_GLOBAL_OFFSET_TABLE_-(.LPIC5+8)
	.word	_ZTVN8opendnp318BufferedCollectionINS_7IndexedINS_15DoubleBitBinaryEEEZNS_16CountIndexParser13InvokeCountOfINS_10Group4Var3EEEvRKNS_12HeaderRecordEtRKNS_9NumParserERKN7openpal6RSliceERNS_12IAPDUHandlerEEUlRSE_jE_EE(GOT)
	.fnend
	.size	_ZN8opendnp316CountIndexParser13InvokeCountOfINS_10Group4Var3EEEvRKNS_12HeaderRecordEtRKNS_9NumParserERKN7openpal6RSliceERNS_12IAPDUHandlerE, .-_ZN8opendnp316CountIndexParser13InvokeCountOfINS_10Group4Var3EEEvRKNS_12HeaderRecordEtRKNS_9NumParserERKN7openpal6RSliceERNS_12IAPDUHandlerE
	.section	.text._ZN8opendnp316CountIndexParser13InvokeCountOfINS_11Group11Var1EEEvRKNS_12HeaderRecordEtRKNS_9NumParserERKN7openpal6RSliceERNS_12IAPDUHandlerE,"axG",%progbits,_ZN8opendnp316CountIndexParser13InvokeCountOfINS_11Group11Var1EEEvRKNS_12HeaderRecordEtRKNS_9NumParserERKN7openpal6RSliceERNS_12IAPDUHandlerE,comdat
	.align	2
	.weak	_ZN8opendnp316CountIndexParser13InvokeCountOfINS_11Group11Var1EEEvRKNS_12HeaderRecordEtRKNS_9NumParserERKN7openpal6RSliceERNS_12IAPDUHandlerE
	.syntax unified
	.arm
	.fpu vfp
	.type	_ZN8opendnp316CountIndexParser13InvokeCountOfINS_11Group11Var1EEEvRKNS_12HeaderRecordEtRKNS_9NumParserERKN7openpal6RSliceERNS_12IAPDUHandlerE, %function
_ZN8opendnp316CountIndexParser13InvokeCountOfINS_11Group11Var1EEEvRKNS_12HeaderRecordEtRKNS_9NumParserERKN7openpal6RSliceERNS_12IAPDUHandlerE:
	.fnstart
.LFB2998:
	@ args = 4, pretend = 0, frame = 40
	@ frame_needed = 0, uses_anonymous_args = 0
	ldr	ip, .L79
	push	{r4, r5, lr}
	.save {r4, r5, lr}
	mov	r5, r1
	.pad #44
	sub	sp, sp, #44
	mov	lr, r0
	ldr	r4, .L79+4
	ldm	r3, {r0, r1}
.LPIC6:
	add	ip, pc, ip
	add	r3, sp, #4
	ldr	r4, [ip, r4]
	str	r2, [sp, #16]
	stm	r3, {r0, r1}
	ldm	lr, {r0, r1, r2, r3}
	add	ip, sp, #20
	add	lr, r4, #8
	str	lr, [sp]
	stm	ip, {r0, r1, r2, r3}
	mov	r1, ip
	mov	r2, sp
	ldr	r0, [sp, #56]
	str	r5, [sp, #12]
	strh	r5, [sp, #36]	@ movhi
	bl	_ZN8opendnp312IAPDUHandler8OnHeaderERKNS_12PrefixHeaderERKNS_11ICollectionINS_7IndexedINS_18BinaryOutputStatusEEEEE(PLT)
	add	sp, sp, #44
	@ sp needed
	pop	{r4, r5, pc}
.L80:
	.align	2
.L79:
	.word	_GLOBAL_OFFSET_TABLE_-(.LPIC6+8)
	.word	_ZTVN8opendnp318BufferedCollectionINS_7IndexedINS_18BinaryOutputStatusEEEZNS_16CountIndexParser13InvokeCountOfINS_11Group11Var1EEEvRKNS_12HeaderRecordEtRKNS_9NumParserERKN7openpal6RSliceERNS_12IAPDUHandlerEEUlRSE_jE_EE(GOT)
	.fnend
	.size	_ZN8opendnp316CountIndexParser13InvokeCountOfINS_11Group11Var1EEEvRKNS_12HeaderRecordEtRKNS_9NumParserERKN7openpal6RSliceERNS_12IAPDUHandlerE, .-_ZN8opendnp316CountIndexParser13InvokeCountOfINS_11Group11Var1EEEvRKNS_12HeaderRecordEtRKNS_9NumParserERKN7openpal6RSliceERNS_12IAPDUHandlerE
	.section	.text._ZN8opendnp316CountIndexParser13InvokeCountOfINS_11Group11Var2EEEvRKNS_12HeaderRecordEtRKNS_9NumParserERKN7openpal6RSliceERNS_12IAPDUHandlerE,"axG",%progbits,_ZN8opendnp316CountIndexParser13InvokeCountOfINS_11Group11Var2EEEvRKNS_12HeaderRecordEtRKNS_9NumParserERKN7openpal6RSliceERNS_12IAPDUHandlerE,comdat
	.align	2
	.weak	_ZN8opendnp316CountIndexParser13InvokeCountOfINS_11Group11Var2EEEvRKNS_12HeaderRecordEtRKNS_9NumParserERKN7openpal6RSliceERNS_12IAPDUHandlerE
	.syntax unified
	.arm
	.fpu vfp
	.type	_ZN8opendnp316CountIndexParser13InvokeCountOfINS_11Group11Var2EEEvRKNS_12HeaderRecordEtRKNS_9NumParserERKN7openpal6RSliceERNS_12IAPDUHandlerE, %function
_ZN8opendnp316CountIndexParser13InvokeCountOfINS_11Group11Var2EEEvRKNS_12HeaderRecordEtRKNS_9NumParserERKN7openpal6RSliceERNS_12IAPDUHandlerE:
	.fnstart
.LFB3006:
	@ args = 4, pretend = 0, frame = 40
	@ frame_needed = 0, uses_anonymous_args = 0
	ldr	ip, .L83
	push	{r4, r5, lr}
	.save {r4, r5, lr}
	mov	r5, r1
	.pad #44
	sub	sp, sp, #44
	mov	lr, r0
	ldr	r4, .L83+4
	ldm	r3, {r0, r1}
.LPIC7:
	add	ip, pc, ip
	add	r3, sp, #4
	ldr	r4, [ip, r4]
	str	r2, [sp, #16]
	stm	r3, {r0, r1}
	ldm	lr, {r0, r1, r2, r3}
	add	ip, sp, #20
	add	lr, r4, #8
	str	lr, [sp]
	stm	ip, {r0, r1, r2, r3}
	mov	r1, ip
	mov	r2, sp
	ldr	r0, [sp, #56]
	str	r5, [sp, #12]
	strh	r5, [sp, #36]	@ movhi
	bl	_ZN8opendnp312IAPDUHandler8OnHeaderERKNS_12PrefixHeaderERKNS_11ICollectionINS_7IndexedINS_18BinaryOutputStatusEEEEE(PLT)
	add	sp, sp, #44
	@ sp needed
	pop	{r4, r5, pc}
.L84:
	.align	2
.L83:
	.word	_GLOBAL_OFFSET_TABLE_-(.LPIC7+8)
	.word	_ZTVN8opendnp318BufferedCollectionINS_7IndexedINS_18BinaryOutputStatusEEEZNS_16CountIndexParser13InvokeCountOfINS_11Group11Var2EEEvRKNS_12HeaderRecordEtRKNS_9NumParserERKN7openpal6RSliceERNS_12IAPDUHandlerEEUlRSE_jE_EE(GOT)
	.fnend
	.size	_ZN8opendnp316CountIndexParser13InvokeCountOfINS_11Group11Var2EEEvRKNS_12HeaderRecordEtRKNS_9NumParserERKN7openpal6RSliceERNS_12IAPDUHandlerE, .-_ZN8opendnp316CountIndexParser13InvokeCountOfINS_11Group11Var2EEEvRKNS_12HeaderRecordEtRKNS_9NumParserERKN7openpal6RSliceERNS_12IAPDUHandlerE
	.section	.text._ZN8opendnp316CountIndexParser13InvokeCountOfINS_11Group12Var1EEEvRKNS_12HeaderRecordEtRKNS_9NumParserERKN7openpal6RSliceERNS_12IAPDUHandlerE,"axG",%progbits,_ZN8opendnp316CountIndexParser13InvokeCountOfINS_11Group12Var1EEEvRKNS_12HeaderRecordEtRKNS_9NumParserERKN7openpal6RSliceERNS_12IAPDUHandlerE,comdat
	.align	2
	.weak	_ZN8opendnp316CountIndexParser13InvokeCountOfINS_11Group12Var1EEEvRKNS_12HeaderRecordEtRKNS_9NumParserERKN7openpal6RSliceERNS_12IAPDUHandlerE
	.syntax unified
	.arm
	.fpu vfp
	.type	_ZN8opendnp316CountIndexParser13InvokeCountOfINS_11Group12Var1EEEvRKNS_12HeaderRecordEtRKNS_9NumParserERKN7openpal6RSliceERNS_12IAPDUHandlerE, %function
_ZN8opendnp316CountIndexParser13InvokeCountOfINS_11Group12Var1EEEvRKNS_12HeaderRecordEtRKNS_9NumParserERKN7openpal6RSliceERNS_12IAPDUHandlerE:
	.fnstart
.LFB3011:
	@ args = 4, pretend = 0, frame = 40
	@ frame_needed = 0, uses_anonymous_args = 0
	ldr	ip, .L87
	push	{r4, r5, lr}
	.save {r4, r5, lr}
	mov	r5, r1
	.pad #44
	sub	sp, sp, #44
	mov	lr, r0
	ldr	r4, .L87+4
	ldm	r3, {r0, r1}
.LPIC8:
	add	ip, pc, ip
	add	r3, sp, #4
	ldr	r4, [ip, r4]
	str	r2, [sp, #16]
	stm	r3, {r0, r1}
	ldm	lr, {r0, r1, r2, r3}
	add	ip, sp, #20
	add	lr, r4, #8
	str	lr, [sp]
	stm	ip, {r0, r1, r2, r3}
	mov	r1, ip
	mov	r2, sp
	ldr	r0, [sp, #56]
	str	r5, [sp, #12]
	strh	r5, [sp, #36]	@ movhi
	bl	_ZN8opendnp312IAPDUHandler8OnHeaderERKNS_12PrefixHeaderERKNS_11ICollectionINS_7IndexedINS_23ControlRelayOutputBlockEEEEE(PLT)
	add	sp, sp, #44
	@ sp needed
	pop	{r4, r5, pc}
.L88:
	.align	2
.L87:
	.word	_GLOBAL_OFFSET_TABLE_-(.LPIC8+8)
	.word	_ZTVN8opendnp318BufferedCollectionINS_7IndexedINS_23ControlRelayOutputBlockEEEZNS_16CountIndexParser13InvokeCountOfINS_11Group12Var1EEEvRKNS_12HeaderRecordEtRKNS_9NumParserERKN7openpal6RSliceERNS_12IAPDUHandlerEEUlRSE_jE_EE(GOT)
	.fnend
	.size	_ZN8opendnp316CountIndexParser13InvokeCountOfINS_11Group12Var1EEEvRKNS_12HeaderRecordEtRKNS_9NumParserERKN7openpal6RSliceERNS_12IAPDUHandlerE, .-_ZN8opendnp316CountIndexParser13InvokeCountOfINS_11Group12Var1EEEvRKNS_12HeaderRecordEtRKNS_9NumParserERKN7openpal6RSliceERNS_12IAPDUHandlerE
	.section	.text._ZN8opendnp316CountIndexParser13InvokeCountOfINS_11Group13Var1EEEvRKNS_12HeaderRecordEtRKNS_9NumParserERKN7openpal6RSliceERNS_12IAPDUHandlerE,"axG",%progbits,_ZN8opendnp316CountIndexParser13InvokeCountOfINS_11Group13Var1EEEvRKNS_12HeaderRecordEtRKNS_9NumParserERKN7openpal6RSliceERNS_12IAPDUHandlerE,comdat
	.align	2
	.weak	_ZN8opendnp316CountIndexParser13InvokeCountOfINS_11Group13Var1EEEvRKNS_12HeaderRecordEtRKNS_9NumParserERKN7openpal6RSliceERNS_12IAPDUHandlerE
	.syntax unified
	.arm
	.fpu vfp
	.type	_ZN8opendnp316CountIndexParser13InvokeCountOfINS_11Group13Var1EEEvRKNS_12HeaderRecordEtRKNS_9NumParserERKN7openpal6RSliceERNS_12IAPDUHandlerE, %function
_ZN8opendnp316CountIndexParser13InvokeCountOfINS_11Group13Var1EEEvRKNS_12HeaderRecordEtRKNS_9NumParserERKN7openpal6RSliceERNS_12IAPDUHandlerE:
	.fnstart
.LFB3019:
	@ args = 4, pretend = 0, frame = 40
	@ frame_needed = 0, uses_anonymous_args = 0
	ldr	ip, .L91
	push	{r4, r5, lr}
	.save {r4, r5, lr}
	mov	r5, r1
	.pad #44
	sub	sp, sp, #44
	mov	lr, r0
	ldr	r4, .L91+4
	ldm	r3, {r0, r1}
.LPIC9:
	add	ip, pc, ip
	add	r3, sp, #4
	ldr	r4, [ip, r4]
	str	r2, [sp, #16]
	stm	r3, {r0, r1}
	ldm	lr, {r0, r1, r2, r3}
	add	ip, sp, #20
	add	lr, r4, #8
	str	lr, [sp]
	stm	ip, {r0, r1, r2, r3}
	mov	r1, ip
	mov	r2, sp
	ldr	r0, [sp, #56]
	str	r5, [sp, #12]
	strh	r5, [sp, #36]	@ movhi
	bl	_ZN8opendnp312IAPDUHandler8OnHeaderERKNS_12PrefixHeaderERKNS_11ICollectionINS_7IndexedINS_18BinaryCommandEventEEEEE(PLT)
	add	sp, sp, #44
	@ sp needed
	pop	{r4, r5, pc}
.L92:
	.align	2
.L91:
	.word	_GLOBAL_OFFSET_TABLE_-(.LPIC9+8)
	.word	_ZTVN8opendnp318BufferedCollectionINS_7IndexedINS_18BinaryCommandEventEEEZNS_16CountIndexParser13InvokeCountOfINS_11Group13Var1EEEvRKNS_12HeaderRecordEtRKNS_9NumParserERKN7openpal6RSliceERNS_12IAPDUHandlerEEUlRSE_jE_EE(GOT)
	.fnend
	.size	_ZN8opendnp316CountIndexParser13InvokeCountOfINS_11Group13Var1EEEvRKNS_12HeaderRecordEtRKNS_9NumParserERKN7openpal6RSliceERNS_12IAPDUHandlerE, .-_ZN8opendnp316CountIndexParser13InvokeCountOfINS_11Group13Var1EEEvRKNS_12HeaderRecordEtRKNS_9NumParserERKN7openpal6RSliceERNS_12IAPDUHandlerE
	.section	.text._ZN8opendnp316CountIndexParser13InvokeCountOfINS_11Group13Var2EEEvRKNS_12HeaderRecordEtRKNS_9NumParserERKN7openpal6RSliceERNS_12IAPDUHandlerE,"axG",%progbits,_ZN8opendnp316CountIndexParser13InvokeCountOfINS_11Group13Var2EEEvRKNS_12HeaderRecordEtRKNS_9NumParserERKN7openpal6RSliceERNS_12IAPDUHandlerE,comdat
	.align	2
	.weak	_ZN8opendnp316CountIndexParser13InvokeCountOfINS_11Group13Var2EEEvRKNS_12HeaderRecordEtRKNS_9NumParserERKN7openpal6RSliceERNS_12IAPDUHandlerE
	.syntax unified
	.arm
	.fpu vfp
	.type	_ZN8opendnp316CountIndexParser13InvokeCountOfINS_11Group13Var2EEEvRKNS_12HeaderRecordEtRKNS_9NumParserERKN7openpal6RSliceERNS_12IAPDUHandlerE, %function
_ZN8opendnp316CountIndexParser13InvokeCountOfINS_11Group13Var2EEEvRKNS_12HeaderRecordEtRKNS_9NumParserERKN7openpal6RSliceERNS_12IAPDUHandlerE:
	.fnstart
.LFB3027:
	@ args = 4, pretend = 0, frame = 40
	@ frame_needed = 0, uses_anonymous_args = 0
	ldr	ip, .L95
	push	{r4, r5, lr}
	.save {r4, r5, lr}
	mov	r5, r1
	.pad #44
	sub	sp, sp, #44
	mov	lr, r0
	ldr	r4, .L95+4
	ldm	r3, {r0, r1}
.LPIC10:
	add	ip, pc, ip
	add	r3, sp, #4
	ldr	r4, [ip, r4]
	str	r2, [sp, #16]
	stm	r3, {r0, r1}
	ldm	lr, {r0, r1, r2, r3}
	add	ip, sp, #20
	add	lr, r4, #8
	str	lr, [sp]
	stm	ip, {r0, r1, r2, r3}
	mov	r1, ip
	mov	r2, sp
	ldr	r0, [sp, #56]
	str	r5, [sp, #12]
	strh	r5, [sp, #36]	@ movhi
	bl	_ZN8opendnp312IAPDUHandler8OnHeaderERKNS_12PrefixHeaderERKNS_11ICollectionINS_7IndexedINS_18BinaryCommandEventEEEEE(PLT)
	add	sp, sp, #44
	@ sp needed
	pop	{r4, r5, pc}
.L96:
	.align	2
.L95:
	.word	_GLOBAL_OFFSET_TABLE_-(.LPIC10+8)
	.word	_ZTVN8opendnp318BufferedCollectionINS_7IndexedINS_18BinaryCommandEventEEEZNS_16CountIndexParser13InvokeCountOfINS_11Group13Var2EEEvRKNS_12HeaderRecordEtRKNS_9NumParserERKN7openpal6RSliceERNS_12IAPDUHandlerEEUlRSE_jE_EE(GOT)
	.fnend
	.size	_ZN8opendnp316CountIndexParser13InvokeCountOfINS_11Group13Var2EEEvRKNS_12HeaderRecordEtRKNS_9NumParserERKN7openpal6RSliceERNS_12IAPDUHandlerE, .-_ZN8opendnp316CountIndexParser13InvokeCountOfINS_11Group13Var2EEEvRKNS_12HeaderRecordEtRKNS_9NumParserERKN7openpal6RSliceERNS_12IAPDUHandlerE
	.section	.text._ZN8opendnp316CountIndexParser13InvokeCountOfINS_11Group22Var1EEEvRKNS_12HeaderRecordEtRKNS_9NumParserERKN7openpal6RSliceERNS_12IAPDUHandlerE,"axG",%progbits,_ZN8opendnp316CountIndexParser13InvokeCountOfINS_11Group22Var1EEEvRKNS_12HeaderRecordEtRKNS_9NumParserERKN7openpal6RSliceERNS_12IAPDUHandlerE,comdat
	.align	2
	.weak	_ZN8opendnp316CountIndexParser13InvokeCountOfINS_11Group22Var1EEEvRKNS_12HeaderRecordEtRKNS_9NumParserERKN7openpal6RSliceERNS_12IAPDUHandlerE
	.syntax unified
	.arm
	.fpu vfp
	.type	_ZN8opendnp316CountIndexParser13InvokeCountOfINS_11Group22Var1EEEvRKNS_12HeaderRecordEtRKNS_9NumParserERKN7openpal6RSliceERNS_12IAPDUHandlerE, %function
_ZN8opendnp316CountIndexParser13InvokeCountOfINS_11Group22Var1EEEvRKNS_12HeaderRecordEtRKNS_9NumParserERKN7openpal6RSliceERNS_12IAPDUHandlerE:
	.fnstart
.LFB3032:
	@ args = 4, pretend = 0, frame = 40
	@ frame_needed = 0, uses_anonymous_args = 0
	ldr	ip, .L99
	push	{r4, r5, lr}
	.save {r4, r5, lr}
	mov	r5, r1
	.pad #44
	sub	sp, sp, #44
	mov	lr, r0
	ldr	r4, .L99+4
	ldm	r3, {r0, r1}
.LPIC11:
	add	ip, pc, ip
	add	r3, sp, #4
	ldr	r4, [ip, r4]
	str	r2, [sp, #16]
	stm	r3, {r0, r1}
	ldm	lr, {r0, r1, r2, r3}
	add	ip, sp, #20
	add	lr, r4, #8
	str	lr, [sp]
	stm	ip, {r0, r1, r2, r3}
	mov	r1, ip
	mov	r2, sp
	ldr	r0, [sp, #56]
	str	r5, [sp, #12]
	strh	r5, [sp, #36]	@ movhi
	bl	_ZN8opendnp312IAPDUHandler8OnHeaderERKNS_12PrefixHeaderERKNS_11ICollectionINS_7IndexedINS_7CounterEEEEE(PLT)
	add	sp, sp, #44
	@ sp needed
	pop	{r4, r5, pc}
.L100:
	.align	2
.L99:
	.word	_GLOBAL_OFFSET_TABLE_-(.LPIC11+8)
	.word	_ZTVN8opendnp318BufferedCollectionINS_7IndexedINS_7CounterEEEZNS_16CountIndexParser13InvokeCountOfINS_11Group22Var1EEEvRKNS_12HeaderRecordEtRKNS_9NumParserERKN7openpal6RSliceERNS_12IAPDUHandlerEEUlRSE_jE_EE(GOT)
	.fnend
	.size	_ZN8opendnp316CountIndexParser13InvokeCountOfINS_11Group22Var1EEEvRKNS_12HeaderRecordEtRKNS_9NumParserERKN7openpal6RSliceERNS_12IAPDUHandlerE, .-_ZN8opendnp316CountIndexParser13InvokeCountOfINS_11Group22Var1EEEvRKNS_12HeaderRecordEtRKNS_9NumParserERKN7openpal6RSliceERNS_12IAPDUHandlerE
	.section	.text._ZN8opendnp316CountIndexParser13InvokeCountOfINS_11Group22Var2EEEvRKNS_12HeaderRecordEtRKNS_9NumParserERKN7openpal6RSliceERNS_12IAPDUHandlerE,"axG",%progbits,_ZN8opendnp316CountIndexParser13InvokeCountOfINS_11Group22Var2EEEvRKNS_12HeaderRecordEtRKNS_9NumParserERKN7openpal6RSliceERNS_12IAPDUHandlerE,comdat
	.align	2
	.weak	_ZN8opendnp316CountIndexParser13InvokeCountOfINS_11Group22Var2EEEvRKNS_12HeaderRecordEtRKNS_9NumParserERKN7openpal6RSliceERNS_12IAPDUHandlerE
	.syntax unified
	.arm
	.fpu vfp
	.type	_ZN8opendnp316CountIndexParser13InvokeCountOfINS_11Group22Var2EEEvRKNS_12HeaderRecordEtRKNS_9NumParserERKN7openpal6RSliceERNS_12IAPDUHandlerE, %function
_ZN8opendnp316CountIndexParser13InvokeCountOfINS_11Group22Var2EEEvRKNS_12HeaderRecordEtRKNS_9NumParserERKN7openpal6RSliceERNS_12IAPDUHandlerE:
	.fnstart
.LFB3040:
	@ args = 4, pretend = 0, frame = 40
	@ frame_needed = 0, uses_anonymous_args = 0
	ldr	ip, .L103
	push	{r4, r5, lr}
	.save {r4, r5, lr}
	mov	r5, r1
	.pad #44
	sub	sp, sp, #44
	mov	lr, r0
	ldr	r4, .L103+4
	ldm	r3, {r0, r1}
.LPIC12:
	add	ip, pc, ip
	add	r3, sp, #4
	ldr	r4, [ip, r4]
	str	r2, [sp, #16]
	stm	r3, {r0, r1}
	ldm	lr, {r0, r1, r2, r3}
	add	ip, sp, #20
	add	lr, r4, #8
	str	lr, [sp]
	stm	ip, {r0, r1, r2, r3}
	mov	r1, ip
	mov	r2, sp
	ldr	r0, [sp, #56]
	str	r5, [sp, #12]
	strh	r5, [sp, #36]	@ movhi
	bl	_ZN8opendnp312IAPDUHandler8OnHeaderERKNS_12PrefixHeaderERKNS_11ICollectionINS_7IndexedINS_7CounterEEEEE(PLT)
	add	sp, sp, #44
	@ sp needed
	pop	{r4, r5, pc}
.L104:
	.align	2
.L103:
	.word	_GLOBAL_OFFSET_TABLE_-(.LPIC12+8)
	.word	_ZTVN8opendnp318BufferedCollectionINS_7IndexedINS_7CounterEEEZNS_16CountIndexParser13InvokeCountOfINS_11Group22Var2EEEvRKNS_12HeaderRecordEtRKNS_9NumParserERKN7openpal6RSliceERNS_12IAPDUHandlerEEUlRSE_jE_EE(GOT)
	.fnend
	.size	_ZN8opendnp316CountIndexParser13InvokeCountOfINS_11Group22Var2EEEvRKNS_12HeaderRecordEtRKNS_9NumParserERKN7openpal6RSliceERNS_12IAPDUHandlerE, .-_ZN8opendnp316CountIndexParser13InvokeCountOfINS_11Group22Var2EEEvRKNS_12HeaderRecordEtRKNS_9NumParserERKN7openpal6RSliceERNS_12IAPDUHandlerE
	.section	.text._ZN8opendnp316CountIndexParser13InvokeCountOfINS_11Group22Var5EEEvRKNS_12HeaderRecordEtRKNS_9NumParserERKN7openpal6RSliceERNS_12IAPDUHandlerE,"axG",%progbits,_ZN8opendnp316CountIndexParser13InvokeCountOfINS_11Group22Var5EEEvRKNS_12HeaderRecordEtRKNS_9NumParserERKN7openpal6RSliceERNS_12IAPDUHandlerE,comdat
	.align	2
	.weak	_ZN8opendnp316CountIndexParser13InvokeCountOfINS_11Group22Var5EEEvRKNS_12HeaderRecordEtRKNS_9NumParserERKN7openpal6RSliceERNS_12IAPDUHandlerE
	.syntax unified
	.arm
	.fpu vfp
	.type	_ZN8opendnp316CountIndexParser13InvokeCountOfINS_11Group22Var5EEEvRKNS_12HeaderRecordEtRKNS_9NumParserERKN7openpal6RSliceERNS_12IAPDUHandlerE, %function
_ZN8opendnp316CountIndexParser13InvokeCountOfINS_11Group22Var5EEEvRKNS_12HeaderRecordEtRKNS_9NumParserERKN7openpal6RSliceERNS_12IAPDUHandlerE:
	.fnstart
.LFB3045:
	@ args = 4, pretend = 0, frame = 40
	@ frame_needed = 0, uses_anonymous_args = 0
	ldr	ip, .L107
	push	{r4, r5, lr}
	.save {r4, r5, lr}
	mov	r5, r1
	.pad #44
	sub	sp, sp, #44
	mov	lr, r0
	ldr	r4, .L107+4
	ldm	r3, {r0, r1}
.LPIC13:
	add	ip, pc, ip
	add	r3, sp, #4
	ldr	r4, [ip, r4]
	str	r2, [sp, #16]
	stm	r3, {r0, r1}
	ldm	lr, {r0, r1, r2, r3}
	add	ip, sp, #20
	add	lr, r4, #8
	str	lr, [sp]
	stm	ip, {r0, r1, r2, r3}
	mov	r1, ip
	mov	r2, sp
	ldr	r0, [sp, #56]
	str	r5, [sp, #12]
	strh	r5, [sp, #36]	@ movhi
	bl	_ZN8opendnp312IAPDUHandler8OnHeaderERKNS_12PrefixHeaderERKNS_11ICollectionINS_7IndexedINS_7CounterEEEEE(PLT)
	add	sp, sp, #44
	@ sp needed
	pop	{r4, r5, pc}
.L108:
	.align	2
.L107:
	.word	_GLOBAL_OFFSET_TABLE_-(.LPIC13+8)
	.word	_ZTVN8opendnp318BufferedCollectionINS_7IndexedINS_7CounterEEEZNS_16CountIndexParser13InvokeCountOfINS_11Group22Var5EEEvRKNS_12HeaderRecordEtRKNS_9NumParserERKN7openpal6RSliceERNS_12IAPDUHandlerEEUlRSE_jE_EE(GOT)
	.fnend
	.size	_ZN8opendnp316CountIndexParser13InvokeCountOfINS_11Group22Var5EEEvRKNS_12HeaderRecordEtRKNS_9NumParserERKN7openpal6RSliceERNS_12IAPDUHandlerE, .-_ZN8opendnp316CountIndexParser13InvokeCountOfINS_11Group22Var5EEEvRKNS_12HeaderRecordEtRKNS_9NumParserERKN7openpal6RSliceERNS_12IAPDUHandlerE
	.section	.text._ZN8opendnp316CountIndexParser13InvokeCountOfINS_11Group22Var6EEEvRKNS_12HeaderRecordEtRKNS_9NumParserERKN7openpal6RSliceERNS_12IAPDUHandlerE,"axG",%progbits,_ZN8opendnp316CountIndexParser13InvokeCountOfINS_11Group22Var6EEEvRKNS_12HeaderRecordEtRKNS_9NumParserERKN7openpal6RSliceERNS_12IAPDUHandlerE,comdat
	.align	2
	.weak	_ZN8opendnp316CountIndexParser13InvokeCountOfINS_11Group22Var6EEEvRKNS_12HeaderRecordEtRKNS_9NumParserERKN7openpal6RSliceERNS_12IAPDUHandlerE
	.syntax unified
	.arm
	.fpu vfp
	.type	_ZN8opendnp316CountIndexParser13InvokeCountOfINS_11Group22Var6EEEvRKNS_12HeaderRecordEtRKNS_9NumParserERKN7openpal6RSliceERNS_12IAPDUHandlerE, %function
_ZN8opendnp316CountIndexParser13InvokeCountOfINS_11Group22Var6EEEvRKNS_12HeaderRecordEtRKNS_9NumParserERKN7openpal6RSliceERNS_12IAPDUHandlerE:
	.fnstart
.LFB3050:
	@ args = 4, pretend = 0, frame = 40
	@ frame_needed = 0, uses_anonymous_args = 0
	ldr	ip, .L111
	push	{r4, r5, lr}
	.save {r4, r5, lr}
	mov	r5, r1
	.pad #44
	sub	sp, sp, #44
	mov	lr, r0
	ldr	r4, .L111+4
	ldm	r3, {r0, r1}
.LPIC14:
	add	ip, pc, ip
	add	r3, sp, #4
	ldr	r4, [ip, r4]
	str	r2, [sp, #16]
	stm	r3, {r0, r1}
	ldm	lr, {r0, r1, r2, r3}
	add	ip, sp, #20
	add	lr, r4, #8
	str	lr, [sp]
	stm	ip, {r0, r1, r2, r3}
	mov	r1, ip
	mov	r2, sp
	ldr	r0, [sp, #56]
	str	r5, [sp, #12]
	strh	r5, [sp, #36]	@ movhi
	bl	_ZN8opendnp312IAPDUHandler8OnHeaderERKNS_12PrefixHeaderERKNS_11ICollectionINS_7IndexedINS_7CounterEEEEE(PLT)
	add	sp, sp, #44
	@ sp needed
	pop	{r4, r5, pc}
.L112:
	.align	2
.L111:
	.word	_GLOBAL_OFFSET_TABLE_-(.LPIC14+8)
	.word	_ZTVN8opendnp318BufferedCollectionINS_7IndexedINS_7CounterEEEZNS_16CountIndexParser13InvokeCountOfINS_11Group22Var6EEEvRKNS_12HeaderRecordEtRKNS_9NumParserERKN7openpal6RSliceERNS_12IAPDUHandlerEEUlRSE_jE_EE(GOT)
	.fnend
	.size	_ZN8opendnp316CountIndexParser13InvokeCountOfINS_11Group22Var6EEEvRKNS_12HeaderRecordEtRKNS_9NumParserERKN7openpal6RSliceERNS_12IAPDUHandlerE, .-_ZN8opendnp316CountIndexParser13InvokeCountOfINS_11Group22Var6EEEvRKNS_12HeaderRecordEtRKNS_9NumParserERKN7openpal6RSliceERNS_12IAPDUHandlerE
	.section	.text._ZN8opendnp316CountIndexParser13InvokeCountOfINS_11Group23Var1EEEvRKNS_12HeaderRecordEtRKNS_9NumParserERKN7openpal6RSliceERNS_12IAPDUHandlerE,"axG",%progbits,_ZN8opendnp316CountIndexParser13InvokeCountOfINS_11Group23Var1EEEvRKNS_12HeaderRecordEtRKNS_9NumParserERKN7openpal6RSliceERNS_12IAPDUHandlerE,comdat
	.align	2
	.weak	_ZN8opendnp316CountIndexParser13InvokeCountOfINS_11Group23Var1EEEvRKNS_12HeaderRecordEtRKNS_9NumParserERKN7openpal6RSliceERNS_12IAPDUHandlerE
	.syntax unified
	.arm
	.fpu vfp
	.type	_ZN8opendnp316CountIndexParser13InvokeCountOfINS_11Group23Var1EEEvRKNS_12HeaderRecordEtRKNS_9NumParserERKN7openpal6RSliceERNS_12IAPDUHandlerE, %function
_ZN8opendnp316CountIndexParser13InvokeCountOfINS_11Group23Var1EEEvRKNS_12HeaderRecordEtRKNS_9NumParserERKN7openpal6RSliceERNS_12IAPDUHandlerE:
	.fnstart
.LFB3055:
	@ args = 4, pretend = 0, frame = 40
	@ frame_needed = 0, uses_anonymous_args = 0
	ldr	ip, .L115
	push	{r4, r5, lr}
	.save {r4, r5, lr}
	mov	r5, r1
	.pad #44
	sub	sp, sp, #44
	mov	lr, r0
	ldr	r4, .L115+4
	ldm	r3, {r0, r1}
.LPIC15:
	add	ip, pc, ip
	add	r3, sp, #4
	ldr	r4, [ip, r4]
	str	r2, [sp, #16]
	stm	r3, {r0, r1}
	ldm	lr, {r0, r1, r2, r3}
	add	ip, sp, #20
	add	lr, r4, #8
	str	lr, [sp]
	stm	ip, {r0, r1, r2, r3}
	mov	r1, ip
	mov	r2, sp
	ldr	r0, [sp, #56]
	str	r5, [sp, #12]
	strh	r5, [sp, #36]	@ movhi
	bl	_ZN8opendnp312IAPDUHandler8OnHeaderERKNS_12PrefixHeaderERKNS_11ICollectionINS_7IndexedINS_13FrozenCounterEEEEE(PLT)
	add	sp, sp, #44
	@ sp needed
	pop	{r4, r5, pc}
.L116:
	.align	2
.L115:
	.word	_GLOBAL_OFFSET_TABLE_-(.LPIC15+8)
	.word	_ZTVN8opendnp318BufferedCollectionINS_7IndexedINS_13FrozenCounterEEEZNS_16CountIndexParser13InvokeCountOfINS_11Group23Var1EEEvRKNS_12HeaderRecordEtRKNS_9NumParserERKN7openpal6RSliceERNS_12IAPDUHandlerEEUlRSE_jE_EE(GOT)
	.fnend
	.size	_ZN8opendnp316CountIndexParser13InvokeCountOfINS_11Group23Var1EEEvRKNS_12HeaderRecordEtRKNS_9NumParserERKN7openpal6RSliceERNS_12IAPDUHandlerE, .-_ZN8opendnp316CountIndexParser13InvokeCountOfINS_11Group23Var1EEEvRKNS_12HeaderRecordEtRKNS_9NumParserERKN7openpal6RSliceERNS_12IAPDUHandlerE
	.section	.text._ZN8opendnp316CountIndexParser13InvokeCountOfINS_11Group23Var2EEEvRKNS_12HeaderRecordEtRKNS_9NumParserERKN7openpal6RSliceERNS_12IAPDUHandlerE,"axG",%progbits,_ZN8opendnp316CountIndexParser13InvokeCountOfINS_11Group23Var2EEEvRKNS_12HeaderRecordEtRKNS_9NumParserERKN7openpal6RSliceERNS_12IAPDUHandlerE,comdat
	.align	2
	.weak	_ZN8opendnp316CountIndexParser13InvokeCountOfINS_11Group23Var2EEEvRKNS_12HeaderRecordEtRKNS_9NumParserERKN7openpal6RSliceERNS_12IAPDUHandlerE
	.syntax unified
	.arm
	.fpu vfp
	.type	_ZN8opendnp316CountIndexParser13InvokeCountOfINS_11Group23Var2EEEvRKNS_12HeaderRecordEtRKNS_9NumParserERKN7openpal6RSliceERNS_12IAPDUHandlerE, %function
_ZN8opendnp316CountIndexParser13InvokeCountOfINS_11Group23Var2EEEvRKNS_12HeaderRecordEtRKNS_9NumParserERKN7openpal6RSliceERNS_12IAPDUHandlerE:
	.fnstart
.LFB3063:
	@ args = 4, pretend = 0, frame = 40
	@ frame_needed = 0, uses_anonymous_args = 0
	ldr	ip, .L119
	push	{r4, r5, lr}
	.save {r4, r5, lr}
	mov	r5, r1
	.pad #44
	sub	sp, sp, #44
	mov	lr, r0
	ldr	r4, .L119+4
	ldm	r3, {r0, r1}
.LPIC16:
	add	ip, pc, ip
	add	r3, sp, #4
	ldr	r4, [ip, r4]
	str	r2, [sp, #16]
	stm	r3, {r0, r1}
	ldm	lr, {r0, r1, r2, r3}
	add	ip, sp, #20
	add	lr, r4, #8
	str	lr, [sp]
	stm	ip, {r0, r1, r2, r3}
	mov	r1, ip
	mov	r2, sp
	ldr	r0, [sp, #56]
	str	r5, [sp, #12]
	strh	r5, [sp, #36]	@ movhi
	bl	_ZN8opendnp312IAPDUHandler8OnHeaderERKNS_12PrefixHeaderERKNS_11ICollectionINS_7IndexedINS_13FrozenCounterEEEEE(PLT)
	add	sp, sp, #44
	@ sp needed
	pop	{r4, r5, pc}
.L120:
	.align	2
.L119:
	.word	_GLOBAL_OFFSET_TABLE_-(.LPIC16+8)
	.word	_ZTVN8opendnp318BufferedCollectionINS_7IndexedINS_13FrozenCounterEEEZNS_16CountIndexParser13InvokeCountOfINS_11Group23Var2EEEvRKNS_12HeaderRecordEtRKNS_9NumParserERKN7openpal6RSliceERNS_12IAPDUHandlerEEUlRSE_jE_EE(GOT)
	.fnend
	.size	_ZN8opendnp316CountIndexParser13InvokeCountOfINS_11Group23Var2EEEvRKNS_12HeaderRecordEtRKNS_9NumParserERKN7openpal6RSliceERNS_12IAPDUHandlerE, .-_ZN8opendnp316CountIndexParser13InvokeCountOfINS_11Group23Var2EEEvRKNS_12HeaderRecordEtRKNS_9NumParserERKN7openpal6RSliceERNS_12IAPDUHandlerE
	.section	.text._ZN8opendnp316CountIndexParser13InvokeCountOfINS_11Group23Var5EEEvRKNS_12HeaderRecordEtRKNS_9NumParserERKN7openpal6RSliceERNS_12IAPDUHandlerE,"axG",%progbits,_ZN8opendnp316CountIndexParser13InvokeCountOfINS_11Group23Var5EEEvRKNS_12HeaderRecordEtRKNS_9NumParserERKN7openpal6RSliceERNS_12IAPDUHandlerE,comdat
	.align	2
	.weak	_ZN8opendnp316CountIndexParser13InvokeCountOfINS_11Group23Var5EEEvRKNS_12HeaderRecordEtRKNS_9NumParserERKN7openpal6RSliceERNS_12IAPDUHandlerE
	.syntax unified
	.arm
	.fpu vfp
	.type	_ZN8opendnp316CountIndexParser13InvokeCountOfINS_11Group23Var5EEEvRKNS_12HeaderRecordEtRKNS_9NumParserERKN7openpal6RSliceERNS_12IAPDUHandlerE, %function
_ZN8opendnp316CountIndexParser13InvokeCountOfINS_11Group23Var5EEEvRKNS_12HeaderRecordEtRKNS_9NumParserERKN7openpal6RSliceERNS_12IAPDUHandlerE:
	.fnstart
.LFB3068:
	@ args = 4, pretend = 0, frame = 40
	@ frame_needed = 0, uses_anonymous_args = 0
	ldr	ip, .L123
	push	{r4, r5, lr}
	.save {r4, r5, lr}
	mov	r5, r1
	.pad #44
	sub	sp, sp, #44
	mov	lr, r0
	ldr	r4, .L123+4
	ldm	r3, {r0, r1}
.LPIC17:
	add	ip, pc, ip
	add	r3, sp, #4
	ldr	r4, [ip, r4]
	str	r2, [sp, #16]
	stm	r3, {r0, r1}
	ldm	lr, {r0, r1, r2, r3}
	add	ip, sp, #20
	add	lr, r4, #8
	str	lr, [sp]
	stm	ip, {r0, r1, r2, r3}
	mov	r1, ip
	mov	r2, sp
	ldr	r0, [sp, #56]
	str	r5, [sp, #12]
	strh	r5, [sp, #36]	@ movhi
	bl	_ZN8opendnp312IAPDUHandler8OnHeaderERKNS_12PrefixHeaderERKNS_11ICollectionINS_7IndexedINS_13FrozenCounterEEEEE(PLT)
	add	sp, sp, #44
	@ sp needed
	pop	{r4, r5, pc}
.L124:
	.align	2
.L123:
	.word	_GLOBAL_OFFSET_TABLE_-(.LPIC17+8)
	.word	_ZTVN8opendnp318BufferedCollectionINS_7IndexedINS_13FrozenCounterEEEZNS_16CountIndexParser13InvokeCountOfINS_11Group23Var5EEEvRKNS_12HeaderRecordEtRKNS_9NumParserERKN7openpal6RSliceERNS_12IAPDUHandlerEEUlRSE_jE_EE(GOT)
	.fnend
	.size	_ZN8opendnp316CountIndexParser13InvokeCountOfINS_11Group23Var5EEEvRKNS_12HeaderRecordEtRKNS_9NumParserERKN7openpal6RSliceERNS_12IAPDUHandlerE, .-_ZN8opendnp316CountIndexParser13InvokeCountOfINS_11Group23Var5EEEvRKNS_12HeaderRecordEtRKNS_9NumParserERKN7openpal6RSliceERNS_12IAPDUHandlerE
	.section	.text._ZN8opendnp316CountIndexParser13InvokeCountOfINS_11Group23Var6EEEvRKNS_12HeaderRecordEtRKNS_9NumParserERKN7openpal6RSliceERNS_12IAPDUHandlerE,"axG",%progbits,_ZN8opendnp316CountIndexParser13InvokeCountOfINS_11Group23Var6EEEvRKNS_12HeaderRecordEtRKNS_9NumParserERKN7openpal6RSliceERNS_12IAPDUHandlerE,comdat
	.align	2
	.weak	_ZN8opendnp316CountIndexParser13InvokeCountOfINS_11Group23Var6EEEvRKNS_12HeaderRecordEtRKNS_9NumParserERKN7openpal6RSliceERNS_12IAPDUHandlerE
	.syntax unified
	.arm
	.fpu vfp
	.type	_ZN8opendnp316CountIndexParser13InvokeCountOfINS_11Group23Var6EEEvRKNS_12HeaderRecordEtRKNS_9NumParserERKN7openpal6RSliceERNS_12IAPDUHandlerE, %function
_ZN8opendnp316CountIndexParser13InvokeCountOfINS_11Group23Var6EEEvRKNS_12HeaderRecordEtRKNS_9NumParserERKN7openpal6RSliceERNS_12IAPDUHandlerE:
	.fnstart
.LFB3073:
	@ args = 4, pretend = 0, frame = 40
	@ frame_needed = 0, uses_anonymous_args = 0
	ldr	ip, .L127
	push	{r4, r5, lr}
	.save {r4, r5, lr}
	mov	r5, r1
	.pad #44
	sub	sp, sp, #44
	mov	lr, r0
	ldr	r4, .L127+4
	ldm	r3, {r0, r1}
.LPIC18:
	add	ip, pc, ip
	add	r3, sp, #4
	ldr	r4, [ip, r4]
	str	r2, [sp, #16]
	stm	r3, {r0, r1}
	ldm	lr, {r0, r1, r2, r3}
	add	ip, sp, #20
	add	lr, r4, #8
	str	lr, [sp]
	stm	ip, {r0, r1, r2, r3}
	mov	r1, ip
	mov	r2, sp
	ldr	r0, [sp, #56]
	str	r5, [sp, #12]
	strh	r5, [sp, #36]	@ movhi
	bl	_ZN8opendnp312IAPDUHandler8OnHeaderERKNS_12PrefixHeaderERKNS_11ICollectionINS_7IndexedINS_13FrozenCounterEEEEE(PLT)
	add	sp, sp, #44
	@ sp needed
	pop	{r4, r5, pc}
.L128:
	.align	2
.L127:
	.word	_GLOBAL_OFFSET_TABLE_-(.LPIC18+8)
	.word	_ZTVN8opendnp318BufferedCollectionINS_7IndexedINS_13FrozenCounterEEEZNS_16CountIndexParser13InvokeCountOfINS_11Group23Var6EEEvRKNS_12HeaderRecordEtRKNS_9NumParserERKN7openpal6RSliceERNS_12IAPDUHandlerEEUlRSE_jE_EE(GOT)
	.fnend
	.size	_ZN8opendnp316CountIndexParser13InvokeCountOfINS_11Group23Var6EEEvRKNS_12HeaderRecordEtRKNS_9NumParserERKN7openpal6RSliceERNS_12IAPDUHandlerE, .-_ZN8opendnp316CountIndexParser13InvokeCountOfINS_11Group23Var6EEEvRKNS_12HeaderRecordEtRKNS_9NumParserERKN7openpal6RSliceERNS_12IAPDUHandlerE
	.section	.text._ZN8opendnp316CountIndexParser13InvokeCountOfINS_11Group32Var1EEEvRKNS_12HeaderRecordEtRKNS_9NumParserERKN7openpal6RSliceERNS_12IAPDUHandlerE,"axG",%progbits,_ZN8opendnp316CountIndexParser13InvokeCountOfINS_11Group32Var1EEEvRKNS_12HeaderRecordEtRKNS_9NumParserERKN7openpal6RSliceERNS_12IAPDUHandlerE,comdat
	.align	2
	.weak	_ZN8opendnp316CountIndexParser13InvokeCountOfINS_11Group32Var1EEEvRKNS_12HeaderRecordEtRKNS_9NumParserERKN7openpal6RSliceERNS_12IAPDUHandlerE
	.syntax unified
	.arm
	.fpu vfp
	.type	_ZN8opendnp316CountIndexParser13InvokeCountOfINS_11Group32Var1EEEvRKNS_12HeaderRecordEtRKNS_9NumParserERKN7openpal6RSliceERNS_12IAPDUHandlerE, %function
_ZN8opendnp316CountIndexParser13InvokeCountOfINS_11Group32Var1EEEvRKNS_12HeaderRecordEtRKNS_9NumParserERKN7openpal6RSliceERNS_12IAPDUHandlerE:
	.fnstart
.LFB3078:
	@ args = 4, pretend = 0, frame = 40
	@ frame_needed = 0, uses_anonymous_args = 0
	ldr	ip, .L131
	push	{r4, r5, lr}
	.save {r4, r5, lr}
	mov	r5, r1
	.pad #44
	sub	sp, sp, #44
	mov	lr, r0
	ldr	r4, .L131+4
	ldm	r3, {r0, r1}
.LPIC19:
	add	ip, pc, ip
	add	r3, sp, #4
	ldr	r4, [ip, r4]
	str	r2, [sp, #16]
	stm	r3, {r0, r1}
	ldm	lr, {r0, r1, r2, r3}
	add	ip, sp, #20
	add	lr, r4, #8
	str	lr, [sp]
	stm	ip, {r0, r1, r2, r3}
	mov	r1, ip
	mov	r2, sp
	ldr	r0, [sp, #56]
	str	r5, [sp, #12]
	strh	r5, [sp, #36]	@ movhi
	bl	_ZN8opendnp312IAPDUHandler8OnHeaderERKNS_12PrefixHeaderERKNS_11ICollectionINS_7IndexedINS_6AnalogEEEEE(PLT)
	add	sp, sp, #44
	@ sp needed
	pop	{r4, r5, pc}
.L132:
	.align	2
.L131:
	.word	_GLOBAL_OFFSET_TABLE_-(.LPIC19+8)
	.word	_ZTVN8opendnp318BufferedCollectionINS_7IndexedINS_6AnalogEEEZNS_16CountIndexParser13InvokeCountOfINS_11Group32Var1EEEvRKNS_12HeaderRecordEtRKNS_9NumParserERKN7openpal6RSliceERNS_12IAPDUHandlerEEUlRSE_jE_EE(GOT)
	.fnend
	.size	_ZN8opendnp316CountIndexParser13InvokeCountOfINS_11Group32Var1EEEvRKNS_12HeaderRecordEtRKNS_9NumParserERKN7openpal6RSliceERNS_12IAPDUHandlerE, .-_ZN8opendnp316CountIndexParser13InvokeCountOfINS_11Group32Var1EEEvRKNS_12HeaderRecordEtRKNS_9NumParserERKN7openpal6RSliceERNS_12IAPDUHandlerE
	.section	.text._ZN8opendnp316CountIndexParser13InvokeCountOfINS_11Group32Var2EEEvRKNS_12HeaderRecordEtRKNS_9NumParserERKN7openpal6RSliceERNS_12IAPDUHandlerE,"axG",%progbits,_ZN8opendnp316CountIndexParser13InvokeCountOfINS_11Group32Var2EEEvRKNS_12HeaderRecordEtRKNS_9NumParserERKN7openpal6RSliceERNS_12IAPDUHandlerE,comdat
	.align	2
	.weak	_ZN8opendnp316CountIndexParser13InvokeCountOfINS_11Group32Var2EEEvRKNS_12HeaderRecordEtRKNS_9NumParserERKN7openpal6RSliceERNS_12IAPDUHandlerE
	.syntax unified
	.arm
	.fpu vfp
	.type	_ZN8opendnp316CountIndexParser13InvokeCountOfINS_11Group32Var2EEEvRKNS_12HeaderRecordEtRKNS_9NumParserERKN7openpal6RSliceERNS_12IAPDUHandlerE, %function
_ZN8opendnp316CountIndexParser13InvokeCountOfINS_11Group32Var2EEEvRKNS_12HeaderRecordEtRKNS_9NumParserERKN7openpal6RSliceERNS_12IAPDUHandlerE:
	.fnstart
.LFB3086:
	@ args = 4, pretend = 0, frame = 40
	@ frame_needed = 0, uses_anonymous_args = 0
	ldr	ip, .L135
	push	{r4, r5, lr}
	.save {r4, r5, lr}
	mov	r5, r1
	.pad #44
	sub	sp, sp, #44
	mov	lr, r0
	ldr	r4, .L135+4
	ldm	r3, {r0, r1}
.LPIC20:
	add	ip, pc, ip
	add	r3, sp, #4
	ldr	r4, [ip, r4]
	str	r2, [sp, #16]
	stm	r3, {r0, r1}
	ldm	lr, {r0, r1, r2, r3}
	add	ip, sp, #20
	add	lr, r4, #8
	str	lr, [sp]
	stm	ip, {r0, r1, r2, r3}
	mov	r1, ip
	mov	r2, sp
	ldr	r0, [sp, #56]
	str	r5, [sp, #12]
	strh	r5, [sp, #36]	@ movhi
	bl	_ZN8opendnp312IAPDUHandler8OnHeaderERKNS_12PrefixHeaderERKNS_11ICollectionINS_7IndexedINS_6AnalogEEEEE(PLT)
	add	sp, sp, #44
	@ sp needed
	pop	{r4, r5, pc}
.L136:
	.align	2
.L135:
	.word	_GLOBAL_OFFSET_TABLE_-(.LPIC20+8)
	.word	_ZTVN8opendnp318BufferedCollectionINS_7IndexedINS_6AnalogEEEZNS_16CountIndexParser13InvokeCountOfINS_11Group32Var2EEEvRKNS_12HeaderRecordEtRKNS_9NumParserERKN7openpal6RSliceERNS_12IAPDUHandlerEEUlRSE_jE_EE(GOT)
	.fnend
	.size	_ZN8opendnp316CountIndexParser13InvokeCountOfINS_11Group32Var2EEEvRKNS_12HeaderRecordEtRKNS_9NumParserERKN7openpal6RSliceERNS_12IAPDUHandlerE, .-_ZN8opendnp316CountIndexParser13InvokeCountOfINS_11Group32Var2EEEvRKNS_12HeaderRecordEtRKNS_9NumParserERKN7openpal6RSliceERNS_12IAPDUHandlerE
	.section	.text._ZN8opendnp316CountIndexParser13InvokeCountOfINS_11Group32Var3EEEvRKNS_12HeaderRecordEtRKNS_9NumParserERKN7openpal6RSliceERNS_12IAPDUHandlerE,"axG",%progbits,_ZN8opendnp316CountIndexParser13InvokeCountOfINS_11Group32Var3EEEvRKNS_12HeaderRecordEtRKNS_9NumParserERKN7openpal6RSliceERNS_12IAPDUHandlerE,comdat
	.align	2
	.weak	_ZN8opendnp316CountIndexParser13InvokeCountOfINS_11Group32Var3EEEvRKNS_12HeaderRecordEtRKNS_9NumParserERKN7openpal6RSliceERNS_12IAPDUHandlerE
	.syntax unified
	.arm
	.fpu vfp
	.type	_ZN8opendnp316CountIndexParser13InvokeCountOfINS_11Group32Var3EEEvRKNS_12HeaderRecordEtRKNS_9NumParserERKN7openpal6RSliceERNS_12IAPDUHandlerE, %function
_ZN8opendnp316CountIndexParser13InvokeCountOfINS_11Group32Var3EEEvRKNS_12HeaderRecordEtRKNS_9NumParserERKN7openpal6RSliceERNS_12IAPDUHandlerE:
	.fnstart
.LFB3091:
	@ args = 4, pretend = 0, frame = 40
	@ frame_needed = 0, uses_anonymous_args = 0
	ldr	ip, .L139
	push	{r4, r5, lr}
	.save {r4, r5, lr}
	mov	r5, r1
	.pad #44
	sub	sp, sp, #44
	mov	lr, r0
	ldr	r4, .L139+4
	ldm	r3, {r0, r1}
.LPIC21:
	add	ip, pc, ip
	add	r3, sp, #4
	ldr	r4, [ip, r4]
	str	r2, [sp, #16]
	stm	r3, {r0, r1}
	ldm	lr, {r0, r1, r2, r3}
	add	ip, sp, #20
	add	lr, r4, #8
	str	lr, [sp]
	stm	ip, {r0, r1, r2, r3}
	mov	r1, ip
	mov	r2, sp
	ldr	r0, [sp, #56]
	str	r5, [sp, #12]
	strh	r5, [sp, #36]	@ movhi
	bl	_ZN8opendnp312IAPDUHandler8OnHeaderERKNS_12PrefixHeaderERKNS_11ICollectionINS_7IndexedINS_6AnalogEEEEE(PLT)
	add	sp, sp, #44
	@ sp needed
	pop	{r4, r5, pc}
.L140:
	.align	2
.L139:
	.word	_GLOBAL_OFFSET_TABLE_-(.LPIC21+8)
	.word	_ZTVN8opendnp318BufferedCollectionINS_7IndexedINS_6AnalogEEEZNS_16CountIndexParser13InvokeCountOfINS_11Group32Var3EEEvRKNS_12HeaderRecordEtRKNS_9NumParserERKN7openpal6RSliceERNS_12IAPDUHandlerEEUlRSE_jE_EE(GOT)
	.fnend
	.size	_ZN8opendnp316CountIndexParser13InvokeCountOfINS_11Group32Var3EEEvRKNS_12HeaderRecordEtRKNS_9NumParserERKN7openpal6RSliceERNS_12IAPDUHandlerE, .-_ZN8opendnp316CountIndexParser13InvokeCountOfINS_11Group32Var3EEEvRKNS_12HeaderRecordEtRKNS_9NumParserERKN7openpal6RSliceERNS_12IAPDUHandlerE
	.section	.text._ZN8opendnp316CountIndexParser13InvokeCountOfINS_11Group32Var4EEEvRKNS_12HeaderRecordEtRKNS_9NumParserERKN7openpal6RSliceERNS_12IAPDUHandlerE,"axG",%progbits,_ZN8opendnp316CountIndexParser13InvokeCountOfINS_11Group32Var4EEEvRKNS_12HeaderRecordEtRKNS_9NumParserERKN7openpal6RSliceERNS_12IAPDUHandlerE,comdat
	.align	2
	.weak	_ZN8opendnp316CountIndexParser13InvokeCountOfINS_11Group32Var4EEEvRKNS_12HeaderRecordEtRKNS_9NumParserERKN7openpal6RSliceERNS_12IAPDUHandlerE
	.syntax unified
	.arm
	.fpu vfp
	.type	_ZN8opendnp316CountIndexParser13InvokeCountOfINS_11Group32Var4EEEvRKNS_12HeaderRecordEtRKNS_9NumParserERKN7openpal6RSliceERNS_12IAPDUHandlerE, %function
_ZN8opendnp316CountIndexParser13InvokeCountOfINS_11Group32Var4EEEvRKNS_12HeaderRecordEtRKNS_9NumParserERKN7openpal6RSliceERNS_12IAPDUHandlerE:
	.fnstart
.LFB3096:
	@ args = 4, pretend = 0, frame = 40
	@ frame_needed = 0, uses_anonymous_args = 0
	ldr	ip, .L143
	push	{r4, r5, lr}
	.save {r4, r5, lr}
	mov	r5, r1
	.pad #44
	sub	sp, sp, #44
	mov	lr, r0
	ldr	r4, .L143+4
	ldm	r3, {r0, r1}
.LPIC22:
	add	ip, pc, ip
	add	r3, sp, #4
	ldr	r4, [ip, r4]
	str	r2, [sp, #16]
	stm	r3, {r0, r1}
	ldm	lr, {r0, r1, r2, r3}
	add	ip, sp, #20
	add	lr, r4, #8
	str	lr, [sp]
	stm	ip, {r0, r1, r2, r3}
	mov	r1, ip
	mov	r2, sp
	ldr	r0, [sp, #56]
	str	r5, [sp, #12]
	strh	r5, [sp, #36]	@ movhi
	bl	_ZN8opendnp312IAPDUHandler8OnHeaderERKNS_12PrefixHeaderERKNS_11ICollectionINS_7IndexedINS_6AnalogEEEEE(PLT)
	add	sp, sp, #44
	@ sp needed
	pop	{r4, r5, pc}
.L144:
	.align	2
.L143:
	.word	_GLOBAL_OFFSET_TABLE_-(.LPIC22+8)
	.word	_ZTVN8opendnp318BufferedCollectionINS_7IndexedINS_6AnalogEEEZNS_16CountIndexParser13InvokeCountOfINS_11Group32Var4EEEvRKNS_12HeaderRecordEtRKNS_9NumParserERKN7openpal6RSliceERNS_12IAPDUHandlerEEUlRSE_jE_EE(GOT)
	.fnend
	.size	_ZN8opendnp316CountIndexParser13InvokeCountOfINS_11Group32Var4EEEvRKNS_12HeaderRecordEtRKNS_9NumParserERKN7openpal6RSliceERNS_12IAPDUHandlerE, .-_ZN8opendnp316CountIndexParser13InvokeCountOfINS_11Group32Var4EEEvRKNS_12HeaderRecordEtRKNS_9NumParserERKN7openpal6RSliceERNS_12IAPDUHandlerE
	.section	.text._ZN8opendnp316CountIndexParser13InvokeCountOfINS_11Group32Var5EEEvRKNS_12HeaderRecordEtRKNS_9NumParserERKN7openpal6RSliceERNS_12IAPDUHandlerE,"axG",%progbits,_ZN8opendnp316CountIndexParser13InvokeCountOfINS_11Group32Var5EEEvRKNS_12HeaderRecordEtRKNS_9NumParserERKN7openpal6RSliceERNS_12IAPDUHandlerE,comdat
	.align	2
	.weak	_ZN8opendnp316CountIndexParser13InvokeCountOfINS_11Group32Var5EEEvRKNS_12HeaderRecordEtRKNS_9NumParserERKN7openpal6RSliceERNS_12IAPDUHandlerE
	.syntax unified
	.arm
	.fpu vfp
	.type	_ZN8opendnp316CountIndexParser13InvokeCountOfINS_11Group32Var5EEEvRKNS_12HeaderRecordEtRKNS_9NumParserERKN7openpal6RSliceERNS_12IAPDUHandlerE, %function
_ZN8opendnp316CountIndexParser13InvokeCountOfINS_11Group32Var5EEEvRKNS_12HeaderRecordEtRKNS_9NumParserERKN7openpal6RSliceERNS_12IAPDUHandlerE:
	.fnstart
.LFB3101:
	@ args = 4, pretend = 0, frame = 40
	@ frame_needed = 0, uses_anonymous_args = 0
	ldr	ip, .L147
	push	{r4, r5, lr}
	.save {r4, r5, lr}
	mov	r5, r1
	.pad #44
	sub	sp, sp, #44
	mov	lr, r0
	ldr	r4, .L147+4
	ldm	r3, {r0, r1}
.LPIC23:
	add	ip, pc, ip
	add	r3, sp, #4
	ldr	r4, [ip, r4]
	str	r2, [sp, #16]
	stm	r3, {r0, r1}
	ldm	lr, {r0, r1, r2, r3}
	add	ip, sp, #20
	add	lr, r4, #8
	str	lr, [sp]
	stm	ip, {r0, r1, r2, r3}
	mov	r1, ip
	mov	r2, sp
	ldr	r0, [sp, #56]
	str	r5, [sp, #12]
	strh	r5, [sp, #36]	@ movhi
	bl	_ZN8opendnp312IAPDUHandler8OnHeaderERKNS_12PrefixHeaderERKNS_11ICollectionINS_7IndexedINS_6AnalogEEEEE(PLT)
	add	sp, sp, #44
	@ sp needed
	pop	{r4, r5, pc}
.L148:
	.align	2
.L147:
	.word	_GLOBAL_OFFSET_TABLE_-(.LPIC23+8)
	.word	_ZTVN8opendnp318BufferedCollectionINS_7IndexedINS_6AnalogEEEZNS_16CountIndexParser13InvokeCountOfINS_11Group32Var5EEEvRKNS_12HeaderRecordEtRKNS_9NumParserERKN7openpal6RSliceERNS_12IAPDUHandlerEEUlRSE_jE_EE(GOT)
	.fnend
	.size	_ZN8opendnp316CountIndexParser13InvokeCountOfINS_11Group32Var5EEEvRKNS_12HeaderRecordEtRKNS_9NumParserERKN7openpal6RSliceERNS_12IAPDUHandlerE, .-_ZN8opendnp316CountIndexParser13InvokeCountOfINS_11Group32Var5EEEvRKNS_12HeaderRecordEtRKNS_9NumParserERKN7openpal6RSliceERNS_12IAPDUHandlerE
	.section	.text._ZN8opendnp316CountIndexParser13InvokeCountOfINS_11Group32Var6EEEvRKNS_12HeaderRecordEtRKNS_9NumParserERKN7openpal6RSliceERNS_12IAPDUHandlerE,"axG",%progbits,_ZN8opendnp316CountIndexParser13InvokeCountOfINS_11Group32Var6EEEvRKNS_12HeaderRecordEtRKNS_9NumParserERKN7openpal6RSliceERNS_12IAPDUHandlerE,comdat
	.align	2
	.weak	_ZN8opendnp316CountIndexParser13InvokeCountOfINS_11Group32Var6EEEvRKNS_12HeaderRecordEtRKNS_9NumParserERKN7openpal6RSliceERNS_12IAPDUHandlerE
	.syntax unified
	.arm
	.fpu vfp
	.type	_ZN8opendnp316CountIndexParser13InvokeCountOfINS_11Group32Var6EEEvRKNS_12HeaderRecordEtRKNS_9NumParserERKN7openpal6RSliceERNS_12IAPDUHandlerE, %function
_ZN8opendnp316CountIndexParser13InvokeCountOfINS_11Group32Var6EEEvRKNS_12HeaderRecordEtRKNS_9NumParserERKN7openpal6RSliceERNS_12IAPDUHandlerE:
	.fnstart
.LFB3106:
	@ args = 4, pretend = 0, frame = 40
	@ frame_needed = 0, uses_anonymous_args = 0
	ldr	ip, .L151
	push	{r4, r5, lr}
	.save {r4, r5, lr}
	mov	r5, r1
	.pad #44
	sub	sp, sp, #44
	mov	lr, r0
	ldr	r4, .L151+4
	ldm	r3, {r0, r1}
.LPIC24:
	add	ip, pc, ip
	add	r3, sp, #4
	ldr	r4, [ip, r4]
	str	r2, [sp, #16]
	stm	r3, {r0, r1}
	ldm	lr, {r0, r1, r2, r3}
	add	ip, sp, #20
	add	lr, r4, #8
	str	lr, [sp]
	stm	ip, {r0, r1, r2, r3}
	mov	r1, ip
	mov	r2, sp
	ldr	r0, [sp, #56]
	str	r5, [sp, #12]
	strh	r5, [sp, #36]	@ movhi
	bl	_ZN8opendnp312IAPDUHandler8OnHeaderERKNS_12PrefixHeaderERKNS_11ICollectionINS_7IndexedINS_6AnalogEEEEE(PLT)
	add	sp, sp, #44
	@ sp needed
	pop	{r4, r5, pc}
.L152:
	.align	2
.L151:
	.word	_GLOBAL_OFFSET_TABLE_-(.LPIC24+8)
	.word	_ZTVN8opendnp318BufferedCollectionINS_7IndexedINS_6AnalogEEEZNS_16CountIndexParser13InvokeCountOfINS_11Group32Var6EEEvRKNS_12HeaderRecordEtRKNS_9NumParserERKN7openpal6RSliceERNS_12IAPDUHandlerEEUlRSE_jE_EE(GOT)
	.fnend
	.size	_ZN8opendnp316CountIndexParser13InvokeCountOfINS_11Group32Var6EEEvRKNS_12HeaderRecordEtRKNS_9NumParserERKN7openpal6RSliceERNS_12IAPDUHandlerE, .-_ZN8opendnp316CountIndexParser13InvokeCountOfINS_11Group32Var6EEEvRKNS_12HeaderRecordEtRKNS_9NumParserERKN7openpal6RSliceERNS_12IAPDUHandlerE
	.section	.text._ZN8opendnp316CountIndexParser13InvokeCountOfINS_11Group32Var7EEEvRKNS_12HeaderRecordEtRKNS_9NumParserERKN7openpal6RSliceERNS_12IAPDUHandlerE,"axG",%progbits,_ZN8opendnp316CountIndexParser13InvokeCountOfINS_11Group32Var7EEEvRKNS_12HeaderRecordEtRKNS_9NumParserERKN7openpal6RSliceERNS_12IAPDUHandlerE,comdat
	.align	2
	.weak	_ZN8opendnp316CountIndexParser13InvokeCountOfINS_11Group32Var7EEEvRKNS_12HeaderRecordEtRKNS_9NumParserERKN7openpal6RSliceERNS_12IAPDUHandlerE
	.syntax unified
	.arm
	.fpu vfp
	.type	_ZN8opendnp316CountIndexParser13InvokeCountOfINS_11Group32Var7EEEvRKNS_12HeaderRecordEtRKNS_9NumParserERKN7openpal6RSliceERNS_12IAPDUHandlerE, %function
_ZN8opendnp316CountIndexParser13InvokeCountOfINS_11Group32Var7EEEvRKNS_12HeaderRecordEtRKNS_9NumParserERKN7openpal6RSliceERNS_12IAPDUHandlerE:
	.fnstart
.LFB3111:
	@ args = 4, pretend = 0, frame = 40
	@ frame_needed = 0, uses_anonymous_args = 0
	ldr	ip, .L155
	push	{r4, r5, lr}
	.save {r4, r5, lr}
	mov	r5, r1
	.pad #44
	sub	sp, sp, #44
	mov	lr, r0
	ldr	r4, .L155+4
	ldm	r3, {r0, r1}
.LPIC25:
	add	ip, pc, ip
	add	r3, sp, #4
	ldr	r4, [ip, r4]
	str	r2, [sp, #16]
	stm	r3, {r0, r1}
	ldm	lr, {r0, r1, r2, r3}
	add	ip, sp, #20
	add	lr, r4, #8
	str	lr, [sp]
	stm	ip, {r0, r1, r2, r3}
	mov	r1, ip
	mov	r2, sp
	ldr	r0, [sp, #56]
	str	r5, [sp, #12]
	strh	r5, [sp, #36]	@ movhi
	bl	_ZN8opendnp312IAPDUHandler8OnHeaderERKNS_12PrefixHeaderERKNS_11ICollectionINS_7IndexedINS_6AnalogEEEEE(PLT)
	add	sp, sp, #44
	@ sp needed
	pop	{r4, r5, pc}
.L156:
	.align	2
.L155:
	.word	_GLOBAL_OFFSET_TABLE_-(.LPIC25+8)
	.word	_ZTVN8opendnp318BufferedCollectionINS_7IndexedINS_6AnalogEEEZNS_16CountIndexParser13InvokeCountOfINS_11Group32Var7EEEvRKNS_12HeaderRecordEtRKNS_9NumParserERKN7openpal6RSliceERNS_12IAPDUHandlerEEUlRSE_jE_EE(GOT)
	.fnend
	.size	_ZN8opendnp316CountIndexParser13InvokeCountOfINS_11Group32Var7EEEvRKNS_12HeaderRecordEtRKNS_9NumParserERKN7openpal6RSliceERNS_12IAPDUHandlerE, .-_ZN8opendnp316CountIndexParser13InvokeCountOfINS_11Group32Var7EEEvRKNS_12HeaderRecordEtRKNS_9NumParserERKN7openpal6RSliceERNS_12IAPDUHandlerE
	.section	.text._ZN8opendnp316CountIndexParser13InvokeCountOfINS_11Group32Var8EEEvRKNS_12HeaderRecordEtRKNS_9NumParserERKN7openpal6RSliceERNS_12IAPDUHandlerE,"axG",%progbits,_ZN8opendnp316CountIndexParser13InvokeCountOfINS_11Group32Var8EEEvRKNS_12HeaderRecordEtRKNS_9NumParserERKN7openpal6RSliceERNS_12IAPDUHandlerE,comdat
	.align	2
	.weak	_ZN8opendnp316CountIndexParser13InvokeCountOfINS_11Group32Var8EEEvRKNS_12HeaderRecordEtRKNS_9NumParserERKN7openpal6RSliceERNS_12IAPDUHandlerE
	.syntax unified
	.arm
	.fpu vfp
	.type	_ZN8opendnp316CountIndexParser13InvokeCountOfINS_11Group32Var8EEEvRKNS_12HeaderRecordEtRKNS_9NumParserERKN7openpal6RSliceERNS_12IAPDUHandlerE, %function
_ZN8opendnp316CountIndexParser13InvokeCountOfINS_11Group32Var8EEEvRKNS_12HeaderRecordEtRKNS_9NumParserERKN7openpal6RSliceERNS_12IAPDUHandlerE:
	.fnstart
.LFB3116:
	@ args = 4, pretend = 0, frame = 40
	@ frame_needed = 0, uses_anonymous_args = 0
	ldr	ip, .L159
	push	{r4, r5, lr}
	.save {r4, r5, lr}
	mov	r5, r1
	.pad #44
	sub	sp, sp, #44
	mov	lr, r0
	ldr	r4, .L159+4
	ldm	r3, {r0, r1}
.LPIC26:
	add	ip, pc, ip
	add	r3, sp, #4
	ldr	r4, [ip, r4]
	str	r2, [sp, #16]
	stm	r3, {r0, r1}
	ldm	lr, {r0, r1, r2, r3}
	add	ip, sp, #20
	add	lr, r4, #8
	str	lr, [sp]
	stm	ip, {r0, r1, r2, r3}
	mov	r1, ip
	mov	r2, sp
	ldr	r0, [sp, #56]
	str	r5, [sp, #12]
	strh	r5, [sp, #36]	@ movhi
	bl	_ZN8opendnp312IAPDUHandler8OnHeaderERKNS_12PrefixHeaderERKNS_11ICollectionINS_7IndexedINS_6AnalogEEEEE(PLT)
	add	sp, sp, #44
	@ sp needed
	pop	{r4, r5, pc}
.L160:
	.align	2
.L159:
	.word	_GLOBAL_OFFSET_TABLE_-(.LPIC26+8)
	.word	_ZTVN8opendnp318BufferedCollectionINS_7IndexedINS_6AnalogEEEZNS_16CountIndexParser13InvokeCountOfINS_11Group32Var8EEEvRKNS_12HeaderRecordEtRKNS_9NumParserERKN7openpal6RSliceERNS_12IAPDUHandlerEEUlRSE_jE_EE(GOT)
	.fnend
	.size	_ZN8opendnp316CountIndexParser13InvokeCountOfINS_11Group32Var8EEEvRKNS_12HeaderRecordEtRKNS_9NumParserERKN7openpal6RSliceERNS_12IAPDUHandlerE, .-_ZN8opendnp316CountIndexParser13InvokeCountOfINS_11Group32Var8EEEvRKNS_12HeaderRecordEtRKNS_9NumParserERKN7openpal6RSliceERNS_12IAPDUHandlerE
	.section	.text._ZN8opendnp316CountIndexParser13InvokeCountOfINS_11Group41Var1EEEvRKNS_12HeaderRecordEtRKNS_9NumParserERKN7openpal6RSliceERNS_12IAPDUHandlerE,"axG",%progbits,_ZN8opendnp316CountIndexParser13InvokeCountOfINS_11Group41Var1EEEvRKNS_12HeaderRecordEtRKNS_9NumParserERKN7openpal6RSliceERNS_12IAPDUHandlerE,comdat
	.align	2
	.weak	_ZN8opendnp316CountIndexParser13InvokeCountOfINS_11Group41Var1EEEvRKNS_12HeaderRecordEtRKNS_9NumParserERKN7openpal6RSliceERNS_12IAPDUHandlerE
	.syntax unified
	.arm
	.fpu vfp
	.type	_ZN8opendnp316CountIndexParser13InvokeCountOfINS_11Group41Var1EEEvRKNS_12HeaderRecordEtRKNS_9NumParserERKN7openpal6RSliceERNS_12IAPDUHandlerE, %function
_ZN8opendnp316CountIndexParser13InvokeCountOfINS_11Group41Var1EEEvRKNS_12HeaderRecordEtRKNS_9NumParserERKN7openpal6RSliceERNS_12IAPDUHandlerE:
	.fnstart
.LFB3121:
	@ args = 4, pretend = 0, frame = 40
	@ frame_needed = 0, uses_anonymous_args = 0
	ldr	ip, .L163
	push	{r4, r5, lr}
	.save {r4, r5, lr}
	mov	r5, r1
	.pad #44
	sub	sp, sp, #44
	mov	lr, r0
	ldr	r4, .L163+4
	ldm	r3, {r0, r1}
.LPIC27:
	add	ip, pc, ip
	add	r3, sp, #4
	ldr	r4, [ip, r4]
	str	r2, [sp, #16]
	stm	r3, {r0, r1}
	ldm	lr, {r0, r1, r2, r3}
	add	ip, sp, #20
	add	lr, r4, #8
	str	lr, [sp]
	stm	ip, {r0, r1, r2, r3}
	mov	r1, ip
	mov	r2, sp
	ldr	r0, [sp, #56]
	str	r5, [sp, #12]
	strh	r5, [sp, #36]	@ movhi
	bl	_ZN8opendnp312IAPDUHandler8OnHeaderERKNS_12PrefixHeaderERKNS_11ICollectionINS_7IndexedINS_17AnalogOutputInt32EEEEE(PLT)
	add	sp, sp, #44
	@ sp needed
	pop	{r4, r5, pc}
.L164:
	.align	2
.L163:
	.word	_GLOBAL_OFFSET_TABLE_-(.LPIC27+8)
	.word	_ZTVN8opendnp318BufferedCollectionINS_7IndexedINS_17AnalogOutputInt32EEEZNS_16CountIndexParser13InvokeCountOfINS_11Group41Var1EEEvRKNS_12HeaderRecordEtRKNS_9NumParserERKN7openpal6RSliceERNS_12IAPDUHandlerEEUlRSE_jE_EE(GOT)
	.fnend
	.size	_ZN8opendnp316CountIndexParser13InvokeCountOfINS_11Group41Var1EEEvRKNS_12HeaderRecordEtRKNS_9NumParserERKN7openpal6RSliceERNS_12IAPDUHandlerE, .-_ZN8opendnp316CountIndexParser13InvokeCountOfINS_11Group41Var1EEEvRKNS_12HeaderRecordEtRKNS_9NumParserERKN7openpal6RSliceERNS_12IAPDUHandlerE
	.section	.text._ZN8opendnp316CountIndexParser13InvokeCountOfINS_11Group41Var2EEEvRKNS_12HeaderRecordEtRKNS_9NumParserERKN7openpal6RSliceERNS_12IAPDUHandlerE,"axG",%progbits,_ZN8opendnp316CountIndexParser13InvokeCountOfINS_11Group41Var2EEEvRKNS_12HeaderRecordEtRKNS_9NumParserERKN7openpal6RSliceERNS_12IAPDUHandlerE,comdat
	.align	2
	.weak	_ZN8opendnp316CountIndexParser13InvokeCountOfINS_11Group41Var2EEEvRKNS_12HeaderRecordEtRKNS_9NumParserERKN7openpal6RSliceERNS_12IAPDUHandlerE
	.syntax unified
	.arm
	.fpu vfp
	.type	_ZN8opendnp316CountIndexParser13InvokeCountOfINS_11Group41Var2EEEvRKNS_12HeaderRecordEtRKNS_9NumParserERKN7openpal6RSliceERNS_12IAPDUHandlerE, %function
_ZN8opendnp316CountIndexParser13InvokeCountOfINS_11Group41Var2EEEvRKNS_12HeaderRecordEtRKNS_9NumParserERKN7openpal6RSliceERNS_12IAPDUHandlerE:
	.fnstart
.LFB3129:
	@ args = 4, pretend = 0, frame = 40
	@ frame_needed = 0, uses_anonymous_args = 0
	ldr	ip, .L167
	push	{r4, r5, lr}
	.save {r4, r5, lr}
	mov	r5, r1
	.pad #44
	sub	sp, sp, #44
	mov	lr, r0
	ldr	r4, .L167+4
	ldm	r3, {r0, r1}
.LPIC28:
	add	ip, pc, ip
	add	r3, sp, #4
	ldr	r4, [ip, r4]
	str	r2, [sp, #16]
	stm	r3, {r0, r1}
	ldm	lr, {r0, r1, r2, r3}
	add	ip, sp, #20
	add	lr, r4, #8
	str	lr, [sp]
	stm	ip, {r0, r1, r2, r3}
	mov	r1, ip
	mov	r2, sp
	ldr	r0, [sp, #56]
	str	r5, [sp, #12]
	strh	r5, [sp, #36]	@ movhi
	bl	_ZN8opendnp312IAPDUHandler8OnHeaderERKNS_12PrefixHeaderERKNS_11ICollectionINS_7IndexedINS_17AnalogOutputInt16EEEEE(PLT)
	add	sp, sp, #44
	@ sp needed
	pop	{r4, r5, pc}
.L168:
	.align	2
.L167:
	.word	_GLOBAL_OFFSET_TABLE_-(.LPIC28+8)
	.word	_ZTVN8opendnp318BufferedCollectionINS_7IndexedINS_17AnalogOutputInt16EEEZNS_16CountIndexParser13InvokeCountOfINS_11Group41Var2EEEvRKNS_12HeaderRecordEtRKNS_9NumParserERKN7openpal6RSliceERNS_12IAPDUHandlerEEUlRSE_jE_EE(GOT)
	.fnend
	.size	_ZN8opendnp316CountIndexParser13InvokeCountOfINS_11Group41Var2EEEvRKNS_12HeaderRecordEtRKNS_9NumParserERKN7openpal6RSliceERNS_12IAPDUHandlerE, .-_ZN8opendnp316CountIndexParser13InvokeCountOfINS_11Group41Var2EEEvRKNS_12HeaderRecordEtRKNS_9NumParserERKN7openpal6RSliceERNS_12IAPDUHandlerE
	.section	.text._ZN8opendnp316CountIndexParser13InvokeCountOfINS_11Group41Var3EEEvRKNS_12HeaderRecordEtRKNS_9NumParserERKN7openpal6RSliceERNS_12IAPDUHandlerE,"axG",%progbits,_ZN8opendnp316CountIndexParser13InvokeCountOfINS_11Group41Var3EEEvRKNS_12HeaderRecordEtRKNS_9NumParserERKN7openpal6RSliceERNS_12IAPDUHandlerE,comdat
	.align	2
	.weak	_ZN8opendnp316CountIndexParser13InvokeCountOfINS_11Group41Var3EEEvRKNS_12HeaderRecordEtRKNS_9NumParserERKN7openpal6RSliceERNS_12IAPDUHandlerE
	.syntax unified
	.arm
	.fpu vfp
	.type	_ZN8opendnp316CountIndexParser13InvokeCountOfINS_11Group41Var3EEEvRKNS_12HeaderRecordEtRKNS_9NumParserERKN7openpal6RSliceERNS_12IAPDUHandlerE, %function
_ZN8opendnp316CountIndexParser13InvokeCountOfINS_11Group41Var3EEEvRKNS_12HeaderRecordEtRKNS_9NumParserERKN7openpal6RSliceERNS_12IAPDUHandlerE:
	.fnstart
.LFB3137:
	@ args = 4, pretend = 0, frame = 40
	@ frame_needed = 0, uses_anonymous_args = 0
	ldr	ip, .L171
	push	{r4, r5, lr}
	.save {r4, r5, lr}
	mov	r5, r1
	.pad #44
	sub	sp, sp, #44
	mov	lr, r0
	ldr	r4, .L171+4
	ldm	r3, {r0, r1}
.LPIC29:
	add	ip, pc, ip
	add	r3, sp, #4
	ldr	r4, [ip, r4]
	str	r2, [sp, #16]
	stm	r3, {r0, r1}
	ldm	lr, {r0, r1, r2, r3}
	add	ip, sp, #20
	add	lr, r4, #8
	str	lr, [sp]
	stm	ip, {r0, r1, r2, r3}
	mov	r1, ip
	mov	r2, sp
	ldr	r0, [sp, #56]
	str	r5, [sp, #12]
	strh	r5, [sp, #36]	@ movhi
	bl	_ZN8opendnp312IAPDUHandler8OnHeaderERKNS_12PrefixHeaderERKNS_11ICollectionINS_7IndexedINS_19AnalogOutputFloat32EEEEE(PLT)
	add	sp, sp, #44
	@ sp needed
	pop	{r4, r5, pc}
.L172:
	.align	2
.L171:
	.word	_GLOBAL_OFFSET_TABLE_-(.LPIC29+8)
	.word	_ZTVN8opendnp318BufferedCollectionINS_7IndexedINS_19AnalogOutputFloat32EEEZNS_16CountIndexParser13InvokeCountOfINS_11Group41Var3EEEvRKNS_12HeaderRecordEtRKNS_9NumParserERKN7openpal6RSliceERNS_12IAPDUHandlerEEUlRSE_jE_EE(GOT)
	.fnend
	.size	_ZN8opendnp316CountIndexParser13InvokeCountOfINS_11Group41Var3EEEvRKNS_12HeaderRecordEtRKNS_9NumParserERKN7openpal6RSliceERNS_12IAPDUHandlerE, .-_ZN8opendnp316CountIndexParser13InvokeCountOfINS_11Group41Var3EEEvRKNS_12HeaderRecordEtRKNS_9NumParserERKN7openpal6RSliceERNS_12IAPDUHandlerE
	.section	.text._ZN8opendnp316CountIndexParser13InvokeCountOfINS_11Group41Var4EEEvRKNS_12HeaderRecordEtRKNS_9NumParserERKN7openpal6RSliceERNS_12IAPDUHandlerE,"axG",%progbits,_ZN8opendnp316CountIndexParser13InvokeCountOfINS_11Group41Var4EEEvRKNS_12HeaderRecordEtRKNS_9NumParserERKN7openpal6RSliceERNS_12IAPDUHandlerE,comdat
	.align	2
	.weak	_ZN8opendnp316CountIndexParser13InvokeCountOfINS_11Group41Var4EEEvRKNS_12HeaderRecordEtRKNS_9NumParserERKN7openpal6RSliceERNS_12IAPDUHandlerE
	.syntax unified
	.arm
	.fpu vfp
	.type	_ZN8opendnp316CountIndexParser13InvokeCountOfINS_11Group41Var4EEEvRKNS_12HeaderRecordEtRKNS_9NumParserERKN7openpal6RSliceERNS_12IAPDUHandlerE, %function
_ZN8opendnp316CountIndexParser13InvokeCountOfINS_11Group41Var4EEEvRKNS_12HeaderRecordEtRKNS_9NumParserERKN7openpal6RSliceERNS_12IAPDUHandlerE:
	.fnstart
.LFB3145:
	@ args = 4, pretend = 0, frame = 40
	@ frame_needed = 0, uses_anonymous_args = 0
	ldr	ip, .L175
	push	{r4, r5, lr}
	.save {r4, r5, lr}
	mov	r5, r1
	.pad #44
	sub	sp, sp, #44
	mov	lr, r0
	ldr	r4, .L175+4
	ldm	r3, {r0, r1}
.LPIC30:
	add	ip, pc, ip
	add	r3, sp, #4
	ldr	r4, [ip, r4]
	str	r2, [sp, #16]
	stm	r3, {r0, r1}
	ldm	lr, {r0, r1, r2, r3}
	add	ip, sp, #20
	add	lr, r4, #8
	str	lr, [sp]
	stm	ip, {r0, r1, r2, r3}
	mov	r1, ip
	mov	r2, sp
	ldr	r0, [sp, #56]
	str	r5, [sp, #12]
	strh	r5, [sp, #36]	@ movhi
	bl	_ZN8opendnp312IAPDUHandler8OnHeaderERKNS_12PrefixHeaderERKNS_11ICollectionINS_7IndexedINS_20AnalogOutputDouble64EEEEE(PLT)
	add	sp, sp, #44
	@ sp needed
	pop	{r4, r5, pc}
.L176:
	.align	2
.L175:
	.word	_GLOBAL_OFFSET_TABLE_-(.LPIC30+8)
	.word	_ZTVN8opendnp318BufferedCollectionINS_7IndexedINS_20AnalogOutputDouble64EEEZNS_16CountIndexParser13InvokeCountOfINS_11Group41Var4EEEvRKNS_12HeaderRecordEtRKNS_9NumParserERKN7openpal6RSliceERNS_12IAPDUHandlerEEUlRSE_jE_EE(GOT)
	.fnend
	.size	_ZN8opendnp316CountIndexParser13InvokeCountOfINS_11Group41Var4EEEvRKNS_12HeaderRecordEtRKNS_9NumParserERKN7openpal6RSliceERNS_12IAPDUHandlerE, .-_ZN8opendnp316CountIndexParser13InvokeCountOfINS_11Group41Var4EEEvRKNS_12HeaderRecordEtRKNS_9NumParserERKN7openpal6RSliceERNS_12IAPDUHandlerE
	.section	.text._ZN8opendnp316CountIndexParser13InvokeCountOfINS_11Group42Var1EEEvRKNS_12HeaderRecordEtRKNS_9NumParserERKN7openpal6RSliceERNS_12IAPDUHandlerE,"axG",%progbits,_ZN8opendnp316CountIndexParser13InvokeCountOfINS_11Group42Var1EEEvRKNS_12HeaderRecordEtRKNS_9NumParserERKN7openpal6RSliceERNS_12IAPDUHandlerE,comdat
	.align	2
	.weak	_ZN8opendnp316CountIndexParser13InvokeCountOfINS_11Group42Var1EEEvRKNS_12HeaderRecordEtRKNS_9NumParserERKN7openpal6RSliceERNS_12IAPDUHandlerE
	.syntax unified
	.arm
	.fpu vfp
	.type	_ZN8opendnp316CountIndexParser13InvokeCountOfINS_11Group42Var1EEEvRKNS_12HeaderRecordEtRKNS_9NumParserERKN7openpal6RSliceERNS_12IAPDUHandlerE, %function
_ZN8opendnp316CountIndexParser13InvokeCountOfINS_11Group42Var1EEEvRKNS_12HeaderRecordEtRKNS_9NumParserERKN7openpal6RSliceERNS_12IAPDUHandlerE:
	.fnstart
.LFB3153:
	@ args = 4, pretend = 0, frame = 40
	@ frame_needed = 0, uses_anonymous_args = 0
	ldr	ip, .L179
	push	{r4, r5, lr}
	.save {r4, r5, lr}
	mov	r5, r1
	.pad #44
	sub	sp, sp, #44
	mov	lr, r0
	ldr	r4, .L179+4
	ldm	r3, {r0, r1}
.LPIC31:
	add	ip, pc, ip
	add	r3, sp, #4
	ldr	r4, [ip, r4]
	str	r2, [sp, #16]
	stm	r3, {r0, r1}
	ldm	lr, {r0, r1, r2, r3}
	add	ip, sp, #20
	add	lr, r4, #8
	str	lr, [sp]
	stm	ip, {r0, r1, r2, r3}
	mov	r1, ip
	mov	r2, sp
	ldr	r0, [sp, #56]
	str	r5, [sp, #12]
	strh	r5, [sp, #36]	@ movhi
	bl	_ZN8opendnp312IAPDUHandler8OnHeaderERKNS_12PrefixHeaderERKNS_11ICollectionINS_7IndexedINS_18AnalogOutputStatusEEEEE(PLT)
	add	sp, sp, #44
	@ sp needed
	pop	{r4, r5, pc}
.L180:
	.align	2
.L179:
	.word	_GLOBAL_OFFSET_TABLE_-(.LPIC31+8)
	.word	_ZTVN8opendnp318BufferedCollectionINS_7IndexedINS_18AnalogOutputStatusEEEZNS_16CountIndexParser13InvokeCountOfINS_11Group42Var1EEEvRKNS_12HeaderRecordEtRKNS_9NumParserERKN7openpal6RSliceERNS_12IAPDUHandlerEEUlRSE_jE_EE(GOT)
	.fnend
	.size	_ZN8opendnp316CountIndexParser13InvokeCountOfINS_11Group42Var1EEEvRKNS_12HeaderRecordEtRKNS_9NumParserERKN7openpal6RSliceERNS_12IAPDUHandlerE, .-_ZN8opendnp316CountIndexParser13InvokeCountOfINS_11Group42Var1EEEvRKNS_12HeaderRecordEtRKNS_9NumParserERKN7openpal6RSliceERNS_12IAPDUHandlerE
	.section	.text._ZN8opendnp316CountIndexParser13InvokeCountOfINS_11Group42Var2EEEvRKNS_12HeaderRecordEtRKNS_9NumParserERKN7openpal6RSliceERNS_12IAPDUHandlerE,"axG",%progbits,_ZN8opendnp316CountIndexParser13InvokeCountOfINS_11Group42Var2EEEvRKNS_12HeaderRecordEtRKNS_9NumParserERKN7openpal6RSliceERNS_12IAPDUHandlerE,comdat
	.align	2
	.weak	_ZN8opendnp316CountIndexParser13InvokeCountOfINS_11Group42Var2EEEvRKNS_12HeaderRecordEtRKNS_9NumParserERKN7openpal6RSliceERNS_12IAPDUHandlerE
	.syntax unified
	.arm
	.fpu vfp
	.type	_ZN8opendnp316CountIndexParser13InvokeCountOfINS_11Group42Var2EEEvRKNS_12HeaderRecordEtRKNS_9NumParserERKN7openpal6RSliceERNS_12IAPDUHandlerE, %function
_ZN8opendnp316CountIndexParser13InvokeCountOfINS_11Group42Var2EEEvRKNS_12HeaderRecordEtRKNS_9NumParserERKN7openpal6RSliceERNS_12IAPDUHandlerE:
	.fnstart
.LFB3161:
	@ args = 4, pretend = 0, frame = 40
	@ frame_needed = 0, uses_anonymous_args = 0
	ldr	ip, .L183
	push	{r4, r5, lr}
	.save {r4, r5, lr}
	mov	r5, r1
	.pad #44
	sub	sp, sp, #44
	mov	lr, r0
	ldr	r4, .L183+4
	ldm	r3, {r0, r1}
.LPIC32:
	add	ip, pc, ip
	add	r3, sp, #4
	ldr	r4, [ip, r4]
	str	r2, [sp, #16]
	stm	r3, {r0, r1}
	ldm	lr, {r0, r1, r2, r3}
	add	ip, sp, #20
	add	lr, r4, #8
	str	lr, [sp]
	stm	ip, {r0, r1, r2, r3}
	mov	r1, ip
	mov	r2, sp
	ldr	r0, [sp, #56]
	str	r5, [sp, #12]
	strh	r5, [sp, #36]	@ movhi
	bl	_ZN8opendnp312IAPDUHandler8OnHeaderERKNS_12PrefixHeaderERKNS_11ICollectionINS_7IndexedINS_18AnalogOutputStatusEEEEE(PLT)
	add	sp, sp, #44
	@ sp needed
	pop	{r4, r5, pc}
.L184:
	.align	2
.L183:
	.word	_GLOBAL_OFFSET_TABLE_-(.LPIC32+8)
	.word	_ZTVN8opendnp318BufferedCollectionINS_7IndexedINS_18AnalogOutputStatusEEEZNS_16CountIndexParser13InvokeCountOfINS_11Group42Var2EEEvRKNS_12HeaderRecordEtRKNS_9NumParserERKN7openpal6RSliceERNS_12IAPDUHandlerEEUlRSE_jE_EE(GOT)
	.fnend
	.size	_ZN8opendnp316CountIndexParser13InvokeCountOfINS_11Group42Var2EEEvRKNS_12HeaderRecordEtRKNS_9NumParserERKN7openpal6RSliceERNS_12IAPDUHandlerE, .-_ZN8opendnp316CountIndexParser13InvokeCountOfINS_11Group42Var2EEEvRKNS_12HeaderRecordEtRKNS_9NumParserERKN7openpal6RSliceERNS_12IAPDUHandlerE
	.section	.text._ZN8opendnp316CountIndexParser13InvokeCountOfINS_11Group42Var3EEEvRKNS_12HeaderRecordEtRKNS_9NumParserERKN7openpal6RSliceERNS_12IAPDUHandlerE,"axG",%progbits,_ZN8opendnp316CountIndexParser13InvokeCountOfINS_11Group42Var3EEEvRKNS_12HeaderRecordEtRKNS_9NumParserERKN7openpal6RSliceERNS_12IAPDUHandlerE,comdat
	.align	2
	.weak	_ZN8opendnp316CountIndexParser13InvokeCountOfINS_11Group42Var3EEEvRKNS_12HeaderRecordEtRKNS_9NumParserERKN7openpal6RSliceERNS_12IAPDUHandlerE
	.syntax unified
	.arm
	.fpu vfp
	.type	_ZN8opendnp316CountIndexParser13InvokeCountOfINS_11Group42Var3EEEvRKNS_12HeaderRecordEtRKNS_9NumParserERKN7openpal6RSliceERNS_12IAPDUHandlerE, %function
_ZN8opendnp316CountIndexParser13InvokeCountOfINS_11Group42Var3EEEvRKNS_12HeaderRecordEtRKNS_9NumParserERKN7openpal6RSliceERNS_12IAPDUHandlerE:
	.fnstart
.LFB3166:
	@ args = 4, pretend = 0, frame = 40
	@ frame_needed = 0, uses_anonymous_args = 0
	ldr	ip, .L187
	push	{r4, r5, lr}
	.save {r4, r5, lr}
	mov	r5, r1
	.pad #44
	sub	sp, sp, #44
	mov	lr, r0
	ldr	r4, .L187+4
	ldm	r3, {r0, r1}
.LPIC33:
	add	ip, pc, ip
	add	r3, sp, #4
	ldr	r4, [ip, r4]
	str	r2, [sp, #16]
	stm	r3, {r0, r1}
	ldm	lr, {r0, r1, r2, r3}
	add	ip, sp, #20
	add	lr, r4, #8
	str	lr, [sp]
	stm	ip, {r0, r1, r2, r3}
	mov	r1, ip
	mov	r2, sp
	ldr	r0, [sp, #56]
	str	r5, [sp, #12]
	strh	r5, [sp, #36]	@ movhi
	bl	_ZN8opendnp312IAPDUHandler8OnHeaderERKNS_12PrefixHeaderERKNS_11ICollectionINS_7IndexedINS_18AnalogOutputStatusEEEEE(PLT)
	add	sp, sp, #44
	@ sp needed
	pop	{r4, r5, pc}
.L188:
	.align	2
.L187:
	.word	_GLOBAL_OFFSET_TABLE_-(.LPIC33+8)
	.word	_ZTVN8opendnp318BufferedCollectionINS_7IndexedINS_18AnalogOutputStatusEEEZNS_16CountIndexParser13InvokeCountOfINS_11Group42Var3EEEvRKNS_12HeaderRecordEtRKNS_9NumParserERKN7openpal6RSliceERNS_12IAPDUHandlerEEUlRSE_jE_EE(GOT)
	.fnend
	.size	_ZN8opendnp316CountIndexParser13InvokeCountOfINS_11Group42Var3EEEvRKNS_12HeaderRecordEtRKNS_9NumParserERKN7openpal6RSliceERNS_12IAPDUHandlerE, .-_ZN8opendnp316CountIndexParser13InvokeCountOfINS_11Group42Var3EEEvRKNS_12HeaderRecordEtRKNS_9NumParserERKN7openpal6RSliceERNS_12IAPDUHandlerE
	.section	.text._ZN8opendnp316CountIndexParser13InvokeCountOfINS_11Group42Var4EEEvRKNS_12HeaderRecordEtRKNS_9NumParserERKN7openpal6RSliceERNS_12IAPDUHandlerE,"axG",%progbits,_ZN8opendnp316CountIndexParser13InvokeCountOfINS_11Group42Var4EEEvRKNS_12HeaderRecordEtRKNS_9NumParserERKN7openpal6RSliceERNS_12IAPDUHandlerE,comdat
	.align	2
	.weak	_ZN8opendnp316CountIndexParser13InvokeCountOfINS_11Group42Var4EEEvRKNS_12HeaderRecordEtRKNS_9NumParserERKN7openpal6RSliceERNS_12IAPDUHandlerE
	.syntax unified
	.arm
	.fpu vfp
	.type	_ZN8opendnp316CountIndexParser13InvokeCountOfINS_11Group42Var4EEEvRKNS_12HeaderRecordEtRKNS_9NumParserERKN7openpal6RSliceERNS_12IAPDUHandlerE, %function
_ZN8opendnp316CountIndexParser13InvokeCountOfINS_11Group42Var4EEEvRKNS_12HeaderRecordEtRKNS_9NumParserERKN7openpal6RSliceERNS_12IAPDUHandlerE:
	.fnstart
.LFB3171:
	@ args = 4, pretend = 0, frame = 40
	@ frame_needed = 0, uses_anonymous_args = 0
	ldr	ip, .L191
	push	{r4, r5, lr}
	.save {r4, r5, lr}
	mov	r5, r1
	.pad #44
	sub	sp, sp, #44
	mov	lr, r0
	ldr	r4, .L191+4
	ldm	r3, {r0, r1}
.LPIC34:
	add	ip, pc, ip
	add	r3, sp, #4
	ldr	r4, [ip, r4]
	str	r2, [sp, #16]
	stm	r3, {r0, r1}
	ldm	lr, {r0, r1, r2, r3}
	add	ip, sp, #20
	add	lr, r4, #8
	str	lr, [sp]
	stm	ip, {r0, r1, r2, r3}
	mov	r1, ip
	mov	r2, sp
	ldr	r0, [sp, #56]
	str	r5, [sp, #12]
	strh	r5, [sp, #36]	@ movhi
	bl	_ZN8opendnp312IAPDUHandler8OnHeaderERKNS_12PrefixHeaderERKNS_11ICollectionINS_7IndexedINS_18AnalogOutputStatusEEEEE(PLT)
	add	sp, sp, #44
	@ sp needed
	pop	{r4, r5, pc}
.L192:
	.align	2
.L191:
	.word	_GLOBAL_OFFSET_TABLE_-(.LPIC34+8)
	.word	_ZTVN8opendnp318BufferedCollectionINS_7IndexedINS_18AnalogOutputStatusEEEZNS_16CountIndexParser13InvokeCountOfINS_11Group42Var4EEEvRKNS_12HeaderRecordEtRKNS_9NumParserERKN7openpal6RSliceERNS_12IAPDUHandlerEEUlRSE_jE_EE(GOT)
	.fnend
	.size	_ZN8opendnp316CountIndexParser13InvokeCountOfINS_11Group42Var4EEEvRKNS_12HeaderRecordEtRKNS_9NumParserERKN7openpal6RSliceERNS_12IAPDUHandlerE, .-_ZN8opendnp316CountIndexParser13InvokeCountOfINS_11Group42Var4EEEvRKNS_12HeaderRecordEtRKNS_9NumParserERKN7openpal6RSliceERNS_12IAPDUHandlerE
	.section	.text._ZN8opendnp316CountIndexParser13InvokeCountOfINS_11Group42Var5EEEvRKNS_12HeaderRecordEtRKNS_9NumParserERKN7openpal6RSliceERNS_12IAPDUHandlerE,"axG",%progbits,_ZN8opendnp316CountIndexParser13InvokeCountOfINS_11Group42Var5EEEvRKNS_12HeaderRecordEtRKNS_9NumParserERKN7openpal6RSliceERNS_12IAPDUHandlerE,comdat
	.align	2
	.weak	_ZN8opendnp316CountIndexParser13InvokeCountOfINS_11Group42Var5EEEvRKNS_12HeaderRecordEtRKNS_9NumParserERKN7openpal6RSliceERNS_12IAPDUHandlerE
	.syntax unified
	.arm
	.fpu vfp
	.type	_ZN8opendnp316CountIndexParser13InvokeCountOfINS_11Group42Var5EEEvRKNS_12HeaderRecordEtRKNS_9NumParserERKN7openpal6RSliceERNS_12IAPDUHandlerE, %function
_ZN8opendnp316CountIndexParser13InvokeCountOfINS_11Group42Var5EEEvRKNS_12HeaderRecordEtRKNS_9NumParserERKN7openpal6RSliceERNS_12IAPDUHandlerE:
	.fnstart
.LFB3176:
	@ args = 4, pretend = 0, frame = 40
	@ frame_needed = 0, uses_anonymous_args = 0
	ldr	ip, .L195
	push	{r4, r5, lr}
	.save {r4, r5, lr}
	mov	r5, r1
	.pad #44
	sub	sp, sp, #44
	mov	lr, r0
	ldr	r4, .L195+4
	ldm	r3, {r0, r1}
.LPIC35:
	add	ip, pc, ip
	add	r3, sp, #4
	ldr	r4, [ip, r4]
	str	r2, [sp, #16]
	stm	r3, {r0, r1}
	ldm	lr, {r0, r1, r2, r3}
	add	ip, sp, #20
	add	lr, r4, #8
	str	lr, [sp]
	stm	ip, {r0, r1, r2, r3}
	mov	r1, ip
	mov	r2, sp
	ldr	r0, [sp, #56]
	str	r5, [sp, #12]
	strh	r5, [sp, #36]	@ movhi
	bl	_ZN8opendnp312IAPDUHandler8OnHeaderERKNS_12PrefixHeaderERKNS_11ICollectionINS_7IndexedINS_18AnalogOutputStatusEEEEE(PLT)
	add	sp, sp, #44
	@ sp needed
	pop	{r4, r5, pc}
.L196:
	.align	2
.L195:
	.word	_GLOBAL_OFFSET_TABLE_-(.LPIC35+8)
	.word	_ZTVN8opendnp318BufferedCollectionINS_7IndexedINS_18AnalogOutputStatusEEEZNS_16CountIndexParser13InvokeCountOfINS_11Group42Var5EEEvRKNS_12HeaderRecordEtRKNS_9NumParserERKN7openpal6RSliceERNS_12IAPDUHandlerEEUlRSE_jE_EE(GOT)
	.fnend
	.size	_ZN8opendnp316CountIndexParser13InvokeCountOfINS_11Group42Var5EEEvRKNS_12HeaderRecordEtRKNS_9NumParserERKN7openpal6RSliceERNS_12IAPDUHandlerE, .-_ZN8opendnp316CountIndexParser13InvokeCountOfINS_11Group42Var5EEEvRKNS_12HeaderRecordEtRKNS_9NumParserERKN7openpal6RSliceERNS_12IAPDUHandlerE
	.section	.text._ZN8opendnp316CountIndexParser13InvokeCountOfINS_11Group42Var6EEEvRKNS_12HeaderRecordEtRKNS_9NumParserERKN7openpal6RSliceERNS_12IAPDUHandlerE,"axG",%progbits,_ZN8opendnp316CountIndexParser13InvokeCountOfINS_11Group42Var6EEEvRKNS_12HeaderRecordEtRKNS_9NumParserERKN7openpal6RSliceERNS_12IAPDUHandlerE,comdat
	.align	2
	.weak	_ZN8opendnp316CountIndexParser13InvokeCountOfINS_11Group42Var6EEEvRKNS_12HeaderRecordEtRKNS_9NumParserERKN7openpal6RSliceERNS_12IAPDUHandlerE
	.syntax unified
	.arm
	.fpu vfp
	.type	_ZN8opendnp316CountIndexParser13InvokeCountOfINS_11Group42Var6EEEvRKNS_12HeaderRecordEtRKNS_9NumParserERKN7openpal6RSliceERNS_12IAPDUHandlerE, %function
_ZN8opendnp316CountIndexParser13InvokeCountOfINS_11Group42Var6EEEvRKNS_12HeaderRecordEtRKNS_9NumParserERKN7openpal6RSliceERNS_12IAPDUHandlerE:
	.fnstart
.LFB3181:
	@ args = 4, pretend = 0, frame = 40
	@ frame_needed = 0, uses_anonymous_args = 0
	ldr	ip, .L199
	push	{r4, r5, lr}
	.save {r4, r5, lr}
	mov	r5, r1
	.pad #44
	sub	sp, sp, #44
	mov	lr, r0
	ldr	r4, .L199+4
	ldm	r3, {r0, r1}
.LPIC36:
	add	ip, pc, ip
	add	r3, sp, #4
	ldr	r4, [ip, r4]
	str	r2, [sp, #16]
	stm	r3, {r0, r1}
	ldm	lr, {r0, r1, r2, r3}
	add	ip, sp, #20
	add	lr, r4, #8
	str	lr, [sp]
	stm	ip, {r0, r1, r2, r3}
	mov	r1, ip
	mov	r2, sp
	ldr	r0, [sp, #56]
	str	r5, [sp, #12]
	strh	r5, [sp, #36]	@ movhi
	bl	_ZN8opendnp312IAPDUHandler8OnHeaderERKNS_12PrefixHeaderERKNS_11ICollectionINS_7IndexedINS_18AnalogOutputStatusEEEEE(PLT)
	add	sp, sp, #44
	@ sp needed
	pop	{r4, r5, pc}
.L200:
	.align	2
.L199:
	.word	_GLOBAL_OFFSET_TABLE_-(.LPIC36+8)
	.word	_ZTVN8opendnp318BufferedCollectionINS_7IndexedINS_18AnalogOutputStatusEEEZNS_16CountIndexParser13InvokeCountOfINS_11Group42Var6EEEvRKNS_12HeaderRecordEtRKNS_9NumParserERKN7openpal6RSliceERNS_12IAPDUHandlerEEUlRSE_jE_EE(GOT)
	.fnend
	.size	_ZN8opendnp316CountIndexParser13InvokeCountOfINS_11Group42Var6EEEvRKNS_12HeaderRecordEtRKNS_9NumParserERKN7openpal6RSliceERNS_12IAPDUHandlerE, .-_ZN8opendnp316CountIndexParser13InvokeCountOfINS_11Group42Var6EEEvRKNS_12HeaderRecordEtRKNS_9NumParserERKN7openpal6RSliceERNS_12IAPDUHandlerE
	.section	.text._ZN8opendnp316CountIndexParser13InvokeCountOfINS_11Group42Var7EEEvRKNS_12HeaderRecordEtRKNS_9NumParserERKN7openpal6RSliceERNS_12IAPDUHandlerE,"axG",%progbits,_ZN8opendnp316CountIndexParser13InvokeCountOfINS_11Group42Var7EEEvRKNS_12HeaderRecordEtRKNS_9NumParserERKN7openpal6RSliceERNS_12IAPDUHandlerE,comdat
	.align	2
	.weak	_ZN8opendnp316CountIndexParser13InvokeCountOfINS_11Group42Var7EEEvRKNS_12HeaderRecordEtRKNS_9NumParserERKN7openpal6RSliceERNS_12IAPDUHandlerE
	.syntax unified
	.arm
	.fpu vfp
	.type	_ZN8opendnp316CountIndexParser13InvokeCountOfINS_11Group42Var7EEEvRKNS_12HeaderRecordEtRKNS_9NumParserERKN7openpal6RSliceERNS_12IAPDUHandlerE, %function
_ZN8opendnp316CountIndexParser13InvokeCountOfINS_11Group42Var7EEEvRKNS_12HeaderRecordEtRKNS_9NumParserERKN7openpal6RSliceERNS_12IAPDUHandlerE:
	.fnstart
.LFB3186:
	@ args = 4, pretend = 0, frame = 40
	@ frame_needed = 0, uses_anonymous_args = 0
	ldr	ip, .L203
	push	{r4, r5, lr}
	.save {r4, r5, lr}
	mov	r5, r1
	.pad #44
	sub	sp, sp, #44
	mov	lr, r0
	ldr	r4, .L203+4
	ldm	r3, {r0, r1}
.LPIC37:
	add	ip, pc, ip
	add	r3, sp, #4
	ldr	r4, [ip, r4]
	str	r2, [sp, #16]
	stm	r3, {r0, r1}
	ldm	lr, {r0, r1, r2, r3}
	add	ip, sp, #20
	add	lr, r4, #8
	str	lr, [sp]
	stm	ip, {r0, r1, r2, r3}
	mov	r1, ip
	mov	r2, sp
	ldr	r0, [sp, #56]
	str	r5, [sp, #12]
	strh	r5, [sp, #36]	@ movhi
	bl	_ZN8opendnp312IAPDUHandler8OnHeaderERKNS_12PrefixHeaderERKNS_11ICollectionINS_7IndexedINS_18AnalogOutputStatusEEEEE(PLT)
	add	sp, sp, #44
	@ sp needed
	pop	{r4, r5, pc}
.L204:
	.align	2
.L203:
	.word	_GLOBAL_OFFSET_TABLE_-(.LPIC37+8)
	.word	_ZTVN8opendnp318BufferedCollectionINS_7IndexedINS_18AnalogOutputStatusEEEZNS_16CountIndexParser13InvokeCountOfINS_11Group42Var7EEEvRKNS_12HeaderRecordEtRKNS_9NumParserERKN7openpal6RSliceERNS_12IAPDUHandlerEEUlRSE_jE_EE(GOT)
	.fnend
	.size	_ZN8opendnp316CountIndexParser13InvokeCountOfINS_11Group42Var7EEEvRKNS_12HeaderRecordEtRKNS_9NumParserERKN7openpal6RSliceERNS_12IAPDUHandlerE, .-_ZN8opendnp316CountIndexParser13InvokeCountOfINS_11Group42Var7EEEvRKNS_12HeaderRecordEtRKNS_9NumParserERKN7openpal6RSliceERNS_12IAPDUHandlerE
	.section	.text._ZN8opendnp316CountIndexParser13InvokeCountOfINS_11Group42Var8EEEvRKNS_12HeaderRecordEtRKNS_9NumParserERKN7openpal6RSliceERNS_12IAPDUHandlerE,"axG",%progbits,_ZN8opendnp316CountIndexParser13InvokeCountOfINS_11Group42Var8EEEvRKNS_12HeaderRecordEtRKNS_9NumParserERKN7openpal6RSliceERNS_12IAPDUHandlerE,comdat
	.align	2
	.weak	_ZN8opendnp316CountIndexParser13InvokeCountOfINS_11Group42Var8EEEvRKNS_12HeaderRecordEtRKNS_9NumParserERKN7openpal6RSliceERNS_12IAPDUHandlerE
	.syntax unified
	.arm
	.fpu vfp
	.type	_ZN8opendnp316CountIndexParser13InvokeCountOfINS_11Group42Var8EEEvRKNS_12HeaderRecordEtRKNS_9NumParserERKN7openpal6RSliceERNS_12IAPDUHandlerE, %function
_ZN8opendnp316CountIndexParser13InvokeCountOfINS_11Group42Var8EEEvRKNS_12HeaderRecordEtRKNS_9NumParserERKN7openpal6RSliceERNS_12IAPDUHandlerE:
	.fnstart
.LFB3191:
	@ args = 4, pretend = 0, frame = 40
	@ frame_needed = 0, uses_anonymous_args = 0
	ldr	ip, .L207
	push	{r4, r5, lr}
	.save {r4, r5, lr}
	mov	r5, r1
	.pad #44
	sub	sp, sp, #44
	mov	lr, r0
	ldr	r4, .L207+4
	ldm	r3, {r0, r1}
.LPIC38:
	add	ip, pc, ip
	add	r3, sp, #4
	ldr	r4, [ip, r4]
	str	r2, [sp, #16]
	stm	r3, {r0, r1}
	ldm	lr, {r0, r1, r2, r3}
	add	ip, sp, #20
	add	lr, r4, #8
	str	lr, [sp]
	stm	ip, {r0, r1, r2, r3}
	mov	r1, ip
	mov	r2, sp
	ldr	r0, [sp, #56]
	str	r5, [sp, #12]
	strh	r5, [sp, #36]	@ movhi
	bl	_ZN8opendnp312IAPDUHandler8OnHeaderERKNS_12PrefixHeaderERKNS_11ICollectionINS_7IndexedINS_18AnalogOutputStatusEEEEE(PLT)
	add	sp, sp, #44
	@ sp needed
	pop	{r4, r5, pc}
.L208:
	.align	2
.L207:
	.word	_GLOBAL_OFFSET_TABLE_-(.LPIC38+8)
	.word	_ZTVN8opendnp318BufferedCollectionINS_7IndexedINS_18AnalogOutputStatusEEEZNS_16CountIndexParser13InvokeCountOfINS_11Group42Var8EEEvRKNS_12HeaderRecordEtRKNS_9NumParserERKN7openpal6RSliceERNS_12IAPDUHandlerEEUlRSE_jE_EE(GOT)
	.fnend
	.size	_ZN8opendnp316CountIndexParser13InvokeCountOfINS_11Group42Var8EEEvRKNS_12HeaderRecordEtRKNS_9NumParserERKN7openpal6RSliceERNS_12IAPDUHandlerE, .-_ZN8opendnp316CountIndexParser13InvokeCountOfINS_11Group42Var8EEEvRKNS_12HeaderRecordEtRKNS_9NumParserERKN7openpal6RSliceERNS_12IAPDUHandlerE
	.section	.text._ZN8opendnp316CountIndexParser13InvokeCountOfINS_11Group43Var1EEEvRKNS_12HeaderRecordEtRKNS_9NumParserERKN7openpal6RSliceERNS_12IAPDUHandlerE,"axG",%progbits,_ZN8opendnp316CountIndexParser13InvokeCountOfINS_11Group43Var1EEEvRKNS_12HeaderRecordEtRKNS_9NumParserERKN7openpal6RSliceERNS_12IAPDUHandlerE,comdat
	.align	2
	.weak	_ZN8opendnp316CountIndexParser13InvokeCountOfINS_11Group43Var1EEEvRKNS_12HeaderRecordEtRKNS_9NumParserERKN7openpal6RSliceERNS_12IAPDUHandlerE
	.syntax unified
	.arm
	.fpu vfp
	.type	_ZN8opendnp316CountIndexParser13InvokeCountOfINS_11Group43Var1EEEvRKNS_12HeaderRecordEtRKNS_9NumParserERKN7openpal6RSliceERNS_12IAPDUHandlerE, %function
_ZN8opendnp316CountIndexParser13InvokeCountOfINS_11Group43Var1EEEvRKNS_12HeaderRecordEtRKNS_9NumParserERKN7openpal6RSliceERNS_12IAPDUHandlerE:
	.fnstart
.LFB3196:
	@ args = 4, pretend = 0, frame = 40
	@ frame_needed = 0, uses_anonymous_args = 0
	ldr	ip, .L211
	push	{r4, r5, lr}
	.save {r4, r5, lr}
	mov	r5, r1
	.pad #44
	sub	sp, sp, #44
	mov	lr, r0
	ldr	r4, .L211+4
	ldm	r3, {r0, r1}
.LPIC39:
	add	ip, pc, ip
	add	r3, sp, #4
	ldr	r4, [ip, r4]
	str	r2, [sp, #16]
	stm	r3, {r0, r1}
	ldm	lr, {r0, r1, r2, r3}
	add	ip, sp, #20
	add	lr, r4, #8
	str	lr, [sp]
	stm	ip, {r0, r1, r2, r3}
	mov	r1, ip
	mov	r2, sp
	ldr	r0, [sp, #56]
	str	r5, [sp, #12]
	strh	r5, [sp, #36]	@ movhi
	bl	_ZN8opendnp312IAPDUHandler8OnHeaderERKNS_12PrefixHeaderERKNS_11ICollectionINS_7IndexedINS_18AnalogCommandEventEEEEE(PLT)
	add	sp, sp, #44
	@ sp needed
	pop	{r4, r5, pc}
.L212:
	.align	2
.L211:
	.word	_GLOBAL_OFFSET_TABLE_-(.LPIC39+8)
	.word	_ZTVN8opendnp318BufferedCollectionINS_7IndexedINS_18AnalogCommandEventEEEZNS_16CountIndexParser13InvokeCountOfINS_11Group43Var1EEEvRKNS_12HeaderRecordEtRKNS_9NumParserERKN7openpal6RSliceERNS_12IAPDUHandlerEEUlRSE_jE_EE(GOT)
	.fnend
	.size	_ZN8opendnp316CountIndexParser13InvokeCountOfINS_11Group43Var1EEEvRKNS_12HeaderRecordEtRKNS_9NumParserERKN7openpal6RSliceERNS_12IAPDUHandlerE, .-_ZN8opendnp316CountIndexParser13InvokeCountOfINS_11Group43Var1EEEvRKNS_12HeaderRecordEtRKNS_9NumParserERKN7openpal6RSliceERNS_12IAPDUHandlerE
	.section	.text._ZN8opendnp316CountIndexParser13InvokeCountOfINS_11Group43Var2EEEvRKNS_12HeaderRecordEtRKNS_9NumParserERKN7openpal6RSliceERNS_12IAPDUHandlerE,"axG",%progbits,_ZN8opendnp316CountIndexParser13InvokeCountOfINS_11Group43Var2EEEvRKNS_12HeaderRecordEtRKNS_9NumParserERKN7openpal6RSliceERNS_12IAPDUHandlerE,comdat
	.align	2
	.weak	_ZN8opendnp316CountIndexParser13InvokeCountOfINS_11Group43Var2EEEvRKNS_12HeaderRecordEtRKNS_9NumParserERKN7openpal6RSliceERNS_12IAPDUHandlerE
	.syntax unified
	.arm
	.fpu vfp
	.type	_ZN8opendnp316CountIndexParser13InvokeCountOfINS_11Group43Var2EEEvRKNS_12HeaderRecordEtRKNS_9NumParserERKN7openpal6RSliceERNS_12IAPDUHandlerE, %function
_ZN8opendnp316CountIndexParser13InvokeCountOfINS_11Group43Var2EEEvRKNS_12HeaderRecordEtRKNS_9NumParserERKN7openpal6RSliceERNS_12IAPDUHandlerE:
	.fnstart
.LFB3204:
	@ args = 4, pretend = 0, frame = 40
	@ frame_needed = 0, uses_anonymous_args = 0
	ldr	ip, .L215
	push	{r4, r5, lr}
	.save {r4, r5, lr}
	mov	r5, r1
	.pad #44
	sub	sp, sp, #44
	mov	lr, r0
	ldr	r4, .L215+4
	ldm	r3, {r0, r1}
.LPIC40:
	add	ip, pc, ip
	add	r3, sp, #4
	ldr	r4, [ip, r4]
	str	r2, [sp, #16]
	stm	r3, {r0, r1}
	ldm	lr, {r0, r1, r2, r3}
	add	ip, sp, #20
	add	lr, r4, #8
	str	lr, [sp]
	stm	ip, {r0, r1, r2, r3}
	mov	r1, ip
	mov	r2, sp
	ldr	r0, [sp, #56]
	str	r5, [sp, #12]
	strh	r5, [sp, #36]	@ movhi
	bl	_ZN8opendnp312IAPDUHandler8OnHeaderERKNS_12PrefixHeaderERKNS_11ICollectionINS_7IndexedINS_18AnalogCommandEventEEEEE(PLT)
	add	sp, sp, #44
	@ sp needed
	pop	{r4, r5, pc}
.L216:
	.align	2
.L215:
	.word	_GLOBAL_OFFSET_TABLE_-(.LPIC40+8)
	.word	_ZTVN8opendnp318BufferedCollectionINS_7IndexedINS_18AnalogCommandEventEEEZNS_16CountIndexParser13InvokeCountOfINS_11Group43Var2EEEvRKNS_12HeaderRecordEtRKNS_9NumParserERKN7openpal6RSliceERNS_12IAPDUHandlerEEUlRSE_jE_EE(GOT)
	.fnend
	.size	_ZN8opendnp316CountIndexParser13InvokeCountOfINS_11Group43Var2EEEvRKNS_12HeaderRecordEtRKNS_9NumParserERKN7openpal6RSliceERNS_12IAPDUHandlerE, .-_ZN8opendnp316CountIndexParser13InvokeCountOfINS_11Group43Var2EEEvRKNS_12HeaderRecordEtRKNS_9NumParserERKN7openpal6RSliceERNS_12IAPDUHandlerE
	.section	.text._ZN8opendnp316CountIndexParser13InvokeCountOfINS_11Group43Var3EEEvRKNS_12HeaderRecordEtRKNS_9NumParserERKN7openpal6RSliceERNS_12IAPDUHandlerE,"axG",%progbits,_ZN8opendnp316CountIndexParser13InvokeCountOfINS_11Group43Var3EEEvRKNS_12HeaderRecordEtRKNS_9NumParserERKN7openpal6RSliceERNS_12IAPDUHandlerE,comdat
	.align	2
	.weak	_ZN8opendnp316CountIndexParser13InvokeCountOfINS_11Group43Var3EEEvRKNS_12HeaderRecordEtRKNS_9NumParserERKN7openpal6RSliceERNS_12IAPDUHandlerE
	.syntax unified
	.arm
	.fpu vfp
	.type	_ZN8opendnp316CountIndexParser13InvokeCountOfINS_11Group43Var3EEEvRKNS_12HeaderRecordEtRKNS_9NumParserERKN7openpal6RSliceERNS_12IAPDUHandlerE, %function
_ZN8opendnp316CountIndexParser13InvokeCountOfINS_11Group43Var3EEEvRKNS_12HeaderRecordEtRKNS_9NumParserERKN7openpal6RSliceERNS_12IAPDUHandlerE:
	.fnstart
.LFB3209:
	@ args = 4, pretend = 0, frame = 40
	@ frame_needed = 0, uses_anonymous_args = 0
	ldr	ip, .L219
	push	{r4, r5, lr}
	.save {r4, r5, lr}
	mov	r5, r1
	.pad #44
	sub	sp, sp, #44
	mov	lr, r0
	ldr	r4, .L219+4
	ldm	r3, {r0, r1}
.LPIC41:
	add	ip, pc, ip
	add	r3, sp, #4
	ldr	r4, [ip, r4]
	str	r2, [sp, #16]
	stm	r3, {r0, r1}
	ldm	lr, {r0, r1, r2, r3}
	add	ip, sp, #20
	add	lr, r4, #8
	str	lr, [sp]
	stm	ip, {r0, r1, r2, r3}
	mov	r1, ip
	mov	r2, sp
	ldr	r0, [sp, #56]
	str	r5, [sp, #12]
	strh	r5, [sp, #36]	@ movhi
	bl	_ZN8opendnp312IAPDUHandler8OnHeaderERKNS_12PrefixHeaderERKNS_11ICollectionINS_7IndexedINS_18AnalogCommandEventEEEEE(PLT)
	add	sp, sp, #44
	@ sp needed
	pop	{r4, r5, pc}
.L220:
	.align	2
.L219:
	.word	_GLOBAL_OFFSET_TABLE_-(.LPIC41+8)
	.word	_ZTVN8opendnp318BufferedCollectionINS_7IndexedINS_18AnalogCommandEventEEEZNS_16CountIndexParser13InvokeCountOfINS_11Group43Var3EEEvRKNS_12HeaderRecordEtRKNS_9NumParserERKN7openpal6RSliceERNS_12IAPDUHandlerEEUlRSE_jE_EE(GOT)
	.fnend
	.size	_ZN8opendnp316CountIndexParser13InvokeCountOfINS_11Group43Var3EEEvRKNS_12HeaderRecordEtRKNS_9NumParserERKN7openpal6RSliceERNS_12IAPDUHandlerE, .-_ZN8opendnp316CountIndexParser13InvokeCountOfINS_11Group43Var3EEEvRKNS_12HeaderRecordEtRKNS_9NumParserERKN7openpal6RSliceERNS_12IAPDUHandlerE
	.section	.text._ZN8opendnp316CountIndexParser13InvokeCountOfINS_11Group43Var4EEEvRKNS_12HeaderRecordEtRKNS_9NumParserERKN7openpal6RSliceERNS_12IAPDUHandlerE,"axG",%progbits,_ZN8opendnp316CountIndexParser13InvokeCountOfINS_11Group43Var4EEEvRKNS_12HeaderRecordEtRKNS_9NumParserERKN7openpal6RSliceERNS_12IAPDUHandlerE,comdat
	.align	2
	.weak	_ZN8opendnp316CountIndexParser13InvokeCountOfINS_11Group43Var4EEEvRKNS_12HeaderRecordEtRKNS_9NumParserERKN7openpal6RSliceERNS_12IAPDUHandlerE
	.syntax unified
	.arm
	.fpu vfp
	.type	_ZN8opendnp316CountIndexParser13InvokeCountOfINS_11Group43Var4EEEvRKNS_12HeaderRecordEtRKNS_9NumParserERKN7openpal6RSliceERNS_12IAPDUHandlerE, %function
_ZN8opendnp316CountIndexParser13InvokeCountOfINS_11Group43Var4EEEvRKNS_12HeaderRecordEtRKNS_9NumParserERKN7openpal6RSliceERNS_12IAPDUHandlerE:
	.fnstart
.LFB3214:
	@ args = 4, pretend = 0, frame = 40
	@ frame_needed = 0, uses_anonymous_args = 0
	ldr	ip, .L223
	push	{r4, r5, lr}
	.save {r4, r5, lr}
	mov	r5, r1
	.pad #44
	sub	sp, sp, #44
	mov	lr, r0
	ldr	r4, .L223+4
	ldm	r3, {r0, r1}
.LPIC42:
	add	ip, pc, ip
	add	r3, sp, #4
	ldr	r4, [ip, r4]
	str	r2, [sp, #16]
	stm	r3, {r0, r1}
	ldm	lr, {r0, r1, r2, r3}
	add	ip, sp, #20
	add	lr, r4, #8
	str	lr, [sp]
	stm	ip, {r0, r1, r2, r3}
	mov	r1, ip
	mov	r2, sp
	ldr	r0, [sp, #56]
	str	r5, [sp, #12]
	strh	r5, [sp, #36]	@ movhi
	bl	_ZN8opendnp312IAPDUHandler8OnHeaderERKNS_12PrefixHeaderERKNS_11ICollectionINS_7IndexedINS_18AnalogCommandEventEEEEE(PLT)
	add	sp, sp, #44
	@ sp needed
	pop	{r4, r5, pc}
.L224:
	.align	2
.L223:
	.word	_GLOBAL_OFFSET_TABLE_-(.LPIC42+8)
	.word	_ZTVN8opendnp318BufferedCollectionINS_7IndexedINS_18AnalogCommandEventEEEZNS_16CountIndexParser13InvokeCountOfINS_11Group43Var4EEEvRKNS_12HeaderRecordEtRKNS_9NumParserERKN7openpal6RSliceERNS_12IAPDUHandlerEEUlRSE_jE_EE(GOT)
	.fnend
	.size	_ZN8opendnp316CountIndexParser13InvokeCountOfINS_11Group43Var4EEEvRKNS_12HeaderRecordEtRKNS_9NumParserERKN7openpal6RSliceERNS_12IAPDUHandlerE, .-_ZN8opendnp316CountIndexParser13InvokeCountOfINS_11Group43Var4EEEvRKNS_12HeaderRecordEtRKNS_9NumParserERKN7openpal6RSliceERNS_12IAPDUHandlerE
	.section	.text._ZN8opendnp316CountIndexParser13InvokeCountOfINS_11Group43Var5EEEvRKNS_12HeaderRecordEtRKNS_9NumParserERKN7openpal6RSliceERNS_12IAPDUHandlerE,"axG",%progbits,_ZN8opendnp316CountIndexParser13InvokeCountOfINS_11Group43Var5EEEvRKNS_12HeaderRecordEtRKNS_9NumParserERKN7openpal6RSliceERNS_12IAPDUHandlerE,comdat
	.align	2
	.weak	_ZN8opendnp316CountIndexParser13InvokeCountOfINS_11Group43Var5EEEvRKNS_12HeaderRecordEtRKNS_9NumParserERKN7openpal6RSliceERNS_12IAPDUHandlerE
	.syntax unified
	.arm
	.fpu vfp
	.type	_ZN8opendnp316CountIndexParser13InvokeCountOfINS_11Group43Var5EEEvRKNS_12HeaderRecordEtRKNS_9NumParserERKN7openpal6RSliceERNS_12IAPDUHandlerE, %function
_ZN8opendnp316CountIndexParser13InvokeCountOfINS_11Group43Var5EEEvRKNS_12HeaderRecordEtRKNS_9NumParserERKN7openpal6RSliceERNS_12IAPDUHandlerE:
	.fnstart
.LFB3219:
	@ args = 4, pretend = 0, frame = 40
	@ frame_needed = 0, uses_anonymous_args = 0
	ldr	ip, .L227
	push	{r4, r5, lr}
	.save {r4, r5, lr}
	mov	r5, r1
	.pad #44
	sub	sp, sp, #44
	mov	lr, r0
	ldr	r4, .L227+4
	ldm	r3, {r0, r1}
.LPIC43:
	add	ip, pc, ip
	add	r3, sp, #4
	ldr	r4, [ip, r4]
	str	r2, [sp, #16]
	stm	r3, {r0, r1}
	ldm	lr, {r0, r1, r2, r3}
	add	ip, sp, #20
	add	lr, r4, #8
	str	lr, [sp]
	stm	ip, {r0, r1, r2, r3}
	mov	r1, ip
	mov	r2, sp
	ldr	r0, [sp, #56]
	str	r5, [sp, #12]
	strh	r5, [sp, #36]	@ movhi
	bl	_ZN8opendnp312IAPDUHandler8OnHeaderERKNS_12PrefixHeaderERKNS_11ICollectionINS_7IndexedINS_18AnalogCommandEventEEEEE(PLT)
	add	sp, sp, #44
	@ sp needed
	pop	{r4, r5, pc}
.L228:
	.align	2
.L227:
	.word	_GLOBAL_OFFSET_TABLE_-(.LPIC43+8)
	.word	_ZTVN8opendnp318BufferedCollectionINS_7IndexedINS_18AnalogCommandEventEEEZNS_16CountIndexParser13InvokeCountOfINS_11Group43Var5EEEvRKNS_12HeaderRecordEtRKNS_9NumParserERKN7openpal6RSliceERNS_12IAPDUHandlerEEUlRSE_jE_EE(GOT)
	.fnend
	.size	_ZN8opendnp316CountIndexParser13InvokeCountOfINS_11Group43Var5EEEvRKNS_12HeaderRecordEtRKNS_9NumParserERKN7openpal6RSliceERNS_12IAPDUHandlerE, .-_ZN8opendnp316CountIndexParser13InvokeCountOfINS_11Group43Var5EEEvRKNS_12HeaderRecordEtRKNS_9NumParserERKN7openpal6RSliceERNS_12IAPDUHandlerE
	.section	.text._ZN8opendnp316CountIndexParser13InvokeCountOfINS_11Group43Var6EEEvRKNS_12HeaderRecordEtRKNS_9NumParserERKN7openpal6RSliceERNS_12IAPDUHandlerE,"axG",%progbits,_ZN8opendnp316CountIndexParser13InvokeCountOfINS_11Group43Var6EEEvRKNS_12HeaderRecordEtRKNS_9NumParserERKN7openpal6RSliceERNS_12IAPDUHandlerE,comdat
	.align	2
	.weak	_ZN8opendnp316CountIndexParser13InvokeCountOfINS_11Group43Var6EEEvRKNS_12HeaderRecordEtRKNS_9NumParserERKN7openpal6RSliceERNS_12IAPDUHandlerE
	.syntax unified
	.arm
	.fpu vfp
	.type	_ZN8opendnp316CountIndexParser13InvokeCountOfINS_11Group43Var6EEEvRKNS_12HeaderRecordEtRKNS_9NumParserERKN7openpal6RSliceERNS_12IAPDUHandlerE, %function
_ZN8opendnp316CountIndexParser13InvokeCountOfINS_11Group43Var6EEEvRKNS_12HeaderRecordEtRKNS_9NumParserERKN7openpal6RSliceERNS_12IAPDUHandlerE:
	.fnstart
.LFB3224:
	@ args = 4, pretend = 0, frame = 40
	@ frame_needed = 0, uses_anonymous_args = 0
	ldr	ip, .L231
	push	{r4, r5, lr}
	.save {r4, r5, lr}
	mov	r5, r1
	.pad #44
	sub	sp, sp, #44
	mov	lr, r0
	ldr	r4, .L231+4
	ldm	r3, {r0, r1}
.LPIC44:
	add	ip, pc, ip
	add	r3, sp, #4
	ldr	r4, [ip, r4]
	str	r2, [sp, #16]
	stm	r3, {r0, r1}
	ldm	lr, {r0, r1, r2, r3}
	add	ip, sp, #20
	add	lr, r4, #8
	str	lr, [sp]
	stm	ip, {r0, r1, r2, r3}
	mov	r1, ip
	mov	r2, sp
	ldr	r0, [sp, #56]
	str	r5, [sp, #12]
	strh	r5, [sp, #36]	@ movhi
	bl	_ZN8opendnp312IAPDUHandler8OnHeaderERKNS_12PrefixHeaderERKNS_11ICollectionINS_7IndexedINS_18AnalogCommandEventEEEEE(PLT)
	add	sp, sp, #44
	@ sp needed
	pop	{r4, r5, pc}
.L232:
	.align	2
.L231:
	.word	_GLOBAL_OFFSET_TABLE_-(.LPIC44+8)
	.word	_ZTVN8opendnp318BufferedCollectionINS_7IndexedINS_18AnalogCommandEventEEEZNS_16CountIndexParser13InvokeCountOfINS_11Group43Var6EEEvRKNS_12HeaderRecordEtRKNS_9NumParserERKN7openpal6RSliceERNS_12IAPDUHandlerEEUlRSE_jE_EE(GOT)
	.fnend
	.size	_ZN8opendnp316CountIndexParser13InvokeCountOfINS_11Group43Var6EEEvRKNS_12HeaderRecordEtRKNS_9NumParserERKN7openpal6RSliceERNS_12IAPDUHandlerE, .-_ZN8opendnp316CountIndexParser13InvokeCountOfINS_11Group43Var6EEEvRKNS_12HeaderRecordEtRKNS_9NumParserERKN7openpal6RSliceERNS_12IAPDUHandlerE
	.section	.text._ZN8opendnp316CountIndexParser13InvokeCountOfINS_11Group43Var7EEEvRKNS_12HeaderRecordEtRKNS_9NumParserERKN7openpal6RSliceERNS_12IAPDUHandlerE,"axG",%progbits,_ZN8opendnp316CountIndexParser13InvokeCountOfINS_11Group43Var7EEEvRKNS_12HeaderRecordEtRKNS_9NumParserERKN7openpal6RSliceERNS_12IAPDUHandlerE,comdat
	.align	2
	.weak	_ZN8opendnp316CountIndexParser13InvokeCountOfINS_11Group43Var7EEEvRKNS_12HeaderRecordEtRKNS_9NumParserERKN7openpal6RSliceERNS_12IAPDUHandlerE
	.syntax unified
	.arm
	.fpu vfp
	.type	_ZN8opendnp316CountIndexParser13InvokeCountOfINS_11Group43Var7EEEvRKNS_12HeaderRecordEtRKNS_9NumParserERKN7openpal6RSliceERNS_12IAPDUHandlerE, %function
_ZN8opendnp316CountIndexParser13InvokeCountOfINS_11Group43Var7EEEvRKNS_12HeaderRecordEtRKNS_9NumParserERKN7openpal6RSliceERNS_12IAPDUHandlerE:
	.fnstart
.LFB3229:
	@ args = 4, pretend = 0, frame = 40
	@ frame_needed = 0, uses_anonymous_args = 0
	ldr	ip, .L235
	push	{r4, r5, lr}
	.save {r4, r5, lr}
	mov	r5, r1
	.pad #44
	sub	sp, sp, #44
	mov	lr, r0
	ldr	r4, .L235+4
	ldm	r3, {r0, r1}
.LPIC45:
	add	ip, pc, ip
	add	r3, sp, #4
	ldr	r4, [ip, r4]
	str	r2, [sp, #16]
	stm	r3, {r0, r1}
	ldm	lr, {r0, r1, r2, r3}
	add	ip, sp, #20
	add	lr, r4, #8
	str	lr, [sp]
	stm	ip, {r0, r1, r2, r3}
	mov	r1, ip
	mov	r2, sp
	ldr	r0, [sp, #56]
	str	r5, [sp, #12]
	strh	r5, [sp, #36]	@ movhi
	bl	_ZN8opendnp312IAPDUHandler8OnHeaderERKNS_12PrefixHeaderERKNS_11ICollectionINS_7IndexedINS_18AnalogCommandEventEEEEE(PLT)
	add	sp, sp, #44
	@ sp needed
	pop	{r4, r5, pc}
.L236:
	.align	2
.L235:
	.word	_GLOBAL_OFFSET_TABLE_-(.LPIC45+8)
	.word	_ZTVN8opendnp318BufferedCollectionINS_7IndexedINS_18AnalogCommandEventEEEZNS_16CountIndexParser13InvokeCountOfINS_11Group43Var7EEEvRKNS_12HeaderRecordEtRKNS_9NumParserERKN7openpal6RSliceERNS_12IAPDUHandlerEEUlRSE_jE_EE(GOT)
	.fnend
	.size	_ZN8opendnp316CountIndexParser13InvokeCountOfINS_11Group43Var7EEEvRKNS_12HeaderRecordEtRKNS_9NumParserERKN7openpal6RSliceERNS_12IAPDUHandlerE, .-_ZN8opendnp316CountIndexParser13InvokeCountOfINS_11Group43Var7EEEvRKNS_12HeaderRecordEtRKNS_9NumParserERKN7openpal6RSliceERNS_12IAPDUHandlerE
	.section	.text._ZN8opendnp316CountIndexParser13InvokeCountOfINS_11Group43Var8EEEvRKNS_12HeaderRecordEtRKNS_9NumParserERKN7openpal6RSliceERNS_12IAPDUHandlerE,"axG",%progbits,_ZN8opendnp316CountIndexParser13InvokeCountOfINS_11Group43Var8EEEvRKNS_12HeaderRecordEtRKNS_9NumParserERKN7openpal6RSliceERNS_12IAPDUHandlerE,comdat
	.align	2
	.weak	_ZN8opendnp316CountIndexParser13InvokeCountOfINS_11Group43Var8EEEvRKNS_12HeaderRecordEtRKNS_9NumParserERKN7openpal6RSliceERNS_12IAPDUHandlerE
	.syntax unified
	.arm
	.fpu vfp
	.type	_ZN8opendnp316CountIndexParser13InvokeCountOfINS_11Group43Var8EEEvRKNS_12HeaderRecordEtRKNS_9NumParserERKN7openpal6RSliceERNS_12IAPDUHandlerE, %function
_ZN8opendnp316CountIndexParser13InvokeCountOfINS_11Group43Var8EEEvRKNS_12HeaderRecordEtRKNS_9NumParserERKN7openpal6RSliceERNS_12IAPDUHandlerE:
	.fnstart
.LFB3234:
	@ args = 4, pretend = 0, frame = 40
	@ frame_needed = 0, uses_anonymous_args = 0
	ldr	ip, .L239
	push	{r4, r5, lr}
	.save {r4, r5, lr}
	mov	r5, r1
	.pad #44
	sub	sp, sp, #44
	mov	lr, r0
	ldr	r4, .L239+4
	ldm	r3, {r0, r1}
.LPIC46:
	add	ip, pc, ip
	add	r3, sp, #4
	ldr	r4, [ip, r4]
	str	r2, [sp, #16]
	stm	r3, {r0, r1}
	ldm	lr, {r0, r1, r2, r3}
	add	ip, sp, #20
	add	lr, r4, #8
	str	lr, [sp]
	stm	ip, {r0, r1, r2, r3}
	mov	r1, ip
	mov	r2, sp
	ldr	r0, [sp, #56]
	str	r5, [sp, #12]
	strh	r5, [sp, #36]	@ movhi
	bl	_ZN8opendnp312IAPDUHandler8OnHeaderERKNS_12PrefixHeaderERKNS_11ICollectionINS_7IndexedINS_18AnalogCommandEventEEEEE(PLT)
	add	sp, sp, #44
	@ sp needed
	pop	{r4, r5, pc}
.L240:
	.align	2
.L239:
	.word	_GLOBAL_OFFSET_TABLE_-(.LPIC46+8)
	.word	_ZTVN8opendnp318BufferedCollectionINS_7IndexedINS_18AnalogCommandEventEEEZNS_16CountIndexParser13InvokeCountOfINS_11Group43Var8EEEvRKNS_12HeaderRecordEtRKNS_9NumParserERKN7openpal6RSliceERNS_12IAPDUHandlerEEUlRSE_jE_EE(GOT)
	.fnend
	.size	_ZN8opendnp316CountIndexParser13InvokeCountOfINS_11Group43Var8EEEvRKNS_12HeaderRecordEtRKNS_9NumParserERKN7openpal6RSliceERNS_12IAPDUHandlerE, .-_ZN8opendnp316CountIndexParser13InvokeCountOfINS_11Group43Var8EEEvRKNS_12HeaderRecordEtRKNS_9NumParserERKN7openpal6RSliceERNS_12IAPDUHandlerE
	.section	.text._ZN8opendnp316CountIndexParser13InvokeCountOfINS_11Group50Var4EEEvRKNS_12HeaderRecordEtRKNS_9NumParserERKN7openpal6RSliceERNS_12IAPDUHandlerE,"axG",%progbits,_ZN8opendnp316CountIndexParser13InvokeCountOfINS_11Group50Var4EEEvRKNS_12HeaderRecordEtRKNS_9NumParserERKN7openpal6RSliceERNS_12IAPDUHandlerE,comdat
	.align	2
	.weak	_ZN8opendnp316CountIndexParser13InvokeCountOfINS_11Group50Var4EEEvRKNS_12HeaderRecordEtRKNS_9NumParserERKN7openpal6RSliceERNS_12IAPDUHandlerE
	.syntax unified
	.arm
	.fpu vfp
	.type	_ZN8opendnp316CountIndexParser13InvokeCountOfINS_11Group50Var4EEEvRKNS_12HeaderRecordEtRKNS_9NumParserERKN7openpal6RSliceERNS_12IAPDUHandlerE, %function
_ZN8opendnp316CountIndexParser13InvokeCountOfINS_11Group50Var4EEEvRKNS_12HeaderRecordEtRKNS_9NumParserERKN7openpal6RSliceERNS_12IAPDUHandlerE:
	.fnstart
.LFB3239:
	@ args = 4, pretend = 0, frame = 40
	@ frame_needed = 0, uses_anonymous_args = 0
	ldr	ip, .L243
	push	{r4, r5, lr}
	.save {r4, r5, lr}
	mov	r5, r1
	.pad #44
	sub	sp, sp, #44
	mov	lr, r0
	ldr	r4, .L243+4
	ldm	r3, {r0, r1}
.LPIC47:
	add	ip, pc, ip
	add	r3, sp, #4
	ldr	r4, [ip, r4]
	str	r2, [sp, #16]
	stm	r3, {r0, r1}
	ldm	lr, {r0, r1, r2, r3}
	add	ip, sp, #20
	add	lr, r4, #8
	str	lr, [sp]
	stm	ip, {r0, r1, r2, r3}
	mov	r1, ip
	mov	r2, sp
	ldr	r0, [sp, #56]
	str	r5, [sp, #12]
	strh	r5, [sp, #36]	@ movhi
	bl	_ZN8opendnp312IAPDUHandler8OnHeaderERKNS_12PrefixHeaderERKNS_11ICollectionINS_7IndexedINS_15TimeAndIntervalEEEEE(PLT)
	add	sp, sp, #44
	@ sp needed
	pop	{r4, r5, pc}
.L244:
	.align	2
.L243:
	.word	_GLOBAL_OFFSET_TABLE_-(.LPIC47+8)
	.word	_ZTVN8opendnp318BufferedCollectionINS_7IndexedINS_15TimeAndIntervalEEEZNS_16CountIndexParser13InvokeCountOfINS_11Group50Var4EEEvRKNS_12HeaderRecordEtRKNS_9NumParserERKN7openpal6RSliceERNS_12IAPDUHandlerEEUlRSE_jE_EE(GOT)
	.fnend
	.size	_ZN8opendnp316CountIndexParser13InvokeCountOfINS_11Group50Var4EEEvRKNS_12HeaderRecordEtRKNS_9NumParserERKN7openpal6RSliceERNS_12IAPDUHandlerE, .-_ZN8opendnp316CountIndexParser13InvokeCountOfINS_11Group50Var4EEEvRKNS_12HeaderRecordEtRKNS_9NumParserERKN7openpal6RSliceERNS_12IAPDUHandlerE
	.section	.text._ZN8opendnp316CountIndexParser17InvokeCountOfTypeINS_12Group122Var1EEEvRKNS_12HeaderRecordEtRKNS_9NumParserERKN7openpal6RSliceERNS_12IAPDUHandlerE,"axG",%progbits,_ZN8opendnp316CountIndexParser17InvokeCountOfTypeINS_12Group122Var1EEEvRKNS_12HeaderRecordEtRKNS_9NumParserERKN7openpal6RSliceERNS_12IAPDUHandlerE,comdat
	.align	2
	.weak	_ZN8opendnp316CountIndexParser17InvokeCountOfTypeINS_12Group122Var1EEEvRKNS_12HeaderRecordEtRKNS_9NumParserERKN7openpal6RSliceERNS_12IAPDUHandlerE
	.syntax unified
	.arm
	.fpu vfp
	.type	_ZN8opendnp316CountIndexParser17InvokeCountOfTypeINS_12Group122Var1EEEvRKNS_12HeaderRecordEtRKNS_9NumParserERKN7openpal6RSliceERNS_12IAPDUHandlerE, %function
_ZN8opendnp316CountIndexParser17InvokeCountOfTypeINS_12Group122Var1EEEvRKNS_12HeaderRecordEtRKNS_9NumParserERKN7openpal6RSliceERNS_12IAPDUHandlerE:
	.fnstart
.LFB3247:
	@ args = 4, pretend = 0, frame = 40
	@ frame_needed = 0, uses_anonymous_args = 0
	ldr	ip, .L247
	push	{r4, r5, lr}
	.save {r4, r5, lr}
	mov	r5, r1
	.pad #44
	sub	sp, sp, #44
	mov	lr, r0
	ldr	r4, .L247+4
	ldm	r3, {r0, r1}
.LPIC48:
	add	ip, pc, ip
	add	r3, sp, #4
	ldr	r4, [ip, r4]
	str	r2, [sp, #16]
	stm	r3, {r0, r1}
	ldm	lr, {r0, r1, r2, r3}
	add	ip, sp, #20
	add	lr, r4, #8
	str	lr, [sp]
	stm	ip, {r0, r1, r2, r3}
	mov	r1, ip
	mov	r2, sp
	ldr	r0, [sp, #56]
	str	r5, [sp, #12]
	strh	r5, [sp, #36]	@ movhi
	bl	_ZN8opendnp312IAPDUHandler8OnHeaderERKNS_12PrefixHeaderERKNS_11ICollectionINS_7IndexedINS_12Group122Var1EEEEE(PLT)
	add	sp, sp, #44
	@ sp needed
	pop	{r4, r5, pc}
.L248:
	.align	2
.L247:
	.word	_GLOBAL_OFFSET_TABLE_-(.LPIC48+8)
	.word	_ZTVN8opendnp318BufferedCollectionINS_7IndexedINS_12Group122Var1EEEZNS_16CountIndexParser17InvokeCountOfTypeIS2_EEvRKNS_12HeaderRecordEtRKNS_9NumParserERKN7openpal6RSliceERNS_12IAPDUHandlerEEUlRSD_jE_EE(GOT)
	.fnend
	.size	_ZN8opendnp316CountIndexParser17InvokeCountOfTypeINS_12Group122Var1EEEvRKNS_12HeaderRecordEtRKNS_9NumParserERKN7openpal6RSliceERNS_12IAPDUHandlerE, .-_ZN8opendnp316CountIndexParser17InvokeCountOfTypeINS_12Group122Var1EEEvRKNS_12HeaderRecordEtRKNS_9NumParserERKN7openpal6RSliceERNS_12IAPDUHandlerE
	.section	.text._ZN8opendnp316CountIndexParser17InvokeCountOfTypeINS_12Group122Var2EEEvRKNS_12HeaderRecordEtRKNS_9NumParserERKN7openpal6RSliceERNS_12IAPDUHandlerE,"axG",%progbits,_ZN8opendnp316CountIndexParser17InvokeCountOfTypeINS_12Group122Var2EEEvRKNS_12HeaderRecordEtRKNS_9NumParserERKN7openpal6RSliceERNS_12IAPDUHandlerE,comdat
	.align	2
	.weak	_ZN8opendnp316CountIndexParser17InvokeCountOfTypeINS_12Group122Var2EEEvRKNS_12HeaderRecordEtRKNS_9NumParserERKN7openpal6RSliceERNS_12IAPDUHandlerE
	.syntax unified
	.arm
	.fpu vfp
	.type	_ZN8opendnp316CountIndexParser17InvokeCountOfTypeINS_12Group122Var2EEEvRKNS_12HeaderRecordEtRKNS_9NumParserERKN7openpal6RSliceERNS_12IAPDUHandlerE, %function
_ZN8opendnp316CountIndexParser17InvokeCountOfTypeINS_12Group122Var2EEEvRKNS_12HeaderRecordEtRKNS_9NumParserERKN7openpal6RSliceERNS_12IAPDUHandlerE:
	.fnstart
.LFB3255:
	@ args = 4, pretend = 0, frame = 40
	@ frame_needed = 0, uses_anonymous_args = 0
	ldr	ip, .L251
	push	{r4, r5, lr}
	.save {r4, r5, lr}
	mov	r5, r1
	.pad #44
	sub	sp, sp, #44
	mov	lr, r0
	ldr	r4, .L251+4
	ldm	r3, {r0, r1}
.LPIC49:
	add	ip, pc, ip
	add	r3, sp, #4
	ldr	r4, [ip, r4]
	str	r2, [sp, #16]
	stm	r3, {r0, r1}
	ldm	lr, {r0, r1, r2, r3}
	add	ip, sp, #20
	add	lr, r4, #8
	str	lr, [sp]
	stm	ip, {r0, r1, r2, r3}
	mov	r1, ip
	mov	r2, sp
	ldr	r0, [sp, #56]
	str	r5, [sp, #12]
	strh	r5, [sp, #36]	@ movhi
	bl	_ZN8opendnp312IAPDUHandler8OnHeaderERKNS_12PrefixHeaderERKNS_11ICollectionINS_7IndexedINS_12Group122Var2EEEEE(PLT)
	add	sp, sp, #44
	@ sp needed
	pop	{r4, r5, pc}
.L252:
	.align	2
.L251:
	.word	_GLOBAL_OFFSET_TABLE_-(.LPIC49+8)
	.word	_ZTVN8opendnp318BufferedCollectionINS_7IndexedINS_12Group122Var2EEEZNS_16CountIndexParser17InvokeCountOfTypeIS2_EEvRKNS_12HeaderRecordEtRKNS_9NumParserERKN7openpal6RSliceERNS_12IAPDUHandlerEEUlRSD_jE_EE(GOT)
	.fnend
	.size	_ZN8opendnp316CountIndexParser17InvokeCountOfTypeINS_12Group122Var2EEEvRKNS_12HeaderRecordEtRKNS_9NumParserERKN7openpal6RSliceERNS_12IAPDUHandlerE, .-_ZN8opendnp316CountIndexParser17InvokeCountOfTypeINS_12Group122Var2EEEvRKNS_12HeaderRecordEtRKNS_9NumParserERKN7openpal6RSliceERNS_12IAPDUHandlerE
	.section	.text._ZN7openpal12StaticBufferILj255EED0Ev,"axG",%progbits,_ZN7openpal12StaticBufferILj255EED5Ev,comdat
	.align	2
	.weak	_ZN7openpal12StaticBufferILj255EED0Ev
	.syntax unified
	.arm
	.fpu vfp
	.type	_ZN7openpal12StaticBufferILj255EED0Ev, %function
_ZN7openpal12StaticBufferILj255EED0Ev:
	.fnstart
.LFB2699:
	@ args = 0, pretend = 0, frame = 0
	@ frame_needed = 0, uses_anonymous_args = 0
	push	{r4, lr}
	mov	r1, #260
	mov	r4, r0
	bl	_ZdlPvj(PLT)
	mov	r0, r4
	pop	{r4, pc}
	.cantunwind
	.fnend
	.size	_ZN7openpal12StaticBufferILj255EED0Ev, .-_ZN7openpal12StaticBufferILj255EED0Ev
	.text
	.align	2
	.syntax unified
	.arm
	.fpu vfp
	.type	_ZNK8opendnp318BufferedCollectionINS_7IndexedINS_11OctetStringEEEZNS_16CountIndexParser27ParseIndexPrefixedOctetDataERN7openpal6RSliceERKNS_12HeaderRecordERKNS_9NumParserEjPNS5_6LoggerEPNS_12IAPDUHandlerEEUlS7_jE_E7ForeachERNS_8IVisitorIS3_EE, %function
_ZNK8opendnp318BufferedCollectionINS_7IndexedINS_11OctetStringEEEZNS_16CountIndexParser27ParseIndexPrefixedOctetDataERN7openpal6RSliceERKNS_12HeaderRecordERKNS_9NumParserEjPNS5_6LoggerEPNS_12IAPDUHandlerEEUlS7_jE_E7ForeachERNS_8IVisitorIS3_EE:
	.fnstart
.LFB3933:
	@ args = 0, pretend = 0, frame = 560
	@ frame_needed = 0, uses_anonymous_args = 0
	push	{r4, r5, r6, r7, r8, r9, r10, fp, lr}
	.save {r4, r5, r6, r7, r8, r9, r10, fp, lr}
	mov	r4, r0
	.pad #564
	sub	sp, sp, #564
	ldr	r3, [r0, #12]
	mov	r8, r1
	ldmib	r0, {r0, r1}
	add	r5, sp, #20
	ldr	r2, .L261
	cmp	r3, #0
	stm	r5, {r0, r1}
.LPIC50:
	add	r2, pc, r2
	beq	.L255
	ldr	r3, .L261+4
	mov	r7, #0
	add	r6, sp, #292
	ldr	r3, [r2, r3]
	add	fp, sp, #28
	add	r3, r3, #8
	str	r3, [sp]
	add	r3, sp, #296
	str	r3, [sp, #4]
	add	r3, sp, #32
	str	r3, [sp, #12]
	add	r3, sp, #556
	str	r3, [sp, #8]
.L258:
	ldr	r3, [r8]
	mov	r1, r5
	ldr	r0, [r4, #16]
	ldr	r9, [r3]
	bl	_ZNK8opendnp39NumParser7ReadNumERN7openpal6RSliceE(PLT)
	ldrb	r2, [r4, #29]	@ zero_extendqisi2
	mov	r1, r5
	add	r7, r7, #1
	mov	r10, r0
	mov	r0, r6
	bl	_ZNK7openpal6RSlice4TakeEj(PLT)
	mov	r1, r6
	mov	r0, fp
	bl	_ZN8opendnp39OctetDataC2ERKN7openpal6RSliceE(PLT)
	ldrb	r1, [r4, #29]	@ zero_extendqisi2
	mov	r0, r5
	bl	_ZN7openpal6RSlice7AdvanceEj(PLT)
	ldr	r3, [sp]
	mov	r2, #255
	ldr	r1, [sp, #12]
	ldr	r0, [sp, #4]
	str	r3, [sp, #292]
	bl	memcpy(PLT)
	ldr	r3, [sp, #8]
	ldrb	r2, [sp, #288]	@ zero_extendqisi2
	mov	r1, r6
	strh	r10, [r3]	@ movhi
	mov	r0, r8
	strb	r2, [sp, #552]
	blx	r9
	ldr	r3, [r4, #12]
	cmp	r3, r7
	bhi	.L258
.L255:
	add	sp, sp, #564
	@ sp needed
	pop	{r4, r5, r6, r7, r8, r9, r10, fp, pc}
.L262:
	.align	2
.L261:
	.word	_GLOBAL_OFFSET_TABLE_-(.LPIC50+8)
	.word	_ZTVN7openpal12StaticBufferILj255EEE(GOT)
	.fnend
	.size	_ZNK8opendnp318BufferedCollectionINS_7IndexedINS_11OctetStringEEEZNS_16CountIndexParser27ParseIndexPrefixedOctetDataERN7openpal6RSliceERKNS_12HeaderRecordERKNS_9NumParserEjPNS5_6LoggerEPNS_12IAPDUHandlerEEUlS7_jE_E7ForeachERNS_8IVisitorIS3_EE, .-_ZNK8opendnp318BufferedCollectionINS_7IndexedINS_11OctetStringEEEZNS_16CountIndexParser27ParseIndexPrefixedOctetDataERN7openpal6RSliceERKNS_12HeaderRecordERKNS_9NumParserEjPNS5_6LoggerEPNS_12IAPDUHandlerEEUlS7_jE_E7ForeachERNS_8IVisitorIS3_EE
	.section	.text._ZNK8opendnp318BufferedCollectionINS_7IndexedINS_6BinaryEEEZNS_16CountIndexParser13InvokeCountOfINS_10Group2Var1EEEvRKNS_12HeaderRecordEtRKNS_9NumParserERKN7openpal6RSliceERNS_12IAPDUHandlerEEUlRSE_jE_E7ForeachERNS_8IVisitorIS3_EE,"axG",%progbits,_ZNK8opendnp318BufferedCollectionINS_7IndexedINS_6BinaryEEEZNS_16CountIndexParser13InvokeCountOfINS_10Group2Var1EEEvRKNS_12HeaderRecordEtRKNS_9NumParserERKN7openpal6RSliceERNS_12IAPDUHandlerEEUlRSE_jE_E7ForeachERNS_8IVisitorIS3_EE,comdat
	.align	2
	.weak	_ZNK8opendnp318BufferedCollectionINS_7IndexedINS_6BinaryEEEZNS_16CountIndexParser13InvokeCountOfINS_10Group2Var1EEEvRKNS_12HeaderRecordEtRKNS_9NumParserERKN7openpal6RSliceERNS_12IAPDUHandlerEEUlRSE_jE_E7ForeachERNS_8IVisitorIS3_EE
	.syntax unified
	.arm
	.fpu vfp
	.type	_ZNK8opendnp318BufferedCollectionINS_7IndexedINS_6BinaryEEEZNS_16CountIndexParser13InvokeCountOfINS_10Group2Var1EEEvRKNS_12HeaderRecordEtRKNS_9NumParserERKN7openpal6RSliceERNS_12IAPDUHandlerEEUlRSE_jE_E7ForeachERNS_8IVisitorIS3_EE, %function
_ZNK8opendnp318BufferedCollectionINS_7IndexedINS_6BinaryEEEZNS_16CountIndexParser13InvokeCountOfINS_10Group2Var1EEEvRKNS_12HeaderRecordEtRKNS_9NumParserERKN7openpal6RSliceERNS_12IAPDUHandlerEEUlRSE_jE_E7ForeachERNS_8IVisitorIS3_EE:
	.fnstart
.LFB3931:
	@ args = 0, pretend = 0, frame = 40
	@ frame_needed = 0, uses_anonymous_args = 0
	push	{r4, r5, r6, r7, r8, r9, r10, lr}
	.save {r4, r5, r6, r7, r8, r9, r10, lr}
	mov	r6, r0
	ldr	r3, [r0, #12]
	mov	r8, r1
	ldmib	r0, {r0, r1}
	.pad #40
	sub	sp, sp, #40
	cmp	r3, #0
	stm	sp, {r0, r1}
	beq	.L263
	mov	r4, #0
	mov	r7, sp
	mov	r10, r4
	add	r5, sp, #8
.L266:
	ldr	r3, [r8]
	mov	r0, r5
	add	r4, r4, #1
	ldr	r9, [r3]
	bl	_ZN8opendnp36BinaryC1Ev(PLT)
	mov	r1, r7
	ldr	r0, [r6, #16]
	strh	r10, [sp, #32]	@ movhi
	bl	_ZNK8opendnp39NumParser7ReadNumERN7openpal6RSliceE(PLT)
	mov	r1, r5
	strh	r0, [sp, #32]	@ movhi
	mov	r0, r7
	bl	_ZN8opendnp310Group2Var110ReadTargetERN7openpal6RSliceERNS_6BinaryE(PLT)
	mov	r1, r5
	mov	r0, r8
	blx	r9
	ldr	r3, [r6, #12]
	cmp	r3, r4
	bhi	.L266
.L263:
	add	sp, sp, #40
	@ sp needed
	pop	{r4, r5, r6, r7, r8, r9, r10, pc}
	.fnend
	.size	_ZNK8opendnp318BufferedCollectionINS_7IndexedINS_6BinaryEEEZNS_16CountIndexParser13InvokeCountOfINS_10Group2Var1EEEvRKNS_12HeaderRecordEtRKNS_9NumParserERKN7openpal6RSliceERNS_12IAPDUHandlerEEUlRSE_jE_E7ForeachERNS_8IVisitorIS3_EE, .-_ZNK8opendnp318BufferedCollectionINS_7IndexedINS_6BinaryEEEZNS_16CountIndexParser13InvokeCountOfINS_10Group2Var1EEEvRKNS_12HeaderRecordEtRKNS_9NumParserERKN7openpal6RSliceERNS_12IAPDUHandlerEEUlRSE_jE_E7ForeachERNS_8IVisitorIS3_EE
	.section	.text._ZNK8opendnp318BufferedCollectionINS_7IndexedINS_6BinaryEEEZNS_16CountIndexParser13InvokeCountOfINS_10Group2Var2EEEvRKNS_12HeaderRecordEtRKNS_9NumParserERKN7openpal6RSliceERNS_12IAPDUHandlerEEUlRSE_jE_E7ForeachERNS_8IVisitorIS3_EE,"axG",%progbits,_ZNK8opendnp318BufferedCollectionINS_7IndexedINS_6BinaryEEEZNS_16CountIndexParser13InvokeCountOfINS_10Group2Var2EEEvRKNS_12HeaderRecordEtRKNS_9NumParserERKN7openpal6RSliceERNS_12IAPDUHandlerEEUlRSE_jE_E7ForeachERNS_8IVisitorIS3_EE,comdat
	.align	2
	.weak	_ZNK8opendnp318BufferedCollectionINS_7IndexedINS_6BinaryEEEZNS_16CountIndexParser13InvokeCountOfINS_10Group2Var2EEEvRKNS_12HeaderRecordEtRKNS_9NumParserERKN7openpal6RSliceERNS_12IAPDUHandlerEEUlRSE_jE_E7ForeachERNS_8IVisitorIS3_EE
	.syntax unified
	.arm
	.fpu vfp
	.type	_ZNK8opendnp318BufferedCollectionINS_7IndexedINS_6BinaryEEEZNS_16CountIndexParser13InvokeCountOfINS_10Group2Var2EEEvRKNS_12HeaderRecordEtRKNS_9NumParserERKN7openpal6RSliceERNS_12IAPDUHandlerEEUlRSE_jE_E7ForeachERNS_8IVisitorIS3_EE, %function
_ZNK8opendnp318BufferedCollectionINS_7IndexedINS_6BinaryEEEZNS_16CountIndexParser13InvokeCountOfINS_10Group2Var2EEEvRKNS_12HeaderRecordEtRKNS_9NumParserERKN7openpal6RSliceERNS_12IAPDUHandlerEEUlRSE_jE_E7ForeachERNS_8IVisitorIS3_EE:
	.fnstart
.LFB3929:
	@ args = 0, pretend = 0, frame = 40
	@ frame_needed = 0, uses_anonymous_args = 0
	push	{r4, r5, r6, r7, r8, r9, r10, lr}
	.save {r4, r5, r6, r7, r8, r9, r10, lr}
	mov	r6, r0
	ldr	r3, [r0, #12]
	mov	r8, r1
	ldmib	r0, {r0, r1}
	.pad #40
	sub	sp, sp, #40
	cmp	r3, #0
	stm	sp, {r0, r1}
	beq	.L268
	mov	r4, #0
	mov	r7, sp
	mov	r10, r4
	add	r5, sp, #8
.L271:
	ldr	r3, [r8]
	mov	r0, r5
	add	r4, r4, #1
	ldr	r9, [r3]
	bl	_ZN8opendnp36BinaryC1Ev(PLT)
	mov	r1, r7
	ldr	r0, [r6, #16]
	strh	r10, [sp, #32]	@ movhi
	bl	_ZNK8opendnp39NumParser7ReadNumERN7openpal6RSliceE(PLT)
	mov	r1, r5
	strh	r0, [sp, #32]	@ movhi
	mov	r0, r7
	bl	_ZN8opendnp310Group2Var210ReadTargetERN7openpal6RSliceERNS_6BinaryE(PLT)
	mov	r1, r5
	mov	r0, r8
	blx	r9
	ldr	r3, [r6, #12]
	cmp	r3, r4
	bhi	.L271
.L268:
	add	sp, sp, #40
	@ sp needed
	pop	{r4, r5, r6, r7, r8, r9, r10, pc}
	.fnend
	.size	_ZNK8opendnp318BufferedCollectionINS_7IndexedINS_6BinaryEEEZNS_16CountIndexParser13InvokeCountOfINS_10Group2Var2EEEvRKNS_12HeaderRecordEtRKNS_9NumParserERKN7openpal6RSliceERNS_12IAPDUHandlerEEUlRSE_jE_E7ForeachERNS_8IVisitorIS3_EE, .-_ZNK8opendnp318BufferedCollectionINS_7IndexedINS_6BinaryEEEZNS_16CountIndexParser13InvokeCountOfINS_10Group2Var2EEEvRKNS_12HeaderRecordEtRKNS_9NumParserERKN7openpal6RSliceERNS_12IAPDUHandlerEEUlRSE_jE_E7ForeachERNS_8IVisitorIS3_EE
	.section	.text._ZNK8opendnp318BufferedCollectionINS_7IndexedINS_6BinaryEEEZNS_16CountIndexParser13InvokeCountOfINS_10Group2Var3EEEvRKNS_12HeaderRecordEtRKNS_9NumParserERKN7openpal6RSliceERNS_12IAPDUHandlerEEUlRSE_jE_E7ForeachERNS_8IVisitorIS3_EE,"axG",%progbits,_ZNK8opendnp318BufferedCollectionINS_7IndexedINS_6BinaryEEEZNS_16CountIndexParser13InvokeCountOfINS_10Group2Var3EEEvRKNS_12HeaderRecordEtRKNS_9NumParserERKN7openpal6RSliceERNS_12IAPDUHandlerEEUlRSE_jE_E7ForeachERNS_8IVisitorIS3_EE,comdat
	.align	2
	.weak	_ZNK8opendnp318BufferedCollectionINS_7IndexedINS_6BinaryEEEZNS_16CountIndexParser13InvokeCountOfINS_10Group2Var3EEEvRKNS_12HeaderRecordEtRKNS_9NumParserERKN7openpal6RSliceERNS_12IAPDUHandlerEEUlRSE_jE_E7ForeachERNS_8IVisitorIS3_EE
	.syntax unified
	.arm
	.fpu vfp
	.type	_ZNK8opendnp318BufferedCollectionINS_7IndexedINS_6BinaryEEEZNS_16CountIndexParser13InvokeCountOfINS_10Group2Var3EEEvRKNS_12HeaderRecordEtRKNS_9NumParserERKN7openpal6RSliceERNS_12IAPDUHandlerEEUlRSE_jE_E7ForeachERNS_8IVisitorIS3_EE, %function
_ZNK8opendnp318BufferedCollectionINS_7IndexedINS_6BinaryEEEZNS_16CountIndexParser13InvokeCountOfINS_10Group2Var3EEEvRKNS_12HeaderRecordEtRKNS_9NumParserERKN7openpal6RSliceERNS_12IAPDUHandlerEEUlRSE_jE_E7ForeachERNS_8IVisitorIS3_EE:
	.fnstart
.LFB3927:
	@ args = 0, pretend = 0, frame = 40
	@ frame_needed = 0, uses_anonymous_args = 0
	push	{r4, r5, r6, r7, r8, r9, r10, lr}
	.save {r4, r5, r6, r7, r8, r9, r10, lr}
	mov	r6, r0
	ldr	r3, [r0, #12]
	mov	r8, r1
	ldmib	r0, {r0, r1}
	.pad #40
	sub	sp, sp, #40
	cmp	r3, #0
	stm	sp, {r0, r1}
	beq	.L273
	mov	r4, #0
	mov	r7, sp
	mov	r10, r4
	add	r5, sp, #8
.L276:
	ldr	r3, [r8]
	mov	r0, r5
	add	r4, r4, #1
	ldr	r9, [r3]
	bl	_ZN8opendnp36BinaryC1Ev(PLT)
	mov	r1, r7
	ldr	r0, [r6, #16]
	strh	r10, [sp, #32]	@ movhi
	bl	_ZNK8opendnp39NumParser7ReadNumERN7openpal6RSliceE(PLT)
	mov	r1, r5
	strh	r0, [sp, #32]	@ movhi
	mov	r0, r7
	bl	_ZN8opendnp310Group2Var310ReadTargetERN7openpal6RSliceERNS_6BinaryE(PLT)
	mov	r1, r5
	mov	r0, r8
	blx	r9
	ldr	r3, [r6, #12]
	cmp	r3, r4
	bhi	.L276
.L273:
	add	sp, sp, #40
	@ sp needed
	pop	{r4, r5, r6, r7, r8, r9, r10, pc}
	.fnend
	.size	_ZNK8opendnp318BufferedCollectionINS_7IndexedINS_6BinaryEEEZNS_16CountIndexParser13InvokeCountOfINS_10Group2Var3EEEvRKNS_12HeaderRecordEtRKNS_9NumParserERKN7openpal6RSliceERNS_12IAPDUHandlerEEUlRSE_jE_E7ForeachERNS_8IVisitorIS3_EE, .-_ZNK8opendnp318BufferedCollectionINS_7IndexedINS_6BinaryEEEZNS_16CountIndexParser13InvokeCountOfINS_10Group2Var3EEEvRKNS_12HeaderRecordEtRKNS_9NumParserERKN7openpal6RSliceERNS_12IAPDUHandlerEEUlRSE_jE_E7ForeachERNS_8IVisitorIS3_EE
	.section	.text._ZNK8opendnp318BufferedCollectionINS_7IndexedINS_15DoubleBitBinaryEEEZNS_16CountIndexParser13InvokeCountOfINS_10Group4Var1EEEvRKNS_12HeaderRecordEtRKNS_9NumParserERKN7openpal6RSliceERNS_12IAPDUHandlerEEUlRSE_jE_E7ForeachERNS_8IVisitorIS3_EE,"axG",%progbits,_ZNK8opendnp318BufferedCollectionINS_7IndexedINS_15DoubleBitBinaryEEEZNS_16CountIndexParser13InvokeCountOfINS_10Group4Var1EEEvRKNS_12HeaderRecordEtRKNS_9NumParserERKN7openpal6RSliceERNS_12IAPDUHandlerEEUlRSE_jE_E7ForeachERNS_8IVisitorIS3_EE,comdat
	.align	2
	.weak	_ZNK8opendnp318BufferedCollectionINS_7IndexedINS_15DoubleBitBinaryEEEZNS_16CountIndexParser13InvokeCountOfINS_10Group4Var1EEEvRKNS_12HeaderRecordEtRKNS_9NumParserERKN7openpal6RSliceERNS_12IAPDUHandlerEEUlRSE_jE_E7ForeachERNS_8IVisitorIS3_EE
	.syntax unified
	.arm
	.fpu vfp
	.type	_ZNK8opendnp318BufferedCollectionINS_7IndexedINS_15DoubleBitBinaryEEEZNS_16CountIndexParser13InvokeCountOfINS_10Group4Var1EEEvRKNS_12HeaderRecordEtRKNS_9NumParserERKN7openpal6RSliceERNS_12IAPDUHandlerEEUlRSE_jE_E7ForeachERNS_8IVisitorIS3_EE, %function
_ZNK8opendnp318BufferedCollectionINS_7IndexedINS_15DoubleBitBinaryEEEZNS_16CountIndexParser13InvokeCountOfINS_10Group4Var1EEEvRKNS_12HeaderRecordEtRKNS_9NumParserERKN7openpal6RSliceERNS_12IAPDUHandlerEEUlRSE_jE_E7ForeachERNS_8IVisitorIS3_EE:
	.fnstart
.LFB3925:
	@ args = 0, pretend = 0, frame = 40
	@ frame_needed = 0, uses_anonymous_args = 0
	push	{r4, r5, r6, r7, r8, r9, r10, lr}
	.save {r4, r5, r6, r7, r8, r9, r10, lr}
	mov	r6, r0
	ldr	r3, [r0, #12]
	mov	r8, r1
	ldmib	r0, {r0, r1}
	.pad #40
	sub	sp, sp, #40
	cmp	r3, #0
	stm	sp, {r0, r1}
	beq	.L278
	mov	r4, #0
	mov	r7, sp
	mov	r10, r4
	add	r5, sp, #8
.L281:
	ldr	r3, [r8]
	mov	r0, r5
	add	r4, r4, #1
	ldr	r9, [r3]
	bl	_ZN8opendnp315DoubleBitBinaryC1Ev(PLT)
	mov	r1, r7
	ldr	r0, [r6, #16]
	strh	r10, [sp, #32]	@ movhi
	bl	_ZNK8opendnp39NumParser7ReadNumERN7openpal6RSliceE(PLT)
	mov	r1, r5
	strh	r0, [sp, #32]	@ movhi
	mov	r0, r7
	bl	_ZN8opendnp310Group4Var110ReadTargetERN7openpal6RSliceERNS_15DoubleBitBinaryE(PLT)
	mov	r1, r5
	mov	r0, r8
	blx	r9
	ldr	r3, [r6, #12]
	cmp	r3, r4
	bhi	.L281
.L278:
	add	sp, sp, #40
	@ sp needed
	pop	{r4, r5, r6, r7, r8, r9, r10, pc}
	.fnend
	.size	_ZNK8opendnp318BufferedCollectionINS_7IndexedINS_15DoubleBitBinaryEEEZNS_16CountIndexParser13InvokeCountOfINS_10Group4Var1EEEvRKNS_12HeaderRecordEtRKNS_9NumParserERKN7openpal6RSliceERNS_12IAPDUHandlerEEUlRSE_jE_E7ForeachERNS_8IVisitorIS3_EE, .-_ZNK8opendnp318BufferedCollectionINS_7IndexedINS_15DoubleBitBinaryEEEZNS_16CountIndexParser13InvokeCountOfINS_10Group4Var1EEEvRKNS_12HeaderRecordEtRKNS_9NumParserERKN7openpal6RSliceERNS_12IAPDUHandlerEEUlRSE_jE_E7ForeachERNS_8IVisitorIS3_EE
	.section	.text._ZNK8opendnp318BufferedCollectionINS_7IndexedINS_15DoubleBitBinaryEEEZNS_16CountIndexParser13InvokeCountOfINS_10Group4Var2EEEvRKNS_12HeaderRecordEtRKNS_9NumParserERKN7openpal6RSliceERNS_12IAPDUHandlerEEUlRSE_jE_E7ForeachERNS_8IVisitorIS3_EE,"axG",%progbits,_ZNK8opendnp318BufferedCollectionINS_7IndexedINS_15DoubleBitBinaryEEEZNS_16CountIndexParser13InvokeCountOfINS_10Group4Var2EEEvRKNS_12HeaderRecordEtRKNS_9NumParserERKN7openpal6RSliceERNS_12IAPDUHandlerEEUlRSE_jE_E7ForeachERNS_8IVisitorIS3_EE,comdat
	.align	2
	.weak	_ZNK8opendnp318BufferedCollectionINS_7IndexedINS_15DoubleBitBinaryEEEZNS_16CountIndexParser13InvokeCountOfINS_10Group4Var2EEEvRKNS_12HeaderRecordEtRKNS_9NumParserERKN7openpal6RSliceERNS_12IAPDUHandlerEEUlRSE_jE_E7ForeachERNS_8IVisitorIS3_EE
	.syntax unified
	.arm
	.fpu vfp
	.type	_ZNK8opendnp318BufferedCollectionINS_7IndexedINS_15DoubleBitBinaryEEEZNS_16CountIndexParser13InvokeCountOfINS_10Group4Var2EEEvRKNS_12HeaderRecordEtRKNS_9NumParserERKN7openpal6RSliceERNS_12IAPDUHandlerEEUlRSE_jE_E7ForeachERNS_8IVisitorIS3_EE, %function
_ZNK8opendnp318BufferedCollectionINS_7IndexedINS_15DoubleBitBinaryEEEZNS_16CountIndexParser13InvokeCountOfINS_10Group4Var2EEEvRKNS_12HeaderRecordEtRKNS_9NumParserERKN7openpal6RSliceERNS_12IAPDUHandlerEEUlRSE_jE_E7ForeachERNS_8IVisitorIS3_EE:
	.fnstart
.LFB3923:
	@ args = 0, pretend = 0, frame = 40
	@ frame_needed = 0, uses_anonymous_args = 0
	push	{r4, r5, r6, r7, r8, r9, r10, lr}
	.save {r4, r5, r6, r7, r8, r9, r10, lr}
	mov	r6, r0
	ldr	r3, [r0, #12]
	mov	r8, r1
	ldmib	r0, {r0, r1}
	.pad #40
	sub	sp, sp, #40
	cmp	r3, #0
	stm	sp, {r0, r1}
	beq	.L283
	mov	r4, #0
	mov	r7, sp
	mov	r10, r4
	add	r5, sp, #8
.L286:
	ldr	r3, [r8]
	mov	r0, r5
	add	r4, r4, #1
	ldr	r9, [r3]
	bl	_ZN8opendnp315DoubleBitBinaryC1Ev(PLT)
	mov	r1, r7
	ldr	r0, [r6, #16]
	strh	r10, [sp, #32]	@ movhi
	bl	_ZNK8opendnp39NumParser7ReadNumERN7openpal6RSliceE(PLT)
	mov	r1, r5
	strh	r0, [sp, #32]	@ movhi
	mov	r0, r7
	bl	_ZN8opendnp310Group4Var210ReadTargetERN7openpal6RSliceERNS_15DoubleBitBinaryE(PLT)
	mov	r1, r5
	mov	r0, r8
	blx	r9
	ldr	r3, [r6, #12]
	cmp	r3, r4
	bhi	.L286
.L283:
	add	sp, sp, #40
	@ sp needed
	pop	{r4, r5, r6, r7, r8, r9, r10, pc}
	.fnend
	.size	_ZNK8opendnp318BufferedCollectionINS_7IndexedINS_15DoubleBitBinaryEEEZNS_16CountIndexParser13InvokeCountOfINS_10Group4Var2EEEvRKNS_12HeaderRecordEtRKNS_9NumParserERKN7openpal6RSliceERNS_12IAPDUHandlerEEUlRSE_jE_E7ForeachERNS_8IVisitorIS3_EE, .-_ZNK8opendnp318BufferedCollectionINS_7IndexedINS_15DoubleBitBinaryEEEZNS_16CountIndexParser13InvokeCountOfINS_10Group4Var2EEEvRKNS_12HeaderRecordEtRKNS_9NumParserERKN7openpal6RSliceERNS_12IAPDUHandlerEEUlRSE_jE_E7ForeachERNS_8IVisitorIS3_EE
	.section	.text._ZNK8opendnp318BufferedCollectionINS_7IndexedINS_15DoubleBitBinaryEEEZNS_16CountIndexParser13InvokeCountOfINS_10Group4Var3EEEvRKNS_12HeaderRecordEtRKNS_9NumParserERKN7openpal6RSliceERNS_12IAPDUHandlerEEUlRSE_jE_E7ForeachERNS_8IVisitorIS3_EE,"axG",%progbits,_ZNK8opendnp318BufferedCollectionINS_7IndexedINS_15DoubleBitBinaryEEEZNS_16CountIndexParser13InvokeCountOfINS_10Group4Var3EEEvRKNS_12HeaderRecordEtRKNS_9NumParserERKN7openpal6RSliceERNS_12IAPDUHandlerEEUlRSE_jE_E7ForeachERNS_8IVisitorIS3_EE,comdat
	.align	2
	.weak	_ZNK8opendnp318BufferedCollectionINS_7IndexedINS_15DoubleBitBinaryEEEZNS_16CountIndexParser13InvokeCountOfINS_10Group4Var3EEEvRKNS_12HeaderRecordEtRKNS_9NumParserERKN7openpal6RSliceERNS_12IAPDUHandlerEEUlRSE_jE_E7ForeachERNS_8IVisitorIS3_EE
	.syntax unified
	.arm
	.fpu vfp
	.type	_ZNK8opendnp318BufferedCollectionINS_7IndexedINS_15DoubleBitBinaryEEEZNS_16CountIndexParser13InvokeCountOfINS_10Group4Var3EEEvRKNS_12HeaderRecordEtRKNS_9NumParserERKN7openpal6RSliceERNS_12IAPDUHandlerEEUlRSE_jE_E7ForeachERNS_8IVisitorIS3_EE, %function
_ZNK8opendnp318BufferedCollectionINS_7IndexedINS_15DoubleBitBinaryEEEZNS_16CountIndexParser13InvokeCountOfINS_10Group4Var3EEEvRKNS_12HeaderRecordEtRKNS_9NumParserERKN7openpal6RSliceERNS_12IAPDUHandlerEEUlRSE_jE_E7ForeachERNS_8IVisitorIS3_EE:
	.fnstart
.LFB3921:
	@ args = 0, pretend = 0, frame = 40
	@ frame_needed = 0, uses_anonymous_args = 0
	push	{r4, r5, r6, r7, r8, r9, r10, lr}
	.save {r4, r5, r6, r7, r8, r9, r10, lr}
	mov	r6, r0
	ldr	r3, [r0, #12]
	mov	r8, r1
	ldmib	r0, {r0, r1}
	.pad #40
	sub	sp, sp, #40
	cmp	r3, #0
	stm	sp, {r0, r1}
	beq	.L288
	mov	r4, #0
	mov	r7, sp
	mov	r10, r4
	add	r5, sp, #8
.L291:
	ldr	r3, [r8]
	mov	r0, r5
	add	r4, r4, #1
	ldr	r9, [r3]
	bl	_ZN8opendnp315DoubleBitBinaryC1Ev(PLT)
	mov	r1, r7
	ldr	r0, [r6, #16]
	strh	r10, [sp, #32]	@ movhi
	bl	_ZNK8opendnp39NumParser7ReadNumERN7openpal6RSliceE(PLT)
	mov	r1, r5
	strh	r0, [sp, #32]	@ movhi
	mov	r0, r7
	bl	_ZN8opendnp310Group4Var310ReadTargetERN7openpal6RSliceERNS_15DoubleBitBinaryE(PLT)
	mov	r1, r5
	mov	r0, r8
	blx	r9
	ldr	r3, [r6, #12]
	cmp	r3, r4
	bhi	.L291
.L288:
	add	sp, sp, #40
	@ sp needed
	pop	{r4, r5, r6, r7, r8, r9, r10, pc}
	.fnend
	.size	_ZNK8opendnp318BufferedCollectionINS_7IndexedINS_15DoubleBitBinaryEEEZNS_16CountIndexParser13InvokeCountOfINS_10Group4Var3EEEvRKNS_12HeaderRecordEtRKNS_9NumParserERKN7openpal6RSliceERNS_12IAPDUHandlerEEUlRSE_jE_E7ForeachERNS_8IVisitorIS3_EE, .-_ZNK8opendnp318BufferedCollectionINS_7IndexedINS_15DoubleBitBinaryEEEZNS_16CountIndexParser13InvokeCountOfINS_10Group4Var3EEEvRKNS_12HeaderRecordEtRKNS_9NumParserERKN7openpal6RSliceERNS_12IAPDUHandlerEEUlRSE_jE_E7ForeachERNS_8IVisitorIS3_EE
	.section	.text._ZNK8opendnp318BufferedCollectionINS_7IndexedINS_18BinaryOutputStatusEEEZNS_16CountIndexParser13InvokeCountOfINS_11Group11Var1EEEvRKNS_12HeaderRecordEtRKNS_9NumParserERKN7openpal6RSliceERNS_12IAPDUHandlerEEUlRSE_jE_E7ForeachERNS_8IVisitorIS3_EE,"axG",%progbits,_ZNK8opendnp318BufferedCollectionINS_7IndexedINS_18BinaryOutputStatusEEEZNS_16CountIndexParser13InvokeCountOfINS_11Group11Var1EEEvRKNS_12HeaderRecordEtRKNS_9NumParserERKN7openpal6RSliceERNS_12IAPDUHandlerEEUlRSE_jE_E7ForeachERNS_8IVisitorIS3_EE,comdat
	.align	2
	.weak	_ZNK8opendnp318BufferedCollectionINS_7IndexedINS_18BinaryOutputStatusEEEZNS_16CountIndexParser13InvokeCountOfINS_11Group11Var1EEEvRKNS_12HeaderRecordEtRKNS_9NumParserERKN7openpal6RSliceERNS_12IAPDUHandlerEEUlRSE_jE_E7ForeachERNS_8IVisitorIS3_EE
	.syntax unified
	.arm
	.fpu vfp
	.type	_ZNK8opendnp318BufferedCollectionINS_7IndexedINS_18BinaryOutputStatusEEEZNS_16CountIndexParser13InvokeCountOfINS_11Group11Var1EEEvRKNS_12HeaderRecordEtRKNS_9NumParserERKN7openpal6RSliceERNS_12IAPDUHandlerEEUlRSE_jE_E7ForeachERNS_8IVisitorIS3_EE, %function
_ZNK8opendnp318BufferedCollectionINS_7IndexedINS_18BinaryOutputStatusEEEZNS_16CountIndexParser13InvokeCountOfINS_11Group11Var1EEEvRKNS_12HeaderRecordEtRKNS_9NumParserERKN7openpal6RSliceERNS_12IAPDUHandlerEEUlRSE_jE_E7ForeachERNS_8IVisitorIS3_EE:
	.fnstart
.LFB3919:
	@ args = 0, pretend = 0, frame = 40
	@ frame_needed = 0, uses_anonymous_args = 0
	push	{r4, r5, r6, r7, r8, r9, r10, lr}
	.save {r4, r5, r6, r7, r8, r9, r10, lr}
	mov	r6, r0
	ldr	r3, [r0, #12]
	mov	r8, r1
	ldmib	r0, {r0, r1}
	.pad #40
	sub	sp, sp, #40
	cmp	r3, #0
	stm	sp, {r0, r1}
	beq	.L293
	mov	r4, #0
	mov	r7, sp
	mov	r10, r4
	add	r5, sp, #8
.L296:
	ldr	r3, [r8]
	mov	r0, r5
	add	r4, r4, #1
	ldr	r9, [r3]
	bl	_ZN8opendnp318BinaryOutputStatusC1Ev(PLT)
	mov	r1, r7
	ldr	r0, [r6, #16]
	strh	r10, [sp, #32]	@ movhi
	bl	_ZNK8opendnp39NumParser7ReadNumERN7openpal6RSliceE(PLT)
	mov	r1, r5
	strh	r0, [sp, #32]	@ movhi
	mov	r0, r7
	bl	_ZN8opendnp311Group11Var110ReadTargetERN7openpal6RSliceERNS_18BinaryOutputStatusE(PLT)
	mov	r1, r5
	mov	r0, r8
	blx	r9
	ldr	r3, [r6, #12]
	cmp	r3, r4
	bhi	.L296
.L293:
	add	sp, sp, #40
	@ sp needed
	pop	{r4, r5, r6, r7, r8, r9, r10, pc}
	.fnend
	.size	_ZNK8opendnp318BufferedCollectionINS_7IndexedINS_18BinaryOutputStatusEEEZNS_16CountIndexParser13InvokeCountOfINS_11Group11Var1EEEvRKNS_12HeaderRecordEtRKNS_9NumParserERKN7openpal6RSliceERNS_12IAPDUHandlerEEUlRSE_jE_E7ForeachERNS_8IVisitorIS3_EE, .-_ZNK8opendnp318BufferedCollectionINS_7IndexedINS_18BinaryOutputStatusEEEZNS_16CountIndexParser13InvokeCountOfINS_11Group11Var1EEEvRKNS_12HeaderRecordEtRKNS_9NumParserERKN7openpal6RSliceERNS_12IAPDUHandlerEEUlRSE_jE_E7ForeachERNS_8IVisitorIS3_EE
	.section	.text._ZNK8opendnp318BufferedCollectionINS_7IndexedINS_18BinaryOutputStatusEEEZNS_16CountIndexParser13InvokeCountOfINS_11Group11Var2EEEvRKNS_12HeaderRecordEtRKNS_9NumParserERKN7openpal6RSliceERNS_12IAPDUHandlerEEUlRSE_jE_E7ForeachERNS_8IVisitorIS3_EE,"axG",%progbits,_ZNK8opendnp318BufferedCollectionINS_7IndexedINS_18BinaryOutputStatusEEEZNS_16CountIndexParser13InvokeCountOfINS_11Group11Var2EEEvRKNS_12HeaderRecordEtRKNS_9NumParserERKN7openpal6RSliceERNS_12IAPDUHandlerEEUlRSE_jE_E7ForeachERNS_8IVisitorIS3_EE,comdat
	.align	2
	.weak	_ZNK8opendnp318BufferedCollectionINS_7IndexedINS_18BinaryOutputStatusEEEZNS_16CountIndexParser13InvokeCountOfINS_11Group11Var2EEEvRKNS_12HeaderRecordEtRKNS_9NumParserERKN7openpal6RSliceERNS_12IAPDUHandlerEEUlRSE_jE_E7ForeachERNS_8IVisitorIS3_EE
	.syntax unified
	.arm
	.fpu vfp
	.type	_ZNK8opendnp318BufferedCollectionINS_7IndexedINS_18BinaryOutputStatusEEEZNS_16CountIndexParser13InvokeCountOfINS_11Group11Var2EEEvRKNS_12HeaderRecordEtRKNS_9NumParserERKN7openpal6RSliceERNS_12IAPDUHandlerEEUlRSE_jE_E7ForeachERNS_8IVisitorIS3_EE, %function
_ZNK8opendnp318BufferedCollectionINS_7IndexedINS_18BinaryOutputStatusEEEZNS_16CountIndexParser13InvokeCountOfINS_11Group11Var2EEEvRKNS_12HeaderRecordEtRKNS_9NumParserERKN7openpal6RSliceERNS_12IAPDUHandlerEEUlRSE_jE_E7ForeachERNS_8IVisitorIS3_EE:
	.fnstart
.LFB3917:
	@ args = 0, pretend = 0, frame = 40
	@ frame_needed = 0, uses_anonymous_args = 0
	push	{r4, r5, r6, r7, r8, r9, r10, lr}
	.save {r4, r5, r6, r7, r8, r9, r10, lr}
	mov	r6, r0
	ldr	r3, [r0, #12]
	mov	r8, r1
	ldmib	r0, {r0, r1}
	.pad #40
	sub	sp, sp, #40
	cmp	r3, #0
	stm	sp, {r0, r1}
	beq	.L298
	mov	r4, #0
	mov	r7, sp
	mov	r10, r4
	add	r5, sp, #8
.L301:
	ldr	r3, [r8]
	mov	r0, r5
	add	r4, r4, #1
	ldr	r9, [r3]
	bl	_ZN8opendnp318BinaryOutputStatusC1Ev(PLT)
	mov	r1, r7
	ldr	r0, [r6, #16]
	strh	r10, [sp, #32]	@ movhi
	bl	_ZNK8opendnp39NumParser7ReadNumERN7openpal6RSliceE(PLT)
	mov	r1, r5
	strh	r0, [sp, #32]	@ movhi
	mov	r0, r7
	bl	_ZN8opendnp311Group11Var210ReadTargetERN7openpal6RSliceERNS_18BinaryOutputStatusE(PLT)
	mov	r1, r5
	mov	r0, r8
	blx	r9
	ldr	r3, [r6, #12]
	cmp	r3, r4
	bhi	.L301
.L298:
	add	sp, sp, #40
	@ sp needed
	pop	{r4, r5, r6, r7, r8, r9, r10, pc}
	.fnend
	.size	_ZNK8opendnp318BufferedCollectionINS_7IndexedINS_18BinaryOutputStatusEEEZNS_16CountIndexParser13InvokeCountOfINS_11Group11Var2EEEvRKNS_12HeaderRecordEtRKNS_9NumParserERKN7openpal6RSliceERNS_12IAPDUHandlerEEUlRSE_jE_E7ForeachERNS_8IVisitorIS3_EE, .-_ZNK8opendnp318BufferedCollectionINS_7IndexedINS_18BinaryOutputStatusEEEZNS_16CountIndexParser13InvokeCountOfINS_11Group11Var2EEEvRKNS_12HeaderRecordEtRKNS_9NumParserERKN7openpal6RSliceERNS_12IAPDUHandlerEEUlRSE_jE_E7ForeachERNS_8IVisitorIS3_EE
	.section	.text._ZNK8opendnp318BufferedCollectionINS_7IndexedINS_23ControlRelayOutputBlockEEEZNS_16CountIndexParser13InvokeCountOfINS_11Group12Var1EEEvRKNS_12HeaderRecordEtRKNS_9NumParserERKN7openpal6RSliceERNS_12IAPDUHandlerEEUlRSE_jE_E7ForeachERNS_8IVisitorIS3_EE,"axG",%progbits,_ZNK8opendnp318BufferedCollectionINS_7IndexedINS_23ControlRelayOutputBlockEEEZNS_16CountIndexParser13InvokeCountOfINS_11Group12Var1EEEvRKNS_12HeaderRecordEtRKNS_9NumParserERKN7openpal6RSliceERNS_12IAPDUHandlerEEUlRSE_jE_E7ForeachERNS_8IVisitorIS3_EE,comdat
	.align	2
	.weak	_ZNK8opendnp318BufferedCollectionINS_7IndexedINS_23ControlRelayOutputBlockEEEZNS_16CountIndexParser13InvokeCountOfINS_11Group12Var1EEEvRKNS_12HeaderRecordEtRKNS_9NumParserERKN7openpal6RSliceERNS_12IAPDUHandlerEEUlRSE_jE_E7ForeachERNS_8IVisitorIS3_EE
	.syntax unified
	.arm
	.fpu vfp
	.type	_ZNK8opendnp318BufferedCollectionINS_7IndexedINS_23ControlRelayOutputBlockEEEZNS_16CountIndexParser13InvokeCountOfINS_11Group12Var1EEEvRKNS_12HeaderRecordEtRKNS_9NumParserERKN7openpal6RSliceERNS_12IAPDUHandlerEEUlRSE_jE_E7ForeachERNS_8IVisitorIS3_EE, %function
_ZNK8opendnp318BufferedCollectionINS_7IndexedINS_23ControlRelayOutputBlockEEEZNS_16CountIndexParser13InvokeCountOfINS_11Group12Var1EEEvRKNS_12HeaderRecordEtRKNS_9NumParserERKN7openpal6RSliceERNS_12IAPDUHandlerEEUlRSE_jE_E7ForeachERNS_8IVisitorIS3_EE:
	.fnstart
.LFB3915:
	@ args = 0, pretend = 0, frame = 32
	@ frame_needed = 0, uses_anonymous_args = 0
	push	{r4, r5, r6, r7, r8, r9, r10, fp, lr}
	.save {r4, r5, r6, r7, r8, r9, r10, fp, lr}
	mov	r6, r0
	ldr	r3, [r0, #12]
	.pad #44
	sub	sp, sp, #44
	mov	r8, r1
	ldmib	r0, {r0, r1}
	add	r7, sp, #12
	cmp	r3, #0
	stm	r7, {r0, r1}
	beq	.L303
	mov	r4, #0
	mov	r9, r4
	add	r5, sp, #20
	mov	fp, #100
.L306:
	ldr	r1, [r8]
	mov	r3, #100
	mov	r2, #1
	ldr	r10, [r1]
	mov	r0, r5
	mov	r1, #3
	str	r9, [sp, #4]
	str	fp, [sp]
	bl	_ZN8opendnp323ControlRelayOutputBlockC1ENS_11ControlCodeEhjjNS_13CommandStatusE(PLT)
	mov	r1, r7
	ldr	r0, [r6, #16]
	strh	r9, [sp, #36]	@ movhi
	bl	_ZNK8opendnp39NumParser7ReadNumERN7openpal6RSliceE(PLT)
	mov	r1, r5
	add	r4, r4, #1
	strh	r0, [sp, #36]	@ movhi
	mov	r0, r7
	bl	_ZN8opendnp311Group12Var110ReadTargetERN7openpal6RSliceERNS_23ControlRelayOutputBlockE(PLT)
	mov	r1, r5
	mov	r0, r8
	blx	r10
	ldr	r3, [r6, #12]
	cmp	r3, r4
	bhi	.L306
.L303:
	add	sp, sp, #44
	@ sp needed
	pop	{r4, r5, r6, r7, r8, r9, r10, fp, pc}
	.fnend
	.size	_ZNK8opendnp318BufferedCollectionINS_7IndexedINS_23ControlRelayOutputBlockEEEZNS_16CountIndexParser13InvokeCountOfINS_11Group12Var1EEEvRKNS_12HeaderRecordEtRKNS_9NumParserERKN7openpal6RSliceERNS_12IAPDUHandlerEEUlRSE_jE_E7ForeachERNS_8IVisitorIS3_EE, .-_ZNK8opendnp318BufferedCollectionINS_7IndexedINS_23ControlRelayOutputBlockEEEZNS_16CountIndexParser13InvokeCountOfINS_11Group12Var1EEEvRKNS_12HeaderRecordEtRKNS_9NumParserERKN7openpal6RSliceERNS_12IAPDUHandlerEEUlRSE_jE_E7ForeachERNS_8IVisitorIS3_EE
	.section	.text._ZNK8opendnp318BufferedCollectionINS_7IndexedINS_18BinaryCommandEventEEEZNS_16CountIndexParser13InvokeCountOfINS_11Group13Var1EEEvRKNS_12HeaderRecordEtRKNS_9NumParserERKN7openpal6RSliceERNS_12IAPDUHandlerEEUlRSE_jE_E7ForeachERNS_8IVisitorIS3_EE,"axG",%progbits,_ZNK8opendnp318BufferedCollectionINS_7IndexedINS_18BinaryCommandEventEEEZNS_16CountIndexParser13InvokeCountOfINS_11Group13Var1EEEvRKNS_12HeaderRecordEtRKNS_9NumParserERKN7openpal6RSliceERNS_12IAPDUHandlerEEUlRSE_jE_E7ForeachERNS_8IVisitorIS3_EE,comdat
	.align	2
	.weak	_ZNK8opendnp318BufferedCollectionINS_7IndexedINS_18BinaryCommandEventEEEZNS_16CountIndexParser13InvokeCountOfINS_11Group13Var1EEEvRKNS_12HeaderRecordEtRKNS_9NumParserERKN7openpal6RSliceERNS_12IAPDUHandlerEEUlRSE_jE_E7ForeachERNS_8IVisitorIS3_EE
	.syntax unified
	.arm
	.fpu vfp
	.type	_ZNK8opendnp318BufferedCollectionINS_7IndexedINS_18BinaryCommandEventEEEZNS_16CountIndexParser13InvokeCountOfINS_11Group13Var1EEEvRKNS_12HeaderRecordEtRKNS_9NumParserERKN7openpal6RSliceERNS_12IAPDUHandlerEEUlRSE_jE_E7ForeachERNS_8IVisitorIS3_EE, %function
_ZNK8opendnp318BufferedCollectionINS_7IndexedINS_18BinaryCommandEventEEEZNS_16CountIndexParser13InvokeCountOfINS_11Group13Var1EEEvRKNS_12HeaderRecordEtRKNS_9NumParserERKN7openpal6RSliceERNS_12IAPDUHandlerEEUlRSE_jE_E7ForeachERNS_8IVisitorIS3_EE:
	.fnstart
.LFB3913:
	@ args = 0, pretend = 0, frame = 32
	@ frame_needed = 0, uses_anonymous_args = 0
	push	{r4, r5, r6, r7, r8, r9, r10, lr}
	.save {r4, r5, r6, r7, r8, r9, r10, lr}
	mov	r6, r0
	ldr	r3, [r0, #12]
	mov	r8, r1
	ldmib	r0, {r0, r1}
	.pad #32
	sub	sp, sp, #32
	cmp	r3, #0
	stm	sp, {r0, r1}
	beq	.L308
	mov	r4, #0
	mov	r7, sp
	mov	r10, r4
	add	r5, sp, #8
.L311:
	ldr	r3, [r8]
	mov	r0, r5
	add	r4, r4, #1
	ldr	r9, [r3]
	bl	_ZN8opendnp318BinaryCommandEventC1Ev(PLT)
	mov	r1, r7
	ldr	r0, [r6, #16]
	strh	r10, [sp, #24]	@ movhi
	bl	_ZNK8opendnp39NumParser7ReadNumERN7openpal6RSliceE(PLT)
	mov	r1, r5
	strh	r0, [sp, #24]	@ movhi
	mov	r0, r7
	bl	_ZN8opendnp311Group13Var110ReadTargetERN7openpal6RSliceERNS_18BinaryCommandEventE(PLT)
	mov	r1, r5
	mov	r0, r8
	blx	r9
	ldr	r3, [r6, #12]
	cmp	r3, r4
	bhi	.L311
.L308:
	add	sp, sp, #32
	@ sp needed
	pop	{r4, r5, r6, r7, r8, r9, r10, pc}
	.fnend
	.size	_ZNK8opendnp318BufferedCollectionINS_7IndexedINS_18BinaryCommandEventEEEZNS_16CountIndexParser13InvokeCountOfINS_11Group13Var1EEEvRKNS_12HeaderRecordEtRKNS_9NumParserERKN7openpal6RSliceERNS_12IAPDUHandlerEEUlRSE_jE_E7ForeachERNS_8IVisitorIS3_EE, .-_ZNK8opendnp318BufferedCollectionINS_7IndexedINS_18BinaryCommandEventEEEZNS_16CountIndexParser13InvokeCountOfINS_11Group13Var1EEEvRKNS_12HeaderRecordEtRKNS_9NumParserERKN7openpal6RSliceERNS_12IAPDUHandlerEEUlRSE_jE_E7ForeachERNS_8IVisitorIS3_EE
	.section	.text._ZNK8opendnp318BufferedCollectionINS_7IndexedINS_18BinaryCommandEventEEEZNS_16CountIndexParser13InvokeCountOfINS_11Group13Var2EEEvRKNS_12HeaderRecordEtRKNS_9NumParserERKN7openpal6RSliceERNS_12IAPDUHandlerEEUlRSE_jE_E7ForeachERNS_8IVisitorIS3_EE,"axG",%progbits,_ZNK8opendnp318BufferedCollectionINS_7IndexedINS_18BinaryCommandEventEEEZNS_16CountIndexParser13InvokeCountOfINS_11Group13Var2EEEvRKNS_12HeaderRecordEtRKNS_9NumParserERKN7openpal6RSliceERNS_12IAPDUHandlerEEUlRSE_jE_E7ForeachERNS_8IVisitorIS3_EE,comdat
	.align	2
	.weak	_ZNK8opendnp318BufferedCollectionINS_7IndexedINS_18BinaryCommandEventEEEZNS_16CountIndexParser13InvokeCountOfINS_11Group13Var2EEEvRKNS_12HeaderRecordEtRKNS_9NumParserERKN7openpal6RSliceERNS_12IAPDUHandlerEEUlRSE_jE_E7ForeachERNS_8IVisitorIS3_EE
	.syntax unified
	.arm
	.fpu vfp
	.type	_ZNK8opendnp318BufferedCollectionINS_7IndexedINS_18BinaryCommandEventEEEZNS_16CountIndexParser13InvokeCountOfINS_11Group13Var2EEEvRKNS_12HeaderRecordEtRKNS_9NumParserERKN7openpal6RSliceERNS_12IAPDUHandlerEEUlRSE_jE_E7ForeachERNS_8IVisitorIS3_EE, %function
_ZNK8opendnp318BufferedCollectionINS_7IndexedINS_18BinaryCommandEventEEEZNS_16CountIndexParser13InvokeCountOfINS_11Group13Var2EEEvRKNS_12HeaderRecordEtRKNS_9NumParserERKN7openpal6RSliceERNS_12IAPDUHandlerEEUlRSE_jE_E7ForeachERNS_8IVisitorIS3_EE:
	.fnstart
.LFB3911:
	@ args = 0, pretend = 0, frame = 32
	@ frame_needed = 0, uses_anonymous_args = 0
	push	{r4, r5, r6, r7, r8, r9, r10, lr}
	.save {r4, r5, r6, r7, r8, r9, r10, lr}
	mov	r6, r0
	ldr	r3, [r0, #12]
	mov	r8, r1
	ldmib	r0, {r0, r1}
	.pad #32
	sub	sp, sp, #32
	cmp	r3, #0
	stm	sp, {r0, r1}
	beq	.L313
	mov	r4, #0
	mov	r7, sp
	mov	r10, r4
	add	r5, sp, #8
.L316:
	ldr	r3, [r8]
	mov	r0, r5
	add	r4, r4, #1
	ldr	r9, [r3]
	bl	_ZN8opendnp318BinaryCommandEventC1Ev(PLT)
	mov	r1, r7
	ldr	r0, [r6, #16]
	strh	r10, [sp, #24]	@ movhi
	bl	_ZNK8opendnp39NumParser7ReadNumERN7openpal6RSliceE(PLT)
	mov	r1, r5
	strh	r0, [sp, #24]	@ movhi
	mov	r0, r7
	bl	_ZN8opendnp311Group13Var210ReadTargetERN7openpal6RSliceERNS_18BinaryCommandEventE(PLT)
	mov	r1, r5
	mov	r0, r8
	blx	r9
	ldr	r3, [r6, #12]
	cmp	r3, r4
	bhi	.L316
.L313:
	add	sp, sp, #32
	@ sp needed
	pop	{r4, r5, r6, r7, r8, r9, r10, pc}
	.fnend
	.size	_ZNK8opendnp318BufferedCollectionINS_7IndexedINS_18BinaryCommandEventEEEZNS_16CountIndexParser13InvokeCountOfINS_11Group13Var2EEEvRKNS_12HeaderRecordEtRKNS_9NumParserERKN7openpal6RSliceERNS_12IAPDUHandlerEEUlRSE_jE_E7ForeachERNS_8IVisitorIS3_EE, .-_ZNK8opendnp318BufferedCollectionINS_7IndexedINS_18BinaryCommandEventEEEZNS_16CountIndexParser13InvokeCountOfINS_11Group13Var2EEEvRKNS_12HeaderRecordEtRKNS_9NumParserERKN7openpal6RSliceERNS_12IAPDUHandlerEEUlRSE_jE_E7ForeachERNS_8IVisitorIS3_EE
	.section	.text._ZNK8opendnp318BufferedCollectionINS_7IndexedINS_7CounterEEEZNS_16CountIndexParser13InvokeCountOfINS_11Group22Var1EEEvRKNS_12HeaderRecordEtRKNS_9NumParserERKN7openpal6RSliceERNS_12IAPDUHandlerEEUlRSE_jE_E7ForeachERNS_8IVisitorIS3_EE,"axG",%progbits,_ZNK8opendnp318BufferedCollectionINS_7IndexedINS_7CounterEEEZNS_16CountIndexParser13InvokeCountOfINS_11Group22Var1EEEvRKNS_12HeaderRecordEtRKNS_9NumParserERKN7openpal6RSliceERNS_12IAPDUHandlerEEUlRSE_jE_E7ForeachERNS_8IVisitorIS3_EE,comdat
	.align	2
	.weak	_ZNK8opendnp318BufferedCollectionINS_7IndexedINS_7CounterEEEZNS_16CountIndexParser13InvokeCountOfINS_11Group22Var1EEEvRKNS_12HeaderRecordEtRKNS_9NumParserERKN7openpal6RSliceERNS_12IAPDUHandlerEEUlRSE_jE_E7ForeachERNS_8IVisitorIS3_EE
	.syntax unified
	.arm
	.fpu vfp
	.type	_ZNK8opendnp318BufferedCollectionINS_7IndexedINS_7CounterEEEZNS_16CountIndexParser13InvokeCountOfINS_11Group22Var1EEEvRKNS_12HeaderRecordEtRKNS_9NumParserERKN7openpal6RSliceERNS_12IAPDUHandlerEEUlRSE_jE_E7ForeachERNS_8IVisitorIS3_EE, %function
_ZNK8opendnp318BufferedCollectionINS_7IndexedINS_7CounterEEEZNS_16CountIndexParser13InvokeCountOfINS_11Group22Var1EEEvRKNS_12HeaderRecordEtRKNS_9NumParserERKN7openpal6RSliceERNS_12IAPDUHandlerEEUlRSE_jE_E7ForeachERNS_8IVisitorIS3_EE:
	.fnstart
.LFB3909:
	@ args = 0, pretend = 0, frame = 40
	@ frame_needed = 0, uses_anonymous_args = 0
	push	{r4, r5, r6, r7, r8, r9, r10, lr}
	.save {r4, r5, r6, r7, r8, r9, r10, lr}
	mov	r6, r0
	ldr	r3, [r0, #12]
	mov	r8, r1
	ldmib	r0, {r0, r1}
	.pad #40
	sub	sp, sp, #40
	cmp	r3, #0
	stm	sp, {r0, r1}
	beq	.L318
	mov	r4, #0
	mov	r7, sp
	mov	r10, r4
	add	r5, sp, #8
.L321:
	ldr	r3, [r8]
	mov	r0, r5
	add	r4, r4, #1
	ldr	r9, [r3]
	bl	_ZN8opendnp37CounterC1Ev(PLT)
	mov	r1, r7
	ldr	r0, [r6, #16]
	strh	r10, [sp, #32]	@ movhi
	bl	_ZNK8opendnp39NumParser7ReadNumERN7openpal6RSliceE(PLT)
	mov	r1, r5
	strh	r0, [sp, #32]	@ movhi
	mov	r0, r7
	bl	_ZN8opendnp311Group22Var110ReadTargetERN7openpal6RSliceERNS_7CounterE(PLT)
	mov	r1, r5
	mov	r0, r8
	blx	r9
	ldr	r3, [r6, #12]
	cmp	r3, r4
	bhi	.L321
.L318:
	add	sp, sp, #40
	@ sp needed
	pop	{r4, r5, r6, r7, r8, r9, r10, pc}
	.fnend
	.size	_ZNK8opendnp318BufferedCollectionINS_7IndexedINS_7CounterEEEZNS_16CountIndexParser13InvokeCountOfINS_11Group22Var1EEEvRKNS_12HeaderRecordEtRKNS_9NumParserERKN7openpal6RSliceERNS_12IAPDUHandlerEEUlRSE_jE_E7ForeachERNS_8IVisitorIS3_EE, .-_ZNK8opendnp318BufferedCollectionINS_7IndexedINS_7CounterEEEZNS_16CountIndexParser13InvokeCountOfINS_11Group22Var1EEEvRKNS_12HeaderRecordEtRKNS_9NumParserERKN7openpal6RSliceERNS_12IAPDUHandlerEEUlRSE_jE_E7ForeachERNS_8IVisitorIS3_EE
	.section	.text._ZNK8opendnp318BufferedCollectionINS_7IndexedINS_7CounterEEEZNS_16CountIndexParser13InvokeCountOfINS_11Group22Var2EEEvRKNS_12HeaderRecordEtRKNS_9NumParserERKN7openpal6RSliceERNS_12IAPDUHandlerEEUlRSE_jE_E7ForeachERNS_8IVisitorIS3_EE,"axG",%progbits,_ZNK8opendnp318BufferedCollectionINS_7IndexedINS_7CounterEEEZNS_16CountIndexParser13InvokeCountOfINS_11Group22Var2EEEvRKNS_12HeaderRecordEtRKNS_9NumParserERKN7openpal6RSliceERNS_12IAPDUHandlerEEUlRSE_jE_E7ForeachERNS_8IVisitorIS3_EE,comdat
	.align	2
	.weak	_ZNK8opendnp318BufferedCollectionINS_7IndexedINS_7CounterEEEZNS_16CountIndexParser13InvokeCountOfINS_11Group22Var2EEEvRKNS_12HeaderRecordEtRKNS_9NumParserERKN7openpal6RSliceERNS_12IAPDUHandlerEEUlRSE_jE_E7ForeachERNS_8IVisitorIS3_EE
	.syntax unified
	.arm
	.fpu vfp
	.type	_ZNK8opendnp318BufferedCollectionINS_7IndexedINS_7CounterEEEZNS_16CountIndexParser13InvokeCountOfINS_11Group22Var2EEEvRKNS_12HeaderRecordEtRKNS_9NumParserERKN7openpal6RSliceERNS_12IAPDUHandlerEEUlRSE_jE_E7ForeachERNS_8IVisitorIS3_EE, %function
_ZNK8opendnp318BufferedCollectionINS_7IndexedINS_7CounterEEEZNS_16CountIndexParser13InvokeCountOfINS_11Group22Var2EEEvRKNS_12HeaderRecordEtRKNS_9NumParserERKN7openpal6RSliceERNS_12IAPDUHandlerEEUlRSE_jE_E7ForeachERNS_8IVisitorIS3_EE:
	.fnstart
.LFB3907:
	@ args = 0, pretend = 0, frame = 40
	@ frame_needed = 0, uses_anonymous_args = 0
	push	{r4, r5, r6, r7, r8, r9, r10, lr}
	.save {r4, r5, r6, r7, r8, r9, r10, lr}
	mov	r6, r0
	ldr	r3, [r0, #12]
	mov	r8, r1
	ldmib	r0, {r0, r1}
	.pad #40
	sub	sp, sp, #40
	cmp	r3, #0
	stm	sp, {r0, r1}
	beq	.L323
	mov	r4, #0
	mov	r7, sp
	mov	r10, r4
	add	r5, sp, #8
.L326:
	ldr	r3, [r8]
	mov	r0, r5
	add	r4, r4, #1
	ldr	r9, [r3]
	bl	_ZN8opendnp37CounterC1Ev(PLT)
	mov	r1, r7
	ldr	r0, [r6, #16]
	strh	r10, [sp, #32]	@ movhi
	bl	_ZNK8opendnp39NumParser7ReadNumERN7openpal6RSliceE(PLT)
	mov	r1, r5
	strh	r0, [sp, #32]	@ movhi
	mov	r0, r7
	bl	_ZN8opendnp311Group22Var210ReadTargetERN7openpal6RSliceERNS_7CounterE(PLT)
	mov	r1, r5
	mov	r0, r8
	blx	r9
	ldr	r3, [r6, #12]
	cmp	r3, r4
	bhi	.L326
.L323:
	add	sp, sp, #40
	@ sp needed
	pop	{r4, r5, r6, r7, r8, r9, r10, pc}
	.fnend
	.size	_ZNK8opendnp318BufferedCollectionINS_7IndexedINS_7CounterEEEZNS_16CountIndexParser13InvokeCountOfINS_11Group22Var2EEEvRKNS_12HeaderRecordEtRKNS_9NumParserERKN7openpal6RSliceERNS_12IAPDUHandlerEEUlRSE_jE_E7ForeachERNS_8IVisitorIS3_EE, .-_ZNK8opendnp318BufferedCollectionINS_7IndexedINS_7CounterEEEZNS_16CountIndexParser13InvokeCountOfINS_11Group22Var2EEEvRKNS_12HeaderRecordEtRKNS_9NumParserERKN7openpal6RSliceERNS_12IAPDUHandlerEEUlRSE_jE_E7ForeachERNS_8IVisitorIS3_EE
	.section	.text._ZNK8opendnp318BufferedCollectionINS_7IndexedINS_7CounterEEEZNS_16CountIndexParser13InvokeCountOfINS_11Group22Var5EEEvRKNS_12HeaderRecordEtRKNS_9NumParserERKN7openpal6RSliceERNS_12IAPDUHandlerEEUlRSE_jE_E7ForeachERNS_8IVisitorIS3_EE,"axG",%progbits,_ZNK8opendnp318BufferedCollectionINS_7IndexedINS_7CounterEEEZNS_16CountIndexParser13InvokeCountOfINS_11Group22Var5EEEvRKNS_12HeaderRecordEtRKNS_9NumParserERKN7openpal6RSliceERNS_12IAPDUHandlerEEUlRSE_jE_E7ForeachERNS_8IVisitorIS3_EE,comdat
	.align	2
	.weak	_ZNK8opendnp318BufferedCollectionINS_7IndexedINS_7CounterEEEZNS_16CountIndexParser13InvokeCountOfINS_11Group22Var5EEEvRKNS_12HeaderRecordEtRKNS_9NumParserERKN7openpal6RSliceERNS_12IAPDUHandlerEEUlRSE_jE_E7ForeachERNS_8IVisitorIS3_EE
	.syntax unified
	.arm
	.fpu vfp
	.type	_ZNK8opendnp318BufferedCollectionINS_7IndexedINS_7CounterEEEZNS_16CountIndexParser13InvokeCountOfINS_11Group22Var5EEEvRKNS_12HeaderRecordEtRKNS_9NumParserERKN7openpal6RSliceERNS_12IAPDUHandlerEEUlRSE_jE_E7ForeachERNS_8IVisitorIS3_EE, %function
_ZNK8opendnp318BufferedCollectionINS_7IndexedINS_7CounterEEEZNS_16CountIndexParser13InvokeCountOfINS_11Group22Var5EEEvRKNS_12HeaderRecordEtRKNS_9NumParserERKN7openpal6RSliceERNS_12IAPDUHandlerEEUlRSE_jE_E7ForeachERNS_8IVisitorIS3_EE:
	.fnstart
.LFB3905:
	@ args = 0, pretend = 0, frame = 40
	@ frame_needed = 0, uses_anonymous_args = 0
	push	{r4, r5, r6, r7, r8, r9, r10, lr}
	.save {r4, r5, r6, r7, r8, r9, r10, lr}
	mov	r6, r0
	ldr	r3, [r0, #12]
	mov	r8, r1
	ldmib	r0, {r0, r1}
	.pad #40
	sub	sp, sp, #40
	cmp	r3, #0
	stm	sp, {r0, r1}
	beq	.L328
	mov	r4, #0
	mov	r7, sp
	mov	r10, r4
	add	r5, sp, #8
.L331:
	ldr	r3, [r8]
	mov	r0, r5
	add	r4, r4, #1
	ldr	r9, [r3]
	bl	_ZN8opendnp37CounterC1Ev(PLT)
	mov	r1, r7
	ldr	r0, [r6, #16]
	strh	r10, [sp, #32]	@ movhi
	bl	_ZNK8opendnp39NumParser7ReadNumERN7openpal6RSliceE(PLT)
	mov	r1, r5
	strh	r0, [sp, #32]	@ movhi
	mov	r0, r7
	bl	_ZN8opendnp311Group22Var510ReadTargetERN7openpal6RSliceERNS_7CounterE(PLT)
	mov	r1, r5
	mov	r0, r8
	blx	r9
	ldr	r3, [r6, #12]
	cmp	r3, r4
	bhi	.L331
.L328:
	add	sp, sp, #40
	@ sp needed
	pop	{r4, r5, r6, r7, r8, r9, r10, pc}
	.fnend
	.size	_ZNK8opendnp318BufferedCollectionINS_7IndexedINS_7CounterEEEZNS_16CountIndexParser13InvokeCountOfINS_11Group22Var5EEEvRKNS_12HeaderRecordEtRKNS_9NumParserERKN7openpal6RSliceERNS_12IAPDUHandlerEEUlRSE_jE_E7ForeachERNS_8IVisitorIS3_EE, .-_ZNK8opendnp318BufferedCollectionINS_7IndexedINS_7CounterEEEZNS_16CountIndexParser13InvokeCountOfINS_11Group22Var5EEEvRKNS_12HeaderRecordEtRKNS_9NumParserERKN7openpal6RSliceERNS_12IAPDUHandlerEEUlRSE_jE_E7ForeachERNS_8IVisitorIS3_EE
	.section	.text._ZNK8opendnp318BufferedCollectionINS_7IndexedINS_7CounterEEEZNS_16CountIndexParser13InvokeCountOfINS_11Group22Var6EEEvRKNS_12HeaderRecordEtRKNS_9NumParserERKN7openpal6RSliceERNS_12IAPDUHandlerEEUlRSE_jE_E7ForeachERNS_8IVisitorIS3_EE,"axG",%progbits,_ZNK8opendnp318BufferedCollectionINS_7IndexedINS_7CounterEEEZNS_16CountIndexParser13InvokeCountOfINS_11Group22Var6EEEvRKNS_12HeaderRecordEtRKNS_9NumParserERKN7openpal6RSliceERNS_12IAPDUHandlerEEUlRSE_jE_E7ForeachERNS_8IVisitorIS3_EE,comdat
	.align	2
	.weak	_ZNK8opendnp318BufferedCollectionINS_7IndexedINS_7CounterEEEZNS_16CountIndexParser13InvokeCountOfINS_11Group22Var6EEEvRKNS_12HeaderRecordEtRKNS_9NumParserERKN7openpal6RSliceERNS_12IAPDUHandlerEEUlRSE_jE_E7ForeachERNS_8IVisitorIS3_EE
	.syntax unified
	.arm
	.fpu vfp
	.type	_ZNK8opendnp318BufferedCollectionINS_7IndexedINS_7CounterEEEZNS_16CountIndexParser13InvokeCountOfINS_11Group22Var6EEEvRKNS_12HeaderRecordEtRKNS_9NumParserERKN7openpal6RSliceERNS_12IAPDUHandlerEEUlRSE_jE_E7ForeachERNS_8IVisitorIS3_EE, %function
_ZNK8opendnp318BufferedCollectionINS_7IndexedINS_7CounterEEEZNS_16CountIndexParser13InvokeCountOfINS_11Group22Var6EEEvRKNS_12HeaderRecordEtRKNS_9NumParserERKN7openpal6RSliceERNS_12IAPDUHandlerEEUlRSE_jE_E7ForeachERNS_8IVisitorIS3_EE:
	.fnstart
.LFB3903:
	@ args = 0, pretend = 0, frame = 40
	@ frame_needed = 0, uses_anonymous_args = 0
	push	{r4, r5, r6, r7, r8, r9, r10, lr}
	.save {r4, r5, r6, r7, r8, r9, r10, lr}
	mov	r6, r0
	ldr	r3, [r0, #12]
	mov	r8, r1
	ldmib	r0, {r0, r1}
	.pad #40
	sub	sp, sp, #40
	cmp	r3, #0
	stm	sp, {r0, r1}
	beq	.L333
	mov	r4, #0
	mov	r7, sp
	mov	r10, r4
	add	r5, sp, #8
.L336:
	ldr	r3, [r8]
	mov	r0, r5
	add	r4, r4, #1
	ldr	r9, [r3]
	bl	_ZN8opendnp37CounterC1Ev(PLT)
	mov	r1, r7
	ldr	r0, [r6, #16]
	strh	r10, [sp, #32]	@ movhi
	bl	_ZNK8opendnp39NumParser7ReadNumERN7openpal6RSliceE(PLT)
	mov	r1, r5
	strh	r0, [sp, #32]	@ movhi
	mov	r0, r7
	bl	_ZN8opendnp311Group22Var610ReadTargetERN7openpal6RSliceERNS_7CounterE(PLT)
	mov	r1, r5
	mov	r0, r8
	blx	r9
	ldr	r3, [r6, #12]
	cmp	r3, r4
	bhi	.L336
.L333:
	add	sp, sp, #40
	@ sp needed
	pop	{r4, r5, r6, r7, r8, r9, r10, pc}
	.fnend
	.size	_ZNK8opendnp318BufferedCollectionINS_7IndexedINS_7CounterEEEZNS_16CountIndexParser13InvokeCountOfINS_11Group22Var6EEEvRKNS_12HeaderRecordEtRKNS_9NumParserERKN7openpal6RSliceERNS_12IAPDUHandlerEEUlRSE_jE_E7ForeachERNS_8IVisitorIS3_EE, .-_ZNK8opendnp318BufferedCollectionINS_7IndexedINS_7CounterEEEZNS_16CountIndexParser13InvokeCountOfINS_11Group22Var6EEEvRKNS_12HeaderRecordEtRKNS_9NumParserERKN7openpal6RSliceERNS_12IAPDUHandlerEEUlRSE_jE_E7ForeachERNS_8IVisitorIS3_EE
	.section	.text._ZNK8opendnp318BufferedCollectionINS_7IndexedINS_13FrozenCounterEEEZNS_16CountIndexParser13InvokeCountOfINS_11Group23Var1EEEvRKNS_12HeaderRecordEtRKNS_9NumParserERKN7openpal6RSliceERNS_12IAPDUHandlerEEUlRSE_jE_E7ForeachERNS_8IVisitorIS3_EE,"axG",%progbits,_ZNK8opendnp318BufferedCollectionINS_7IndexedINS_13FrozenCounterEEEZNS_16CountIndexParser13InvokeCountOfINS_11Group23Var1EEEvRKNS_12HeaderRecordEtRKNS_9NumParserERKN7openpal6RSliceERNS_12IAPDUHandlerEEUlRSE_jE_E7ForeachERNS_8IVisitorIS3_EE,comdat
	.align	2
	.weak	_ZNK8opendnp318BufferedCollectionINS_7IndexedINS_13FrozenCounterEEEZNS_16CountIndexParser13InvokeCountOfINS_11Group23Var1EEEvRKNS_12HeaderRecordEtRKNS_9NumParserERKN7openpal6RSliceERNS_12IAPDUHandlerEEUlRSE_jE_E7ForeachERNS_8IVisitorIS3_EE
	.syntax unified
	.arm
	.fpu vfp
	.type	_ZNK8opendnp318BufferedCollectionINS_7IndexedINS_13FrozenCounterEEEZNS_16CountIndexParser13InvokeCountOfINS_11Group23Var1EEEvRKNS_12HeaderRecordEtRKNS_9NumParserERKN7openpal6RSliceERNS_12IAPDUHandlerEEUlRSE_jE_E7ForeachERNS_8IVisitorIS3_EE, %function
_ZNK8opendnp318BufferedCollectionINS_7IndexedINS_13FrozenCounterEEEZNS_16CountIndexParser13InvokeCountOfINS_11Group23Var1EEEvRKNS_12HeaderRecordEtRKNS_9NumParserERKN7openpal6RSliceERNS_12IAPDUHandlerEEUlRSE_jE_E7ForeachERNS_8IVisitorIS3_EE:
	.fnstart
.LFB3901:
	@ args = 0, pretend = 0, frame = 40
	@ frame_needed = 0, uses_anonymous_args = 0
	push	{r4, r5, r6, r7, r8, r9, r10, lr}
	.save {r4, r5, r6, r7, r8, r9, r10, lr}
	mov	r6, r0
	ldr	r3, [r0, #12]
	mov	r8, r1
	ldmib	r0, {r0, r1}
	.pad #40
	sub	sp, sp, #40
	cmp	r3, #0
	stm	sp, {r0, r1}
	beq	.L338
	mov	r4, #0
	mov	r7, sp
	mov	r10, r4
	add	r5, sp, #8
.L341:
	ldr	r3, [r8]
	mov	r0, r5
	add	r4, r4, #1
	ldr	r9, [r3]
	bl	_ZN8opendnp313FrozenCounterC1Ev(PLT)
	mov	r1, r7
	ldr	r0, [r6, #16]
	strh	r10, [sp, #32]	@ movhi
	bl	_ZNK8opendnp39NumParser7ReadNumERN7openpal6RSliceE(PLT)
	mov	r1, r5
	strh	r0, [sp, #32]	@ movhi
	mov	r0, r7
	bl	_ZN8opendnp311Group23Var110ReadTargetERN7openpal6RSliceERNS_13FrozenCounterE(PLT)
	mov	r1, r5
	mov	r0, r8
	blx	r9
	ldr	r3, [r6, #12]
	cmp	r3, r4
	bhi	.L341
.L338:
	add	sp, sp, #40
	@ sp needed
	pop	{r4, r5, r6, r7, r8, r9, r10, pc}
	.fnend
	.size	_ZNK8opendnp318BufferedCollectionINS_7IndexedINS_13FrozenCounterEEEZNS_16CountIndexParser13InvokeCountOfINS_11Group23Var1EEEvRKNS_12HeaderRecordEtRKNS_9NumParserERKN7openpal6RSliceERNS_12IAPDUHandlerEEUlRSE_jE_E7ForeachERNS_8IVisitorIS3_EE, .-_ZNK8opendnp318BufferedCollectionINS_7IndexedINS_13FrozenCounterEEEZNS_16CountIndexParser13InvokeCountOfINS_11Group23Var1EEEvRKNS_12HeaderRecordEtRKNS_9NumParserERKN7openpal6RSliceERNS_12IAPDUHandlerEEUlRSE_jE_E7ForeachERNS_8IVisitorIS3_EE
	.section	.text._ZNK8opendnp318BufferedCollectionINS_7IndexedINS_13FrozenCounterEEEZNS_16CountIndexParser13InvokeCountOfINS_11Group23Var2EEEvRKNS_12HeaderRecordEtRKNS_9NumParserERKN7openpal6RSliceERNS_12IAPDUHandlerEEUlRSE_jE_E7ForeachERNS_8IVisitorIS3_EE,"axG",%progbits,_ZNK8opendnp318BufferedCollectionINS_7IndexedINS_13FrozenCounterEEEZNS_16CountIndexParser13InvokeCountOfINS_11Group23Var2EEEvRKNS_12HeaderRecordEtRKNS_9NumParserERKN7openpal6RSliceERNS_12IAPDUHandlerEEUlRSE_jE_E7ForeachERNS_8IVisitorIS3_EE,comdat
	.align	2
	.weak	_ZNK8opendnp318BufferedCollectionINS_7IndexedINS_13FrozenCounterEEEZNS_16CountIndexParser13InvokeCountOfINS_11Group23Var2EEEvRKNS_12HeaderRecordEtRKNS_9NumParserERKN7openpal6RSliceERNS_12IAPDUHandlerEEUlRSE_jE_E7ForeachERNS_8IVisitorIS3_EE
	.syntax unified
	.arm
	.fpu vfp
	.type	_ZNK8opendnp318BufferedCollectionINS_7IndexedINS_13FrozenCounterEEEZNS_16CountIndexParser13InvokeCountOfINS_11Group23Var2EEEvRKNS_12HeaderRecordEtRKNS_9NumParserERKN7openpal6RSliceERNS_12IAPDUHandlerEEUlRSE_jE_E7ForeachERNS_8IVisitorIS3_EE, %function
_ZNK8opendnp318BufferedCollectionINS_7IndexedINS_13FrozenCounterEEEZNS_16CountIndexParser13InvokeCountOfINS_11Group23Var2EEEvRKNS_12HeaderRecordEtRKNS_9NumParserERKN7openpal6RSliceERNS_12IAPDUHandlerEEUlRSE_jE_E7ForeachERNS_8IVisitorIS3_EE:
	.fnstart
.LFB3899:
	@ args = 0, pretend = 0, frame = 40
	@ frame_needed = 0, uses_anonymous_args = 0
	push	{r4, r5, r6, r7, r8, r9, r10, lr}
	.save {r4, r5, r6, r7, r8, r9, r10, lr}
	mov	r6, r0
	ldr	r3, [r0, #12]
	mov	r8, r1
	ldmib	r0, {r0, r1}
	.pad #40
	sub	sp, sp, #40
	cmp	r3, #0
	stm	sp, {r0, r1}
	beq	.L343
	mov	r4, #0
	mov	r7, sp
	mov	r10, r4
	add	r5, sp, #8
.L346:
	ldr	r3, [r8]
	mov	r0, r5
	add	r4, r4, #1
	ldr	r9, [r3]
	bl	_ZN8opendnp313FrozenCounterC1Ev(PLT)
	mov	r1, r7
	ldr	r0, [r6, #16]
	strh	r10, [sp, #32]	@ movhi
	bl	_ZNK8opendnp39NumParser7ReadNumERN7openpal6RSliceE(PLT)
	mov	r1, r5
	strh	r0, [sp, #32]	@ movhi
	mov	r0, r7
	bl	_ZN8opendnp311Group23Var210ReadTargetERN7openpal6RSliceERNS_13FrozenCounterE(PLT)
	mov	r1, r5
	mov	r0, r8
	blx	r9
	ldr	r3, [r6, #12]
	cmp	r3, r4
	bhi	.L346
.L343:
	add	sp, sp, #40
	@ sp needed
	pop	{r4, r5, r6, r7, r8, r9, r10, pc}
	.fnend
	.size	_ZNK8opendnp318BufferedCollectionINS_7IndexedINS_13FrozenCounterEEEZNS_16CountIndexParser13InvokeCountOfINS_11Group23Var2EEEvRKNS_12HeaderRecordEtRKNS_9NumParserERKN7openpal6RSliceERNS_12IAPDUHandlerEEUlRSE_jE_E7ForeachERNS_8IVisitorIS3_EE, .-_ZNK8opendnp318BufferedCollectionINS_7IndexedINS_13FrozenCounterEEEZNS_16CountIndexParser13InvokeCountOfINS_11Group23Var2EEEvRKNS_12HeaderRecordEtRKNS_9NumParserERKN7openpal6RSliceERNS_12IAPDUHandlerEEUlRSE_jE_E7ForeachERNS_8IVisitorIS3_EE
	.section	.text._ZNK8opendnp318BufferedCollectionINS_7IndexedINS_13FrozenCounterEEEZNS_16CountIndexParser13InvokeCountOfINS_11Group23Var5EEEvRKNS_12HeaderRecordEtRKNS_9NumParserERKN7openpal6RSliceERNS_12IAPDUHandlerEEUlRSE_jE_E7ForeachERNS_8IVisitorIS3_EE,"axG",%progbits,_ZNK8opendnp318BufferedCollectionINS_7IndexedINS_13FrozenCounterEEEZNS_16CountIndexParser13InvokeCountOfINS_11Group23Var5EEEvRKNS_12HeaderRecordEtRKNS_9NumParserERKN7openpal6RSliceERNS_12IAPDUHandlerEEUlRSE_jE_E7ForeachERNS_8IVisitorIS3_EE,comdat
	.align	2
	.weak	_ZNK8opendnp318BufferedCollectionINS_7IndexedINS_13FrozenCounterEEEZNS_16CountIndexParser13InvokeCountOfINS_11Group23Var5EEEvRKNS_12HeaderRecordEtRKNS_9NumParserERKN7openpal6RSliceERNS_12IAPDUHandlerEEUlRSE_jE_E7ForeachERNS_8IVisitorIS3_EE
	.syntax unified
	.arm
	.fpu vfp
	.type	_ZNK8opendnp318BufferedCollectionINS_7IndexedINS_13FrozenCounterEEEZNS_16CountIndexParser13InvokeCountOfINS_11Group23Var5EEEvRKNS_12HeaderRecordEtRKNS_9NumParserERKN7openpal6RSliceERNS_12IAPDUHandlerEEUlRSE_jE_E7ForeachERNS_8IVisitorIS3_EE, %function
_ZNK8opendnp318BufferedCollectionINS_7IndexedINS_13FrozenCounterEEEZNS_16CountIndexParser13InvokeCountOfINS_11Group23Var5EEEvRKNS_12HeaderRecordEtRKNS_9NumParserERKN7openpal6RSliceERNS_12IAPDUHandlerEEUlRSE_jE_E7ForeachERNS_8IVisitorIS3_EE:
	.fnstart
.LFB3897:
	@ args = 0, pretend = 0, frame = 40
	@ frame_needed = 0, uses_anonymous_args = 0
	push	{r4, r5, r6, r7, r8, r9, r10, lr}
	.save {r4, r5, r6, r7, r8, r9, r10, lr}
	mov	r6, r0
	ldr	r3, [r0, #12]
	mov	r8, r1
	ldmib	r0, {r0, r1}
	.pad #40
	sub	sp, sp, #40
	cmp	r3, #0
	stm	sp, {r0, r1}
	beq	.L348
	mov	r4, #0
	mov	r7, sp
	mov	r10, r4
	add	r5, sp, #8
.L351:
	ldr	r3, [r8]
	mov	r0, r5
	add	r4, r4, #1
	ldr	r9, [r3]
	bl	_ZN8opendnp313FrozenCounterC1Ev(PLT)
	mov	r1, r7
	ldr	r0, [r6, #16]
	strh	r10, [sp, #32]	@ movhi
	bl	_ZNK8opendnp39NumParser7ReadNumERN7openpal6RSliceE(PLT)
	mov	r1, r5
