	.arch armv6
	.eabi_attribute 28, 1
	.eabi_attribute 20, 1
	.eabi_attribute 21, 1
	.eabi_attribute 23, 3
	.eabi_attribute 24, 1
	.eabi_attribute 25, 1
	.eabi_attribute 26, 2
	.eabi_attribute 30, 2
	.eabi_attribute 34, 1
	.eabi_attribute 18, 4
	.file	"Database.cpp"
	.section	.text._ZN8opendnp38Database17GetResponseLoaderEv,"axG",%progbits,_ZN8opendnp38Database17GetResponseLoaderEv,comdat
	.align	2
	.weak	_ZN8opendnp38Database17GetResponseLoaderEv
	.syntax unified
	.arm
	.fpu vfp
	.type	_ZN8opendnp38Database17GetResponseLoaderEv, %function
_ZN8opendnp38Database17GetResponseLoaderEv:
	.fnstart
.LFB372:
	@ args = 0, pretend = 0, frame = 0
	@ frame_needed = 0, uses_anonymous_args = 0
	@ link register save eliminated.
	add	r0, r0, #16
	bx	lr
	.cantunwind
	.fnend
	.size	_ZN8opendnp38Database17GetResponseLoaderEv, .-_ZN8opendnp38Database17GetResponseLoaderEv
	.section	.text._ZN8opendnp38Database17GetStaticSelectorEv,"axG",%progbits,_ZN8opendnp38Database17GetStaticSelectorEv,comdat
	.align	2
	.weak	_ZN8opendnp38Database17GetStaticSelectorEv
	.syntax unified
	.arm
	.fpu vfp
	.type	_ZN8opendnp38Database17GetStaticSelectorEv, %function
_ZN8opendnp38Database17GetStaticSelectorEv:
	.fnstart
.LFB373:
	@ args = 0, pretend = 0, frame = 0
	@ frame_needed = 0, uses_anonymous_args = 0
	@ link register save eliminated.
	add	r0, r0, #12
	bx	lr
	.cantunwind
	.fnend
	.size	_ZN8opendnp38Database17GetStaticSelectorEv, .-_ZN8opendnp38Database17GetStaticSelectorEv
	.section	.text._ZN8opendnp38Database16GetClassAssignerEv,"axG",%progbits,_ZN8opendnp38Database16GetClassAssignerEv,comdat
	.align	2
	.weak	_ZN8opendnp38Database16GetClassAssignerEv
	.syntax unified
	.arm
	.fpu vfp
	.type	_ZN8opendnp38Database16GetClassAssignerEv, %function
_ZN8opendnp38Database16GetClassAssignerEv:
	.fnstart
.LFB374:
	@ args = 0, pretend = 0, frame = 0
	@ frame_needed = 0, uses_anonymous_args = 0
	@ link register save eliminated.
	add	r0, r0, #20
	bx	lr
	.cantunwind
	.fnend
	.size	_ZN8opendnp38Database16GetClassAssignerEv, .-_ZN8opendnp38Database16GetClassAssignerEv
	.section	.text._ZN7openpal5ArrayIN8opendnp34CellINS1_19TimeAndIntervalSpecEEEtED2Ev,"axG",%progbits,_ZN7openpal5ArrayIN8opendnp34CellINS1_19TimeAndIntervalSpecEEEtED5Ev,comdat
	.align	2
	.weak	_ZN7openpal5ArrayIN8opendnp34CellINS1_19TimeAndIntervalSpecEEEtED2Ev
	.syntax unified
	.arm
	.fpu vfp
	.type	_ZN7openpal5ArrayIN8opendnp34CellINS1_19TimeAndIntervalSpecEEEtED2Ev, %function
_ZN7openpal5ArrayIN8opendnp34CellINS1_19TimeAndIntervalSpecEEEtED2Ev:
	.fnstart
.LFB2625:
	@ args = 0, pretend = 0, frame = 0
	@ frame_needed = 0, uses_anonymous_args = 0
	ldr	r3, .L11
	ldr	r2, .L11+4
.LPIC0:
	add	r3, pc, r3
	push	{r4, lr}
	mov	r4, r0
	ldr	r3, [r3, r2]
	ldr	r0, [r0, #8]
	add	r3, r3, #8
	cmp	r0, #0
	str	r3, [r4]
	beq	.L5
	bl	_ZdaPv(PLT)
.L5:
	mov	r0, r4
	pop	{r4, pc}
.L12:
	.align	2
.L11:
	.word	_GLOBAL_OFFSET_TABLE_-(.LPIC0+8)
	.word	_ZTVN7openpal5ArrayIN8opendnp34CellINS1_19TimeAndIntervalSpecEEEtEE(GOT)
	.cantunwind
	.fnend
	.size	_ZN7openpal5ArrayIN8opendnp34CellINS1_19TimeAndIntervalSpecEEEtED2Ev, .-_ZN7openpal5ArrayIN8opendnp34CellINS1_19TimeAndIntervalSpecEEEtED2Ev
	.weak	_ZN7openpal5ArrayIN8opendnp34CellINS1_19TimeAndIntervalSpecEEEtED1Ev
	.set	_ZN7openpal5ArrayIN8opendnp34CellINS1_19TimeAndIntervalSpecEEEtED1Ev,_ZN7openpal5ArrayIN8opendnp34CellINS1_19TimeAndIntervalSpecEEEtED2Ev
	.section	.text._ZN7openpal5ArrayIN8opendnp34CellINS1_19TimeAndIntervalSpecEEEtED0Ev,"axG",%progbits,_ZN7openpal5ArrayIN8opendnp34CellINS1_19TimeAndIntervalSpecEEEtED5Ev,comdat
	.align	2
	.weak	_ZN7openpal5ArrayIN8opendnp34CellINS1_19TimeAndIntervalSpecEEEtED0Ev
	.syntax unified
	.arm
	.fpu vfp
	.type	_ZN7openpal5ArrayIN8opendnp34CellINS1_19TimeAndIntervalSpecEEEtED0Ev, %function
_ZN7openpal5ArrayIN8opendnp34CellINS1_19TimeAndIntervalSpecEEEtED0Ev:
	.fnstart
.LFB2627:
	@ args = 0, pretend = 0, frame = 0
	@ frame_needed = 0, uses_anonymous_args = 0
	ldr	r3, .L19
	ldr	r2, .L19+4
.LPIC1:
	add	r3, pc, r3
	push	{r4, lr}
	mov	r4, r0
	ldr	r3, [r3, r2]
	ldr	r0, [r0, #8]
	add	r3, r3, #8
	cmp	r0, #0
	str	r3, [r4]
	beq	.L14
	bl	_ZdaPv(PLT)
.L14:
	mov	r0, r4
	mov	r1, #12
	bl	_ZdlPvj(PLT)
	mov	r0, r4
	pop	{r4, pc}
.L20:
	.align	2
.L19:
	.word	_GLOBAL_OFFSET_TABLE_-(.LPIC1+8)
	.word	_ZTVN7openpal5ArrayIN8opendnp34CellINS1_19TimeAndIntervalSpecEEEtEE(GOT)
	.cantunwind
	.fnend
	.size	_ZN7openpal5ArrayIN8opendnp34CellINS1_19TimeAndIntervalSpecEEEtED0Ev, .-_ZN7openpal5ArrayIN8opendnp34CellINS1_19TimeAndIntervalSpecEEEtED0Ev
	.section	.text._ZN7openpal5ArrayIN8opendnp34CellINS1_22AnalogOutputStatusSpecEEEtED2Ev,"axG",%progbits,_ZN7openpal5ArrayIN8opendnp34CellINS1_22AnalogOutputStatusSpecEEEtED5Ev,comdat
	.align	2
	.weak	_ZN7openpal5ArrayIN8opendnp34CellINS1_22AnalogOutputStatusSpecEEEtED2Ev
	.syntax unified
	.arm
	.fpu vfp
	.type	_ZN7openpal5ArrayIN8opendnp34CellINS1_22AnalogOutputStatusSpecEEEtED2Ev, %function
_ZN7openpal5ArrayIN8opendnp34CellINS1_22AnalogOutputStatusSpecEEEtED2Ev:
	.fnstart
.LFB2621:
	@ args = 0, pretend = 0, frame = 0
	@ frame_needed = 0, uses_anonymous_args = 0
	ldr	r3, .L27
	ldr	r2, .L27+4
.LPIC2:
	add	r3, pc, r3
	push	{r4, lr}
	mov	r4, r0
	ldr	r3, [r3, r2]
	ldr	r0, [r0, #8]
	add	r3, r3, #8
	cmp	r0, #0
	str	r3, [r4]
	beq	.L22
	bl	_ZdaPv(PLT)
.L22:
	mov	r0, r4
	pop	{r4, pc}
.L28:
	.align	2
.L27:
	.word	_GLOBAL_OFFSET_TABLE_-(.LPIC2+8)
	.word	_ZTVN7openpal5ArrayIN8opendnp34CellINS1_22AnalogOutputStatusSpecEEEtEE(GOT)
	.cantunwind
	.fnend
	.size	_ZN7openpal5ArrayIN8opendnp34CellINS1_22AnalogOutputStatusSpecEEEtED2Ev, .-_ZN7openpal5ArrayIN8opendnp34CellINS1_22AnalogOutputStatusSpecEEEtED2Ev
	.weak	_ZN7openpal5ArrayIN8opendnp34CellINS1_22AnalogOutputStatusSpecEEEtED1Ev
	.set	_ZN7openpal5ArrayIN8opendnp34CellINS1_22AnalogOutputStatusSpecEEEtED1Ev,_ZN7openpal5ArrayIN8opendnp34CellINS1_22AnalogOutputStatusSpecEEEtED2Ev
	.section	.text._ZN7openpal5ArrayIN8opendnp34CellINS1_22AnalogOutputStatusSpecEEEtED0Ev,"axG",%progbits,_ZN7openpal5ArrayIN8opendnp34CellINS1_22AnalogOutputStatusSpecEEEtED5Ev,comdat
	.align	2
	.weak	_ZN7openpal5ArrayIN8opendnp34CellINS1_22AnalogOutputStatusSpecEEEtED0Ev
	.syntax unified
	.arm
	.fpu vfp
	.type	_ZN7openpal5ArrayIN8opendnp34CellINS1_22AnalogOutputStatusSpecEEEtED0Ev, %function
_ZN7openpal5ArrayIN8opendnp34CellINS1_22AnalogOutputStatusSpecEEEtED0Ev:
	.fnstart
.LFB2623:
	@ args = 0, pretend = 0, frame = 0
	@ frame_needed = 0, uses_anonymous_args = 0
	ldr	r3, .L35
	ldr	r2, .L35+4
.LPIC3:
	add	r3, pc, r3
	push	{r4, lr}
	mov	r4, r0
	ldr	r3, [r3, r2]
	ldr	r0, [r0, #8]
	add	r3, r3, #8
	cmp	r0, #0
	str	r3, [r4]
	beq	.L30
	bl	_ZdaPv(PLT)
.L30:
	mov	r0, r4
	mov	r1, #12
	bl	_ZdlPvj(PLT)
	mov	r0, r4
	pop	{r4, pc}
.L36:
	.align	2
.L35:
	.word	_GLOBAL_OFFSET_TABLE_-(.LPIC3+8)
	.word	_ZTVN7openpal5ArrayIN8opendnp34CellINS1_22AnalogOutputStatusSpecEEEtEE(GOT)
	.cantunwind
	.fnend
	.size	_ZN7openpal5ArrayIN8opendnp34CellINS1_22AnalogOutputStatusSpecEEEtED0Ev, .-_ZN7openpal5ArrayIN8opendnp34CellINS1_22AnalogOutputStatusSpecEEEtED0Ev
	.section	.text._ZN7openpal5ArrayIN8opendnp34CellINS1_22BinaryOutputStatusSpecEEEtED2Ev,"axG",%progbits,_ZN7openpal5ArrayIN8opendnp34CellINS1_22BinaryOutputStatusSpecEEEtED5Ev,comdat
	.align	2
	.weak	_ZN7openpal5ArrayIN8opendnp34CellINS1_22BinaryOutputStatusSpecEEEtED2Ev
	.syntax unified
	.arm
	.fpu vfp
	.type	_ZN7openpal5ArrayIN8opendnp34CellINS1_22BinaryOutputStatusSpecEEEtED2Ev, %function
_ZN7openpal5ArrayIN8opendnp34CellINS1_22BinaryOutputStatusSpecEEEtED2Ev:
	.fnstart
.LFB2617:
	@ args = 0, pretend = 0, frame = 0
	@ frame_needed = 0, uses_anonymous_args = 0
	ldr	r3, .L43
	ldr	r2, .L43+4
.LPIC4:
	add	r3, pc, r3
	push	{r4, lr}
	mov	r4, r0
	ldr	r3, [r3, r2]
	ldr	r0, [r0, #8]
	add	r3, r3, #8
	cmp	r0, #0
	str	r3, [r4]
	beq	.L38
	bl	_ZdaPv(PLT)
.L38:
	mov	r0, r4
	pop	{r4, pc}
.L44:
	.align	2
.L43:
	.word	_GLOBAL_OFFSET_TABLE_-(.LPIC4+8)
	.word	_ZTVN7openpal5ArrayIN8opendnp34CellINS1_22BinaryOutputStatusSpecEEEtEE(GOT)
	.cantunwind
	.fnend
	.size	_ZN7openpal5ArrayIN8opendnp34CellINS1_22BinaryOutputStatusSpecEEEtED2Ev, .-_ZN7openpal5ArrayIN8opendnp34CellINS1_22BinaryOutputStatusSpecEEEtED2Ev
	.weak	_ZN7openpal5ArrayIN8opendnp34CellINS1_22BinaryOutputStatusSpecEEEtED1Ev
	.set	_ZN7openpal5ArrayIN8opendnp34CellINS1_22BinaryOutputStatusSpecEEEtED1Ev,_ZN7openpal5ArrayIN8opendnp34CellINS1_22BinaryOutputStatusSpecEEEtED2Ev
	.section	.text._ZN7openpal5ArrayIN8opendnp34CellINS1_22BinaryOutputStatusSpecEEEtED0Ev,"axG",%progbits,_ZN7openpal5ArrayIN8opendnp34CellINS1_22BinaryOutputStatusSpecEEEtED5Ev,comdat
	.align	2
	.weak	_ZN7openpal5ArrayIN8opendnp34CellINS1_22BinaryOutputStatusSpecEEEtED0Ev
	.syntax unified
	.arm
	.fpu vfp
	.type	_ZN7openpal5ArrayIN8opendnp34CellINS1_22BinaryOutputStatusSpecEEEtED0Ev, %function
_ZN7openpal5ArrayIN8opendnp34CellINS1_22BinaryOutputStatusSpecEEEtED0Ev:
	.fnstart
.LFB2619:
	@ args = 0, pretend = 0, frame = 0
	@ frame_needed = 0, uses_anonymous_args = 0
	ldr	r3, .L51
	ldr	r2, .L51+4
.LPIC5:
	add	r3, pc, r3
	push	{r4, lr}
	mov	r4, r0
	ldr	r3, [r3, r2]
	ldr	r0, [r0, #8]
	add	r3, r3, #8
	cmp	r0, #0
	str	r3, [r4]
	beq	.L46
	bl	_ZdaPv(PLT)
.L46:
	mov	r0, r4
	mov	r1, #12
	bl	_ZdlPvj(PLT)
	mov	r0, r4
	pop	{r4, pc}
.L52:
	.align	2
.L51:
	.word	_GLOBAL_OFFSET_TABLE_-(.LPIC5+8)
	.word	_ZTVN7openpal5ArrayIN8opendnp34CellINS1_22BinaryOutputStatusSpecEEEtEE(GOT)
	.cantunwind
	.fnend
	.size	_ZN7openpal5ArrayIN8opendnp34CellINS1_22BinaryOutputStatusSpecEEEtED0Ev, .-_ZN7openpal5ArrayIN8opendnp34CellINS1_22BinaryOutputStatusSpecEEEtED0Ev
	.section	.text._ZN7openpal5ArrayIN8opendnp34CellINS1_17FrozenCounterSpecEEEtED2Ev,"axG",%progbits,_ZN7openpal5ArrayIN8opendnp34CellINS1_17FrozenCounterSpecEEEtED5Ev,comdat
	.align	2
	.weak	_ZN7openpal5ArrayIN8opendnp34CellINS1_17FrozenCounterSpecEEEtED2Ev
	.syntax unified
	.arm
	.fpu vfp
	.type	_ZN7openpal5ArrayIN8opendnp34CellINS1_17FrozenCounterSpecEEEtED2Ev, %function
_ZN7openpal5ArrayIN8opendnp34CellINS1_17FrozenCounterSpecEEEtED2Ev:
	.fnstart
.LFB2613:
	@ args = 0, pretend = 0, frame = 0
	@ frame_needed = 0, uses_anonymous_args = 0
	ldr	r3, .L59
	ldr	r2, .L59+4
.LPIC6:
	add	r3, pc, r3
	push	{r4, lr}
	mov	r4, r0
	ldr	r3, [r3, r2]
	ldr	r0, [r0, #8]
	add	r3, r3, #8
	cmp	r0, #0
	str	r3, [r4]
	beq	.L54
	bl	_ZdaPv(PLT)
.L54:
	mov	r0, r4
	pop	{r4, pc}
.L60:
	.align	2
.L59:
	.word	_GLOBAL_OFFSET_TABLE_-(.LPIC6+8)
	.word	_ZTVN7openpal5ArrayIN8opendnp34CellINS1_17FrozenCounterSpecEEEtEE(GOT)
	.cantunwind
	.fnend
	.size	_ZN7openpal5ArrayIN8opendnp34CellINS1_17FrozenCounterSpecEEEtED2Ev, .-_ZN7openpal5ArrayIN8opendnp34CellINS1_17FrozenCounterSpecEEEtED2Ev
	.weak	_ZN7openpal5ArrayIN8opendnp34CellINS1_17FrozenCounterSpecEEEtED1Ev
	.set	_ZN7openpal5ArrayIN8opendnp34CellINS1_17FrozenCounterSpecEEEtED1Ev,_ZN7openpal5ArrayIN8opendnp34CellINS1_17FrozenCounterSpecEEEtED2Ev
	.section	.text._ZN7openpal5ArrayIN8opendnp34CellINS1_17FrozenCounterSpecEEEtED0Ev,"axG",%progbits,_ZN7openpal5ArrayIN8opendnp34CellINS1_17FrozenCounterSpecEEEtED5Ev,comdat
	.align	2
	.weak	_ZN7openpal5ArrayIN8opendnp34CellINS1_17FrozenCounterSpecEEEtED0Ev
	.syntax unified
	.arm
	.fpu vfp
	.type	_ZN7openpal5ArrayIN8opendnp34CellINS1_17FrozenCounterSpecEEEtED0Ev, %function
_ZN7openpal5ArrayIN8opendnp34CellINS1_17FrozenCounterSpecEEEtED0Ev:
	.fnstart
.LFB2615:
	@ args = 0, pretend = 0, frame = 0
	@ frame_needed = 0, uses_anonymous_args = 0
	ldr	r3, .L67
	ldr	r2, .L67+4
.LPIC7:
	add	r3, pc, r3
	push	{r4, lr}
	mov	r4, r0
	ldr	r3, [r3, r2]
	ldr	r0, [r0, #8]
	add	r3, r3, #8
	cmp	r0, #0
	str	r3, [r4]
	beq	.L62
	bl	_ZdaPv(PLT)
.L62:
	mov	r0, r4
	mov	r1, #12
	bl	_ZdlPvj(PLT)
	mov	r0, r4
	pop	{r4, pc}
.L68:
	.align	2
.L67:
	.word	_GLOBAL_OFFSET_TABLE_-(.LPIC7+8)
	.word	_ZTVN7openpal5ArrayIN8opendnp34CellINS1_17FrozenCounterSpecEEEtEE(GOT)
	.cantunwind
	.fnend
	.size	_ZN7openpal5ArrayIN8opendnp34CellINS1_17FrozenCounterSpecEEEtED0Ev, .-_ZN7openpal5ArrayIN8opendnp34CellINS1_17FrozenCounterSpecEEEtED0Ev
	.section	.text._ZN7openpal5ArrayIN8opendnp34CellINS1_11CounterSpecEEEtED2Ev,"axG",%progbits,_ZN7openpal5ArrayIN8opendnp34CellINS1_11CounterSpecEEEtED5Ev,comdat
	.align	2
	.weak	_ZN7openpal5ArrayIN8opendnp34CellINS1_11CounterSpecEEEtED2Ev
	.syntax unified
	.arm
	.fpu vfp
	.type	_ZN7openpal5ArrayIN8opendnp34CellINS1_11CounterSpecEEEtED2Ev, %function
_ZN7openpal5ArrayIN8opendnp34CellINS1_11CounterSpecEEEtED2Ev:
	.fnstart
.LFB2609:
	@ args = 0, pretend = 0, frame = 0
	@ frame_needed = 0, uses_anonymous_args = 0
	ldr	r3, .L75
	ldr	r2, .L75+4
.LPIC8:
	add	r3, pc, r3
	push	{r4, lr}
	mov	r4, r0
	ldr	r3, [r3, r2]
	ldr	r0, [r0, #8]
	add	r3, r3, #8
	cmp	r0, #0
	str	r3, [r4]
	beq	.L70
	bl	_ZdaPv(PLT)
.L70:
	mov	r0, r4
	pop	{r4, pc}
.L76:
	.align	2
.L75:
	.word	_GLOBAL_OFFSET_TABLE_-(.LPIC8+8)
	.word	_ZTVN7openpal5ArrayIN8opendnp34CellINS1_11CounterSpecEEEtEE(GOT)
	.cantunwind
	.fnend
	.size	_ZN7openpal5ArrayIN8opendnp34CellINS1_11CounterSpecEEEtED2Ev, .-_ZN7openpal5ArrayIN8opendnp34CellINS1_11CounterSpecEEEtED2Ev
	.weak	_ZN7openpal5ArrayIN8opendnp34CellINS1_11CounterSpecEEEtED1Ev
	.set	_ZN7openpal5ArrayIN8opendnp34CellINS1_11CounterSpecEEEtED1Ev,_ZN7openpal5ArrayIN8opendnp34CellINS1_11CounterSpecEEEtED2Ev
	.section	.text._ZN7openpal5ArrayIN8opendnp34CellINS1_11CounterSpecEEEtED0Ev,"axG",%progbits,_ZN7openpal5ArrayIN8opendnp34CellINS1_11CounterSpecEEEtED5Ev,comdat
	.align	2
	.weak	_ZN7openpal5ArrayIN8opendnp34CellINS1_11CounterSpecEEEtED0Ev
	.syntax unified
	.arm
	.fpu vfp
	.type	_ZN7openpal5ArrayIN8opendnp34CellINS1_11CounterSpecEEEtED0Ev, %function
_ZN7openpal5ArrayIN8opendnp34CellINS1_11CounterSpecEEEtED0Ev:
	.fnstart
.LFB2611:
	@ args = 0, pretend = 0, frame = 0
	@ frame_needed = 0, uses_anonymous_args = 0
	ldr	r3, .L83
	ldr	r2, .L83+4
.LPIC9:
	add	r3, pc, r3
	push	{r4, lr}
	mov	r4, r0
	ldr	r3, [r3, r2]
	ldr	r0, [r0, #8]
	add	r3, r3, #8
	cmp	r0, #0
	str	r3, [r4]
	beq	.L78
	bl	_ZdaPv(PLT)
.L78:
	mov	r0, r4
	mov	r1, #12
	bl	_ZdlPvj(PLT)
	mov	r0, r4
	pop	{r4, pc}
.L84:
	.align	2
.L83:
	.word	_GLOBAL_OFFSET_TABLE_-(.LPIC9+8)
	.word	_ZTVN7openpal5ArrayIN8opendnp34CellINS1_11CounterSpecEEEtEE(GOT)
	.cantunwind
	.fnend
	.size	_ZN7openpal5ArrayIN8opendnp34CellINS1_11CounterSpecEEEtED0Ev, .-_ZN7openpal5ArrayIN8opendnp34CellINS1_11CounterSpecEEEtED0Ev
	.section	.text._ZN7openpal5ArrayIN8opendnp34CellINS1_10AnalogSpecEEEtED2Ev,"axG",%progbits,_ZN7openpal5ArrayIN8opendnp34CellINS1_10AnalogSpecEEEtED5Ev,comdat
	.align	2
	.weak	_ZN7openpal5ArrayIN8opendnp34CellINS1_10AnalogSpecEEEtED2Ev
	.syntax unified
	.arm
	.fpu vfp
	.type	_ZN7openpal5ArrayIN8opendnp34CellINS1_10AnalogSpecEEEtED2Ev, %function
_ZN7openpal5ArrayIN8opendnp34CellINS1_10AnalogSpecEEEtED2Ev:
	.fnstart
.LFB2605:
	@ args = 0, pretend = 0, frame = 0
	@ frame_needed = 0, uses_anonymous_args = 0
	ldr	r3, .L91
	ldr	r2, .L91+4
.LPIC10:
	add	r3, pc, r3
	push	{r4, lr}
	mov	r4, r0
	ldr	r3, [r3, r2]
	ldr	r0, [r0, #8]
	add	r3, r3, #8
	cmp	r0, #0
	str	r3, [r4]
	beq	.L86
	bl	_ZdaPv(PLT)
.L86:
	mov	r0, r4
	pop	{r4, pc}
.L92:
	.align	2
.L91:
	.word	_GLOBAL_OFFSET_TABLE_-(.LPIC10+8)
	.word	_ZTVN7openpal5ArrayIN8opendnp34CellINS1_10AnalogSpecEEEtEE(GOT)
	.cantunwind
	.fnend
	.size	_ZN7openpal5ArrayIN8opendnp34CellINS1_10AnalogSpecEEEtED2Ev, .-_ZN7openpal5ArrayIN8opendnp34CellINS1_10AnalogSpecEEEtED2Ev
	.weak	_ZN7openpal5ArrayIN8opendnp34CellINS1_10AnalogSpecEEEtED1Ev
	.set	_ZN7openpal5ArrayIN8opendnp34CellINS1_10AnalogSpecEEEtED1Ev,_ZN7openpal5ArrayIN8opendnp34CellINS1_10AnalogSpecEEEtED2Ev
	.section	.text._ZN7openpal5ArrayIN8opendnp34CellINS1_10AnalogSpecEEEtED0Ev,"axG",%progbits,_ZN7openpal5ArrayIN8opendnp34CellINS1_10AnalogSpecEEEtED5Ev,comdat
	.align	2
	.weak	_ZN7openpal5ArrayIN8opendnp34CellINS1_10AnalogSpecEEEtED0Ev
	.syntax unified
	.arm
	.fpu vfp
	.type	_ZN7openpal5ArrayIN8opendnp34CellINS1_10AnalogSpecEEEtED0Ev, %function
_ZN7openpal5ArrayIN8opendnp34CellINS1_10AnalogSpecEEEtED0Ev:
	.fnstart
.LFB2607:
	@ args = 0, pretend = 0, frame = 0
	@ frame_needed = 0, uses_anonymous_args = 0
	ldr	r3, .L99
	ldr	r2, .L99+4
.LPIC11:
	add	r3, pc, r3
	push	{r4, lr}
	mov	r4, r0
	ldr	r3, [r3, r2]
	ldr	r0, [r0, #8]
	add	r3, r3, #8
	cmp	r0, #0
	str	r3, [r4]
	beq	.L94
	bl	_ZdaPv(PLT)
.L94:
	mov	r0, r4
	mov	r1, #12
	bl	_ZdlPvj(PLT)
	mov	r0, r4
	pop	{r4, pc}
.L100:
	.align	2
.L99:
	.word	_GLOBAL_OFFSET_TABLE_-(.LPIC11+8)
	.word	_ZTVN7openpal5ArrayIN8opendnp34CellINS1_10AnalogSpecEEEtEE(GOT)
	.cantunwind
	.fnend
	.size	_ZN7openpal5ArrayIN8opendnp34CellINS1_10AnalogSpecEEEtED0Ev, .-_ZN7openpal5ArrayIN8opendnp34CellINS1_10AnalogSpecEEEtED0Ev
	.section	.text._ZN7openpal5ArrayIN8opendnp34CellINS1_19DoubleBitBinarySpecEEEtED2Ev,"axG",%progbits,_ZN7openpal5ArrayIN8opendnp34CellINS1_19DoubleBitBinarySpecEEEtED5Ev,comdat
	.align	2
	.weak	_ZN7openpal5ArrayIN8opendnp34CellINS1_19DoubleBitBinarySpecEEEtED2Ev
	.syntax unified
	.arm
	.fpu vfp
	.type	_ZN7openpal5ArrayIN8opendnp34CellINS1_19DoubleBitBinarySpecEEEtED2Ev, %function
_ZN7openpal5ArrayIN8opendnp34CellINS1_19DoubleBitBinarySpecEEEtED2Ev:
	.fnstart
.LFB2601:
	@ args = 0, pretend = 0, frame = 0
	@ frame_needed = 0, uses_anonymous_args = 0
	ldr	r3, .L107
	ldr	r2, .L107+4
.LPIC12:
	add	r3, pc, r3
	push	{r4, lr}
	mov	r4, r0
	ldr	r3, [r3, r2]
	ldr	r0, [r0, #8]
	add	r3, r3, #8
	cmp	r0, #0
	str	r3, [r4]
	beq	.L102
	bl	_ZdaPv(PLT)
.L102:
	mov	r0, r4
	pop	{r4, pc}
.L108:
	.align	2
.L107:
	.word	_GLOBAL_OFFSET_TABLE_-(.LPIC12+8)
	.word	_ZTVN7openpal5ArrayIN8opendnp34CellINS1_19DoubleBitBinarySpecEEEtEE(GOT)
	.cantunwind
	.fnend
	.size	_ZN7openpal5ArrayIN8opendnp34CellINS1_19DoubleBitBinarySpecEEEtED2Ev, .-_ZN7openpal5ArrayIN8opendnp34CellINS1_19DoubleBitBinarySpecEEEtED2Ev
	.weak	_ZN7openpal5ArrayIN8opendnp34CellINS1_19DoubleBitBinarySpecEEEtED1Ev
	.set	_ZN7openpal5ArrayIN8opendnp34CellINS1_19DoubleBitBinarySpecEEEtED1Ev,_ZN7openpal5ArrayIN8opendnp34CellINS1_19DoubleBitBinarySpecEEEtED2Ev
	.section	.text._ZN7openpal5ArrayIN8opendnp34CellINS1_19DoubleBitBinarySpecEEEtED0Ev,"axG",%progbits,_ZN7openpal5ArrayIN8opendnp34CellINS1_19DoubleBitBinarySpecEEEtED5Ev,comdat
	.align	2
	.weak	_ZN7openpal5ArrayIN8opendnp34CellINS1_19DoubleBitBinarySpecEEEtED0Ev
	.syntax unified
	.arm
	.fpu vfp
	.type	_ZN7openpal5ArrayIN8opendnp34CellINS1_19DoubleBitBinarySpecEEEtED0Ev, %function
_ZN7openpal5ArrayIN8opendnp34CellINS1_19DoubleBitBinarySpecEEEtED0Ev:
	.fnstart
.LFB2603:
	@ args = 0, pretend = 0, frame = 0
	@ frame_needed = 0, uses_anonymous_args = 0
	ldr	r3, .L115
	ldr	r2, .L115+4
.LPIC13:
	add	r3, pc, r3
	push	{r4, lr}
	mov	r4, r0
	ldr	r3, [r3, r2]
	ldr	r0, [r0, #8]
	add	r3, r3, #8
	cmp	r0, #0
	str	r3, [r4]
	beq	.L110
	bl	_ZdaPv(PLT)
.L110:
	mov	r0, r4
	mov	r1, #12
	bl	_ZdlPvj(PLT)
	mov	r0, r4
	pop	{r4, pc}
.L116:
	.align	2
.L115:
	.word	_GLOBAL_OFFSET_TABLE_-(.LPIC13+8)
	.word	_ZTVN7openpal5ArrayIN8opendnp34CellINS1_19DoubleBitBinarySpecEEEtEE(GOT)
	.cantunwind
	.fnend
	.size	_ZN7openpal5ArrayIN8opendnp34CellINS1_19DoubleBitBinarySpecEEEtED0Ev, .-_ZN7openpal5ArrayIN8opendnp34CellINS1_19DoubleBitBinarySpecEEEtED0Ev
	.section	.text._ZN7openpal5ArrayIN8opendnp34CellINS1_10BinarySpecEEEtED2Ev,"axG",%progbits,_ZN7openpal5ArrayIN8opendnp34CellINS1_10BinarySpecEEEtED5Ev,comdat
	.align	2
	.weak	_ZN7openpal5ArrayIN8opendnp34CellINS1_10BinarySpecEEEtED2Ev
	.syntax unified
	.arm
	.fpu vfp
	.type	_ZN7openpal5ArrayIN8opendnp34CellINS1_10BinarySpecEEEtED2Ev, %function
_ZN7openpal5ArrayIN8opendnp34CellINS1_10BinarySpecEEEtED2Ev:
	.fnstart
.LFB2597:
	@ args = 0, pretend = 0, frame = 0
	@ frame_needed = 0, uses_anonymous_args = 0
	ldr	r3, .L123
	ldr	r2, .L123+4
.LPIC14:
	add	r3, pc, r3
	push	{r4, lr}
	mov	r4, r0
	ldr	r3, [r3, r2]
	ldr	r0, [r0, #8]
	add	r3, r3, #8
	cmp	r0, #0
	str	r3, [r4]
	beq	.L118
	bl	_ZdaPv(PLT)
.L118:
	mov	r0, r4
	pop	{r4, pc}
.L124:
	.align	2
.L123:
	.word	_GLOBAL_OFFSET_TABLE_-(.LPIC14+8)
	.word	_ZTVN7openpal5ArrayIN8opendnp34CellINS1_10BinarySpecEEEtEE(GOT)
	.cantunwind
	.fnend
	.size	_ZN7openpal5ArrayIN8opendnp34CellINS1_10BinarySpecEEEtED2Ev, .-_ZN7openpal5ArrayIN8opendnp34CellINS1_10BinarySpecEEEtED2Ev
	.weak	_ZN7openpal5ArrayIN8opendnp34CellINS1_10BinarySpecEEEtED1Ev
	.set	_ZN7openpal5ArrayIN8opendnp34CellINS1_10BinarySpecEEEtED1Ev,_ZN7openpal5ArrayIN8opendnp34CellINS1_10BinarySpecEEEtED2Ev
	.section	.text._ZN7openpal5ArrayIN8opendnp34CellINS1_10BinarySpecEEEtED0Ev,"axG",%progbits,_ZN7openpal5ArrayIN8opendnp34CellINS1_10BinarySpecEEEtED5Ev,comdat
	.align	2
	.weak	_ZN7openpal5ArrayIN8opendnp34CellINS1_10BinarySpecEEEtED0Ev
	.syntax unified
	.arm
	.fpu vfp
	.type	_ZN7openpal5ArrayIN8opendnp34CellINS1_10BinarySpecEEEtED0Ev, %function
_ZN7openpal5ArrayIN8opendnp34CellINS1_10BinarySpecEEEtED0Ev:
	.fnstart
.LFB2599:
	@ args = 0, pretend = 0, frame = 0
	@ frame_needed = 0, uses_anonymous_args = 0
	ldr	r3, .L131
	ldr	r2, .L131+4
.LPIC15:
	add	r3, pc, r3
	push	{r4, lr}
	mov	r4, r0
	ldr	r3, [r3, r2]
	ldr	r0, [r0, #8]
	add	r3, r3, #8
	cmp	r0, #0
	str	r3, [r4]
	beq	.L126
	bl	_ZdaPv(PLT)
.L126:
	mov	r0, r4
	mov	r1, #12
	bl	_ZdlPvj(PLT)
	mov	r0, r4
	pop	{r4, pc}
.L132:
	.align	2
.L131:
	.word	_GLOBAL_OFFSET_TABLE_-(.LPIC15+8)
	.word	_ZTVN7openpal5ArrayIN8opendnp34CellINS1_10BinarySpecEEEtEE(GOT)
	.cantunwind
	.fnend
	.size	_ZN7openpal5ArrayIN8opendnp34CellINS1_10BinarySpecEEEtED0Ev, .-_ZN7openpal5ArrayIN8opendnp34CellINS1_10BinarySpecEEEtED0Ev
	.section	.text._ZN8opendnp38DatabaseD0Ev,"axG",%progbits,_ZN8opendnp38DatabaseD5Ev,comdat
	.align	2
	.weak	_ZN8opendnp38DatabaseD0Ev
	.syntax unified
	.arm
	.fpu vfp
	.type	_ZN8opendnp38DatabaseD0Ev, %function
_ZN8opendnp38DatabaseD0Ev:
	.fnstart
.LFB3085:
	@ args = 0, pretend = 0, frame = 0
	@ frame_needed = 0, uses_anonymous_args = 0
	push	{r4, r5, r6, lr}
	mov	r4, r0
	ldr	r5, .L167
	ldr	r2, .L167+4
.LPIC16:
	add	r5, pc, r5
	ldr	r3, .L167+8
	ldr	r1, [r5, r2]
	ldr	r2, .L167+12
	add	r1, r1, #8
	str	r1, [r0]
	ldr	r3, [r5, r3]
	ldr	r0, [r0, #116]
	add	ip, r3, #8
	add	r1, r3, #44
	add	r3, r3, #60
	str	ip, [r4, #12]
	str	r1, [r4, #16]
	str	r3, [r4, #20]
	ldr	r3, [r5, r2]
	cmp	r0, #0
	add	r3, r3, #8
	str	r3, [r4, #108]
	beq	.L134
	bl	_ZdaPv(PLT)
.L134:
	ldr	r3, .L167+16
	ldr	r0, [r4, #104]
	ldr	r3, [r5, r3]
	cmp	r0, #0
	add	r3, r3, #8
	str	r3, [r4, #96]
	beq	.L135
	bl	_ZdaPv(PLT)
.L135:
	ldr	r3, .L167+20
	ldr	r0, [r4, #92]
	ldr	r3, [r5, r3]
	cmp	r0, #0
	add	r3, r3, #8
	str	r3, [r4, #84]
	beq	.L136
	bl	_ZdaPv(PLT)
.L136:
	ldr	r3, .L167+24
	ldr	r0, [r4, #80]
	ldr	r3, [r5, r3]
	cmp	r0, #0
	add	r3, r3, #8
	str	r3, [r4, #72]
	beq	.L137
	bl	_ZdaPv(PLT)
.L137:
	ldr	r3, .L167+28
	ldr	r0, [r4, #68]
	ldr	r3, [r5, r3]
	cmp	r0, #0
	add	r3, r3, #8
	str	r3, [r4, #60]
	beq	.L138
	bl	_ZdaPv(PLT)
.L138:
	ldr	r3, .L167+32
	ldr	r0, [r4, #56]
	ldr	r3, [r5, r3]
	cmp	r0, #0
	add	r3, r3, #8
	str	r3, [r4, #48]
	beq	.L139
	bl	_ZdaPv(PLT)
.L139:
	ldr	r3, .L167+36
	ldr	r0, [r4, #44]
	ldr	r3, [r5, r3]
	cmp	r0, #0
	add	r3, r3, #8
	str	r3, [r4, #36]
	beq	.L140
	bl	_ZdaPv(PLT)
.L140:
	ldr	r3, .L167+40
	ldr	r0, [r4, #32]
	ldr	r3, [r5, r3]
	cmp	r0, #0
	add	r3, r3, #8
	str	r3, [r4, #24]
	beq	.L141
	bl	_ZdaPv(PLT)
.L141:
	mov	r0, r4
	mov	r1, #160
	bl	_ZdlPvj(PLT)
	mov	r0, r4
	pop	{r4, r5, r6, pc}
.L168:
	.align	2
.L167:
	.word	_GLOBAL_OFFSET_TABLE_-(.LPIC16+8)
	.word	_ZTVN8opendnp38DatabaseE(GOT)
	.word	_ZTVN8opendnp315DatabaseBuffersE(GOT)
	.word	_ZTVN7openpal5ArrayIN8opendnp34CellINS1_19TimeAndIntervalSpecEEEtEE(GOT)
	.word	_ZTVN7openpal5ArrayIN8opendnp34CellINS1_22AnalogOutputStatusSpecEEEtEE(GOT)
	.word	_ZTVN7openpal5ArrayIN8opendnp34CellINS1_22BinaryOutputStatusSpecEEEtEE(GOT)
	.word	_ZTVN7openpal5ArrayIN8opendnp34CellINS1_17FrozenCounterSpecEEEtEE(GOT)
	.word	_ZTVN7openpal5ArrayIN8opendnp34CellINS1_11CounterSpecEEEtEE(GOT)
	.word	_ZTVN7openpal5ArrayIN8opendnp34CellINS1_10AnalogSpecEEEtEE(GOT)
	.word	_ZTVN7openpal5ArrayIN8opendnp34CellINS1_19DoubleBitBinarySpecEEEtEE(GOT)
	.word	_ZTVN7openpal5ArrayIN8opendnp34CellINS1_10BinarySpecEEEtEE(GOT)
	.cantunwind
	.fnend
	.size	_ZN8opendnp38DatabaseD0Ev, .-_ZN8opendnp38DatabaseD0Ev
	.text
	.align	2
	.global	_ZN8opendnp38Database6UpdateERKNS_15TimeAndIntervalEt
	.syntax unified
	.arm
	.fpu vfp
	.type	_ZN8opendnp38Database6UpdateERKNS_15TimeAndIntervalEt, %function
_ZN8opendnp38Database6UpdateERKNS_15TimeAndIntervalEt:
	.fnstart
.LFB2349:
	@ args = 0, pretend = 0, frame = 8
	@ frame_needed = 0, uses_anonymous_args = 0
	ldrb	r3, [r0, #8]	@ zero_extendqisi2
	push	{r4, r5, r6, r7, r8, r9, r10, fp, lr}
	.save {r4, r5, r6, r7, r8, r9, r10, fp, lr}
	.pad #12
	sub	sp, sp, #12
	cmp	r3, #0
	mov	r7, r1
	mov	r5, r2
	add	r6, r0, #24
	mov	r8, sp
	bne	.L188
.L171:
	mov	r0, r8
	mov	r1, r6
	bl	_ZN8opendnp313StaticBuffers12GetArrayViewINS_19TimeAndIntervalSpecEEEN7openpal9ArrayViewINS_4CellIT_EEtEEv(PLT)
	ldrh	r3, [sp]
	cmp	r5, r3
	movge	r0, #0
	bge	.L186
	rsb	r5, r5, r5, lsl #3
	ldr	r2, [sp, #4]
	lsl	r5, r5, #3
	ldr	r0, [r7, #4]	@ unaligned
	ldr	ip, [r7]	@ unaligned
	ldr	r1, [r7, #8]	@ unaligned
	add	r3, r2, r5
	str	ip, [r2, r5]	@ unaligned
	str	r0, [r3, #4]	@ unaligned
	str	r1, [r3, #8]	@ unaligned
	ldrb	r2, [r7, #12]	@ zero_extendqisi2
	mov	r0, #1
	strb	r2, [r3, #12]
.L186:
	add	sp, sp, #12
	@ sp needed
	pop	{r4, r5, r6, r7, r8, r9, r10, fp, pc}
.L188:
	mov	r1, r6
	mov	r0, sp
	bl	_ZN8opendnp313StaticBuffers12GetArrayViewINS_19TimeAndIntervalSpecEEEN7openpal9ArrayViewINS_4CellIT_EEtEEv(PLT)
	ldrh	r9, [sp]
	cmp	r9, #0
	beq	.L172
	sub	r9, r9, #1
	mov	r10, #0
	uxth	r9, r9
	mov	r2, r10
	ldr	fp, [sp, #4]
	b	.L173
.L175:
	cmp	r9, #0
	beq	.L172
	uxth	r9, r1
.L176:
	cmp	r2, r9
	mov	r10, r2
	bgt	.L172
.L173:
	sub	r4, r9, r10
	add	r4, r4, r4, lsr #31
	add	r4, r2, r4, asr #1
	uxth	r4, r4
	sub	r1, r4, #1
	rsb	r3, r4, r4, lsl #3
	add	r3, fp, r3, lsl #3
	ldrh	r3, [r3, #16]
	cmp	r5, r3
	beq	.L178
	cmp	r3, r5
	bge	.L175
	bl	_ZN7openpal8MaxValueItEET_v(PLT)
	add	r4, r4, #1
	uxth	r2, r4
	cmp	r0, r10
	bgt	.L176
.L172:
	bl	_ZN7openpal8MaxValueItEET_v(PLT)
	mov	r5, r0
	b	.L171
.L178:
	mov	r5, r4
	b	.L171
	.fnend
	.size	_ZN8opendnp38Database6UpdateERKNS_15TimeAndIntervalEt, .-_ZN8opendnp38Database6UpdateERKNS_15TimeAndIntervalEt
	.align	2
	.syntax unified
	.arm
	.fpu vfp
	.type	_ZN8opendnp38Database11GetRawIndexINS_10BinarySpecEEEtt.part.30, %function
_ZN8opendnp38Database11GetRawIndexINS_10BinarySpecEEEtt.part.30:
	.fnstart
.LFB3130:
	@ args = 0, pretend = 0, frame = 8
	@ frame_needed = 0, uses_anonymous_args = 0
	push	{r4, r5, r6, r7, r8, lr}
	.save {r4, r5, r6, r7, r8, lr}
	.pad #8
	sub	sp, sp, #8
	mov	r7, r1
	add	r1, r0, #24
	mov	r0, sp
	bl	_ZN8opendnp313StaticBuffers12GetArrayViewINS_10BinarySpecEEEN7openpal9ArrayViewINS_4CellIT_EEtEEv(PLT)
	ldrh	r5, [sp]
	cmp	r5, #0
	beq	.L190
	sub	r5, r5, #1
	mov	r6, #0
	uxth	r5, r5
	mov	r2, r6
	ldr	r8, [sp, #4]
	b	.L191
.L193:
	cmp	r5, #0
	beq	.L190
	uxth	r5, r1
.L194:
	cmp	r2, r5
	mov	r6, r2
	bgt	.L190
.L191:
	sub	r4, r5, r6
	add	r4, r4, r4, lsr #31
	add	r4, r2, r4, asr #1
	uxth	r4, r4
	sub	r1, r4, #1
	rsb	r3, r4, r4, lsl #3
	add	r3, r8, r3, lsl #4
	ldrh	r3, [r3, #24]
	cmp	r7, r3
	beq	.L195
	cmp	r3, r7
	bge	.L193
	bl	_ZN7openpal8MaxValueItEET_v(PLT)
	add	r4, r4, #1
	uxth	r2, r4
	cmp	r0, r6
	bgt	.L194
.L190:
	add	sp, sp, #8
	@ sp needed
	pop	{r4, r5, r6, r7, r8, lr}
	b	_ZN7openpal8MaxValueItEET_v(PLT)
.L195:
	mov	r0, r4
	add	sp, sp, #8
	@ sp needed
	pop	{r4, r5, r6, r7, r8, pc}
	.fnend
	.size	_ZN8opendnp38Database11GetRawIndexINS_10BinarySpecEEEtt.part.30, .-_ZN8opendnp38Database11GetRawIndexINS_10BinarySpecEEEtt.part.30
	.align	2
	.syntax unified
	.arm
	.fpu vfp
	.type	_ZN8opendnp38Database11GetRawIndexINS_19DoubleBitBinarySpecEEEtt.part.32, %function
_ZN8opendnp38Database11GetRawIndexINS_19DoubleBitBinarySpecEEEtt.part.32:
	.fnstart
.LFB3132:
	@ args = 0, pretend = 0, frame = 8
	@ frame_needed = 0, uses_anonymous_args = 0
	push	{r4, r5, r6, r7, r8, lr}
	.save {r4, r5, r6, r7, r8, lr}
	.pad #8
	sub	sp, sp, #8
	mov	r7, r1
	add	r1, r0, #24
	mov	r0, sp
	bl	_ZN8opendnp313StaticBuffers12GetArrayViewINS_19DoubleBitBinarySpecEEEN7openpal9ArrayViewINS_4CellIT_EEtEEv(PLT)
	ldrh	r5, [sp]
	cmp	r5, #0
	beq	.L204
	sub	r5, r5, #1
	mov	r6, #0
	uxth	r5, r5
	mov	r2, r6
	ldr	r8, [sp, #4]
	b	.L205
.L207:
	cmp	r5, #0
	beq	.L204
	uxth	r5, r1
.L208:
	cmp	r2, r5
	mov	r6, r2
	bgt	.L204
.L205:
	sub	r4, r5, r6
	add	r4, r4, r4, lsr #31
	add	r4, r2, r4, asr #1
	uxth	r4, r4
	sub	r1, r4, #1
	rsb	r3, r4, r4, lsl #3
	add	r3, r8, r3, lsl #4
	ldrh	r3, [r3, #24]
	cmp	r7, r3
	beq	.L209
	cmp	r3, r7
	bge	.L207
	bl	_ZN7openpal8MaxValueItEET_v(PLT)
	add	r4, r4, #1
	uxth	r2, r4
	cmp	r0, r6
	bgt	.L208
.L204:
	add	sp, sp, #8
	@ sp needed
	pop	{r4, r5, r6, r7, r8, lr}
	b	_ZN7openpal8MaxValueItEET_v(PLT)
.L209:
	mov	r0, r4
	add	sp, sp, #8
	@ sp needed
	pop	{r4, r5, r6, r7, r8, pc}
	.fnend
	.size	_ZN8opendnp38Database11GetRawIndexINS_19DoubleBitBinarySpecEEEtt.part.32, .-_ZN8opendnp38Database11GetRawIndexINS_19DoubleBitBinarySpecEEEtt.part.32
	.align	2
	.syntax unified
	.arm
	.fpu vfp
	.type	_ZN8opendnp38Database11GetRawIndexINS_10AnalogSpecEEEtt.part.34, %function
_ZN8opendnp38Database11GetRawIndexINS_10AnalogSpecEEEtt.part.34:
	.fnstart
.LFB3134:
	@ args = 0, pretend = 0, frame = 8
	@ frame_needed = 0, uses_anonymous_args = 0
	push	{r4, r5, r6, r7, r8, lr}
	.save {r4, r5, r6, r7, r8, lr}
	.pad #8
	sub	sp, sp, #8
	mov	r7, r1
	add	r1, r0, #24
	mov	r0, sp
	bl	_ZN8opendnp313StaticBuffers12GetArrayViewINS_10AnalogSpecEEEN7openpal9ArrayViewINS_4CellIT_EEtEEv(PLT)
	ldrh	r5, [sp]
	cmp	r5, #0
	beq	.L218
	sub	r5, r5, #1
	mov	r6, #0
	uxth	r5, r5
	mov	r2, r6
	ldr	r8, [sp, #4]
	b	.L219
.L221:
	cmp	r5, #0
	beq	.L218
	uxth	r5, r1
.L222:
	cmp	r2, r5
	mov	r6, r2
	bgt	.L218
.L219:
	sub	r4, r5, r6
	add	r4, r4, r4, lsr #31
	add	r4, r2, r4, asr #1
	uxth	r4, r4
	sub	r1, r4, #1
	rsb	r3, r4, r4, lsl #4
	add	r3, r8, r3, lsl #3
	ldrh	r3, [r3, #24]
	cmp	r7, r3
	beq	.L223
	cmp	r3, r7
	bge	.L221
	bl	_ZN7openpal8MaxValueItEET_v(PLT)
	add	r4, r4, #1
	uxth	r2, r4
	cmp	r0, r6
	bgt	.L222
.L218:
	add	sp, sp, #8
	@ sp needed
	pop	{r4, r5, r6, r7, r8, lr}
	b	_ZN7openpal8MaxValueItEET_v(PLT)
.L223:
	mov	r0, r4
	add	sp, sp, #8
	@ sp needed
	pop	{r4, r5, r6, r7, r8, pc}
	.fnend
	.size	_ZN8opendnp38Database11GetRawIndexINS_10AnalogSpecEEEtt.part.34, .-_ZN8opendnp38Database11GetRawIndexINS_10AnalogSpecEEEtt.part.34
	.align	2
	.syntax unified
	.arm
	.fpu vfp
	.type	_ZN8opendnp38Database11GetRawIndexINS_11CounterSpecEEEtt.part.36, %function
_ZN8opendnp38Database11GetRawIndexINS_11CounterSpecEEEtt.part.36:
	.fnstart
.LFB3136:
	@ args = 0, pretend = 0, frame = 8
	@ frame_needed = 0, uses_anonymous_args = 0
	push	{r4, r5, r6, r7, r8, lr}
	.save {r4, r5, r6, r7, r8, lr}
	.pad #8
	sub	sp, sp, #8
	mov	r7, r1
	add	r1, r0, #24
	mov	r0, sp
	bl	_ZN8opendnp313StaticBuffers12GetArrayViewINS_11CounterSpecEEEN7openpal9ArrayViewINS_4CellIT_EEtEEv(PLT)
	ldrh	r5, [sp]
	cmp	r5, #0
	beq	.L232
	sub	r5, r5, #1
	mov	r6, #0
	uxth	r5, r5
	mov	r2, r6
	ldr	r8, [sp, #4]
	b	.L233
.L235:
	cmp	r5, #0
	beq	.L232
	uxth	r5, r1
.L236:
	cmp	r2, r5
	mov	r6, r2
	bgt	.L232
.L233:
	sub	r4, r5, r6
	add	r4, r4, r4, lsr #31
	add	r4, r2, r4, asr #1
	uxth	r4, r4
	sub	r1, r4, #1
	rsb	r3, r4, r4, lsl #4
	add	r3, r8, r3, lsl #3
	ldrh	r3, [r3, #24]
	cmp	r7, r3
	beq	.L237
	cmp	r3, r7
	bge	.L235
	bl	_ZN7openpal8MaxValueItEET_v(PLT)
	add	r4, r4, #1
	uxth	r2, r4
	cmp	r0, r6
	bgt	.L236
.L232:
	add	sp, sp, #8
	@ sp needed
	pop	{r4, r5, r6, r7, r8, lr}
	b	_ZN7openpal8MaxValueItEET_v(PLT)
.L237:
	mov	r0, r4
	add	sp, sp, #8
	@ sp needed
	pop	{r4, r5, r6, r7, r8, pc}
	.fnend
	.size	_ZN8opendnp38Database11GetRawIndexINS_11CounterSpecEEEtt.part.36, .-_ZN8opendnp38Database11GetRawIndexINS_11CounterSpecEEEtt.part.36
	.align	2
	.syntax unified
	.arm
	.fpu vfp
	.type	_ZN8opendnp38Database11GetRawIndexINS_17FrozenCounterSpecEEEtt.part.38, %function
_ZN8opendnp38Database11GetRawIndexINS_17FrozenCounterSpecEEEtt.part.38:
	.fnstart
.LFB3138:
	@ args = 0, pretend = 0, frame = 8
	@ frame_needed = 0, uses_anonymous_args = 0
	push	{r4, r5, r6, r7, r8, lr}
	.save {r4, r5, r6, r7, r8, lr}
	.pad #8
	sub	sp, sp, #8
	mov	r7, r1
	add	r1, r0, #24
	mov	r0, sp
	bl	_ZN8opendnp313StaticBuffers12GetArrayViewINS_17FrozenCounterSpecEEEN7openpal9ArrayViewINS_4CellIT_EEtEEv(PLT)
	ldrh	r5, [sp]
	cmp	r5, #0
	beq	.L246
	sub	r5, r5, #1
	mov	r6, #0
	uxth	r5, r5
	mov	r2, r6
	ldr	r8, [sp, #4]
	b	.L247
.L249:
	cmp	r5, #0
	beq	.L246
	uxth	r5, r1
.L250:
	cmp	r2, r5
	mov	r6, r2
	bgt	.L246
.L247:
	sub	r4, r5, r6
	add	r4, r4, r4, lsr #31
	add	r4, r2, r4, asr #1
	uxth	r4, r4
	sub	r1, r4, #1
	rsb	r3, r4, r4, lsl #4
	add	r3, r8, r3, lsl #3
	ldrh	r3, [r3, #24]
	cmp	r7, r3
	beq	.L251
	cmp	r3, r7
	bge	.L249
	bl	_ZN7openpal8MaxValueItEET_v(PLT)
	add	r4, r4, #1
	uxth	r2, r4
	cmp	r0, r6
	bgt	.L250
.L246:
	add	sp, sp, #8
	@ sp needed
	pop	{r4, r5, r6, r7, r8, lr}
	b	_ZN7openpal8MaxValueItEET_v(PLT)
.L251:
	mov	r0, r4
	add	sp, sp, #8
	@ sp needed
	pop	{r4, r5, r6, r7, r8, pc}
	.fnend
	.size	_ZN8opendnp38Database11GetRawIndexINS_17FrozenCounterSpecEEEtt.part.38, .-_ZN8opendnp38Database11GetRawIndexINS_17FrozenCounterSpecEEEtt.part.38
	.align	2
	.syntax unified
	.arm
	.fpu vfp
	.type	_ZN8opendnp38Database11GetRawIndexINS_22BinaryOutputStatusSpecEEEtt.part.40, %function
_ZN8opendnp38Database11GetRawIndexINS_22BinaryOutputStatusSpecEEEtt.part.40:
	.fnstart
.LFB3140:
	@ args = 0, pretend = 0, frame = 8
	@ frame_needed = 0, uses_anonymous_args = 0
	push	{r4, r5, r6, r7, r8, lr}
	.save {r4, r5, r6, r7, r8, lr}
	.pad #8
	sub	sp, sp, #8
	mov	r7, r1
	add	r1, r0, #24
	mov	r0, sp
	bl	_ZN8opendnp313StaticBuffers12GetArrayViewINS_22BinaryOutputStatusSpecEEEN7openpal9ArrayViewINS_4CellIT_EEtEEv(PLT)
	ldrh	r5, [sp]
	cmp	r5, #0
	beq	.L260
	sub	r5, r5, #1
	mov	r6, #0
	uxth	r5, r5
	mov	r2, r6
	ldr	r8, [sp, #4]
	b	.L261
.L263:
	cmp	r5, #0
	beq	.L260
	uxth	r5, r1
.L264:
	cmp	r2, r5
	mov	r6, r2
	bgt	.L260
.L261:
	sub	r4, r5, r6
	add	r4, r4, r4, lsr #31
	add	r4, r2, r4, asr #1
	uxth	r4, r4
	sub	r1, r4, #1
	rsb	r3, r4, r4, lsl #3
	add	r3, r8, r3, lsl #4
	ldrh	r3, [r3, #24]
	cmp	r7, r3
	beq	.L265
	cmp	r3, r7
	bge	.L263
	bl	_ZN7openpal8MaxValueItEET_v(PLT)
	add	r4, r4, #1
	uxth	r2, r4
	cmp	r0, r6
	bgt	.L264
.L260:
	add	sp, sp, #8
	@ sp needed
	pop	{r4, r5, r6, r7, r8, lr}
	b	_ZN7openpal8MaxValueItEET_v(PLT)
.L265:
	mov	r0, r4
	add	sp, sp, #8
	@ sp needed
	pop	{r4, r5, r6, r7, r8, pc}
	.fnend
	.size	_ZN8opendnp38Database11GetRawIndexINS_22BinaryOutputStatusSpecEEEtt.part.40, .-_ZN8opendnp38Database11GetRawIndexINS_22BinaryOutputStatusSpecEEEtt.part.40
	.align	2
	.syntax unified
	.arm
	.fpu vfp
	.type	_ZN8opendnp38Database11GetRawIndexINS_22AnalogOutputStatusSpecEEEtt.part.42, %function
_ZN8opendnp38Database11GetRawIndexINS_22AnalogOutputStatusSpecEEEtt.part.42:
	.fnstart
.LFB3142:
	@ args = 0, pretend = 0, frame = 8
	@ frame_needed = 0, uses_anonymous_args = 0
	push	{r4, r5, r6, r7, r8, lr}
	.save {r4, r5, r6, r7, r8, lr}
	.pad #8
	sub	sp, sp, #8
	mov	r7, r1
	add	r1, r0, #24
	mov	r0, sp
	bl	_ZN8opendnp313StaticBuffers12GetArrayViewINS_22AnalogOutputStatusSpecEEEN7openpal9ArrayViewINS_4CellIT_EEtEEv(PLT)
	ldrh	r5, [sp]
	cmp	r5, #0
	beq	.L274
	sub	r5, r5, #1
	mov	r6, #0
	uxth	r5, r5
	mov	r2, r6
	ldr	r8, [sp, #4]
	b	.L275
.L277:
	cmp	r5, #0
	beq	.L274
	uxth	r5, r1
.L278:
	cmp	r2, r5
	mov	r6, r2
	bgt	.L274
.L275:
	sub	r4, r5, r6
	add	r4, r4, r4, lsr #31
	add	r4, r2, r4, asr #1
	uxth	r4, r4
	sub	r1, r4, #1
	rsb	r3, r4, r4, lsl #4
	add	r3, r8, r3, lsl #3
	ldrh	r3, [r3, #24]
	cmp	r7, r3
	beq	.L279
	cmp	r3, r7
	bge	.L277
	bl	_ZN7openpal8MaxValueItEET_v(PLT)
	add	r4, r4, #1
	uxth	r2, r4
	cmp	r0, r6
	bgt	.L278
.L274:
	add	sp, sp, #8
	@ sp needed
	pop	{r4, r5, r6, r7, r8, lr}
	b	_ZN7openpal8MaxValueItEET_v(PLT)
.L279:
	mov	r0, r4
	add	sp, sp, #8
	@ sp needed
	pop	{r4, r5, r6, r7, r8, pc}
	.fnend
	.size	_ZN8opendnp38Database11GetRawIndexINS_22AnalogOutputStatusSpecEEEtt.part.42, .-_ZN8opendnp38Database11GetRawIndexINS_22AnalogOutputStatusSpecEEEtt.part.42
	.section	.text._ZN8opendnp38DatabaseD2Ev,"axG",%progbits,_ZN8opendnp38DatabaseD5Ev,comdat
	.align	2
	.weak	_ZN8opendnp38DatabaseD2Ev
	.syntax unified
	.arm
	.fpu vfp
	.type	_ZN8opendnp38DatabaseD2Ev, %function
_ZN8opendnp38DatabaseD2Ev:
	.fnstart
.LFB3083:
	@ args = 0, pretend = 0, frame = 0
	@ frame_needed = 0, uses_anonymous_args = 0
	push	{r4, r5, r6, lr}
	mov	r4, r0
	ldr	r5, .L321
	ldr	r2, .L321+4
.LPIC17:
	add	r5, pc, r5
	ldr	r3, .L321+8
	ldr	r1, [r5, r2]
	ldr	r2, .L321+12
	add	r1, r1, #8
	str	r1, [r0]
	ldr	r3, [r5, r3]
	ldr	r0, [r0, #116]
	add	ip, r3, #8
	add	r1, r3, #44
	add	r3, r3, #60
	str	ip, [r4, #12]
	str	r1, [r4, #16]
	str	r3, [r4, #20]
	ldr	r3, [r5, r2]
	cmp	r0, #0
	add	r3, r3, #8
	str	r3, [r4, #108]
	beq	.L288
	bl	_ZdaPv(PLT)
.L288:
	ldr	r3, .L321+16
	ldr	r0, [r4, #104]
	ldr	r3, [r5, r3]
	cmp	r0, #0
	add	r3, r3, #8
	str	r3, [r4, #96]
	beq	.L289
	bl	_ZdaPv(PLT)
.L289:
	ldr	r3, .L321+20
	ldr	r0, [r4, #92]
	ldr	r3, [r5, r3]
	cmp	r0, #0
	add	r3, r3, #8
	str	r3, [r4, #84]
	beq	.L290
	bl	_ZdaPv(PLT)
.L290:
	ldr	r3, .L321+24
	ldr	r0, [r4, #80]
	ldr	r3, [r5, r3]
	cmp	r0, #0
	add	r3, r3, #8
	str	r3, [r4, #72]
	beq	.L291
	bl	_ZdaPv(PLT)
.L291:
	ldr	r3, .L321+28
	ldr	r0, [r4, #68]
	ldr	r3, [r5, r3]
	cmp	r0, #0
	add	r3, r3, #8
	str	r3, [r4, #60]
	beq	.L292
	bl	_ZdaPv(PLT)
.L292:
	ldr	r3, .L321+32
	ldr	r0, [r4, #56]
	ldr	r3, [r5, r3]
	cmp	r0, #0
	add	r3, r3, #8
	str	r3, [r4, #48]
	beq	.L293
	bl	_ZdaPv(PLT)
.L293:
	ldr	r3, .L321+36
	ldr	r0, [r4, #44]
	ldr	r3, [r5, r3]
	cmp	r0, #0
	add	r3, r3, #8
	str	r3, [r4, #36]
	beq	.L294
	bl	_ZdaPv(PLT)
.L294:
	ldr	r3, .L321+40
	ldr	r0, [r4, #32]
	ldr	r3, [r5, r3]
	cmp	r0, #0
	add	r3, r3, #8
	str	r3, [r4, #24]
	beq	.L295
	bl	_ZdaPv(PLT)
.L295:
	mov	r0, r4
	pop	{r4, r5, r6, pc}
.L322:
	.align	2
.L321:
	.word	_GLOBAL_OFFSET_TABLE_-(.LPIC17+8)
	.word	_ZTVN8opendnp38DatabaseE(GOT)
	.word	_ZTVN8opendnp315DatabaseBuffersE(GOT)
	.word	_ZTVN7openpal5ArrayIN8opendnp34CellINS1_19TimeAndIntervalSpecEEEtEE(GOT)
	.word	_ZTVN7openpal5ArrayIN8opendnp34CellINS1_22AnalogOutputStatusSpecEEEtEE(GOT)
	.word	_ZTVN7openpal5ArrayIN8opendnp34CellINS1_22BinaryOutputStatusSpecEEEtEE(GOT)
	.word	_ZTVN7openpal5ArrayIN8opendnp34CellINS1_17FrozenCounterSpecEEEtEE(GOT)
	.word	_ZTVN7openpal5ArrayIN8opendnp34CellINS1_11CounterSpecEEEtEE(GOT)
	.word	_ZTVN7openpal5ArrayIN8opendnp34CellINS1_10AnalogSpecEEEtEE(GOT)
	.word	_ZTVN7openpal5ArrayIN8opendnp34CellINS1_19DoubleBitBinarySpecEEEtEE(GOT)
	.word	_ZTVN7openpal5ArrayIN8opendnp34CellINS1_10BinarySpecEEEtEE(GOT)
	.cantunwind
	.fnend
	.size	_ZN8opendnp38DatabaseD2Ev, .-_ZN8opendnp38DatabaseD2Ev
	.weak	_ZN8opendnp38DatabaseD1Ev
	.set	_ZN8opendnp38DatabaseD1Ev,_ZN8opendnp38DatabaseD2Ev
	.text
	.align	2
	.global	_ZN8opendnp38DatabaseC2ERKNS_13DatabaseSizesERNS_14IEventReceiverENS_9IndexModeENS_18StaticTypeBitFieldE
	.syntax unified
	.arm
	.fpu vfp
	.type	_ZN8opendnp38DatabaseC2ERKNS_13DatabaseSizesERNS_14IEventReceiverENS_9IndexModeENS_18StaticTypeBitFieldE, %function
_ZN8opendnp38DatabaseC2ERKNS_13DatabaseSizesERNS_14IEventReceiverENS_9IndexModeENS_18StaticTypeBitFieldE:
	.fnstart
.LFB2340:
	@ args = 4, pretend = 0, frame = 0
	@ frame_needed = 0, uses_anonymous_args = 0
	ldr	ip, .L325
	push	{r4, r5, r6, lr}
	.save {r4, r5, r6, lr}
.LPIC18:
	add	ip, pc, ip
	ldr	lr, .L325+4
	mov	r4, r0
	ldrh	r5, [sp, #16]
	ldr	r0, [ip, lr]
	str	r2, [r4, #4]
	add	r0, r0, #8
	str	r0, [r4]
	strb	r3, [r4, #8]
	add	r0, r4, #12
	mov	r2, r5	@ movhi
	bl	_ZN8opendnp315DatabaseBuffersC1ERKNS_13DatabaseSizesENS_18StaticTypeBitFieldENS_9IndexModeE(PLT)
	mov	r0, r4
	pop	{r4, r5, r6, pc}
.L326:
	.align	2
.L325:
	.word	_GLOBAL_OFFSET_TABLE_-(.LPIC18+8)
	.word	_ZTVN8opendnp38DatabaseE(GOT)
	.fnend
	.size	_ZN8opendnp38DatabaseC2ERKNS_13DatabaseSizesERNS_14IEventReceiverENS_9IndexModeENS_18StaticTypeBitFieldE, .-_ZN8opendnp38DatabaseC2ERKNS_13DatabaseSizesERNS_14IEventReceiverENS_9IndexModeENS_18StaticTypeBitFieldE
	.global	_ZN8opendnp38DatabaseC1ERKNS_13DatabaseSizesERNS_14IEventReceiverENS_9IndexModeENS_18StaticTypeBitFieldE
	.set	_ZN8opendnp38DatabaseC1ERKNS_13DatabaseSizesERNS_14IEventReceiverENS_9IndexModeENS_18StaticTypeBitFieldE,_ZN8opendnp38DatabaseC2ERKNS_13DatabaseSizesERNS_14IEventReceiverENS_9IndexModeENS_18StaticTypeBitFieldE
	.align	2
	.global	_ZN8opendnp38Database19ConvertToEventClassENS_10PointClassERNS_10EventClassE
	.syntax unified
	.arm
	.fpu vfp
	.type	_ZN8opendnp38Database19ConvertToEventClassENS_10PointClassERNS_10EventClassE, %function
_ZN8opendnp38Database19ConvertToEventClassENS_10PointClassERNS_10EventClassE:
	.fnstart
.LFB2351:
	@ args = 0, pretend = 0, frame = 0
	@ frame_needed = 0, uses_anonymous_args = 0
	@ link register save eliminated.
	cmp	r0, #4
	beq	.L329
	cmp	r0, #8
	beq	.L330
	cmp	r0, #2
	beq	.L334
	mov	r0, #0
	bx	lr
.L334:
	mov	r3, #0
	strb	r3, [r1]
	mov	r0, #1
	bx	lr
.L330:
	mov	r3, #2
	strb	r3, [r1]
	mov	r0, #1
	bx	lr
.L329:
	mov	r0, #1
	strb	r0, [r1]
	bx	lr
	.cantunwind
	.fnend
	.size	_ZN8opendnp38Database19ConvertToEventClassENS_10PointClassERNS_10EventClassE, .-_ZN8opendnp38Database19ConvertToEventClassENS_10PointClassERNS_10EventClassE
	.align	2
	.global	_ZN8opendnp38Database6UpdateERKNS_6BinaryEtNS_9EventModeE
	.syntax unified
	.arm
	.fpu vfp
	.type	_ZN8opendnp38Database6UpdateERKNS_6BinaryEtNS_9EventModeE, %function
_ZN8opendnp38Database6UpdateERKNS_6BinaryEtNS_9EventModeE:
	.fnstart
.LFB2342:
	@ args = 0, pretend = 0, frame = 56
	@ frame_needed = 0, uses_anonymous_args = 0
	push	{r4, r5, r6, r7, r8, r9, r10, fp, lr}
	.save {r4, r5, r6, r7, r8, r9, r10, fp, lr}
	mov	r5, r1
	ldrb	r1, [r0, #8]	@ zero_extendqisi2
	.pad #60
	sub	sp, sp, #60
	mov	r6, r0
	cmp	r1, #0
	mov	r4, r2
	mov	r8, r3
	bne	.L352
.L336:
	add	r0, sp, #8
	add	r1, r6, #24
	bl	_ZN8opendnp313StaticBuffers12GetArrayViewINS_10BinarySpecEEEN7openpal9ArrayViewINS_4CellIT_EEtEEv(PLT)
	ldrh	r3, [sp, #8]
	cmp	r4, r3
	movge	r0, #0
	blt	.L353
	add	sp, sp, #60
	@ sp needed
	pop	{r4, r5, r6, r7, r8, r9, r10, fp, pc}
.L353:
	rsb	r4, r4, r4, lsl #3
	ldr	r9, [sp, #12]
	lsl	r4, r4, #4
	add	r7, r9, r4
	add	r1, sp, #7
	ldrb	r0, [r7, #27]	@ zero_extendqisi2
	bl	_ZN8opendnp38Database19ConvertToEventClassENS_10PointClassERNS_10EventClassE(PLT)
	cmp	r0, #0
	beq	.L338
	cmp	r8, #0
	beq	.L339
	cmp	r8, #1
	bne	.L338
.L340:
	ldr	ip, [r5]	@ unaligned
	ldr	r0, [r5, #4]	@ unaligned
	ldr	r1, [r5, #8]	@ unaligned
	ldr	r2, [r5, #12]	@ unaligned
	str	ip, [r7, #40]	@ unaligned
	str	r0, [r7, #44]	@ unaligned
	str	r1, [r7, #48]	@ unaligned
	str	r2, [r7, #52]	@ unaligned
	ldrb	r2, [r5, #16]	@ zero_extendqisi2
	ldr	r6, [r6, #4]
	mov	lr, r5
	strb	r2, [r7, #56]
	ldmia	lr!, {r0, r1, r2, r3}
	add	ip, sp, #24
	ldr	r8, [r6]
	ldrh	fp, [r7, #24]
	ldrb	r10, [r7, #28]	@ zero_extendqisi2
	ldr	r8, [r8, #8]
	stmia	ip!, {r0, r1, r2, r3}
	ldm	lr, {r0, r1}
	ldrb	r3, [sp, #7]	@ zero_extendqisi2
	strh	fp, [sp, #16]	@ movhi
	stm	ip, {r0, r1}
	strb	r10, [sp, #48]
	strb	r3, [sp, #18]
	mov	r0, r6
	add	r1, sp, #16
	blx	r8
.L338:
	ldr	r0, [r5]	@ unaligned
	ldr	r3, [r5, #12]	@ unaligned
	ldr	r1, [r5, #4]	@ unaligned
	ldr	r2, [r5, #8]	@ unaligned
	str	r0, [r9, r4]	@ unaligned
	str	r1, [r7, #4]	@ unaligned
	str	r2, [r7, #8]	@ unaligned
	str	r3, [r7, #12]	@ unaligned
	ldrb	r3, [r5, #16]	@ zero_extendqisi2
	mov	r0, #1
	strb	r3, [r7, #16]
	add	sp, sp, #60
	@ sp needed
	pop	{r4, r5, r6, r7, r8, r9, r10, fp, pc}
.L352:
	mov	r1, r2
	bl	_ZN8opendnp38Database11GetRawIndexINS_10BinarySpecEEEtt.part.30(PLT)
	mov	r4, r0
	b	.L336
.L339:
	ldrb	r2, [r7, #40]	@ zero_extendqisi2
	ldrb	r3, [r5]	@ zero_extendqisi2
	cmp	r2, r3
	beq	.L338
	b	.L340
	.fnend
	.size	_ZN8opendnp38Database6UpdateERKNS_6BinaryEtNS_9EventModeE, .-_ZN8opendnp38Database6UpdateERKNS_6BinaryEtNS_9EventModeE
	.align	2
	.global	_ZN8opendnp38Database6UpdateERKNS_15DoubleBitBinaryEtNS_9EventModeE
	.syntax unified
	.arm
	.fpu vfp
	.type	_ZN8opendnp38Database6UpdateERKNS_15DoubleBitBinaryEtNS_9EventModeE, %function
_ZN8opendnp38Database6UpdateERKNS_15DoubleBitBinaryEtNS_9EventModeE:
	.fnstart
.LFB2343:
	@ args = 0, pretend = 0, frame = 56
	@ frame_needed = 0, uses_anonymous_args = 0
	push	{r4, r5, r6, r7, r8, r9, r10, fp, lr}
	.save {r4, r5, r6, r7, r8, r9, r10, fp, lr}
	mov	r5, r1
	ldrb	r1, [r0, #8]	@ zero_extendqisi2
	.pad #60
	sub	sp, sp, #60
	mov	r6, r0
	cmp	r1, #0
	mov	r4, r2
	mov	r8, r3
	bne	.L371
.L355:
	add	r0, sp, #8
	add	r1, r6, #24
	bl	_ZN8opendnp313StaticBuffers12GetArrayViewINS_19DoubleBitBinarySpecEEEN7openpal9ArrayViewINS_4CellIT_EEtEEv(PLT)
	ldrh	r3, [sp, #8]
	cmp	r4, r3
	movge	r0, #0
	blt	.L372
	add	sp, sp, #60
	@ sp needed
	pop	{r4, r5, r6, r7, r8, r9, r10, fp, pc}
.L372:
	rsb	r4, r4, r4, lsl #3
	ldr	r9, [sp, #12]
	lsl	r4, r4, #4
	add	r7, r9, r4
	add	r1, sp, #7
	ldrb	r0, [r7, #27]	@ zero_extendqisi2
	bl	_ZN8opendnp38Database19ConvertToEventClassENS_10PointClassERNS_10EventClassE(PLT)
	cmp	r0, #0
	beq	.L357
	cmp	r8, #0
	beq	.L358
	cmp	r8, #1
	bne	.L357
.L359:
	ldr	ip, [r5]	@ unaligned
	ldr	r0, [r5, #4]	@ unaligned
	ldr	r1, [r5, #8]	@ unaligned
	ldr	r2, [r5, #12]	@ unaligned
	str	ip, [r7, #40]	@ unaligned
	str	r0, [r7, #44]	@ unaligned
	str	r1, [r7, #48]	@ unaligned
	str	r2, [r7, #52]	@ unaligned
	ldrb	r2, [r5, #16]	@ zero_extendqisi2
	ldr	r6, [r6, #4]
	mov	lr, r5
	strb	r2, [r7, #56]
	ldmia	lr!, {r0, r1, r2, r3}
	add	ip, sp, #24
	ldr	r8, [r6]
	ldrh	fp, [r7, #24]
	ldrb	r10, [r7, #28]	@ zero_extendqisi2
	ldr	r8, [r8, #12]
	stmia	ip!, {r0, r1, r2, r3}
	ldm	lr, {r0, r1}
	ldrb	r3, [sp, #7]	@ zero_extendqisi2
	strh	fp, [sp, #16]	@ movhi
	stm	ip, {r0, r1}
	strb	r10, [sp, #48]
	strb	r3, [sp, #18]
	mov	r0, r6
	add	r1, sp, #16
	blx	r8
.L357:
	ldr	r0, [r5]	@ unaligned
	ldr	r3, [r5, #12]	@ unaligned
	ldr	r1, [r5, #4]	@ unaligned
	ldr	r2, [r5, #8]	@ unaligned
	str	r0, [r9, r4]	@ unaligned
	str	r1, [r7, #4]	@ unaligned
	str	r2, [r7, #8]	@ unaligned
	str	r3, [r7, #12]	@ unaligned
	ldrb	r3, [r5, #16]	@ zero_extendqisi2
	mov	r0, #1
	strb	r3, [r7, #16]
	add	sp, sp, #60
	@ sp needed
	pop	{r4, r5, r6, r7, r8, r9, r10, fp, pc}
.L371:
	mov	r1, r2
	bl	_ZN8opendnp38Database11GetRawIndexINS_19DoubleBitBinarySpecEEEtt.part.32(PLT)
	mov	r4, r0
	b	.L355
.L358:
	ldrb	r2, [r7, #40]	@ zero_extendqisi2
	ldrb	r3, [r5]	@ zero_extendqisi2
	cmp	r2, r3
	beq	.L357
	b	.L359
	.fnend
	.size	_ZN8opendnp38Database6UpdateERKNS_15DoubleBitBinaryEtNS_9EventModeE, .-_ZN8opendnp38Database6UpdateERKNS_15DoubleBitBinaryEtNS_9EventModeE
	.align	2
	.global	_ZN8opendnp38Database6UpdateERKNS_6AnalogEtNS_9EventModeE
	.syntax unified
	.arm
	.fpu vfp
	.type	_ZN8opendnp38Database6UpdateERKNS_6AnalogEtNS_9EventModeE, %function
_ZN8opendnp38Database6UpdateERKNS_6AnalogEtNS_9EventModeE:
	.fnstart
.LFB2344:
	@ args = 0, pretend = 0, frame = 56
	@ frame_needed = 0, uses_anonymous_args = 0
	push	{r4, r5, r6, r7, r8, r9, r10, lr}
	.save {r4, r5, r6, r7, r8, r9, r10, lr}
	mov	r5, r1
	ldrb	r1, [r0, #8]	@ zero_extendqisi2
	.pad #56
	sub	sp, sp, #56
	mov	r6, r0
	cmp	r1, #0
	mov	r4, r2
	mov	r7, r3
	bne	.L391
.L374:
	add	r1, r6, #24
	add	r0, sp, #8
	bl	_ZN8opendnp313StaticBuffers12GetArrayViewINS_10AnalogSpecEEEN7openpal9ArrayViewINS_4CellIT_EEtEEv(PLT)
	ldrh	r3, [sp, #8]
	cmp	r4, r3
	movge	r4, #0
	blt	.L392
	mov	r0, r4
	add	sp, sp, #56
	@ sp needed
	pop	{r4, r5, r6, r7, r8, r9, r10, pc}
.L392:
	ldr	lr, [sp, #12]
	rsb	r4, r4, r4, lsl #4
	add	r1, sp, #7
	add	r4, lr, r4, lsl #3
	ldrb	r0, [r4, #27]	@ zero_extendqisi2
	bl	_ZN8opendnp38Database19ConvertToEventClassENS_10PointClassERNS_10EventClassE(PLT)
	cmp	r0, #0
	beq	.L377
	cmp	r7, #0
	beq	.L378
	cmp	r7, #1
	addeq	r7, r4, #48
	bne	.L377
.L379:
	mov	lr, r5
	mov	ip, r7
	ldmia	lr!, {r0, r1, r2, r3}
	mov	r7, r5
	ldr	r8, [r6, #4]
	ldrh	r9, [r4, #24]
	stmia	ip!, {r0, r1, r2, r3}
	add	r6, sp, #24
	ldm	lr, {r0, r1}
	ldr	r10, [r8]
	strh	r9, [sp, #16]	@ movhi
	stm	ip, {r0, r1}
	ldmia	r7!, {r0, r1, r2, r3}
	ldrb	ip, [r4, #28]	@ zero_extendqisi2
	ldr	r7, [r10, #16]
	stmia	r6!, {r0, r1, r2, r3}
	ldm	lr, {r0, r1}
	ldrb	r3, [sp, #7]	@ zero_extendqisi2
	stm	r6, {r0, r1}
	mov	r0, r8
	add	r1, sp, #16
	strb	r3, [sp, #18]
	strb	ip, [sp, #48]
	blx	r7
.L377:
	mov	ip, r5
	mov	lr, r4
	ldmia	ip!, {r0, r1, r2, r3}
	mov	r4, #1
	stmia	lr!, {r0, r1, r2, r3}
	ldm	ip, {r0, r1}
	stm	lr, {r0, r1}
	mov	r0, r4
	add	sp, sp, #56
	@ sp needed
	pop	{r4, r5, r6, r7, r8, r9, r10, pc}
.L391:
	mov	r1, r2
	bl	_ZN8opendnp38Database11GetRawIndexINS_10AnalogSpecEEEtt.part.34(PLT)
	mov	r4, r0
	b	.L374
.L378:
	add	r7, r4, #48
	mov	r1, r7
	vldr.64	d0, [r4, #32]
	mov	r0, r5
	bl	_ZN8opendnp312measurements7IsEventERKNS_16TypedMeasurementIdEES4_d(PLT)
	cmp	r0, #0
	beq	.L377
	b	.L379
	.fnend
	.size	_ZN8opendnp38Database6UpdateERKNS_6AnalogEtNS_9EventModeE, .-_ZN8opendnp38Database6UpdateERKNS_6AnalogEtNS_9EventModeE
	.align	2
	.global	_ZN8opendnp38Database6UpdateERKNS_18BinaryOutputStatusEtNS_9EventModeE
	.syntax unified
	.arm
	.fpu vfp
	.type	_ZN8opendnp38Database6UpdateERKNS_18BinaryOutputStatusEtNS_9EventModeE, %function
_ZN8opendnp38Database6UpdateERKNS_18BinaryOutputStatusEtNS_9EventModeE:
	.fnstart
.LFB2347:
	@ args = 0, pretend = 0, frame = 56
	@ frame_needed = 0, uses_anonymous_args = 0
	push	{r4, r5, r6, r7, r8, r9, r10, fp, lr}
	.save {r4, r5, r6, r7, r8, r9, r10, fp, lr}
	mov	r5, r1
	ldrb	r1, [r0, #8]	@ zero_extendqisi2
	.pad #60
	sub	sp, sp, #60
	mov	r6, r0
	cmp	r1, #0
	mov	r4, r2
	mov	r8, r3
	bne	.L410
.L394:
	add	r0, sp, #8
	add	r1, r6, #24
	bl	_ZN8opendnp313StaticBuffers12GetArrayViewINS_22BinaryOutputStatusSpecEEEN7openpal9ArrayViewINS_4CellIT_EEtEEv(PLT)
	ldrh	r3, [sp, #8]
	cmp	r4, r3
	movge	r0, #0
	blt	.L411
	add	sp, sp, #60
	@ sp needed
	pop	{r4, r5, r6, r7, r8, r9, r10, fp, pc}
.L411:
	rsb	r4, r4, r4, lsl #3
	ldr	r9, [sp, #12]
	lsl	r4, r4, #4
	add	r7, r9, r4
	add	r1, sp, #7
	ldrb	r0, [r7, #27]	@ zero_extendqisi2
	bl	_ZN8opendnp38Database19ConvertToEventClassENS_10PointClassERNS_10EventClassE(PLT)
	cmp	r0, #0
	beq	.L396
	cmp	r8, #0
	beq	.L397
	cmp	r8, #1
	bne	.L396
.L398:
	ldr	ip, [r5]	@ unaligned
	ldr	r0, [r5, #4]	@ unaligned
	ldr	r1, [r5, #8]	@ unaligned
	ldr	r2, [r5, #12]	@ unaligned
	str	ip, [r7, #40]	@ unaligned
	str	r0, [r7, #44]	@ unaligned
	str	r1, [r7, #48]	@ unaligned
	str	r2, [r7, #52]	@ unaligned
	ldrb	r2, [r5, #16]	@ zero_extendqisi2
	ldr	r6, [r6, #4]
	mov	lr, r5
	strb	r2, [r7, #56]
	ldmia	lr!, {r0, r1, r2, r3}
	add	ip, sp, #24
	ldr	r8, [r6]
	ldrh	fp, [r7, #24]
	ldrb	r10, [r7, #28]	@ zero_extendqisi2
	ldr	r8, [r8, #28]
	stmia	ip!, {r0, r1, r2, r3}
	ldm	lr, {r0, r1}
	ldrb	r3, [sp, #7]	@ zero_extendqisi2
	strh	fp, [sp, #16]	@ movhi
	stm	ip, {r0, r1}
	strb	r10, [sp, #48]
	strb	r3, [sp, #18]
	mov	r0, r6
	add	r1, sp, #16
	blx	r8
.L396:
	ldr	r0, [r5]	@ unaligned
	ldr	r3, [r5, #12]	@ unaligned
	ldr	r1, [r5, #4]	@ unaligned
	ldr	r2, [r5, #8]	@ unaligned
	str	r0, [r9, r4]	@ unaligned
	str	r1, [r7, #4]	@ unaligned
	str	r2, [r7, #8]	@ unaligned
	str	r3, [r7, #12]	@ unaligned
	ldrb	r3, [r5, #16]	@ zero_extendqisi2
	mov	r0, #1
	strb	r3, [r7, #16]
	add	sp, sp, #60
	@ sp needed
	pop	{r4, r5, r6, r7, r8, r9, r10, fp, pc}
.L410:
	mov	r1, r2
	bl	_ZN8opendnp38Database11GetRawIndexINS_22BinaryOutputStatusSpecEEEtt.part.40(PLT)
	mov	r4, r0
	b	.L394
.L397:
	ldrb	r2, [r7, #40]	@ zero_extendqisi2
	ldrb	r3, [r5]	@ zero_extendqisi2
	cmp	r2, r3
	beq	.L396
	b	.L398
	.fnend
	.size	_ZN8opendnp38Database6UpdateERKNS_18BinaryOutputStatusEtNS_9EventModeE, .-_ZN8opendnp38Database6UpdateERKNS_18BinaryOutputStatusEtNS_9EventModeE
	.align	2
	.global	_ZN8opendnp38Database6UpdateERKNS_18AnalogOutputStatusEtNS_9EventModeE
	.syntax unified
	.arm
	.fpu vfp
	.type	_ZN8opendnp38Database6UpdateERKNS_18AnalogOutputStatusEtNS_9EventModeE, %function
_ZN8opendnp38Database6UpdateERKNS_18AnalogOutputStatusEtNS_9EventModeE:
	.fnstart
.LFB2348:
	@ args = 0, pretend = 0, frame = 56
	@ frame_needed = 0, uses_anonymous_args = 0
	push	{r4, r5, r6, r7, r8, r9, r10, lr}
	.save {r4, r5, r6, r7, r8, r9, r10, lr}
	mov	r5, r1
	ldrb	r1, [r0, #8]	@ zero_extendqisi2
	.pad #56
	sub	sp, sp, #56
	mov	r6, r0
	cmp	r1, #0
	mov	r4, r2
	mov	r7, r3
	bne	.L430
.L413:
	add	r1, r6, #24
	add	r0, sp, #8
	bl	_ZN8opendnp313StaticBuffers12GetArrayViewINS_22AnalogOutputStatusSpecEEEN7openpal9ArrayViewINS_4CellIT_EEtEEv(PLT)
	ldrh	r3, [sp, #8]
	cmp	r4, r3
	movge	r4, #0
	blt	.L431
	mov	r0, r4
	add	sp, sp, #56
	@ sp needed
	pop	{r4, r5, r6, r7, r8, r9, r10, pc}
.L431:
	ldr	lr, [sp, #12]
	rsb	r4, r4, r4, lsl #4
	add	r1, sp, #7
	add	r4, lr, r4, lsl #3
	ldrb	r0, [r4, #27]	@ zero_extendqisi2
	bl	_ZN8opendnp38Database19ConvertToEventClassENS_10PointClassERNS_10EventClassE(PLT)
	cmp	r0, #0
	beq	.L416
	cmp	r7, #0
	beq	.L417
	cmp	r7, #1
	addeq	r7, r4, #48
	bne	.L416
.L418:
	mov	lr, r5
	mov	ip, r7
	ldmia	lr!, {r0, r1, r2, r3}
	mov	r7, r5
	ldr	r8, [r6, #4]
	ldrh	r9, [r4, #24]
	stmia	ip!, {r0, r1, r2, r3}
	add	r6, sp, #24
	ldm	lr, {r0, r1}
	ldr	r10, [r8]
	strh	r9, [sp, #16]	@ movhi
	stm	ip, {r0, r1}
	ldmia	r7!, {r0, r1, r2, r3}
	ldrb	ip, [r4, #28]	@ zero_extendqisi2
	ldr	r7, [r10, #32]
	stmia	r6!, {r0, r1, r2, r3}
	ldm	lr, {r0, r1}
	ldrb	r3, [sp, #7]	@ zero_extendqisi2
	stm	r6, {r0, r1}
	mov	r0, r8
	add	r1, sp, #16
	strb	r3, [sp, #18]
	strb	ip, [sp, #48]
	blx	r7
.L416:
	mov	ip, r5
	mov	lr, r4
	ldmia	ip!, {r0, r1, r2, r3}
	mov	r4, #1
	stmia	lr!, {r0, r1, r2, r3}
	ldm	ip, {r0, r1}
	stm	lr, {r0, r1}
	mov	r0, r4
	add	sp, sp, #56
	@ sp needed
	pop	{r4, r5, r6, r7, r8, r9, r10, pc}
.L430:
	mov	r1, r2
	bl	_ZN8opendnp38Database11GetRawIndexINS_22AnalogOutputStatusSpecEEEtt.part.42(PLT)
	mov	r4, r0
	b	.L413
.L417:
	add	r7, r4, #48
	mov	r1, r7
	vldr.64	d0, [r4, #32]
	mov	r0, r5
	bl	_ZN8opendnp312measurements7IsEventERKNS_16TypedMeasurementIdEES4_d(PLT)
	cmp	r0, #0
	beq	.L416
	b	.L418
	.fnend
	.size	_ZN8opendnp38Database6UpdateERKNS_18AnalogOutputStatusEtNS_9EventModeE, .-_ZN8opendnp38Database6UpdateERKNS_18AnalogOutputStatusEtNS_9EventModeE
	.align	2
	.global	_ZN8opendnp38Database6ModifyENS_9FlagsTypeEtth
	.syntax unified
	.arm
	.fpu vfp
	.type	_ZN8opendnp38Database6ModifyENS_9FlagsTypeEtth, %function
_ZN8opendnp38Database6ModifyENS_9FlagsTypeEtth:
	.fnstart
.LFB2350:
	@ args = 4, pretend = 0, frame = 120
	@ frame_needed = 0, uses_anonymous_args = 0
	push	{r4, r5, r6, r7, r8, r9, r10, fp, lr}
	.save {r4, r5, r6, r7, r8, r9, r10, fp, lr}
	.pad #124
	sub	sp, sp, #124
	mov	r9, r2
	str	r0, [sp, #8]
	mov	r7, r3
	ldrb	r10, [sp, #160]	@ zero_extendqisi2
	cmp	r1, #6
	addls	pc, pc, r1, asl #2
	b	.L494
.L435:
	b	.L434
	b	.L436
	b	.L437
	b	.L438
	b	.L439
	b	.L440
	b	.L441
	.p2align 1
.L494:
	mov	r3, #0
	str	r3, [sp, #12]
.L433:
	ldr	r0, [sp, #12]
	add	sp, sp, #124
	@ sp needed
	pop	{r4, r5, r6, r7, r8, r9, r10, fp, pc}
.L441:
	ldr	r3, [sp, #8]
	ldrb	r3, [r3, #8]	@ zero_extendqisi2
	cmp	r3, #0
	bne	.L587
.L486:
	ldr	r3, [sp, #8]
	add	r0, sp, #48
	add	r1, r3, #24
	bl	_ZN8opendnp313StaticBuffers12GetArrayViewINS_22AnalogOutputStatusSpecEEEN7openpal9ArrayViewINS_4CellIT_EEtEEv(PLT)
	ldrh	r3, [sp, #48]
	cmp	r9, r3
	bge	.L494
	cmp	r3, r7
	movgt	r2, #1
	movle	r2, #0
	cmp	r9, r7
	movgt	r2, #0
	cmp	r2, #0
	str	r2, [sp, #12]
	beq	.L433
	cmp	r9, r7
	bgt	.L433
	add	r3, sp, #47
	ldr	fp, [sp, #52]
	str	r3, [sp, #4]
	add	r3, sp, #80
	str	r3, [sp, #32]
	mov	r3, r10
	add	r8, sp, #56
	mov	r10, fp
	mov	fp, r7
	mov	r7, r3
.L493:
	rsb	r4, r9, r9, lsl #4
	mov	ip, r8
	add	r4, r10, r4, lsl #3
	mov	lr, r4
	add	r5, r4, #48
	ldmia	lr!, {r0, r1, r2, r3}
	stmia	ip!, {r0, r1, r2, r3}
	ldm	lr, {r0, r1}
	stm	ip, {r0, r1}
	ldrb	r0, [r4, #27]	@ zero_extendqisi2
	ldr	r1, [sp, #4]
	strb	r7, [sp, #56]
	bl	_ZN8opendnp38Database19ConvertToEventClassENS_10PointClassERNS_10EventClassE(PLT)
	mov	r1, r5
	cmp	r0, #0
	mov	r0, r8
	beq	.L490
	vldr.64	d0, [r4, #32]
	bl	_ZN8opendnp312measurements7IsEventERKNS_16TypedMeasurementIdEES4_d(PLT)
	cmp	r0, #0
	beq	.L490
	mov	lr, r8
	mov	ip, r5
	ldmia	lr!, {r0, r1, r2, r3}
	mov	r6, r8
	ldr	r5, [sp, #8]
	str	lr, [sp, #16]
	ldr	r5, [r5, #4]
	mov	lr, r5
	ldrh	r5, [r4, #24]
	stmia	ip!, {r0, r1, r2, r3}
	ldr	r3, [sp, #16]
	ldr	r2, [lr]
	str	lr, [sp, #20]
	ldm	r3, {r0, r1}
	ldrb	r3, [r4, #28]	@ zero_extendqisi2
	mov	lr, r2
	stm	ip, {r0, r1}
	str	r3, [sp, #28]
	ldmia	r6!, {r0, r1, r2, r3}
	str	r5, [sp, #24]
	ldr	r6, [lr, #32]
	ldrb	ip, [sp, #47]	@ zero_extendqisi2
	ldrh	lr, [sp, #24]
	add	r5, sp, #88
	strb	ip, [sp, #82]
	strh	lr, [sp, #80]	@ movhi
	stmia	r5!, {r0, r1, r2, r3}
	ldr	r3, [sp, #16]
	ldm	r3, {r0, r1}
	ldrb	r3, [sp, #28]	@ zero_extendqisi2
	stm	r5, {r0, r1}
	strb	r3, [sp, #112]
	ldr	r0, [sp, #20]
	ldr	r1, [sp, #32]
	blx	r6
.L490:
	mov	ip, r8
	add	r9, r9, #1
	ldmia	ip!, {r0, r1, r2, r3}
	uxth	r9, r9
	cmp	fp, r9
	stmia	r4!, {r0, r1, r2, r3}
	ldm	ip, {r0, r1}
	stm	r4, {r0, r1}
	bge	.L493
	b	.L433
.L434:
	ldr	r3, [sp, #8]
	ldrb	r3, [r3, #8]	@ zero_extendqisi2
	cmp	r3, #0
	bne	.L588
.L442:
	ldr	r3, [sp, #8]
	add	r0, sp, #48
	add	r1, r3, #24
	bl	_ZN8opendnp313StaticBuffers12GetArrayViewINS_10BinarySpecEEEN7openpal9ArrayViewINS_4CellIT_EEtEEv(PLT)
	ldrh	r3, [sp, #48]
	cmp	r9, r3
	bge	.L494
	cmp	r9, r7
	movle	r2, #1
	movgt	r2, #0
	cmp	r3, r7
	movle	r2, #0
	cmp	r2, #0
	str	r2, [sp, #12]
	beq	.L433
	cmp	r9, r7
	bgt	.L433
	ldr	fp, [sp, #52]
	add	r3, sp, #47
	add	r8, sp, #56
	str	r3, [sp, #4]
	add	r3, sp, #80
	str	r3, [sp, #32]
	str	r7, [sp, #16]
.L447:
	rsb	r5, r9, r9, lsl #3
	mov	ip, r8
	add	r4, fp, r5, lsl #4
	mov	lr, r4
	ldmia	lr!, {r0, r1, r2, r3}
	stmia	ip!, {r0, r1, r2, r3}
	ldm	lr, {r0, r1}
	stm	ip, {r0, r1}
	ldrb	r0, [r4, #27]	@ zero_extendqisi2
	ldr	r1, [sp, #4]
	bl	_ZN8opendnp38Database19ConvertToEventClassENS_10PointClassERNS_10EventClassE(PLT)
	cmp	r0, #0
	beq	.L445
	ldrb	r3, [r4, #40]	@ zero_extendqisi2
	cmp	r3, r10
	beq	.L445
	mov	ip, r8
	strb	r10, [sp, #56]
	ldmia	ip!, {r0, r1, r2, r3}
	add	r6, r4, #40
	mov	lr, r8
	mov	r7, ip
	ldr	ip, [sp, #8]
	str	r7, [sp, #24]
	ldr	ip, [ip, #4]
	str	r0, [r4, #40]	@ unaligned
	str	r2, [r6, #8]	@ unaligned
	str	r1, [r6, #4]	@ unaligned
	str	r3, [r6, #12]	@ unaligned
	ldrh	r2, [r4, #24]
	ldrb	r3, [r7]	@ zero_extendqisi2
	mov	r0, r6
	ldr	r6, [ip]
	mov	r7, r2
	strb	r3, [r0, #16]
	ldmia	lr!, {r0, r1, r2, r3}
	add	lr, sp, #88
	str	lr, [sp, #28]
	ldrb	lr, [sp, #47]	@ zero_extendqisi2
	ldr	r6, [r6, #8]
	str	r6, [sp, #20]
	ldrb	r6, [r4, #28]	@ zero_extendqisi2
	strb	lr, [sp, #82]
	ldr	lr, [sp, #28]
	strh	r7, [sp, #80]	@ movhi
	stmia	lr!, {r0, r1, r2, r3}
	ldr	r3, [sp, #24]
	strb	r6, [sp, #112]
	ldm	r3, {r0, r1}
	ldr	r3, [sp, #20]
	stm	lr, {r0, r1}
	mov	r0, ip
	ldr	r1, [sp, #32]
	blx	r3
.L445:
	mov	ip, r8
	strb	r10, [sp, #56]
	ldmia	ip!, {r0, r1, r2, r3}
	add	r9, r9, #1
	uxth	r9, r9
	str	r0, [fp, r5, lsl #4]	@ unaligned
	str	r2, [r4, #8]	@ unaligned
	str	r1, [r4, #4]	@ unaligned
	str	r3, [r4, #12]	@ unaligned
	ldr	r2, [sp, #16]
	ldrb	r3, [ip]	@ zero_extendqisi2
	cmp	r2, r9
	strb	r3, [r4, #16]
	bge	.L447
	b	.L433
.L436:
	ldr	r3, [sp, #8]
	ldrb	r3, [r3, #8]	@ zero_extendqisi2
	cmp	r3, #0
	bne	.L589
.L448:
	ldr	r3, [sp, #8]
	add	r0, sp, #48
	add	r1, r3, #24
	bl	_ZN8opendnp313StaticBuffers12GetArrayViewINS_19DoubleBitBinarySpecEEEN7openpal9ArrayViewINS_4CellIT_EEtEEv(PLT)
	ldrh	r3, [sp, #48]
	cmp	r9, r3
	bge	.L494
	cmp	r3, r7
	movgt	r2, #1
	movle	r2, #0
	cmp	r9, r7
	movgt	r2, #0
	cmp	r2, #0
	str	r2, [sp, #12]
	beq	.L433
	cmp	r9, r7
	bgt	.L433
	ldr	fp, [sp, #52]
	add	r3, sp, #47
	add	r8, sp, #56
	str	r3, [sp, #4]
	add	r3, sp, #80
	str	r3, [sp, #32]
	str	r7, [sp, #16]
.L453:
	rsb	r5, r9, r9, lsl #3
	mov	ip, r8
	add	r4, fp, r5, lsl #4
	mov	lr, r4
	ldmia	lr!, {r0, r1, r2, r3}
	stmia	ip!, {r0, r1, r2, r3}
	ldm	lr, {r0, r1}
	stm	ip, {r0, r1}
	ldrb	r0, [r4, #27]	@ zero_extendqisi2
	ldr	r1, [sp, #4]
	bl	_ZN8opendnp38Database19ConvertToEventClassENS_10PointClassERNS_10EventClassE(PLT)
	cmp	r0, #0
	beq	.L451
	ldrb	r3, [r4, #40]	@ zero_extendqisi2
	cmp	r3, r10
	beq	.L451
	mov	ip, r8
	strb	r10, [sp, #56]
	ldmia	ip!, {r0, r1, r2, r3}
	add	r6, r4, #40
	mov	lr, r8
	mov	r7, ip
	ldr	ip, [sp, #8]
	str	r7, [sp, #24]
	ldr	ip, [ip, #4]
	str	r0, [r4, #40]	@ unaligned
	str	r2, [r6, #8]	@ unaligned
	str	r3, [r6, #12]	@ unaligned
	str	r1, [r6, #4]	@ unaligned
	ldrh	r2, [r4, #24]
	ldrb	r3, [r7]	@ zero_extendqisi2
	mov	r0, r6
	ldr	r6, [ip]
	mov	r7, r2
	strb	r3, [r0, #16]
	ldmia	lr!, {r0, r1, r2, r3}
	add	lr, sp, #88
	str	lr, [sp, #28]
	ldrb	lr, [sp, #47]	@ zero_extendqisi2
	ldr	r6, [r6, #12]
	str	r6, [sp, #20]
	ldrb	r6, [r4, #28]	@ zero_extendqisi2
	strb	lr, [sp, #82]
	ldr	lr, [sp, #28]
	strh	r7, [sp, #80]	@ movhi
	stmia	lr!, {r0, r1, r2, r3}
	ldr	r3, [sp, #24]
	strb	r6, [sp, #112]
	ldm	r3, {r0, r1}
	ldr	r3, [sp, #20]
	stm	lr, {r0, r1}
	mov	r0, ip
	ldr	r1, [sp, #32]
	blx	r3
.L451:
	mov	ip, r8
	strb	r10, [sp, #56]
	ldmia	ip!, {r0, r1, r2, r3}
	add	r9, r9, #1
	uxth	r9, r9
	str	r0, [fp, r5, lsl #4]	@ unaligned
	str	r2, [r4, #8]	@ unaligned
	str	r1, [r4, #4]	@ unaligned
	str	r3, [r4, #12]	@ unaligned
	ldr	r2, [sp, #16]
	ldrb	r3, [ip]	@ zero_extendqisi2
	cmp	r2, r9
	strb	r3, [r4, #16]
	bge	.L453
	b	.L433
.L437:
	ldr	r3, [sp, #8]
	ldrb	r3, [r3, #8]	@ zero_extendqisi2
	cmp	r3, #0
	bne	.L590
.L462:
	ldr	r3, [sp, #8]
	add	r0, sp, #48
	add	r1, r3, #24
	bl	_ZN8opendnp313StaticBuffers12GetArrayViewINS_11CounterSpecEEEN7openpal9ArrayViewINS_4CellIT_EEtEEv(PLT)
	ldrh	r3, [sp, #48]
	cmp	r9, r3
	bge	.L494
	cmp	r3, r7
	movgt	r2, #1
	movle	r2, #0
	cmp	r9, r7
	movgt	r2, #0
	cmp	r2, #0
	str	r2, [sp, #12]
	beq	.L433
	cmp	r9, r7
	bgt	.L433
	ldr	fp, [sp, #52]
	add	r3, sp, #47
	add	r8, sp, #56
	str	r3, [sp, #4]
	add	r3, sp, #80
	str	r7, [sp, #16]
	str	r3, [sp, #36]
	mov	r7, r10
	mov	r10, fp
	mov	fp, r8
	b	.L470
.L466:
	mov	ip, fp
	str	r6, [sp, #72]
	strb	r7, [sp, #56]
	ldmia	ip!, {r0, r1, r2, r3}
	mov	lr, fp
	ldrh	r8, [r4, #24]
	str	ip, [sp, #20]
	ldr	ip, [sp, #8]
	ldr	ip, [ip, #4]
	str	r3, [r4, #60]	@ unaligned
	ldr	r3, [sp, #20]
	str	r0, [r4, #48]	@ unaligned
	str	r1, [r4, #52]	@ unaligned
	str	r2, [r4, #56]	@ unaligned
	ldr	r0, [r3]
	ldr	r3, [ip]
	str	r0, [r4, #64]	@ unaligned
	str	r3, [sp, #24]
	ldmia	lr!, {r0, r1, r2, r3}
	add	lr, sp, #88
	str	lr, [sp, #32]
	mov	lr, r8
	ldrb	r8, [sp, #47]	@ zero_extendqisi2
	str	r8, [sp, #28]
	ldr	r8, [sp, #24]
	ldr	r8, [r8, #20]
	str	r8, [sp, #24]
	ldrb	r8, [r4, #28]	@ zero_extendqisi2
	strh	lr, [sp, #80]	@ movhi
	ldrb	lr, [sp, #28]	@ zero_extendqisi2
	strb	lr, [sp, #82]
	ldr	lr, [sp, #32]
	strb	r8, [sp, #112]
	ldr	r8, [sp, #24]
	stmia	lr!, {r0, r1, r2, r3}
	ldr	r3, [sp, #20]
	ldm	r3, {r0, r1}
	stm	lr, {r0, r1}
	mov	r0, ip
	ldr	r1, [sp, #36]
	blx	r8
.L465:
	mov	ip, fp
	str	r6, [sp, #72]
	strb	r7, [sp, #56]
	ldmia	ip!, {r0, r1, r2, r3}
	add	r9, r9, #1
	uxth	r9, r9
	str	r0, [r10, r5, lsl #3]	@ unaligned
	str	r3, [r4, #12]	@ unaligned
	ldr	r3, [sp, #16]
	str	r1, [r4, #4]	@ unaligned
	str	r2, [r4, #8]	@ unaligned
	ldr	r0, [ip]
	cmp	r3, r9
	str	r0, [r4, #16]	@ unaligned
	blt	.L433
.L470:
	rsb	r5, r9, r9, lsl #4
	mov	ip, fp
	add	r4, r10, r5, lsl #3
	mov	lr, r4
	ldmia	lr!, {r0, r1, r2, r3}
	stmia	ip!, {r0, r1, r2, r3}
	ldm	lr, {r0, r1}
	stm	ip, {r0, r1}
	ldrb	r0, [r4, #27]	@ zero_extendqisi2
	ldr	r1, [sp, #4]
	ldr	r6, [r4, #16]
	bl	_ZN8opendnp38Database19ConvertToEventClassENS_10PointClassERNS_10EventClassE(PLT)
	cmp	r0, #0
	beq	.L465
	ldrb	r3, [r4, #48]	@ zero_extendqisi2
	cmp	r3, r7
	bne	.L466
	ldr	r2, [r4, #64]
	ldr	r0, [r4, #32]
	cmp	r6, r2
	bls	.L467
	subs	r2, r6, r2
	sbc	r3, r6, r6
.L468:
	mov	r1, #0
	cmp	r1, r3
	cmpeq	r0, r2
	bcs	.L465
	b	.L466
.L438:
	ldr	r3, [sp, #8]
	ldrb	r3, [r3, #8]	@ zero_extendqisi2
	cmp	r3, #0
	bne	.L591
.L471:
	ldr	r3, [sp, #8]
	add	r0, sp, #48
	add	r1, r3, #24
	bl	_ZN8opendnp313StaticBuffers12GetArrayViewINS_17FrozenCounterSpecEEEN7openpal9ArrayViewINS_4CellIT_EEtEEv(PLT)
	ldrh	r3, [sp, #48]
	cmp	r9, r3
	bge	.L494
	cmp	r3, r7
	movgt	r2, #1
	movle	r2, #0
	cmp	r9, r7
	movgt	r2, #0
	cmp	r2, #0
	str	r2, [sp, #12]
	beq	.L433
	cmp	r9, r7
	bgt	.L433
	ldr	fp, [sp, #52]
	add	r3, sp, #47
	add	r8, sp, #56
	str	r3, [sp, #4]
	add	r3, sp, #80
	str	r7, [sp, #16]
	str	r3, [sp, #36]
	mov	r7, r10
	mov	r10, fp
	mov	fp, r8
	b	.L479
.L475:
	mov	ip, fp
	str	r6, [sp, #72]
	strb	r7, [sp, #56]
	ldmia	ip!, {r0, r1, r2, r3}
	mov	lr, fp
	ldrh	r8, [r4, #24]
	str	ip, [sp, #20]
	ldr	ip, [sp, #8]
	ldr	ip, [ip, #4]
	str	r3, [r4, #60]	@ unaligned
	ldr	r3, [sp, #20]
	str	r0, [r4, #48]	@ unaligned
	str	r1, [r4, #52]	@ unaligned
	str	r2, [r4, #56]	@ unaligned
	ldr	r0, [r3]
	ldr	r3, [ip]
	str	r0, [r4, #64]	@ unaligned
	str	r3, [sp, #24]
	ldmia	lr!, {r0, r1, r2, r3}
	add	lr, sp, #88
	str	lr, [sp, #32]
	mov	lr, r8
	ldrb	r8, [sp, #47]	@ zero_extendqisi2
	str	r8, [sp, #28]
	ldr	r8, [sp, #24]
	ldr	r8, [r8, #24]
	str	r8, [sp, #24]
	ldrb	r8, [r4, #28]	@ zero_extendqisi2
	strh	lr, [sp, #80]	@ movhi
	ldrb	lr, [sp, #28]	@ zero_extendqisi2
	strb	lr, [sp, #82]
	ldr	lr, [sp, #32]
	strb	r8, [sp, #112]
	ldr	r8, [sp, #24]
	stmia	lr!, {r0, r1, r2, r3}
	ldr	r3, [sp, #20]
	ldm	r3, {r0, r1}
	stm	lr, {r0, r1}
	mov	r0, ip
	ldr	r1, [sp, #36]
	blx	r8
.L474:
	mov	ip, fp
	str	r6, [sp, #72]
	strb	r7, [sp, #56]
	ldmia	ip!, {r0, r1, r2, r3}
	add	r9, r9, #1
	uxth	r9, r9
	str	r0, [r10, r5, lsl #3]	@ unaligned
	str	r3, [r4, #12]	@ unaligned
	ldr	r3, [sp, #16]
	str	r1, [r4, #4]	@ unaligned
	str	r2, [r4, #8]	@ unaligned
	ldr	r0, [ip]
	cmp	r3, r9
	str	r0, [r4, #16]	@ unaligned
	blt	.L433
.L479:
	rsb	r5, r9, r9, lsl #4
	mov	ip, fp
	add	r4, r10, r5, lsl #3
	mov	lr, r4
	ldmia	lr!, {r0, r1, r2, r3}
	stmia	ip!, {r0, r1, r2, r3}
	ldm	lr, {r0, r1}
	stm	ip, {r0, r1}
	ldrb	r0, [r4, #27]	@ zero_extendqisi2
	ldr	r1, [sp, #4]
	ldr	r6, [r4, #16]
	bl	_ZN8opendnp38Database19ConvertToEventClassENS_10PointClassERNS_10EventClassE(PLT)
	cmp	r0, #0
	beq	.L474
	ldrb	r3, [r4, #48]	@ zero_extendqisi2
	cmp	r3, r7
	bne	.L475
	ldr	r2, [r4, #64]
	ldr	r0, [r4, #32]
	cmp	r2, r6
	bcs	.L476
	subs	r2, r6, r2
	sbc	r3, r6, r6
.L477:
	mov	r1, #0
	cmp	r1, r3
	cmpeq	r0, r2
	bcs	.L474
	b	.L475
.L439:
	ldr	r3, [sp, #8]
	ldrb	r3, [r3, #8]	@ zero_extendqisi2
	cmp	r3, #0
	bne	.L592
.L454:
	ldr	r3, [sp, #8]
	add	r0, sp, #48
	add	r1, r3, #24
	bl	_ZN8opendnp313StaticBuffers12GetArrayViewINS_10AnalogSpecEEEN7openpal9ArrayViewINS_4CellIT_EEtEEv(PLT)
	ldrh	r3, [sp, #48]
	cmp	r9, r3
	bge	.L494
	cmp	r3, r7
	movgt	r2, #1
	movle	r2, #0
	cmp	r9, r7
	movgt	r2, #0
	cmp	r2, #0
	str	r2, [sp, #12]
	beq	.L433
	cmp	r9, r7
	bgt	.L433
	add	r3, sp, #47
	ldr	fp, [sp, #52]
	str	r3, [sp, #4]
	add	r3, sp, #80
	str	r3, [sp, #32]
	mov	r3, r10
	add	r8, sp, #56
	mov	r10, fp
	mov	fp, r7
	mov	r7, r3
.L461:
	rsb	r4, r9, r9, lsl #4
	mov	ip, r8
	add	r4, r10, r4, lsl #3
	mov	lr, r4
	add	r5, r4, #48
	ldmia	lr!, {r0, r1, r2, r3}
	stmia	ip!, {r0, r1, r2, r3}
	ldm	lr, {r0, r1}
	stm	ip, {r0, r1}
	ldrb	r0, [r4, #27]	@ zero_extendqisi2
	ldr	r1, [sp, #4]
	strb	r7, [sp, #56]
	bl	_ZN8opendnp38Database19ConvertToEventClassENS_10PointClassERNS_10EventClassE(PLT)
	mov	r1, r5
	cmp	r0, #0
	mov	r0, r8
	beq	.L458
	vldr.64	d0, [r4, #32]
	bl	_ZN8opendnp312measurements7IsEventERKNS_16TypedMeasurementIdEES4_d(PLT)
	cmp	r0, #0
	beq	.L458
	mov	lr, r8
	mov	ip, r5
	ldmia	lr!, {r0, r1, r2, r3}
	mov	r6, r8
	ldr	r5, [sp, #8]
	str	lr, [sp, #16]
	ldr	r5, [r5, #4]
	mov	lr, r5
	ldrh	r5, [r4, #24]
	stmia	ip!, {r0, r1, r2, r3}
	ldr	r3, [sp, #16]
	ldr	r2, [lr]
	str	lr, [sp, #20]
	ldm	r3, {r0, r1}
	ldrb	r3, [r4, #28]	@ zero_extendqisi2
	mov	lr, r2
	stm	ip, {r0, r1}
	str	r3, [sp, #28]
	ldmia	r6!, {r0, r1, r2, r3}
	str	r5, [sp, #24]
	ldr	r6, [lr, #16]
	ldrb	ip, [sp, #47]	@ zero_extendqisi2
	ldrh	lr, [sp, #24]
	add	r5, sp, #88
	strb	ip, [sp, #82]
	strh	lr, [sp, #80]	@ movhi
	stmia	r5!, {r0, r1, r2, r3}
	ldr	r3, [sp, #16]
	ldm	r3, {r0, r1}
	ldrb	r3, [sp, #28]	@ zero_extendqisi2
	stm	r5, {r0, r1}
	strb	r3, [sp, #112]
	ldr	r0, [sp, #20]
	ldr	r1, [sp, #32]
	blx	r6
.L458:
	mov	ip, r8
	add	r9, r9, #1
	ldmia	ip!, {r0, r1, r2, r3}
	uxth	r9, r9
	cmp	fp, r9
	stmia	r4!, {r0, r1, r2, r3}
	ldm	ip, {r0, r1}
	stm	r4, {r0, r1}
	bge	.L461
	b	.L433
.L440:
	ldr	r3, [sp, #8]
	ldrb	r3, [r3, #8]	@ zero_extendqisi2
	cmp	r3, #0
	bne	.L593
.L480:
	ldr	r3, [sp, #8]
	add	r0, sp, #48
	add	r1, r3, #24
	bl	_ZN8opendnp313StaticBuffers12GetArrayViewINS_22BinaryOutputStatusSpecEEEN7openpal9ArrayViewINS_4CellIT_EEtEEv(PLT)
	ldrh	r3, [sp, #48]
	cmp	r9, r3
	bge	.L494
	cmp	r3, r7
	movgt	r2, #1
	movle	r2, #0
	cmp	r9, r7
	movgt	r2, #0
	cmp	r2, #0
	str	r2, [sp, #12]
	beq	.L433
	cmp	r9, r7
	bgt	.L433
	ldr	fp, [sp, #52]
	add	r3, sp, #47
	add	r8, sp, #56
	str	r3, [sp, #4]
	add	r3, sp, #80
	str	r3, [sp, #32]
	str	r7, [sp, #16]
.L485:
	rsb	r5, r9, r9, lsl #3
	mov	ip, r8
	add	r4, fp, r5, lsl #4
	mov	lr, r4
	ldmia	lr!, {r0, r1, r2, r3}
	stmia	ip!, {r0, r1, r2, r3}
	ldm	lr, {r0, r1}
	stm	ip, {r0, r1}
	ldrb	r0, [r4, #27]	@ zero_extendqisi2
	ldr	r1, [sp, #4]
	bl	_ZN8opendnp38Database19ConvertToEventClassENS_10PointClassERNS_10EventClassE(PLT)
	cmp	r0, #0
	beq	.L483
	ldrb	r3, [r4, #40]	@ zero_extendqisi2
	cmp	r3, r10
	beq	.L483
	mov	ip, r8
	strb	r10, [sp, #56]
	ldmia	ip!, {r0, r1, r2, r3}
	add	r6, r4, #40
	mov	lr, r8
	mov	r7, ip
	ldr	ip, [sp, #8]
	str	r7, [sp, #24]
	ldr	ip, [ip, #4]
	str	r0, [r4, #40]	@ unaligned
	str	r2, [r6, #8]	@ unaligned
	str	r1, [r6, #4]	@ unaligned
	str	r3, [r6, #12]	@ unaligned
	ldrh	r2, [r4, #24]
	ldrb	r3, [r7]	@ zero_extendqisi2
	mov	r0, r6
	ldr	r6, [ip]
	mov	r7, r2
	strb	r3, [r0, #16]
	ldmia	lr!, {r0, r1, r2, r3}
	add	lr, sp, #88
	str	lr, [sp, #28]
	ldrb	lr, [sp, #47]	@ zero_extendqisi2
	ldr	r6, [r6, #28]
	str	r6, [sp, #20]
	ldrb	r6, [r4, #28]	@ zero_extendqisi2
	strb	lr, [sp, #82]
	ldr	lr, [sp, #28]
	strh	r7, [sp, #80]	@ movhi
	stmia	lr!, {r0, r1, r2, r3}
	ldr	r3, [sp, #24]
	strb	r6, [sp, #112]
	ldm	r3, {r0, r1}
	ldr	r3, [sp, #20]
	stm	lr, {r0, r1}
	mov	r0, ip
	ldr	r1, [sp, #32]
	blx	r3
.L483:
	mov	ip, r8
	strb	r10, [sp, #56]
	ldmia	ip!, {r0, r1, r2, r3}
	add	r9, r9, #1
	uxth	r9, r9
	str	r0, [fp, r5, lsl #4]	@ unaligned
	str	r2, [r4, #8]	@ unaligned
	str	r1, [r4, #4]	@ unaligned
	str	r3, [r4, #12]	@ unaligned
	ldr	r2, [sp, #16]
	ldrb	r3, [ip]	@ zero_extendqisi2
	cmp	r2, r9
	strb	r3, [r4, #16]
	bge	.L485
	b	.L433
.L467:
	subs	r2, r2, r6
	sbc	r3, r2, r2
	b	.L468
.L476:
	subs	r2, r2, r6
	sbc	r3, r2, r2
	b	.L477
.L590:
	ldr	r4, [sp, #8]
	mov	r1, r2
	mov	r0, r4
	bl	_ZN8opendnp38Database11GetRawIndexINS_11CounterSpecEEEtt.part.36(PLT)
	ldrb	r3, [r4, #8]	@ zero_extendqisi2
	cmp	r3, #0
	mov	r9, r0
	beq	.L462
	mov	r1, r7
	mov	r0, r4
	bl	_ZN8opendnp38Database11GetRawIndexINS_11CounterSpecEEEtt.part.36(PLT)
	mov	r7, r0
	b	.L462
.L591:
	ldr	r4, [sp, #8]
	mov	r1, r2
	mov	r0, r4
	bl	_ZN8opendnp38Database11GetRawIndexINS_17FrozenCounterSpecEEEtt.part.38(PLT)
	ldrb	r3, [r4, #8]	@ zero_extendqisi2
	cmp	r3, #0
	mov	r9, r0
	beq	.L471
	mov	r1, r7
	mov	r0, r4
	bl	_ZN8opendnp38Database11GetRawIndexINS_17FrozenCounterSpecEEEtt.part.38(PLT)
	mov	r7, r0
	b	.L471
.L589:
	ldr	r4, [sp, #8]
	mov	r1, r2
	mov	r0, r4
	bl	_ZN8opendnp38Database11GetRawIndexINS_19DoubleBitBinarySpecEEEtt.part.32(PLT)
	ldrb	r3, [r4, #8]	@ zero_extendqisi2
	cmp	r3, #0
	mov	r9, r0
	beq	.L448
	mov	r1, r7
	mov	r0, r4
	bl	_ZN8opendnp38Database11GetRawIndexINS_19DoubleBitBinarySpecEEEtt.part.32(PLT)
	mov	r7, r0
	b	.L448
.L587:
	ldr	r4, [sp, #8]
	mov	r1, r2
	mov	r0, r4
	bl	_ZN8opendnp38Database11GetRawIndexINS_22AnalogOutputStatusSpecEEEtt.part.42(PLT)
	ldrb	r3, [r4, #8]	@ zero_extendqisi2
	cmp	r3, #0
	mov	r9, r0
	beq	.L486
	mov	r1, r7
	mov	r0, r4
	bl	_ZN8opendnp38Database11GetRawIndexINS_22AnalogOutputStatusSpecEEEtt.part.42(PLT)
	mov	r7, r0
	b	.L486
.L588:
	ldr	r4, [sp, #8]
	mov	r1, r2
	mov	r0, r4
	bl	_ZN8opendnp38Database11GetRawIndexINS_10BinarySpecEEEtt.part.30(PLT)
	ldrb	r3, [r4, #8]	@ zero_extendqisi2
	cmp	r3, #0
	mov	r9, r0
	beq	.L442
	mov	r1, r7
	mov	r0, r4
	bl	_ZN8opendnp38Database11GetRawIndexINS_10BinarySpecEEEtt.part.30(PLT)
	mov	r7, r0
	b	.L442
.L593:
	ldr	r4, [sp, #8]
	mov	r1, r2
	mov	r0, r4
	bl	_ZN8opendnp38Database11GetRawIndexINS_22BinaryOutputStatusSpecEEEtt.part.40(PLT)
	ldrb	r3, [r4, #8]	@ zero_extendqisi2
	cmp	r3, #0
	mov	r9, r0
	beq	.L480
	mov	r1, r7
	mov	r0, r4
	bl	_ZN8opendnp38Database11GetRawIndexINS_22BinaryOutputStatusSpecEEEtt.part.40(PLT)
	mov	r7, r0
	b	.L480
.L592:
	ldr	r4, [sp, #8]
	mov	r1, r2
	mov	r0, r4
	bl	_ZN8opendnp38Database11GetRawIndexINS_10AnalogSpecEEEtt.part.34(PLT)
	ldrb	r3, [r4, #8]	@ zero_extendqisi2
	cmp	r3, #0
	mov	r9, r0
	beq	.L454
	mov	r1, r7
	mov	r0, r4
	bl	_ZN8opendnp38Database11GetRawIndexINS_10AnalogSpecEEEtt.part.34(PLT)
	mov	r7, r0
	b	.L454
	.fnend
	.size	_ZN8opendnp38Database6ModifyENS_9FlagsTypeEtth, .-_ZN8opendnp38Database6ModifyENS_9FlagsTypeEtth
	.align	2
	.global	_ZN8opendnp38Database6UpdateERKNS_7CounterEtNS_9EventModeE
	.syntax unified
	.arm
	.fpu vfp
	.type	_ZN8opendnp38Database6UpdateERKNS_7CounterEtNS_9EventModeE, %function
_ZN8opendnp38Database6UpdateERKNS_7CounterEtNS_9EventModeE:
	.fnstart
.LFB2345:
	@ args = 0, pretend = 0, frame = 56
	@ frame_needed = 0, uses_anonymous_args = 0
	push	{r4, r5, r6, r7, r8, r9, r10, fp, lr}
	.save {r4, r5, r6, r7, r8, r9, r10, fp, lr}
	mov	r5, r1
	ldrb	r1, [r0, #8]	@ zero_extendqisi2
	.pad #60
	sub	sp, sp, #60
	mov	r6, r0
	cmp	r1, #0
	mov	r4, r2
	mov	r8, r3
	bne	.L613
.L595:
	add	r0, sp, #8
	add	r1, r6, #24
	bl	_ZN8opendnp313StaticBuffers12GetArrayViewINS_11CounterSpecEEEN7openpal9ArrayViewINS_4CellIT_EEtEEv(PLT)
	ldrh	r3, [sp, #8]
	cmp	r4, r3
	movge	r0, #0
	blt	.L614
	add	sp, sp, #60
	@ sp needed
	pop	{r4, r5, r6, r7, r8, r9, r10, fp, pc}
.L614:
	rsb	r4, r4, r4, lsl #4
	ldr	r9, [sp, #12]
	lsl	r4, r4, #3
	add	r7, r9, r4
	add	r1, sp, #7
	ldrb	r0, [r7, #27]	@ zero_extendqisi2
	bl	_ZN8opendnp38Database19ConvertToEventClassENS_10PointClassERNS_10EventClassE(PLT)
	cmp	r0, #0
	beq	.L597
	cmp	r8, #0
	beq	.L598
	cmp	r8, #1
	bne	.L597
.L599:
	ldr	r2, [r5]	@ unaligned
	ldr	ip, [r5, #4]	@ unaligned
	ldr	r0, [r5, #8]	@ unaligned
	ldr	r1, [r5, #12]	@ unaligned
	ldr	r6, [r6, #4]
	mov	lr, r5
	str	r2, [r7, #48]	@ unaligned
	str	ip, [r7, #52]	@ unaligned
	str	r0, [r7, #56]	@ unaligned
	str	r1, [r7, #60]	@ unaligned
	ldr	r2, [r5, #16]	@ unaligned
	ldr	r8, [r6]
	str	r2, [r7, #64]	@ unaligned
	ldmia	lr!, {r0, r1, r2, r3}
	add	ip, sp, #24
	ldrh	fp, [r7, #24]
	ldr	r8, [r8, #20]
	ldrb	r10, [r7, #28]	@ zero_extendqisi2
	stmia	ip!, {r0, r1, r2, r3}
	ldm	lr, {r0, r1}
	ldrb	r3, [sp, #7]	@ zero_extendqisi2
	strh	fp, [sp, #16]	@ movhi
	stm	ip, {r0, r1}
	strb	r10, [sp, #48]
	strb	r3, [sp, #18]
	mov	r0, r6
	add	r1, sp, #16
	blx	r8
.L597:
	ldr	r3, [r5]	@ unaligned
	ldr	r0, [r5, #4]	@ unaligned
	ldr	r1, [r5, #8]	@ unaligned
	ldr	r2, [r5, #12]	@ unaligned
	str	r3, [r9, r4]	@ unaligned
	str	r0, [r7, #4]	@ unaligned
	str	r1, [r7, #8]	@ unaligned
	str	r2, [r7, #12]	@ unaligned
	ldr	r3, [r5, #16]	@ unaligned
	mov	r0, #1
	str	r3, [r7, #16]	@ unaligned
	add	sp, sp, #60
	@ sp needed
	pop	{r4, r5, r6, r7, r8, r9, r10, fp, pc}
.L613:
	mov	r1, r2
	bl	_ZN8opendnp38Database11GetRawIndexINS_11CounterSpecEEEtt.part.36(PLT)
	mov	r4, r0
	b	.L595
.L598:
	ldrb	r2, [r7, #48]	@ zero_extendqisi2
	ldrb	r3, [r5]	@ zero_extendqisi2
	cmp	r2, r3
	bne	.L599
	ldr	r2, [r7, #64]
	ldr	r3, [r5, #16]
	ldr	r0, [r7, #32]
	cmp	r2, r3
	bcs	.L600
	subs	r2, r3, r2
	sbc	r3, r3, r3
.L601:
	mov	r1, #0
	cmp	r1, r3
	cmpeq	r0, r2
	bcs	.L597
	b	.L599
.L600:
	subs	r2, r2, r3
	sbc	r3, r2, r2
	b	.L601
	.fnend
	.size	_ZN8opendnp38Database6UpdateERKNS_7CounterEtNS_9EventModeE, .-_ZN8opendnp38Database6UpdateERKNS_7CounterEtNS_9EventModeE
	.align	2
	.global	_ZN8opendnp38Database6UpdateERKNS_13FrozenCounterEtNS_9EventModeE
	.syntax unified
	.arm
	.fpu vfp
	.type	_ZN8opendnp38Database6UpdateERKNS_13FrozenCounterEtNS_9EventModeE, %function
_ZN8opendnp38Database6UpdateERKNS_13FrozenCounterEtNS_9EventModeE:
	.fnstart
.LFB2346:
	@ args = 0, pretend = 0, frame = 56
	@ frame_needed = 0, uses_anonymous_args = 0
	push	{r4, r5, r6, r7, r8, r9, r10, fp, lr}
	.save {r4, r5, r6, r7, r8, r9, r10, fp, lr}
	mov	r5, r1
	ldrb	r1, [r0, #8]	@ zero_extendqisi2
	.pad #60
	sub	sp, sp, #60
	mov	r6, r0
	cmp	r1, #0
	mov	r4, r2
	mov	r8, r3
	bne	.L634
.L616:
	add	r0, sp, #8
	add	r1, r6, #24
	bl	_ZN8opendnp313StaticBuffers12GetArrayViewINS_17FrozenCounterSpecEEEN7openpal9ArrayViewINS_4CellIT_EEtEEv(PLT)
	ldrh	r3, [sp, #8]
	cmp	r4, r3
	movge	r0, #0
	blt	.L635
	add	sp, sp, #60
	@ sp needed
	pop	{r4, r5, r6, r7, r8, r9, r10, fp, pc}
.L635:
	rsb	r4, r4, r4, lsl #4
	ldr	r9, [sp, #12]
	lsl	r4, r4, #3
	add	r7, r9, r4
	add	r1, sp, #7
	ldrb	r0, [r7, #27]	@ zero_extendqisi2
	bl	_ZN8opendnp38Database19ConvertToEventClassENS_10PointClassERNS_10EventClassE(PLT)
	cmp	r0, #0
	beq	.L618
	cmp	r8, #0
	beq	.L619
	cmp	r8, #1
	bne	.L618
.L620:
	ldr	r2, [r5]	@ unaligned
	ldr	ip, [r5, #4]	@ unaligned
	ldr	r0, [r5, #8]	@ unaligned
	ldr	r1, [r5, #12]	@ unaligned
	ldr	r6, [r6, #4]
	mov	lr, r5
	str	r2, [r7, #48]	@ unaligned
	str	ip, [r7, #52]	@ unaligned
	str	r0, [r7, #56]	@ unaligned
	str	r1, [r7, #60]	@ unaligned
	ldr	r2, [r5, #16]	@ unaligned
	ldr	r8, [r6]
	str	r2, [r7, #64]	@ unaligned
	ldmia	lr!, {r0, r1, r2, r3}
	add	ip, sp, #24
	ldrh	fp, [r7, #24]
	ldr	r8, [r8, #24]
	ldrb	r10, [r7, #28]	@ zero_extendqisi2
	stmia	ip!, {r0, r1, r2, r3}
	ldm	lr, {r0, r1}
	ldrb	r3, [sp, #7]	@ zero_extendqisi2
	strh	fp, [sp, #16]	@ movhi
	stm	ip, {r0, r1}
	strb	r10, [sp, #48]
	strb	r3, [sp, #18]
	mov	r0, r6
	add	r1, sp, #16
	blx	r8
.L618:
	ldr	r3, [r5]	@ unaligned
	ldr	r0, [r5, #4]	@ unaligned
	ldr	r1, [r5, #8]	@ unaligned
	ldr	r2, [r5, #12]	@ unaligned
	str	r3, [r9, r4]	@ unaligned
	str	r0, [r7, #4]	@ unaligned
	str	r1, [r7, #8]	@ unaligned
	str	r2, [r7, #12]	@ unaligned
	ldr	r3, [r5, #16]	@ unaligned
	mov	r0, #1
	str	r3, [r7, #16]	@ unaligned
	add	sp, sp, #60
	@ sp needed
	pop	{r4, r5, r6, r7, r8, r9, r10, fp, pc}
.L634:
	mov	r1, r2
	bl	_ZN8opendnp38Database11GetRawIndexINS_17FrozenCounterSpecEEEtt.part.38(PLT)
	mov	r4, r0
	b	.L616
.L619:
	ldrb	r2, [r7, #48]	@ zero_extendqisi2
	ldrb	r3, [r5]	@ zero_extendqisi2
	cmp	r2, r3
	bne	.L620
	ldr	r2, [r7, #64]
	ldr	r3, [r5, #16]
	ldr	r0, [r7, #32]
	cmp	r2, r3
	bcs	.L621
	subs	r2, r3, r2
	sbc	r3, r3, r3
.L622:
	mov	r1, #0
	cmp	r1, r3
	cmpeq	r0, r2
	bcs	.L618
	b	.L620
.L621:
	subs	r2, r2, r3
	sbc	r3, r2, r2
	b	.L622
	.fnend
	.size	_ZN8opendnp38Database6UpdateERKNS_13FrozenCounterEtNS_9EventModeE, .-_ZN8opendnp38Database6UpdateERKNS_13FrozenCounterEtNS_9EventModeE
	.weak	_ZTSN7openpal7HasSizeItEE
	.section	.rodata._ZTSN7openpal7HasSizeItEE,"aG",%progbits,_ZTSN7openpal7HasSizeItEE,comdat
	.align	2
	.type	_ZTSN7openpal7HasSizeItEE, %object
	.size	_ZTSN7openpal7HasSizeItEE, 22
_ZTSN7openpal7HasSizeItEE:
	.ascii	"N7openpal7HasSizeItEE\000"
	.weak	_ZTIN7openpal7HasSizeItEE
	.section	.data.rel.ro._ZTIN7openpal7HasSizeItEE,"awG",%progbits,_ZTIN7openpal7HasSizeItEE,comdat
	.align	2
	.type	_ZTIN7openpal7HasSizeItEE, %object
	.size	_ZTIN7openpal7HasSizeItEE, 8
_ZTIN7openpal7HasSizeItEE:
	.word	_ZTVN10__cxxabiv117__class_type_infoE+8
	.word	_ZTSN7openpal7HasSizeItEE
	.weak	_ZTSN7openpal10UncopyableE
	.section	.rodata._ZTSN7openpal10UncopyableE,"aG",%progbits,_ZTSN7openpal10UncopyableE,comdat
	.align	2
	.type	_ZTSN7openpal10UncopyableE, %object
	.size	_ZTSN7openpal10UncopyableE, 23
_ZTSN7openpal10UncopyableE:
	.ascii	"N7openpal10UncopyableE\000"
	.weak	_ZTIN7openpal10UncopyableE
	.section	.data.rel.ro._ZTIN7openpal10UncopyableE,"awG",%progbits,_ZTIN7openpal10UncopyableE,comdat
	.align	2
	.type	_ZTIN7openpal10UncopyableE, %object
	.size	_ZTIN7openpal10UncopyableE, 8
_ZTIN7openpal10UncopyableE:
	.word	_ZTVN10__cxxabiv117__class_type_infoE+8
	.word	_ZTSN7openpal10UncopyableE
	.weak	_ZTSN8opendnp314IUpdateHandlerE
	.section	.rodata._ZTSN8opendnp314IUpdateHandlerE,"aG",%progbits,_ZTSN8opendnp314IUpdateHandlerE,comdat
	.align	2
	.type	_ZTSN8opendnp314IUpdateHandlerE, %object
	.size	_ZTSN8opendnp314IUpdateHandlerE, 28
_ZTSN8opendnp314IUpdateHandlerE:
	.ascii	"N8opendnp314IUpdateHandlerE\000"
	.weak	_ZTIN8opendnp314IUpdateHandlerE
	.section	.data.rel.ro._ZTIN8opendnp314IUpdateHandlerE,"awG",%progbits,_ZTIN8opendnp314IUpdateHandlerE,comdat
	.align	2
	.type	_ZTIN8opendnp314IUpdateHandlerE, %object
	.size	_ZTIN8opendnp314IUpdateHandlerE, 8
_ZTIN8opendnp314IUpdateHandlerE:
	.word	_ZTVN10__cxxabiv117__class_type_infoE+8
	.word	_ZTSN8opendnp314IUpdateHandlerE
	.weak	_ZTSN8opendnp39IDatabaseE
	.section	.rodata._ZTSN8opendnp39IDatabaseE,"aG",%progbits,_ZTSN8opendnp39IDatabaseE,comdat
	.align	2
	.type	_ZTSN8opendnp39IDatabaseE, %object
	.size	_ZTSN8opendnp39IDatabaseE, 22
_ZTSN8opendnp39IDatabaseE:
	.ascii	"N8opendnp39IDatabaseE\000"
	.weak	_ZTIN8opendnp39IDatabaseE
	.section	.data.rel.ro._ZTIN8opendnp39IDatabaseE,"awG",%progbits,_ZTIN8opendnp39IDatabaseE,comdat
	.align	2
	.type	_ZTIN8opendnp39IDatabaseE, %object
	.size	_ZTIN8opendnp39IDatabaseE, 12
_ZTIN8opendnp39IDatabaseE:
	.word	_ZTVN10__cxxabiv120__si_class_type_infoE+8
	.word	_ZTSN8opendnp39IDatabaseE
	.word	_ZTIN8opendnp314IUpdateHandlerE
	.weak	_ZTSN7openpal5ArrayIN8opendnp34CellINS1_10BinarySpecEEEtEE
	.section	.rodata._ZTSN7openpal5ArrayIN8opendnp34CellINS1_10BinarySpecEEEtEE,"aG",%progbits,_ZTSN7openpal5ArrayIN8opendnp34CellINS1_10BinarySpecEEEtEE,comdat
	.align	2
	.type	_ZTSN7openpal5ArrayIN8opendnp34CellINS1_10BinarySpecEEEtEE, %object
	.size	_ZTSN7openpal5ArrayIN8opendnp34CellINS1_10BinarySpecEEEtEE, 55
_ZTSN7openpal5ArrayIN8opendnp34CellINS1_10BinarySpecEEEtEE:
	.ascii	"N7openpal5ArrayIN8opendnp34CellINS1_10BinarySpecEEE"
	.ascii	"tEE\000"
	.weak	_ZTIN7openpal5ArrayIN8opendnp34CellINS1_10BinarySpecEEEtEE
	.section	.data.rel.ro._ZTIN7openpal5ArrayIN8opendnp34CellINS1_10BinarySpecEEEtEE,"awG",%progbits,_ZTIN7openpal5ArrayIN8opendnp34CellINS1_10BinarySpecEEEtEE,comdat
	.align	2
	.type	_ZTIN7openpal5ArrayIN8opendnp34CellINS1_10BinarySpecEEEtEE, %object
	.size	_ZTIN7openpal5ArrayIN8opendnp34CellINS1_10BinarySpecEEEtEE, 24
_ZTIN7openpal5ArrayIN8opendnp34CellINS1_10BinarySpecEEEtEE:
	.word	_ZTVN10__cxxabiv121__vmi_class_type_infoE+8
	.word	_ZTSN7openpal5ArrayIN8opendnp34CellINS1_10BinarySpecEEEtEE
	.word	0
	.word	1
	.word	_ZTIN7openpal7HasSizeItEE
	.word	1026
	.weak	_ZTSN7openpal5ArrayIN8opendnp34CellINS1_19DoubleBitBinarySpecEEEtEE
	.section	.rodata._ZTSN7openpal5ArrayIN8opendnp34CellINS1_19DoubleBitBinarySpecEEEtEE,"aG",%progbits,_ZTSN7openpal5ArrayIN8opendnp34CellINS1_19DoubleBitBinarySpecEEEtEE,comdat
	.align	2
	.type	_ZTSN7openpal5ArrayIN8opendnp34CellINS1_19DoubleBitBinarySpecEEEtEE, %object
	.size	_ZTSN7openpal5ArrayIN8opendnp34CellINS1_19DoubleBitBinarySpecEEEtEE, 64
_ZTSN7openpal5ArrayIN8opendnp34CellINS1_19DoubleBitBinarySpecEEEtEE:
	.ascii	"N7openpal5ArrayIN8opendnp34CellINS1_19DoubleBitBina"
	.ascii	"rySpecEEEtEE\000"
	.weak	_ZTIN7openpal5ArrayIN8opendnp34CellINS1_19DoubleBitBinarySpecEEEtEE
	.section	.data.rel.ro._ZTIN7openpal5ArrayIN8opendnp34CellINS1_19DoubleBitBinarySpecEEEtEE,"awG",%progbits,_ZTIN7openpal5ArrayIN8opendnp34CellINS1_19DoubleBitBinarySpecEEEtEE,comdat
	.align	2
	.type	_ZTIN7openpal5ArrayIN8opendnp34CellINS1_19DoubleBitBinarySpecEEEtEE, %object
	.size	_ZTIN7openpal5ArrayIN8opendnp34CellINS1_19DoubleBitBinarySpecEEEtEE, 24
_ZTIN7openpal5ArrayIN8opendnp34CellINS1_19DoubleBitBinarySpecEEEtEE:
	.word	_ZTVN10__cxxabiv121__vmi_class_type_infoE+8
	.word	_ZTSN7openpal5ArrayIN8opendnp34CellINS1_19DoubleBitBinarySpecEEEtEE
	.word	0
	.word	1
	.word	_ZTIN7openpal7HasSizeItEE
	.word	1026
	.weak	_ZTSN7openpal5ArrayIN8opendnp34CellINS1_10AnalogSpecEEEtEE
	.section	.rodata._ZTSN7openpal5ArrayIN8opendnp34CellINS1_10AnalogSpecEEEtEE,"aG",%progbits,_ZTSN7openpal5ArrayIN8opendnp34CellINS1_10AnalogSpecEEEtEE,comdat
	.align	2
	.type	_ZTSN7openpal5ArrayIN8opendnp34CellINS1_10AnalogSpecEEEtEE, %object
	.size	_ZTSN7openpal5ArrayIN8opendnp34CellINS1_10AnalogSpecEEEtEE, 55
_ZTSN7openpal5ArrayIN8opendnp34CellINS1_10AnalogSpecEEEtEE:
	.ascii	"N7openpal5ArrayIN8opendnp34CellINS1_10AnalogSpecEEE"
	.ascii	"tEE\000"
	.weak	_ZTIN7openpal5ArrayIN8opendnp34CellINS1_10AnalogSpecEEEtEE
	.section	.data.rel.ro._ZTIN7openpal5ArrayIN8opendnp34CellINS1_10AnalogSpecEEEtEE,"awG",%progbits,_ZTIN7openpal5ArrayIN8opendnp34CellINS1_10AnalogSpecEEEtEE,comdat
	.align	2
	.type	_ZTIN7openpal5ArrayIN8opendnp34CellINS1_10AnalogSpecEEEtEE, %object
	.size	_ZTIN7openpal5ArrayIN8opendnp34CellINS1_10AnalogSpecEEEtEE, 24
_ZTIN7openpal5ArrayIN8opendnp34CellINS1_10AnalogSpecEEEtEE:
	.word	_ZTVN10__cxxabiv121__vmi_class_type_infoE+8
	.word	_ZTSN7openpal5ArrayIN8opendnp34CellINS1_10AnalogSpecEEEtEE
	.word	0
	.word	1
	.word	_ZTIN7openpal7HasSizeItEE
	.word	1026
	.weak	_ZTSN7openpal5ArrayIN8opendnp34CellINS1_11CounterSpecEEEtEE
	.section	.rodata._ZTSN7openpal5ArrayIN8opendnp34CellINS1_11CounterSpecEEEtEE,"aG",%progbits,_ZTSN7openpal5ArrayIN8opendnp34CellINS1_11CounterSpecEEEtEE,comdat
	.align	2
	.type	_ZTSN7openpal5ArrayIN8opendnp34CellINS1_11CounterSpecEEEtEE, %object
	.size	_ZTSN7openpal5ArrayIN8opendnp34CellINS1_11CounterSpecEEEtEE, 56
_ZTSN7openpal5ArrayIN8opendnp34CellINS1_11CounterSpecEEEtEE:
	.ascii	"N7openpal5ArrayIN8opendnp34CellINS1_11CounterSpecEE"
	.ascii	"EtEE\000"
	.weak	_ZTIN7openpal5ArrayIN8opendnp34CellINS1_11CounterSpecEEEtEE
	.section	.data.rel.ro._ZTIN7openpal5ArrayIN8opendnp34CellINS1_11CounterSpecEEEtEE,"awG",%progbits,_ZTIN7openpal5ArrayIN8opendnp34CellINS1_11CounterSpecEEEtEE,comdat
	.align	2
	.type	_ZTIN7openpal5ArrayIN8opendnp34CellINS1_11CounterSpecEEEtEE, %object
	.size	_ZTIN7openpal5ArrayIN8opendnp34CellINS1_11CounterSpecEEEtEE, 24
_ZTIN7openpal5ArrayIN8opendnp34CellINS1_11CounterSpecEEEtEE:
	.word	_ZTVN10__cxxabiv121__vmi_class_type_infoE+8
	.word	_ZTSN7openpal5ArrayIN8opendnp34CellINS1_11CounterSpecEEEtEE
	.word	0
	.word	1
	.word	_ZTIN7openpal7HasSizeItEE
	.word	1026
	.weak	_ZTSN7openpal5ArrayIN8opendnp34CellINS1_17FrozenCounterSpecEEEtEE
	.section	.rodata._ZTSN7openpal5ArrayIN8opendnp34CellINS1_17FrozenCounterSpecEEEtEE,"aG",%progbits,_ZTSN7openpal5ArrayIN8opendnp34CellINS1_17FrozenCounterSpecEEEtEE,comdat
	.align	2
	.type	_ZTSN7openpal5ArrayIN8opendnp34CellINS1_17FrozenCounterSpecEEEtEE, %object
	.size	_ZTSN7openpal5ArrayIN8opendnp34CellINS1_17FrozenCounterSpecEEEtEE, 62
_ZTSN7openpal5ArrayIN8opendnp34CellINS1_17FrozenCounterSpecEEEtEE:
	.ascii	"N7openpal5ArrayIN8opendnp34CellINS1_17FrozenCounter"
	.ascii	"SpecEEEtEE\000"
	.weak	_ZTIN7openpal5ArrayIN8opendnp34CellINS1_17FrozenCounterSpecEEEtEE
	.section	.data.rel.ro._ZTIN7openpal5ArrayIN8opendnp34CellINS1_17FrozenCounterSpecEEEtEE,"awG",%progbits,_ZTIN7openpal5ArrayIN8opendnp34CellINS1_17FrozenCounterSpecEEEtEE,comdat
	.align	2
	.type	_ZTIN7openpal5ArrayIN8opendnp34CellINS1_17FrozenCounterSpecEEEtEE, %object
	.size	_ZTIN7openpal5ArrayIN8opendnp34CellINS1_17FrozenCounterSpecEEEtEE, 24
_ZTIN7openpal5ArrayIN8opendnp34CellINS1_17FrozenCounterSpecEEEtEE:
	.word	_ZTVN10__cxxabiv121__vmi_class_type_infoE+8
	.word	_ZTSN7openpal5ArrayIN8opendnp34CellINS1_17FrozenCounterSpecEEEtEE
	.word	0
	.word	1
	.word	_ZTIN7openpal7HasSizeItEE
	.word	1026
	.weak	_ZTSN7openpal5ArrayIN8opendnp34CellINS1_22BinaryOutputStatusSpecEEEtEE
	.section	.rodata._ZTSN7openpal5ArrayIN8opendnp34CellINS1_22BinaryOutputStatusSpecEEEtEE,"aG",%progbits,_ZTSN7openpal5ArrayIN8opendnp34CellINS1_22BinaryOutputStatusSpecEEEtEE,comdat
	.align	2
	.type	_ZTSN7openpal5ArrayIN8opendnp34CellINS1_22BinaryOutputStatusSpecEEEtEE, %object
	.size	_ZTSN7openpal5ArrayIN8opendnp34CellINS1_22BinaryOutputStatusSpecEEEtEE, 67
_ZTSN7openpal5ArrayIN8opendnp34CellINS1_22BinaryOutputStatusSpecEEEtEE:
	.ascii	"N7openpal5ArrayIN8opendnp34CellINS1_22BinaryOutputS"
	.ascii	"tatusSpecEEEtEE\000"
	.weak	_ZTIN7openpal5ArrayIN8opendnp34CellINS1_22BinaryOutputStatusSpecEEEtEE
	.section	.data.rel.ro._ZTIN7openpal5ArrayIN8opendnp34CellINS1_22BinaryOutputStatusSpecEEEtEE,"awG",%progbits,_ZTIN7openpal5ArrayIN8opendnp34CellINS1_22BinaryOutputStatusSpecEEEtEE,comdat
	.align	2
	.type	_ZTIN7openpal5ArrayIN8opendnp34CellINS1_22BinaryOutputStatusSpecEEEtEE, %object
	.size	_ZTIN7openpal5ArrayIN8opendnp34CellINS1_22BinaryOutputStatusSpecEEEtEE, 24
_ZTIN7openpal5ArrayIN8opendnp34CellINS1_22BinaryOutputStatusSpecEEEtEE:
	.word	_ZTVN10__cxxabiv121__vmi_class_type_infoE+8
	.word	_ZTSN7openpal5ArrayIN8opendnp34CellINS1_22BinaryOutputStatusSpecEEEtEE
	.word	0
	.word	1
	.word	_ZTIN7openpal7HasSizeItEE
	.word	1026
	.weak	_ZTSN7openpal5ArrayIN8opendnp34CellINS1_22AnalogOutputStatusSpecEEEtEE
	.section	.rodata._ZTSN7openpal5ArrayIN8opendnp34CellINS1_22AnalogOutputStatusSpecEEEtEE,"aG",%progbits,_ZTSN7openpal5ArrayIN8opendnp34CellINS1_22AnalogOutputStatusSpecEEEtEE,comdat
	.align	2
	.type	_ZTSN7openpal5ArrayIN8opendnp34CellINS1_22AnalogOutputStatusSpecEEEtEE, %object
	.size	_ZTSN7openpal5ArrayIN8opendnp34CellINS1_22AnalogOutputStatusSpecEEEtEE, 67
_ZTSN7openpal5ArrayIN8opendnp34CellINS1_22AnalogOutputStatusSpecEEEtEE:
	.ascii	"N7openpal5ArrayIN8opendnp34CellINS1_22AnalogOutputS"
	.ascii	"tatusSpecEEEtEE\000"
	.weak	_ZTIN7openpal5ArrayIN8opendnp34CellINS1_22AnalogOutputStatusSpecEEEtEE
	.section	.data.rel.ro._ZTIN7openpal5ArrayIN8opendnp34CellINS1_22AnalogOutputStatusSpecEEEtEE,"awG",%progbits,_ZTIN7openpal5ArrayIN8opendnp34CellINS1_22AnalogOutputStatusSpecEEEtEE,comdat
	.align	2
	.type	_ZTIN7openpal5ArrayIN8opendnp34CellINS1_22AnalogOutputStatusSpecEEEtEE, %object
	.size	_ZTIN7openpal5ArrayIN8opendnp34CellINS1_22AnalogOutputStatusSpecEEEtEE, 24
_ZTIN7openpal5ArrayIN8opendnp34CellINS1_22AnalogOutputStatusSpecEEEtEE:
	.word	_ZTVN10__cxxabiv121__vmi_class_type_infoE+8
	.word	_ZTSN7openpal5ArrayIN8opendnp34CellINS1_22AnalogOutputStatusSpecEEEtEE
	.word	0
	.word	1
	.word	_ZTIN7openpal7HasSizeItEE
	.word	1026
	.weak	_ZTSN7openpal5ArrayIN8opendnp34CellINS1_19TimeAndIntervalSpecEEEtEE
	.section	.rodata._ZTSN7openpal5ArrayIN8opendnp34CellINS1_19TimeAndIntervalSpecEEEtEE,"aG",%progbits,_ZTSN7openpal5ArrayIN8opendnp34CellINS1_19TimeAndIntervalSpecEEEtEE,comdat
	.align	2
	.type	_ZTSN7openpal5ArrayIN8opendnp34CellINS1_19TimeAndIntervalSpecEEEtEE, %object
	.size	_ZTSN7openpal5ArrayIN8opendnp34CellINS1_19TimeAndIntervalSpecEEEtEE, 64
_ZTSN7openpal5ArrayIN8opendnp34CellINS1_19TimeAndIntervalSpecEEEtEE:
	.ascii	"N7openpal5ArrayIN8opendnp34CellINS1_19TimeAndInterv"
	.ascii	"alSpecEEEtEE\000"
	.weak	_ZTIN7openpal5ArrayIN8opendnp34CellINS1_19TimeAndIntervalSpecEEEtEE
	.section	.data.rel.ro._ZTIN7openpal5ArrayIN8opendnp34CellINS1_19TimeAndIntervalSpecEEEtEE,"awG",%progbits,_ZTIN7openpal5ArrayIN8opendnp34CellINS1_19TimeAndIntervalSpecEEEtEE,comdat
	.align	2
	.type	_ZTIN7openpal5ArrayIN8opendnp34CellINS1_19TimeAndIntervalSpecEEEtEE, %object
	.size	_ZTIN7openpal5ArrayIN8opendnp34CellINS1_19TimeAndIntervalSpecEEEtEE, 24
_ZTIN7openpal5ArrayIN8opendnp34CellINS1_19TimeAndIntervalSpecEEEtEE:
	.word	_ZTVN10__cxxabiv121__vmi_class_type_infoE+8
	.word	_ZTSN7openpal5ArrayIN8opendnp34CellINS1_19TimeAndIntervalSpecEEEtEE
	.word	0
	.word	1
	.word	_ZTIN7openpal7HasSizeItEE
	.word	1026
	.global	_ZTSN8opendnp38DatabaseE
	.global	_ZTIN8opendnp38DatabaseE
	.weak	_ZTVN7openpal5ArrayIN8opendnp34CellINS1_10BinarySpecEEEtEE
	.section	.data.rel.ro._ZTVN7openpal5ArrayIN8opendnp34CellINS1_10BinarySpecEEEtEE,"awG",%progbits,_ZTVN7openpal5ArrayIN8opendnp34CellINS1_10BinarySpecEEEtEE,comdat
	.align	2
	.type	_ZTVN7openpal5ArrayIN8opendnp34CellINS1_10BinarySpecEEEtEE, %object
	.size	_ZTVN7openpal5ArrayIN8opendnp34CellINS1_10BinarySpecEEEtEE, 16
_ZTVN7openpal5ArrayIN8opendnp34CellINS1_10BinarySpecEEEtEE:
	.word	0
	.word	_ZTIN7openpal5ArrayIN8opendnp34CellINS1_10BinarySpecEEEtEE
	.word	_ZN7openpal5ArrayIN8opendnp34CellINS1_10BinarySpecEEEtED1Ev
	.word	_ZN7openpal5ArrayIN8opendnp34CellINS1_10BinarySpecEEEtED0Ev
	.weak	_ZTVN7openpal5ArrayIN8opendnp34CellINS1_19DoubleBitBinarySpecEEEtEE
	.section	.data.rel.ro._ZTVN7openpal5ArrayIN8opendnp34CellINS1_19DoubleBitBinarySpecEEEtEE,"awG",%progbits,_ZTVN7openpal5ArrayIN8opendnp34CellINS1_19DoubleBitBinarySpecEEEtEE,comdat
	.align	2
	.type	_ZTVN7openpal5ArrayIN8opendnp34CellINS1_19DoubleBitBinarySpecEEEtEE, %object
	.size	_ZTVN7openpal5ArrayIN8opendnp34CellINS1_19DoubleBitBinarySpecEEEtEE, 16
_ZTVN7openpal5ArrayIN8opendnp34CellINS1_19DoubleBitBinarySpecEEEtEE:
	.word	0
	.word	_ZTIN7openpal5ArrayIN8opendnp34CellINS1_19DoubleBitBinarySpecEEEtEE
	.word	_ZN7openpal5ArrayIN8opendnp34CellINS1_19DoubleBitBinarySpecEEEtED1Ev
	.word	_ZN7openpal5ArrayIN8opendnp34CellINS1_19DoubleBitBinarySpecEEEtED0Ev
	.weak	_ZTVN7openpal5ArrayIN8opendnp34CellINS1_10AnalogSpecEEEtEE
	.section	.data.rel.ro._ZTVN7openpal5ArrayIN8opendnp34CellINS1_10AnalogSpecEEEtEE,"awG",%progbits,_ZTVN7openpal5ArrayIN8opendnp34CellINS1_10AnalogSpecEEEtEE,comdat
	.align	2
	.type	_ZTVN7openpal5ArrayIN8opendnp34CellINS1_10AnalogSpecEEEtEE, %object
	.size	_ZTVN7openpal5ArrayIN8opendnp34CellINS1_10AnalogSpecEEEtEE, 16
_ZTVN7openpal5ArrayIN8opendnp34CellINS1_10AnalogSpecEEEtEE:
	.word	0
	.word	_ZTIN7openpal5ArrayIN8opendnp34CellINS1_10AnalogSpecEEEtEE
	.word	_ZN7openpal5ArrayIN8opendnp34CellINS1_10AnalogSpecEEEtED1Ev
	.word	_ZN7openpal5ArrayIN8opendnp34CellINS1_10AnalogSpecEEEtED0Ev
	.weak	_ZTVN7openpal5ArrayIN8opendnp34CellINS1_11CounterSpecEEEtEE
	.section	.data.rel.ro._ZTVN7openpal5ArrayIN8opendnp34CellINS1_11CounterSpecEEEtEE,"awG",%progbits,_ZTVN7openpal5ArrayIN8opendnp34CellINS1_11CounterSpecEEEtEE,comdat
	.align	2
	.type	_ZTVN7openpal5ArrayIN8opendnp34CellINS1_11CounterSpecEEEtEE, %object
	.size	_ZTVN7openpal5ArrayIN8opendnp34CellINS1_11CounterSpecEEEtEE, 16
_ZTVN7openpal5ArrayIN8opendnp34CellINS1_11CounterSpecEEEtEE:
	.word	0
	.word	_ZTIN7openpal5ArrayIN8opendnp34CellINS1_11CounterSpecEEEtEE
	.word	_ZN7openpal5ArrayIN8opendnp34CellINS1_11CounterSpecEEEtED1Ev
	.word	_ZN7openpal5ArrayIN8opendnp34CellINS1_11CounterSpecEEEtED0Ev
	.weak	_ZTVN7openpal5ArrayIN8opendnp34CellINS1_17FrozenCounterSpecEEEtEE
	.section	.data.rel.ro._ZTVN7openpal5ArrayIN8opendnp34CellINS1_17FrozenCounterSpecEEEtEE,"awG",%progbits,_ZTVN7openpal5ArrayIN8opendnp34CellINS1_17FrozenCounterSpecEEEtEE,comdat
	.align	2
	.type	_ZTVN7openpal5ArrayIN8opendnp34CellINS1_17FrozenCounterSpecEEEtEE, %object
	.size	_ZTVN7openpal5ArrayIN8opendnp34CellINS1_17FrozenCounterSpecEEEtEE, 16
_ZTVN7openpal5ArrayIN8opendnp34CellINS1_17FrozenCounterSpecEEEtEE:
	.word	0
	.word	_ZTIN7openpal5ArrayIN8opendnp34CellINS1_17FrozenCounterSpecEEEtEE
	.word	_ZN7openpal5ArrayIN8opendnp34CellINS1_17FrozenCounterSpecEEEtED1Ev
	.word	_ZN7openpal5ArrayIN8opendnp34CellINS1_17FrozenCounterSpecEEEtED0Ev
	.weak	_ZTVN7openpal5ArrayIN8opendnp34CellINS1_22BinaryOutputStatusSpecEEEtEE
	.section	.data.rel.ro._ZTVN7openpal5ArrayIN8opendnp34CellINS1_22BinaryOutputStatusSpecEEEtEE,"awG",%progbits,_ZTVN7openpal5ArrayIN8opendnp34CellINS1_22BinaryOutputStatusSpecEEEtEE,comdat
	.align	2
	.type	_ZTVN7openpal5ArrayIN8opendnp34CellINS1_22BinaryOutputStatusSpecEEEtEE, %object
	.size	_ZTVN7openpal5ArrayIN8opendnp34CellINS1_22BinaryOutputStatusSpecEEEtEE, 16
_ZTVN7openpal5ArrayIN8opendnp34CellINS1_22BinaryOutputStatusSpecEEEtEE:
	.word	0
	.word	_ZTIN7openpal5ArrayIN8opendnp34CellINS1_22BinaryOutputStatusSpecEEEtEE
	.word	_ZN7openpal5ArrayIN8opendnp34CellINS1_22BinaryOutputStatusSpecEEEtED1Ev
	.word	_ZN7openpal5ArrayIN8opendnp34CellINS1_22BinaryOutputStatusSpecEEEtED0Ev
	.weak	_ZTVN7openpal5ArrayIN8opendnp34CellINS1_22AnalogOutputStatusSpecEEEtEE
	.section	.data.rel.ro._ZTVN7openpal5ArrayIN8opendnp34CellINS1_22AnalogOutputStatusSpecEEEtEE,"awG",%progbits,_ZTVN7openpal5ArrayIN8opendnp34CellINS1_22AnalogOutputStatusSpecEEEtEE,comdat
	.align	2
	.type	_ZTVN7openpal5ArrayIN8opendnp34CellINS1_22AnalogOutputStatusSpecEEEtEE, %object
	.size	_ZTVN7openpal5ArrayIN8opendnp34CellINS1_22AnalogOutputStatusSpecEEEtEE, 16
_ZTVN7openpal5ArrayIN8opendnp34CellINS1_22AnalogOutputStatusSpecEEEtEE:
	.word	0
	.word	_ZTIN7openpal5ArrayIN8opendnp34CellINS1_22AnalogOutputStatusSpecEEEtEE
	.word	_ZN7openpal5ArrayIN8opendnp34CellINS1_22AnalogOutputStatusSpecEEEtED1Ev
	.word	_ZN7openpal5ArrayIN8opendnp34CellINS1_22AnalogOutputStatusSpecEEEtED0Ev
	.weak	_ZTVN7openpal5ArrayIN8opendnp34CellINS1_19TimeAndIntervalSpecEEEtEE
	.section	.data.rel.ro._ZTVN7openpal5ArrayIN8opendnp34CellINS1_19TimeAndIntervalSpecEEEtEE,"awG",%progbits,_ZTVN7openpal5ArrayIN8opendnp34CellINS1_19TimeAndIntervalSpecEEEtEE,comdat
	.align	2
	.type	_ZTVN7openpal5ArrayIN8opendnp34CellINS1_19TimeAndIntervalSpecEEEtEE, %object
	.size	_ZTVN7openpal5ArrayIN8opendnp34CellINS1_19TimeAndIntervalSpecEEEtEE, 16
_ZTVN7openpal5ArrayIN8opendnp34CellINS1_19TimeAndIntervalSpecEEEtEE:
	.word	0
	.word	_ZTIN7openpal5ArrayIN8opendnp34CellINS1_19TimeAndIntervalSpecEEEtEE
	.word	_ZN7openpal5ArrayIN8opendnp34CellINS1_19TimeAndIntervalSpecEEEtED1Ev
	.word	_ZN7openpal5ArrayIN8opendnp34CellINS1_19TimeAndIntervalSpecEEEtED0Ev
	.global	_ZTVN8opendnp38DatabaseE
	.section	.rodata
	.align	2
	.type	_ZTSN8opendnp38DatabaseE, %object
	.size	_ZTSN8opendnp38DatabaseE, 21
_ZTSN8opendnp38DatabaseE:
	.ascii	"N8opendnp38DatabaseE\000"
	.section	.data.rel.ro,"aw",%progbits
	.align	2
	.type	_ZTIN8opendnp38DatabaseE, %object
	.size	_ZTIN8opendnp38DatabaseE, 32
_ZTIN8opendnp38DatabaseE:
	.word	_ZTVN10__cxxabiv121__vmi_class_type_infoE+8
	.word	_ZTSN8opendnp38DatabaseE
	.word	0
	.word	2
	.word	_ZTIN8opendnp39IDatabaseE
	.word	2
	.word	_ZTIN7openpal10UncopyableE
	.word	0
	.type	_ZTVN8opendnp38DatabaseE, %object
	.size	_ZTVN8opendnp38DatabaseE, 64
_ZTVN8opendnp38DatabaseE:
	.word	0
	.word	_ZTIN8opendnp38DatabaseE
	.word	_ZN8opendnp38DatabaseD1Ev
	.word	_ZN8opendnp38DatabaseD0Ev
	.word	_ZN8opendnp38Database6UpdateERKNS_6BinaryEtNS_9EventModeE
	.word	_ZN8opendnp38Database6UpdateERKNS_15DoubleBitBinaryEtNS_9EventModeE
	.word	_ZN8opendnp38Database6UpdateERKNS_6AnalogEtNS_9EventModeE
	.word	_ZN8opendnp38Database6UpdateERKNS_7CounterEtNS_9EventModeE
	.word	_ZN8opendnp38Database6UpdateERKNS_13FrozenCounterEtNS_9EventModeE
	.word	_ZN8opendnp38Database6UpdateERKNS_18BinaryOutputStatusEtNS_9EventModeE
	.word	_ZN8opendnp38Database6UpdateERKNS_18AnalogOutputStatusEtNS_9EventModeE
	.word	_ZN8opendnp38Database6UpdateERKNS_15TimeAndIntervalEt
	.word	_ZN8opendnp38Database6ModifyENS_9FlagsTypeEtth
	.word	_ZN8opendnp38Database17GetResponseLoaderEv
	.word	_ZN8opendnp38Database17GetStaticSelectorEv
	.word	_ZN8opendnp38Database16GetClassAssignerEv
	.ident	"GCC: (Raspbian 6.3.0-18+rpi1+deb9u1) 6.3.0 20170516"
	.section	.note.GNU-stack,"",%progbits
