	.arch armv6
	.eabi_attribute 28, 1
	.eabi_attribute 20, 1
	.eabi_attribute 21, 1
	.eabi_attribute 23, 3
	.eabi_attribute 24, 1
	.eabi_attribute 25, 1
	.eabi_attribute 26, 2
	.eabi_attribute 30, 2
	.eabi_attribute 34, 1
	.eabi_attribute 18, 4
	.file	"DefaultMasterApplication.cpp"
	.section	.text._ZN8opendnp313ILinkListener20OnKeepAliveInitiatedEv,"axG",%progbits,_ZN8opendnp313ILinkListener20OnKeepAliveInitiatedEv,comdat
	.align	2
	.weak	_ZN8opendnp313ILinkListener20OnKeepAliveInitiatedEv
	.syntax unified
	.arm
	.fpu vfp
	.type	_ZN8opendnp313ILinkListener20OnKeepAliveInitiatedEv, %function
_ZN8opendnp313ILinkListener20OnKeepAliveInitiatedEv:
	.fnstart
.LFB55:
	@ args = 0, pretend = 0, frame = 0
	@ frame_needed = 0, uses_anonymous_args = 0
	@ link register save eliminated.
	bx	lr
	.cantunwind
	.fnend
	.size	_ZN8opendnp313ILinkListener20OnKeepAliveInitiatedEv, .-_ZN8opendnp313ILinkListener20OnKeepAliveInitiatedEv
	.section	.text._ZN8opendnp313ILinkListener18OnKeepAliveFailureEv,"axG",%progbits,_ZN8opendnp313ILinkListener18OnKeepAliveFailureEv,comdat
	.align	2
	.weak	_ZN8opendnp313ILinkListener18OnKeepAliveFailureEv
	.syntax unified
	.arm
	.fpu vfp
	.type	_ZN8opendnp313ILinkListener18OnKeepAliveFailureEv, %function
_ZN8opendnp313ILinkListener18OnKeepAliveFailureEv:
	.fnstart
.LFB56:
	@ args = 0, pretend = 0, frame = 0
	@ frame_needed = 0, uses_anonymous_args = 0
	@ link register save eliminated.
	bx	lr
	.cantunwind
	.fnend
	.size	_ZN8opendnp313ILinkListener18OnKeepAliveFailureEv, .-_ZN8opendnp313ILinkListener18OnKeepAliveFailureEv
	.section	.text._ZN8opendnp313ILinkListener18OnKeepAliveSuccessEv,"axG",%progbits,_ZN8opendnp313ILinkListener18OnKeepAliveSuccessEv,comdat
	.align	2
	.weak	_ZN8opendnp313ILinkListener18OnKeepAliveSuccessEv
	.syntax unified
	.arm
	.fpu vfp
	.type	_ZN8opendnp313ILinkListener18OnKeepAliveSuccessEv, %function
_ZN8opendnp313ILinkListener18OnKeepAliveSuccessEv:
	.fnstart
.LFB57:
	@ args = 0, pretend = 0, frame = 0
	@ frame_needed = 0, uses_anonymous_args = 0
	@ link register save eliminated.
	bx	lr
	.cantunwind
	.fnend
	.size	_ZN8opendnp313ILinkListener18OnKeepAliveSuccessEv, .-_ZN8opendnp313ILinkListener18OnKeepAliveSuccessEv
	.section	.text._ZN8opendnp318IMasterApplication6OnOpenEv,"axG",%progbits,_ZN8opendnp318IMasterApplication6OnOpenEv,comdat
	.align	2
	.weak	_ZN8opendnp318IMasterApplication6OnOpenEv
	.syntax unified
	.arm
	.fpu vfp
	.type	_ZN8opendnp318IMasterApplication6OnOpenEv, %function
_ZN8opendnp318IMasterApplication6OnOpenEv:
	.fnstart
.LFB1406:
	@ args = 0, pretend = 0, frame = 0
	@ frame_needed = 0, uses_anonymous_args = 0
	@ link register save eliminated.
	bx	lr
	.cantunwind
	.fnend
	.size	_ZN8opendnp318IMasterApplication6OnOpenEv, .-_ZN8opendnp318IMasterApplication6OnOpenEv
	.section	.text._ZN8opendnp318IMasterApplication7OnCloseEv,"axG",%progbits,_ZN8opendnp318IMasterApplication7OnCloseEv,comdat
	.align	2
	.weak	_ZN8opendnp318IMasterApplication7OnCloseEv
	.syntax unified
	.arm
	.fpu vfp
	.type	_ZN8opendnp318IMasterApplication7OnCloseEv, %function
_ZN8opendnp318IMasterApplication7OnCloseEv:
	.fnstart
.LFB1407:
	@ args = 0, pretend = 0, frame = 0
	@ frame_needed = 0, uses_anonymous_args = 0
	@ link register save eliminated.
	bx	lr
	.cantunwind
	.fnend
	.size	_ZN8opendnp318IMasterApplication7OnCloseEv, .-_ZN8opendnp318IMasterApplication7OnCloseEv
	.section	.text._ZN8asiodnp324DefaultMasterApplication12OnReceiveIINERKN8opendnp38IINFieldE,"axG",%progbits,_ZN8asiodnp324DefaultMasterApplication12OnReceiveIINERKN8opendnp38IINFieldE,comdat
	.align	2
	.weak	_ZN8asiodnp324DefaultMasterApplication12OnReceiveIINERKN8opendnp38IINFieldE
	.syntax unified
	.arm
	.fpu vfp
	.type	_ZN8asiodnp324DefaultMasterApplication12OnReceiveIINERKN8opendnp38IINFieldE, %function
_ZN8asiodnp324DefaultMasterApplication12OnReceiveIINERKN8opendnp38IINFieldE:
	.fnstart
.LFB2020:
	@ args = 0, pretend = 0, frame = 0
	@ frame_needed = 0, uses_anonymous_args = 0
	@ link register save eliminated.
	bx	lr
	.cantunwind
	.fnend
	.size	_ZN8asiodnp324DefaultMasterApplication12OnReceiveIINERKN8opendnp38IINFieldE, .-_ZN8asiodnp324DefaultMasterApplication12OnReceiveIINERKN8opendnp38IINFieldE
	.section	.text._ZN8asiodnp324DefaultMasterApplication11OnTaskStartEN8opendnp314MasterTaskTypeENS1_6TaskIdE,"axG",%progbits,_ZN8asiodnp324DefaultMasterApplication11OnTaskStartEN8opendnp314MasterTaskTypeENS1_6TaskIdE,comdat
	.align	2
	.weak	_ZN8asiodnp324DefaultMasterApplication11OnTaskStartEN8opendnp314MasterTaskTypeENS1_6TaskIdE
	.syntax unified
	.arm
	.fpu vfp
	.type	_ZN8asiodnp324DefaultMasterApplication11OnTaskStartEN8opendnp314MasterTaskTypeENS1_6TaskIdE, %function
_ZN8asiodnp324DefaultMasterApplication11OnTaskStartEN8opendnp314MasterTaskTypeENS1_6TaskIdE:
	.fnstart
.LFB2021:
	@ args = 0, pretend = 0, frame = 8
	@ frame_needed = 0, uses_anonymous_args = 0
	@ link register save eliminated.
	sub	sp, sp, #8
	add	r1, sp, #8
	stmdb	r1, {r2, r3}
	add	sp, sp, #8
	@ sp needed
	bx	lr
	.cantunwind
	.fnend
	.size	_ZN8asiodnp324DefaultMasterApplication11OnTaskStartEN8opendnp314MasterTaskTypeENS1_6TaskIdE, .-_ZN8asiodnp324DefaultMasterApplication11OnTaskStartEN8opendnp314MasterTaskTypeENS1_6TaskIdE
	.section	.text._ZN8asiodnp324DefaultMasterApplication14OnTaskCompleteERKN8opendnp38TaskInfoE,"axG",%progbits,_ZN8asiodnp324DefaultMasterApplication14OnTaskCompleteERKN8opendnp38TaskInfoE,comdat
	.align	2
	.weak	_ZN8asiodnp324DefaultMasterApplication14OnTaskCompleteERKN8opendnp38TaskInfoE
	.syntax unified
	.arm
	.fpu vfp
	.type	_ZN8asiodnp324DefaultMasterApplication14OnTaskCompleteERKN8opendnp38TaskInfoE, %function
_ZN8asiodnp324DefaultMasterApplication14OnTaskCompleteERKN8opendnp38TaskInfoE:
	.fnstart
.LFB2022:
	@ args = 0, pretend = 0, frame = 0
	@ frame_needed = 0, uses_anonymous_args = 0
	@ link register save eliminated.
	bx	lr
	.cantunwind
	.fnend
	.size	_ZN8asiodnp324DefaultMasterApplication14OnTaskCompleteERKN8opendnp38TaskInfoE, .-_ZN8asiodnp324DefaultMasterApplication14OnTaskCompleteERKN8opendnp38TaskInfoE
	.section	.text._ZN8asiodnp324DefaultMasterApplication24AssignClassDuringStartupEv,"axG",%progbits,_ZN8asiodnp324DefaultMasterApplication24AssignClassDuringStartupEv,comdat
	.align	2
	.weak	_ZN8asiodnp324DefaultMasterApplication24AssignClassDuringStartupEv
	.syntax unified
	.arm
	.fpu vfp
	.type	_ZN8asiodnp324DefaultMasterApplication24AssignClassDuringStartupEv, %function
_ZN8asiodnp324DefaultMasterApplication24AssignClassDuringStartupEv:
	.fnstart
.LFB2023:
	@ args = 0, pretend = 0, frame = 0
	@ frame_needed = 0, uses_anonymous_args = 0
	@ link register save eliminated.
	mov	r0, #0
	bx	lr
	.cantunwind
	.fnend
	.size	_ZN8asiodnp324DefaultMasterApplication24AssignClassDuringStartupEv, .-_ZN8asiodnp324DefaultMasterApplication24AssignClassDuringStartupEv
	.section	.text._ZN8asiodnp324DefaultMasterApplication27ConfigureAssignClassRequestERKSt8functionIFvRKN8opendnp36HeaderEEE,"axG",%progbits,_ZN8asiodnp324DefaultMasterApplication27ConfigureAssignClassRequestERKSt8functionIFvRKN8opendnp36HeaderEEE,comdat
	.align	2
	.weak	_ZN8asiodnp324DefaultMasterApplication27ConfigureAssignClassRequestERKSt8functionIFvRKN8opendnp36HeaderEEE
	.syntax unified
	.arm
	.fpu vfp
	.type	_ZN8asiodnp324DefaultMasterApplication27ConfigureAssignClassRequestERKSt8functionIFvRKN8opendnp36HeaderEEE, %function
_ZN8asiodnp324DefaultMasterApplication27ConfigureAssignClassRequestERKSt8functionIFvRKN8opendnp36HeaderEEE:
	.fnstart
.LFB2024:
	@ args = 0, pretend = 0, frame = 0
	@ frame_needed = 0, uses_anonymous_args = 0
	@ link register save eliminated.
	bx	lr
	.cantunwind
	.fnend
	.size	_ZN8asiodnp324DefaultMasterApplication27ConfigureAssignClassRequestERKSt8functionIFvRKN8opendnp36HeaderEEE, .-_ZN8asiodnp324DefaultMasterApplication27ConfigureAssignClassRequestERKSt8functionIFvRKN8opendnp36HeaderEEE
	.section	.text._ZN8asiodnp324DefaultMasterApplication13OnStateChangeEN8opendnp310LinkStatusE,"axG",%progbits,_ZN8asiodnp324DefaultMasterApplication13OnStateChangeEN8opendnp310LinkStatusE,comdat
	.align	2
	.weak	_ZN8asiodnp324DefaultMasterApplication13OnStateChangeEN8opendnp310LinkStatusE
	.syntax unified
	.arm
	.fpu vfp
	.type	_ZN8asiodnp324DefaultMasterApplication13OnStateChangeEN8opendnp310LinkStatusE, %function
_ZN8asiodnp324DefaultMasterApplication13OnStateChangeEN8opendnp310LinkStatusE:
	.fnstart
.LFB2025:
	@ args = 0, pretend = 0, frame = 0
	@ frame_needed = 0, uses_anonymous_args = 0
	@ link register save eliminated.
	bx	lr
	.cantunwind
	.fnend
	.size	_ZN8asiodnp324DefaultMasterApplication13OnStateChangeEN8opendnp310LinkStatusE, .-_ZN8asiodnp324DefaultMasterApplication13OnStateChangeEN8opendnp310LinkStatusE
	.section	.text._ZN8asiodnp324DefaultMasterApplicationD2Ev,"axG",%progbits,_ZN8asiodnp324DefaultMasterApplicationD5Ev,comdat
	.align	2
	.weak	_ZN8asiodnp324DefaultMasterApplicationD2Ev
	.syntax unified
	.arm
	.fpu vfp
	.type	_ZN8asiodnp324DefaultMasterApplicationD2Ev, %function
_ZN8asiodnp324DefaultMasterApplicationD2Ev:
	.fnstart
.LFB2870:
	@ args = 0, pretend = 0, frame = 0
	@ frame_needed = 0, uses_anonymous_args = 0
	@ link register save eliminated.
	bx	lr
	.cantunwind
	.fnend
	.size	_ZN8asiodnp324DefaultMasterApplicationD2Ev, .-_ZN8asiodnp324DefaultMasterApplicationD2Ev
	.weak	_ZN8asiodnp324DefaultMasterApplicationD1Ev
	.set	_ZN8asiodnp324DefaultMasterApplicationD1Ev,_ZN8asiodnp324DefaultMasterApplicationD2Ev
	.global	__aeabi_ldivmod
	.text
	.align	2
	.global	_ZN8asiodnp324DefaultMasterApplication3NowEv
	.syntax unified
	.arm
	.fpu vfp
	.type	_ZN8asiodnp324DefaultMasterApplication3NowEv, %function
_ZN8asiodnp324DefaultMasterApplication3NowEv:
	.fnstart
.LFB2318:
	@ args = 0, pretend = 0, frame = 8
	@ frame_needed = 0, uses_anonymous_args = 0
	push	{r4, lr}
	sub	sp, sp, #8
	mov	r4, r0
	mov	r0, sp
	bl	_ZNSt6chrono3_V212system_clock3nowEv(PLT)
	ldrd	r0, [sp]
	ldr	r2, .L16
	mov	r3, #0
	bl	__aeabi_ldivmod(PLT)
	strd	r0, [r4]
	mov	r0, r4
	add	sp, sp, #8
	@ sp needed
	pop	{r4, pc}
.L17:
	.align	2
.L16:
	.word	1000000
	.cantunwind
	.fnend
	.size	_ZN8asiodnp324DefaultMasterApplication3NowEv, .-_ZN8asiodnp324DefaultMasterApplication3NowEv
	.set	.LTHUNK0,_ZN8asiodnp324DefaultMasterApplication3NowEv
	.align	2
	.global	_ZThn4_N8asiodnp324DefaultMasterApplication3NowEv
	.syntax unified
	.arm
	.fpu vfp
	.type	_ZThn4_N8asiodnp324DefaultMasterApplication3NowEv, %function
_ZThn4_N8asiodnp324DefaultMasterApplication3NowEv:
	.fnstart
.LFB2900:
	@ args = 0, pretend = 0, frame = 0
	@ frame_needed = 0, uses_anonymous_args = 0
	sub	r1, r1, #4
	b	.LTHUNK0(PLT)
	.fnend
	.size	_ZThn4_N8asiodnp324DefaultMasterApplication3NowEv, .-_ZThn4_N8asiodnp324DefaultMasterApplication3NowEv
	.section	.text._ZN8asiodnp324DefaultMasterApplicationD0Ev,"axG",%progbits,_ZN8asiodnp324DefaultMasterApplicationD5Ev,comdat
	.align	2
	.weak	_ZN8asiodnp324DefaultMasterApplicationD0Ev
	.syntax unified
	.arm
	.fpu vfp
	.type	_ZN8asiodnp324DefaultMasterApplicationD0Ev, %function
_ZN8asiodnp324DefaultMasterApplicationD0Ev:
	.fnstart
.LFB2872:
	@ args = 0, pretend = 0, frame = 0
	@ frame_needed = 0, uses_anonymous_args = 0
	push	{r4, lr}
	mov	r1, #8
	mov	r4, r0
	bl	_ZdlPvj(PLT)
	mov	r0, r4
	pop	{r4, pc}
	.cantunwind
	.fnend
	.size	_ZN8asiodnp324DefaultMasterApplicationD0Ev, .-_ZN8asiodnp324DefaultMasterApplicationD0Ev
	.weak	_ZTSN7openpal14IUTCTimeSourceE
	.section	.rodata._ZTSN7openpal14IUTCTimeSourceE,"aG",%progbits,_ZTSN7openpal14IUTCTimeSourceE,comdat
	.align	2
	.type	_ZTSN7openpal14IUTCTimeSourceE, %object
	.size	_ZTSN7openpal14IUTCTimeSourceE, 27
_ZTSN7openpal14IUTCTimeSourceE:
	.ascii	"N7openpal14IUTCTimeSourceE\000"
	.weak	_ZTIN7openpal14IUTCTimeSourceE
	.section	.data.rel.ro._ZTIN7openpal14IUTCTimeSourceE,"awG",%progbits,_ZTIN7openpal14IUTCTimeSourceE,comdat
	.align	2
	.type	_ZTIN7openpal14IUTCTimeSourceE, %object
	.size	_ZTIN7openpal14IUTCTimeSourceE, 8
_ZTIN7openpal14IUTCTimeSourceE:
	.word	_ZTVN10__cxxabiv117__class_type_infoE+8
	.word	_ZTSN7openpal14IUTCTimeSourceE
	.weak	_ZTSN8opendnp313ILinkListenerE
	.section	.rodata._ZTSN8opendnp313ILinkListenerE,"aG",%progbits,_ZTSN8opendnp313ILinkListenerE,comdat
	.align	2
	.type	_ZTSN8opendnp313ILinkListenerE, %object
	.size	_ZTSN8opendnp313ILinkListenerE, 27
_ZTSN8opendnp313ILinkListenerE:
	.ascii	"N8opendnp313ILinkListenerE\000"
	.weak	_ZTIN8opendnp313ILinkListenerE
	.section	.data.rel.ro._ZTIN8opendnp313ILinkListenerE,"awG",%progbits,_ZTIN8opendnp313ILinkListenerE,comdat
	.align	2
	.type	_ZTIN8opendnp313ILinkListenerE, %object
	.size	_ZTIN8opendnp313ILinkListenerE, 8
_ZTIN8opendnp313ILinkListenerE:
	.word	_ZTVN10__cxxabiv117__class_type_infoE+8
	.word	_ZTSN8opendnp313ILinkListenerE
	.weak	_ZTSN8opendnp318IMasterApplicationE
	.section	.rodata._ZTSN8opendnp318IMasterApplicationE,"aG",%progbits,_ZTSN8opendnp318IMasterApplicationE,comdat
	.align	2
	.type	_ZTSN8opendnp318IMasterApplicationE, %object
	.size	_ZTSN8opendnp318IMasterApplicationE, 32
_ZTSN8opendnp318IMasterApplicationE:
	.ascii	"N8opendnp318IMasterApplicationE\000"
	.weak	_ZTIN8opendnp318IMasterApplicationE
	.section	.data.rel.ro._ZTIN8opendnp318IMasterApplicationE,"awG",%progbits,_ZTIN8opendnp318IMasterApplicationE,comdat
	.align	2
	.type	_ZTIN8opendnp318IMasterApplicationE, %object
	.size	_ZTIN8opendnp318IMasterApplicationE, 32
_ZTIN8opendnp318IMasterApplicationE:
	.word	_ZTVN10__cxxabiv121__vmi_class_type_infoE+8
	.word	_ZTSN8opendnp318IMasterApplicationE
	.word	0
	.word	2
	.word	_ZTIN8opendnp313ILinkListenerE
	.word	2
	.word	_ZTIN7openpal14IUTCTimeSourceE
	.word	1026
	.global	_ZTSN8asiodnp324DefaultMasterApplicationE
	.global	_ZTIN8asiodnp324DefaultMasterApplicationE
	.global	_ZTVN8asiodnp324DefaultMasterApplicationE
	.section	.rodata
	.align	2
	.type	_ZTSN8asiodnp324DefaultMasterApplicationE, %object
	.size	_ZTSN8asiodnp324DefaultMasterApplicationE, 38
_ZTSN8asiodnp324DefaultMasterApplicationE:
	.ascii	"N8asiodnp324DefaultMasterApplicationE\000"
	.section	.data.rel.ro,"aw",%progbits
	.align	2
	.type	_ZTIN8asiodnp324DefaultMasterApplicationE, %object
	.size	_ZTIN8asiodnp324DefaultMasterApplicationE, 12
_ZTIN8asiodnp324DefaultMasterApplicationE:
	.word	_ZTVN10__cxxabiv120__si_class_type_infoE+8
	.word	_ZTSN8asiodnp324DefaultMasterApplicationE
	.word	_ZTIN8opendnp318IMasterApplicationE
	.type	_ZTVN8asiodnp324DefaultMasterApplicationE, %object
	.size	_ZTVN8asiodnp324DefaultMasterApplicationE, 76
_ZTVN8asiodnp324DefaultMasterApplicationE:
	.word	0
	.word	_ZTIN8asiodnp324DefaultMasterApplicationE
	.word	_ZN8asiodnp324DefaultMasterApplication13OnStateChangeEN8opendnp310LinkStatusE
	.word	_ZN8opendnp313ILinkListener20OnKeepAliveInitiatedEv
	.word	_ZN8opendnp313ILinkListener18OnKeepAliveFailureEv
	.word	_ZN8opendnp313ILinkListener18OnKeepAliveSuccessEv
	.word	_ZN8asiodnp324DefaultMasterApplicationD1Ev
	.word	_ZN8asiodnp324DefaultMasterApplicationD0Ev
	.word	_ZN8asiodnp324DefaultMasterApplication12OnReceiveIINERKN8opendnp38IINFieldE
	.word	_ZN8asiodnp324DefaultMasterApplication11OnTaskStartEN8opendnp314MasterTaskTypeENS1_6TaskIdE
	.word	_ZN8asiodnp324DefaultMasterApplication14OnTaskCompleteERKN8opendnp38TaskInfoE
	.word	_ZN8opendnp318IMasterApplication6OnOpenEv
	.word	_ZN8opendnp318IMasterApplication7OnCloseEv
	.word	_ZN8asiodnp324DefaultMasterApplication24AssignClassDuringStartupEv
	.word	_ZN8asiodnp324DefaultMasterApplication27ConfigureAssignClassRequestERKSt8functionIFvRKN8opendnp36HeaderEEE
	.word	_ZN8asiodnp324DefaultMasterApplication3NowEv
	.word	-4
	.word	_ZTIN8asiodnp324DefaultMasterApplicationE
	.word	_ZThn4_N8asiodnp324DefaultMasterApplication3NowEv
	.ident	"GCC: (Raspbian 6.3.0-18+rpi1+deb9u1) 6.3.0 20170516"
	.section	.note.GNU-stack,"",%progbits
