	.arch armv6
	.eabi_attribute 28, 1
	.eabi_attribute 20, 1
	.eabi_attribute 21, 1
	.eabi_attribute 23, 3
	.eabi_attribute 24, 1
	.eabi_attribute 25, 1
	.eabi_attribute 26, 2
	.eabi_attribute 30, 2
	.eabi_attribute 34, 1
	.eabi_attribute 18, 4
	.file	"DefaultListenCallbacks.cpp"
	.section	.text._ZN8asiodnp322DefaultListenCallbacksD2Ev,"axG",%progbits,_ZN8asiodnp322DefaultListenCallbacksD5Ev,comdat
	.align	2
	.weak	_ZN8asiodnp322DefaultListenCallbacksD2Ev
	.syntax unified
	.arm
	.fpu vfp
	.type	_ZN8asiodnp322DefaultListenCallbacksD2Ev, %function
_ZN8asiodnp322DefaultListenCallbacksD2Ev:
	.fnstart
.LFB3125:
	@ args = 0, pretend = 0, frame = 0
	@ frame_needed = 0, uses_anonymous_args = 0
	@ link register save eliminated.
	bx	lr
	.cantunwind
	.fnend
	.size	_ZN8asiodnp322DefaultListenCallbacksD2Ev, .-_ZN8asiodnp322DefaultListenCallbacksD2Ev
	.weak	_ZN8asiodnp322DefaultListenCallbacksD1Ev
	.set	_ZN8asiodnp322DefaultListenCallbacksD1Ev,_ZN8asiodnp322DefaultListenCallbacksD2Ev
	.text
	.align	2
	.global	_ZN8asiodnp322DefaultListenCallbacks17AcceptCertificateEyRKNS_8X509InfoE
	.syntax unified
	.arm
	.fpu vfp
	.type	_ZN8asiodnp322DefaultListenCallbacks17AcceptCertificateEyRKNS_8X509InfoE, %function
_ZN8asiodnp322DefaultListenCallbacks17AcceptCertificateEyRKNS_8X509InfoE:
	.fnstart
.LFB3135:
	@ args = 4, pretend = 0, frame = 0
	@ frame_needed = 0, uses_anonymous_args = 0
	@ link register save eliminated.
	mov	r0, #1
	bx	lr
	.cantunwind
	.fnend
	.size	_ZN8asiodnp322DefaultListenCallbacks17AcceptCertificateEyRKNS_8X509InfoE, .-_ZN8asiodnp322DefaultListenCallbacks17AcceptCertificateEyRKNS_8X509InfoE
	.global	_ZN8asiodnp322DefaultListenCallbacks16AcceptConnectionEyRKNSt7__cxx1112basic_stringIcSt11char_traitsIcESaIcEEE
	.set	_ZN8asiodnp322DefaultListenCallbacks16AcceptConnectionEyRKNSt7__cxx1112basic_stringIcSt11char_traitsIcESaIcEEE,_ZN8asiodnp322DefaultListenCallbacks17AcceptCertificateEyRKNS_8X509InfoE
	.align	2
	.global	_ZN8asiodnp322DefaultListenCallbacks17OnConnectionCloseEyRKSt10shared_ptrINS_14IMasterSessionEE
	.syntax unified
	.arm
	.fpu vfp
	.type	_ZN8asiodnp322DefaultListenCallbacks17OnConnectionCloseEyRKSt10shared_ptrINS_14IMasterSessionEE, %function
_ZN8asiodnp322DefaultListenCallbacks17OnConnectionCloseEyRKSt10shared_ptrINS_14IMasterSessionEE:
	.fnstart
.LFB3144:
	@ args = 4, pretend = 0, frame = 0
	@ frame_needed = 0, uses_anonymous_args = 0
	@ link register save eliminated.
	bx	lr
	.cantunwind
	.fnend
	.size	_ZN8asiodnp322DefaultListenCallbacks17OnConnectionCloseEyRKSt10shared_ptrINS_14IMasterSessionEE, .-_ZN8asiodnp322DefaultListenCallbacks17OnConnectionCloseEyRKSt10shared_ptrINS_14IMasterSessionEE
	.align	2
	.global	_ZN8asiodnp322DefaultListenCallbacks18OnCertificateErrorEyRKNS_8X509InfoEi
	.syntax unified
	.arm
	.fpu vfp
	.type	_ZN8asiodnp322DefaultListenCallbacks18OnCertificateErrorEyRKNS_8X509InfoEi, %function
_ZN8asiodnp322DefaultListenCallbacks18OnCertificateErrorEyRKNS_8X509InfoEi:
	.fnstart
.LFB3145:
	@ args = 8, pretend = 0, frame = 0
	@ frame_needed = 0, uses_anonymous_args = 0
	@ link register save eliminated.
	bx	lr
	.cantunwind
	.fnend
	.size	_ZN8asiodnp322DefaultListenCallbacks18OnCertificateErrorEyRKNS_8X509InfoEi, .-_ZN8asiodnp322DefaultListenCallbacks18OnCertificateErrorEyRKNS_8X509InfoEi
	.section	.text._ZNSt23_Sp_counted_ptr_inplaceIN8asiodnp324DefaultMasterApplicationESaIS1_ELN9__gnu_cxx12_Lock_policyE1EED2Ev,"axG",%progbits,_ZNSt23_Sp_counted_ptr_inplaceIN8asiodnp324DefaultMasterApplicationESaIS1_ELN9__gnu_cxx12_Lock_policyE1EED5Ev,comdat
	.align	2
	.weak	_ZNSt23_Sp_counted_ptr_inplaceIN8asiodnp324DefaultMasterApplicationESaIS1_ELN9__gnu_cxx12_Lock_policyE1EED2Ev
	.syntax unified
	.arm
	.fpu vfp
	.type	_ZNSt23_Sp_counted_ptr_inplaceIN8asiodnp324DefaultMasterApplicationESaIS1_ELN9__gnu_cxx12_Lock_policyE1EED2Ev, %function
_ZNSt23_Sp_counted_ptr_inplaceIN8asiodnp324DefaultMasterApplicationESaIS1_ELN9__gnu_cxx12_Lock_policyE1EED2Ev:
	.fnstart
.LFB3985:
	@ args = 0, pretend = 0, frame = 0
	@ frame_needed = 0, uses_anonymous_args = 0
	@ link register save eliminated.
	bx	lr
	.cantunwind
	.fnend
	.size	_ZNSt23_Sp_counted_ptr_inplaceIN8asiodnp324DefaultMasterApplicationESaIS1_ELN9__gnu_cxx12_Lock_policyE1EED2Ev, .-_ZNSt23_Sp_counted_ptr_inplaceIN8asiodnp324DefaultMasterApplicationESaIS1_ELN9__gnu_cxx12_Lock_policyE1EED2Ev
	.weak	_ZNSt23_Sp_counted_ptr_inplaceIN8asiodnp324DefaultMasterApplicationESaIS1_ELN9__gnu_cxx12_Lock_policyE1EED1Ev
	.set	_ZNSt23_Sp_counted_ptr_inplaceIN8asiodnp324DefaultMasterApplicationESaIS1_ELN9__gnu_cxx12_Lock_policyE1EED1Ev,_ZNSt23_Sp_counted_ptr_inplaceIN8asiodnp324DefaultMasterApplicationESaIS1_ELN9__gnu_cxx12_Lock_policyE1EED2Ev
	.section	.text._ZNSt23_Sp_counted_ptr_inplaceIN8asiodnp324DefaultMasterApplicationESaIS1_ELN9__gnu_cxx12_Lock_policyE1EE10_M_disposeEv,"axG",%progbits,_ZNSt23_Sp_counted_ptr_inplaceIN8asiodnp324DefaultMasterApplicationESaIS1_ELN9__gnu_cxx12_Lock_policyE1EE10_M_disposeEv,comdat
	.align	2
	.weak	_ZNSt23_Sp_counted_ptr_inplaceIN8asiodnp324DefaultMasterApplicationESaIS1_ELN9__gnu_cxx12_Lock_policyE1EE10_M_disposeEv
	.syntax unified
	.arm
	.fpu vfp
	.type	_ZNSt23_Sp_counted_ptr_inplaceIN8asiodnp324DefaultMasterApplicationESaIS1_ELN9__gnu_cxx12_Lock_policyE1EE10_M_disposeEv, %function
_ZNSt23_Sp_counted_ptr_inplaceIN8asiodnp324DefaultMasterApplicationESaIS1_ELN9__gnu_cxx12_Lock_policyE1EE10_M_disposeEv:
	.fnstart
.LFB3988:
	@ args = 0, pretend = 0, frame = 0
	@ frame_needed = 0, uses_anonymous_args = 0
	@ link register save eliminated.
	mov	r3, r0
	add	r0, r0, #36
	ldr	r3, [r3, #36]
	ldr	r3, [r3, #16]
	bx	r3
	.cantunwind
	.fnend
	.size	_ZNSt23_Sp_counted_ptr_inplaceIN8asiodnp324DefaultMasterApplicationESaIS1_ELN9__gnu_cxx12_Lock_policyE1EE10_M_disposeEv, .-_ZNSt23_Sp_counted_ptr_inplaceIN8asiodnp324DefaultMasterApplicationESaIS1_ELN9__gnu_cxx12_Lock_policyE1EE10_M_disposeEv
	.section	.text._ZNSt23_Sp_counted_ptr_inplaceIN8asiodnp318PrintingSOEHandlerESaIS1_ELN9__gnu_cxx12_Lock_policyE1EED2Ev,"axG",%progbits,_ZNSt23_Sp_counted_ptr_inplaceIN8asiodnp318PrintingSOEHandlerESaIS1_ELN9__gnu_cxx12_Lock_policyE1EED5Ev,comdat
	.align	2
	.weak	_ZNSt23_Sp_counted_ptr_inplaceIN8asiodnp318PrintingSOEHandlerESaIS1_ELN9__gnu_cxx12_Lock_policyE1EED2Ev
	.syntax unified
	.arm
	.fpu vfp
	.type	_ZNSt23_Sp_counted_ptr_inplaceIN8asiodnp318PrintingSOEHandlerESaIS1_ELN9__gnu_cxx12_Lock_policyE1EED2Ev, %function
_ZNSt23_Sp_counted_ptr_inplaceIN8asiodnp318PrintingSOEHandlerESaIS1_ELN9__gnu_cxx12_Lock_policyE1EED2Ev:
	.fnstart
.LFB3992:
	@ args = 0, pretend = 0, frame = 0
	@ frame_needed = 0, uses_anonymous_args = 0
	@ link register save eliminated.
	bx	lr
	.cantunwind
	.fnend
	.size	_ZNSt23_Sp_counted_ptr_inplaceIN8asiodnp318PrintingSOEHandlerESaIS1_ELN9__gnu_cxx12_Lock_policyE1EED2Ev, .-_ZNSt23_Sp_counted_ptr_inplaceIN8asiodnp318PrintingSOEHandlerESaIS1_ELN9__gnu_cxx12_Lock_policyE1EED2Ev
	.weak	_ZNSt23_Sp_counted_ptr_inplaceIN8asiodnp318PrintingSOEHandlerESaIS1_ELN9__gnu_cxx12_Lock_policyE1EED1Ev
	.set	_ZNSt23_Sp_counted_ptr_inplaceIN8asiodnp318PrintingSOEHandlerESaIS1_ELN9__gnu_cxx12_Lock_policyE1EED1Ev,_ZNSt23_Sp_counted_ptr_inplaceIN8asiodnp318PrintingSOEHandlerESaIS1_ELN9__gnu_cxx12_Lock_policyE1EED2Ev
	.section	.text._ZNSt23_Sp_counted_ptr_inplaceIN8asiodnp318PrintingSOEHandlerESaIS1_ELN9__gnu_cxx12_Lock_policyE1EE10_M_disposeEv,"axG",%progbits,_ZNSt23_Sp_counted_ptr_inplaceIN8asiodnp318PrintingSOEHandlerESaIS1_ELN9__gnu_cxx12_Lock_policyE1EE10_M_disposeEv,comdat
	.align	2
	.weak	_ZNSt23_Sp_counted_ptr_inplaceIN8asiodnp318PrintingSOEHandlerESaIS1_ELN9__gnu_cxx12_Lock_policyE1EE10_M_disposeEv
	.syntax unified
	.arm
	.fpu vfp
	.type	_ZNSt23_Sp_counted_ptr_inplaceIN8asiodnp318PrintingSOEHandlerESaIS1_ELN9__gnu_cxx12_Lock_policyE1EE10_M_disposeEv, %function
_ZNSt23_Sp_counted_ptr_inplaceIN8asiodnp318PrintingSOEHandlerESaIS1_ELN9__gnu_cxx12_Lock_policyE1EE10_M_disposeEv:
	.fnstart
.LFB3995:
	@ args = 0, pretend = 0, frame = 0
	@ frame_needed = 0, uses_anonymous_args = 0
	@ link register save eliminated.
	bx	lr
	.cantunwind
	.fnend
	.size	_ZNSt23_Sp_counted_ptr_inplaceIN8asiodnp318PrintingSOEHandlerESaIS1_ELN9__gnu_cxx12_Lock_policyE1EE10_M_disposeEv, .-_ZNSt23_Sp_counted_ptr_inplaceIN8asiodnp318PrintingSOEHandlerESaIS1_ELN9__gnu_cxx12_Lock_policyE1EE10_M_disposeEv
	.text
	.align	2
	.global	_ZN8asiodnp322DefaultListenCallbacks20GetFirstFrameTimeoutEv
	.syntax unified
	.arm
	.fpu vfp
	.type	_ZN8asiodnp322DefaultListenCallbacks20GetFirstFrameTimeoutEv, %function
_ZN8asiodnp322DefaultListenCallbacks20GetFirstFrameTimeoutEv:
	.fnstart
.LFB3136:
	@ args = 0, pretend = 0, frame = 0
	@ frame_needed = 0, uses_anonymous_args = 0
	push	{r4, lr}
	.save {r4, lr}
	mov	r2, #30
	mov	r4, r0
	mov	r3, #0
	bl	_ZN7openpal12TimeDuration7SecondsEx(PLT)
	mov	r0, r4
	pop	{r4, pc}
	.fnend
	.size	_ZN8asiodnp322DefaultListenCallbacks20GetFirstFrameTimeoutEv, .-_ZN8asiodnp322DefaultListenCallbacks20GetFirstFrameTimeoutEv
	.section	.text._ZNSt23_Sp_counted_ptr_inplaceIN8asiodnp318PrintingSOEHandlerESaIS1_ELN9__gnu_cxx12_Lock_policyE1EE14_M_get_deleterERKSt9type_info,"axG",%progbits,_ZNSt23_Sp_counted_ptr_inplaceIN8asiodnp318PrintingSOEHandlerESaIS1_ELN9__gnu_cxx12_Lock_policyE1EE14_M_get_deleterERKSt9type_info,comdat
	.align	2
	.weak	_ZNSt23_Sp_counted_ptr_inplaceIN8asiodnp318PrintingSOEHandlerESaIS1_ELN9__gnu_cxx12_Lock_policyE1EE14_M_get_deleterERKSt9type_info
	.syntax unified
	.arm
	.fpu vfp
	.type	_ZNSt23_Sp_counted_ptr_inplaceIN8asiodnp318PrintingSOEHandlerESaIS1_ELN9__gnu_cxx12_Lock_policyE1EE14_M_get_deleterERKSt9type_info, %function
_ZNSt23_Sp_counted_ptr_inplaceIN8asiodnp318PrintingSOEHandlerESaIS1_ELN9__gnu_cxx12_Lock_policyE1EE14_M_get_deleterERKSt9type_info:
	.fnstart
.LFB3997:
	@ args = 0, pretend = 0, frame = 0
	@ frame_needed = 0, uses_anonymous_args = 0
	ldr	r3, .L16
	ldr	r2, .L16+4
.LPIC0:
	add	r3, pc, r3
	push	{r4, lr}
	mov	r4, r0
	ldr	r2, [r3, r2]
	mov	r0, r1
	mov	r1, r2
	bl	_ZNKSt9type_infoeqERKS_(PLT)
	cmp	r0, #0
	addne	r0, r4, #36
	pop	{r4, pc}
.L17:
	.align	2
.L16:
	.word	_GLOBAL_OFFSET_TABLE_-(.LPIC0+8)
	.word	_ZTISt19_Sp_make_shared_tag(GOT)
	.cantunwind
	.fnend
	.size	_ZNSt23_Sp_counted_ptr_inplaceIN8asiodnp318PrintingSOEHandlerESaIS1_ELN9__gnu_cxx12_Lock_policyE1EE14_M_get_deleterERKSt9type_info, .-_ZNSt23_Sp_counted_ptr_inplaceIN8asiodnp318PrintingSOEHandlerESaIS1_ELN9__gnu_cxx12_Lock_policyE1EE14_M_get_deleterERKSt9type_info
	.section	.text._ZNSt23_Sp_counted_ptr_inplaceIN8asiodnp324DefaultMasterApplicationESaIS1_ELN9__gnu_cxx12_Lock_policyE1EE14_M_get_deleterERKSt9type_info,"axG",%progbits,_ZNSt23_Sp_counted_ptr_inplaceIN8asiodnp324DefaultMasterApplicationESaIS1_ELN9__gnu_cxx12_Lock_policyE1EE14_M_get_deleterERKSt9type_info,comdat
	.align	2
	.weak	_ZNSt23_Sp_counted_ptr_inplaceIN8asiodnp324DefaultMasterApplicationESaIS1_ELN9__gnu_cxx12_Lock_policyE1EE14_M_get_deleterERKSt9type_info
	.syntax unified
	.arm
	.fpu vfp
	.type	_ZNSt23_Sp_counted_ptr_inplaceIN8asiodnp324DefaultMasterApplicationESaIS1_ELN9__gnu_cxx12_Lock_policyE1EE14_M_get_deleterERKSt9type_info, %function
_ZNSt23_Sp_counted_ptr_inplaceIN8asiodnp324DefaultMasterApplicationESaIS1_ELN9__gnu_cxx12_Lock_policyE1EE14_M_get_deleterERKSt9type_info:
	.fnstart
.LFB3990:
	@ args = 0, pretend = 0, frame = 0
	@ frame_needed = 0, uses_anonymous_args = 0
	ldr	r3, .L22
	ldr	r2, .L22+4
.LPIC1:
	add	r3, pc, r3
	push	{r4, lr}
	mov	r4, r0
	ldr	r2, [r3, r2]
	mov	r0, r1
	mov	r1, r2
	bl	_ZNKSt9type_infoeqERKS_(PLT)
	cmp	r0, #0
	addne	r0, r4, #36
	pop	{r4, pc}
.L23:
	.align	2
.L22:
	.word	_GLOBAL_OFFSET_TABLE_-(.LPIC1+8)
	.word	_ZTISt19_Sp_make_shared_tag(GOT)
	.cantunwind
	.fnend
	.size	_ZNSt23_Sp_counted_ptr_inplaceIN8asiodnp324DefaultMasterApplicationESaIS1_ELN9__gnu_cxx12_Lock_policyE1EE14_M_get_deleterERKSt9type_info, .-_ZNSt23_Sp_counted_ptr_inplaceIN8asiodnp324DefaultMasterApplicationESaIS1_ELN9__gnu_cxx12_Lock_policyE1EE14_M_get_deleterERKSt9type_info
	.section	.text._ZN8asiodnp322DefaultListenCallbacksD0Ev,"axG",%progbits,_ZN8asiodnp322DefaultListenCallbacksD5Ev,comdat
	.align	2
	.weak	_ZN8asiodnp322DefaultListenCallbacksD0Ev
	.syntax unified
	.arm
	.fpu vfp
	.type	_ZN8asiodnp322DefaultListenCallbacksD0Ev, %function
_ZN8asiodnp322DefaultListenCallbacksD0Ev:
	.fnstart
.LFB3127:
	@ args = 0, pretend = 0, frame = 0
	@ frame_needed = 0, uses_anonymous_args = 0
	push	{r4, lr}
	mov	r1, #4
	mov	r4, r0
	bl	_ZdlPvj(PLT)
	mov	r0, r4
	pop	{r4, pc}
	.cantunwind
	.fnend
	.size	_ZN8asiodnp322DefaultListenCallbacksD0Ev, .-_ZN8asiodnp322DefaultListenCallbacksD0Ev
	.section	.text._ZNSt23_Sp_counted_ptr_inplaceIN8asiodnp318PrintingSOEHandlerESaIS1_ELN9__gnu_cxx12_Lock_policyE1EED0Ev,"axG",%progbits,_ZNSt23_Sp_counted_ptr_inplaceIN8asiodnp318PrintingSOEHandlerESaIS1_ELN9__gnu_cxx12_Lock_policyE1EED5Ev,comdat
	.align	2
	.weak	_ZNSt23_Sp_counted_ptr_inplaceIN8asiodnp318PrintingSOEHandlerESaIS1_ELN9__gnu_cxx12_Lock_policyE1EED0Ev
	.syntax unified
	.arm
	.fpu vfp
	.type	_ZNSt23_Sp_counted_ptr_inplaceIN8asiodnp318PrintingSOEHandlerESaIS1_ELN9__gnu_cxx12_Lock_policyE1EED0Ev, %function
_ZNSt23_Sp_counted_ptr_inplaceIN8asiodnp318PrintingSOEHandlerESaIS1_ELN9__gnu_cxx12_Lock_policyE1EED0Ev:
	.fnstart
.LFB3994:
	@ args = 0, pretend = 0, frame = 0
	@ frame_needed = 0, uses_anonymous_args = 0
	push	{r4, lr}
	mov	r1, #40
	mov	r4, r0
	bl	_ZdlPvj(PLT)
	mov	r0, r4
	pop	{r4, pc}
	.cantunwind
	.fnend
	.size	_ZNSt23_Sp_counted_ptr_inplaceIN8asiodnp318PrintingSOEHandlerESaIS1_ELN9__gnu_cxx12_Lock_policyE1EED0Ev, .-_ZNSt23_Sp_counted_ptr_inplaceIN8asiodnp318PrintingSOEHandlerESaIS1_ELN9__gnu_cxx12_Lock_policyE1EED0Ev
	.section	.text._ZNSt23_Sp_counted_ptr_inplaceIN8asiodnp324DefaultMasterApplicationESaIS1_ELN9__gnu_cxx12_Lock_policyE1EED0Ev,"axG",%progbits,_ZNSt23_Sp_counted_ptr_inplaceIN8asiodnp324DefaultMasterApplicationESaIS1_ELN9__gnu_cxx12_Lock_policyE1EED5Ev,comdat
	.align	2
	.weak	_ZNSt23_Sp_counted_ptr_inplaceIN8asiodnp324DefaultMasterApplicationESaIS1_ELN9__gnu_cxx12_Lock_policyE1EED0Ev
	.syntax unified
	.arm
	.fpu vfp
	.type	_ZNSt23_Sp_counted_ptr_inplaceIN8asiodnp324DefaultMasterApplicationESaIS1_ELN9__gnu_cxx12_Lock_policyE1EED0Ev, %function
_ZNSt23_Sp_counted_ptr_inplaceIN8asiodnp324DefaultMasterApplicationESaIS1_ELN9__gnu_cxx12_Lock_policyE1EED0Ev:
	.fnstart
.LFB3987:
	@ args = 0, pretend = 0, frame = 0
	@ frame_needed = 0, uses_anonymous_args = 0
	push	{r4, lr}
	mov	r1, #44
	mov	r4, r0
	bl	_ZdlPvj(PLT)
	mov	r0, r4
	pop	{r4, pc}
	.cantunwind
	.fnend
	.size	_ZNSt23_Sp_counted_ptr_inplaceIN8asiodnp324DefaultMasterApplicationESaIS1_ELN9__gnu_cxx12_Lock_policyE1EED0Ev, .-_ZNSt23_Sp_counted_ptr_inplaceIN8asiodnp324DefaultMasterApplicationESaIS1_ELN9__gnu_cxx12_Lock_policyE1EED0Ev
	.section	.text._ZNSt23_Sp_counted_ptr_inplaceIN8asiodnp324DefaultMasterApplicationESaIS1_ELN9__gnu_cxx12_Lock_policyE1EE10_M_destroyEv,"axG",%progbits,_ZNSt23_Sp_counted_ptr_inplaceIN8asiodnp324DefaultMasterApplicationESaIS1_ELN9__gnu_cxx12_Lock_policyE1EE10_M_destroyEv,comdat
	.align	2
	.weak	_ZNSt23_Sp_counted_ptr_inplaceIN8asiodnp324DefaultMasterApplicationESaIS1_ELN9__gnu_cxx12_Lock_policyE1EE10_M_destroyEv
	.syntax unified
	.arm
	.fpu vfp
	.type	_ZNSt23_Sp_counted_ptr_inplaceIN8asiodnp324DefaultMasterApplicationESaIS1_ELN9__gnu_cxx12_Lock_policyE1EE10_M_destroyEv, %function
_ZNSt23_Sp_counted_ptr_inplaceIN8asiodnp324DefaultMasterApplicationESaIS1_ELN9__gnu_cxx12_Lock_policyE1EE10_M_destroyEv:
	.fnstart
.LFB3989:
	@ args = 0, pretend = 0, frame = 0
	@ frame_needed = 0, uses_anonymous_args = 0
	@ link register save eliminated.
	b	_ZdlPv(PLT)
	.cantunwind
	.fnend
	.size	_ZNSt23_Sp_counted_ptr_inplaceIN8asiodnp324DefaultMasterApplicationESaIS1_ELN9__gnu_cxx12_Lock_policyE1EE10_M_destroyEv, .-_ZNSt23_Sp_counted_ptr_inplaceIN8asiodnp324DefaultMasterApplicationESaIS1_ELN9__gnu_cxx12_Lock_policyE1EE10_M_destroyEv
	.section	.text._ZNSt23_Sp_counted_ptr_inplaceIN8asiodnp318PrintingSOEHandlerESaIS1_ELN9__gnu_cxx12_Lock_policyE1EE10_M_destroyEv,"axG",%progbits,_ZNSt23_Sp_counted_ptr_inplaceIN8asiodnp318PrintingSOEHandlerESaIS1_ELN9__gnu_cxx12_Lock_policyE1EE10_M_destroyEv,comdat
	.align	2
	.weak	_ZNSt23_Sp_counted_ptr_inplaceIN8asiodnp318PrintingSOEHandlerESaIS1_ELN9__gnu_cxx12_Lock_policyE1EE10_M_destroyEv
	.syntax unified
	.arm
	.fpu vfp
	.type	_ZNSt23_Sp_counted_ptr_inplaceIN8asiodnp318PrintingSOEHandlerESaIS1_ELN9__gnu_cxx12_Lock_policyE1EE10_M_destroyEv, %function
_ZNSt23_Sp_counted_ptr_inplaceIN8asiodnp318PrintingSOEHandlerESaIS1_ELN9__gnu_cxx12_Lock_policyE1EE10_M_destroyEv:
	.fnstart
.LFB3996:
	@ args = 0, pretend = 0, frame = 0
	@ frame_needed = 0, uses_anonymous_args = 0
	@ link register save eliminated.
	b	_ZdlPv(PLT)
	.cantunwind
	.fnend
	.size	_ZNSt23_Sp_counted_ptr_inplaceIN8asiodnp318PrintingSOEHandlerESaIS1_ELN9__gnu_cxx12_Lock_policyE1EE10_M_destroyEv, .-_ZNSt23_Sp_counted_ptr_inplaceIN8asiodnp318PrintingSOEHandlerESaIS1_ELN9__gnu_cxx12_Lock_policyE1EE10_M_destroyEv
	.text
	.align	2
	.global	_ZN8asiodnp322DefaultListenCallbacksC2Ev
	.syntax unified
	.arm
	.fpu vfp
	.type	_ZN8asiodnp322DefaultListenCallbacksC2Ev, %function
_ZN8asiodnp322DefaultListenCallbacksC2Ev:
	.fnstart
.LFB3132:
	@ args = 0, pretend = 0, frame = 0
	@ frame_needed = 0, uses_anonymous_args = 0
	@ link register save eliminated.
	ldr	r3, .L33
	ldr	r2, .L33+4
.LPIC2:
	add	r3, pc, r3
	ldr	r3, [r3, r2]
	add	r3, r3, #8
	str	r3, [r0]
	bx	lr
.L34:
	.align	2
.L33:
	.word	_GLOBAL_OFFSET_TABLE_-(.LPIC2+8)
	.word	_ZTVN8asiodnp322DefaultListenCallbacksE(GOT)
	.cantunwind
	.fnend
	.size	_ZN8asiodnp322DefaultListenCallbacksC2Ev, .-_ZN8asiodnp322DefaultListenCallbacksC2Ev
	.global	_ZN8asiodnp322DefaultListenCallbacksC1Ev
	.set	_ZN8asiodnp322DefaultListenCallbacksC1Ev,_ZN8asiodnp322DefaultListenCallbacksC2Ev
	.align	2
	.global	_ZN8asiodnp322DefaultListenCallbacks17SessionIdToStringB5cxx11Ey
	.syntax unified
	.arm
	.fpu vfp
	.type	_ZN8asiodnp322DefaultListenCallbacks17SessionIdToStringB5cxx11Ey, %function
_ZN8asiodnp322DefaultListenCallbacks17SessionIdToStringB5cxx11Ey:
	.fnstart
.LFB3146:
	@ args = 0, pretend = 0, frame = 288
	@ frame_needed = 0, uses_anonymous_args = 0
	push	{r4, r5, r6, r7, r8, r9, r10, fp, lr}
	.save {r4, r5, r6, r7, r8, r9, r10, fp, lr}
	.pad #292
	sub	sp, sp, #292
	add	r7, sp, #152
	mov	r4, r0
	ldr	r5, .L104
	mov	r0, r7
	strd	r2, [sp]
	bl	_ZNSt8ios_baseC2Ev(PLT)
	ldr	r2, .L104+4
.LPIC3:
	add	r5, pc, r5
	ldr	r3, .L104+8
	ldr	r2, [r5, r2]
	mov	r1, #0
	str	r2, [sp, #8]
	add	r2, r2, #8
	strb	r1, [sp, #268]
	str	r1, [sp, #264]
	str	r2, [sp, #152]
	strb	r1, [sp, #269]
	str	r1, [sp, #272]
	str	r1, [sp, #276]
	str	r1, [sp, #280]
	str	r1, [sp, #284]
	ldr	r3, [r5, r3]
	add	r6, sp, #88
	str	r3, [sp, #28]
	ldmib	r3, {r10, fp}
	ldr	r3, [r10, #-12]
	str	r10, [sp, #88]
	add	r0, r6, r3
	str	fp, [r6, r3]
.LEHB0:
	bl	_ZNSt9basic_iosIcSt11char_traitsIcEE4initEPSt15basic_streambufIcS1_E(PLT)
.LEHE0:
	ldr	r2, .L104+12
	ldr	r3, .L104+16
	add	r8, sp, #120
	ldr	r2, [r5, r2]
	mov	r9, #0
	add	r1, r2, #12
	str	r2, [sp, #24]
	add	r2, r2, #32
	str	r1, [sp, #88]
	str	r2, [sp, #152]
	ldr	r3, [r5, r3]
	mov	r0, r8
	str	r3, [sp, #12]
	add	r3, r3, #8
	str	r3, [sp, #92]
	str	r9, [sp, #96]
	str	r9, [sp, #100]
	str	r9, [sp, #104]
	str	r9, [sp, #108]
	str	r9, [sp, #112]
	str	r9, [sp, #116]
	bl	_ZNSt6localeC1Ev(PLT)
	ldr	r3, .L104+20
	add	r1, sp, #136
	str	r1, [sp, #20]
	ldr	r3, [r5, r3]
	mov	ip, r1
	mov	r2, #16
	str	r3, [sp, #16]
	add	r1, sp, #92
	add	r3, r3, #8
	mov	r0, r7
	str	r9, [sp, #132]
	strb	r9, [sp, #136]
	str	r3, [sp, #92]
	str	r2, [sp, #124]
	str	ip, [sp, #128]
.LEHB1:
	bl	_ZNSt9basic_iosIcSt11char_traitsIcEE4initEPSt15basic_streambufIcS1_E(PLT)
.LEHE1:
	ldr	r1, .L104+24
	mov	r2, #8
.LPIC4:
	add	r1, pc, r1
	mov	r0, r6
.LEHB2:
	bl	_ZSt16__ostream_insertIcSt11char_traitsIcEERSt13basic_ostreamIT_T0_ES6_PKS3_i(PLT)
	ldrd	r2, [sp]
	mov	r0, r6
	bl	_ZNSo9_M_insertIyEERSoT_(PLT)
.LEHE2:
	ldr	r3, [sp, #112]
	mov	r2, #0
	add	r9, r4, #8
	cmp	r3, #0
	str	r9, [r4]
	str	r2, [r4, #4]
	strb	r2, [r4, #8]
	beq	.L40
	ldr	r5, [sp, #104]
	ldr	fp, [sp, #108]
	cmp	r3, r5
	bls	.L41
	add	r10, sp, #72
	add	r1, sp, #64
	cmp	fp, r2
	str	r10, [sp, #64]
	str	r1, [sp]
	bne	.L96
	ldr	r0, .L104+28
.LPIC5:
	add	r0, pc, r0
.LEHB3:
	bl	_ZSt19__throw_logic_errorPKc(PLT)
.L41:
	adds	r2, r5, #0
	movne	r2, #1
	cmp	fp, #0
	movne	r2, #0
	add	r10, sp, #48
	add	r3, sp, #40
	cmp	r2, #0
	str	r10, [sp, #40]
	str	r3, [sp]
	beq	.L97
	ldr	r0, .L104+32
.LPIC6:
	add	r0, pc, r0
	bl	_ZSt19__throw_logic_errorPKc(PLT)
.L97:
	sub	r5, r5, fp
	cmp	r5, #15
	str	r5, [sp, #36]
	bhi	.L98
	cmp	r5, #1
	beq	.L99
	cmp	r5, #0
	moveq	r2, r10
	bne	.L100
.L57:
	mov	r3, #0
	str	r5, [sp, #44]
	strb	r3, [r2, r5]
	ldr	r2, [sp, #40]
	ldr	r3, [r4]
	cmp	r2, r10
	beq	.L58
	cmp	r9, r3
	beq	.L59
	ldr	r0, [sp, #44]
	ldr	r1, [sp, #48]
	cmp	r3, #0
	str	r2, [r4]
	str	r0, [r4, #4]
	ldr	r2, [r4, #8]
	str	r1, [r4, #8]
	beq	.L60
	str	r3, [sp, #40]
	str	r2, [sp, #48]
.L61:
	mov	r2, #0
	str	r2, [sp, #44]
	strb	r2, [r3]
	ldr	r0, [sp, #40]
	cmp	r0, r10
	beq	.L62
.L90:
	bl	_ZdlPv(PLT)
.L62:
	ldr	r3, [sp, #28]
	ldmib	r3, {r10, fp}
.L52:
	ldr	r3, [sp, #16]
	ldr	r0, [sp, #128]
	add	r1, r3, #8
	ldr	r3, [sp, #20]
	str	r1, [sp, #92]
	cmp	r0, r3
	ldr	r3, [sp, #24]
	add	r2, r3, #12
	add	r3, r3, #32
	str	r2, [sp, #88]
	str	r3, [sp, #152]
	beq	.L66
	bl	_ZdlPv(PLT)
.L66:
	ldr	r3, [sp, #12]
	mov	r0, r8
	add	r3, r3, #8
	str	r3, [sp, #92]
	bl	_ZNSt6localeD1Ev(PLT)
	ldr	r3, [r10, #-12]
	add	r1, sp, #288
	ldr	r2, [sp, #8]
	add	r3, r1, r3
	add	r2, r2, #8
	str	r10, [sp, #88]
	mov	r0, r7
	str	fp, [r3, #-200]
	str	r2, [sp, #152]
	bl	_ZNSt8ios_baseD2Ev(PLT)
	mov	r0, r4
	add	sp, sp, #292
	@ sp needed
	pop	{r4, r5, r6, r7, r8, r9, r10, fp, pc}
.L96:
	sub	r5, r3, fp
	cmp	r5, #15
	str	r5, [sp, #32]
	bhi	.L101
	cmp	r5, #1
	beq	.L102
	cmp	r5, #0
	moveq	r2, r10
	bne	.L103
.L46:
	mov	r3, #0
	str	r5, [sp, #68]
	strb	r3, [r2, r5]
	ldr	r2, [sp, #64]
	ldr	r3, [r4]
	cmp	r2, r10
	beq	.L47
	cmp	r9, r3
	beq	.L48
	ldr	r0, [sp, #68]
	ldr	r1, [sp, #72]
	cmp	r3, #0
	str	r2, [r4]
	str	r0, [r4, #4]
	ldr	r2, [r4, #8]
	str	r1, [r4, #8]
	beq	.L49
	str	r3, [sp, #64]
	str	r2, [sp, #72]
.L50:
	mov	r2, #0
	str	r2, [sp, #68]
	strb	r2, [r3]
	ldr	r0, [sp, #64]
	cmp	r0, r10
	bne	.L90
	b	.L62
.L101:
	mov	r0, r1
	add	r1, sp, #32
	bl	_ZNSt7__cxx1112basic_stringIcSt11char_traitsIcESaIcEE9_M_createERjj(PLT)
	ldr	r3, [sp, #32]
	str	r0, [sp, #64]
	str	r3, [sp, #72]
.L44:
	mov	r2, r5
	mov	r1, fp
	bl	memcpy(PLT)
	ldr	r5, [sp, #32]
	ldr	r2, [sp, #64]
	b	.L46
.L98:
	mov	r0, r3
	add	r1, sp, #36
	bl	_ZNSt7__cxx1112basic_stringIcSt11char_traitsIcESaIcEE9_M_createERjj(PLT)
	ldr	r3, [sp, #36]
	str	r0, [sp, #40]
	str	r3, [sp, #48]
.L55:
	mov	r2, r5
	mov	r1, fp
	bl	memcpy(PLT)
	ldr	r5, [sp, #36]
	ldr	r2, [sp, #40]
	b	.L57
.L102:
	ldrb	r3, [fp]	@ zero_extendqisi2
	mov	r2, r10
	strb	r3, [sp, #72]
	b	.L46
.L99:
	ldrb	r3, [fp]	@ zero_extendqisi2
	mov	r2, r10
	strb	r3, [sp, #48]
	b	.L57
.L40:
	add	r1, sp, #128
	mov	r0, r4
	bl	_ZNSt7__cxx1112basic_stringIcSt11char_traitsIcESaIcEE9_M_assignERKS4_(PLT)
.LEHE3:
	b	.L52
.L59:
	ldr	r1, [sp, #44]
	ldr	r3, [sp, #48]
	str	r2, [r4]
	stmib	r4, {r1, r3}
.L60:
	str	r10, [sp, #40]
	add	r10, sp, #48
	mov	r3, r10
	b	.L61
.L48:
	ldr	r1, [sp, #68]
	ldr	r3, [sp, #72]
	str	r2, [r4]
	stmib	r4, {r1, r3}
.L49:
	str	r10, [sp, #64]
	add	r10, sp, #72
	mov	r3, r10
	b	.L50
.L76:
	ldr	r0, [r4]
	cmp	r9, r0
	beq	.L65
	bl	_ZdlPv(PLT)
.L65:
	mov	r0, r6
	bl	_ZNSt7__cxx1119basic_ostringstreamIcSt11char_traitsIcESaIcEED1Ev(PLT)
.LEHB4:
	bl	__cxa_end_cleanup(PLT)
.LEHE4:
.L58:
	ldr	r1, [sp]
	mov	r0, r4
	bl	_ZNSt7__cxx1112basic_stringIcSt11char_traitsIcESaIcEE9_M_assignERKS4_(PLT)
	ldr	r3, [sp, #40]
	b	.L61
.L47:
	ldr	r1, [sp]
	mov	r0, r4
	bl	_ZNSt7__cxx1112basic_stringIcSt11char_traitsIcESaIcEE9_M_assignERKS4_(PLT)
	ldr	r3, [sp, #64]
	b	.L50
.L103:
	mov	r0, r10
	b	.L44
.L100:
	mov	r0, r10
	b	.L55
.L75:
	ldr	r0, [sp, #128]
	ldr	r2, [sp, #16]
	add	r3, r6, #48
	add	r2, r2, #8
	cmp	r0, r3
	str	r2, [sp, #92]
	beq	.L38
	bl	_ZdlPv(PLT)
.L38:
	ldr	r3, [sp, #12]
	add	r0, r6, #32
	add	r3, r3, #8
	str	r3, [sp, #92]
	bl	_ZNSt6localeD1Ev(PLT)
	ldr	r3, [r10, #-12]
	add	r2, sp, #288
	add	r3, r2, r3
	str	r10, [sp, #88]
	str	fp, [r3, #-200]
.L39:
	ldr	r3, [sp, #8]
	add	r0, r6, #64
	add	r3, r3, #8
	str	r3, [sp, #152]
	bl	_ZNSt8ios_baseD2Ev(PLT)
.LEHB5:
	bl	__cxa_end_cleanup(PLT)
.LEHE5:
.L74:
	b	.L39
.L73:
	b	.L65
.L105:
	.align	2
.L104:
	.word	_GLOBAL_OFFSET_TABLE_-(.LPIC3+8)
	.word	_ZTVSt9basic_iosIcSt11char_traitsIcEE(GOT)
	.word	_ZTTNSt7__cxx1119basic_ostringstreamIcSt11char_traitsIcESaIcEEE(GOT)
	.word	_ZTVNSt7__cxx1119basic_ostringstreamIcSt11char_traitsIcESaIcEEE(GOT)
	.word	_ZTVSt15basic_streambufIcSt11char_traitsIcEE(GOT)
	.word	_ZTVNSt7__cxx1115basic_stringbufIcSt11char_traitsIcESaIcEEE(GOT)
	.word	.LC0-(.LPIC4+8)
	.word	.LC1-(.LPIC5+8)
	.word	.LC1-(.LPIC6+8)
	.global	__gxx_personality_v0
	.personality	__gxx_personality_v0
	.handlerdata
.LLSDA3146:
	.byte	0xff
	.byte	0xff
	.byte	0x1
	.uleb128 .LLSDACSE3146-.LLSDACSB3146
.LLSDACSB3146:
	.uleb128 .LEHB0-.LFB3146
	.uleb128 .LEHE0-.LEHB0
	.uleb128 .L74-.LFB3146
	.uleb128 0
	.uleb128 .LEHB1-.LFB3146
	.uleb128 .LEHE1-.LEHB1
	.uleb128 .L75-.LFB3146
	.uleb128 0
	.uleb128 .LEHB2-.LFB3146
	.uleb128 .LEHE2-.LEHB2
	.uleb128 .L73-.LFB3146
	.uleb128 0
	.uleb128 .LEHB3-.LFB3146
	.uleb128 .LEHE3-.LEHB3
	.uleb128 .L76-.LFB3146
	.uleb128 0
	.uleb128 .LEHB4-.LFB3146
	.uleb128 .LEHE4-.LEHB4
	.uleb128 0
	.uleb128 0
	.uleb128 .LEHB5-.LFB3146
	.uleb128 .LEHE5-.LEHB5
	.uleb128 0
	.uleb128 0
.LLSDACSE3146:
	.text
	.fnend
	.size	_ZN8asiodnp322DefaultListenCallbacks17SessionIdToStringB5cxx11Ey, .-_ZN8asiodnp322DefaultListenCallbacks17SessionIdToStringB5cxx11Ey
	.section	.text._ZNSt16_Sp_counted_baseILN9__gnu_cxx12_Lock_policyE1EE10_M_releaseEv,"axG",%progbits,_ZNSt16_Sp_counted_baseILN9__gnu_cxx12_Lock_policyE1EE10_M_releaseEv,comdat
	.align	2
	.weak	_ZNSt16_Sp_counted_baseILN9__gnu_cxx12_Lock_policyE1EE10_M_releaseEv
	.syntax unified
	.arm
	.fpu vfp
	.type	_ZNSt16_Sp_counted_baseILN9__gnu_cxx12_Lock_policyE1EE10_M_releaseEv, %function
_ZNSt16_Sp_counted_baseILN9__gnu_cxx12_Lock_policyE1EE10_M_releaseEv:
	.fnstart
.LFB3552:
	@ args = 0, pretend = 0, frame = 0
	@ frame_needed = 0, uses_anonymous_args = 0
	ldr	r3, .L118
	ldr	r2, .L118+4
.LPIC7:
	add	r3, pc, r3
	push	{r4, r5, r6, lr}
	mov	r4, r0
	ldr	r3, [r3, r2]
	cmp	r3, #0
	beq	.L107
	add	r3, r0, #28
	mcr	p15, 0, r0, c7, c10, 5
.L114:
	ldrex	r2, [r3]
	sub	r1, r2, #1
	strex	ip, r1, [r3]
	cmp	ip, #0
	bne	.L114
	cmp	r2, #1
	mcr	p15, 0, r0, c7, c10, 5
	popne	{r4, r5, r6, pc}
	mov	r5, r4
	ldr	r3, [r5], #32
	ldr	r3, [r3, #8]
	blx	r3
	mcr	p15, 0, r0, c7, c10, 5
	mcr	p15, 0, r0, c7, c10, 5
.L113:
	ldrex	r3, [r5]
	sub	r2, r3, #1
	strex	r1, r2, [r5]
	cmp	r1, #0
	bne	.L113
	mcr	p15, 0, r0, c7, c10, 5
.L112:
	cmp	r3, #1
	popne	{r4, r5, r6, pc}
	ldr	r3, [r4]
	mov	r0, r4
	pop	{r4, r5, r6, lr}
	ldr	r3, [r3, #12]
	bx	r3	@ indirect register sibling call
.L107:
	ldr	r3, [r0, #28]
	cmp	r3, #1
	sub	r3, r3, #1
	str	r3, [r0, #28]
	popne	{r4, r5, r6, pc}
	ldr	r3, [r0]
	ldr	r3, [r3, #8]
	blx	r3
	mcr	p15, 0, r0, c7, c10, 5
	ldr	r3, [r4, #32]
	sub	r2, r3, #1
	str	r2, [r4, #32]
	b	.L112
.L119:
	.align	2
.L118:
	.word	_GLOBAL_OFFSET_TABLE_-(.LPIC7+8)
	.word	_ZL28__gthrw___pthread_key_createPjPFvPvE(GOT)
	.cantunwind
	.fnend
	.size	_ZNSt16_Sp_counted_baseILN9__gnu_cxx12_Lock_policyE1EE10_M_releaseEv, .-_ZNSt16_Sp_counted_baseILN9__gnu_cxx12_Lock_policyE1EE10_M_releaseEv
	.text
	.align	2
	.global	_ZN8asiodnp322DefaultListenCallbacks12OnFirstFrameEyRKN8opendnp316LinkHeaderFieldsERNS_16ISessionAcceptorE
	.syntax unified
	.arm
	.fpu vfp
	.type	_ZN8asiodnp322DefaultListenCallbacks12OnFirstFrameEyRKN8opendnp316LinkHeaderFieldsERNS_16ISessionAcceptorE, %function
_ZN8asiodnp322DefaultListenCallbacks12OnFirstFrameEyRKN8opendnp316LinkHeaderFieldsERNS_16ISessionAcceptorE:
	.fnstart
.LFB3137:
	@ args = 8, pretend = 0, frame = 128
	@ frame_needed = 0, uses_anonymous_args = 0
	push	{r4, r5, r6, r7, r8, r9, r10, fp, lr}
	.save {r4, r5, r6, r7, r8, r9, r10, fp, lr}
	.pad #140
	sub	sp, sp, #140
	add	r10, sp, #64
	mov	r7, #0
	mov	r4, #1
	mov	fp, r0
	mov	r8, r2
	mov	r0, r10
	mov	r2, #5
	mov	r9, r3
	mov	r3, #0
	ldr	r5, [sp, #176]
.LEHB6:
	bl	_ZN7openpal12TimeDuration7SecondsEx(PLT)
	strb	r7, [sp, #72]
	strb	r7, [sp, #74]
	strb	r4, [sp, #73]
	bl	_ZN8opendnp310ClassField15AllEventClassesEv(PLT)
	ldr	r6, .L206
.LPIC8:
	add	r6, pc, r6
	strb	r0, [sp, #75]
	bl	_ZN8opendnp310ClassField10AllClassesEv(PLT)
	strb	r4, [sp, #77]
	strb	r0, [sp, #76]
	bl	_ZN8opendnp310ClassField4NoneEv(PLT)
	mov	r2, #5
	mov	r3, #0
	strb	r0, [sp, #78]
	add	r0, sp, #80
	bl	_ZN7openpal12TimeDuration7SecondsEx(PLT)
	mov	r2, #10
	mov	r3, #0
	add	r0, sp, #88
	bl	_ZN7openpal12TimeDuration7SecondsEx(PLT)
	mov	r3, #2048
	mov	r2, #67108865
	add	r0, sp, #120
	str	r3, [sp, #96]
	str	r3, [sp, #100]
	str	r2, [sp, #112]
	mov	r3, #0
	mov	r2, #1
	strb	r7, [sp, #105]
	str	r7, [sp, #108]
	strb	r4, [sp, #104]
	bl	_ZN7openpal12TimeDuration7SecondsEx(PLT)
	mov	r2, #1
	mov	r3, #0
	add	r0, sp, #128
	bl	_ZN7openpal12TimeDuration7MinutesEx(PLT)
	ldr	r3, [r5, #4]	@ unaligned
	mov	r0, #40
	str	r3, [sp, #112]
	bl	_Znwj(PLT)
.LEHE6:
	ldr	r1, .L206+4
	ldr	r2, .L206+8
	ldr	r3, .L206+12
	str	r7, [r0, #4]
	str	r7, [r0, #8]
	str	r7, [r0, #12]
	str	r7, [r0, #16]
	str	r7, [r0, #20]
	str	r7, [r0, #24]
	str	r4, [r0, #28]
	str	r4, [r0, #32]
	ldr	r1, [r6, r1]
	mov	r5, r0
	add	r1, r1, #8
	str	r1, [r0]
	ldr	r2, [r6, r2]
	add	r2, r2, #8
	str	r2, [r0, #36]
	ldr	r7, [r6, r3]
	mov	r1, r7
	bl	_ZNSt23_Sp_counted_ptr_inplaceIN8asiodnp318PrintingSOEHandlerESaIS1_ELN9__gnu_cxx12_Lock_policyE1EE14_M_get_deleterERKSt9type_info(PLT)
	str	r0, [sp, #8]
	mov	r0, #44
.LEHB7:
	bl	_Znwj(PLT)
.LEHE7:
	ldr	r1, .L206+16
	mov	r3, #0
	str	r3, [r0, #4]
	str	r3, [r0, #8]
	str	r3, [r0, #12]
	str	r3, [r0, #16]
	str	r3, [r0, #20]
	str	r3, [r0, #24]
	mov	r3, #1
	str	r3, [r0, #28]
	str	r3, [r0, #32]
	ldr	r3, .L206+20
	ldr	r2, [r6, r1]
	mov	r1, r7
	add	r2, r2, #8
	str	r2, [r0]
	ldr	r3, [r6, r3]
	mov	r4, r0
	add	r2, r3, #8
	add	r3, r3, #72
	str	r2, [r0, #36]
	str	r3, [r0, #40]
	bl	_ZNSt23_Sp_counted_ptr_inplaceIN8asiodnp324DefaultMasterApplicationESaIS1_ELN9__gnu_cxx12_Lock_policyE1EE14_M_get_deleterERKSt9type_info(PLT)
	ldr	r2, [sp, #180]
	add	r7, sp, #40
	mov	r1, fp
	ldr	ip, [r2]
	mov	r3, r9
	mov	r2, r8
	ldr	fp, [ip, #8]
	str	r0, [sp, #12]
	mov	r0, r7
.LEHB8:
	bl	_ZN8asiodnp322DefaultListenCallbacks17SessionIdToStringB5cxx11Ey(PLT)
.LEHE8:
	ldr	r3, .L206+24
	ldr	r2, [sp, #8]
	str	r5, [sp, #28]
	str	r2, [sp, #24]
	ldr	r6, [r6, r3]
	add	r8, r5, #28
	cmp	r6, #0
	beq	.L121
	mcr	p15, 0, r0, c7, c10, 5
.L186:
	ldrex	r2, [r8]
	add	r2, r2, #1
	strex	r1, r2, [r8]
	cmp	r1, #0
	bne	.L186
	mcr	p15, 0, r0, c7, c10, 5
	ldr	r3, [sp, #12]
	add	r9, r4, #28
	str	r3, [sp, #32]
	str	r4, [sp, #36]
	mcr	p15, 0, r0, c7, c10, 5
.L187:
	ldrex	r3, [r9]
	add	r3, r3, #1
	strex	r2, r3, [r9]
	cmp	r2, #0
	bne	.L187
	mcr	p15, 0, r0, c7, c10, 5
.L122:
	add	r3, sp, #32
	str	r3, [sp]
	str	r10, [sp, #4]
	ldr	r1, [sp, #180]
	add	r3, sp, #24
	mov	r2, r7
	add	r0, sp, #16
.LEHB9:
	blx	fp
.LEHE9:
	ldr	r7, [sp, #36]
	cmp	r7, #0
	beq	.L124
	cmp	r6, #0
	beq	.L125
	add	r3, r7, #28
	mcr	p15, 0, r0, c7, c10, 5
.L185:
	ldrex	r2, [r3]
	sub	r1, r2, #1
	strex	r0, r1, [r3]
	cmp	r0, #0
	bne	.L185
	cmp	r2, #1
	mcr	p15, 0, r0, c7, c10, 5
	beq	.L200
.L124:
	ldr	r7, [sp, #28]
	cmp	r7, #0
	beq	.L130
	cmp	r6, #0
	beq	.L131
	add	r3, r7, #28
	mcr	p15, 0, r0, c7, c10, 5
.L184:
	ldrex	r2, [r3]
	sub	r1, r2, #1
	strex	r0, r1, [r3]
	cmp	r0, #0
	bne	.L184
	cmp	r2, #1
	mcr	p15, 0, r0, c7, c10, 5
	beq	.L201
.L130:
	ldr	r0, [sp, #40]
	add	r3, sp, #48
	cmp	r0, r3
	beq	.L135
	bl	_ZdlPv(PLT)
.L135:
	ldr	r7, [sp, #20]
	cmp	r7, #0
	beq	.L155
	cmp	r6, #0
	beq	.L136
	add	r3, r7, #28
	mcr	p15, 0, r0, c7, c10, 5
.L183:
	ldrex	r2, [r3]
	sub	r1, r2, #1
	strex	r0, r1, [r3]
	cmp	r0, #0
	bne	.L183
	cmp	r2, #1
	mcr	p15, 0, r0, c7, c10, 5
	beq	.L202
.L155:
	cmp	r6, #0
	beq	.L140
.L205:
	mcr	p15, 0, r0, c7, c10, 5
.L182:
	ldrex	r3, [r9]
	sub	r2, r3, #1
	strex	r1, r2, [r9]
	cmp	r1, #0
	bne	.L182
	cmp	r3, #1
	mcr	p15, 0, r0, c7, c10, 5
	beq	.L203
.L159:
	cmp	r6, #0
	beq	.L144
	mcr	p15, 0, r0, c7, c10, 5
.L181:
	ldrex	r3, [r8]
	sub	r2, r3, #1
	strex	r1, r2, [r8]
	cmp	r1, #0
	bne	.L181
	cmp	r3, #1
	mcr	p15, 0, r0, c7, c10, 5
	beq	.L204
.L120:
	add	sp, sp, #140
	@ sp needed
	pop	{r4, r5, r6, r7, r8, r9, r10, fp, pc}
.L131:
	ldr	r3, [r7, #28]
	cmp	r3, #1
	sub	r3, r3, #1
	str	r3, [r7, #28]
	bne	.L130
	ldr	r3, [r7]
	mov	r0, r7
	ldr	r3, [r3, #8]
	blx	r3
	mcr	p15, 0, r0, c7, c10, 5
	ldr	r2, [r7, #32]
	sub	r3, r2, #1
	str	r3, [r7, #32]
	b	.L163
.L136:
	ldr	r3, [r7, #28]
	cmp	r3, #1
	sub	r3, r3, #1
	str	r3, [r7, #28]
	bne	.L155
	ldr	r3, [r7]
	mov	r0, r7
	ldr	r3, [r3, #8]
	blx	r3
	mcr	p15, 0, r0, c7, c10, 5
	ldr	r2, [r7, #32]
	sub	r3, r2, #1
	str	r3, [r7, #32]
	b	.L165
.L125:
	ldr	r3, [r7, #28]
	cmp	r3, #1
	sub	r3, r3, #1
	str	r3, [r7, #28]
	bne	.L124
	ldr	r3, [r7]
	mov	r0, r7
	ldr	r3, [r3, #8]
	blx	r3
	mcr	p15, 0, r0, c7, c10, 5
	ldr	r2, [r7, #32]
	sub	r3, r2, #1
	str	r3, [r7, #32]
	b	.L162
.L140:
	ldr	r3, [r4, #28]
	cmp	r3, #1
	sub	r3, r3, #1
	str	r3, [r4, #28]
	bne	.L159
	ldr	r3, [r4]
	mov	r0, r4
	ldr	r3, [r3, #8]
	blx	r3
	mcr	p15, 0, r0, c7, c10, 5
	ldr	r2, [r4, #32]
	sub	r3, r2, #1
	str	r3, [r4, #32]
	b	.L166
.L121:
	ldr	r2, [r5, #28]
	ldr	r3, [r4, #28]
	ldr	r1, [sp, #12]
	add	r2, r2, #1
	add	r3, r3, #1
	str	r1, [sp, #32]
	str	r4, [sp, #36]
	str	r2, [r5, #28]
	add	r9, r4, #28
	str	r3, [r4, #28]
	b	.L122
.L144:
	ldr	r3, [r5, #28]
	cmp	r3, #1
	sub	r3, r3, #1
	str	r3, [r5, #28]
	bne	.L120
	ldr	r3, [r5]
	mov	r0, r5
	ldr	r3, [r3, #8]
	blx	r3
	mcr	p15, 0, r0, c7, c10, 5
	ldr	r2, [r5, #32]
	sub	r3, r2, #1
	str	r3, [r5, #32]
	b	.L164
.L201:
	ldr	r3, [r7]
	mov	r0, r7
	ldr	r3, [r3, #8]
	blx	r3
	add	r3, r7, #32
	mcr	p15, 0, r0, c7, c10, 5
	mcr	p15, 0, r0, c7, c10, 5
.L179:
	ldrex	r2, [r3]
	sub	r1, r2, #1
	strex	r0, r1, [r3]
	cmp	r0, #0
	bne	.L179
	mcr	p15, 0, r0, c7, c10, 5
.L163:
	cmp	r2, #1
	bne	.L130
	ldr	r3, [r7]
	mov	r0, r7
	ldr	r3, [r3, #12]
	blx	r3
	b	.L130
.L202:
	ldr	r3, [r7]
	mov	r0, r7
	ldr	r3, [r3, #8]
	blx	r3
	add	r3, r7, #32
	mcr	p15, 0, r0, c7, c10, 5
	mcr	p15, 0, r0, c7, c10, 5
.L177:
	ldrex	r2, [r3]
	sub	r1, r2, #1
	strex	r0, r1, [r3]
	cmp	r0, #0
	bne	.L177
	mcr	p15, 0, r0, c7, c10, 5
.L165:
	cmp	r2, #1
	bne	.L155
	ldr	r3, [r7]
	mov	r0, r7
	ldr	r3, [r3, #12]
	blx	r3
	cmp	r6, #0
	bne	.L205
	b	.L140
.L200:
	ldr	r3, [r7]
	mov	r0, r7
	ldr	r3, [r3, #8]
	blx	r3
	add	r3, r7, #32
	mcr	p15, 0, r0, c7, c10, 5
	mcr	p15, 0, r0, c7, c10, 5
.L180:
	ldrex	r2, [r3]
	sub	r1, r2, #1
	strex	r0, r1, [r3]
	cmp	r0, #0
	bne	.L180
	mcr	p15, 0, r0, c7, c10, 5
.L162:
	cmp	r2, #1
	bne	.L124
	ldr	r3, [r7]
	mov	r0, r7
	ldr	r3, [r3, #12]
	blx	r3
	b	.L124
.L204:
	ldr	r3, [r5]
	mov	r0, r5
	ldr	r3, [r3, #8]
	blx	r3
	add	r3, r5, #32
	mcr	p15, 0, r0, c7, c10, 5
	mcr	p15, 0, r0, c7, c10, 5
.L178:
	ldrex	r2, [r3]
	sub	r1, r2, #1
	strex	r0, r1, [r3]
	cmp	r0, #0
	bne	.L178
	mcr	p15, 0, r0, c7, c10, 5
.L164:
	cmp	r2, #1
	bne	.L120
	ldr	r3, [r5]
	mov	r0, r5
	ldr	r3, [r3, #12]
	blx	r3
	b	.L120
.L203:
	ldr	r3, [r4]
	mov	r0, r4
	ldr	r3, [r3, #8]
	blx	r3
	add	r3, r4, #32
	mcr	p15, 0, r0, c7, c10, 5
	mcr	p15, 0, r0, c7, c10, 5
.L176:
	ldrex	r2, [r3]
	sub	r1, r2, #1
	strex	r0, r1, [r3]
	cmp	r0, #0
	bne	.L176
	mcr	p15, 0, r0, c7, c10, 5
.L166:
	cmp	r2, #1
	bne	.L159
	ldr	r3, [r4]
	mov	r0, r4
	ldr	r3, [r3, #12]
	blx	r3
	b	.L159
.L168:
.L153:
	mov	r0, r4
	bl	_ZNSt16_Sp_counted_baseILN9__gnu_cxx12_Lock_policyE1EE10_M_releaseEv(PLT)
.L154:
	mov	r0, r5
	bl	_ZNSt16_Sp_counted_baseILN9__gnu_cxx12_Lock_policyE1EE10_M_releaseEv(PLT)
.LEHB10:
	bl	__cxa_end_cleanup(PLT)
.LEHE10:
.L169:
	ldr	r0, [sp, #36]
	cmp	r0, #0
	beq	.L150
	bl	_ZNSt16_Sp_counted_baseILN9__gnu_cxx12_Lock_policyE1EE10_M_releaseEv(PLT)
.L150:
	ldr	r0, [sp, #28]
	cmp	r0, #0
	beq	.L151
	bl	_ZNSt16_Sp_counted_baseILN9__gnu_cxx12_Lock_policyE1EE10_M_releaseEv(PLT)
.L151:
	ldr	r0, [sp, #40]
	add	r7, r7, #8
	cmp	r0, r7
	beq	.L153
	bl	_ZdlPv(PLT)
	b	.L153
.L167:
	b	.L154
.L207:
	.align	2
.L206:
	.word	_GLOBAL_OFFSET_TABLE_-(.LPIC8+8)
	.word	_ZTVSt23_Sp_counted_ptr_inplaceIN8asiodnp318PrintingSOEHandlerESaIS1_ELN9__gnu_cxx12_Lock_policyE1EE(GOT)
	.word	_ZTVN8asiodnp318PrintingSOEHandlerE(GOT)
	.word	_ZTISt19_Sp_make_shared_tag(GOT)
	.word	_ZTVSt23_Sp_counted_ptr_inplaceIN8asiodnp324DefaultMasterApplicationESaIS1_ELN9__gnu_cxx12_Lock_policyE1EE(GOT)
	.word	_ZTVN8asiodnp324DefaultMasterApplicationE(GOT)
	.word	_ZL28__gthrw___pthread_key_createPjPFvPvE(GOT)
	.personality	__gxx_personality_v0
	.handlerdata
.LLSDA3137:
	.byte	0xff
	.byte	0xff
	.byte	0x1
	.uleb128 .LLSDACSE3137-.LLSDACSB3137
.LLSDACSB3137:
	.uleb128 .LEHB6-.LFB3137
	.uleb128 .LEHE6-.LEHB6
	.uleb128 0
	.uleb128 0
	.uleb128 .LEHB7-.LFB3137
	.uleb128 .LEHE7-.LEHB7
	.uleb128 .L167-.LFB3137
	.uleb128 0
	.uleb128 .LEHB8-.LFB3137
	.uleb128 .LEHE8-.LEHB8
	.uleb128 .L168-.LFB3137
	.uleb128 0
	.uleb128 .LEHB9-.LFB3137
	.uleb128 .LEHE9-.LEHB9
	.uleb128 .L169-.LFB3137
	.uleb128 0
	.uleb128 .LEHB10-.LFB3137
	.uleb128 .LEHE10-.LEHB10
	.uleb128 0
	.uleb128 0
.LLSDACSE3137:
	.text
	.fnend
	.size	_ZN8asiodnp322DefaultListenCallbacks12OnFirstFrameEyRKN8opendnp316LinkHeaderFieldsERNS_16ISessionAcceptorE, .-_ZN8asiodnp322DefaultListenCallbacks12OnFirstFrameEyRKN8opendnp316LinkHeaderFieldsERNS_16ISessionAcceptorE
	.section	.text.startup,"ax",%progbits
	.align	2
	.syntax unified
	.arm
	.fpu vfp
	.type	_GLOBAL__sub_I_DefaultListenCallbacks.cpp, %function
_GLOBAL__sub_I_DefaultListenCallbacks.cpp:
	.fnstart
.LFB4014:
	@ args = 0, pretend = 0, frame = 8
	@ frame_needed = 0, uses_anonymous_args = 0
	push	{r4, lr}
	sub	sp, sp, #8
	ldr	r4, .L210
	ldr	r2, .L210+4
.LPIC9:
	add	r4, pc, r4
	mov	r3, #0
	mov	r0, sp
	bl	_ZN7openpal12TimeDuration12MillisecondsEx(PLT)
	mov	r0, r4
	bl	_ZNSt8ios_base4InitC1Ev(PLT)
	ldr	r3, .L210+8
	ldr	r1, .L210+12
.LPIC11:
	add	r3, pc, r3
	ldr	r2, .L210+16
	mov	r0, r4
.LPIC10:
	add	r2, pc, r2
	ldr	r1, [r3, r1]
	add	sp, sp, #8
	@ sp needed
	pop	{r4, lr}
	b	__aeabi_atexit(PLT)
.L211:
	.align	2
.L210:
	.word	.LANCHOR0-(.LPIC9+8)
	.word	5000
	.word	_GLOBAL_OFFSET_TABLE_-(.LPIC11+8)
	.word	_ZNSt8ios_base4InitD1Ev(GOT)
	.word	__dso_handle-(.LPIC10+8)
	.cantunwind
	.fnend
	.size	_GLOBAL__sub_I_DefaultListenCallbacks.cpp, .-_GLOBAL__sub_I_DefaultListenCallbacks.cpp
	.section	.init_array,"aw"
	.align	2
	.word	_GLOBAL__sub_I_DefaultListenCallbacks.cpp
	.weak	_ZTSN9__gnu_cxx7__mutexE
	.section	.rodata._ZTSN9__gnu_cxx7__mutexE,"aG",%progbits,_ZTSN9__gnu_cxx7__mutexE,comdat
	.align	2
	.type	_ZTSN9__gnu_cxx7__mutexE, %object
	.size	_ZTSN9__gnu_cxx7__mutexE, 21
_ZTSN9__gnu_cxx7__mutexE:
	.ascii	"N9__gnu_cxx7__mutexE\000"
	.weak	_ZTIN9__gnu_cxx7__mutexE
	.section	.data.rel.ro._ZTIN9__gnu_cxx7__mutexE,"awG",%progbits,_ZTIN9__gnu_cxx7__mutexE,comdat
	.align	2
	.type	_ZTIN9__gnu_cxx7__mutexE, %object
	.size	_ZTIN9__gnu_cxx7__mutexE, 8
_ZTIN9__gnu_cxx7__mutexE:
	.word	_ZTVN10__cxxabiv117__class_type_infoE+8
	.word	_ZTSN9__gnu_cxx7__mutexE
	.weak	_ZTSSt11_Mutex_baseILN9__gnu_cxx12_Lock_policyE1EE
	.section	.rodata._ZTSSt11_Mutex_baseILN9__gnu_cxx12_Lock_policyE1EE,"aG",%progbits,_ZTSSt11_Mutex_baseILN9__gnu_cxx12_Lock_policyE1EE,comdat
	.align	2
	.type	_ZTSSt11_Mutex_baseILN9__gnu_cxx12_Lock_policyE1EE, %object
	.size	_ZTSSt11_Mutex_baseILN9__gnu_cxx12_Lock_policyE1EE, 47
_ZTSSt11_Mutex_baseILN9__gnu_cxx12_Lock_policyE1EE:
	.ascii	"St11_Mutex_baseILN9__gnu_cxx12_Lock_policyE1EE\000"
	.weak	_ZTISt11_Mutex_baseILN9__gnu_cxx12_Lock_policyE1EE
	.section	.data.rel.ro._ZTISt11_Mutex_baseILN9__gnu_cxx12_Lock_policyE1EE,"awG",%progbits,_ZTISt11_Mutex_baseILN9__gnu_cxx12_Lock_policyE1EE,comdat
	.align	2
	.type	_ZTISt11_Mutex_baseILN9__gnu_cxx12_Lock_policyE1EE, %object
	.size	_ZTISt11_Mutex_baseILN9__gnu_cxx12_Lock_policyE1EE, 12
_ZTISt11_Mutex_baseILN9__gnu_cxx12_Lock_policyE1EE:
	.word	_ZTVN10__cxxabiv120__si_class_type_infoE+8
	.word	_ZTSSt11_Mutex_baseILN9__gnu_cxx12_Lock_policyE1EE
	.word	_ZTIN9__gnu_cxx7__mutexE
	.weak	_ZTSSt16_Sp_counted_baseILN9__gnu_cxx12_Lock_policyE1EE
	.section	.rodata._ZTSSt16_Sp_counted_baseILN9__gnu_cxx12_Lock_policyE1EE,"aG",%progbits,_ZTSSt16_Sp_counted_baseILN9__gnu_cxx12_Lock_policyE1EE,comdat
	.align	2
	.type	_ZTSSt16_Sp_counted_baseILN9__gnu_cxx12_Lock_policyE1EE, %object
	.size	_ZTSSt16_Sp_counted_baseILN9__gnu_cxx12_Lock_policyE1EE, 52
_ZTSSt16_Sp_counted_baseILN9__gnu_cxx12_Lock_policyE1EE:
	.ascii	"St16_Sp_counted_baseILN9__gnu_cxx12_Lock_policyE1EE"
	.ascii	"\000"
	.weak	_ZTISt16_Sp_counted_baseILN9__gnu_cxx12_Lock_policyE1EE
	.section	.data.rel.ro._ZTISt16_Sp_counted_baseILN9__gnu_cxx12_Lock_policyE1EE,"awG",%progbits,_ZTISt16_Sp_counted_baseILN9__gnu_cxx12_Lock_policyE1EE,comdat
	.align	2
	.type	_ZTISt16_Sp_counted_baseILN9__gnu_cxx12_Lock_policyE1EE, %object
	.size	_ZTISt16_Sp_counted_baseILN9__gnu_cxx12_Lock_policyE1EE, 24
_ZTISt16_Sp_counted_baseILN9__gnu_cxx12_Lock_policyE1EE:
	.word	_ZTVN10__cxxabiv121__vmi_class_type_infoE+8
	.word	_ZTSSt16_Sp_counted_baseILN9__gnu_cxx12_Lock_policyE1EE
	.word	0
	.word	1
	.word	_ZTISt11_Mutex_baseILN9__gnu_cxx12_Lock_policyE1EE
	.word	1026
	.weak	_ZTSN8asiodnp316IListenCallbacksE
	.section	.rodata._ZTSN8asiodnp316IListenCallbacksE,"aG",%progbits,_ZTSN8asiodnp316IListenCallbacksE,comdat
	.align	2
	.type	_ZTSN8asiodnp316IListenCallbacksE, %object
	.size	_ZTSN8asiodnp316IListenCallbacksE, 30
_ZTSN8asiodnp316IListenCallbacksE:
	.ascii	"N8asiodnp316IListenCallbacksE\000"
	.weak	_ZTIN8asiodnp316IListenCallbacksE
	.section	.data.rel.ro._ZTIN8asiodnp316IListenCallbacksE,"awG",%progbits,_ZTIN8asiodnp316IListenCallbacksE,comdat
	.align	2
	.type	_ZTIN8asiodnp316IListenCallbacksE, %object
	.size	_ZTIN8asiodnp316IListenCallbacksE, 8
_ZTIN8asiodnp316IListenCallbacksE:
	.word	_ZTVN10__cxxabiv117__class_type_infoE+8
	.word	_ZTSN8asiodnp316IListenCallbacksE
	.global	_ZTSN8asiodnp322DefaultListenCallbacksE
	.global	_ZTIN8asiodnp322DefaultListenCallbacksE
	.weak	_ZTSSt19_Sp_make_shared_tag
	.section	.rodata._ZTSSt19_Sp_make_shared_tag,"aG",%progbits,_ZTSSt19_Sp_make_shared_tag,comdat
	.align	2
	.type	_ZTSSt19_Sp_make_shared_tag, %object
	.size	_ZTSSt19_Sp_make_shared_tag, 24
_ZTSSt19_Sp_make_shared_tag:
	.ascii	"St19_Sp_make_shared_tag\000"
	.weak	_ZTISt19_Sp_make_shared_tag
	.section	.data.rel.ro._ZTISt19_Sp_make_shared_tag,"awG",%progbits,_ZTISt19_Sp_make_shared_tag,comdat
	.align	2
	.type	_ZTISt19_Sp_make_shared_tag, %object
	.size	_ZTISt19_Sp_make_shared_tag, 8
_ZTISt19_Sp_make_shared_tag:
	.word	_ZTVN10__cxxabiv117__class_type_infoE+8
	.word	_ZTSSt19_Sp_make_shared_tag
	.weak	_ZTSSt23_Sp_counted_ptr_inplaceIN8asiodnp318PrintingSOEHandlerESaIS1_ELN9__gnu_cxx12_Lock_policyE1EE
	.section	.rodata._ZTSSt23_Sp_counted_ptr_inplaceIN8asiodnp318PrintingSOEHandlerESaIS1_ELN9__gnu_cxx12_Lock_policyE1EE,"aG",%progbits,_ZTSSt23_Sp_counted_ptr_inplaceIN8asiodnp318PrintingSOEHandlerESaIS1_ELN9__gnu_cxx12_Lock_policyE1EE,comdat
	.align	2
	.type	_ZTSSt23_Sp_counted_ptr_inplaceIN8asiodnp318PrintingSOEHandlerESaIS1_ELN9__gnu_cxx12_Lock_policyE1EE, %object
	.size	_ZTSSt23_Sp_counted_ptr_inplaceIN8asiodnp318PrintingSOEHandlerESaIS1_ELN9__gnu_cxx12_Lock_policyE1EE, 97
_ZTSSt23_Sp_counted_ptr_inplaceIN8asiodnp318PrintingSOEHandlerESaIS1_ELN9__gnu_cxx12_Lock_policyE1EE:
	.ascii	"St23_Sp_counted_ptr_inplaceIN8asiodnp318PrintingSOE"
	.ascii	"HandlerESaIS1_ELN9__gnu_cxx12_Lock_policyE1EE\000"
	.weak	_ZTISt23_Sp_counted_ptr_inplaceIN8asiodnp318PrintingSOEHandlerESaIS1_ELN9__gnu_cxx12_Lock_policyE1EE
	.section	.data.rel.ro._ZTISt23_Sp_counted_ptr_inplaceIN8asiodnp318PrintingSOEHandlerESaIS1_ELN9__gnu_cxx12_Lock_policyE1EE,"awG",%progbits,_ZTISt23_Sp_counted_ptr_inplaceIN8asiodnp318PrintingSOEHandlerESaIS1_ELN9__gnu_cxx12_Lock_policyE1EE,comdat
	.align	2
	.type	_ZTISt23_Sp_counted_ptr_inplaceIN8asiodnp318PrintingSOEHandlerESaIS1_ELN9__gnu_cxx12_Lock_policyE1EE, %object
	.size	_ZTISt23_Sp_counted_ptr_inplaceIN8asiodnp318PrintingSOEHandlerESaIS1_ELN9__gnu_cxx12_Lock_policyE1EE, 12
_ZTISt23_Sp_counted_ptr_inplaceIN8asiodnp318PrintingSOEHandlerESaIS1_ELN9__gnu_cxx12_Lock_policyE1EE:
	.word	_ZTVN10__cxxabiv120__si_class_type_infoE+8
	.word	_ZTSSt23_Sp_counted_ptr_inplaceIN8asiodnp318PrintingSOEHandlerESaIS1_ELN9__gnu_cxx12_Lock_policyE1EE
	.word	_ZTISt16_Sp_counted_baseILN9__gnu_cxx12_Lock_policyE1EE
	.weak	_ZTSSt23_Sp_counted_ptr_inplaceIN8asiodnp324DefaultMasterApplicationESaIS1_ELN9__gnu_cxx12_Lock_policyE1EE
	.section	.rodata._ZTSSt23_Sp_counted_ptr_inplaceIN8asiodnp324DefaultMasterApplicationESaIS1_ELN9__gnu_cxx12_Lock_policyE1EE,"aG",%progbits,_ZTSSt23_Sp_counted_ptr_inplaceIN8asiodnp324DefaultMasterApplicationESaIS1_ELN9__gnu_cxx12_Lock_policyE1EE,comdat
	.align	2
	.type	_ZTSSt23_Sp_counted_ptr_inplaceIN8asiodnp324DefaultMasterApplicationESaIS1_ELN9__gnu_cxx12_Lock_policyE1EE, %object
	.size	_ZTSSt23_Sp_counted_ptr_inplaceIN8asiodnp324DefaultMasterApplicationESaIS1_ELN9__gnu_cxx12_Lock_policyE1EE, 103
_ZTSSt23_Sp_counted_ptr_inplaceIN8asiodnp324DefaultMasterApplicationESaIS1_ELN9__gnu_cxx12_Lock_policyE1EE:
	.ascii	"St23_Sp_counted_ptr_inplaceIN8asiodnp324DefaultMast"
	.ascii	"erApplicationESaIS1_ELN9__gnu_cxx12_Lock_policyE1EE"
	.ascii	"\000"
	.weak	_ZTISt23_Sp_counted_ptr_inplaceIN8asiodnp324DefaultMasterApplicationESaIS1_ELN9__gnu_cxx12_Lock_policyE1EE
	.section	.data.rel.ro._ZTISt23_Sp_counted_ptr_inplaceIN8asiodnp324DefaultMasterApplicationESaIS1_ELN9__gnu_cxx12_Lock_policyE1EE,"awG",%progbits,_ZTISt23_Sp_counted_ptr_inplaceIN8asiodnp324DefaultMasterApplicationESaIS1_ELN9__gnu_cxx12_Lock_policyE1EE,comdat
	.align	2
	.type	_ZTISt23_Sp_counted_ptr_inplaceIN8asiodnp324DefaultMasterApplicationESaIS1_ELN9__gnu_cxx12_Lock_policyE1EE, %object
	.size	_ZTISt23_Sp_counted_ptr_inplaceIN8asiodnp324DefaultMasterApplicationESaIS1_ELN9__gnu_cxx12_Lock_policyE1EE, 12
_ZTISt23_Sp_counted_ptr_inplaceIN8asiodnp324DefaultMasterApplicationESaIS1_ELN9__gnu_cxx12_Lock_policyE1EE:
	.word	_ZTVN10__cxxabiv120__si_class_type_infoE+8
	.word	_ZTSSt23_Sp_counted_ptr_inplaceIN8asiodnp324DefaultMasterApplicationESaIS1_ELN9__gnu_cxx12_Lock_policyE1EE
	.word	_ZTISt16_Sp_counted_baseILN9__gnu_cxx12_Lock_policyE1EE
	.global	_ZTVN8asiodnp322DefaultListenCallbacksE
	.weak	_ZTVSt23_Sp_counted_ptr_inplaceIN8asiodnp318PrintingSOEHandlerESaIS1_ELN9__gnu_cxx12_Lock_policyE1EE
	.section	.data.rel.ro._ZTVSt23_Sp_counted_ptr_inplaceIN8asiodnp318PrintingSOEHandlerESaIS1_ELN9__gnu_cxx12_Lock_policyE1EE,"awG",%progbits,_ZTVSt23_Sp_counted_ptr_inplaceIN8asiodnp318PrintingSOEHandlerESaIS1_ELN9__gnu_cxx12_Lock_policyE1EE,comdat
	.align	2
	.type	_ZTVSt23_Sp_counted_ptr_inplaceIN8asiodnp318PrintingSOEHandlerESaIS1_ELN9__gnu_cxx12_Lock_policyE1EE, %object
	.size	_ZTVSt23_Sp_counted_ptr_inplaceIN8asiodnp318PrintingSOEHandlerESaIS1_ELN9__gnu_cxx12_Lock_policyE1EE, 28
_ZTVSt23_Sp_counted_ptr_inplaceIN8asiodnp318PrintingSOEHandlerESaIS1_ELN9__gnu_cxx12_Lock_policyE1EE:
	.word	0
	.word	_ZTISt23_Sp_counted_ptr_inplaceIN8asiodnp318PrintingSOEHandlerESaIS1_ELN9__gnu_cxx12_Lock_policyE1EE
	.word	_ZNSt23_Sp_counted_ptr_inplaceIN8asiodnp318PrintingSOEHandlerESaIS1_ELN9__gnu_cxx12_Lock_policyE1EED1Ev
	.word	_ZNSt23_Sp_counted_ptr_inplaceIN8asiodnp318PrintingSOEHandlerESaIS1_ELN9__gnu_cxx12_Lock_policyE1EED0Ev
	.word	_ZNSt23_Sp_counted_ptr_inplaceIN8asiodnp318PrintingSOEHandlerESaIS1_ELN9__gnu_cxx12_Lock_policyE1EE10_M_disposeEv
	.word	_ZNSt23_Sp_counted_ptr_inplaceIN8asiodnp318PrintingSOEHandlerESaIS1_ELN9__gnu_cxx12_Lock_policyE1EE10_M_destroyEv
	.word	_ZNSt23_Sp_counted_ptr_inplaceIN8asiodnp318PrintingSOEHandlerESaIS1_ELN9__gnu_cxx12_Lock_policyE1EE14_M_get_deleterERKSt9type_info
	.weak	_ZTVSt23_Sp_counted_ptr_inplaceIN8asiodnp324DefaultMasterApplicationESaIS1_ELN9__gnu_cxx12_Lock_policyE1EE
	.section	.data.rel.ro._ZTVSt23_Sp_counted_ptr_inplaceIN8asiodnp324DefaultMasterApplicationESaIS1_ELN9__gnu_cxx12_Lock_policyE1EE,"awG",%progbits,_ZTVSt23_Sp_counted_ptr_inplaceIN8asiodnp324DefaultMasterApplicationESaIS1_ELN9__gnu_cxx12_Lock_policyE1EE,comdat
	.align	2
	.type	_ZTVSt23_Sp_counted_ptr_inplaceIN8asiodnp324DefaultMasterApplicationESaIS1_ELN9__gnu_cxx12_Lock_policyE1EE, %object
	.size	_ZTVSt23_Sp_counted_ptr_inplaceIN8asiodnp324DefaultMasterApplicationESaIS1_ELN9__gnu_cxx12_Lock_policyE1EE, 28
_ZTVSt23_Sp_counted_ptr_inplaceIN8asiodnp324DefaultMasterApplicationESaIS1_ELN9__gnu_cxx12_Lock_policyE1EE:
	.word	0
	.word	_ZTISt23_Sp_counted_ptr_inplaceIN8asiodnp324DefaultMasterApplicationESaIS1_ELN9__gnu_cxx12_Lock_policyE1EE
	.word	_ZNSt23_Sp_counted_ptr_inplaceIN8asiodnp324DefaultMasterApplicationESaIS1_ELN9__gnu_cxx12_Lock_policyE1EED1Ev
	.word	_ZNSt23_Sp_counted_ptr_inplaceIN8asiodnp324DefaultMasterApplicationESaIS1_ELN9__gnu_cxx12_Lock_policyE1EED0Ev
	.word	_ZNSt23_Sp_counted_ptr_inplaceIN8asiodnp324DefaultMasterApplicationESaIS1_ELN9__gnu_cxx12_Lock_policyE1EE10_M_disposeEv
	.word	_ZNSt23_Sp_counted_ptr_inplaceIN8asiodnp324DefaultMasterApplicationESaIS1_ELN9__gnu_cxx12_Lock_policyE1EE10_M_destroyEv
	.word	_ZNSt23_Sp_counted_ptr_inplaceIN8asiodnp324DefaultMasterApplicationESaIS1_ELN9__gnu_cxx12_Lock_policyE1EE14_M_get_deleterERKSt9type_info
	.weakref	_ZL28__gthrw___pthread_key_createPjPFvPvE,__pthread_key_create
	.section	.rodata
	.align	2
	.type	_ZTSN8asiodnp322DefaultListenCallbacksE, %object
	.size	_ZTSN8asiodnp322DefaultListenCallbacksE, 36
_ZTSN8asiodnp322DefaultListenCallbacksE:
	.ascii	"N8asiodnp322DefaultListenCallbacksE\000"
	.bss
	.align	2
	.set	.LANCHOR0,. + 0
	.type	_ZStL8__ioinit, %object
	.size	_ZStL8__ioinit, 1
_ZStL8__ioinit:
	.space	1
	.section	.data.rel.ro,"aw",%progbits
	.align	2
	.type	_ZTIN8asiodnp322DefaultListenCallbacksE, %object
	.size	_ZTIN8asiodnp322DefaultListenCallbacksE, 12
_ZTIN8asiodnp322DefaultListenCallbacksE:
	.word	_ZTVN10__cxxabiv120__si_class_type_infoE+8
	.word	_ZTSN8asiodnp322DefaultListenCallbacksE
	.word	_ZTIN8asiodnp316IListenCallbacksE
	.type	_ZTVN8asiodnp322DefaultListenCallbacksE, %object
	.size	_ZTVN8asiodnp322DefaultListenCallbacksE, 40
_ZTVN8asiodnp322DefaultListenCallbacksE:
	.word	0
	.word	_ZTIN8asiodnp322DefaultListenCallbacksE
	.word	_ZN8asiodnp322DefaultListenCallbacksD1Ev
	.word	_ZN8asiodnp322DefaultListenCallbacksD0Ev
	.word	_ZN8asiodnp322DefaultListenCallbacks16AcceptConnectionEyRKNSt7__cxx1112basic_stringIcSt11char_traitsIcESaIcEEE
	.word	_ZN8asiodnp322DefaultListenCallbacks17AcceptCertificateEyRKNS_8X509InfoE
	.word	_ZN8asiodnp322DefaultListenCallbacks20GetFirstFrameTimeoutEv
	.word	_ZN8asiodnp322DefaultListenCallbacks12OnFirstFrameEyRKN8opendnp316LinkHeaderFieldsERNS_16ISessionAcceptorE
	.word	_ZN8asiodnp322DefaultListenCallbacks17OnConnectionCloseEyRKSt10shared_ptrINS_14IMasterSessionEE
	.word	_ZN8asiodnp322DefaultListenCallbacks18OnCertificateErrorEyRKNS_8X509InfoEi
	.section	.rodata.str1.4,"aMS",%progbits,1
	.align	2
.LC0:
	.ascii	"session-\000"
	.space	3
.LC1:
	.ascii	"basic_string::_M_construct null not valid\000"
	.hidden	__dso_handle
	.ident	"GCC: (Raspbian 6.3.0-18+rpi1+deb9u1) 6.3.0 20170516"
	.section	.note.GNU-stack,"",%progbits
