	.arch armv6
	.eabi_attribute 28, 1
	.eabi_attribute 20, 1
	.eabi_attribute 21, 1
	.eabi_attribute 23, 3
	.eabi_attribute 24, 1
	.eabi_attribute 25, 1
	.eabi_attribute 26, 2
	.eabi_attribute 30, 2
	.eabi_attribute 34, 1
	.eabi_attribute 18, 4
	.file	"DNP3ManagerImpl.cpp"
	.section	.text._ZNK4asio6detail15system_category4nameEv,"axG",%progbits,_ZNK4asio6detail15system_category4nameEv,comdat
	.align	2
	.weak	_ZNK4asio6detail15system_category4nameEv
	.syntax unified
	.arm
	.fpu vfp
	.type	_ZNK4asio6detail15system_category4nameEv, %function
_ZNK4asio6detail15system_category4nameEv:
	.fnstart
.LFB2420:
	@ args = 0, pretend = 0, frame = 0
	@ frame_needed = 0, uses_anonymous_args = 0
	@ link register save eliminated.
	ldr	r0, .L2
.LPIC0:
	add	r0, pc, r0
	bx	lr
.L3:
	.align	2
.L2:
	.word	.LC0-(.LPIC0+8)
	.cantunwind
	.fnend
	.size	_ZNK4asio6detail15system_category4nameEv, .-_ZNK4asio6detail15system_category4nameEv
	.section	.text._ZNK4asio5error6detail14netdb_category4nameEv,"axG",%progbits,_ZNK4asio5error6detail14netdb_category4nameEv,comdat
	.align	2
	.weak	_ZNK4asio5error6detail14netdb_category4nameEv
	.syntax unified
	.arm
	.fpu vfp
	.type	_ZNK4asio5error6detail14netdb_category4nameEv, %function
_ZNK4asio5error6detail14netdb_category4nameEv:
	.fnstart
.LFB2441:
	@ args = 0, pretend = 0, frame = 0
	@ frame_needed = 0, uses_anonymous_args = 0
	@ link register save eliminated.
	ldr	r0, .L5
.LPIC1:
	add	r0, pc, r0
	bx	lr
.L6:
	.align	2
.L5:
	.word	.LC1-(.LPIC1+8)
	.cantunwind
	.fnend
	.size	_ZNK4asio5error6detail14netdb_category4nameEv, .-_ZNK4asio5error6detail14netdb_category4nameEv
	.section	.text._ZNK4asio5error6detail17addrinfo_category4nameEv,"axG",%progbits,_ZNK4asio5error6detail17addrinfo_category4nameEv,comdat
	.align	2
	.weak	_ZNK4asio5error6detail17addrinfo_category4nameEv
	.syntax unified
	.arm
	.fpu vfp
	.type	_ZNK4asio5error6detail17addrinfo_category4nameEv, %function
_ZNK4asio5error6detail17addrinfo_category4nameEv:
	.fnstart
.LFB2447:
	@ args = 0, pretend = 0, frame = 0
	@ frame_needed = 0, uses_anonymous_args = 0
	@ link register save eliminated.
	ldr	r0, .L8
.LPIC2:
	add	r0, pc, r0
	bx	lr
.L9:
	.align	2
.L8:
	.word	.LC2-(.LPIC2+8)
	.cantunwind
	.fnend
	.size	_ZNK4asio5error6detail17addrinfo_category4nameEv, .-_ZNK4asio5error6detail17addrinfo_category4nameEv
	.section	.text._ZNK4asio5error6detail13misc_category4nameEv,"axG",%progbits,_ZNK4asio5error6detail13misc_category4nameEv,comdat
	.align	2
	.weak	_ZNK4asio5error6detail13misc_category4nameEv
	.syntax unified
	.arm
	.fpu vfp
	.type	_ZNK4asio5error6detail13misc_category4nameEv, %function
_ZNK4asio5error6detail13misc_category4nameEv:
	.fnstart
.LFB2453:
	@ args = 0, pretend = 0, frame = 0
	@ frame_needed = 0, uses_anonymous_args = 0
	@ link register save eliminated.
	ldr	r0, .L11
.LPIC3:
	add	r0, pc, r0
	bx	lr
.L12:
	.align	2
.L11:
	.word	.LC3-(.LPIC3+8)
	.cantunwind
	.fnend
	.size	_ZNK4asio5error6detail13misc_category4nameEv, .-_ZNK4asio5error6detail13misc_category4nameEv
	.section	.text._ZN4asio10io_service7service12fork_serviceENS0_10fork_eventE,"axG",%progbits,_ZN4asio10io_service7service12fork_serviceENS0_10fork_eventE,comdat
	.align	2
	.weak	_ZN4asio10io_service7service12fork_serviceENS0_10fork_eventE
	.syntax unified
	.arm
	.fpu vfp
	.type	_ZN4asio10io_service7service12fork_serviceENS0_10fork_eventE, %function
_ZN4asio10io_service7service12fork_serviceENS0_10fork_eventE:
	.fnstart
.LFB3363:
	@ args = 0, pretend = 0, frame = 0
	@ frame_needed = 0, uses_anonymous_args = 0
	@ link register save eliminated.
	bx	lr
	.cantunwind
	.fnend
	.size	_ZN4asio10io_service7service12fork_serviceENS0_10fork_eventE, .-_ZN4asio10io_service7service12fork_serviceENS0_10fork_eventE
	.section	.text._ZN4asio6detail10service_idINS0_13epoll_reactorEED2Ev,"axG",%progbits,_ZN4asio6detail10service_idINS0_13epoll_reactorEED5Ev,comdat
	.align	2
	.weak	_ZN4asio6detail10service_idINS0_13epoll_reactorEED2Ev
	.syntax unified
	.arm
	.fpu vfp
	.type	_ZN4asio6detail10service_idINS0_13epoll_reactorEED2Ev, %function
_ZN4asio6detail10service_idINS0_13epoll_reactorEED2Ev:
	.fnstart
.LFB11676:
	@ args = 0, pretend = 0, frame = 0
	@ frame_needed = 0, uses_anonymous_args = 0
	@ link register save eliminated.
	bx	lr
	.cantunwind
	.fnend
	.size	_ZN4asio6detail10service_idINS0_13epoll_reactorEED2Ev, .-_ZN4asio6detail10service_idINS0_13epoll_reactorEED2Ev
	.weak	_ZN4asio6detail10service_idINS0_13epoll_reactorEED1Ev
	.set	_ZN4asio6detail10service_idINS0_13epoll_reactorEED1Ev,_ZN4asio6detail10service_idINS0_13epoll_reactorEED2Ev
	.section	.text._ZN4asio6detail10service_idINS0_15task_io_serviceEED2Ev,"axG",%progbits,_ZN4asio6detail10service_idINS0_15task_io_serviceEED5Ev,comdat
	.align	2
	.weak	_ZN4asio6detail10service_idINS0_15task_io_serviceEED2Ev
	.syntax unified
	.arm
	.fpu vfp
	.type	_ZN4asio6detail10service_idINS0_15task_io_serviceEED2Ev, %function
_ZN4asio6detail10service_idINS0_15task_io_serviceEED2Ev:
	.fnstart
.LFB11679:
	@ args = 0, pretend = 0, frame = 0
	@ frame_needed = 0, uses_anonymous_args = 0
	@ link register save eliminated.
	bx	lr
	.cantunwind
	.fnend
	.size	_ZN4asio6detail10service_idINS0_15task_io_serviceEED2Ev, .-_ZN4asio6detail10service_idINS0_15task_io_serviceEED2Ev
	.weak	_ZN4asio6detail10service_idINS0_15task_io_serviceEED1Ev
	.set	_ZN4asio6detail10service_idINS0_15task_io_serviceEED1Ev,_ZN4asio6detail10service_idINS0_15task_io_serviceEED2Ev
	.section	.text._ZN4asio6detail10service_idINS0_14strand_serviceEED2Ev,"axG",%progbits,_ZN4asio6detail10service_idINS0_14strand_serviceEED5Ev,comdat
	.align	2
	.weak	_ZN4asio6detail10service_idINS0_14strand_serviceEED2Ev
	.syntax unified
	.arm
	.fpu vfp
	.type	_ZN4asio6detail10service_idINS0_14strand_serviceEED2Ev, %function
_ZN4asio6detail10service_idINS0_14strand_serviceEED2Ev:
	.fnstart
.LFB11685:
	@ args = 0, pretend = 0, frame = 0
	@ frame_needed = 0, uses_anonymous_args = 0
	@ link register save eliminated.
	bx	lr
	.cantunwind
	.fnend
	.size	_ZN4asio6detail10service_idINS0_14strand_serviceEED2Ev, .-_ZN4asio6detail10service_idINS0_14strand_serviceEED2Ev
	.weak	_ZN4asio6detail10service_idINS0_14strand_serviceEED1Ev
	.set	_ZN4asio6detail10service_idINS0_14strand_serviceEED1Ev,_ZN4asio6detail10service_idINS0_14strand_serviceEED2Ev
	.section	.text._ZNSt23_Sp_counted_ptr_inplaceIN7asiopal2IOESaIS1_ELN9__gnu_cxx12_Lock_policyE1EED2Ev,"axG",%progbits,_ZNSt23_Sp_counted_ptr_inplaceIN7asiopal2IOESaIS1_ELN9__gnu_cxx12_Lock_policyE1EED5Ev,comdat
	.align	2
	.weak	_ZNSt23_Sp_counted_ptr_inplaceIN7asiopal2IOESaIS1_ELN9__gnu_cxx12_Lock_policyE1EED2Ev
	.syntax unified
	.arm
	.fpu vfp
	.type	_ZNSt23_Sp_counted_ptr_inplaceIN7asiopal2IOESaIS1_ELN9__gnu_cxx12_Lock_policyE1EED2Ev, %function
_ZNSt23_Sp_counted_ptr_inplaceIN7asiopal2IOESaIS1_ELN9__gnu_cxx12_Lock_policyE1EED2Ev:
	.fnstart
.LFB11688:
	@ args = 0, pretend = 0, frame = 0
	@ frame_needed = 0, uses_anonymous_args = 0
	@ link register save eliminated.
	bx	lr
	.cantunwind
	.fnend
	.size	_ZNSt23_Sp_counted_ptr_inplaceIN7asiopal2IOESaIS1_ELN9__gnu_cxx12_Lock_policyE1EED2Ev, .-_ZNSt23_Sp_counted_ptr_inplaceIN7asiopal2IOESaIS1_ELN9__gnu_cxx12_Lock_policyE1EED2Ev
	.weak	_ZNSt23_Sp_counted_ptr_inplaceIN7asiopal2IOESaIS1_ELN9__gnu_cxx12_Lock_policyE1EED1Ev
	.set	_ZNSt23_Sp_counted_ptr_inplaceIN7asiopal2IOESaIS1_ELN9__gnu_cxx12_Lock_policyE1EED1Ev,_ZNSt23_Sp_counted_ptr_inplaceIN7asiopal2IOESaIS1_ELN9__gnu_cxx12_Lock_policyE1EED2Ev
	.section	.text._ZNSt23_Sp_counted_ptr_inplaceIN8asiodnp315SerialIOHandlerESaIS1_ELN9__gnu_cxx12_Lock_policyE1EED2Ev,"axG",%progbits,_ZNSt23_Sp_counted_ptr_inplaceIN8asiodnp315SerialIOHandlerESaIS1_ELN9__gnu_cxx12_Lock_policyE1EED5Ev,comdat
	.align	2
	.weak	_ZNSt23_Sp_counted_ptr_inplaceIN8asiodnp315SerialIOHandlerESaIS1_ELN9__gnu_cxx12_Lock_policyE1EED2Ev
	.syntax unified
	.arm
	.fpu vfp
	.type	_ZNSt23_Sp_counted_ptr_inplaceIN8asiodnp315SerialIOHandlerESaIS1_ELN9__gnu_cxx12_Lock_policyE1EED2Ev, %function
_ZNSt23_Sp_counted_ptr_inplaceIN8asiodnp315SerialIOHandlerESaIS1_ELN9__gnu_cxx12_Lock_policyE1EED2Ev:
	.fnstart
.LFB11695:
	@ args = 0, pretend = 0, frame = 0
	@ frame_needed = 0, uses_anonymous_args = 0
	@ link register save eliminated.
	bx	lr
	.cantunwind
	.fnend
	.size	_ZNSt23_Sp_counted_ptr_inplaceIN8asiodnp315SerialIOHandlerESaIS1_ELN9__gnu_cxx12_Lock_policyE1EED2Ev, .-_ZNSt23_Sp_counted_ptr_inplaceIN8asiodnp315SerialIOHandlerESaIS1_ELN9__gnu_cxx12_Lock_policyE1EED2Ev
	.weak	_ZNSt23_Sp_counted_ptr_inplaceIN8asiodnp315SerialIOHandlerESaIS1_ELN9__gnu_cxx12_Lock_policyE1EED1Ev
	.set	_ZNSt23_Sp_counted_ptr_inplaceIN8asiodnp315SerialIOHandlerESaIS1_ELN9__gnu_cxx12_Lock_policyE1EED1Ev,_ZNSt23_Sp_counted_ptr_inplaceIN8asiodnp315SerialIOHandlerESaIS1_ELN9__gnu_cxx12_Lock_policyE1EED2Ev
	.section	.text._ZNSt23_Sp_counted_ptr_inplaceIN8asiodnp318TCPServerIOHandlerESaIS1_ELN9__gnu_cxx12_Lock_policyE1EED2Ev,"axG",%progbits,_ZNSt23_Sp_counted_ptr_inplaceIN8asiodnp318TCPServerIOHandlerESaIS1_ELN9__gnu_cxx12_Lock_policyE1EED5Ev,comdat
	.align	2
	.weak	_ZNSt23_Sp_counted_ptr_inplaceIN8asiodnp318TCPServerIOHandlerESaIS1_ELN9__gnu_cxx12_Lock_policyE1EED2Ev
	.syntax unified
	.arm
	.fpu vfp
	.type	_ZNSt23_Sp_counted_ptr_inplaceIN8asiodnp318TCPServerIOHandlerESaIS1_ELN9__gnu_cxx12_Lock_policyE1EED2Ev, %function
_ZNSt23_Sp_counted_ptr_inplaceIN8asiodnp318TCPServerIOHandlerESaIS1_ELN9__gnu_cxx12_Lock_policyE1EED2Ev:
	.fnstart
.LFB11709:
	@ args = 0, pretend = 0, frame = 0
	@ frame_needed = 0, uses_anonymous_args = 0
	@ link register save eliminated.
	bx	lr
	.cantunwind
	.fnend
	.size	_ZNSt23_Sp_counted_ptr_inplaceIN8asiodnp318TCPServerIOHandlerESaIS1_ELN9__gnu_cxx12_Lock_policyE1EED2Ev, .-_ZNSt23_Sp_counted_ptr_inplaceIN8asiodnp318TCPServerIOHandlerESaIS1_ELN9__gnu_cxx12_Lock_policyE1EED2Ev
	.weak	_ZNSt23_Sp_counted_ptr_inplaceIN8asiodnp318TCPServerIOHandlerESaIS1_ELN9__gnu_cxx12_Lock_policyE1EED1Ev
	.set	_ZNSt23_Sp_counted_ptr_inplaceIN8asiodnp318TCPServerIOHandlerESaIS1_ELN9__gnu_cxx12_Lock_policyE1EED1Ev,_ZNSt23_Sp_counted_ptr_inplaceIN8asiodnp318TCPServerIOHandlerESaIS1_ELN9__gnu_cxx12_Lock_policyE1EED2Ev
	.section	.text._ZNSt23_Sp_counted_ptr_inplaceIN8asiodnp318TCPClientIOHandlerESaIS1_ELN9__gnu_cxx12_Lock_policyE1EED2Ev,"axG",%progbits,_ZNSt23_Sp_counted_ptr_inplaceIN8asiodnp318TCPClientIOHandlerESaIS1_ELN9__gnu_cxx12_Lock_policyE1EED5Ev,comdat
	.align	2
	.weak	_ZNSt23_Sp_counted_ptr_inplaceIN8asiodnp318TCPClientIOHandlerESaIS1_ELN9__gnu_cxx12_Lock_policyE1EED2Ev
	.syntax unified
	.arm
	.fpu vfp
	.type	_ZNSt23_Sp_counted_ptr_inplaceIN8asiodnp318TCPClientIOHandlerESaIS1_ELN9__gnu_cxx12_Lock_policyE1EED2Ev, %function
_ZNSt23_Sp_counted_ptr_inplaceIN8asiodnp318TCPClientIOHandlerESaIS1_ELN9__gnu_cxx12_Lock_policyE1EED2Ev:
	.fnstart
.LFB11716:
	@ args = 0, pretend = 0, frame = 0
	@ frame_needed = 0, uses_anonymous_args = 0
	@ link register save eliminated.
	bx	lr
	.cantunwind
	.fnend
	.size	_ZNSt23_Sp_counted_ptr_inplaceIN8asiodnp318TCPClientIOHandlerESaIS1_ELN9__gnu_cxx12_Lock_policyE1EED2Ev, .-_ZNSt23_Sp_counted_ptr_inplaceIN8asiodnp318TCPClientIOHandlerESaIS1_ELN9__gnu_cxx12_Lock_policyE1EED2Ev
	.weak	_ZNSt23_Sp_counted_ptr_inplaceIN8asiodnp318TCPClientIOHandlerESaIS1_ELN9__gnu_cxx12_Lock_policyE1EED1Ev
	.set	_ZNSt23_Sp_counted_ptr_inplaceIN8asiodnp318TCPClientIOHandlerESaIS1_ELN9__gnu_cxx12_Lock_policyE1EED1Ev,_ZNSt23_Sp_counted_ptr_inplaceIN8asiodnp318TCPClientIOHandlerESaIS1_ELN9__gnu_cxx12_Lock_policyE1EED2Ev
	.section	.text._ZNSt23_Sp_counted_ptr_inplaceIN8asiodnp315MasterTCPServerESaIS1_ELN9__gnu_cxx12_Lock_policyE1EED2Ev,"axG",%progbits,_ZNSt23_Sp_counted_ptr_inplaceIN8asiodnp315MasterTCPServerESaIS1_ELN9__gnu_cxx12_Lock_policyE1EED5Ev,comdat
	.align	2
	.weak	_ZNSt23_Sp_counted_ptr_inplaceIN8asiodnp315MasterTCPServerESaIS1_ELN9__gnu_cxx12_Lock_policyE1EED2Ev
	.syntax unified
	.arm
	.fpu vfp
	.type	_ZNSt23_Sp_counted_ptr_inplaceIN8asiodnp315MasterTCPServerESaIS1_ELN9__gnu_cxx12_Lock_policyE1EED2Ev, %function
_ZNSt23_Sp_counted_ptr_inplaceIN8asiodnp315MasterTCPServerESaIS1_ELN9__gnu_cxx12_Lock_policyE1EED2Ev:
	.fnstart
.LFB11730:
	@ args = 0, pretend = 0, frame = 0
	@ frame_needed = 0, uses_anonymous_args = 0
	@ link register save eliminated.
	bx	lr
	.cantunwind
	.fnend
	.size	_ZNSt23_Sp_counted_ptr_inplaceIN8asiodnp315MasterTCPServerESaIS1_ELN9__gnu_cxx12_Lock_policyE1EED2Ev, .-_ZNSt23_Sp_counted_ptr_inplaceIN8asiodnp315MasterTCPServerESaIS1_ELN9__gnu_cxx12_Lock_policyE1EED2Ev
	.weak	_ZNSt23_Sp_counted_ptr_inplaceIN8asiodnp315MasterTCPServerESaIS1_ELN9__gnu_cxx12_Lock_policyE1EED1Ev
	.set	_ZNSt23_Sp_counted_ptr_inplaceIN8asiodnp315MasterTCPServerESaIS1_ELN9__gnu_cxx12_Lock_policyE1EED1Ev,_ZNSt23_Sp_counted_ptr_inplaceIN8asiodnp315MasterTCPServerESaIS1_ELN9__gnu_cxx12_Lock_policyE1EED2Ev
	.section	.text._ZNSt23_Sp_counted_ptr_inplaceIN8asiodnp311DNP3ChannelESaIS1_ELN9__gnu_cxx12_Lock_policyE1EED2Ev,"axG",%progbits,_ZNSt23_Sp_counted_ptr_inplaceIN8asiodnp311DNP3ChannelESaIS1_ELN9__gnu_cxx12_Lock_policyE1EED5Ev,comdat
	.align	2
	.weak	_ZNSt23_Sp_counted_ptr_inplaceIN8asiodnp311DNP3ChannelESaIS1_ELN9__gnu_cxx12_Lock_policyE1EED2Ev
	.syntax unified
	.arm
	.fpu vfp
	.type	_ZNSt23_Sp_counted_ptr_inplaceIN8asiodnp311DNP3ChannelESaIS1_ELN9__gnu_cxx12_Lock_policyE1EED2Ev, %function
_ZNSt23_Sp_counted_ptr_inplaceIN8asiodnp311DNP3ChannelESaIS1_ELN9__gnu_cxx12_Lock_policyE1EED2Ev:
	.fnstart
.LFB11737:
	@ args = 0, pretend = 0, frame = 0
	@ frame_needed = 0, uses_anonymous_args = 0
	@ link register save eliminated.
	bx	lr
	.cantunwind
	.fnend
	.size	_ZNSt23_Sp_counted_ptr_inplaceIN8asiodnp311DNP3ChannelESaIS1_ELN9__gnu_cxx12_Lock_policyE1EED2Ev, .-_ZNSt23_Sp_counted_ptr_inplaceIN8asiodnp311DNP3ChannelESaIS1_ELN9__gnu_cxx12_Lock_policyE1EED2Ev
	.weak	_ZNSt23_Sp_counted_ptr_inplaceIN8asiodnp311DNP3ChannelESaIS1_ELN9__gnu_cxx12_Lock_policyE1EED1Ev
	.set	_ZNSt23_Sp_counted_ptr_inplaceIN8asiodnp311DNP3ChannelESaIS1_ELN9__gnu_cxx12_Lock_policyE1EED1Ev,_ZNSt23_Sp_counted_ptr_inplaceIN8asiodnp311DNP3ChannelESaIS1_ELN9__gnu_cxx12_Lock_policyE1EED2Ev
	.section	.text._ZNSt23_Sp_counted_ptr_inplaceIN7asiopal15ResourceManagerESaIS1_ELN9__gnu_cxx12_Lock_policyE1EED2Ev,"axG",%progbits,_ZNSt23_Sp_counted_ptr_inplaceIN7asiopal15ResourceManagerESaIS1_ELN9__gnu_cxx12_Lock_policyE1EED5Ev,comdat
	.align	2
	.weak	_ZNSt23_Sp_counted_ptr_inplaceIN7asiopal15ResourceManagerESaIS1_ELN9__gnu_cxx12_Lock_policyE1EED2Ev
	.syntax unified
	.arm
	.fpu vfp
	.type	_ZNSt23_Sp_counted_ptr_inplaceIN7asiopal15ResourceManagerESaIS1_ELN9__gnu_cxx12_Lock_policyE1EED2Ev, %function
_ZNSt23_Sp_counted_ptr_inplaceIN7asiopal15ResourceManagerESaIS1_ELN9__gnu_cxx12_Lock_policyE1EED2Ev:
	.fnstart
.LFB11751:
	@ args = 0, pretend = 0, frame = 0
	@ frame_needed = 0, uses_anonymous_args = 0
	@ link register save eliminated.
	bx	lr
	.cantunwind
	.fnend
	.size	_ZNSt23_Sp_counted_ptr_inplaceIN7asiopal15ResourceManagerESaIS1_ELN9__gnu_cxx12_Lock_policyE1EED2Ev, .-_ZNSt23_Sp_counted_ptr_inplaceIN7asiopal15ResourceManagerESaIS1_ELN9__gnu_cxx12_Lock_policyE1EED2Ev
	.weak	_ZNSt23_Sp_counted_ptr_inplaceIN7asiopal15ResourceManagerESaIS1_ELN9__gnu_cxx12_Lock_policyE1EED1Ev
	.set	_ZNSt23_Sp_counted_ptr_inplaceIN7asiopal15ResourceManagerESaIS1_ELN9__gnu_cxx12_Lock_policyE1EED1Ev,_ZNSt23_Sp_counted_ptr_inplaceIN7asiopal15ResourceManagerESaIS1_ELN9__gnu_cxx12_Lock_policyE1EED2Ev
	.section	.text._ZNSt23_Sp_counted_ptr_inplaceIN7asiopal8ExecutorESaIS1_ELN9__gnu_cxx12_Lock_policyE1EED2Ev,"axG",%progbits,_ZNSt23_Sp_counted_ptr_inplaceIN7asiopal8ExecutorESaIS1_ELN9__gnu_cxx12_Lock_policyE1EED5Ev,comdat
	.align	2
	.weak	_ZNSt23_Sp_counted_ptr_inplaceIN7asiopal8ExecutorESaIS1_ELN9__gnu_cxx12_Lock_policyE1EED2Ev
	.syntax unified
	.arm
	.fpu vfp
	.type	_ZNSt23_Sp_counted_ptr_inplaceIN7asiopal8ExecutorESaIS1_ELN9__gnu_cxx12_Lock_policyE1EED2Ev, %function
_ZNSt23_Sp_counted_ptr_inplaceIN7asiopal8ExecutorESaIS1_ELN9__gnu_cxx12_Lock_policyE1EED2Ev:
	.fnstart
.LFB11758:
	@ args = 0, pretend = 0, frame = 0
	@ frame_needed = 0, uses_anonymous_args = 0
	@ link register save eliminated.
	bx	lr
	.cantunwind
	.fnend
	.size	_ZNSt23_Sp_counted_ptr_inplaceIN7asiopal8ExecutorESaIS1_ELN9__gnu_cxx12_Lock_policyE1EED2Ev, .-_ZNSt23_Sp_counted_ptr_inplaceIN7asiopal8ExecutorESaIS1_ELN9__gnu_cxx12_Lock_policyE1EED2Ev
	.weak	_ZNSt23_Sp_counted_ptr_inplaceIN7asiopal8ExecutorESaIS1_ELN9__gnu_cxx12_Lock_policyE1EED1Ev
	.set	_ZNSt23_Sp_counted_ptr_inplaceIN7asiopal8ExecutorESaIS1_ELN9__gnu_cxx12_Lock_policyE1EED1Ev,_ZNSt23_Sp_counted_ptr_inplaceIN7asiopal8ExecutorESaIS1_ELN9__gnu_cxx12_Lock_policyE1EED2Ev
	.section	.text._ZNSt23_Sp_counted_ptr_inplaceIN7openpal6Logger8SettingsESaIS2_ELN9__gnu_cxx12_Lock_policyE1EED2Ev,"axG",%progbits,_ZNSt23_Sp_counted_ptr_inplaceIN7openpal6Logger8SettingsESaIS2_ELN9__gnu_cxx12_Lock_policyE1EED5Ev,comdat
	.align	2
	.weak	_ZNSt23_Sp_counted_ptr_inplaceIN7openpal6Logger8SettingsESaIS2_ELN9__gnu_cxx12_Lock_policyE1EED2Ev
	.syntax unified
	.arm
	.fpu vfp
	.type	_ZNSt23_Sp_counted_ptr_inplaceIN7openpal6Logger8SettingsESaIS2_ELN9__gnu_cxx12_Lock_policyE1EED2Ev, %function
_ZNSt23_Sp_counted_ptr_inplaceIN7openpal6Logger8SettingsESaIS2_ELN9__gnu_cxx12_Lock_policyE1EED2Ev:
	.fnstart
.LFB11779:
	@ args = 0, pretend = 0, frame = 0
	@ frame_needed = 0, uses_anonymous_args = 0
	@ link register save eliminated.
	bx	lr
	.cantunwind
	.fnend
	.size	_ZNSt23_Sp_counted_ptr_inplaceIN7openpal6Logger8SettingsESaIS2_ELN9__gnu_cxx12_Lock_policyE1EED2Ev, .-_ZNSt23_Sp_counted_ptr_inplaceIN7openpal6Logger8SettingsESaIS2_ELN9__gnu_cxx12_Lock_policyE1EED2Ev
	.weak	_ZNSt23_Sp_counted_ptr_inplaceIN7openpal6Logger8SettingsESaIS2_ELN9__gnu_cxx12_Lock_policyE1EED1Ev
	.set	_ZNSt23_Sp_counted_ptr_inplaceIN7openpal6Logger8SettingsESaIS2_ELN9__gnu_cxx12_Lock_policyE1EED1Ev,_ZNSt23_Sp_counted_ptr_inplaceIN7openpal6Logger8SettingsESaIS2_ELN9__gnu_cxx12_Lock_policyE1EED2Ev
	.section	.text._ZNSt23_Sp_counted_ptr_inplaceIN7asiopal2IOESaIS1_ELN9__gnu_cxx12_Lock_policyE1EE10_M_destroyEv,"axG",%progbits,_ZNSt23_Sp_counted_ptr_inplaceIN7asiopal2IOESaIS1_ELN9__gnu_cxx12_Lock_policyE1EE10_M_destroyEv,comdat
	.align	2
	.weak	_ZNSt23_Sp_counted_ptr_inplaceIN7asiopal2IOESaIS1_ELN9__gnu_cxx12_Lock_policyE1EE10_M_destroyEv
	.syntax unified
	.arm
	.fpu vfp
	.type	_ZNSt23_Sp_counted_ptr_inplaceIN7asiopal2IOESaIS1_ELN9__gnu_cxx12_Lock_policyE1EE10_M_destroyEv, %function
_ZNSt23_Sp_counted_ptr_inplaceIN7asiopal2IOESaIS1_ELN9__gnu_cxx12_Lock_policyE1EE10_M_destroyEv:
	.fnstart
.LFB11692:
	@ args = 0, pretend = 0, frame = 0
	@ frame_needed = 0, uses_anonymous_args = 0
	@ link register save eliminated.
	b	_ZdlPv(PLT)
	.cantunwind
	.fnend
	.size	_ZNSt23_Sp_counted_ptr_inplaceIN7asiopal2IOESaIS1_ELN9__gnu_cxx12_Lock_policyE1EE10_M_destroyEv, .-_ZNSt23_Sp_counted_ptr_inplaceIN7asiopal2IOESaIS1_ELN9__gnu_cxx12_Lock_policyE1EE10_M_destroyEv
	.section	.text._ZNSt23_Sp_counted_ptr_inplaceIN8asiodnp315SerialIOHandlerESaIS1_ELN9__gnu_cxx12_Lock_policyE1EE10_M_destroyEv,"axG",%progbits,_ZNSt23_Sp_counted_ptr_inplaceIN8asiodnp315SerialIOHandlerESaIS1_ELN9__gnu_cxx12_Lock_policyE1EE10_M_destroyEv,comdat
	.align	2
	.weak	_ZNSt23_Sp_counted_ptr_inplaceIN8asiodnp315SerialIOHandlerESaIS1_ELN9__gnu_cxx12_Lock_policyE1EE10_M_destroyEv
	.syntax unified
	.arm
	.fpu vfp
	.type	_ZNSt23_Sp_counted_ptr_inplaceIN8asiodnp315SerialIOHandlerESaIS1_ELN9__gnu_cxx12_Lock_policyE1EE10_M_destroyEv, %function
_ZNSt23_Sp_counted_ptr_inplaceIN8asiodnp315SerialIOHandlerESaIS1_ELN9__gnu_cxx12_Lock_policyE1EE10_M_destroyEv:
	.fnstart
.LFB11699:
	@ args = 0, pretend = 0, frame = 0
	@ frame_needed = 0, uses_anonymous_args = 0
	@ link register save eliminated.
	b	_ZdlPv(PLT)
	.cantunwind
	.fnend
	.size	_ZNSt23_Sp_counted_ptr_inplaceIN8asiodnp315SerialIOHandlerESaIS1_ELN9__gnu_cxx12_Lock_policyE1EE10_M_destroyEv, .-_ZNSt23_Sp_counted_ptr_inplaceIN8asiodnp315SerialIOHandlerESaIS1_ELN9__gnu_cxx12_Lock_policyE1EE10_M_destroyEv
	.section	.text._ZNSt23_Sp_counted_ptr_inplaceIN8asiodnp318TCPServerIOHandlerESaIS1_ELN9__gnu_cxx12_Lock_policyE1EE10_M_destroyEv,"axG",%progbits,_ZNSt23_Sp_counted_ptr_inplaceIN8asiodnp318TCPServerIOHandlerESaIS1_ELN9__gnu_cxx12_Lock_policyE1EE10_M_destroyEv,comdat
	.align	2
	.weak	_ZNSt23_Sp_counted_ptr_inplaceIN8asiodnp318TCPServerIOHandlerESaIS1_ELN9__gnu_cxx12_Lock_policyE1EE10_M_destroyEv
	.syntax unified
	.arm
	.fpu vfp
	.type	_ZNSt23_Sp_counted_ptr_inplaceIN8asiodnp318TCPServerIOHandlerESaIS1_ELN9__gnu_cxx12_Lock_policyE1EE10_M_destroyEv, %function
_ZNSt23_Sp_counted_ptr_inplaceIN8asiodnp318TCPServerIOHandlerESaIS1_ELN9__gnu_cxx12_Lock_policyE1EE10_M_destroyEv:
	.fnstart
.LFB11713:
	@ args = 0, pretend = 0, frame = 0
	@ frame_needed = 0, uses_anonymous_args = 0
	@ link register save eliminated.
	b	_ZdlPv(PLT)
	.cantunwind
	.fnend
	.size	_ZNSt23_Sp_counted_ptr_inplaceIN8asiodnp318TCPServerIOHandlerESaIS1_ELN9__gnu_cxx12_Lock_policyE1EE10_M_destroyEv, .-_ZNSt23_Sp_counted_ptr_inplaceIN8asiodnp318TCPServerIOHandlerESaIS1_ELN9__gnu_cxx12_Lock_policyE1EE10_M_destroyEv
	.section	.text._ZNSt23_Sp_counted_ptr_inplaceIN8asiodnp318TCPClientIOHandlerESaIS1_ELN9__gnu_cxx12_Lock_policyE1EE10_M_destroyEv,"axG",%progbits,_ZNSt23_Sp_counted_ptr_inplaceIN8asiodnp318TCPClientIOHandlerESaIS1_ELN9__gnu_cxx12_Lock_policyE1EE10_M_destroyEv,comdat
	.align	2
	.weak	_ZNSt23_Sp_counted_ptr_inplaceIN8asiodnp318TCPClientIOHandlerESaIS1_ELN9__gnu_cxx12_Lock_policyE1EE10_M_destroyEv
	.syntax unified
	.arm
	.fpu vfp
	.type	_ZNSt23_Sp_counted_ptr_inplaceIN8asiodnp318TCPClientIOHandlerESaIS1_ELN9__gnu_cxx12_Lock_policyE1EE10_M_destroyEv, %function
_ZNSt23_Sp_counted_ptr_inplaceIN8asiodnp318TCPClientIOHandlerESaIS1_ELN9__gnu_cxx12_Lock_policyE1EE10_M_destroyEv:
	.fnstart
.LFB11720:
	@ args = 0, pretend = 0, frame = 0
	@ frame_needed = 0, uses_anonymous_args = 0
	@ link register save eliminated.
	b	_ZdlPv(PLT)
	.cantunwind
	.fnend
	.size	_ZNSt23_Sp_counted_ptr_inplaceIN8asiodnp318TCPClientIOHandlerESaIS1_ELN9__gnu_cxx12_Lock_policyE1EE10_M_destroyEv, .-_ZNSt23_Sp_counted_ptr_inplaceIN8asiodnp318TCPClientIOHandlerESaIS1_ELN9__gnu_cxx12_Lock_policyE1EE10_M_destroyEv
	.section	.text._ZNSt23_Sp_counted_ptr_inplaceIN8asiodnp315MasterTCPServerESaIS1_ELN9__gnu_cxx12_Lock_policyE1EE10_M_destroyEv,"axG",%progbits,_ZNSt23_Sp_counted_ptr_inplaceIN8asiodnp315MasterTCPServerESaIS1_ELN9__gnu_cxx12_Lock_policyE1EE10_M_destroyEv,comdat
	.align	2
	.weak	_ZNSt23_Sp_counted_ptr_inplaceIN8asiodnp315MasterTCPServerESaIS1_ELN9__gnu_cxx12_Lock_policyE1EE10_M_destroyEv
	.syntax unified
	.arm
	.fpu vfp
	.type	_ZNSt23_Sp_counted_ptr_inplaceIN8asiodnp315MasterTCPServerESaIS1_ELN9__gnu_cxx12_Lock_policyE1EE10_M_destroyEv, %function
_ZNSt23_Sp_counted_ptr_inplaceIN8asiodnp315MasterTCPServerESaIS1_ELN9__gnu_cxx12_Lock_policyE1EE10_M_destroyEv:
	.fnstart
.LFB11734:
	@ args = 0, pretend = 0, frame = 0
	@ frame_needed = 0, uses_anonymous_args = 0
	@ link register save eliminated.
	b	_ZdlPv(PLT)
	.cantunwind
	.fnend
	.size	_ZNSt23_Sp_counted_ptr_inplaceIN8asiodnp315MasterTCPServerESaIS1_ELN9__gnu_cxx12_Lock_policyE1EE10_M_destroyEv, .-_ZNSt23_Sp_counted_ptr_inplaceIN8asiodnp315MasterTCPServerESaIS1_ELN9__gnu_cxx12_Lock_policyE1EE10_M_destroyEv
	.section	.text._ZNSt23_Sp_counted_ptr_inplaceIN8asiodnp311DNP3ChannelESaIS1_ELN9__gnu_cxx12_Lock_policyE1EE10_M_destroyEv,"axG",%progbits,_ZNSt23_Sp_counted_ptr_inplaceIN8asiodnp311DNP3ChannelESaIS1_ELN9__gnu_cxx12_Lock_policyE1EE10_M_destroyEv,comdat
	.align	2
	.weak	_ZNSt23_Sp_counted_ptr_inplaceIN8asiodnp311DNP3ChannelESaIS1_ELN9__gnu_cxx12_Lock_policyE1EE10_M_destroyEv
	.syntax unified
	.arm
	.fpu vfp
	.type	_ZNSt23_Sp_counted_ptr_inplaceIN8asiodnp311DNP3ChannelESaIS1_ELN9__gnu_cxx12_Lock_policyE1EE10_M_destroyEv, %function
_ZNSt23_Sp_counted_ptr_inplaceIN8asiodnp311DNP3ChannelESaIS1_ELN9__gnu_cxx12_Lock_policyE1EE10_M_destroyEv:
	.fnstart
.LFB11741:
	@ args = 0, pretend = 0, frame = 0
	@ frame_needed = 0, uses_anonymous_args = 0
	@ link register save eliminated.
	b	_ZdlPv(PLT)
	.cantunwind
	.fnend
	.size	_ZNSt23_Sp_counted_ptr_inplaceIN8asiodnp311DNP3ChannelESaIS1_ELN9__gnu_cxx12_Lock_policyE1EE10_M_destroyEv, .-_ZNSt23_Sp_counted_ptr_inplaceIN8asiodnp311DNP3ChannelESaIS1_ELN9__gnu_cxx12_Lock_policyE1EE10_M_destroyEv
	.section	.text._ZNSt23_Sp_counted_ptr_inplaceIN7asiopal15ResourceManagerESaIS1_ELN9__gnu_cxx12_Lock_policyE1EE10_M_destroyEv,"axG",%progbits,_ZNSt23_Sp_counted_ptr_inplaceIN7asiopal15ResourceManagerESaIS1_ELN9__gnu_cxx12_Lock_policyE1EE10_M_destroyEv,comdat
	.align	2
	.weak	_ZNSt23_Sp_counted_ptr_inplaceIN7asiopal15ResourceManagerESaIS1_ELN9__gnu_cxx12_Lock_policyE1EE10_M_destroyEv
	.syntax unified
	.arm
	.fpu vfp
	.type	_ZNSt23_Sp_counted_ptr_inplaceIN7asiopal15ResourceManagerESaIS1_ELN9__gnu_cxx12_Lock_policyE1EE10_M_destroyEv, %function
_ZNSt23_Sp_counted_ptr_inplaceIN7asiopal15ResourceManagerESaIS1_ELN9__gnu_cxx12_Lock_policyE1EE10_M_destroyEv:
	.fnstart
.LFB11755:
	@ args = 0, pretend = 0, frame = 0
	@ frame_needed = 0, uses_anonymous_args = 0
	@ link register save eliminated.
	b	_ZdlPv(PLT)
	.cantunwind
	.fnend
	.size	_ZNSt23_Sp_counted_ptr_inplaceIN7asiopal15ResourceManagerESaIS1_ELN9__gnu_cxx12_Lock_policyE1EE10_M_destroyEv, .-_ZNSt23_Sp_counted_ptr_inplaceIN7asiopal15ResourceManagerESaIS1_ELN9__gnu_cxx12_Lock_policyE1EE10_M_destroyEv
	.section	.text._ZNSt23_Sp_counted_ptr_inplaceIN7asiopal8ExecutorESaIS1_ELN9__gnu_cxx12_Lock_policyE1EE10_M_destroyEv,"axG",%progbits,_ZNSt23_Sp_counted_ptr_inplaceIN7asiopal8ExecutorESaIS1_ELN9__gnu_cxx12_Lock_policyE1EE10_M_destroyEv,comdat
	.align	2
	.weak	_ZNSt23_Sp_counted_ptr_inplaceIN7asiopal8ExecutorESaIS1_ELN9__gnu_cxx12_Lock_policyE1EE10_M_destroyEv
	.syntax unified
	.arm
	.fpu vfp
	.type	_ZNSt23_Sp_counted_ptr_inplaceIN7asiopal8ExecutorESaIS1_ELN9__gnu_cxx12_Lock_policyE1EE10_M_destroyEv, %function
_ZNSt23_Sp_counted_ptr_inplaceIN7asiopal8ExecutorESaIS1_ELN9__gnu_cxx12_Lock_policyE1EE10_M_destroyEv:
	.fnstart
.LFB11762:
	@ args = 0, pretend = 0, frame = 0
	@ frame_needed = 0, uses_anonymous_args = 0
	@ link register save eliminated.
	b	_ZdlPv(PLT)
	.cantunwind
	.fnend
	.size	_ZNSt23_Sp_counted_ptr_inplaceIN7asiopal8ExecutorESaIS1_ELN9__gnu_cxx12_Lock_policyE1EE10_M_destroyEv, .-_ZNSt23_Sp_counted_ptr_inplaceIN7asiopal8ExecutorESaIS1_ELN9__gnu_cxx12_Lock_policyE1EE10_M_destroyEv
	.section	.text._ZNSt23_Sp_counted_ptr_inplaceIN7openpal6Logger8SettingsESaIS2_ELN9__gnu_cxx12_Lock_policyE1EE10_M_destroyEv,"axG",%progbits,_ZNSt23_Sp_counted_ptr_inplaceIN7openpal6Logger8SettingsESaIS2_ELN9__gnu_cxx12_Lock_policyE1EE10_M_destroyEv,comdat
	.align	2
	.weak	_ZNSt23_Sp_counted_ptr_inplaceIN7openpal6Logger8SettingsESaIS2_ELN9__gnu_cxx12_Lock_policyE1EE10_M_destroyEv
	.syntax unified
	.arm
	.fpu vfp
	.type	_ZNSt23_Sp_counted_ptr_inplaceIN7openpal6Logger8SettingsESaIS2_ELN9__gnu_cxx12_Lock_policyE1EE10_M_destroyEv, %function
_ZNSt23_Sp_counted_ptr_inplaceIN7openpal6Logger8SettingsESaIS2_ELN9__gnu_cxx12_Lock_policyE1EE10_M_destroyEv:
	.fnstart
.LFB11783:
	@ args = 0, pretend = 0, frame = 0
	@ frame_needed = 0, uses_anonymous_args = 0
	@ link register save eliminated.
	b	_ZdlPv(PLT)
	.cantunwind
	.fnend
	.size	_ZNSt23_Sp_counted_ptr_inplaceIN7openpal6Logger8SettingsESaIS2_ELN9__gnu_cxx12_Lock_policyE1EE10_M_destroyEv, .-_ZNSt23_Sp_counted_ptr_inplaceIN7openpal6Logger8SettingsESaIS2_ELN9__gnu_cxx12_Lock_policyE1EE10_M_destroyEv
	.section	.text._ZNSt23_Sp_counted_ptr_inplaceIN7openpal6Logger8SettingsESaIS2_ELN9__gnu_cxx12_Lock_policyE1EE10_M_disposeEv,"axG",%progbits,_ZNSt23_Sp_counted_ptr_inplaceIN7openpal6Logger8SettingsESaIS2_ELN9__gnu_cxx12_Lock_policyE1EE10_M_disposeEv,comdat
	.align	2
	.weak	_ZNSt23_Sp_counted_ptr_inplaceIN7openpal6Logger8SettingsESaIS2_ELN9__gnu_cxx12_Lock_policyE1EE10_M_disposeEv
	.syntax unified
	.arm
	.fpu vfp
	.type	_ZNSt23_Sp_counted_ptr_inplaceIN7openpal6Logger8SettingsESaIS2_ELN9__gnu_cxx12_Lock_policyE1EE10_M_disposeEv, %function
_ZNSt23_Sp_counted_ptr_inplaceIN7openpal6Logger8SettingsESaIS2_ELN9__gnu_cxx12_Lock_policyE1EE10_M_disposeEv:
	.fnstart
.LFB11782:
	@ args = 0, pretend = 0, frame = 0
	@ frame_needed = 0, uses_anonymous_args = 0
	@ link register save eliminated.
	add	r3, r0, #44
	ldr	r0, [r0, #36]
	cmp	r0, r3
	bxeq	lr
	b	_ZdlPv(PLT)
	.cantunwind
	.fnend
	.size	_ZNSt23_Sp_counted_ptr_inplaceIN7openpal6Logger8SettingsESaIS2_ELN9__gnu_cxx12_Lock_policyE1EE10_M_disposeEv, .-_ZNSt23_Sp_counted_ptr_inplaceIN7openpal6Logger8SettingsESaIS2_ELN9__gnu_cxx12_Lock_policyE1EE10_M_disposeEv
	.section	.text._ZNSt23_Sp_counted_ptr_inplaceIN7openpal6Logger8SettingsESaIS2_ELN9__gnu_cxx12_Lock_policyE1EE14_M_get_deleterERKSt9type_info,"axG",%progbits,_ZNSt23_Sp_counted_ptr_inplaceIN7openpal6Logger8SettingsESaIS2_ELN9__gnu_cxx12_Lock_policyE1EE14_M_get_deleterERKSt9type_info,comdat
	.align	2
	.weak	_ZNSt23_Sp_counted_ptr_inplaceIN7openpal6Logger8SettingsESaIS2_ELN9__gnu_cxx12_Lock_policyE1EE14_M_get_deleterERKSt9type_info
	.syntax unified
	.arm
	.fpu vfp
	.type	_ZNSt23_Sp_counted_ptr_inplaceIN7openpal6Logger8SettingsESaIS2_ELN9__gnu_cxx12_Lock_policyE1EE14_M_get_deleterERKSt9type_info, %function
_ZNSt23_Sp_counted_ptr_inplaceIN7openpal6Logger8SettingsESaIS2_ELN9__gnu_cxx12_Lock_policyE1EE14_M_get_deleterERKSt9type_info:
	.fnstart
.LFB11784:
	@ args = 0, pretend = 0, frame = 0
	@ frame_needed = 0, uses_anonymous_args = 0
	ldr	r3, .L42
	ldr	r2, .L42+4
.LPIC4:
	add	r3, pc, r3
	push	{r4, lr}
	mov	r4, r0
	ldr	r2, [r3, r2]
	mov	r0, r1
	mov	r1, r2
	bl	_ZNKSt9type_infoeqERKS_(PLT)
	cmp	r0, #0
	addne	r0, r4, #36
	pop	{r4, pc}
.L43:
	.align	2
.L42:
	.word	_GLOBAL_OFFSET_TABLE_-(.LPIC4+8)
	.word	_ZTISt19_Sp_make_shared_tag(GOT)
	.cantunwind
	.fnend
	.size	_ZNSt23_Sp_counted_ptr_inplaceIN7openpal6Logger8SettingsESaIS2_ELN9__gnu_cxx12_Lock_policyE1EE14_M_get_deleterERKSt9type_info, .-_ZNSt23_Sp_counted_ptr_inplaceIN7openpal6Logger8SettingsESaIS2_ELN9__gnu_cxx12_Lock_policyE1EE14_M_get_deleterERKSt9type_info
	.section	.text._ZNSt23_Sp_counted_ptr_inplaceIN7asiopal8ExecutorESaIS1_ELN9__gnu_cxx12_Lock_policyE1EE14_M_get_deleterERKSt9type_info,"axG",%progbits,_ZNSt23_Sp_counted_ptr_inplaceIN7asiopal8ExecutorESaIS1_ELN9__gnu_cxx12_Lock_policyE1EE14_M_get_deleterERKSt9type_info,comdat
	.align	2
	.weak	_ZNSt23_Sp_counted_ptr_inplaceIN7asiopal8ExecutorESaIS1_ELN9__gnu_cxx12_Lock_policyE1EE14_M_get_deleterERKSt9type_info
	.syntax unified
	.arm
	.fpu vfp
	.type	_ZNSt23_Sp_counted_ptr_inplaceIN7asiopal8ExecutorESaIS1_ELN9__gnu_cxx12_Lock_policyE1EE14_M_get_deleterERKSt9type_info, %function
_ZNSt23_Sp_counted_ptr_inplaceIN7asiopal8ExecutorESaIS1_ELN9__gnu_cxx12_Lock_policyE1EE14_M_get_deleterERKSt9type_info:
	.fnstart
.LFB11763:
	@ args = 0, pretend = 0, frame = 0
	@ frame_needed = 0, uses_anonymous_args = 0
	ldr	r3, .L48
	ldr	r2, .L48+4
.LPIC5:
	add	r3, pc, r3
	push	{r4, lr}
	mov	r4, r0
	ldr	r2, [r3, r2]
	mov	r0, r1
	mov	r1, r2
	bl	_ZNKSt9type_infoeqERKS_(PLT)
	cmp	r0, #0
	addne	r0, r4, #36
	pop	{r4, pc}
.L49:
	.align	2
.L48:
	.word	_GLOBAL_OFFSET_TABLE_-(.LPIC5+8)
	.word	_ZTISt19_Sp_make_shared_tag(GOT)
	.cantunwind
	.fnend
	.size	_ZNSt23_Sp_counted_ptr_inplaceIN7asiopal8ExecutorESaIS1_ELN9__gnu_cxx12_Lock_policyE1EE14_M_get_deleterERKSt9type_info, .-_ZNSt23_Sp_counted_ptr_inplaceIN7asiopal8ExecutorESaIS1_ELN9__gnu_cxx12_Lock_policyE1EE14_M_get_deleterERKSt9type_info
	.section	.text._ZNSt23_Sp_counted_ptr_inplaceIN7asiopal15ResourceManagerESaIS1_ELN9__gnu_cxx12_Lock_policyE1EE14_M_get_deleterERKSt9type_info,"axG",%progbits,_ZNSt23_Sp_counted_ptr_inplaceIN7asiopal15ResourceManagerESaIS1_ELN9__gnu_cxx12_Lock_policyE1EE14_M_get_deleterERKSt9type_info,comdat
	.align	2
	.weak	_ZNSt23_Sp_counted_ptr_inplaceIN7asiopal15ResourceManagerESaIS1_ELN9__gnu_cxx12_Lock_policyE1EE14_M_get_deleterERKSt9type_info
	.syntax unified
	.arm
	.fpu vfp
	.type	_ZNSt23_Sp_counted_ptr_inplaceIN7asiopal15ResourceManagerESaIS1_ELN9__gnu_cxx12_Lock_policyE1EE14_M_get_deleterERKSt9type_info, %function
_ZNSt23_Sp_counted_ptr_inplaceIN7asiopal15ResourceManagerESaIS1_ELN9__gnu_cxx12_Lock_policyE1EE14_M_get_deleterERKSt9type_info:
	.fnstart
.LFB11756:
	@ args = 0, pretend = 0, frame = 0
	@ frame_needed = 0, uses_anonymous_args = 0
	ldr	r3, .L54
	ldr	r2, .L54+4
.LPIC6:
	add	r3, pc, r3
	push	{r4, lr}
	mov	r4, r0
	ldr	r2, [r3, r2]
	mov	r0, r1
	mov	r1, r2
	bl	_ZNKSt9type_infoeqERKS_(PLT)
	cmp	r0, #0
	addne	r0, r4, #36
	pop	{r4, pc}
.L55:
	.align	2
.L54:
	.word	_GLOBAL_OFFSET_TABLE_-(.LPIC6+8)
	.word	_ZTISt19_Sp_make_shared_tag(GOT)
	.cantunwind
	.fnend
	.size	_ZNSt23_Sp_counted_ptr_inplaceIN7asiopal15ResourceManagerESaIS1_ELN9__gnu_cxx12_Lock_policyE1EE14_M_get_deleterERKSt9type_info, .-_ZNSt23_Sp_counted_ptr_inplaceIN7asiopal15ResourceManagerESaIS1_ELN9__gnu_cxx12_Lock_policyE1EE14_M_get_deleterERKSt9type_info
	.section	.text._ZNSt23_Sp_counted_ptr_inplaceIN8asiodnp311DNP3ChannelESaIS1_ELN9__gnu_cxx12_Lock_policyE1EE14_M_get_deleterERKSt9type_info,"axG",%progbits,_ZNSt23_Sp_counted_ptr_inplaceIN8asiodnp311DNP3ChannelESaIS1_ELN9__gnu_cxx12_Lock_policyE1EE14_M_get_deleterERKSt9type_info,comdat
	.align	2
	.weak	_ZNSt23_Sp_counted_ptr_inplaceIN8asiodnp311DNP3ChannelESaIS1_ELN9__gnu_cxx12_Lock_policyE1EE14_M_get_deleterERKSt9type_info
	.syntax unified
	.arm
	.fpu vfp
	.type	_ZNSt23_Sp_counted_ptr_inplaceIN8asiodnp311DNP3ChannelESaIS1_ELN9__gnu_cxx12_Lock_policyE1EE14_M_get_deleterERKSt9type_info, %function
_ZNSt23_Sp_counted_ptr_inplaceIN8asiodnp311DNP3ChannelESaIS1_ELN9__gnu_cxx12_Lock_policyE1EE14_M_get_deleterERKSt9type_info:
	.fnstart
.LFB11742:
	@ args = 0, pretend = 0, frame = 0
	@ frame_needed = 0, uses_anonymous_args = 0
	ldr	r3, .L60
	ldr	r2, .L60+4
.LPIC7:
	add	r3, pc, r3
	push	{r4, lr}
	mov	r4, r0
	ldr	r2, [r3, r2]
	mov	r0, r1
	mov	r1, r2
	bl	_ZNKSt9type_infoeqERKS_(PLT)
	cmp	r0, #0
	addne	r0, r4, #36
	pop	{r4, pc}
.L61:
	.align	2
.L60:
	.word	_GLOBAL_OFFSET_TABLE_-(.LPIC7+8)
	.word	_ZTISt19_Sp_make_shared_tag(GOT)
	.cantunwind
	.fnend
	.size	_ZNSt23_Sp_counted_ptr_inplaceIN8asiodnp311DNP3ChannelESaIS1_ELN9__gnu_cxx12_Lock_policyE1EE14_M_get_deleterERKSt9type_info, .-_ZNSt23_Sp_counted_ptr_inplaceIN8asiodnp311DNP3ChannelESaIS1_ELN9__gnu_cxx12_Lock_policyE1EE14_M_get_deleterERKSt9type_info
	.section	.text._ZNSt23_Sp_counted_ptr_inplaceIN8asiodnp315MasterTCPServerESaIS1_ELN9__gnu_cxx12_Lock_policyE1EE14_M_get_deleterERKSt9type_info,"axG",%progbits,_ZNSt23_Sp_counted_ptr_inplaceIN8asiodnp315MasterTCPServerESaIS1_ELN9__gnu_cxx12_Lock_policyE1EE14_M_get_deleterERKSt9type_info,comdat
	.align	2
	.weak	_ZNSt23_Sp_counted_ptr_inplaceIN8asiodnp315MasterTCPServerESaIS1_ELN9__gnu_cxx12_Lock_policyE1EE14_M_get_deleterERKSt9type_info
	.syntax unified
	.arm
	.fpu vfp
	.type	_ZNSt23_Sp_counted_ptr_inplaceIN8asiodnp315MasterTCPServerESaIS1_ELN9__gnu_cxx12_Lock_policyE1EE14_M_get_deleterERKSt9type_info, %function
_ZNSt23_Sp_counted_ptr_inplaceIN8asiodnp315MasterTCPServerESaIS1_ELN9__gnu_cxx12_Lock_policyE1EE14_M_get_deleterERKSt9type_info:
	.fnstart
.LFB11735:
	@ args = 0, pretend = 0, frame = 0
	@ frame_needed = 0, uses_anonymous_args = 0
	ldr	r3, .L66
	ldr	r2, .L66+4
.LPIC8:
	add	r3, pc, r3
	push	{r4, lr}
	mov	r4, r0
	ldr	r2, [r3, r2]
	mov	r0, r1
	mov	r1, r2
	bl	_ZNKSt9type_infoeqERKS_(PLT)
	cmp	r0, #0
	addne	r0, r4, #40
	pop	{r4, pc}
.L67:
	.align	2
.L66:
	.word	_GLOBAL_OFFSET_TABLE_-(.LPIC8+8)
	.word	_ZTISt19_Sp_make_shared_tag(GOT)
	.cantunwind
	.fnend
	.size	_ZNSt23_Sp_counted_ptr_inplaceIN8asiodnp315MasterTCPServerESaIS1_ELN9__gnu_cxx12_Lock_policyE1EE14_M_get_deleterERKSt9type_info, .-_ZNSt23_Sp_counted_ptr_inplaceIN8asiodnp315MasterTCPServerESaIS1_ELN9__gnu_cxx12_Lock_policyE1EE14_M_get_deleterERKSt9type_info
	.section	.text._ZNSt23_Sp_counted_ptr_inplaceIN8asiodnp318TCPClientIOHandlerESaIS1_ELN9__gnu_cxx12_Lock_policyE1EE14_M_get_deleterERKSt9type_info,"axG",%progbits,_ZNSt23_Sp_counted_ptr_inplaceIN8asiodnp318TCPClientIOHandlerESaIS1_ELN9__gnu_cxx12_Lock_policyE1EE14_M_get_deleterERKSt9type_info,comdat
	.align	2
	.weak	_ZNSt23_Sp_counted_ptr_inplaceIN8asiodnp318TCPClientIOHandlerESaIS1_ELN9__gnu_cxx12_Lock_policyE1EE14_M_get_deleterERKSt9type_info
	.syntax unified
	.arm
	.fpu vfp
	.type	_ZNSt23_Sp_counted_ptr_inplaceIN8asiodnp318TCPClientIOHandlerESaIS1_ELN9__gnu_cxx12_Lock_policyE1EE14_M_get_deleterERKSt9type_info, %function
_ZNSt23_Sp_counted_ptr_inplaceIN8asiodnp318TCPClientIOHandlerESaIS1_ELN9__gnu_cxx12_Lock_policyE1EE14_M_get_deleterERKSt9type_info:
	.fnstart
.LFB11721:
	@ args = 0, pretend = 0, frame = 0
	@ frame_needed = 0, uses_anonymous_args = 0
	ldr	r3, .L72
	ldr	r2, .L72+4
.LPIC9:
	add	r3, pc, r3
	push	{r4, lr}
	mov	r4, r0
	ldr	r2, [r3, r2]
	mov	r0, r1
	mov	r1, r2
	bl	_ZNKSt9type_infoeqERKS_(PLT)
	cmp	r0, #0
	addne	r0, r4, #40
	pop	{r4, pc}
.L73:
	.align	2
.L72:
	.word	_GLOBAL_OFFSET_TABLE_-(.LPIC9+8)
	.word	_ZTISt19_Sp_make_shared_tag(GOT)
	.cantunwind
	.fnend
	.size	_ZNSt23_Sp_counted_ptr_inplaceIN8asiodnp318TCPClientIOHandlerESaIS1_ELN9__gnu_cxx12_Lock_policyE1EE14_M_get_deleterERKSt9type_info, .-_ZNSt23_Sp_counted_ptr_inplaceIN8asiodnp318TCPClientIOHandlerESaIS1_ELN9__gnu_cxx12_Lock_policyE1EE14_M_get_deleterERKSt9type_info
	.section	.text._ZNSt23_Sp_counted_ptr_inplaceIN8asiodnp318TCPServerIOHandlerESaIS1_ELN9__gnu_cxx12_Lock_policyE1EE14_M_get_deleterERKSt9type_info,"axG",%progbits,_ZNSt23_Sp_counted_ptr_inplaceIN8asiodnp318TCPServerIOHandlerESaIS1_ELN9__gnu_cxx12_Lock_policyE1EE14_M_get_deleterERKSt9type_info,comdat
	.align	2
	.weak	_ZNSt23_Sp_counted_ptr_inplaceIN8asiodnp318TCPServerIOHandlerESaIS1_ELN9__gnu_cxx12_Lock_policyE1EE14_M_get_deleterERKSt9type_info
	.syntax unified
	.arm
	.fpu vfp
	.type	_ZNSt23_Sp_counted_ptr_inplaceIN8asiodnp318TCPServerIOHandlerESaIS1_ELN9__gnu_cxx12_Lock_policyE1EE14_M_get_deleterERKSt9type_info, %function
_ZNSt23_Sp_counted_ptr_inplaceIN8asiodnp318TCPServerIOHandlerESaIS1_ELN9__gnu_cxx12_Lock_policyE1EE14_M_get_deleterERKSt9type_info:
	.fnstart
.LFB11714:
	@ args = 0, pretend = 0, frame = 0
	@ frame_needed = 0, uses_anonymous_args = 0
	ldr	r3, .L78
	ldr	r2, .L78+4
.LPIC10:
	add	r3, pc, r3
	push	{r4, lr}
	mov	r4, r0
	ldr	r2, [r3, r2]
	mov	r0, r1
	mov	r1, r2
	bl	_ZNKSt9type_infoeqERKS_(PLT)
	cmp	r0, #0
	addne	r0, r4, #36
	pop	{r4, pc}
.L79:
	.align	2
.L78:
	.word	_GLOBAL_OFFSET_TABLE_-(.LPIC10+8)
	.word	_ZTISt19_Sp_make_shared_tag(GOT)
	.cantunwind
	.fnend
	.size	_ZNSt23_Sp_counted_ptr_inplaceIN8asiodnp318TCPServerIOHandlerESaIS1_ELN9__gnu_cxx12_Lock_policyE1EE14_M_get_deleterERKSt9type_info, .-_ZNSt23_Sp_counted_ptr_inplaceIN8asiodnp318TCPServerIOHandlerESaIS1_ELN9__gnu_cxx12_Lock_policyE1EE14_M_get_deleterERKSt9type_info
	.section	.text._ZNSt23_Sp_counted_ptr_inplaceIN8asiodnp315SerialIOHandlerESaIS1_ELN9__gnu_cxx12_Lock_policyE1EE14_M_get_deleterERKSt9type_info,"axG",%progbits,_ZNSt23_Sp_counted_ptr_inplaceIN8asiodnp315SerialIOHandlerESaIS1_ELN9__gnu_cxx12_Lock_policyE1EE14_M_get_deleterERKSt9type_info,comdat
	.align	2
	.weak	_ZNSt23_Sp_counted_ptr_inplaceIN8asiodnp315SerialIOHandlerESaIS1_ELN9__gnu_cxx12_Lock_policyE1EE14_M_get_deleterERKSt9type_info
	.syntax unified
	.arm
	.fpu vfp
	.type	_ZNSt23_Sp_counted_ptr_inplaceIN8asiodnp315SerialIOHandlerESaIS1_ELN9__gnu_cxx12_Lock_policyE1EE14_M_get_deleterERKSt9type_info, %function
_ZNSt23_Sp_counted_ptr_inplaceIN8asiodnp315SerialIOHandlerESaIS1_ELN9__gnu_cxx12_Lock_policyE1EE14_M_get_deleterERKSt9type_info:
	.fnstart
.LFB11700:
	@ args = 0, pretend = 0, frame = 0
	@ frame_needed = 0, uses_anonymous_args = 0
	ldr	r3, .L84
	ldr	r2, .L84+4
.LPIC11:
	add	r3, pc, r3
	push	{r4, lr}
	mov	r4, r0
	ldr	r2, [r3, r2]
	mov	r0, r1
	mov	r1, r2
	bl	_ZNKSt9type_infoeqERKS_(PLT)
	cmp	r0, #0
	addne	r0, r4, #40
	pop	{r4, pc}
.L85:
	.align	2
.L84:
	.word	_GLOBAL_OFFSET_TABLE_-(.LPIC11+8)
	.word	_ZTISt19_Sp_make_shared_tag(GOT)
	.cantunwind
	.fnend
	.size	_ZNSt23_Sp_counted_ptr_inplaceIN8asiodnp315SerialIOHandlerESaIS1_ELN9__gnu_cxx12_Lock_policyE1EE14_M_get_deleterERKSt9type_info, .-_ZNSt23_Sp_counted_ptr_inplaceIN8asiodnp315SerialIOHandlerESaIS1_ELN9__gnu_cxx12_Lock_policyE1EE14_M_get_deleterERKSt9type_info
	.section	.text._ZNSt23_Sp_counted_ptr_inplaceIN7asiopal2IOESaIS1_ELN9__gnu_cxx12_Lock_policyE1EE14_M_get_deleterERKSt9type_info,"axG",%progbits,_ZNSt23_Sp_counted_ptr_inplaceIN7asiopal2IOESaIS1_ELN9__gnu_cxx12_Lock_policyE1EE14_M_get_deleterERKSt9type_info,comdat
	.align	2
	.weak	_ZNSt23_Sp_counted_ptr_inplaceIN7asiopal2IOESaIS1_ELN9__gnu_cxx12_Lock_policyE1EE14_M_get_deleterERKSt9type_info
	.syntax unified
	.arm
	.fpu vfp
	.type	_ZNSt23_Sp_counted_ptr_inplaceIN7asiopal2IOESaIS1_ELN9__gnu_cxx12_Lock_policyE1EE14_M_get_deleterERKSt9type_info, %function
_ZNSt23_Sp_counted_ptr_inplaceIN7asiopal2IOESaIS1_ELN9__gnu_cxx12_Lock_policyE1EE14_M_get_deleterERKSt9type_info:
	.fnstart
.LFB11693:
	@ args = 0, pretend = 0, frame = 0
	@ frame_needed = 0, uses_anonymous_args = 0
	ldr	r3, .L90
	ldr	r2, .L90+4
.LPIC12:
	add	r3, pc, r3
	push	{r4, lr}
	mov	r4, r0
	ldr	r2, [r3, r2]
	mov	r0, r1
	mov	r1, r2
	bl	_ZNKSt9type_infoeqERKS_(PLT)
	cmp	r0, #0
	addne	r0, r4, #36
	pop	{r4, pc}
.L91:
	.align	2
.L90:
	.word	_GLOBAL_OFFSET_TABLE_-(.LPIC12+8)
	.word	_ZTISt19_Sp_make_shared_tag(GOT)
	.cantunwind
	.fnend
	.size	_ZNSt23_Sp_counted_ptr_inplaceIN7asiopal2IOESaIS1_ELN9__gnu_cxx12_Lock_policyE1EE14_M_get_deleterERKSt9type_info, .-_ZNSt23_Sp_counted_ptr_inplaceIN7asiopal2IOESaIS1_ELN9__gnu_cxx12_Lock_policyE1EE14_M_get_deleterERKSt9type_info
	.section	.text._ZNSt23_Sp_counted_ptr_inplaceIN7openpal6Logger8SettingsESaIS2_ELN9__gnu_cxx12_Lock_policyE1EED0Ev,"axG",%progbits,_ZNSt23_Sp_counted_ptr_inplaceIN7openpal6Logger8SettingsESaIS2_ELN9__gnu_cxx12_Lock_policyE1EED5Ev,comdat
	.align	2
	.weak	_ZNSt23_Sp_counted_ptr_inplaceIN7openpal6Logger8SettingsESaIS2_ELN9__gnu_cxx12_Lock_policyE1EED0Ev
	.syntax unified
	.arm
	.fpu vfp
	.type	_ZNSt23_Sp_counted_ptr_inplaceIN7openpal6Logger8SettingsESaIS2_ELN9__gnu_cxx12_Lock_policyE1EED0Ev, %function
_ZNSt23_Sp_counted_ptr_inplaceIN7openpal6Logger8SettingsESaIS2_ELN9__gnu_cxx12_Lock_policyE1EED0Ev:
	.fnstart
.LFB11781:
	@ args = 0, pretend = 0, frame = 0
	@ frame_needed = 0, uses_anonymous_args = 0
	push	{r4, lr}
	mov	r1, #64
	mov	r4, r0
	bl	_ZdlPvj(PLT)
	mov	r0, r4
	pop	{r4, pc}
	.cantunwind
	.fnend
	.size	_ZNSt23_Sp_counted_ptr_inplaceIN7openpal6Logger8SettingsESaIS2_ELN9__gnu_cxx12_Lock_policyE1EED0Ev, .-_ZNSt23_Sp_counted_ptr_inplaceIN7openpal6Logger8SettingsESaIS2_ELN9__gnu_cxx12_Lock_policyE1EED0Ev
	.section	.text._ZNSt23_Sp_counted_ptr_inplaceIN7asiopal8ExecutorESaIS1_ELN9__gnu_cxx12_Lock_policyE1EED0Ev,"axG",%progbits,_ZNSt23_Sp_counted_ptr_inplaceIN7asiopal8ExecutorESaIS1_ELN9__gnu_cxx12_Lock_policyE1EED5Ev,comdat
	.align	2
	.weak	_ZNSt23_Sp_counted_ptr_inplaceIN7asiopal8ExecutorESaIS1_ELN9__gnu_cxx12_Lock_policyE1EED0Ev
	.syntax unified
	.arm
	.fpu vfp
	.type	_ZNSt23_Sp_counted_ptr_inplaceIN7asiopal8ExecutorESaIS1_ELN9__gnu_cxx12_Lock_policyE1EED0Ev, %function
_ZNSt23_Sp_counted_ptr_inplaceIN7asiopal8ExecutorESaIS1_ELN9__gnu_cxx12_Lock_policyE1EED0Ev:
	.fnstart
.LFB11760:
	@ args = 0, pretend = 0, frame = 0
	@ frame_needed = 0, uses_anonymous_args = 0
	push	{r4, lr}
	mov	r1, #64
	mov	r4, r0
	bl	_ZdlPvj(PLT)
	mov	r0, r4
	pop	{r4, pc}
	.cantunwind
	.fnend
	.size	_ZNSt23_Sp_counted_ptr_inplaceIN7asiopal8ExecutorESaIS1_ELN9__gnu_cxx12_Lock_policyE1EED0Ev, .-_ZNSt23_Sp_counted_ptr_inplaceIN7asiopal8ExecutorESaIS1_ELN9__gnu_cxx12_Lock_policyE1EED0Ev
	.section	.text._ZNSt23_Sp_counted_ptr_inplaceIN7asiopal15ResourceManagerESaIS1_ELN9__gnu_cxx12_Lock_policyE1EED0Ev,"axG",%progbits,_ZNSt23_Sp_counted_ptr_inplaceIN7asiopal15ResourceManagerESaIS1_ELN9__gnu_cxx12_Lock_policyE1EED5Ev,comdat
	.align	2
	.weak	_ZNSt23_Sp_counted_ptr_inplaceIN7asiopal15ResourceManagerESaIS1_ELN9__gnu_cxx12_Lock_policyE1EED0Ev
	.syntax unified
	.arm
	.fpu vfp
	.type	_ZNSt23_Sp_counted_ptr_inplaceIN7asiopal15ResourceManagerESaIS1_ELN9__gnu_cxx12_Lock_policyE1EED0Ev, %function
_ZNSt23_Sp_counted_ptr_inplaceIN7asiopal15ResourceManagerESaIS1_ELN9__gnu_cxx12_Lock_policyE1EED0Ev:
	.fnstart
.LFB11753:
	@ args = 0, pretend = 0, frame = 0
	@ frame_needed = 0, uses_anonymous_args = 0
	push	{r4, lr}
	mov	r1, #92
	mov	r4, r0
	bl	_ZdlPvj(PLT)
	mov	r0, r4
	pop	{r4, pc}
	.cantunwind
	.fnend
	.size	_ZNSt23_Sp_counted_ptr_inplaceIN7asiopal15ResourceManagerESaIS1_ELN9__gnu_cxx12_Lock_policyE1EED0Ev, .-_ZNSt23_Sp_counted_ptr_inplaceIN7asiopal15ResourceManagerESaIS1_ELN9__gnu_cxx12_Lock_policyE1EED0Ev
	.section	.text._ZNSt23_Sp_counted_ptr_inplaceIN8asiodnp311DNP3ChannelESaIS1_ELN9__gnu_cxx12_Lock_policyE1EED0Ev,"axG",%progbits,_ZNSt23_Sp_counted_ptr_inplaceIN8asiodnp311DNP3ChannelESaIS1_ELN9__gnu_cxx12_Lock_policyE1EED5Ev,comdat
	.align	2
	.weak	_ZNSt23_Sp_counted_ptr_inplaceIN8asiodnp311DNP3ChannelESaIS1_ELN9__gnu_cxx12_Lock_policyE1EED0Ev
	.syntax unified
	.arm
	.fpu vfp
	.type	_ZNSt23_Sp_counted_ptr_inplaceIN8asiodnp311DNP3ChannelESaIS1_ELN9__gnu_cxx12_Lock_policyE1EED0Ev, %function
_ZNSt23_Sp_counted_ptr_inplaceIN8asiodnp311DNP3ChannelESaIS1_ELN9__gnu_cxx12_Lock_policyE1EED0Ev:
	.fnstart
.LFB11739:
	@ args = 0, pretend = 0, frame = 0
	@ frame_needed = 0, uses_anonymous_args = 0
	push	{r4, lr}
	mov	r1, #96
	mov	r4, r0
	bl	_ZdlPvj(PLT)
	mov	r0, r4
	pop	{r4, pc}
	.cantunwind
	.fnend
	.size	_ZNSt23_Sp_counted_ptr_inplaceIN8asiodnp311DNP3ChannelESaIS1_ELN9__gnu_cxx12_Lock_policyE1EED0Ev, .-_ZNSt23_Sp_counted_ptr_inplaceIN8asiodnp311DNP3ChannelESaIS1_ELN9__gnu_cxx12_Lock_policyE1EED0Ev
	.section	.text._ZNSt23_Sp_counted_ptr_inplaceIN8asiodnp315MasterTCPServerESaIS1_ELN9__gnu_cxx12_Lock_policyE1EED0Ev,"axG",%progbits,_ZNSt23_Sp_counted_ptr_inplaceIN8asiodnp315MasterTCPServerESaIS1_ELN9__gnu_cxx12_Lock_policyE1EED5Ev,comdat
	.align	2
	.weak	_ZNSt23_Sp_counted_ptr_inplaceIN8asiodnp315MasterTCPServerESaIS1_ELN9__gnu_cxx12_Lock_policyE1EED0Ev
	.syntax unified
	.arm
	.fpu vfp
	.type	_ZNSt23_Sp_counted_ptr_inplaceIN8asiodnp315MasterTCPServerESaIS1_ELN9__gnu_cxx12_Lock_policyE1EED0Ev, %function
_ZNSt23_Sp_counted_ptr_inplaceIN8asiodnp315MasterTCPServerESaIS1_ELN9__gnu_cxx12_Lock_policyE1EED0Ev:
	.fnstart
.LFB11732:
	@ args = 0, pretend = 0, frame = 0
	@ frame_needed = 0, uses_anonymous_args = 0
	push	{r4, lr}
	mov	r1, #200
	mov	r4, r0
	bl	_ZdlPvj(PLT)
	mov	r0, r4
	pop	{r4, pc}
	.cantunwind
	.fnend
	.size	_ZNSt23_Sp_counted_ptr_inplaceIN8asiodnp315MasterTCPServerESaIS1_ELN9__gnu_cxx12_Lock_policyE1EED0Ev, .-_ZNSt23_Sp_counted_ptr_inplaceIN8asiodnp315MasterTCPServerESaIS1_ELN9__gnu_cxx12_Lock_policyE1EED0Ev
	.section	.text._ZNSt23_Sp_counted_ptr_inplaceIN8asiodnp318TCPClientIOHandlerESaIS1_ELN9__gnu_cxx12_Lock_policyE1EED0Ev,"axG",%progbits,_ZNSt23_Sp_counted_ptr_inplaceIN8asiodnp318TCPClientIOHandlerESaIS1_ELN9__gnu_cxx12_Lock_policyE1EED5Ev,comdat
	.align	2
	.weak	_ZNSt23_Sp_counted_ptr_inplaceIN8asiodnp318TCPClientIOHandlerESaIS1_ELN9__gnu_cxx12_Lock_policyE1EED0Ev
	.syntax unified
	.arm
	.fpu vfp
	.type	_ZNSt23_Sp_counted_ptr_inplaceIN8asiodnp318TCPClientIOHandlerESaIS1_ELN9__gnu_cxx12_Lock_policyE1EED0Ev, %function
_ZNSt23_Sp_counted_ptr_inplaceIN8asiodnp318TCPClientIOHandlerESaIS1_ELN9__gnu_cxx12_Lock_policyE1EED0Ev:
	.fnstart
.LFB11718:
	@ args = 0, pretend = 0, frame = 0
	@ frame_needed = 0, uses_anonymous_args = 0
	push	{r4, lr}
	mov	r1, #728
	mov	r4, r0
	bl	_ZdlPvj(PLT)
	mov	r0, r4
	pop	{r4, pc}
	.cantunwind
	.fnend
	.size	_ZNSt23_Sp_counted_ptr_inplaceIN8asiodnp318TCPClientIOHandlerESaIS1_ELN9__gnu_cxx12_Lock_policyE1EED0Ev, .-_ZNSt23_Sp_counted_ptr_inplaceIN8asiodnp318TCPClientIOHandlerESaIS1_ELN9__gnu_cxx12_Lock_policyE1EED0Ev
	.section	.text._ZNSt23_Sp_counted_ptr_inplaceIN8asiodnp318TCPServerIOHandlerESaIS1_ELN9__gnu_cxx12_Lock_policyE1EED0Ev,"axG",%progbits,_ZNSt23_Sp_counted_ptr_inplaceIN8asiodnp318TCPServerIOHandlerESaIS1_ELN9__gnu_cxx12_Lock_policyE1EED5Ev,comdat
	.align	2
	.weak	_ZNSt23_Sp_counted_ptr_inplaceIN8asiodnp318TCPServerIOHandlerESaIS1_ELN9__gnu_cxx12_Lock_policyE1EED0Ev
	.syntax unified
	.arm
	.fpu vfp
	.type	_ZNSt23_Sp_counted_ptr_inplaceIN8asiodnp318TCPServerIOHandlerESaIS1_ELN9__gnu_cxx12_Lock_policyE1EED0Ev, %function
_ZNSt23_Sp_counted_ptr_inplaceIN8asiodnp318TCPServerIOHandlerESaIS1_ELN9__gnu_cxx12_Lock_policyE1EED0Ev:
	.fnstart
.LFB11711:
	@ args = 0, pretend = 0, frame = 0
	@ frame_needed = 0, uses_anonymous_args = 0
	push	{r4, lr}
	mov	r1, #660
	mov	r4, r0
	bl	_ZdlPvj(PLT)
	mov	r0, r4
	pop	{r4, pc}
	.cantunwind
	.fnend
	.size	_ZNSt23_Sp_counted_ptr_inplaceIN8asiodnp318TCPServerIOHandlerESaIS1_ELN9__gnu_cxx12_Lock_policyE1EED0Ev, .-_ZNSt23_Sp_counted_ptr_inplaceIN8asiodnp318TCPServerIOHandlerESaIS1_ELN9__gnu_cxx12_Lock_policyE1EED0Ev
	.section	.text._ZNSt23_Sp_counted_ptr_inplaceIN8asiodnp315SerialIOHandlerESaIS1_ELN9__gnu_cxx12_Lock_policyE1EED0Ev,"axG",%progbits,_ZNSt23_Sp_counted_ptr_inplaceIN8asiodnp315SerialIOHandlerESaIS1_ELN9__gnu_cxx12_Lock_policyE1EED5Ev,comdat
	.align	2
	.weak	_ZNSt23_Sp_counted_ptr_inplaceIN8asiodnp315SerialIOHandlerESaIS1_ELN9__gnu_cxx12_Lock_policyE1EED0Ev
	.syntax unified
	.arm
	.fpu vfp
	.type	_ZNSt23_Sp_counted_ptr_inplaceIN8asiodnp315SerialIOHandlerESaIS1_ELN9__gnu_cxx12_Lock_policyE1EED0Ev, %function
_ZNSt23_Sp_counted_ptr_inplaceIN8asiodnp315SerialIOHandlerESaIS1_ELN9__gnu_cxx12_Lock_policyE1EED0Ev:
	.fnstart
.LFB11697:
	@ args = 0, pretend = 0, frame = 0
	@ frame_needed = 0, uses_anonymous_args = 0
	push	{r4, lr}
	mov	r1, #712
	mov	r4, r0
	bl	_ZdlPvj(PLT)
	mov	r0, r4
	pop	{r4, pc}
	.cantunwind
	.fnend
	.size	_ZNSt23_Sp_counted_ptr_inplaceIN8asiodnp315SerialIOHandlerESaIS1_ELN9__gnu_cxx12_Lock_policyE1EED0Ev, .-_ZNSt23_Sp_counted_ptr_inplaceIN8asiodnp315SerialIOHandlerESaIS1_ELN9__gnu_cxx12_Lock_policyE1EED0Ev
	.section	.text._ZNSt23_Sp_counted_ptr_inplaceIN7asiopal2IOESaIS1_ELN9__gnu_cxx12_Lock_policyE1EED0Ev,"axG",%progbits,_ZNSt23_Sp_counted_ptr_inplaceIN7asiopal2IOESaIS1_ELN9__gnu_cxx12_Lock_policyE1EED5Ev,comdat
	.align	2
	.weak	_ZNSt23_Sp_counted_ptr_inplaceIN7asiopal2IOESaIS1_ELN9__gnu_cxx12_Lock_policyE1EED0Ev
	.syntax unified
	.arm
	.fpu vfp
	.type	_ZNSt23_Sp_counted_ptr_inplaceIN7asiopal2IOESaIS1_ELN9__gnu_cxx12_Lock_policyE1EED0Ev, %function
_ZNSt23_Sp_counted_ptr_inplaceIN7asiopal2IOESaIS1_ELN9__gnu_cxx12_Lock_policyE1EED0Ev:
	.fnstart
.LFB11690:
	@ args = 0, pretend = 0, frame = 0
	@ frame_needed = 0, uses_anonymous_args = 0
	push	{r4, lr}
	mov	r1, #48
	mov	r4, r0
	bl	_ZdlPvj(PLT)
	mov	r0, r4
	pop	{r4, pc}
	.cantunwind
	.fnend
	.size	_ZNSt23_Sp_counted_ptr_inplaceIN7asiopal2IOESaIS1_ELN9__gnu_cxx12_Lock_policyE1EED0Ev, .-_ZNSt23_Sp_counted_ptr_inplaceIN7asiopal2IOESaIS1_ELN9__gnu_cxx12_Lock_policyE1EED0Ev
	.section	.text._ZN4asio6detail15task_io_service16shutdown_serviceEv,"axG",%progbits,_ZN4asio6detail15task_io_service16shutdown_serviceEv,comdat
	.align	2
	.weak	_ZN4asio6detail15task_io_service16shutdown_serviceEv
	.syntax unified
	.arm
	.fpu vfp
	.type	_ZN4asio6detail15task_io_service16shutdown_serviceEv, %function
_ZN4asio6detail15task_io_service16shutdown_serviceEv:
	.fnstart
.LFB3291:
	@ args = 0, pretend = 0, frame = 8
	@ frame_needed = 0, uses_anonymous_args = 0
	push	{r4, r5, r6, r7, r8, r9, lr}
	.save {r4, r5, r6, r7, r8, r9, lr}
	add	r4, r0, #24
	.pad #12
	sub	sp, sp, #12
	mov	r5, r0
	mov	r0, r4
	bl	pthread_mutex_lock(PLT)
	mov	r3, #1
	mov	r0, r4
	strb	r3, [r5, #137]
	bl	pthread_mutex_unlock(PLT)
	add	r7, r5, #108
	mov	r6, #0
	mov	r8, sp
	b	.L113
.L118:
	ldr	r3, [r4]
	cmp	r3, #0
	streq	r3, [r5, #132]
	cmp	r4, r7
	str	r3, [r5, #128]
	str	r6, [r4]
	bne	.L117
.L113:
	ldr	r4, [r5, #128]
	cmp	r4, #0
	bne	.L118
	str	r4, [r5, #104]
	add	sp, sp, #12
	@ sp needed
	pop	{r4, r5, r6, r7, r8, r9, pc}
.L117:
	str	r6, [sp]
	bl	_ZNSt3_V215system_categoryEv(PLT)
	ldr	r9, [r4, #4]
	mov	r1, r4
	mov	r3, r6
	mov	r2, r8
	str	r0, [sp, #4]
	mov	r0, #0
	blx	r9
	b	.L113
	.fnend
	.size	_ZN4asio6detail15task_io_service16shutdown_serviceEv, .-_ZN4asio6detail15task_io_service16shutdown_serviceEv
	.section	.text._ZN4asio6detail15system_categoryD2Ev,"axG",%progbits,_ZN4asio6detail15system_categoryD5Ev,comdat
	.align	2
	.weak	_ZN4asio6detail15system_categoryD2Ev
	.syntax unified
	.arm
	.fpu vfp
	.type	_ZN4asio6detail15system_categoryD2Ev, %function
_ZN4asio6detail15system_categoryD2Ev:
	.fnstart
.LFB11652:
	@ args = 0, pretend = 0, frame = 0
	@ frame_needed = 0, uses_anonymous_args = 0
	ldr	r3, .L121
	ldr	r2, .L121+4
.LPIC13:
	add	r3, pc, r3
	push	{r4, lr}
	mov	r4, r0
	ldr	r3, [r3, r2]
	add	r3, r3, #8
	str	r3, [r0]
	bl	_ZNSt3_V214error_categoryD2Ev(PLT)
	mov	r0, r4
	pop	{r4, pc}
.L122:
	.align	2
.L121:
	.word	_GLOBAL_OFFSET_TABLE_-(.LPIC13+8)
	.word	_ZTVN4asio6detail15system_categoryE(GOT)
	.cantunwind
	.fnend
	.size	_ZN4asio6detail15system_categoryD2Ev, .-_ZN4asio6detail15system_categoryD2Ev
	.weak	_ZN4asio6detail15system_categoryD1Ev
	.set	_ZN4asio6detail15system_categoryD1Ev,_ZN4asio6detail15system_categoryD2Ev
	.section	.text._ZN4asio6detail15system_categoryD0Ev,"axG",%progbits,_ZN4asio6detail15system_categoryD5Ev,comdat
	.align	2
	.weak	_ZN4asio6detail15system_categoryD0Ev
	.syntax unified
	.arm
	.fpu vfp
	.type	_ZN4asio6detail15system_categoryD0Ev, %function
_ZN4asio6detail15system_categoryD0Ev:
	.fnstart
.LFB11654:
	@ args = 0, pretend = 0, frame = 0
	@ frame_needed = 0, uses_anonymous_args = 0
	ldr	r3, .L125
	ldr	r2, .L125+4
.LPIC14:
	add	r3, pc, r3
	push	{r4, lr}
	mov	r4, r0
	ldr	r3, [r3, r2]
	add	r3, r3, #8
	str	r3, [r0]
	bl	_ZNSt3_V214error_categoryD2Ev(PLT)
	mov	r0, r4
	mov	r1, #4
	bl	_ZdlPvj(PLT)
	mov	r0, r4
	pop	{r4, pc}
.L126:
	.align	2
.L125:
	.word	_GLOBAL_OFFSET_TABLE_-(.LPIC14+8)
	.word	_ZTVN4asio6detail15system_categoryE(GOT)
	.cantunwind
	.fnend
	.size	_ZN4asio6detail15system_categoryD0Ev, .-_ZN4asio6detail15system_categoryD0Ev
	.section	.text._ZN4asio5error6detail14netdb_categoryD2Ev,"axG",%progbits,_ZN4asio5error6detail14netdb_categoryD5Ev,comdat
	.align	2
	.weak	_ZN4asio5error6detail14netdb_categoryD2Ev
	.syntax unified
	.arm
	.fpu vfp
	.type	_ZN4asio5error6detail14netdb_categoryD2Ev, %function
_ZN4asio5error6detail14netdb_categoryD2Ev:
	.fnstart
.LFB11648:
	@ args = 0, pretend = 0, frame = 0
	@ frame_needed = 0, uses_anonymous_args = 0
	ldr	r3, .L129
	ldr	r2, .L129+4
.LPIC15:
	add	r3, pc, r3
	push	{r4, lr}
	mov	r4, r0
	ldr	r3, [r3, r2]
	add	r3, r3, #8
	str	r3, [r0]
	bl	_ZNSt3_V214error_categoryD2Ev(PLT)
	mov	r0, r4
	pop	{r4, pc}
.L130:
	.align	2
.L129:
	.word	_GLOBAL_OFFSET_TABLE_-(.LPIC15+8)
	.word	_ZTVN4asio5error6detail14netdb_categoryE(GOT)
	.cantunwind
	.fnend
	.size	_ZN4asio5error6detail14netdb_categoryD2Ev, .-_ZN4asio5error6detail14netdb_categoryD2Ev
	.weak	_ZN4asio5error6detail14netdb_categoryD1Ev
	.set	_ZN4asio5error6detail14netdb_categoryD1Ev,_ZN4asio5error6detail14netdb_categoryD2Ev
	.section	.text._ZN4asio5error6detail14netdb_categoryD0Ev,"axG",%progbits,_ZN4asio5error6detail14netdb_categoryD5Ev,comdat
	.align	2
	.weak	_ZN4asio5error6detail14netdb_categoryD0Ev
	.syntax unified
	.arm
	.fpu vfp
	.type	_ZN4asio5error6detail14netdb_categoryD0Ev, %function
_ZN4asio5error6detail14netdb_categoryD0Ev:
	.fnstart
.LFB11650:
	@ args = 0, pretend = 0, frame = 0
	@ frame_needed = 0, uses_anonymous_args = 0
	ldr	r3, .L133
	ldr	r2, .L133+4
.LPIC16:
	add	r3, pc, r3
	push	{r4, lr}
	mov	r4, r0
	ldr	r3, [r3, r2]
	add	r3, r3, #8
	str	r3, [r0]
	bl	_ZNSt3_V214error_categoryD2Ev(PLT)
	mov	r0, r4
	mov	r1, #4
	bl	_ZdlPvj(PLT)
	mov	r0, r4
	pop	{r4, pc}
.L134:
	.align	2
.L133:
	.word	_GLOBAL_OFFSET_TABLE_-(.LPIC16+8)
	.word	_ZTVN4asio5error6detail14netdb_categoryE(GOT)
	.cantunwind
	.fnend
	.size	_ZN4asio5error6detail14netdb_categoryD0Ev, .-_ZN4asio5error6detail14netdb_categoryD0Ev
	.section	.text._ZN4asio5error6detail17addrinfo_categoryD2Ev,"axG",%progbits,_ZN4asio5error6detail17addrinfo_categoryD5Ev,comdat
	.align	2
	.weak	_ZN4asio5error6detail17addrinfo_categoryD2Ev
	.syntax unified
	.arm
	.fpu vfp
	.type	_ZN4asio5error6detail17addrinfo_categoryD2Ev, %function
_ZN4asio5error6detail17addrinfo_categoryD2Ev:
	.fnstart
.LFB11644:
	@ args = 0, pretend = 0, frame = 0
	@ frame_needed = 0, uses_anonymous_args = 0
	ldr	r3, .L137
	ldr	r2, .L137+4
.LPIC17:
	add	r3, pc, r3
	push	{r4, lr}
	mov	r4, r0
	ldr	r3, [r3, r2]
	add	r3, r3, #8
	str	r3, [r0]
	bl	_ZNSt3_V214error_categoryD2Ev(PLT)
	mov	r0, r4
	pop	{r4, pc}
.L138:
	.align	2
.L137:
	.word	_GLOBAL_OFFSET_TABLE_-(.LPIC17+8)
	.word	_ZTVN4asio5error6detail17addrinfo_categoryE(GOT)
	.cantunwind
	.fnend
	.size	_ZN4asio5error6detail17addrinfo_categoryD2Ev, .-_ZN4asio5error6detail17addrinfo_categoryD2Ev
	.weak	_ZN4asio5error6detail17addrinfo_categoryD1Ev
	.set	_ZN4asio5error6detail17addrinfo_categoryD1Ev,_ZN4asio5error6detail17addrinfo_categoryD2Ev
	.section	.text._ZN4asio5error6detail17addrinfo_categoryD0Ev,"axG",%progbits,_ZN4asio5error6detail17addrinfo_categoryD5Ev,comdat
	.align	2
	.weak	_ZN4asio5error6detail17addrinfo_categoryD0Ev
	.syntax unified
	.arm
	.fpu vfp
	.type	_ZN4asio5error6detail17addrinfo_categoryD0Ev, %function
_ZN4asio5error6detail17addrinfo_categoryD0Ev:
	.fnstart
.LFB11646:
	@ args = 0, pretend = 0, frame = 0
	@ frame_needed = 0, uses_anonymous_args = 0
	ldr	r3, .L141
	ldr	r2, .L141+4
.LPIC18:
	add	r3, pc, r3
	push	{r4, lr}
	mov	r4, r0
	ldr	r3, [r3, r2]
	add	r3, r3, #8
	str	r3, [r0]
	bl	_ZNSt3_V214error_categoryD2Ev(PLT)
	mov	r0, r4
	mov	r1, #4
	bl	_ZdlPvj(PLT)
	mov	r0, r4
	pop	{r4, pc}
.L142:
	.align	2
.L141:
	.word	_GLOBAL_OFFSET_TABLE_-(.LPIC18+8)
	.word	_ZTVN4asio5error6detail17addrinfo_categoryE(GOT)
	.cantunwind
	.fnend
	.size	_ZN4asio5error6detail17addrinfo_categoryD0Ev, .-_ZN4asio5error6detail17addrinfo_categoryD0Ev
	.section	.text._ZN4asio5error6detail13misc_categoryD2Ev,"axG",%progbits,_ZN4asio5error6detail13misc_categoryD5Ev,comdat
	.align	2
	.weak	_ZN4asio5error6detail13misc_categoryD2Ev
	.syntax unified
	.arm
	.fpu vfp
	.type	_ZN4asio5error6detail13misc_categoryD2Ev, %function
_ZN4asio5error6detail13misc_categoryD2Ev:
	.fnstart
.LFB11640:
	@ args = 0, pretend = 0, frame = 0
	@ frame_needed = 0, uses_anonymous_args = 0
	ldr	r3, .L145
	ldr	r2, .L145+4
.LPIC19:
	add	r3, pc, r3
	push	{r4, lr}
	mov	r4, r0
	ldr	r3, [r3, r2]
	add	r3, r3, #8
	str	r3, [r0]
	bl	_ZNSt3_V214error_categoryD2Ev(PLT)
	mov	r0, r4
	pop	{r4, pc}
.L146:
	.align	2
.L145:
	.word	_GLOBAL_OFFSET_TABLE_-(.LPIC19+8)
	.word	_ZTVN4asio5error6detail13misc_categoryE(GOT)
	.cantunwind
	.fnend
	.size	_ZN4asio5error6detail13misc_categoryD2Ev, .-_ZN4asio5error6detail13misc_categoryD2Ev
	.weak	_ZN4asio5error6detail13misc_categoryD1Ev
	.set	_ZN4asio5error6detail13misc_categoryD1Ev,_ZN4asio5error6detail13misc_categoryD2Ev
	.section	.text._ZN4asio5error6detail13misc_categoryD0Ev,"axG",%progbits,_ZN4asio5error6detail13misc_categoryD5Ev,comdat
	.align	2
	.weak	_ZN4asio5error6detail13misc_categoryD0Ev
	.syntax unified
	.arm
	.fpu vfp
	.type	_ZN4asio5error6detail13misc_categoryD0Ev, %function
_ZN4asio5error6detail13misc_categoryD0Ev:
	.fnstart
.LFB11642:
	@ args = 0, pretend = 0, frame = 0
	@ frame_needed = 0, uses_anonymous_args = 0
	ldr	r3, .L149
	ldr	r2, .L149+4
.LPIC20:
	add	r3, pc, r3
	push	{r4, lr}
	mov	r4, r0
	ldr	r3, [r3, r2]
	add	r3, r3, #8
	str	r3, [r0]
	bl	_ZNSt3_V214error_categoryD2Ev(PLT)
	mov	r0, r4
	mov	r1, #4
	bl	_ZdlPvj(PLT)
	mov	r0, r4
	pop	{r4, pc}
.L150:
	.align	2
.L149:
	.word	_GLOBAL_OFFSET_TABLE_-(.LPIC20+8)
	.word	_ZTVN4asio5error6detail13misc_categoryE(GOT)
	.cantunwind
	.fnend
	.size	_ZN4asio5error6detail13misc_categoryD0Ev, .-_ZN4asio5error6detail13misc_categoryD0Ev
	.section	.text._ZN4asio6detail7tss_ptrINS0_10call_stackINS0_15task_io_serviceENS0_27task_io_service_thread_infoEE7contextEED2Ev,"axG",%progbits,_ZN4asio6detail7tss_ptrINS0_10call_stackINS0_15task_io_serviceENS0_27task_io_service_thread_infoEE7contextEED5Ev,comdat
	.align	2
	.weak	_ZN4asio6detail7tss_ptrINS0_10call_stackINS0_15task_io_serviceENS0_27task_io_service_thread_infoEE7contextEED2Ev
	.syntax unified
	.arm
	.fpu vfp
	.type	_ZN4asio6detail7tss_ptrINS0_10call_stackINS0_15task_io_serviceENS0_27task_io_service_thread_infoEE7contextEED2Ev, %function
_ZN4asio6detail7tss_ptrINS0_10call_stackINS0_15task_io_serviceENS0_27task_io_service_thread_infoEE7contextEED2Ev:
	.fnstart
.LFB11673:
	@ args = 0, pretend = 0, frame = 0
	@ frame_needed = 0, uses_anonymous_args = 0
	push	{r4, lr}
	mov	r4, r0
	ldr	r0, [r0]
	bl	pthread_key_delete(PLT)
	mov	r0, r4
	pop	{r4, pc}
	.cantunwind
	.fnend
	.size	_ZN4asio6detail7tss_ptrINS0_10call_stackINS0_15task_io_serviceENS0_27task_io_service_thread_infoEE7contextEED2Ev, .-_ZN4asio6detail7tss_ptrINS0_10call_stackINS0_15task_io_serviceENS0_27task_io_service_thread_infoEE7contextEED2Ev
	.weak	_ZN4asio6detail7tss_ptrINS0_10call_stackINS0_15task_io_serviceENS0_27task_io_service_thread_infoEE7contextEED1Ev
	.set	_ZN4asio6detail7tss_ptrINS0_10call_stackINS0_15task_io_serviceENS0_27task_io_service_thread_infoEE7contextEED1Ev,_ZN4asio6detail7tss_ptrINS0_10call_stackINS0_15task_io_serviceENS0_27task_io_service_thread_infoEE7contextEED2Ev
	.section	.text._ZN4asio6detail7tss_ptrINS0_10call_stackINS0_14strand_service11strand_implEhE7contextEED2Ev,"axG",%progbits,_ZN4asio6detail7tss_ptrINS0_10call_stackINS0_14strand_service11strand_implEhE7contextEED5Ev,comdat
	.align	2
	.weak	_ZN4asio6detail7tss_ptrINS0_10call_stackINS0_14strand_service11strand_implEhE7contextEED2Ev
	.syntax unified
	.arm
	.fpu vfp
	.type	_ZN4asio6detail7tss_ptrINS0_10call_stackINS0_14strand_service11strand_implEhE7contextEED2Ev, %function
_ZN4asio6detail7tss_ptrINS0_10call_stackINS0_14strand_service11strand_implEhE7contextEED2Ev:
	.fnstart
.LFB11682:
	@ args = 0, pretend = 0, frame = 0
	@ frame_needed = 0, uses_anonymous_args = 0
	push	{r4, lr}
	mov	r4, r0
	ldr	r0, [r0]
	bl	pthread_key_delete(PLT)
	mov	r0, r4
	pop	{r4, pc}
	.cantunwind
	.fnend
	.size	_ZN4asio6detail7tss_ptrINS0_10call_stackINS0_14strand_service11strand_implEhE7contextEED2Ev, .-_ZN4asio6detail7tss_ptrINS0_10call_stackINS0_14strand_service11strand_implEhE7contextEED2Ev
	.weak	_ZN4asio6detail7tss_ptrINS0_10call_stackINS0_14strand_service11strand_implEhE7contextEED1Ev
	.set	_ZN4asio6detail7tss_ptrINS0_10call_stackINS0_14strand_service11strand_implEhE7contextEED1Ev,_ZN4asio6detail7tss_ptrINS0_10call_stackINS0_14strand_service11strand_implEhE7contextEED2Ev
	.text
	.align	2
	.syntax unified
	.arm
	.fpu vfp
	.type	_ZNSt7__cxx1112basic_stringIcSt11char_traitsIcESaIcEE12_M_constructIPcEEvT_S7_St20forward_iterator_tag.isra.93, %function
_ZNSt7__cxx1112basic_stringIcSt11char_traitsIcESaIcEE12_M_constructIPcEEvT_S7_St20forward_iterator_tag.isra.93:
	.fnstart
.LFB12037:
	@ args = 0, pretend = 0, frame = 8
	@ frame_needed = 0, uses_anonymous_args = 0
	cmp	r2, #0
	clz	r3, r1
	lsr	r3, r3, #5
	moveq	r3, #0
	cmp	r3, #0
	push	{r4, r5, r6, lr}
	.save {r4, r5, r6, lr}
	.pad #8
	sub	sp, sp, #8
	beq	.L172
	ldr	r0, .L175
.LPIC21:
	add	r0, pc, r0
	bl	_ZSt19__throw_logic_errorPKc(PLT)
.L172:
	sub	r4, r2, r1
	cmp	r4, #15
	mov	r6, r1
	mov	r5, r0
	str	r4, [sp, #4]
	bhi	.L173
	cmp	r4, #1
	ldr	r0, [r5]
	beq	.L174
	cmp	r4, #0
	bne	.L158
.L160:
	mov	r3, #0
	str	r4, [r5, #4]
	strb	r3, [r0, r4]
	add	sp, sp, #8
	@ sp needed
	pop	{r4, r5, r6, pc}
.L173:
	mov	r2, r3
	add	r1, sp, #4
	bl	_ZNSt7__cxx1112basic_stringIcSt11char_traitsIcESaIcEE9_M_createERjj(PLT)
	ldr	r3, [sp, #4]
	str	r3, [r5, #8]
	str	r0, [r5]
.L158:
	mov	r2, r4
	mov	r1, r6
	bl	memcpy(PLT)
	ldr	r4, [sp, #4]
	ldr	r0, [r5]
	b	.L160
.L174:
	ldrb	r3, [r6]	@ zero_extendqisi2
	strb	r3, [r0]
	ldr	r4, [sp, #4]
	ldr	r0, [r5]
	b	.L160
.L176:
	.align	2
.L175:
	.word	.LC4-(.LPIC21+8)
	.fnend
	.size	_ZNSt7__cxx1112basic_stringIcSt11char_traitsIcESaIcEE12_M_constructIPcEEvT_S7_St20forward_iterator_tag.isra.93, .-_ZNSt7__cxx1112basic_stringIcSt11char_traitsIcESaIcEE12_M_constructIPcEEvT_S7_St20forward_iterator_tag.isra.93
	.set	_ZNSt7__cxx1112basic_stringIcSt11char_traitsIcESaIcEE12_M_constructIPKcEEvT_S8_St20forward_iterator_tag.isra.88,_ZNSt7__cxx1112basic_stringIcSt11char_traitsIcESaIcEE12_M_constructIPcEEvT_S7_St20forward_iterator_tag.isra.93
	.section	.text._ZNSt23_Sp_counted_ptr_inplaceIN7asiopal2IOESaIS1_ELN9__gnu_cxx12_Lock_policyE1EE10_M_disposeEv,"axG",%progbits,_ZNSt23_Sp_counted_ptr_inplaceIN7asiopal2IOESaIS1_ELN9__gnu_cxx12_Lock_policyE1EE10_M_disposeEv,comdat
	.align	2
	.weak	_ZNSt23_Sp_counted_ptr_inplaceIN7asiopal2IOESaIS1_ELN9__gnu_cxx12_Lock_policyE1EE10_M_disposeEv
	.syntax unified
	.arm
	.fpu vfp
	.type	_ZNSt23_Sp_counted_ptr_inplaceIN7asiopal2IOESaIS1_ELN9__gnu_cxx12_Lock_policyE1EE10_M_disposeEv, %function
_ZNSt23_Sp_counted_ptr_inplaceIN7asiopal2IOESaIS1_ELN9__gnu_cxx12_Lock_policyE1EE10_M_disposeEv:
	.fnstart
.LFB11691:
	@ args = 0, pretend = 0, frame = 0
	@ frame_needed = 0, uses_anonymous_args = 0
	ldr	r2, .L197
	ldr	r1, [r0, #36]
	ldr	r3, .L197+4
.LPIC22:
	add	r2, pc, r2
	ldr	r1, [r1]
	ldr	r3, [r2, r3]
	cmp	r1, r3
	bne	.L178
	ldr	r3, .L197+8
	push	{r4, r5, r6, lr}
	.save {r4, r5, r6, lr}
	ldr	r5, [r0, #40]
	ldr	r3, [r2, r3]
	cmp	r5, #0
	add	r3, r3, #8
	str	r3, [r0, #36]
	popeq	{r4, r5, r6, pc}
	ldr	r4, [r5, #32]
	cmp	r4, #0
	beq	.L181
.L184:
	ldr	r3, [r4]
	mov	r0, r4
	ldr	r3, [r3, #8]
	blx	r3
	ldr	r4, [r4, #16]
	cmp	r4, #0
	bne	.L184
	ldr	r0, [r5, #32]
	cmp	r0, #0
	beq	.L181
.L185:
	ldr	r3, [r0]
	ldr	r4, [r0, #16]
	ldr	r3, [r3, #4]
	blx	r3
	subs	r0, r4, #0
	str	r4, [r5, #32]
	bne	.L185
.L181:
	add	r0, r5, #4
	bl	pthread_mutex_destroy(PLT)
	mov	r0, r5
	mov	r1, #36
	pop	{r4, r5, r6, lr}
	b	_ZdlPvj(PLT)
.L178:
	add	ip, r0, #36
	mov	r0, ip
	bx	r1
.L198:
	.align	2
.L197:
	.word	_GLOBAL_OFFSET_TABLE_-(.LPIC22+8)
	.word	_ZN7asiopal2IOD2Ev(GOT)
	.word	_ZTVN7asiopal2IOE(GOT)
	.global	__gxx_personality_v0
	.personality	__gxx_personality_v0
	.handlerdata
.LLSDA11691:
	.byte	0xff
	.byte	0xff
	.byte	0x1
	.uleb128 .LLSDACSE11691-.LLSDACSB11691
.LLSDACSB11691:
.LLSDACSE11691:
	.section	.text._ZNSt23_Sp_counted_ptr_inplaceIN7asiopal2IOESaIS1_ELN9__gnu_cxx12_Lock_policyE1EE10_M_disposeEv,"axG",%progbits,_ZNSt23_Sp_counted_ptr_inplaceIN7asiopal2IOESaIS1_ELN9__gnu_cxx12_Lock_policyE1EE10_M_disposeEv,comdat
	.fnend
	.size	_ZNSt23_Sp_counted_ptr_inplaceIN7asiopal2IOESaIS1_ELN9__gnu_cxx12_Lock_policyE1EE10_M_disposeEv, .-_ZNSt23_Sp_counted_ptr_inplaceIN7asiopal2IOESaIS1_ELN9__gnu_cxx12_Lock_policyE1EE10_M_disposeEv
	.section	.text._ZN4asio6detail15task_io_serviceD0Ev,"axG",%progbits,_ZN4asio6detail15task_io_serviceD5Ev,comdat
	.align	2
	.weak	_ZN4asio6detail15task_io_serviceD0Ev
	.syntax unified
	.arm
	.fpu vfp
	.type	_ZN4asio6detail15task_io_serviceD0Ev, %function
_ZN4asio6detail15task_io_serviceD0Ev:
	.fnstart
.LFB11630:
	@ args = 0, pretend = 0, frame = 16
	@ frame_needed = 0, uses_anonymous_args = 0
	ldr	r3, .L209
	ldr	r2, .L209+4
.LPIC23:
	add	r3, pc, r3
	push	{r4, r5, r6, r7, r8, lr}
	.save {r4, r5, r6, r7, r8, lr}
	.pad #16
	sub	sp, sp, #16
	ldr	r3, [r3, r2]
	ldr	r1, [r0, #128]
	add	r3, r3, #8
	cmp	r1, #0
	mov	r4, r0
	str	r3, [r0]
	beq	.L202
	str	r1, [sp, #4]
	bl	_ZNSt3_V215system_categoryEv(PLT)
	ldr	r1, [sp, #4]
	add	r7, sp, #8
	mov	r5, #0
	mov	r8, r0
.L203:
	ldr	r3, [r1]
	ldr	r6, [r1, #4]
	cmp	r3, #0
	streq	r3, [r4, #132]
	str	r3, [r4, #128]
	mov	r3, #0
	str	r5, [r1]
	mov	r0, r3
	str	r5, [sp, #8]
	str	r8, [sp, #12]
	mov	r2, r7
	blx	r6
	ldr	r1, [r4, #128]
	cmp	r1, #0
	bne	.L203
.L202:
	add	r0, r4, #48
	bl	pthread_cond_destroy(PLT)
	add	r0, r4, #24
	bl	pthread_mutex_destroy(PLT)
	mov	r0, r4
	mov	r1, #144
	bl	_ZdlPvj(PLT)
	mov	r0, r4
	add	sp, sp, #16
	@ sp needed
	pop	{r4, r5, r6, r7, r8, pc}
.L210:
	.align	2
.L209:
	.word	_GLOBAL_OFFSET_TABLE_-(.LPIC23+8)
	.word	_ZTVN4asio6detail15task_io_serviceE(GOT)
	.personality	__gxx_personality_v0
	.handlerdata
.LLSDA11630:
	.byte	0xff
	.byte	0xff
	.byte	0x1
	.uleb128 .LLSDACSE11630-.LLSDACSB11630
.LLSDACSB11630:
.LLSDACSE11630:
	.section	.text._ZN4asio6detail15task_io_serviceD0Ev,"axG",%progbits,_ZN4asio6detail15task_io_serviceD5Ev,comdat
	.fnend
	.size	_ZN4asio6detail15task_io_serviceD0Ev, .-_ZN4asio6detail15task_io_serviceD0Ev
	.section	.text._ZN4asio6detail15task_io_serviceD2Ev,"axG",%progbits,_ZN4asio6detail15task_io_serviceD5Ev,comdat
	.align	2
	.weak	_ZN4asio6detail15task_io_serviceD2Ev
	.syntax unified
	.arm
	.fpu vfp
	.type	_ZN4asio6detail15task_io_serviceD2Ev, %function
_ZN4asio6detail15task_io_serviceD2Ev:
	.fnstart
.LFB11628:
	@ args = 0, pretend = 0, frame = 16
	@ frame_needed = 0, uses_anonymous_args = 0
	ldr	r3, .L221
	ldr	r2, .L221+4
.LPIC24:
	add	r3, pc, r3
	push	{r4, r5, r6, r7, r8, lr}
	.save {r4, r5, r6, r7, r8, lr}
	.pad #16
	sub	sp, sp, #16
	ldr	r3, [r3, r2]
	ldr	r1, [r0, #128]
	add	r3, r3, #8
	cmp	r1, #0
	mov	r4, r0
	str	r3, [r0]
	beq	.L214
	str	r1, [sp, #4]
	bl	_ZNSt3_V215system_categoryEv(PLT)
	ldr	r1, [sp, #4]
	add	r7, sp, #8
	mov	r5, #0
	mov	r8, r0
.L215:
	ldr	r3, [r1]
	ldr	r6, [r1, #4]
	cmp	r3, #0
	streq	r3, [r4, #132]
	str	r3, [r4, #128]
	mov	r3, #0
	str	r5, [r1]
	mov	r0, r3
	str	r5, [sp, #8]
	str	r8, [sp, #12]
	mov	r2, r7
	blx	r6
	ldr	r1, [r4, #128]
	cmp	r1, #0
	bne	.L215
.L214:
	add	r0, r4, #48
	bl	pthread_cond_destroy(PLT)
	add	r0, r4, #24
	bl	pthread_mutex_destroy(PLT)
	mov	r0, r4
	add	sp, sp, #16
	@ sp needed
	pop	{r4, r5, r6, r7, r8, pc}
.L222:
	.align	2
.L221:
	.word	_GLOBAL_OFFSET_TABLE_-(.LPIC24+8)
	.word	_ZTVN4asio6detail15task_io_serviceE(GOT)
	.personality	__gxx_personality_v0
	.handlerdata
.LLSDA11628:
	.byte	0xff
	.byte	0xff
	.byte	0x1
	.uleb128 .LLSDACSE11628-.LLSDACSB11628
.LLSDACSB11628:
.LLSDACSE11628:
	.section	.text._ZN4asio6detail15task_io_serviceD2Ev,"axG",%progbits,_ZN4asio6detail15task_io_serviceD5Ev,comdat
	.fnend
	.size	_ZN4asio6detail15task_io_serviceD2Ev, .-_ZN4asio6detail15task_io_serviceD2Ev
	.weak	_ZN4asio6detail15task_io_serviceD1Ev
	.set	_ZN4asio6detail15task_io_serviceD1Ev,_ZN4asio6detail15task_io_serviceD2Ev
	.section	.text._ZN7asiopal2IOD2Ev,"axG",%progbits,_ZN7asiopal2IOD5Ev,comdat
	.align	2
	.weak	_ZN7asiopal2IOD2Ev
	.syntax unified
	.arm
	.fpu vfp
	.type	_ZN7asiopal2IOD2Ev, %function
_ZN7asiopal2IOD2Ev:
	.fnstart
.LFB6314:
	@ args = 0, pretend = 0, frame = 0
	@ frame_needed = 0, uses_anonymous_args = 0
	ldr	r3, .L242
	ldr	r2, .L242+4
.LPIC25:
	add	r3, pc, r3
	push	{r4, r5, r6, lr}
	.save {r4, r5, r6, lr}
	mov	r6, r0
	ldr	r3, [r3, r2]
	ldr	r5, [r0, #4]
	add	r3, r3, #8
	cmp	r5, #0
	str	r3, [r0]
	beq	.L224
	ldr	r4, [r5, #32]
	cmp	r4, #0
	beq	.L226
.L229:
	ldr	r3, [r4]
	mov	r0, r4
	ldr	r3, [r3, #8]
	blx	r3
	ldr	r4, [r4, #16]
	cmp	r4, #0
	bne	.L229
	ldr	r0, [r5, #32]
	cmp	r0, #0
	beq	.L226
.L230:
	ldr	r3, [r0]
	ldr	r4, [r0, #16]
	ldr	r3, [r3, #4]
	blx	r3
	subs	r0, r4, #0
	str	r4, [r5, #32]
	bne	.L230
.L226:
	add	r0, r5, #4
	bl	pthread_mutex_destroy(PLT)
	mov	r0, r5
	mov	r1, #36
	bl	_ZdlPvj(PLT)
.L224:
	mov	r0, r6
	pop	{r4, r5, r6, pc}
.L243:
	.align	2
.L242:
	.word	_GLOBAL_OFFSET_TABLE_-(.LPIC25+8)
	.word	_ZTVN7asiopal2IOE(GOT)
	.personality	__gxx_personality_v0
	.handlerdata
.LLSDA6314:
	.byte	0xff
	.byte	0xff
	.byte	0x1
	.uleb128 .LLSDACSE6314-.LLSDACSB6314
.LLSDACSB6314:
.LLSDACSE6314:
	.section	.text._ZN7asiopal2IOD2Ev,"axG",%progbits,_ZN7asiopal2IOD5Ev,comdat
	.fnend
	.size	_ZN7asiopal2IOD2Ev, .-_ZN7asiopal2IOD2Ev
	.weak	_ZN7asiopal2IOD1Ev
	.set	_ZN7asiopal2IOD1Ev,_ZN7asiopal2IOD2Ev
	.section	.text._ZN7asiopal2IOD0Ev,"axG",%progbits,_ZN7asiopal2IOD5Ev,comdat
	.align	2
	.weak	_ZN7asiopal2IOD0Ev
	.syntax unified
	.arm
	.fpu vfp
	.type	_ZN7asiopal2IOD0Ev, %function
_ZN7asiopal2IOD0Ev:
	.fnstart
.LFB6316:
	@ args = 0, pretend = 0, frame = 0
	@ frame_needed = 0, uses_anonymous_args = 0
	ldr	r3, .L263
	ldr	r2, .L263+4
.LPIC26:
	add	r3, pc, r3
	push	{r4, r5, r6, lr}
	.save {r4, r5, r6, lr}
	mov	r6, r0
	ldr	r3, [r3, r2]
	ldr	r5, [r0, #4]
	add	r3, r3, #8
	cmp	r5, #0
	str	r3, [r0]
	beq	.L245
	ldr	r4, [r5, #32]
	cmp	r4, #0
	beq	.L247
.L250:
	ldr	r3, [r4]
	mov	r0, r4
	ldr	r3, [r3, #8]
	blx	r3
	ldr	r4, [r4, #16]
	cmp	r4, #0
	bne	.L250
	ldr	r0, [r5, #32]
	cmp	r0, #0
	beq	.L247
.L251:
	ldr	r3, [r0]
	ldr	r4, [r0, #16]
	ldr	r3, [r3, #4]
	blx	r3
	subs	r0, r4, #0
	str	r4, [r5, #32]
	bne	.L251
.L247:
	add	r0, r5, #4
	bl	pthread_mutex_destroy(PLT)
	mov	r0, r5
	mov	r1, #36
	bl	_ZdlPvj(PLT)
.L245:
	mov	r0, r6
	mov	r1, #12
	bl	_ZdlPvj(PLT)
	mov	r0, r6
	pop	{r4, r5, r6, pc}
.L264:
	.align	2
.L263:
	.word	_GLOBAL_OFFSET_TABLE_-(.LPIC26+8)
	.word	_ZTVN7asiopal2IOE(GOT)
	.personality	__gxx_personality_v0
	.handlerdata
.LLSDA6316:
	.byte	0xff
	.byte	0xff
	.byte	0x1
	.uleb128 .LLSDACSE6316-.LLSDACSB6316
.LLSDACSB6316:
.LLSDACSE6316:
	.section	.text._ZN7asiopal2IOD0Ev,"axG",%progbits,_ZN7asiopal2IOD5Ev,comdat
	.fnend
	.size	_ZN7asiopal2IOD0Ev, .-_ZN7asiopal2IOD0Ev
	.section	.text._ZNSt23_Sp_counted_ptr_inplaceIN7asiopal8ExecutorESaIS1_ELN9__gnu_cxx12_Lock_policyE1EE10_M_disposeEv,"axG",%progbits,_ZNSt23_Sp_counted_ptr_inplaceIN7asiopal8ExecutorESaIS1_ELN9__gnu_cxx12_Lock_policyE1EE10_M_disposeEv,comdat
	.align	2
	.weak	_ZNSt23_Sp_counted_ptr_inplaceIN7asiopal8ExecutorESaIS1_ELN9__gnu_cxx12_Lock_policyE1EE10_M_disposeEv
	.syntax unified
	.arm
	.fpu vfp
	.type	_ZNSt23_Sp_counted_ptr_inplaceIN7asiopal8ExecutorESaIS1_ELN9__gnu_cxx12_Lock_policyE1EE10_M_disposeEv, %function
_ZNSt23_Sp_counted_ptr_inplaceIN7asiopal8ExecutorESaIS1_ELN9__gnu_cxx12_Lock_policyE1EE10_M_disposeEv:
	.fnstart
.LFB11761:
	@ args = 0, pretend = 0, frame = 0
	@ frame_needed = 0, uses_anonymous_args = 0
	push	{r4, r5, r6, lr}
	mov	r5, r0
	ldr	r4, .L286
	ldr	r3, .L286+4
.LPIC27:
	add	r4, pc, r4
	ldr	r6, [r0, #52]
	ldr	r3, [r4, r3]
	cmp	r6, #0
	add	r3, r3, #8
	str	r3, [r0, #36]
	beq	.L267
	ldr	r3, .L286+8
	ldr	r3, [r4, r3]
	cmp	r3, #0
	beq	.L268
	add	r3, r6, #28
	mcr	p15, 0, r0, c7, c10, 5
.L280:
	ldrex	r2, [r3]
	sub	r1, r2, #1
	strex	r0, r1, [r3]
	cmp	r0, #0
	bne	.L280
	cmp	r2, #1
	mcr	p15, 0, r0, c7, c10, 5
	beq	.L284
.L267:
	ldr	r0, [r5, #44]
	cmp	r0, #0
	popeq	{r4, r5, r6, pc}
	ldr	r3, .L286+8
	ldr	r3, [r4, r3]
	cmp	r3, #0
	beq	.L274
	add	r3, r0, #32
	mcr	p15, 0, r0, c7, c10, 5
.L279:
	ldrex	r2, [r3]
	sub	r1, r2, #1
	strex	ip, r1, [r3]
	cmp	ip, #0
	bne	.L279
	cmp	r2, #1
	mcr	p15, 0, r0, c7, c10, 5
	popne	{r4, r5, r6, pc}
.L285:
	mcr	p15, 0, r0, c7, c10, 5
	ldr	r3, [r0]
	pop	{r4, r5, r6, lr}
	ldr	r3, [r3, #12]
	bx	r3	@ indirect register sibling call
.L268:
	ldr	r3, [r6, #28]
	cmp	r3, #1
	sub	r3, r3, #1
	str	r3, [r6, #28]
	bne	.L267
	ldr	r3, [r6]
	mov	r0, r6
	ldr	r3, [r3, #8]
	blx	r3
	mcr	p15, 0, r0, c7, c10, 5
	ldr	r2, [r6, #32]
	sub	r3, r2, #1
	str	r3, [r6, #32]
	b	.L277
.L274:
	ldr	r2, [r0, #32]
	cmp	r2, #1
	sub	r3, r2, #1
	str	r3, [r0, #32]
	popne	{r4, r5, r6, pc}
	b	.L285
.L284:
	ldr	r3, [r6]
	mov	r0, r6
	ldr	r3, [r3, #8]
	blx	r3
	add	r3, r6, #32
	mcr	p15, 0, r0, c7, c10, 5
	mcr	p15, 0, r0, c7, c10, 5
.L278:
	ldrex	r2, [r3]
	sub	r1, r2, #1
	strex	r0, r1, [r3]
	cmp	r0, #0
	bne	.L278
	mcr	p15, 0, r0, c7, c10, 5
.L277:
	cmp	r2, #1
	bne	.L267
	ldr	r3, [r6]
	mov	r0, r6
	ldr	r3, [r3, #12]
	blx	r3
	b	.L267
.L287:
	.align	2
.L286:
	.word	_GLOBAL_OFFSET_TABLE_-(.LPIC27+8)
	.word	_ZTVN7asiopal8ExecutorE(GOT)
	.word	_ZL28__gthrw___pthread_key_createPjPFvPvE(GOT)
	.cantunwind
	.fnend
	.size	_ZNSt23_Sp_counted_ptr_inplaceIN7asiopal8ExecutorESaIS1_ELN9__gnu_cxx12_Lock_policyE1EE10_M_disposeEv, .-_ZNSt23_Sp_counted_ptr_inplaceIN7asiopal8ExecutorESaIS1_ELN9__gnu_cxx12_Lock_policyE1EE10_M_disposeEv
	.section	.text._ZNK4asio5error6detail17addrinfo_category7messageB5cxx11Ei,"axG",%progbits,_ZNK4asio5error6detail17addrinfo_category7messageB5cxx11Ei,comdat
	.align	2
	.weak	_ZNK4asio5error6detail17addrinfo_category7messageB5cxx11Ei
	.syntax unified
	.arm
	.fpu vfp
	.type	_ZNK4asio5error6detail17addrinfo_category7messageB5cxx11Ei, %function
_ZNK4asio5error6detail17addrinfo_category7messageB5cxx11Ei:
	.fnstart
.LFB2448:
	@ args = 0, pretend = 0, frame = 8
	@ frame_needed = 0, uses_anonymous_args = 0
	cmn	r2, #8
	push	{r4, r5, r6, lr}
	.save {r4, r5, r6, lr}
	mov	r4, r0
	.pad #8
	sub	sp, sp, #8
	beq	.L293
	cmn	r2, #7
	beq	.L294
	add	r1, sp, #8
	add	r3, r0, #8
	mov	r2, #19
	str	r2, [r1, #-4]!
	str	r3, [r0]
	mov	r2, #0
	bl	_ZNSt7__cxx1112basic_stringIcSt11char_traitsIcESaIcEE9_M_createERjj(PLT)
	ldr	ip, .L295
	ldr	r6, [sp, #4]
.LPIC32:
	add	ip, pc, ip
	str	r6, [r4, #8]
	mov	r5, #0
	str	r0, [r4]
	mov	lr, r0
	ldmia	ip!, {r0, r1, r2, r3}
	ldrh	r6, [ip]	@ unaligned
	ldrb	ip, [ip, #2]	@ zero_extendqisi2
	str	r0, [lr]	@ unaligned
	str	r3, [lr, #12]	@ unaligned
	str	r1, [lr, #4]	@ unaligned
	str	r2, [lr, #8]	@ unaligned
	strh	r6, [lr, #16]	@ unaligned
	strb	ip, [lr, #18]
	ldr	r3, [sp, #4]
	ldr	r2, [r4]
	str	r3, [r4, #4]
	strb	r5, [r2, r3]
.L288:
	mov	r0, r4
	add	sp, sp, #8
	@ sp needed
	pop	{r4, r5, r6, pc}
.L294:
	ldr	r1, .L295+4
	add	r3, r0, #8
.LPIC30:
	add	r1, pc, r1
	str	r3, [r0]
	add	r2, r1, #25
	bl	_ZNSt7__cxx1112basic_stringIcSt11char_traitsIcESaIcEE12_M_constructIPKcEEvT_S8_St20forward_iterator_tag.isra.88(PLT)
	mov	r0, r4
	add	sp, sp, #8
	@ sp needed
	pop	{r4, r5, r6, pc}
.L293:
	ldr	r1, .L295+8
	add	r3, r0, #8
.LPIC28:
	add	r1, pc, r1
	add	r2, r1, #17
	str	r3, [r0]
	bl	_ZNSt7__cxx1112basic_stringIcSt11char_traitsIcESaIcEE12_M_constructIPKcEEvT_S8_St20forward_iterator_tag.isra.88(PLT)
	b	.L288
.L296:
	.align	2
.L295:
	.word	.LC7-(.LPIC32+8)
	.word	.LC6-(.LPIC30+8)
	.word	.LC5-(.LPIC28+8)
	.fnend
	.size	_ZNK4asio5error6detail17addrinfo_category7messageB5cxx11Ei, .-_ZNK4asio5error6detail17addrinfo_category7messageB5cxx11Ei
	.section	.text._ZNK4asio6detail15system_category7messageB5cxx11Ei,"axG",%progbits,_ZNK4asio6detail15system_category7messageB5cxx11Ei,comdat
	.align	2
	.weak	_ZNK4asio6detail15system_category7messageB5cxx11Ei
	.syntax unified
	.arm
	.fpu vfp
	.type	_ZNK4asio6detail15system_category7messageB5cxx11Ei, %function
_ZNK4asio6detail15system_category7messageB5cxx11Ei:
	.fnstart
.LFB2421:
	@ args = 0, pretend = 0, frame = 264
	@ frame_needed = 0, uses_anonymous_args = 0
	cmp	r2, #125
	push	{r4, r5, r6, r7, r8, lr}
	.save {r4, r5, r6, r7, r8, lr}
	mov	r4, r0
	.pad #264
	sub	sp, sp, #264
	beq	.L307
	mov	r7, #0
	mov	r5, r2
	mov	r1, r7
	mov	r2, #252
	add	r0, sp, #12
	str	r7, [sp, #8]
	bl	memset(PLT)
	mov	r0, r5
	mov	r2, #256
	add	r1, sp, #8
	bl	strerror_r(PLT)
	add	r6, r4, #8
	str	r6, [r4]
	subs	r8, r0, #0
	beq	.L300
	bl	strlen(PLT)
	cmp	r0, #15
	mov	r5, r0
	str	r0, [sp, #4]
	bhi	.L308
	cmp	r0, #1
	beq	.L309
	cmp	r0, #0
	bne	.L310
.L304:
	mov	r3, #0
	str	r5, [r4, #4]
	mov	r0, r4
	strb	r3, [r6, r5]
	add	sp, sp, #264
	@ sp needed
	pop	{r4, r5, r6, r7, r8, pc}
.L308:
	mov	r2, r7
	add	r1, sp, #4
	mov	r0, r4
	bl	_ZNSt7__cxx1112basic_stringIcSt11char_traitsIcESaIcEE9_M_createERjj(PLT)
	ldr	r3, [sp, #4]
	str	r3, [r4, #8]
	str	r0, [r4]
.L302:
	mov	r2, r5
	mov	r1, r8
	bl	memcpy(PLT)
	ldr	r5, [sp, #4]
	ldr	r6, [r4]
	b	.L304
.L309:
	ldrb	r3, [r8]	@ zero_extendqisi2
	strb	r3, [r4, #8]
	b	.L304
.L307:
	ldr	r1, .L311
	add	r3, r0, #8
.LPIC33:
	add	r1, pc, r1
	str	r3, [r0]
	add	r2, r1, #18
	bl	_ZNSt7__cxx1112basic_stringIcSt11char_traitsIcESaIcEE12_M_constructIPKcEEvT_S8_St20forward_iterator_tag.isra.88(PLT)
	mov	r0, r4
	add	sp, sp, #264
	@ sp needed
	pop	{r4, r5, r6, r7, r8, pc}
.L300:
	ldr	r0, .L311+4
.LPIC35:
	add	r0, pc, r0
	bl	_ZSt19__throw_logic_errorPKc(PLT)
.L310:
	mov	r0, r6
	b	.L302
.L312:
	.align	2
.L311:
	.word	.LC8-(.LPIC33+8)
	.word	.LC4-(.LPIC35+8)
	.fnend
	.size	_ZNK4asio6detail15system_category7messageB5cxx11Ei, .-_ZNK4asio6detail15system_category7messageB5cxx11Ei
	.section	.text._ZNK4asio5error6detail13misc_category7messageB5cxx11Ei,"axG",%progbits,_ZNK4asio5error6detail13misc_category7messageB5cxx11Ei,comdat
	.align	2
	.weak	_ZNK4asio5error6detail13misc_category7messageB5cxx11Ei
	.syntax unified
	.arm
	.fpu vfp
	.type	_ZNK4asio5error6detail13misc_category7messageB5cxx11Ei, %function
_ZNK4asio5error6detail13misc_category7messageB5cxx11Ei:
	.fnstart
.LFB2454:
	@ args = 0, pretend = 0, frame = 0
	@ frame_needed = 0, uses_anonymous_args = 0
	cmp	r2, #1
	push	{r4, r5, r6, lr}
	.save {r4, r5, r6, lr}
	mov	r4, r0
	beq	.L320
	cmp	r2, #2
	beq	.L321
	cmp	r2, #3
	beq	.L322
	cmp	r2, #4
	beq	.L323
	ldr	ip, .L324
	add	r3, r0, #8
.LPIC44:
	add	ip, pc, ip
	mov	r5, #15
	ldmia	ip!, {r0, r1, r2}
	mov	lr, #0
	str	r3, [r4]
	str	r5, [r4, #4]
	ldrh	r6, [ip]	@ unaligned
	ldrb	ip, [ip, #2]	@ zero_extendqisi2
	str	r0, [r4, #8]	@ unaligned
	str	r1, [r4, #12]	@ unaligned
	str	r2, [r4, #16]	@ unaligned
	strh	r6, [r4, #20]	@ unaligned
	strb	ip, [r4, #22]
	strb	lr, [r4, #23]
.L313:
	mov	r0, r4
	pop	{r4, r5, r6, pc}
.L323:
	ldr	r1, .L324+4
	add	r3, r0, #8
.LPIC42:
	add	r1, pc, r1
	str	r3, [r0]
	add	r2, r1, #57
	bl	_ZNSt7__cxx1112basic_stringIcSt11char_traitsIcESaIcEE12_M_constructIPKcEEvT_S8_St20forward_iterator_tag.isra.88(PLT)
	mov	r0, r4
	pop	{r4, r5, r6, pc}
.L320:
	ldr	r1, .L324+8
	add	r3, r0, #8
.LPIC36:
	add	r1, pc, r1
	add	r2, r1, #12
	str	r3, [r0]
	bl	_ZNSt7__cxx1112basic_stringIcSt11char_traitsIcESaIcEE12_M_constructIPKcEEvT_S8_St20forward_iterator_tag.isra.88(PLT)
	b	.L313
.L321:
	ldr	r1, .L324+12
	add	r3, r0, #8
.LPIC38:
	add	r1, pc, r1
	add	r2, r1, #11
	str	r3, [r0]
	bl	_ZNSt7__cxx1112basic_stringIcSt11char_traitsIcESaIcEE12_M_constructIPKcEEvT_S8_St20forward_iterator_tag.isra.88(PLT)
	b	.L313
.L322:
	ldr	r1, .L324+16
	add	r3, r0, #8
.LPIC40:
	add	r1, pc, r1
	add	r2, r1, #17
	str	r3, [r0]
	bl	_ZNSt7__cxx1112basic_stringIcSt11char_traitsIcESaIcEE12_M_constructIPKcEEvT_S8_St20forward_iterator_tag.isra.88(PLT)
	b	.L313
.L325:
	.align	2
.L324:
	.word	.LC13-(.LPIC44+8)
	.word	.LC12-(.LPIC42+8)
	.word	.LC9-(.LPIC36+8)
	.word	.LC10-(.LPIC38+8)
	.word	.LC11-(.LPIC40+8)
	.fnend
	.size	_ZNK4asio5error6detail13misc_category7messageB5cxx11Ei, .-_ZNK4asio5error6detail13misc_category7messageB5cxx11Ei
	.section	.text._ZNK4asio5error6detail14netdb_category7messageB5cxx11Ei,"axG",%progbits,_ZNK4asio5error6detail14netdb_category7messageB5cxx11Ei,comdat
	.align	2
	.weak	_ZNK4asio5error6detail14netdb_category7messageB5cxx11Ei
	.syntax unified
	.arm
	.fpu vfp
	.type	_ZNK4asio5error6detail14netdb_category7messageB5cxx11Ei, %function
_ZNK4asio5error6detail14netdb_category7messageB5cxx11Ei:
	.fnstart
.LFB2442:
	@ args = 0, pretend = 0, frame = 8
	@ frame_needed = 0, uses_anonymous_args = 0
	cmp	r2, #1
	push	{r4, r5, lr}
	.save {r4, r5, lr}
	mov	r4, r0
	.pad #12
	sub	sp, sp, #12
	beq	.L333
	cmp	r2, #2
	beq	.L334
	cmp	r2, #4
	beq	.L335
	cmp	r2, #3
	beq	.L336
	add	r1, sp, #8
	add	r3, r0, #8
	mov	r2, #16
	str	r2, [r1, #-4]!
	str	r3, [r0]
	mov	r2, #0
	bl	_ZNSt7__cxx1112basic_stringIcSt11char_traitsIcESaIcEE9_M_createERjj(PLT)
	ldr	ip, .L337
	ldr	r5, [sp, #4]
.LPIC53:
	add	ip, pc, ip
	str	r5, [r4, #8]
	str	r0, [r4]
	mov	lr, r0
	ldmia	ip!, {r0, r1, r2, r3}
	mov	ip, #0
	str	r0, [lr]	@ unaligned
	str	r3, [lr, #12]	@ unaligned
	str	r1, [lr, #4]	@ unaligned
	str	r2, [lr, #8]	@ unaligned
	ldr	r3, [sp, #4]
	ldr	r2, [r4]
	str	r3, [r4, #4]
	strb	ip, [r2, r3]
.L326:
	mov	r0, r4
	add	sp, sp, #12
	@ sp needed
	pop	{r4, r5, pc}
.L336:
	ldr	r1, .L337+4
	add	r3, r0, #8
.LPIC51:
	add	r1, pc, r1
	str	r3, [r0]
	add	r2, r1, #55
	bl	_ZNSt7__cxx1112basic_stringIcSt11char_traitsIcESaIcEE12_M_constructIPKcEEvT_S8_St20forward_iterator_tag.isra.88(PLT)
	mov	r0, r4
	add	sp, sp, #12
	@ sp needed
	pop	{r4, r5, pc}
.L333:
	ldr	r1, .L337+8
	add	r3, r0, #8
.LPIC45:
	add	r1, pc, r1
	add	r2, r1, #30
	str	r3, [r0]
	bl	_ZNSt7__cxx1112basic_stringIcSt11char_traitsIcESaIcEE12_M_constructIPKcEEvT_S8_St20forward_iterator_tag.isra.88(PLT)
	b	.L326
.L334:
	ldr	r1, .L337+12
	add	r3, r0, #8
.LPIC47:
	add	r1, pc, r1
	add	r2, r1, #51
	str	r3, [r0]
	bl	_ZNSt7__cxx1112basic_stringIcSt11char_traitsIcESaIcEE12_M_constructIPKcEEvT_S8_St20forward_iterator_tag.isra.88(PLT)
	b	.L326
.L335:
	ldr	r1, .L337+16
	add	r3, r0, #8
.LPIC49:
	add	r1, pc, r1
	add	r2, r1, #56
	str	r3, [r0]
	bl	_ZNSt7__cxx1112basic_stringIcSt11char_traitsIcESaIcEE12_M_constructIPKcEEvT_S8_St20forward_iterator_tag.isra.88(PLT)
	b	.L326
.L338:
	.align	2
.L337:
	.word	.LC18-(.LPIC53+8)
	.word	.LC17-(.LPIC51+8)
	.word	.LC14-(.LPIC45+8)
	.word	.LC15-(.LPIC47+8)
	.word	.LC16-(.LPIC49+8)
	.fnend
	.size	_ZNK4asio5error6detail14netdb_category7messageB5cxx11Ei, .-_ZNK4asio5error6detail14netdb_category7messageB5cxx11Ei
	.section	.text._ZN7openpal6LoggerD2Ev,"axG",%progbits,_ZN7openpal6LoggerD5Ev,comdat
	.align	2
	.weak	_ZN7openpal6LoggerD2Ev
	.syntax unified
	.arm
	.fpu vfp
	.type	_ZN7openpal6LoggerD2Ev, %function
_ZN7openpal6LoggerD2Ev:
	.fnstart
.LFB1980:
	@ args = 0, pretend = 0, frame = 0
	@ frame_needed = 0, uses_anonymous_args = 0
	push	{r4, r5, r6, lr}
	mov	r4, r0
	ldr	r5, [r0, #12]
	ldr	r6, .L366
	cmp	r5, #0
.LPIC54:
	add	r6, pc, r6
	beq	.L341
	ldr	r3, .L366+4
	ldr	r3, [r6, r3]
	cmp	r3, #0
	beq	.L342
	add	r3, r5, #28
	mcr	p15, 0, r0, c7, c10, 5
.L358:
	ldrex	r2, [r3]
	sub	r1, r2, #1
	strex	r0, r1, [r3]
	cmp	r0, #0
	bne	.L358
	cmp	r2, #1
	mcr	p15, 0, r0, c7, c10, 5
	beq	.L364
.L341:
	ldr	r5, [r4, #4]
	cmp	r5, #0
	beq	.L354
	ldr	r3, .L366+4
	ldr	r3, [r6, r3]
	cmp	r3, #0
	beq	.L348
	add	r3, r5, #28
	mcr	p15, 0, r0, c7, c10, 5
.L357:
	ldrex	r2, [r3]
	sub	r1, r2, #1
	strex	r0, r1, [r3]
	cmp	r0, #0
	bne	.L357
	cmp	r2, #1
	mcr	p15, 0, r0, c7, c10, 5
	beq	.L365
.L354:
	mov	r0, r4
	pop	{r4, r5, r6, pc}
.L342:
	ldr	r3, [r5, #28]
	cmp	r3, #1
	sub	r3, r3, #1
	str	r3, [r5, #28]
	bne	.L341
	ldr	r3, [r5]
	mov	r0, r5
	ldr	r3, [r3, #8]
	blx	r3
	mcr	p15, 0, r0, c7, c10, 5
	ldr	r2, [r5, #32]
	sub	r3, r2, #1
	str	r3, [r5, #32]
	b	.L352
.L348:
	ldr	r3, [r5, #28]
	cmp	r3, #1
	sub	r3, r3, #1
	str	r3, [r5, #28]
	bne	.L354
	ldr	r3, [r5]
	mov	r0, r5
	ldr	r3, [r3, #8]
	blx	r3
	mcr	p15, 0, r0, c7, c10, 5
	ldr	r2, [r5, #32]
	sub	r3, r2, #1
	str	r3, [r5, #32]
	b	.L353
.L365:
	ldr	r3, [r5]
	mov	r0, r5
	ldr	r3, [r3, #8]
	blx	r3
	add	r3, r5, #32
	mcr	p15, 0, r0, c7, c10, 5
	mcr	p15, 0, r0, c7, c10, 5
.L355:
	ldrex	r2, [r3]
	sub	r1, r2, #1
	strex	r0, r1, [r3]
	cmp	r0, #0
	bne	.L355
	mcr	p15, 0, r0, c7, c10, 5
.L353:
	cmp	r2, #1
	bne	.L354
	ldr	r3, [r5]
	mov	r0, r5
	ldr	r3, [r3, #12]
	blx	r3
	b	.L354
.L364:
	ldr	r3, [r5]
	mov	r0, r5
	ldr	r3, [r3, #8]
	blx	r3
	add	r3, r5, #32
	mcr	p15, 0, r0, c7, c10, 5
	mcr	p15, 0, r0, c7, c10, 5
.L356:
	ldrex	r2, [r3]
	sub	r1, r2, #1
	strex	r0, r1, [r3]
	cmp	r0, #0
	bne	.L356
	mcr	p15, 0, r0, c7, c10, 5
.L352:
	cmp	r2, #1
	bne	.L341
	ldr	r3, [r5]
	mov	r0, r5
	ldr	r3, [r3, #12]
	blx	r3
	b	.L341
.L367:
	.align	2
.L366:
	.word	_GLOBAL_OFFSET_TABLE_-(.LPIC54+8)
	.word	_ZL28__gthrw___pthread_key_createPjPFvPvE(GOT)
	.cantunwind
	.fnend
	.size	_ZN7openpal6LoggerD2Ev, .-_ZN7openpal6LoggerD2Ev
	.weak	_ZN7openpal6LoggerD1Ev
	.set	_ZN7openpal6LoggerD1Ev,_ZN7openpal6LoggerD2Ev
	.section	.text._ZNSt12system_errorC2ESt10error_codePKc,"axG",%progbits,_ZNSt12system_errorC5ESt10error_codePKc,comdat
	.align	2
	.weak	_ZNSt12system_errorC2ESt10error_codePKc
	.syntax unified
	.arm
	.fpu vfp
	.type	_ZNSt12system_errorC2ESt10error_codePKc, %function
_ZNSt12system_errorC2ESt10error_codePKc:
	.fnstart
.LFB2381:
	@ args = 0, pretend = 0, frame = 80
	@ frame_needed = 0, uses_anonymous_args = 0
	push	{r4, r5, r6, r7, r8, r9, r10, fp, lr}
	.save {r4, r5, r6, r7, r8, r9, r10, fp, lr}
	.pad #92
	sub	sp, sp, #92
	add	r4, sp, #8
	add	r8, sp, #64
	stm	r4, {r1, r2}
	ldr	r2, [sp, #12]
	mov	r5, r0
	mov	r1, r2
	ldr	ip, [r2]
	mov	r0, r8
	ldr	r2, [sp, #8]
	ldr	r6, [ip, #16]
	mov	r7, r3
.LEHB0:
	blx	r6
.LEHE0:
	mov	r3, #2
	str	r3, [sp]
	ldr	r3, .L387
	mov	r2, #0
	ldr	r9, .L387+4
	mov	r0, r8
	mov	r1, r2
.LPIC55:
	add	r3, pc, r3
.LPIC56:
	add	r9, pc, r9
.LEHB1:
	bl	_ZNSt7__cxx1112basic_stringIcSt11char_traitsIcESaIcEE10_M_replaceEjjPKcj(PLT)
.LEHE1:
	mov	lr, r0
	add	r6, sp, #48
	str	r6, [sp, #40]
	ldr	r3, [lr], #8
	mov	ip, r0
	cmp	r3, lr
	moveq	r10, r6
	ldreq	r0, [lr]	@ unaligned
	ldreq	r1, [lr, #4]	@ unaligned
	ldreq	r2, [lr, #8]	@ unaligned
	ldreq	r3, [lr, #12]	@ unaligned
	ldrne	r2, [ip, #8]
	strne	r3, [sp, #40]
	stmiaeq	r10!, {r0, r1, r2, r3}
	mov	fp, #0
	strne	r2, [sp, #48]
	ldr	r3, [ip, #4]
	strb	fp, [ip, #8]
	str	r3, [sp, #44]
	mov	r0, r7
	str	lr, [ip]
	str	fp, [ip, #4]
	bl	strlen(PLT)
	add	r10, sp, #40
	mov	r3, r7
	mov	r2, fp
	mov	r1, fp
	str	r0, [sp]
	mov	r0, r10
.LEHB2:
	bl	_ZNSt7__cxx1112basic_stringIcSt11char_traitsIcESaIcEE10_M_replaceEjjPKcj(PLT)
.LEHE2:
	mov	lr, r0
	add	r7, sp, #24
	str	r7, [sp, #16]
	ldr	r3, [lr], #8
	mov	ip, r0
	cmp	r3, lr
	moveq	fp, r7
	ldreq	r0, [lr]	@ unaligned
	ldreq	r1, [lr, #4]	@ unaligned
	ldreq	r2, [lr, #8]	@ unaligned
	ldreq	r3, [lr, #12]	@ unaligned
	ldrne	r2, [ip, #8]
	strne	r3, [sp, #16]
	stmiaeq	fp!, {r0, r1, r2, r3}
	mov	r3, #0
	strne	r2, [sp, #24]
	ldr	r2, [ip, #4]
	add	fp, sp, #16
	str	r2, [sp, #20]
	strb	r3, [ip, #8]
	str	lr, [ip]
	str	r3, [ip, #4]
	mov	r1, fp
	mov	r0, r5
.LEHB3:
	bl	_ZNSt13runtime_errorC2ERKNSt7__cxx1112basic_stringIcSt11char_traitsIcESaIcEEE(PLT)
.LEHE3:
	ldr	r0, [sp, #16]
	cmp	r0, r7
	beq	.L373
	bl	_ZdlPv(PLT)
.L373:
	ldr	r0, [sp, #40]
	cmp	r0, r6
	beq	.L374
	bl	_ZdlPv(PLT)
.L374:
	ldr	r0, [sp, #64]
	add	r3, sp, #72
	cmp	r0, r3
	beq	.L375
	bl	_ZdlPv(PLT)
.L375:
	ldr	r2, .L387+8
	ldm	r4, {r0, r1}
	mov	r3, r5
	ldr	r2, [r9, r2]
	add	r2, r2, #8
	str	r2, [r3], #8
	stm	r3, {r0, r1}
	mov	r0, r5
	add	sp, sp, #92
	@ sp needed
	pop	{r4, r5, r6, r7, r8, r9, r10, fp, pc}
.L382:
.L380:
	ldr	r0, [sp, #64]
	add	r8, r8, #8
	cmp	r0, r8
	beq	.L381
	bl	_ZdlPv(PLT)
.L381:
.LEHB4:
	bl	__cxa_end_cleanup(PLT)
.LEHE4:
.L384:
	ldr	r0, [sp, #16]
	add	fp, fp, #8
	cmp	r0, fp
	beq	.L378
	bl	_ZdlPv(PLT)
.L378:
	ldr	r0, [sp, #40]
	add	r10, r10, #8
	cmp	r0, r10
	beq	.L380
	bl	_ZdlPv(PLT)
	b	.L380
.L383:
	b	.L378
.L388:
	.align	2
.L387:
	.word	.LC19-(.LPIC55+8)
	.word	_GLOBAL_OFFSET_TABLE_-(.LPIC56+8)
	.word	_ZTVSt12system_error(GOT)
	.personality	__gxx_personality_v0
	.handlerdata
.LLSDA2381:
	.byte	0xff
	.byte	0xff
	.byte	0x1
	.uleb128 .LLSDACSE2381-.LLSDACSB2381
.LLSDACSB2381:
	.uleb128 .LEHB0-.LFB2381
	.uleb128 .LEHE0-.LEHB0
	.uleb128 0
	.uleb128 0
	.uleb128 .LEHB1-.LFB2381
	.uleb128 .LEHE1-.LEHB1
	.uleb128 .L382-.LFB2381
	.uleb128 0
	.uleb128 .LEHB2-.LFB2381
	.uleb128 .LEHE2-.LEHB2
	.uleb128 .L383-.LFB2381
	.uleb128 0
	.uleb128 .LEHB3-.LFB2381
	.uleb128 .LEHE3-.LEHB3
	.uleb128 .L384-.LFB2381
	.uleb128 0
	.uleb128 .LEHB4-.LFB2381
	.uleb128 .LEHE4-.LEHB4
	.uleb128 0
	.uleb128 0
.LLSDACSE2381:
	.section	.text._ZNSt12system_errorC2ESt10error_codePKc,"axG",%progbits,_ZNSt12system_errorC5ESt10error_codePKc,comdat
	.fnend
	.size	_ZNSt12system_errorC2ESt10error_codePKc, .-_ZNSt12system_errorC2ESt10error_codePKc
	.weak	_ZNSt12system_errorC1ESt10error_codePKc
	.set	_ZNSt12system_errorC1ESt10error_codePKc,_ZNSt12system_errorC2ESt10error_codePKc
	.section	.text._ZN4asio15system_categoryEv,"axG",%progbits,_ZN4asio15system_categoryEv,comdat
	.align	2
	.weak	_ZN4asio15system_categoryEv
	.syntax unified
	.arm
	.fpu vfp
	.type	_ZN4asio15system_categoryEv, %function
_ZN4asio15system_categoryEv:
	.fnstart
.LFB2424:
	@ args = 0, pretend = 0, frame = 0
	@ frame_needed = 0, uses_anonymous_args = 0
	push	{r4, r5, r6, lr}
	ldr	r4, .L399
	ldr	r3, .L399+4
.LPIC57:
	add	r4, pc, r4
	ldr	r5, [r4, r3]
	ldrb	r3, [r5]	@ zero_extendqisi2
	mcr	p15, 0, r0, c7, c10, 5
	tst	r3, #1
	beq	.L398
.L397:
	ldr	r3, .L399+8
	ldr	r4, [r4, r3]
	mov	r0, r4
	pop	{r4, r5, r6, pc}
.L398:
	mov	r0, r5
	bl	__cxa_guard_acquire(PLT)
	cmp	r0, #0
	beq	.L397
	mov	r0, r5
	bl	__cxa_guard_release(PLT)
	ldr	r3, .L399+8
	ldr	r1, .L399+12
	ldr	r2, .L399+16
	ldr	r1, [r4, r1]
	ldr	r4, [r4, r3]
.LPIC58:
	add	r2, pc, r2
	mov	r0, r4
	bl	__aeabi_atexit(PLT)
	mov	r0, r4
	pop	{r4, r5, r6, pc}
.L400:
	.align	2
.L399:
	.word	_GLOBAL_OFFSET_TABLE_-(.LPIC57+8)
	.word	_ZGVZN4asio15system_categoryEvE8instance(GOT)
	.word	_ZZN4asio15system_categoryEvE8instance(GOT)
	.word	_ZN4asio6detail15system_categoryD1Ev(GOT)
	.word	__dso_handle-(.LPIC58+8)
	.cantunwind
	.fnend
	.size	_ZN4asio15system_categoryEv, .-_ZN4asio15system_categoryEv
	.section	.text._ZNSt23_Sp_counted_ptr_inplaceIN8asiodnp315MasterTCPServerESaIS1_ELN9__gnu_cxx12_Lock_policyE1EE10_M_disposeEv,"axG",%progbits,_ZNSt23_Sp_counted_ptr_inplaceIN8asiodnp315MasterTCPServerESaIS1_ELN9__gnu_cxx12_Lock_policyE1EE10_M_disposeEv,comdat
	.align	2
	.weak	_ZNSt23_Sp_counted_ptr_inplaceIN8asiodnp315MasterTCPServerESaIS1_ELN9__gnu_cxx12_Lock_policyE1EE10_M_disposeEv
	.syntax unified
	.arm
	.fpu vfp
	.type	_ZNSt23_Sp_counted_ptr_inplaceIN8asiodnp315MasterTCPServerESaIS1_ELN9__gnu_cxx12_Lock_policyE1EE10_M_disposeEv, %function
_ZNSt23_Sp_counted_ptr_inplaceIN8asiodnp315MasterTCPServerESaIS1_ELN9__gnu_cxx12_Lock_policyE1EE10_M_disposeEv:
	.fnstart
.LFB11733:
	@ args = 0, pretend = 0, frame = 40
	@ frame_needed = 0, uses_anonymous_args = 0
	push	{r4, r5, r6, r7, r8, r9, r10, fp, lr}
	.save {r4, r5, r6, r7, r8, r9, r10, fp, lr}
	mov	r5, r0
	ldr	r7, .L738
	ldr	r3, .L738+4
.LPIC59:
	add	r7, pc, r7
	ldr	r4, [r0, #196]
	ldr	r3, [r7, r3]
	cmp	r4, #0
	add	r3, r3, #8
	.pad #52
	sub	sp, sp, #52
	str	r3, [r0, #40]
	beq	.L403
	ldr	r3, .L738+8
	ldr	r3, [r7, r3]
	cmp	r3, #0
	beq	.L404
	add	r3, r4, #28
	mcr	p15, 0, r0, c7, c10, 5
.L696:
	ldrex	r2, [r3]
	sub	r1, r2, #1
	strex	r0, r1, [r3]
	cmp	r0, #0
	bne	.L696
	cmp	r2, #1
	mcr	p15, 0, r0, c7, c10, 5
	beq	.L720
.L403:
	ldr	r4, [r5, #188]
	cmp	r4, #0
	beq	.L409
	ldr	r3, .L738+8
	ldr	r3, [r7, r3]
	cmp	r3, #0
	beq	.L410
	add	r3, r4, #28
	mcr	p15, 0, r0, c7, c10, 5
.L695:
	ldrex	r2, [r3]
	sub	r1, r2, #1
	strex	r0, r1, [r3]
	cmp	r0, #0
	bne	.L695
	cmp	r2, #1
	mcr	p15, 0, r0, c7, c10, 5
	beq	.L721
.L409:
	ldr	r3, .L738+12
	ldr	r4, [r5, #124]
	ldr	r3, [r7, r3]
	cmn	r4, #1
	add	r3, r3, #8
	str	r3, [r5, #40]
	beq	.L414
	ldr	r3, [r5, #132]
	cmp	r3, #0
	beq	.L552
	ldr	r2, [r5, #140]
	add	r3, r3, #20
	str	r3, [sp, #28]
	mov	r0, r3
	ldr	r3, [r2, #20]
	ldrb	r6, [r5, #128]	@ zero_extendqisi2
	str	r3, [sp, #24]
	bl	pthread_mutex_lock(PLT)
	ldr	r1, [r5, #132]
	ldrb	r0, [r1, #80]	@ zero_extendqisi2
	cmp	r0, #0
	bne	.L416
	tst	r6, #64
	bne	.L722
.L417:
	mov	r6, #0
	ldr	r3, .L738+16
	mov	r8, r6
	mov	r10, #56
.LPIC60:
	add	r3, pc, r3
	str	r3, [sp, #20]
	str	r6, [sp, #16]
	str	r6, [sp, #8]
	str	r7, [sp, #12]
.L427:
	ldr	r4, [r1, r10]
	cmp	r4, #0
	beq	.L418
	ldr	r3, [sp, #8]
	ldr	r1, .L738+20
	ldr	r2, .L738+24
	lsl	r7, r3, #3
	ldr	r3, [sp, #12]
	ldr	r9, [r3, r1]
	ldr	fp, [r3, r2]
	b	.L420
.L422:
	ldr	r1, [r5, #132]
	mov	r3, #125
	add	r0, r1, r7
	str	r3, [r4, #12]
	ldr	r2, [r0, #56]
	str	fp, [r4, #16]
	cmp	r2, #0
	beq	.L424
	ldr	ip, [r2]
	cmp	ip, #0
	str	ip, [r0, #56]
	streq	ip, [r0, #60]
	str	r8, [r2]
.L424:
	cmp	r6, #0
	str	r8, [r4]
	strne	r4, [r6]
	beq	.L723
	ldr	r2, [r1, r10]
	mov	r6, r4
	cmp	r2, #0
	beq	.L418
.L736:
	mov	r4, r2
.L420:
	ldrb	r2, [r9]	@ zero_extendqisi2
	mcr	p15, 0, r0, c7, c10, 5
	tst	r2, #1
	bne	.L422
	mov	r0, r9
	bl	__cxa_guard_acquire(PLT)
	cmp	r0, #0
	beq	.L422
	mov	r0, r9
	bl	__cxa_guard_release(PLT)
	ldr	r3, [sp, #12]
	ldr	r1, .L738+28
	ldr	r2, [sp, #20]
	mov	r0, fp
	ldr	r1, [r3, r1]
	bl	__aeabi_atexit(PLT)
	b	.L422
.L432:
	add	r8, r4, #24
	mov	r0, r8
	bl	pthread_mutex_lock(PLT)
	ldr	r3, [r4, #132]
	cmp	r3, #0
	ldreq	r3, [sp, #16]
	ldrne	r2, [sp, #16]
	streq	r3, [r4, #128]
	strne	r2, [r3]
	ldr	r3, [r4, #96]
	str	r6, [r4, #132]
	orr	r3, r3, #1
	cmp	r3, #1
	str	r3, [r4, #96]
	add	r6, r4, #48
	beq	.L443
	mov	r0, r8
	bl	pthread_mutex_unlock(PLT)
	mov	r0, r6
	bl	pthread_cond_signal(PLT)
.L699:
	ldr	r4, [r5, #124]
	cmn	r4, #1
	beq	.L414
.L552:
	ldrb	r3, [r5, #128]	@ zero_extendqisi2
	tst	r3, #8
	bne	.L447
	bl	__errno_location(PLT)
	ldr	r3, .L738+20
	ldr	r6, [r7, r3]
	mov	r8, r0
.L448:
	mov	r3, #0
	str	r3, [r8]
	mov	r0, r4
	bl	close(PLT)
	ldr	r10, [r8]
	ldrb	r3, [r6]	@ zero_extendqisi2
	mcr	p15, 0, r0, c7, c10, 5
	tst	r3, #1
	mov	r9, r0
	beq	.L724
.L453:
	cmp	r9, #0
	beq	.L414
	ldrb	r3, [r6]	@ zero_extendqisi2
	mcr	p15, 0, r0, c7, c10, 5
	tst	r3, #1
	beq	.L725
.L457:
	cmp	r10, #11
	beq	.L726
	ldrb	r3, [r6]	@ zero_extendqisi2
	mcr	p15, 0, r0, c7, c10, 5
	tst	r3, #1
	bne	.L414
	mov	r0, r6
	bl	__cxa_guard_acquire(PLT)
	cmp	r0, #0
	beq	.L414
	mov	r0, r6
	bl	__cxa_guard_release(PLT)
	ldr	r1, .L738+28
	ldr	r3, .L738+24
	ldr	r2, .L738+32
	ldr	r1, [r7, r1]
.LPIC64:
	add	r2, pc, r2
	ldr	r0, [r7, r3]
	bl	__aeabi_atexit(PLT)
.L414:
	ldr	r4, [r5, #104]
	cmn	r4, #1
	beq	.L464
	ldr	r3, [r5, #112]
	cmp	r3, #0
	beq	.L553
	ldr	r2, [r5, #120]
	add	r3, r3, #20
	str	r3, [sp, #28]
	mov	r0, r3
	ldr	r3, [r2, #20]
	ldrb	r6, [r5, #108]	@ zero_extendqisi2
	str	r3, [sp, #24]
	bl	pthread_mutex_lock(PLT)
	ldr	r1, [r5, #112]
	ldrb	r0, [r1, #80]	@ zero_extendqisi2
	cmp	r0, #0
	bne	.L466
	tst	r6, #64
	bne	.L727
.L467:
	mov	r6, #0
	ldr	r3, .L738+36
	mov	r8, r6
	mov	r10, #56
.LPIC66:
	add	r3, pc, r3
	str	r3, [sp, #20]
	str	r6, [sp, #16]
	str	r6, [sp, #8]
	str	r7, [sp, #12]
.L477:
	ldr	r4, [r1, r10]
	cmp	r4, #0
	beq	.L468
	ldr	r3, [sp, #8]
	ldr	r1, .L738+20
	ldr	r2, .L738+24
	lsl	r7, r3, #3
	ldr	r3, [sp, #12]
	ldr	r9, [r3, r1]
	ldr	fp, [r3, r2]
	b	.L470
.L472:
	ldr	r1, [r5, #112]
	mov	r3, #125
	add	r0, r1, r7
	str	r3, [r4, #12]
	ldr	r2, [r0, #56]
	str	fp, [r4, #16]
	cmp	r2, #0
	beq	.L474
	ldr	ip, [r2]
	cmp	ip, #0
	str	ip, [r0, #56]
	streq	ip, [r0, #60]
	str	r8, [r2]
.L474:
	cmp	r6, #0
	str	r8, [r4]
	strne	r4, [r6]
	beq	.L728
	ldr	r2, [r1, r10]
	mov	r6, r4
	cmp	r2, #0
	beq	.L468
.L737:
	mov	r4, r2
.L470:
	ldrb	r2, [r9]	@ zero_extendqisi2
	mcr	p15, 0, r0, c7, c10, 5
	tst	r2, #1
	bne	.L472
	mov	r0, r9
	bl	__cxa_guard_acquire(PLT)
	cmp	r0, #0
	beq	.L472
	mov	r0, r9
	bl	__cxa_guard_release(PLT)
	ldr	r3, [sp, #12]
	ldr	r1, .L738+28
	ldr	r2, [sp, #20]
	mov	r0, fp
	ldr	r1, [r3, r1]
	bl	__aeabi_atexit(PLT)
	b	.L472
.L482:
	add	r8, r4, #24
	mov	r0, r8
	bl	pthread_mutex_lock(PLT)
	ldr	r3, [r4, #132]
	cmp	r3, #0
	ldreq	r3, [sp, #16]
	ldrne	r2, [sp, #16]
	streq	r3, [r4, #128]
	strne	r2, [r3]
	ldr	r3, [r4, #96]
	str	r6, [r4, #132]
	orr	r3, r3, #1
	cmp	r3, #1
	str	r3, [r4, #96]
	add	r6, r4, #48
	beq	.L493
	mov	r0, r8
	bl	pthread_mutex_unlock(PLT)
	mov	r0, r6
	bl	pthread_cond_signal(PLT)
.L701:
	ldr	r4, [r5, #104]
	cmn	r4, #1
	beq	.L464
.L553:
	ldrb	r3, [r5, #108]	@ zero_extendqisi2
	tst	r3, #8
	bne	.L497
	bl	__errno_location(PLT)
	ldr	r3, .L738+20
	ldr	r6, [r7, r3]
	mov	r8, r0
.L498:
	mov	r3, #0
	str	r3, [r8]
	mov	r0, r4
	bl	close(PLT)
	ldr	r10, [r8]
	ldrb	r3, [r6]	@ zero_extendqisi2
	mcr	p15, 0, r0, c7, c10, 5
	tst	r3, #1
	mov	r9, r0
	beq	.L729
.L503:
	cmp	r9, #0
	beq	.L464
	ldrb	r3, [r6]	@ zero_extendqisi2
	mcr	p15, 0, r0, c7, c10, 5
	tst	r3, #1
	beq	.L730
.L507:
	cmp	r10, #11
	beq	.L731
	ldrb	r3, [r6]	@ zero_extendqisi2
	mcr	p15, 0, r0, c7, c10, 5
	tst	r3, #1
	bne	.L464
	mov	r0, r6
	bl	__cxa_guard_acquire(PLT)
	cmp	r0, #0
	beq	.L464
	mov	r0, r6
	bl	__cxa_guard_release(PLT)
	ldr	r1, .L738+28
	ldr	r3, .L738+24
	ldr	r2, .L738+40
	ldr	r1, [r7, r1]
.LPIC70:
	add	r2, pc, r2
	ldr	r0, [r7, r3]
	bl	__aeabi_atexit(PLT)
.L464:
	ldr	r4, [r5, #72]
	cmp	r4, #0
	beq	.L515
	ldr	r3, .L738+8
	ldr	r3, [r7, r3]
	cmp	r3, #0
	beq	.L516
	add	r3, r4, #28
	mcr	p15, 0, r0, c7, c10, 5
.L694:
	ldrex	r2, [r3]
	sub	r1, r2, #1
	strex	r0, r1, [r3]
	cmp	r0, #0
	bne	.L694
	cmp	r2, #1
	mcr	p15, 0, r0, c7, c10, 5
	beq	.L732
.L515:
	ldr	r4, [r5, #64]
	cmp	r4, #0
	beq	.L521
	ldr	r3, .L738+8
	ldr	r3, [r7, r3]
	cmp	r3, #0
	beq	.L522
	add	r3, r4, #28
	mcr	p15, 0, r0, c7, c10, 5
.L693:
	ldrex	r2, [r3]
	sub	r1, r2, #1
	strex	r0, r1, [r3]
	cmp	r0, #0
	bne	.L693
	cmp	r2, #1
	mcr	p15, 0, r0, c7, c10, 5
	beq	.L733
.L521:
	ldr	r4, [r5, #56]
	cmp	r4, #0
	beq	.L527
	ldr	r3, .L738+8
	ldr	r3, [r7, r3]
	cmp	r3, #0
	beq	.L528
	add	r3, r4, #28
	mcr	p15, 0, r0, c7, c10, 5
.L692:
	ldrex	r2, [r3]
	sub	r1, r2, #1
	strex	r0, r1, [r3]
	cmp	r0, #0
	bne	.L692
	cmp	r2, #1
	mcr	p15, 0, r0, c7, c10, 5
	beq	.L734
.L527:
	ldr	r0, [r5, #48]
	cmp	r0, #0
	beq	.L401
	ldr	r3, .L738+8
	ldr	r3, [r7, r3]
	cmp	r3, #0
	beq	.L534
	add	r3, r0, #32
	mcr	p15, 0, r0, c7, c10, 5
.L691:
	ldrex	r2, [r3]
	sub	r1, r2, #1
	strex	ip, r1, [r3]
	cmp	ip, #0
	bne	.L691
	cmp	r2, #1
	mcr	p15, 0, r0, c7, c10, 5
	beq	.L735
.L401:
	add	sp, sp, #52
	@ sp needed
	pop	{r4, r5, r6, r7, r8, r9, r10, fp, pc}
.L516:
	ldr	r3, [r4, #28]
	cmp	r3, #1
	sub	r3, r3, #1
	str	r3, [r4, #28]
	bne	.L515
	ldr	r3, [r4]
	mov	r0, r4
	ldr	r3, [r3, #8]
	blx	r3
	mcr	p15, 0, r0, c7, c10, 5
	ldr	r2, [r4, #32]
	sub	r3, r2, #1
	str	r3, [r4, #32]
	b	.L549
.L522:
	ldr	r3, [r4, #28]
	cmp	r3, #1
	sub	r3, r3, #1
	str	r3, [r4, #28]
	bne	.L521
	ldr	r3, [r4]
	mov	r0, r4
	ldr	r3, [r3, #8]
	blx	r3
	mcr	p15, 0, r0, c7, c10, 5
	ldr	r2, [r4, #32]
	sub	r3, r2, #1
	str	r3, [r4, #32]
	b	.L550
.L404:
	ldr	r3, [r4, #28]
	cmp	r3, #1
	sub	r3, r3, #1
	str	r3, [r4, #28]
	bne	.L403
	ldr	r3, [r4]
	mov	r0, r4
	ldr	r3, [r3, #8]
	blx	r3
	mcr	p15, 0, r0, c7, c10, 5
	ldr	r2, [r4, #32]
	sub	r3, r2, #1
	str	r3, [r4, #32]
	b	.L543
.L723:
	ldr	r2, [r1, r10]
	str	r4, [sp, #16]
	cmp	r2, #0
	mov	r6, r4
	bne	.L736
.L418:
	ldr	r3, [sp, #8]
	add	r10, r10, #8
	add	r3, r3, #1
	cmp	r3, #3
	str	r3, [sp, #8]
	bne	.L427
	ldr	r8, [sp, #24]
	mvn	r2, #0
	mov	r3, #1
	str	r2, [r1, #48]
	strb	r3, [r1, #80]
	add	r9, r8, #72
	ldr	r0, [sp, #28]
	ldr	r7, [sp, #12]
	bl	pthread_mutex_unlock(PLT)
	mov	r0, r9
	ldr	r4, [r5, #132]
	bl	pthread_mutex_lock(PLT)
	ldr	r3, [r8, #96]
	mov	r8, #0
	cmp	r4, r3
	mov	r0, r9
	ldreq	r2, [sp, #24]
	ldreq	r3, [r4, #12]
	streq	r3, [r2, #96]
	ldr	r3, [r4, #16]
	cmp	r3, #0
	ldrne	r2, [r4, #12]
	strne	r2, [r3, #12]
	ldr	r3, [r4, #12]
	cmp	r3, #0
	ldrne	r2, [r4, #16]
	strne	r2, [r3, #16]
	ldr	r2, [sp, #24]
	mov	r9, r2
	ldr	r3, [r2, #100]
	str	r8, [r4, #16]
	str	r3, [r4, #12]
	str	r4, [r2, #100]
	bl	pthread_mutex_unlock(PLT)
	ldr	r3, [sp, #16]
	str	r8, [r5, #132]
	cmp	r3, r8
	ldr	r4, [r9, #20]
	beq	.L699
	ldrb	r3, [r4, #20]	@ zero_extendqisi2
	cmp	r3, r8
	beq	.L432
	ldr	r3, .L738+44
	ldr	r3, [r7, r3]
	ldr	r0, [r3]
	bl	pthread_getspecific(PLT)
	cmp	r0, #0
	bne	.L675
	b	.L432
.L435:
	ldr	r0, [r0, #8]
	cmp	r0, #0
	beq	.L432
.L675:
	ldr	r3, [r0]
	cmp	r4, r3
	bne	.L435
	ldr	r3, [r0, #4]
	cmp	r3, #0
	beq	.L432
	ldr	r2, [r3, #8]
	cmp	r2, #0
	ldrne	r1, [sp, #16]
	ldreq	r2, [sp, #16]
	strne	r1, [r2]
	streq	r2, [r3, #4]
	str	r6, [r3, #8]
	b	.L699
.L728:
	ldr	r2, [r1, r10]
	str	r4, [sp, #16]
	cmp	r2, #0
	mov	r6, r4
	bne	.L737
.L468:
	ldr	r3, [sp, #8]
	add	r10, r10, #8
	add	r3, r3, #1
	cmp	r3, #3
	str	r3, [sp, #8]
	bne	.L477
	ldr	r8, [sp, #24]
	mvn	r2, #0
	mov	r3, #1
	str	r2, [r1, #48]
	strb	r3, [r1, #80]
	add	r9, r8, #72
	ldr	r0, [sp, #28]
	ldr	r7, [sp, #12]
	bl	pthread_mutex_unlock(PLT)
	mov	r0, r9
	ldr	r4, [r5, #112]
	bl	pthread_mutex_lock(PLT)
	ldr	r3, [r8, #96]
	mov	r8, #0
	cmp	r4, r3
	mov	r0, r9
	ldreq	r2, [sp, #24]
	ldreq	r3, [r4, #12]
	streq	r3, [r2, #96]
	ldr	r3, [r4, #16]
	cmp	r3, #0
	ldrne	r2, [r4, #12]
	strne	r2, [r3, #12]
	ldr	r3, [r4, #12]
	cmp	r3, #0
	ldrne	r2, [r4, #16]
	strne	r2, [r3, #16]
	ldr	r2, [sp, #24]
	mov	r9, r2
	ldr	r3, [r2, #100]
	str	r8, [r4, #16]
	str	r3, [r4, #12]
	str	r4, [r2, #100]
	bl	pthread_mutex_unlock(PLT)
	ldr	r3, [sp, #16]
	str	r8, [r5, #112]
	cmp	r3, r8
	ldr	r4, [r9, #20]
	beq	.L701
	ldrb	r3, [r4, #20]	@ zero_extendqisi2
	cmp	r3, r8
	beq	.L482
	ldr	r3, .L738+44
	ldr	r3, [r7, r3]
	ldr	r0, [r3]
	bl	pthread_getspecific(PLT)
	cmp	r0, #0
	bne	.L678
	b	.L482
.L485:
	ldr	r0, [r0, #8]
	cmp	r0, #0
	beq	.L482
.L678:
	ldr	r3, [r0]
	cmp	r4, r3
	bne	.L485
	ldr	r3, [r0, #4]
	cmp	r3, #0
	beq	.L482
	ldr	r2, [r3, #8]
	cmp	r2, #0
	ldrne	r1, [sp, #16]
	ldreq	r2, [sp, #16]
	strne	r1, [r2]
	streq	r2, [r3, #4]
	str	r6, [r3, #8]
	b	.L701
.L534:
	ldr	r2, [r0, #32]
	sub	r3, r2, #1
	cmp	r2, #1
	str	r3, [r0, #32]
	bne	.L401
.L735:
	mcr	p15, 0, r0, c7, c10, 5
	ldr	r3, [r0]
	ldr	r3, [r3, #12]
	blx	r3
	add	sp, sp, #52
	@ sp needed
	pop	{r4, r5, r6, r7, r8, r9, r10, fp, pc}
.L528:
	ldr	r3, [r4, #28]
	cmp	r3, #1
	sub	r3, r3, #1
	str	r3, [r4, #28]
	bne	.L527
	ldr	r3, [r4]
	mov	r0, r4
	ldr	r3, [r3, #8]
	blx	r3
	mcr	p15, 0, r0, c7, c10, 5
	ldr	r2, [r4, #32]
	sub	r3, r2, #1
	str	r3, [r4, #32]
	b	.L551
.L410:
	ldr	r3, [r4, #28]
	cmp	r3, #1
	sub	r3, r3, #1
	str	r3, [r4, #28]
	bne	.L409
	ldr	r3, [r4]
	mov	r0, r4
	ldr	r3, [r3, #8]
	blx	r3
	mcr	p15, 0, r0, c7, c10, 5
	ldr	r2, [r4, #32]
	sub	r3, r2, #1
	str	r3, [r4, #32]
	b	.L544
.L466:
	ldr	r0, [sp, #28]
	bl	pthread_mutex_unlock(PLT)
	ldr	r4, [r5, #104]
	cmn	r4, #1
	bne	.L553
	b	.L464
.L416:
	ldr	r0, [sp, #28]
	bl	pthread_mutex_unlock(PLT)
	ldr	r4, [r5, #124]
	cmn	r4, #1
	bne	.L552
	b	.L414
.L721:
	ldr	r3, [r4]
	mov	r0, r4
	ldr	r3, [r3, #8]
	blx	r3
	add	r3, r4, #32
	mcr	p15, 0, r0, c7, c10, 5
	mcr	p15, 0, r0, c7, c10, 5
.L689:
	ldrex	r2, [r3]
	sub	r1, r2, #1
	strex	r0, r1, [r3]
	cmp	r0, #0
	bne	.L689
	mcr	p15, 0, r0, c7, c10, 5
.L544:
	cmp	r2, #1
	bne	.L409
	ldr	r3, [r4]
	mov	r0, r4
	ldr	r3, [r3, #12]
	blx	r3
	b	.L409
.L734:
	ldr	r3, [r4]
	mov	r0, r4
	ldr	r3, [r3, #8]
	blx	r3
	add	r3, r4, #32
	mcr	p15, 0, r0, c7, c10, 5
	mcr	p15, 0, r0, c7, c10, 5
.L686:
	ldrex	r2, [r3]
	sub	r1, r2, #1
	strex	r0, r1, [r3]
	cmp	r0, #0
	bne	.L686
	mcr	p15, 0, r0, c7, c10, 5
.L551:
	cmp	r2, #1
	bne	.L527
	ldr	r3, [r4]
	mov	r0, r4
	ldr	r3, [r3, #12]
	blx	r3
	b	.L527
.L720:
	ldr	r3, [r4]
	mov	r0, r4
	ldr	r3, [r3, #8]
	blx	r3
	add	r3, r4, #32
	mcr	p15, 0, r0, c7, c10, 5
	mcr	p15, 0, r0, c7, c10, 5
.L690:
	ldrex	r2, [r3]
	sub	r1, r2, #1
	strex	r0, r1, [r3]
	cmp	r0, #0
	bne	.L690
	mcr	p15, 0, r0, c7, c10, 5
.L543:
	cmp	r2, #1
	bne	.L403
	ldr	r3, [r4]
	mov	r0, r4
	ldr	r3, [r3, #12]
	blx	r3
	b	.L403
.L732:
	ldr	r3, [r4]
	mov	r0, r4
	ldr	r3, [r3, #8]
	blx	r3
	add	r3, r4, #32
	mcr	p15, 0, r0, c7, c10, 5
	mcr	p15, 0, r0, c7, c10, 5
.L688:
	ldrex	r2, [r3]
	sub	r1, r2, #1
	strex	r0, r1, [r3]
	cmp	r0, #0
	bne	.L688
	mcr	p15, 0, r0, c7, c10, 5
.L549:
	cmp	r2, #1
	bne	.L515
	ldr	r3, [r4]
	mov	r0, r4
	ldr	r3, [r3, #12]
	blx	r3
	b	.L515
.L733:
	ldr	r3, [r4]
	mov	r0, r4
	ldr	r3, [r3, #8]
	blx	r3
	add	r3, r4, #32
	mcr	p15, 0, r0, c7, c10, 5
	mcr	p15, 0, r0, c7, c10, 5
.L687:
	ldrex	r2, [r3]
	sub	r1, r2, #1
	strex	r0, r1, [r3]
	cmp	r0, #0
	bne	.L687
	mcr	p15, 0, r0, c7, c10, 5
.L550:
	cmp	r2, #1
	bne	.L521
	ldr	r3, [r4]
	mov	r0, r4
	ldr	r3, [r3, #12]
	blx	r3
	b	.L521
.L727:
	str	r0, [sp, #32]
	str	r0, [sp, #36]
	str	r0, [sp, #40]
	str	r0, [sp, #44]
	ldr	r0, [sp, #24]
	add	ip, sp, #32
	mov	r1, #2
	mov	r2, r4
	mov	r3, ip
	ldr	r0, [r0, #56]
	bl	epoll_ctl(PLT)
	ldr	r1, [r5, #112]
	b	.L467
.L722:
	str	r0, [sp, #32]
	str	r0, [sp, #36]
	str	r0, [sp, #40]
	str	r0, [sp, #44]
	ldr	r0, [sp, #24]
	add	ip, sp, #32
	mov	r1, #2
	mov	r2, r4
	mov	r3, ip
	ldr	r0, [r0, #56]
	bl	epoll_ctl(PLT)
	ldr	r1, [r5, #132]
	b	.L417
.L729:
	mov	r0, r6
	bl	__cxa_guard_acquire(PLT)
	cmp	r0, #0
	beq	.L503
	mov	r0, r6
	bl	__cxa_guard_release(PLT)
	ldr	r3, .L738+24
	ldr	r1, .L738+28
	ldr	r2, .L738+48
	ldr	r0, [r7, r3]
.LPIC68:
	add	r2, pc, r2
	ldr	r1, [r7, r1]
	bl	__aeabi_atexit(PLT)
	b	.L503
.L724:
	mov	r0, r6
	bl	__cxa_guard_acquire(PLT)
	cmp	r0, #0
	beq	.L453
	mov	r0, r6
	bl	__cxa_guard_release(PLT)
	ldr	r3, .L738+24
	ldr	r1, .L738+28
	ldr	r2, .L738+52
	ldr	r0, [r7, r3]
.LPIC62:
	add	r2, pc, r2
	ldr	r1, [r7, r1]
	bl	__aeabi_atexit(PLT)
	b	.L453
.L447:
	orr	r3, r3, #8
	mov	r6, #0
	strb	r3, [r5, #128]
	str	r6, [sp, #32]
	str	r6, [sp, #36]
	bl	__errno_location(PLT)
	mov	r2, #8
	add	r3, sp, #32
	mov	r1, #1
	str	r6, [r0]
	mov	r8, r0
	str	r2, [sp]
	mov	r0, r4
	mov	r2, #13
	bl	setsockopt(PLT)
	ldr	r3, .L738+20
	ldr	r6, [r7, r3]
	ldrb	r3, [r6]	@ zero_extendqisi2
	mcr	p15, 0, r0, c7, c10, 5
	tst	r3, #1
	bne	.L448
	mov	r0, r6
	bl	__cxa_guard_acquire(PLT)
	cmp	r0, #0
	beq	.L448
	mov	r0, r6
	bl	__cxa_guard_release(PLT)
	ldr	r3, .L738+24
	ldr	r1, .L738+28
	ldr	r2, .L738+56
	ldr	r0, [r7, r3]
.LPIC61:
	add	r2, pc, r2
	ldr	r1, [r7, r1]
	bl	__aeabi_atexit(PLT)
	b	.L448
.L726:
	add	r2, sp, #48
	mov	r9, #0
	str	r9, [r2, #-16]!
	ldr	r1, .L738+60
	mov	r0, r4
	bl	ioctl(PLT)
	ldrb	r3, [r5, #128]	@ zero_extendqisi2
	mov	r0, r4
	bic	r3, r3, #3
	strb	r3, [r5, #128]
	str	r9, [r8]
	bl	close(PLT)
	ldrb	r3, [r6]	@ zero_extendqisi2
	mcr	p15, 0, r0, c7, c10, 5
	tst	r3, #1
	bne	.L414
	mov	r0, r6
	bl	__cxa_guard_acquire(PLT)
	cmp	r0, #0
	beq	.L414
	mov	r0, r6
	bl	__cxa_guard_release(PLT)
	ldr	r3, .L738+24
	ldr	r1, .L738+28
	ldr	r2, .L738+64
	ldr	r0, [r7, r3]
.LPIC65:
	add	r2, pc, r2
	ldr	r1, [r7, r1]
	bl	__aeabi_atexit(PLT)
	b	.L414
.L731:
	add	r2, sp, #48
	mov	r9, #0
	str	r9, [r2, #-16]!
	ldr	r1, .L738+60
	mov	r0, r4
	bl	ioctl(PLT)
	ldrb	r3, [r5, #108]	@ zero_extendqisi2
	mov	r0, r4
	bic	r3, r3, #3
	strb	r3, [r5, #108]
	str	r9, [r8]
	bl	close(PLT)
	ldrb	r3, [r6]	@ zero_extendqisi2
	mcr	p15, 0, r0, c7, c10, 5
	tst	r3, #1
	bne	.L464
	mov	r0, r6
	bl	__cxa_guard_acquire(PLT)
	cmp	r0, #0
	beq	.L464
	mov	r0, r6
	bl	__cxa_guard_release(PLT)
	ldr	r3, .L738+24
	ldr	r1, .L738+28
	ldr	r2, .L738+68
	ldr	r0, [r7, r3]
.LPIC71:
	add	r2, pc, r2
	ldr	r1, [r7, r1]
	bl	__aeabi_atexit(PLT)
	b	.L464
.L497:
	orr	r3, r3, #8
	mov	r6, #0
	strb	r3, [r5, #108]
	str	r6, [sp, #32]
	str	r6, [sp, #36]
	bl	__errno_location(PLT)
	mov	r2, #8
	add	r3, sp, #32
	mov	r1, #1
	str	r6, [r0]
	mov	r8, r0
	str	r2, [sp]
	mov	r0, r4
	mov	r2, #13
	bl	setsockopt(PLT)
	ldr	r3, .L738+20
	ldr	r6, [r7, r3]
	ldrb	r3, [r6]	@ zero_extendqisi2
	mcr	p15, 0, r0, c7, c10, 5
	tst	r3, #1
	bne	.L498
	mov	r0, r6
	bl	__cxa_guard_acquire(PLT)
	cmp	r0, #0
	beq	.L498
	mov	r0, r6
	bl	__cxa_guard_release(PLT)
	ldr	r3, .L738+24
	ldr	r1, .L738+28
	ldr	r2, .L738+72
	ldr	r0, [r7, r3]
.LPIC67:
	add	r2, pc, r2
	ldr	r1, [r7, r1]
	bl	__aeabi_atexit(PLT)
	b	.L498
.L493:
	ldrb	r2, [r4, #120]	@ zero_extendqisi2
	cmp	r2, #0
	bne	.L495
	ldr	r0, [r4, #104]
	cmp	r0, #0
	beq	.L495
	strb	r3, [r4, #120]
	add	r3, sp, #32
	add	r1, r0, #48
	mov	ip, #-2147483639
	str	r1, [sp, #40]
	str	r2, [r3, #4]
	str	r2, [r3, #12]
	str	ip, [sp, #32]
	mov	r1, #3
	ldr	r2, [r0, #48]
	ldr	r0, [r0, #56]
	bl	epoll_ctl(PLT)
.L495:
	mov	r0, r8
	bl	pthread_mutex_unlock(PLT)
	b	.L701
.L443:
	ldrb	r2, [r4, #120]	@ zero_extendqisi2
	cmp	r2, #0
	bne	.L445
	ldr	r0, [r4, #104]
	cmp	r0, #0
	beq	.L445
	strb	r3, [r4, #120]
	add	r3, sp, #32
	add	r1, r0, #48
	mov	ip, #-2147483639
	str	r1, [sp, #40]
	str	r2, [r3, #4]
	str	r2, [r3, #12]
	str	ip, [sp, #32]
	mov	r1, #3
	ldr	r2, [r0, #48]
	ldr	r0, [r0, #56]
	bl	epoll_ctl(PLT)
.L445:
	mov	r0, r8
	bl	pthread_mutex_unlock(PLT)
	b	.L699
.L730:
	mov	r0, r6
	bl	__cxa_guard_acquire(PLT)
	cmp	r0, #0
	beq	.L507
	mov	r0, r6
	bl	__cxa_guard_release(PLT)
	ldr	r3, .L738+24
	ldr	r1, .L738+28
	ldr	r2, .L738+76
	ldr	r0, [r7, r3]
.LPIC69:
	add	r2, pc, r2
	ldr	r1, [r7, r1]
	bl	__aeabi_atexit(PLT)
	b	.L507
.L725:
	mov	r0, r6
	bl	__cxa_guard_acquire(PLT)
	cmp	r0, #0
	beq	.L457
	mov	r0, r6
	bl	__cxa_guard_release(PLT)
	ldr	r3, .L738+24
	ldr	r1, .L738+28
	ldr	r2, .L738+80
	ldr	r0, [r7, r3]
.LPIC63:
	add	r2, pc, r2
	ldr	r1, [r7, r1]
	bl	__aeabi_atexit(PLT)
	b	.L457
.L739:
	.align	2
.L738:
	.word	_GLOBAL_OFFSET_TABLE_-(.LPIC59+8)
	.word	_ZTVN8asiodnp315MasterTCPServerE(GOT)
	.word	_ZL28__gthrw___pthread_key_createPjPFvPvE(GOT)
	.word	_ZTVN7asiopal9TCPServerE(GOT)
	.word	__dso_handle-(.LPIC60+8)
	.word	_ZGVZN4asio15system_categoryEvE8instance(GOT)
	.word	_ZZN4asio15system_categoryEvE8instance(GOT)
	.word	_ZN4asio6detail15system_categoryD1Ev(GOT)
	.word	__dso_handle-(.LPIC64+8)
	.word	__dso_handle-(.LPIC66+8)
	.word	__dso_handle-(.LPIC70+8)
	.word	_ZN4asio6detail10call_stackINS0_15task_io_serviceENS0_27task_io_service_thread_infoEE4top_E(GOT)
	.word	__dso_handle-(.LPIC68+8)
	.word	__dso_handle-(.LPIC62+8)
	.word	__dso_handle-(.LPIC61+8)
	.word	21537
	.word	__dso_handle-(.LPIC65+8)
	.word	__dso_handle-(.LPIC71+8)
	.word	__dso_handle-(.LPIC67+8)
	.word	__dso_handle-(.LPIC69+8)
	.word	__dso_handle-(.LPIC63+8)
	.personality	__gxx_personality_v0
	.handlerdata
.LLSDA11733:
	.byte	0xff
	.byte	0xff
	.byte	0x1
	.uleb128 .LLSDACSE11733-.LLSDACSB11733
.LLSDACSB11733:
.LLSDACSE11733:
	.section	.text._ZNSt23_Sp_counted_ptr_inplaceIN8asiodnp315MasterTCPServerESaIS1_ELN9__gnu_cxx12_Lock_policyE1EE10_M_disposeEv,"axG",%progbits,_ZNSt23_Sp_counted_ptr_inplaceIN8asiodnp315MasterTCPServerESaIS1_ELN9__gnu_cxx12_Lock_policyE1EE10_M_disposeEv,comdat
	.fnend
	.size	_ZNSt23_Sp_counted_ptr_inplaceIN8asiodnp315MasterTCPServerESaIS1_ELN9__gnu_cxx12_Lock_policyE1EE10_M_disposeEv, .-_ZNSt23_Sp_counted_ptr_inplaceIN8asiodnp315MasterTCPServerESaIS1_ELN9__gnu_cxx12_Lock_policyE1EE10_M_disposeEv
	.section	.text._ZN4asio6detail14do_throw_errorERKSt10error_codePKc,"axG",%progbits,_ZN4asio6detail14do_throw_errorERKSt10error_codePKc,comdat
	.align	2
	.weak	_ZN4asio6detail14do_throw_errorERKSt10error_codePKc
	.syntax unified
	.arm
	.fpu vfp
	.type	_ZN4asio6detail14do_throw_errorERKSt10error_codePKc, %function
_ZN4asio6detail14do_throw_errorERKSt10error_codePKc:
	.fnstart
.LFB2435:
	@ args = 0, pretend = 0, frame = 16
	@ frame_needed = 0, uses_anonymous_args = 0
	push	{r4, r5, r6, lr}
	.save {r4, r5, r6, lr}
	.pad #16
	sub	sp, sp, #16
	mov	r3, r1
	ldm	r0, {r1, r2}
	mov	r0, sp
.LEHB5:
	bl	_ZNSt12system_errorC1ESt10error_codePKc(PLT)
.LEHE5:
	mov	r0, #16
	bl	__cxa_allocate_exception(PLT)
	mov	r1, sp
	mov	r5, sp
	mov	r6, r0
	bl	_ZNSt13runtime_errorC2ERKS_(PLT)
	ldr	r3, .L744
	ldr	r2, .L744+4
.LPIC72:
	add	r3, pc, r3
	add	r1, sp, #16
	ldr	r4, [r3, r2]
	ldmdb	r1, {r0, r1}
	ldr	lr, .L744+8
	ldr	ip, .L744+12
	mov	r2, r6
	add	r4, r4, #8
	str	r4, [r2], #8
	stm	r2, {r0, r1}
	mov	r0, r6
	ldr	r2, [r3, lr]
	ldr	r1, [r3, ip]
.LEHB6:
	bl	__cxa_throw(PLT)
.LEHE6:
.L742:
	mov	r0, r5
	bl	_ZNSt12system_errorD1Ev(PLT)
.LEHB7:
	bl	__cxa_end_cleanup(PLT)
.LEHE7:
.L745:
	.align	2
.L744:
	.word	_GLOBAL_OFFSET_TABLE_-(.LPIC72+8)
	.word	_ZTVSt12system_error(GOT)
	.word	_ZNSt12system_errorD1Ev(GOT)
	.word	_ZTISt12system_error(GOT)
	.personality	__gxx_personality_v0
	.handlerdata
.LLSDA2435:
	.byte	0xff
	.byte	0xff
	.byte	0x1
	.uleb128 .LLSDACSE2435-.LLSDACSB2435
.LLSDACSB2435:
	.uleb128 .LEHB5-.LFB2435
	.uleb128 .LEHE5-.LEHB5
	.uleb128 0
	.uleb128 0
	.uleb128 .LEHB6-.LFB2435
	.uleb128 .LEHE6-.LEHB6
	.uleb128 .L742-.LFB2435
	.uleb128 0
	.uleb128 .LEHB7-.LFB2435
	.uleb128 .LEHE7-.LEHB7
	.uleb128 0
	.uleb128 0
.LLSDACSE2435:
	.section	.text._ZN4asio6detail14do_throw_errorERKSt10error_codePKc,"axG",%progbits,_ZN4asio6detail14do_throw_errorERKSt10error_codePKc,comdat
	.fnend
	.size	_ZN4asio6detail14do_throw_errorERKSt10error_codePKc, .-_ZN4asio6detail14do_throw_errorERKSt10error_codePKc
	.section	.text._ZN4asio6detail20posix_tss_ptr_createERj,"axG",%progbits,_ZN4asio6detail20posix_tss_ptr_createERj,comdat
	.align	2
	.weak	_ZN4asio6detail20posix_tss_ptr_createERj
	.syntax unified
	.arm
	.fpu vfp
	.type	_ZN4asio6detail20posix_tss_ptr_createERj, %function
_ZN4asio6detail20posix_tss_ptr_createERj:
	.fnstart
.LFB2459:
	@ args = 0, pretend = 0, frame = 8
	@ frame_needed = 0, uses_anonymous_args = 0
	push	{r4, r5, r6, lr}
	.save {r4, r5, r6, lr}
	mov	r1, #0
	.pad #8
	sub	sp, sp, #8
	bl	pthread_key_create(PLT)
	ldr	r4, .L758
	ldr	r3, .L758+4
.LPIC73:
	add	r4, pc, r4
	ldr	r6, [r4, r3]
	ldrb	r3, [r6]	@ zero_extendqisi2
	mcr	p15, 0, r0, c7, c10, 5
	tst	r3, #1
	mov	r5, r0
	beq	.L756
.L755:
	ldr	r3, .L758+8
	ldr	r4, [r4, r3]
.L748:
	cmp	r5, #0
	str	r5, [sp]
	str	r4, [sp, #4]
	bne	.L757
	add	sp, sp, #8
	@ sp needed
	pop	{r4, r5, r6, pc}
.L756:
	mov	r0, r6
	bl	__cxa_guard_acquire(PLT)
	cmp	r0, #0
	beq	.L755
	mov	r0, r6
	bl	__cxa_guard_release(PLT)
	ldr	r3, .L758+8
	ldr	r1, .L758+12
	ldr	r2, .L758+16
	ldr	r1, [r4, r1]
	ldr	r4, [r4, r3]
.LPIC74:
	add	r2, pc, r2
	mov	r0, r4
	bl	__aeabi_atexit(PLT)
	b	.L748
.L757:
	ldr	r1, .L758+20
	mov	r0, sp
.LPIC75:
	add	r1, pc, r1
	bl	_ZN4asio6detail14do_throw_errorERKSt10error_codePKc(PLT)
.L759:
	.align	2
.L758:
	.word	_GLOBAL_OFFSET_TABLE_-(.LPIC73+8)
	.word	_ZGVZN4asio15system_categoryEvE8instance(GOT)
	.word	_ZZN4asio15system_categoryEvE8instance(GOT)
	.word	_ZN4asio6detail15system_categoryD1Ev(GOT)
	.word	__dso_handle-(.LPIC74+8)
	.word	.LC20-(.LPIC75+8)
	.fnend
	.size	_ZN4asio6detail20posix_tss_ptr_createERj, .-_ZN4asio6detail20posix_tss_ptr_createERj
	.text
	.align	2
	.global	_ZN8asiodnp315DNP3ManagerImpl8ShutdownEv
	.syntax unified
	.arm
	.fpu vfp
	.type	_ZN8asiodnp315DNP3ManagerImpl8ShutdownEv, %function
_ZN8asiodnp315DNP3ManagerImpl8ShutdownEv:
	.fnstart
.LFB7956:
	@ args = 0, pretend = 0, frame = 0
	@ frame_needed = 0, uses_anonymous_args = 0
	push	{r4, r5, r6, lr}
	.save {r4, r5, r6, lr}
	mov	r4, r0
	ldr	r0, [r0, #144]
	ldr	r6, .L776
	cmp	r0, #0
.LPIC76:
	add	r6, pc, r6
	popeq	{r4, r5, r6, pc}
	bl	_ZN7asiopal15ResourceManager8ShutdownEv(PLT)
	ldr	r5, [r4, #148]
	mov	r3, #0
	cmp	r5, r3
	str	r3, [r4, #144]
	str	r3, [r4, #148]
	popeq	{r4, r5, r6, pc}
	ldr	r3, .L776+4
	ldr	r3, [r6, r3]
	cmp	r3, #0
	beq	.L764
	add	r3, r5, #28
	mcr	p15, 0, r0, c7, c10, 5
.L772:
	ldrex	r2, [r3]
	sub	r1, r2, #1
	strex	r0, r1, [r3]
	cmp	r0, #0
	bne	.L772
	cmp	r2, #1
	mcr	p15, 0, r0, c7, c10, 5
	popne	{r4, r5, r6, pc}
	ldr	r3, [r5]
	mov	r0, r5
	ldr	r3, [r3, #8]
	blx	r3
	add	r3, r5, #32
	mcr	p15, 0, r0, c7, c10, 5
	mcr	p15, 0, r0, c7, c10, 5
.L771:
	ldrex	r2, [r3]
	sub	r1, r2, #1
	strex	r0, r1, [r3]
	cmp	r0, #0
	bne	.L771
	mcr	p15, 0, r0, c7, c10, 5
.L767:
	cmp	r2, #1
	popne	{r4, r5, r6, pc}
	ldr	r3, [r5]
	mov	r0, r5
	pop	{r4, r5, r6, lr}
	ldr	r3, [r3, #12]
	bx	r3	@ indirect register sibling call
.L764:
	ldr	r3, [r5, #28]
	cmp	r3, #1
	sub	r3, r3, #1
	str	r3, [r5, #28]
	popne	{r4, r5, r6, pc}
	ldr	r3, [r5]
	mov	r0, r5
	ldr	r3, [r3, #8]
	blx	r3
	mcr	p15, 0, r0, c7, c10, 5
	ldr	r2, [r5, #32]
	sub	r3, r2, #1
	str	r3, [r5, #32]
	b	.L767
.L777:
	.align	2
.L776:
	.word	_GLOBAL_OFFSET_TABLE_-(.LPIC76+8)
	.word	_ZL28__gthrw___pthread_key_createPjPFvPvE(GOT)
	.fnend
	.size	_ZN8asiodnp315DNP3ManagerImpl8ShutdownEv, .-_ZN8asiodnp315DNP3ManagerImpl8ShutdownEv
	.align	2
	.global	_ZN8asiodnp315DNP3ManagerImplD2Ev
	.syntax unified
	.arm
	.fpu vfp
	.type	_ZN8asiodnp315DNP3ManagerImplD2Ev, %function
_ZN8asiodnp315DNP3ManagerImplD2Ev:
	.fnstart
.LFB7954:
	@ args = 0, pretend = 0, frame = 0
	@ frame_needed = 0, uses_anonymous_args = 0
	push	{r4, r5, r6, lr}
	.save {r4, r5, r6, lr}
	mov	r4, r0
	bl	_ZN8asiodnp315DNP3ManagerImpl8ShutdownEv(PLT)
	ldr	r6, [r4, #148]
	ldr	r5, .L829
	cmp	r6, #0
.LPIC77:
	add	r5, pc, r5
	beq	.L780
	ldr	r3, .L829+4
	ldr	r3, [r5, r3]
	cmp	r3, #0
	beq	.L781
	add	r3, r6, #28
	mcr	p15, 0, r0, c7, c10, 5
.L815:
	ldrex	r2, [r3]
	sub	r1, r2, #1
	strex	r0, r1, [r3]
	cmp	r0, #0
	bne	.L815
	cmp	r2, #1
	mcr	p15, 0, r0, c7, c10, 5
	beq	.L825
.L780:
	add	r0, r4, #24
	bl	_ZN7asiopal10ThreadPoolD1Ev(PLT)
	ldr	r6, [r4, #20]
	cmp	r6, #0
	beq	.L786
	ldr	r3, .L829+4
	ldr	r3, [r5, r3]
	cmp	r3, #0
	beq	.L787
	add	r3, r6, #28
	mcr	p15, 0, r0, c7, c10, 5
.L814:
	ldrex	r2, [r3]
	sub	r1, r2, #1
	strex	r0, r1, [r3]
	cmp	r0, #0
	bne	.L814
	cmp	r2, #1
	mcr	p15, 0, r0, c7, c10, 5
	beq	.L826
.L786:
	ldr	r6, [r4, #12]
	cmp	r6, #0
	beq	.L792
	ldr	r3, .L829+4
	ldr	r3, [r5, r3]
	cmp	r3, #0
	beq	.L793
	add	r3, r6, #28
	mcr	p15, 0, r0, c7, c10, 5
.L813:
	ldrex	r2, [r3]
	sub	r1, r2, #1
	strex	r0, r1, [r3]
	cmp	r0, #0
	bne	.L813
	cmp	r2, #1
	mcr	p15, 0, r0, c7, c10, 5
	beq	.L827
.L792:
	ldr	r6, [r4, #4]
	cmp	r6, #0
	beq	.L807
	ldr	r3, .L829+4
	ldr	r3, [r5, r3]
	cmp	r3, #0
	beq	.L799
	add	r3, r6, #28
	mcr	p15, 0, r0, c7, c10, 5
.L812:
	ldrex	r2, [r3]
	sub	r1, r2, #1
	strex	r0, r1, [r3]
	cmp	r0, #0
	bne	.L812
	cmp	r2, #1
	mcr	p15, 0, r0, c7, c10, 5
	beq	.L828
.L807:
	mov	r0, r4
	pop	{r4, r5, r6, pc}
.L781:
	ldr	r3, [r6, #28]
	cmp	r3, #1
	sub	r3, r3, #1
	str	r3, [r6, #28]
	bne	.L780
	ldr	r3, [r6]
	mov	r0, r6
	ldr	r3, [r3, #8]
	blx	r3
	mcr	p15, 0, r0, c7, c10, 5
	ldr	r2, [r6, #32]
	sub	r3, r2, #1
	str	r3, [r6, #32]
	b	.L803
.L793:
	ldr	r3, [r6, #28]
	cmp	r3, #1
	sub	r3, r3, #1
	str	r3, [r6, #28]
	bne	.L792
	ldr	r3, [r6]
	mov	r0, r6
	ldr	r3, [r3, #8]
	blx	r3
	mcr	p15, 0, r0, c7, c10, 5
	ldr	r2, [r6, #32]
	sub	r3, r2, #1
	str	r3, [r6, #32]
	b	.L805
.L787:
	ldr	r3, [r6, #28]
	cmp	r3, #1
	sub	r3, r3, #1
	str	r3, [r6, #28]
	bne	.L786
	ldr	r3, [r6]
	mov	r0, r6
	ldr	r3, [r3, #8]
	blx	r3
	mcr	p15, 0, r0, c7, c10, 5
	ldr	r2, [r6, #32]
	sub	r3, r2, #1
	str	r3, [r6, #32]
	b	.L804
.L799:
	ldr	r3, [r6, #28]
	cmp	r3, #1
	sub	r3, r3, #1
	str	r3, [r6, #28]
	bne	.L807
	ldr	r3, [r6]
	mov	r0, r6
	ldr	r3, [r3, #8]
	blx	r3
	mcr	p15, 0, r0, c7, c10, 5
	ldr	r2, [r6, #32]
	sub	r3, r2, #1
	str	r3, [r6, #32]
	b	.L806
.L826:
	ldr	r3, [r6]
	mov	r0, r6
	ldr	r3, [r3, #8]
	blx	r3
	add	r3, r6, #32
	mcr	p15, 0, r0, c7, c10, 5
	mcr	p15, 0, r0, c7, c10, 5
.L810:
	ldrex	r2, [r3]
	sub	r1, r2, #1
	strex	r0, r1, [r3]
	cmp	r0, #0
	bne	.L810
	mcr	p15, 0, r0, c7, c10, 5
.L804:
	cmp	r2, #1
	bne	.L786
	ldr	r3, [r6]
	mov	r0, r6
	ldr	r3, [r3, #12]
	blx	r3
	b	.L786
.L828:
	ldr	r3, [r6]
	mov	r0, r6
	ldr	r3, [r3, #8]
	blx	r3
	add	r3, r6, #32
	mcr	p15, 0, r0, c7, c10, 5
	mcr	p15, 0, r0, c7, c10, 5
.L808:
	ldrex	r2, [r3]
	sub	r1, r2, #1
	strex	r0, r1, [r3]
	cmp	r0, #0
	bne	.L808
	mcr	p15, 0, r0, c7, c10, 5
.L806:
	cmp	r2, #1
	bne	.L807
	ldr	r3, [r6]
	mov	r0, r6
	ldr	r3, [r3, #12]
	blx	r3
	b	.L807
.L825:
	ldr	r3, [r6]
	mov	r0, r6
	ldr	r3, [r3, #8]
	blx	r3
	add	r3, r6, #32
	mcr	p15, 0, r0, c7, c10, 5
	mcr	p15, 0, r0, c7, c10, 5
.L811:
	ldrex	r2, [r3]
	sub	r1, r2, #1
	strex	r0, r1, [r3]
	cmp	r0, #0
	bne	.L811
	mcr	p15, 0, r0, c7, c10, 5
.L803:
	cmp	r2, #1
	bne	.L780
	ldr	r3, [r6]
	mov	r0, r6
	ldr	r3, [r3, #12]
	blx	r3
	b	.L780
.L827:
	ldr	r3, [r6]
	mov	r0, r6
	ldr	r3, [r3, #8]
	blx	r3
	add	r3, r6, #32
	mcr	p15, 0, r0, c7, c10, 5
	mcr	p15, 0, r0, c7, c10, 5
.L809:
	ldrex	r2, [r3]
	sub	r1, r2, #1
	strex	r0, r1, [r3]
	cmp	r0, #0
	bne	.L809
	mcr	p15, 0, r0, c7, c10, 5
.L805:
	cmp	r2, #1
	bne	.L792
	ldr	r3, [r6]
	mov	r0, r6
	ldr	r3, [r3, #12]
	blx	r3
	b	.L792
.L830:
	.align	2
.L829:
	.word	_GLOBAL_OFFSET_TABLE_-(.LPIC77+8)
	.word	_ZL28__gthrw___pthread_key_createPjPFvPvE(GOT)
	.personality	__gxx_personality_v0
	.handlerdata
.LLSDA7954:
	.byte	0xff
	.byte	0xff
	.byte	0x1
	.uleb128 .LLSDACSE7954-.LLSDACSB7954
.LLSDACSB7954:
.LLSDACSE7954:
	.text
	.fnend
	.size	_ZN8asiodnp315DNP3ManagerImplD2Ev, .-_ZN8asiodnp315DNP3ManagerImplD2Ev
	.global	_ZN8asiodnp315DNP3ManagerImplD1Ev
	.set	_ZN8asiodnp315DNP3ManagerImplD1Ev,_ZN8asiodnp315DNP3ManagerImplD2Ev
	.align	2
	.global	_ZN8asiodnp315DNP3ManagerImpl12AddTLSClientERKNSt7__cxx1112basic_stringIcSt11char_traitsIcESaIcEEEjRKN7asiopal12ChannelRetryES8_S8_tRKNS9_9TLSConfigESt10shared_ptrINS_16IChannelListenerEERSt10error_code
	.syntax unified
	.arm
	.fpu vfp
	.type	_ZN8asiodnp315DNP3ManagerImpl12AddTLSClientERKNSt7__cxx1112basic_stringIcSt11char_traitsIcESaIcEEEjRKN7asiopal12ChannelRetryES8_S8_tRKNS9_9TLSConfigESt10shared_ptrINS_16IChannelListenerEERSt10error_code, %function
_ZN8asiodnp315DNP3ManagerImpl12AddTLSClientERKNSt7__cxx1112basic_stringIcSt11char_traitsIcESaIcEEEjRKN7asiopal12ChannelRetryES8_S8_tRKNS9_9TLSConfigESt10shared_ptrINS_16IChannelListenerEERSt10error_code:
	.fnstart
.LFB7990:
	@ args = 28, pretend = 0, frame = 0
	@ frame_needed = 0, uses_anonymous_args = 0
	str	lr, [sp, #-4]!
	mov	r1, #1
	ldr	r3, .L833
	ldr	ip, [sp, #28]
	ldr	r2, .L833+4
.LPIC78:
	add	r3, pc, r3
	str	r1, [ip]
	ldr	lr, [r3, r2]
	mov	r2, #0
	str	lr, [ip, #4]
	str	r2, [r0]
	str	r2, [r0, #4]
	ldr	pc, [sp], #4
.L834:
	.align	2
.L833:
	.word	_GLOBAL_OFFSET_TABLE_-(.LPIC78+8)
	.word	_ZN8asiodnp313ErrorCategory8instanceE(GOT)
	.cantunwind
	.fnend
	.size	_ZN8asiodnp315DNP3ManagerImpl12AddTLSClientERKNSt7__cxx1112basic_stringIcSt11char_traitsIcESaIcEEEjRKN7asiopal12ChannelRetryES8_S8_tRKNS9_9TLSConfigESt10shared_ptrINS_16IChannelListenerEERSt10error_code, .-_ZN8asiodnp315DNP3ManagerImpl12AddTLSClientERKNSt7__cxx1112basic_stringIcSt11char_traitsIcESaIcEEEjRKN7asiopal12ChannelRetryES8_S8_tRKNS9_9TLSConfigESt10shared_ptrINS_16IChannelListenerEERSt10error_code
	.align	2
	.global	_ZN8asiodnp315DNP3ManagerImpl12AddTLSServerERKNSt7__cxx1112basic_stringIcSt11char_traitsIcESaIcEEEjRKN7asiopal12ChannelRetryES8_tRKNS9_9TLSConfigESt10shared_ptrINS_16IChannelListenerEERSt10error_code
	.syntax unified
	.arm
	.fpu vfp
	.type	_ZN8asiodnp315DNP3ManagerImpl12AddTLSServerERKNSt7__cxx1112basic_stringIcSt11char_traitsIcESaIcEEEjRKN7asiopal12ChannelRetryES8_tRKNS9_9TLSConfigESt10shared_ptrINS_16IChannelListenerEERSt10error_code, %function
_ZN8asiodnp315DNP3ManagerImpl12AddTLSServerERKNSt7__cxx1112basic_stringIcSt11char_traitsIcESaIcEEEjRKN7asiopal12ChannelRetryES8_tRKNS9_9TLSConfigESt10shared_ptrINS_16IChannelListenerEERSt10error_code:
	.fnstart
.LFB8000:
	@ args = 24, pretend = 0, frame = 0
	@ frame_needed = 0, uses_anonymous_args = 0
	str	lr, [sp, #-4]!
	mov	r1, #1
	ldr	r3, .L837
	ldr	ip, [sp, #24]
	ldr	r2, .L837+4
.LPIC79:
	add	r3, pc, r3
	str	r1, [ip]
	ldr	lr, [r3, r2]
	mov	r2, #0
	str	lr, [ip, #4]
	str	r2, [r0]
	str	r2, [r0, #4]
	ldr	pc, [sp], #4
.L838:
	.align	2
.L837:
	.word	_GLOBAL_OFFSET_TABLE_-(.LPIC79+8)
	.word	_ZN8asiodnp313ErrorCategory8instanceE(GOT)
	.cantunwind
	.fnend
	.size	_ZN8asiodnp315DNP3ManagerImpl12AddTLSServerERKNSt7__cxx1112basic_stringIcSt11char_traitsIcESaIcEEEjRKN7asiopal12ChannelRetryES8_tRKNS9_9TLSConfigESt10shared_ptrINS_16IChannelListenerEERSt10error_code, .-_ZN8asiodnp315DNP3ManagerImpl12AddTLSServerERKNSt7__cxx1112basic_stringIcSt11char_traitsIcESaIcEEEjRKN7asiopal12ChannelRetryES8_tRKNS9_9TLSConfigESt10shared_ptrINS_16IChannelListenerEERSt10error_code
	.align	2
	.global	_ZN8asiodnp315DNP3ManagerImpl14CreateListenerENSt7__cxx1112basic_stringIcSt11char_traitsIcESaIcEEEN7openpal10LogFiltersEN7asiopal10IPEndpointERKNS9_9TLSConfigERKSt10shared_ptrINS_16IListenCallbacksEERSt10error_code
	.syntax unified
	.arm
	.fpu vfp
	.type	_ZN8asiodnp315DNP3ManagerImpl14CreateListenerENSt7__cxx1112basic_stringIcSt11char_traitsIcESaIcEEEN7openpal10LogFiltersEN7asiopal10IPEndpointERKNS9_9TLSConfigERKSt10shared_ptrINS_16IListenCallbacksEERSt10error_code, %function
_ZN8asiodnp315DNP3ManagerImpl14CreateListenerENSt7__cxx1112basic_stringIcSt11char_traitsIcESaIcEEEN7openpal10LogFiltersEN7asiopal10IPEndpointERKNS9_9TLSConfigERKSt10shared_ptrINS_16IListenCallbacksEERSt10error_code:
	.fnstart
.LFB8009:
	@ args = 16, pretend = 0, frame = 0
	@ frame_needed = 0, uses_anonymous_args = 0
	str	lr, [sp, #-4]!
	mov	r1, #1
	ldr	r3, .L841
	ldr	ip, [sp, #16]
	ldr	r2, .L841+4
.LPIC80:
	add	r3, pc, r3
	str	r1, [ip]
	ldr	lr, [r3, r2]
	mov	r2, #0
	str	lr, [ip, #4]
	str	r2, [r0]
	str	r2, [r0, #4]
	ldr	pc, [sp], #4
.L842:
	.align	2
.L841:
	.word	_GLOBAL_OFFSET_TABLE_-(.LPIC80+8)
	.word	_ZN8asiodnp313ErrorCategory8instanceE(GOT)
	.cantunwind
	.fnend
	.size	_ZN8asiodnp315DNP3ManagerImpl14CreateListenerENSt7__cxx1112basic_stringIcSt11char_traitsIcESaIcEEEN7openpal10LogFiltersEN7asiopal10IPEndpointERKNS9_9TLSConfigERKSt10shared_ptrINS_16IListenCallbacksEERSt10error_code, .-_ZN8asiodnp315DNP3ManagerImpl14CreateListenerENSt7__cxx1112basic_stringIcSt11char_traitsIcESaIcEEEN7openpal10LogFiltersEN7asiopal10IPEndpointERKNS9_9TLSConfigERKSt10shared_ptrINS_16IListenCallbacksEERSt10error_code
	.section	.text._ZNSt16_Sp_counted_baseILN9__gnu_cxx12_Lock_policyE1EE10_M_releaseEv,"axG",%progbits,_ZNSt16_Sp_counted_baseILN9__gnu_cxx12_Lock_policyE1EE10_M_releaseEv,comdat
	.align	2
	.weak	_ZNSt16_Sp_counted_baseILN9__gnu_cxx12_Lock_policyE1EE10_M_releaseEv
	.syntax unified
	.arm
	.fpu vfp
	.type	_ZNSt16_Sp_counted_baseILN9__gnu_cxx12_Lock_policyE1EE10_M_releaseEv, %function
_ZNSt16_Sp_counted_baseILN9__gnu_cxx12_Lock_policyE1EE10_M_releaseEv:
	.fnstart
.LFB9240:
	@ args = 0, pretend = 0, frame = 0
	@ frame_needed = 0, uses_anonymous_args = 0
	ldr	r3, .L855
	ldr	r2, .L855+4
.LPIC81:
	add	r3, pc, r3
	push	{r4, r5, r6, lr}
	mov	r4, r0
	ldr	r3, [r3, r2]
	cmp	r3, #0
	beq	.L844
	add	r3, r0, #28
	mcr	p15, 0, r0, c7, c10, 5
.L851:
	ldrex	r2, [r3]
	sub	r1, r2, #1
	strex	ip, r1, [r3]
	cmp	ip, #0
	bne	.L851
	cmp	r2, #1
	mcr	p15, 0, r0, c7, c10, 5
	popne	{r4, r5, r6, pc}
	mov	r5, r4
	ldr	r3, [r5], #32
	ldr	r3, [r3, #8]
	blx	r3
	mcr	p15, 0, r0, c7, c10, 5
	mcr	p15, 0, r0, c7, c10, 5
.L850:
	ldrex	r3, [r5]
	sub	r2, r3, #1
	strex	r1, r2, [r5]
	cmp	r1, #0
	bne	.L850
	mcr	p15, 0, r0, c7, c10, 5
.L849:
	cmp	r3, #1
	popne	{r4, r5, r6, pc}
	ldr	r3, [r4]
	mov	r0, r4
	pop	{r4, r5, r6, lr}
	ldr	r3, [r3, #12]
	bx	r3	@ indirect register sibling call
.L844:
	ldr	r3, [r0, #28]
	cmp	r3, #1
	sub	r3, r3, #1
	str	r3, [r0, #28]
	popne	{r4, r5, r6, pc}
	ldr	r3, [r0]
	ldr	r3, [r3, #8]
	blx	r3
	mcr	p15, 0, r0, c7, c10, 5
	ldr	r3, [r4, #32]
	sub	r2, r3, #1
	str	r2, [r4, #32]
	b	.L849
.L856:
	.align	2
.L855:
	.word	_GLOBAL_OFFSET_TABLE_-(.LPIC81+8)
	.word	_ZL28__gthrw___pthread_key_createPjPFvPvE(GOT)
	.cantunwind
	.fnend
	.size	_ZNSt16_Sp_counted_baseILN9__gnu_cxx12_Lock_policyE1EE10_M_releaseEv, .-_ZNSt16_Sp_counted_baseILN9__gnu_cxx12_Lock_policyE1EE10_M_releaseEv
	.text
	.align	2
	.global	_ZN8asiodnp315DNP3ManagerImplC2EjSt10shared_ptrIN7openpal11ILogHandlerEESt8functionIFvvEES7_
	.syntax unified
	.arm
	.fpu vfp
	.type	_ZN8asiodnp315DNP3ManagerImplC2EjSt10shared_ptrIN7openpal11ILogHandlerEESt8functionIFvvEES7_, %function
_ZN8asiodnp315DNP3ManagerImplC2EjSt10shared_ptrIN7openpal11ILogHandlerEESt8functionIFvvEES7_:
	.fnstart
.LFB7951:
	@ args = 4, pretend = 0, frame = 88
	@ frame_needed = 0, uses_anonymous_args = 0
	ldr	ip, .L954
	push	{r4, r5, r6, r7, r8, r9, r10, fp, lr}
	.save {r4, r5, r6, r7, r8, r9, r10, fp, lr}
.LPIC82:
	add	ip, pc, ip
	.pad #100
	sub	sp, sp, #100
	mov	r5, r0
	str	r1, [sp, #20]
	ldm	ip, {r0, r1}
	add	r9, sp, #72
	ldr	r8, .L954+4
	lsr	r6, r1, #16
	mov	r10, r3
	str	r0, [sp, #80]
	strh	r1, [sp, #84]	@ movhi
	add	r4, sp, #80
	mov	r1, r2
	mov	lr, #7
	mov	ip, #0
	mov	r0, r5
	mov	r2, r9
	mvn	r3, #0
	strb	r6, [sp, #86]
	str	r4, [sp, #72]
	str	lr, [sp, #76]
	strb	ip, [sp, #87]
.LPIC83:
	add	r8, pc, r8
.LEHB8:
	bl	_ZN7openpal6LoggerC1ERKSt10shared_ptrINS_11ILogHandlerEERKNSt7__cxx1112basic_stringIcSt11char_traitsIcESaIcEEENS_10LogFiltersE(PLT)
.LEHE8:
	ldr	r0, [sp, #72]
	cmp	r0, r4
	beq	.L858
	bl	_ZdlPv(PLT)
.L858:
	mov	r3, #0
	str	r3, [r5, #16]
	str	r3, [r5, #20]
	mov	r0, #48
	add	r3, r5, #16
	str	r3, [sp, #12]
.LEHB9:
	bl	_Znwj(PLT)
.LEHE9:
	ldr	r1, .L954+8
	mov	r7, r0
	mov	r3, #0
	mov	r0, #1
	str	r3, [r7, #4]
	str	r3, [r7, #8]
	str	r3, [r7, #12]
	str	r3, [r7, #16]
	str	r3, [r7, #20]
	str	r3, [r7, #24]
	str	r0, [r7, #28]
	str	r0, [r7, #32]
	ldr	r0, [r8, r1]
	ldr	r1, .L954+12
	mov	r2, r7
	add	r0, r0, #8
	str	r0, [r2], #36
	str	r3, [r2, #4]
	str	r3, [r2, #8]
	ldr	r3, [r8, r1]
	mov	r0, #36
	add	r3, r3, #8
	str	r3, [r7, #36]
	add	r6, r7, #40
.LEHB10:
	bl	_Znwj(PLT)
.LEHE10:
	add	r3, r0, #4
	mov	fp, r0
	mov	r1, #0
	mov	r0, r3
	str	r3, [sp, #24]
	bl	pthread_mutex_init(PLT)
	ldr	r3, .L954+16
	ldr	r3, [r8, r3]
	str	r3, [sp, #12]
	ldrb	r3, [r3]	@ zero_extendqisi2
	mcr	p15, 0, r0, c7, c10, 5
	tst	r3, #1
	mov	r4, r0
	beq	.L948
.L944:
	ldr	r3, .L954+20
	ldr	r3, [r8, r3]
	str	r3, [sp, #16]
.L860:
	cmp	r4, #0
	str	r4, [sp, #32]
	str	r3, [sp, #36]
	bne	.L949
	mov	r0, #144
	str	r6, [fp, #28]
.LEHB11:
	bl	_Znwj(PLT)
.LEHE11:
	ldr	r2, .L954+24
	mov	r3, #0
	str	r6, [r0, #12]
	str	r3, [r0, #4]
	str	r3, [r0, #8]
	str	r3, [r0, #16]
	ldr	r2, [r8, r2]
	mov	r4, r0
	add	r1, r0, #24
	add	r2, r2, #8
	mov	r0, r1
	str	r1, [sp, #28]
	strb	r3, [r4, #20]
	mov	r1, r3
	str	r2, [r4]
	bl	pthread_mutex_init(PLT)
	ldr	r3, [sp, #12]
	ldrb	r3, [r3]	@ zero_extendqisi2
	mcr	p15, 0, r0, c7, c10, 5
	tst	r3, #1
	mov	r6, r0
	beq	.L950
.L864:
	ldr	r3, [sp, #16]
	cmp	r6, #0
	str	r6, [sp, #40]
	str	r3, [sp, #44]
	bne	.L951
	mov	r1, r6
	str	r6, [r4, #96]
	add	r0, r4, #48
	bl	pthread_cond_init(PLT)
	ldr	r3, [sp, #12]
	ldrb	r3, [r3]	@ zero_extendqisi2
	mcr	p15, 0, r0, c7, c10, 5
	tst	r3, #1
	mov	r6, r0
	beq	.L952
.L868:
	ldr	r3, [sp, #16]
	cmp	r6, #0
	str	r6, [sp, #48]
	str	r3, [sp, #52]
	bne	.L953
	ldr	r2, .L954+28
	mov	r3, #1
	str	r6, [r4, #104]
	str	r6, [r4, #108]
	str	r6, [r4, #112]
	str	r6, [r4, #116]
	str	r6, [r4, #124]
	str	r6, [r4, #128]
	str	r6, [r4, #132]
	strb	r6, [r4, #136]
	strb	r6, [r4, #137]
	strb	r3, [r4, #120]
	str	r4, [fp, #32]
	ldr	r2, [r8, r2]
	ldr	r3, .L954+32
	str	r6, [r4, #16]
	stmib	r4, {r2, r6}
	ldr	r2, [r7]
	str	fp, [r7, #40]
	str	r4, [r7, #44]
	str	r7, [r5, #20]
	ldr	fp, [r8, r3]
	mov	r0, r7
	ldr	r3, [r2, #16]
	mov	r1, fp
	blx	r3
	ldr	r3, [r10, #8]
	str	r6, [sp, #64]
	cmp	r3, #0
	add	r6, r5, #24
	str	r0, [r5, #16]
	beq	.L872
	add	r4, sp, #56
	mov	r0, r4
	mov	r2, #2
	mov	r1, r10
.LEHB12:
	blx	r3
.LEHE12:
	ldr	r2, [r10, #12]
	ldr	r3, [r10, #8]
	str	r2, [sp, #68]
	str	r3, [sp, #64]
.L872:
	ldr	r3, [sp, #136]
	mov	r2, #0
	str	r2, [sp, #80]
	ldr	r3, [r3, #8]
	cmp	r3, r2
	beq	.L880
	mov	r2, #2
	ldr	r1, [sp, #136]
	mov	r0, r9
.LEHB13:
	blx	r3
.LEHE13:
	ldr	r3, [sp, #136]
	ldr	r2, [r3, #12]
	ldr	r3, [r3, #8]
	str	r2, [sp, #84]
	str	r3, [sp, #80]
.L880:
	add	r4, sp, #56
	str	r9, [sp, #4]
	ldr	r3, [sp, #20]
	add	r2, r5, #16
	str	r4, [sp]
	mov	r1, r5
	mov	r0, r6
.LEHB14:
	bl	_ZN7asiopal10ThreadPoolC1ERKN7openpal6LoggerERKSt10shared_ptrINS_2IOEEjSt8functionIFvvEESC_(PLT)
.LEHE14:
	ldr	r3, [sp, #80]
	cmp	r3, #0
	beq	.L888
	mov	r2, #3
	mov	r1, r9
	mov	r0, r9
	blx	r3
.L888:
	ldr	r3, [sp, #64]
	cmp	r3, #0
	beq	.L889
	mov	r2, #3
	mov	r1, r4
	mov	r0, r4
	blx	r3
.L889:
	mov	r3, #0
	str	r3, [r5, #144]
	str	r3, [r5, #148]
	mov	r0, #92
.LEHB15:
	bl	_Znwj(PLT)
.LEHE15:
	ldr	r2, .L954+36
	mov	r4, r0
	mov	r1, #0
	mov	r0, #1
	str	r1, [r4, #4]
	str	r1, [r4, #8]
	str	r1, [r4, #12]
	str	r1, [r4, #16]
	str	r1, [r4, #20]
	str	r1, [r4, #24]
	str	r0, [r4, #28]
	str	r0, [r4, #32]
	ldr	r3, [r8, r2]
	mov	r6, r4
	add	r3, r3, #8
	str	r3, [r6], #36
	mov	r2, #56
	mov	r0, r6
	bl	memset(PLT)
	ldr	r3, .L954+40
	add	r2, r4, #72
	mov	r1, fp
	ldr	r3, [r8, r3]
	mov	r0, fp
	add	r3, r3, #8
	str	r4, [r5, #148]
	str	r3, [r4, #36]
	str	r2, [r4, #80]
	str	r2, [r4, #84]
	bl	_ZNKSt9type_infoeqERKS_(PLT)
	cmp	r0, #0
	movne	r0, r6
	moveq	r0, #0
	str	r0, [r5, #144]
	mov	r0, r5
	add	sp, sp, #100
	@ sp needed
	pop	{r4, r5, r6, r7, r8, r9, r10, fp, pc}
.L948:
	ldr	r0, [sp, #12]
	bl	__cxa_guard_acquire(PLT)
	cmp	r0, #0
	beq	.L944
	ldr	r0, [sp, #12]
	bl	__cxa_guard_release(PLT)
	ldr	r3, .L954+20
	ldr	r1, .L954+44
	ldr	r2, .L954+48
	ldr	r3, [r8, r3]
	ldr	r1, [r8, r1]
	mov	r0, r3
.LPIC84:
	add	r2, pc, r2
	str	r3, [sp, #16]
	bl	__aeabi_atexit(PLT)
	ldr	r3, [sp, #16]
	b	.L860
.L950:
	ldr	r0, [sp, #12]
	bl	__cxa_guard_acquire(PLT)
	cmp	r0, #0
	beq	.L864
	ldr	r0, [sp, #12]
	bl	__cxa_guard_release(PLT)
	ldr	r3, .L954+44
	ldr	r2, .L954+52
	ldr	r0, [sp, #16]
.LPIC86:
	add	r2, pc, r2
	ldr	r1, [r8, r3]
	bl	__aeabi_atexit(PLT)
	b	.L864
.L952:
	ldr	r0, [sp, #12]
	bl	__cxa_guard_acquire(PLT)
	cmp	r0, #0
	beq	.L868
	ldr	r0, [sp, #12]
	bl	__cxa_guard_release(PLT)
	ldr	r3, .L954+44
	ldr	r2, .L954+56
	ldr	r0, [sp, #16]
.LPIC88:
	add	r2, pc, r2
	ldr	r1, [r8, r3]
	bl	__aeabi_atexit(PLT)
	b	.L868
.L951:
	ldr	r1, .L954+60
	add	r0, sp, #40
.LPIC87:
	add	r1, pc, r1
.LEHB16:
	bl	_ZN4asio6detail14do_throw_errorERKSt10error_codePKc(PLT)
.LEHE16:
.L906:
.L874:
	mov	r0, r4
	mov	r1, #144
	bl	_ZdlPvj(PLT)
.L875:
	ldr	r0, [sp, #24]
	bl	pthread_mutex_destroy(PLT)
.L876:
	mov	r0, fp
	mov	r1, #36
	bl	_ZdlPvj(PLT)
.L877:
	mov	r0, r7
	bl	_ZdlPv(PLT)
.L878:
	mov	r0, r5
	bl	_ZN7openpal6LoggerD1Ev(PLT)
.L945:
.LEHB17:
	bl	__cxa_end_cleanup(PLT)
.LEHE17:
.L949:
	ldr	r1, .L954+64
	add	r0, sp, #32
.LPIC85:
	add	r1, pc, r1
.LEHB18:
	bl	_ZN4asio6detail14do_throw_errorERKSt10error_codePKc(PLT)
.LEHE18:
.L904:
	b	.L876
.L953:
	ldr	r1, .L954+68
	add	r0, sp, #48
.LPIC89:
	add	r1, pc, r1
.LEHB19:
	bl	_ZN4asio6detail14do_throw_errorERKSt10error_codePKc(PLT)
.LEHE19:
.L907:
	ldr	r0, [sp, #28]
	bl	pthread_mutex_destroy(PLT)
	b	.L874
.L908:
	ldr	r3, [sp, #64]
	cmp	r3, #0
	beq	.L883
	mov	r2, #3
	mov	r1, r4
	mov	r0, r4
	blx	r3
.L883:
	ldr	r0, [r5, #20]
	cmp	r0, #0
	beq	.L878
	bl	_ZNSt16_Sp_counted_baseILN9__gnu_cxx12_Lock_policyE1EE10_M_releaseEv(PLT)
	b	.L878
.L900:
	b	.L878
.L903:
	b	.L877
.L901:
	ldr	r3, [sp, #80]
	cmp	r3, #0
	beq	.L887
	mov	r2, #3
	mov	r1, r9
	mov	r0, r9
	blx	r3
.L887:
	ldr	r3, [sp, #64]
	cmp	r3, #0
	beq	.L883
	add	r1, sp, #56
	mov	r0, r1
	mov	r2, #3
	blx	r3
	b	.L883
.L899:
	ldr	r0, [sp, #72]
	add	r9, r9, #8
	cmp	r0, r9
	beq	.L945
	bl	_ZdlPv(PLT)
	b	.L945
.L902:
	mov	r0, r6
	bl	_ZN7asiopal10ThreadPoolD1Ev(PLT)
	b	.L883
.L905:
	b	.L875
.L909:
	ldr	r3, [sp, #80]
	cmp	r3, #0
	beq	.L887
	mov	r2, #3
	mov	r1, r9
	mov	r0, r9
	blx	r3
	b	.L887
.L955:
	.align	2
.L954:
	.word	.LC21-(.LPIC82+8)
	.word	_GLOBAL_OFFSET_TABLE_-(.LPIC83+8)
	.word	_ZTVSt23_Sp_counted_ptr_inplaceIN7asiopal2IOESaIS1_ELN9__gnu_cxx12_Lock_policyE1EE(GOT)
	.word	_ZTVN7asiopal2IOE(GOT)
	.word	_ZGVZN4asio15system_categoryEvE8instance(GOT)
	.word	_ZZN4asio15system_categoryEvE8instance(GOT)
	.word	_ZTVN4asio6detail15task_io_serviceE(GOT)
	.word	_ZTIN4asio6detail14typeid_wrapperINS0_15task_io_serviceEEE(GOT)
	.word	_ZTISt19_Sp_make_shared_tag(GOT)
	.word	_ZTVSt23_Sp_counted_ptr_inplaceIN7asiopal15ResourceManagerESaIS1_ELN9__gnu_cxx12_Lock_policyE1EE(GOT)
	.word	_ZTVN7asiopal15ResourceManagerE(GOT)
	.word	_ZN4asio6detail15system_categoryD1Ev(GOT)
	.word	__dso_handle-(.LPIC84+8)
	.word	__dso_handle-(.LPIC86+8)
	.word	__dso_handle-(.LPIC88+8)
	.word	.LC22-(.LPIC87+8)
	.word	.LC22-(.LPIC85+8)
	.word	.LC23-(.LPIC89+8)
	.personality	__gxx_personality_v0
	.handlerdata
.LLSDA7951:
	.byte	0xff
	.byte	0xff
	.byte	0x1
	.uleb128 .LLSDACSE7951-.LLSDACSB7951
.LLSDACSB7951:
	.uleb128 .LEHB8-.LFB7951
	.uleb128 .LEHE8-.LEHB8
	.uleb128 .L899-.LFB7951
	.uleb128 0
	.uleb128 .LEHB9-.LFB7951
	.uleb128 .LEHE9-.LEHB9
	.uleb128 .L900-.LFB7951
	.uleb128 0
	.uleb128 .LEHB10-.LFB7951
	.uleb128 .LEHE10-.LEHB10
	.uleb128 .L903-.LFB7951
	.uleb128 0
	.uleb128 .LEHB11-.LFB7951
	.uleb128 .LEHE11-.LEHB11
	.uleb128 .L905-.LFB7951
	.uleb128 0
	.uleb128 .LEHB12-.LFB7951
	.uleb128 .LEHE12-.LEHB12
	.uleb128 .L908-.LFB7951
	.uleb128 0
	.uleb128 .LEHB13-.LFB7951
	.uleb128 .LEHE13-.LEHB13
	.uleb128 .L909-.LFB7951
	.uleb128 0
	.uleb128 .LEHB14-.LFB7951
	.uleb128 .LEHE14-.LEHB14
	.uleb128 .L901-.LFB7951
	.uleb128 0
	.uleb128 .LEHB15-.LFB7951
	.uleb128 .LEHE15-.LEHB15
	.uleb128 .L902-.LFB7951
	.uleb128 0
	.uleb128 .LEHB16-.LFB7951
	.uleb128 .LEHE16-.LEHB16
	.uleb128 .L906-.LFB7951
	.uleb128 0
	.uleb128 .LEHB17-.LFB7951
	.uleb128 .LEHE17-.LEHB17
	.uleb128 0
	.uleb128 0
	.uleb128 .LEHB18-.LFB7951
	.uleb128 .LEHE18-.LEHB18
	.uleb128 .L904-.LFB7951
	.uleb128 0
	.uleb128 .LEHB19-.LFB7951
	.uleb128 .LEHE19-.LEHB19
	.uleb128 .L907-.LFB7951
	.uleb128 0
.LLSDACSE7951:
	.text
	.fnend
	.size	_ZN8asiodnp315DNP3ManagerImplC2EjSt10shared_ptrIN7openpal11ILogHandlerEESt8functionIFvvEES7_, .-_ZN8asiodnp315DNP3ManagerImplC2EjSt10shared_ptrIN7openpal11ILogHandlerEESt8functionIFvvEES7_
	.global	_ZN8asiodnp315DNP3ManagerImplC1EjSt10shared_ptrIN7openpal11ILogHandlerEESt8functionIFvvEES7_
	.set	_ZN8asiodnp315DNP3ManagerImplC1EjSt10shared_ptrIN7openpal11ILogHandlerEESt8functionIFvvEES7_,_ZN8asiodnp315DNP3ManagerImplC2EjSt10shared_ptrIN7openpal11ILogHandlerEESt8functionIFvvEES7_
	.section	.text._ZNSt8_Rb_treeIPN8opendnp317IScheduleCallbackES2_St9_IdentityIS2_ESt4lessIS2_ESaIS2_EE8_M_eraseEPSt13_Rb_tree_nodeIS2_E,"axG",%progbits,_ZNSt8_Rb_treeIPN8opendnp317IScheduleCallbackES2_St9_IdentityIS2_ESt4lessIS2_ESaIS2_EE8_M_eraseEPSt13_Rb_tree_nodeIS2_E,comdat
	.align	2
	.weak	_ZNSt8_Rb_treeIPN8opendnp317IScheduleCallbackES2_St9_IdentityIS2_ESt4lessIS2_ESaIS2_EE8_M_eraseEPSt13_Rb_tree_nodeIS2_E
	.syntax unified
	.arm
	.fpu vfp
	.type	_ZNSt8_Rb_treeIPN8opendnp317IScheduleCallbackES2_St9_IdentityIS2_ESt4lessIS2_ESaIS2_EE8_M_eraseEPSt13_Rb_tree_nodeIS2_E, %function
_ZNSt8_Rb_treeIPN8opendnp317IScheduleCallbackES2_St9_IdentityIS2_ESt4lessIS2_ESaIS2_EE8_M_eraseEPSt13_Rb_tree_nodeIS2_E:
	.fnstart
.LFB9576:
	@ args = 0, pretend = 0, frame = 16
	@ frame_needed = 0, uses_anonymous_args = 0
	push	{r4, r5, r6, r7, r8, r9, r10, fp, lr}
	sub	sp, sp, #20
	subs	r3, r1, #0
	str	r3, [sp, #12]
	beq	.L956
	mov	r4, r0
.L960:
	ldr	r7, [r3, #12]
	cmp	r7, #0
	strne	r7, [sp, #4]
	movne	r3, r7
	beq	.L962
.L963:
	ldr	r8, [r3, #12]
	cmp	r8, #0
	strne	r8, [sp, #8]
	movne	r3, r8
	beq	.L965
.L966:
	ldr	r9, [r3, #12]
	cmp	r9, #0
	beq	.L968
.L969:
	ldr	r10, [r9, #12]
	cmp	r10, #0
	beq	.L971
.L972:
	ldr	fp, [r10, #12]
	cmp	fp, #0
	beq	.L974
.L975:
	ldr	r6, [fp, #12]
	cmp	r6, #0
	beq	.L977
.L978:
	ldr	r5, [r6, #12]
	cmp	r5, #0
	beq	.L980
.L981:
	ldr	r3, [r5, #12]
	cmp	r3, #0
	movne	r7, r3
	beq	.L982
.L983:
	ldr	r1, [r7, #12]
	mov	r0, r4
	bl	_ZNSt8_Rb_treeIPN8opendnp317IScheduleCallbackES2_St9_IdentityIS2_ESt4lessIS2_ESaIS2_EE8_M_eraseEPSt13_Rb_tree_nodeIS2_E(PLT)
	ldr	r8, [r7, #8]
	mov	r0, r7
	bl	_ZdlPv(PLT)
	subs	r7, r8, #0
	bne	.L983
.L982:
	ldr	r7, [r5, #8]
	mov	r0, r5
	bl	_ZdlPv(PLT)
	subs	r5, r7, #0
	bne	.L981
.L980:
	ldr	r5, [r6, #8]
	mov	r0, r6
	bl	_ZdlPv(PLT)
	subs	r6, r5, #0
	bne	.L978
.L977:
	ldr	r5, [fp, #8]
	mov	r0, fp
	bl	_ZdlPv(PLT)
	subs	fp, r5, #0
	bne	.L975
.L974:
	ldr	r5, [r10, #8]
	mov	r0, r10
	bl	_ZdlPv(PLT)
	subs	r10, r5, #0
	bne	.L972
.L971:
	ldr	r5, [r9, #8]
	mov	r0, r9
	bl	_ZdlPv(PLT)
	subs	r9, r5, #0
	bne	.L969
	ldr	r3, [sp, #8]
.L968:
	ldr	r5, [r3, #8]
	mov	r0, r3
	bl	_ZdlPv(PLT)
	subs	r3, r5, #0
	str	r3, [sp, #8]
	bne	.L966
	ldr	r3, [sp, #4]
.L965:
	ldr	r5, [r3, #8]
	mov	r0, r3
	bl	_ZdlPv(PLT)
	subs	r3, r5, #0
	str	r3, [sp, #4]
	bne	.L963
	ldr	r3, [sp, #12]
.L962:
	ldr	r5, [r3, #8]
	mov	r0, r3
	bl	_ZdlPv(PLT)
	subs	r3, r5, #0
	str	r3, [sp, #12]
	bne	.L960
.L956:
	add	sp, sp, #20
	@ sp needed
	pop	{r4, r5, r6, r7, r8, r9, r10, fp, pc}
	.cantunwind
	.fnend
	.size	_ZNSt8_Rb_treeIPN8opendnp317IScheduleCallbackES2_St9_IdentityIS2_ESt4lessIS2_ESaIS2_EE8_M_eraseEPSt13_Rb_tree_nodeIS2_E, .-_ZNSt8_Rb_treeIPN8opendnp317IScheduleCallbackES2_St9_IdentityIS2_ESt4lessIS2_ESaIS2_EE8_M_eraseEPSt13_Rb_tree_nodeIS2_E
	.section	.text._ZN8asiodnp39IOHandlerD2Ev,"axG",%progbits,_ZN8asiodnp39IOHandlerD5Ev,comdat
	.align	2
	.weak	_ZN8asiodnp39IOHandlerD2Ev
	.syntax unified
	.arm
	.fpu vfp
	.type	_ZN8asiodnp39IOHandlerD2Ev, %function
_ZN8asiodnp39IOHandlerD2Ev:
	.fnstart
.LFB7832:
	@ args = 0, pretend = 0, frame = 24
	@ frame_needed = 0, uses_anonymous_args = 0
	push	{r4, r5, r6, r7, r8, r9, r10, fp, lr}
	mov	r9, r0
	ldr	fp, .L1204
	ldr	r3, .L1204+4
.LPIC98:
	add	fp, pc, fp
	ldr	r1, .L1204+8
	ldr	r3, [fp, r3]
	ldr	r0, [r0, #536]
	add	ip, r3, #8
	add	r3, r3, #52
	str	ip, [r9]
	str	r3, [r9, #4]
	ldr	r3, [fp, r1]
	cmp	r0, #0
	add	r3, r3, #8
	sub	sp, sp, #28
	str	r3, [r9, #504]
	beq	.L1013
	ldr	r5, [r9, #572]
	ldr	r4, [r9, #556]
	add	r5, r5, #4
	cmp	r4, r5
	bcs	.L1014
.L1015:
	ldr	r0, [r4], #4
	bl	_ZdlPv(PLT)
	cmp	r5, r4
	bhi	.L1015
	ldr	r0, [r9, #536]
.L1014:
	bl	_ZdlPv(PLT)
.L1013:
	ldr	r1, [r9, #520]
	add	r0, r9, #512
	bl	_ZNSt8_Rb_treeIPN8opendnp317IScheduleCallbackES2_St9_IdentityIS2_ESt4lessIS2_ESaIS2_EE8_M_eraseEPSt13_Rb_tree_nodeIS2_E(PLT)
	ldr	r4, [r9, #500]
	cmp	r4, #0
	beq	.L1017
	ldr	r3, .L1204+12
	ldr	r3, [fp, r3]
	cmp	r3, #0
	beq	.L1018
	add	r3, r4, #28
	mcr	p15, 0, r0, c7, c10, 5
.L1156:
	ldrex	r1, [r3]
	sub	r2, r1, #1
	strex	r0, r2, [r3]
	cmp	r0, #0
	bne	.L1156
	cmp	r1, #1
	mcr	p15, 0, r0, c7, c10, 5
	beq	.L1181
.L1017:
	ldr	r4, [r9, #132]
	cmp	r4, #0
	beq	.L1023
	ldr	r3, .L1204+12
	ldr	r3, [fp, r3]
	cmp	r3, #0
	beq	.L1024
	add	r3, r4, #28
	mcr	p15, 0, r0, c7, c10, 5
.L1155:
	ldrex	r1, [r3]
	sub	r2, r1, #1
	strex	r0, r2, [r3]
	cmp	r0, #0
	bne	.L1155
	cmp	r1, #1
	mcr	p15, 0, r0, c7, c10, 5
	beq	.L1182
.L1023:
	ldr	r4, [r9, #124]
	cmp	r4, #0
	beq	.L1029
	ldr	r3, .L1204+12
	ldr	r3, [fp, r3]
	cmp	r3, #0
	beq	.L1030
	add	r3, r4, #28
	mcr	p15, 0, r0, c7, c10, 5
.L1154:
	ldrex	r1, [r3]
	sub	r2, r1, #1
	strex	r0, r2, [r3]
	cmp	r0, #0
	bne	.L1154
	cmp	r1, #1
	mcr	p15, 0, r0, c7, c10, 5
	beq	.L1183
.L1029:
	ldr	r3, [r9, #100]
	ldr	r2, [r9, #116]
	add	r8, r3, #4
	str	r3, [sp, #16]
	ldr	r3, [r9, #96]
	ldr	r6, [r9, #88]
	str	r3, [sp, #12]
	ldr	r3, [r9, #104]
	cmp	r2, r8
	strhi	r6, [sp, #20]
	str	r2, [sp, #8]
	str	r3, [sp, #4]
	ldr	r7, [r9, #108]
	movhi	r10, r2
	movhi	r6, fp
	bls	.L1044
.L1045:
	ldr	r4, [r8], #4
	add	fp, r4, #512
	b	.L1043
.L1186:
	add	r3, r5, #28
	mcr	p15, 0, r0, c7, c10, 5
.L1153:
	ldrex	r2, [r3]
	sub	r1, r2, #1
	strex	r0, r1, [r3]
	cmp	r0, #0
	bne	.L1153
	cmp	r2, #1
	mcr	p15, 0, r0, c7, c10, 5
	beq	.L1184
.L1038:
	add	r4, r4, #16
	cmp	r4, fp
	beq	.L1185
.L1043:
	ldr	r5, [r4, #12]
	cmp	r5, #0
	beq	.L1038
	ldr	r3, .L1204+12
	ldr	r3, [r6, r3]
	cmp	r3, #0
	bne	.L1186
	ldr	r3, [r5, #28]
	cmp	r3, #1
	sub	r3, r3, #1
	str	r3, [r5, #28]
	bne	.L1038
	ldr	r3, [r5]
	mov	r0, r5
	ldr	r3, [r3, #8]
	blx	r3
	mcr	p15, 0, r0, c7, c10, 5
	ldr	r2, [r5, #32]
	sub	r3, r2, #1
	str	r3, [r5, #32]
.L1111:
	cmp	r2, #1
	bne	.L1038
	ldr	r3, [r5]
	mov	r0, r5
	add	r4, r4, #16
	ldr	r3, [r3, #12]
	blx	r3
	cmp	r4, fp
	bne	.L1043
.L1185:
	cmp	r10, r8
	bhi	.L1045
	mov	fp, r6
	ldr	r2, [sp, #8]
	ldr	r6, [sp, #20]
.L1044:
	ldr	r3, [sp, #16]
	cmp	r3, r2
	beq	.L1187
	ldr	r3, [sp, #12]
	cmp	r6, r3
	movne	r5, r3
	bne	.L1059
	b	.L1058
.L1189:
	add	r3, r4, #28
	mcr	p15, 0, r0, c7, c10, 5
.L1152:
	ldrex	r2, [r3]
	sub	r1, r2, #1
	strex	r0, r1, [r3]
	cmp	r0, #0
	bne	.L1152
	cmp	r2, #1
	mcr	p15, 0, r0, c7, c10, 5
	beq	.L1188
.L1053:
	add	r6, r6, #16
	cmp	r5, r6
	beq	.L1058
.L1059:
	ldr	r4, [r6, #12]
	cmp	r4, #0
	beq	.L1053
	ldr	r3, .L1204+12
	ldr	r3, [fp, r3]
	cmp	r3, #0
	bne	.L1189
	ldr	r3, [r4, #28]
	cmp	r3, #1
	sub	r3, r3, #1
	str	r3, [r4, #28]
	bne	.L1053
	ldr	r3, [r4]
	mov	r0, r4
	ldr	r3, [r3, #8]
	blx	r3
	mcr	p15, 0, r0, c7, c10, 5
	ldr	r2, [r4, #32]
	sub	r3, r2, #1
	cmp	r2, #1
	str	r3, [r4, #32]
	bne	.L1053
	ldr	r3, [r4]
	mov	r0, r4
	ldr	r3, [r3, #12]
	blx	r3
.L1201:
	add	r6, r6, #16
	cmp	r5, r6
	bne	.L1059
.L1058:
	ldr	r3, [sp, #4]
	cmp	r3, r7
	movne	r5, r3
	bne	.L1066
	b	.L1050
.L1191:
	add	r3, r4, #28
	mcr	p15, 0, r0, c7, c10, 5
.L1151:
	ldrex	r2, [r3]
	sub	r1, r2, #1
	strex	r0, r1, [r3]
	cmp	r0, #0
	bne	.L1151
	cmp	r2, #1
	mcr	p15, 0, r0, c7, c10, 5
	beq	.L1190
.L1061:
	add	r7, r7, #16
	cmp	r5, r7
	beq	.L1050
.L1066:
	ldr	r4, [r7, #12]
	cmp	r4, #0
	beq	.L1061
	ldr	r3, .L1204+12
	ldr	r3, [fp, r3]
	cmp	r3, #0
	bne	.L1191
	ldr	r3, [r4, #28]
	cmp	r3, #1
	sub	r3, r3, #1
	str	r3, [r4, #28]
	bne	.L1061
	ldr	r3, [r4]
	mov	r0, r4
	ldr	r3, [r3, #8]
	blx	r3
	mcr	p15, 0, r0, c7, c10, 5
	ldr	r2, [r4, #32]
	sub	r3, r2, #1
	cmp	r2, #1
	str	r3, [r4, #32]
	bne	.L1061
	ldr	r3, [r4]
	mov	r0, r4
	ldr	r3, [r3, #12]
	blx	r3
.L1200:
	add	r7, r7, #16
	cmp	r5, r7
	bne	.L1066
.L1050:
	ldr	r0, [r9, #80]
	cmp	r0, #0
	beq	.L1048
	ldr	r5, [r9, #116]
	ldr	r4, [r9, #100]
	add	r5, r5, #4
	cmp	r4, r5
	bcs	.L1074
.L1075:
	ldr	r0, [r4], #4
	bl	_ZdlPv(PLT)
	cmp	r5, r4
	bhi	.L1075
	ldr	r0, [r9, #80]
.L1074:
	bl	_ZdlPv(PLT)
.L1048:
	ldr	r4, [r9, #68]
	ldr	r6, [r9, #72]
	cmp	r4, r6
	bne	.L1083
	b	.L1076
.L1194:
	add	r3, r5, #28
	mcr	p15, 0, r0, c7, c10, 5
.L1149:
	ldrex	r2, [r3]
	sub	r1, r2, #1
	strex	r0, r1, [r3]
	cmp	r0, #0
	bne	.L1149
	cmp	r2, #1
	mcr	p15, 0, r0, c7, c10, 5
	beq	.L1192
.L1078:
	add	r4, r4, #16
	cmp	r6, r4
	beq	.L1193
.L1083:
	ldr	r5, [r4, #12]
	cmp	r5, #0
	beq	.L1078
	ldr	r3, .L1204+12
	ldr	r3, [fp, r3]
	cmp	r3, #0
	bne	.L1194
	ldr	r3, [r5, #28]
	cmp	r3, #1
	sub	r3, r3, #1
	str	r3, [r5, #28]
	bne	.L1078
	ldr	r3, [r5]
	mov	r0, r5
	ldr	r3, [r3, #8]
	blx	r3
	mcr	p15, 0, r0, c7, c10, 5
	ldr	r3, [r5, #32]
	sub	r2, r3, #1
	cmp	r3, #1
	str	r2, [r5, #32]
	bne	.L1078
	ldr	r3, [r5]
	mov	r0, r5
	ldr	r3, [r3, #12]
	blx	r3
.L1199:
	add	r4, r4, #16
	cmp	r6, r4
	bne	.L1083
.L1193:
	ldr	r6, [r9, #68]
.L1076:
	cmp	r6, #0
	beq	.L1084
	mov	r0, r6
	bl	_ZdlPv(PLT)
.L1084:
	ldr	r4, [r9, #36]
	cmp	r4, #0
	beq	.L1086
	ldr	r3, .L1204+12
	ldr	r3, [fp, r3]
	cmp	r3, #0
	beq	.L1087
	add	r3, r4, #28
	mcr	p15, 0, r0, c7, c10, 5
.L1148:
	ldrex	r1, [r3]
	sub	r2, r1, #1
	strex	r0, r2, [r3]
	cmp	r0, #0
	bne	.L1148
	cmp	r1, #1
	mcr	p15, 0, r0, c7, c10, 5
	beq	.L1195
.L1086:
	ldr	r4, [r9, #28]
	cmp	r4, #0
	beq	.L1092
	ldr	r3, .L1204+12
	ldr	r3, [fp, r3]
	cmp	r3, #0
	beq	.L1093
	add	r3, r4, #28
	mcr	p15, 0, r0, c7, c10, 5
.L1147:
	ldrex	r1, [r3]
	sub	r2, r1, #1
	strex	r0, r2, [r3]
	cmp	r0, #0
	bne	.L1147
	cmp	r1, #1
	mcr	p15, 0, r0, c7, c10, 5
	beq	.L1196
.L1092:
	ldr	r4, [r9, #20]
	cmp	r4, #0
	beq	.L1098
	ldr	r3, .L1204+12
	ldr	r3, [fp, r3]
	cmp	r3, #0
	beq	.L1099
	add	r3, r4, #28
	mcr	p15, 0, r0, c7, c10, 5
.L1146:
	ldrex	r1, [r3]
	sub	r2, r1, #1
	strex	r0, r2, [r3]
	cmp	r0, #0
	bne	.L1146
	cmp	r1, #1
	mcr	p15, 0, r0, c7, c10, 5
	beq	.L1197
.L1098:
	ldr	r0, [r9, #12]
	cmp	r0, #0
	beq	.L1121
	ldr	r3, .L1204+12
	ldr	r3, [fp, r3]
	cmp	r3, #0
	beq	.L1105
	add	r2, r0, #32
	mcr	p15, 0, r0, c7, c10, 5
.L1145:
	ldrex	r3, [r2]
	sub	r1, r3, #1
	strex	ip, r1, [r2]
	cmp	ip, #0
	bne	.L1145
	cmp	r3, #1
	mcr	p15, 0, r0, c7, c10, 5
	beq	.L1198
.L1121:
	mov	r0, r9
	add	sp, sp, #28
	@ sp needed
	pop	{r4, r5, r6, r7, r8, r9, r10, fp, pc}
.L1184:
	ldr	r3, [r5]
	mov	r0, r5
	ldr	r3, [r3, #8]
	blx	r3
	add	r3, r5, #32
	mcr	p15, 0, r0, c7, c10, 5
	mcr	p15, 0, r0, c7, c10, 5
.L1141:
	ldrex	r2, [r3]
	sub	r1, r2, #1
	strex	r0, r1, [r3]
	cmp	r0, #0
	bne	.L1141
	mcr	p15, 0, r0, c7, c10, 5
	b	.L1111
.L1192:
	ldr	r3, [r5]
	mov	r0, r5
	ldr	r3, [r3, #8]
	blx	r3
	add	r2, r5, #32
	mcr	p15, 0, r0, c7, c10, 5
	mcr	p15, 0, r0, c7, c10, 5
.L1137:
	ldrex	r3, [r2]
	sub	r1, r3, #1
	strex	r0, r1, [r2]
	cmp	r0, #0
	bne	.L1137
	cmp	r3, #1
	mcr	p15, 0, r0, c7, c10, 5
	bne	.L1078
	ldr	r3, [r5]
	mov	r0, r5
	ldr	r3, [r3, #12]
	blx	r3
	b	.L1199
.L1190:
	ldr	r3, [r4]
	mov	r0, r4
	ldr	r3, [r3, #8]
	blx	r3
	add	r3, r4, #32
	mcr	p15, 0, r0, c7, c10, 5
	mcr	p15, 0, r0, c7, c10, 5
.L1139:
	ldrex	r2, [r3]
	sub	r1, r2, #1
	strex	r0, r1, [r3]
	cmp	r0, #0
	bne	.L1139
	cmp	r2, #1
	mcr	p15, 0, r0, c7, c10, 5
	bne	.L1061
	ldr	r3, [r4]
	mov	r0, r4
	ldr	r3, [r3, #12]
	blx	r3
	b	.L1200
.L1188:
	ldr	r3, [r4]
	mov	r0, r4
	ldr	r3, [r3, #8]
	blx	r3
	add	r3, r4, #32
	mcr	p15, 0, r0, c7, c10, 5
	mcr	p15, 0, r0, c7, c10, 5
.L1140:
	ldrex	r2, [r3]
	sub	r1, r2, #1
	strex	r0, r1, [r3]
	cmp	r0, #0
	bne	.L1140
	cmp	r2, #1
	mcr	p15, 0, r0, c7, c10, 5
	bne	.L1053
	ldr	r3, [r4]
	mov	r0, r4
	ldr	r3, [r3, #12]
	blx	r3
	b	.L1201
.L1105:
	ldr	r3, [r0, #32]
	sub	r2, r3, #1
	cmp	r3, #1
	str	r2, [r0, #32]
	bne	.L1121
.L1198:
	mcr	p15, 0, r0, c7, c10, 5
	ldr	r3, [r0]
	ldr	r3, [r3, #12]
	blx	r3
	mov	r0, r9
	add	sp, sp, #28
	@ sp needed
	pop	{r4, r5, r6, r7, r8, r9, r10, fp, pc}
.L1099:
	ldr	r3, [r4, #28]
	cmp	r3, #1
	sub	r3, r3, #1
	str	r3, [r4, #28]
	bne	.L1098
	ldr	r3, [r4]
	mov	r0, r4
	ldr	r3, [r3, #8]
	blx	r3
	mcr	p15, 0, r0, c7, c10, 5
	ldr	r3, [r4, #32]
	sub	r1, r3, #1
	str	r1, [r4, #32]
	b	.L1118
.L1030:
	ldr	r3, [r4, #28]
	cmp	r3, #1
	sub	r3, r3, #1
	str	r3, [r4, #28]
	bne	.L1029
	ldr	r3, [r4]
	mov	r0, r4
	ldr	r3, [r3, #8]
	blx	r3
	mcr	p15, 0, r0, c7, c10, 5
	ldr	r3, [r4, #32]
	sub	r1, r3, #1
	str	r1, [r4, #32]
	b	.L1110
.L1087:
	ldr	r3, [r4, #28]
	cmp	r3, #1
	sub	r3, r3, #1
	str	r3, [r4, #28]
	bne	.L1086
	ldr	r3, [r4]
	mov	r0, r4
	ldr	r3, [r3, #8]
	blx	r3
	mcr	p15, 0, r0, c7, c10, 5
	ldr	r3, [r4, #32]
	sub	r1, r3, #1
	str	r1, [r4, #32]
	b	.L1116
.L1093:
	ldr	r3, [r4, #28]
	cmp	r3, #1
	sub	r3, r3, #1
	str	r3, [r4, #28]
	bne	.L1092
	ldr	r3, [r4]
	mov	r0, r4
	ldr	r3, [r3, #8]
	blx	r3
	mcr	p15, 0, r0, c7, c10, 5
	ldr	r3, [r4, #32]
	sub	r1, r3, #1
	str	r1, [r4, #32]
	b	.L1117
.L1024:
	ldr	r3, [r4, #28]
	cmp	r3, #1
	sub	r3, r3, #1
	str	r3, [r4, #28]
	bne	.L1023
	ldr	r3, [r4]
	mov	r0, r4
	ldr	r3, [r3, #8]
	blx	r3
	mcr	p15, 0, r0, c7, c10, 5
	ldr	r3, [r4, #32]
	sub	r1, r3, #1
	str	r1, [r4, #32]
	b	.L1109
.L1018:
	ldr	r3, [r4, #28]
	cmp	r3, #1
	sub	r3, r3, #1
	str	r3, [r4, #28]
	bne	.L1017
	ldr	r3, [r4]
	mov	r0, r4
	ldr	r3, [r3, #8]
	blx	r3
	mcr	p15, 0, r0, c7, c10, 5
	ldr	r3, [r4, #32]
	sub	r1, r3, #1
	str	r1, [r4, #32]
	b	.L1108
.L1183:
	ldr	r3, [r4]
	mov	r0, r4
	ldr	r3, [r3, #8]
	blx	r3
	add	r1, r4, #32
	mcr	p15, 0, r0, c7, c10, 5
	mcr	p15, 0, r0, c7, c10, 5
.L1142:
	ldrex	r3, [r1]
	sub	r2, r3, #1
	strex	r0, r2, [r1]
	cmp	r0, #0
	bne	.L1142
	mcr	p15, 0, r0, c7, c10, 5
.L1110:
	cmp	r3, #1
	bne	.L1029
	ldr	r3, [r4]
	mov	r0, r4
	ldr	r3, [r3, #12]
	blx	r3
	b	.L1029
.L1195:
	ldr	r3, [r4]
	mov	r0, r4
	ldr	r3, [r3, #8]
	blx	r3
	add	r1, r4, #32
	mcr	p15, 0, r0, c7, c10, 5
	mcr	p15, 0, r0, c7, c10, 5
.L1136:
	ldrex	r3, [r1]
	sub	r2, r3, #1
	strex	r0, r2, [r1]
	cmp	r0, #0
	bne	.L1136
	mcr	p15, 0, r0, c7, c10, 5
.L1116:
	cmp	r3, #1
	bne	.L1086
	ldr	r3, [r4]
	mov	r0, r4
	ldr	r3, [r3, #12]
	blx	r3
	b	.L1086
.L1196:
	ldr	r3, [r4]
	mov	r0, r4
	ldr	r3, [r3, #8]
	blx	r3
	add	r1, r4, #32
	mcr	p15, 0, r0, c7, c10, 5
	mcr	p15, 0, r0, c7, c10, 5
.L1135:
	ldrex	r3, [r1]
	sub	r2, r3, #1
	strex	r0, r2, [r1]
	cmp	r0, #0
	bne	.L1135
	mcr	p15, 0, r0, c7, c10, 5
.L1117:
	cmp	r3, #1
	bne	.L1092
	ldr	r3, [r4]
	mov	r0, r4
	ldr	r3, [r3, #12]
	blx	r3
	b	.L1092
.L1197:
	ldr	r3, [r4]
	mov	r0, r4
	ldr	r3, [r3, #8]
	blx	r3
	add	r1, r4, #32
	mcr	p15, 0, r0, c7, c10, 5
	mcr	p15, 0, r0, c7, c10, 5
.L1134:
	ldrex	r3, [r1]
	sub	r2, r3, #1
	strex	r0, r2, [r1]
	cmp	r0, #0
	bne	.L1134
	mcr	p15, 0, r0, c7, c10, 5
.L1118:
	cmp	r3, #1
	bne	.L1098
	ldr	r3, [r4]
	mov	r0, r4
	ldr	r3, [r3, #12]
	blx	r3
	b	.L1098
.L1181:
	ldr	r3, [r4]
	mov	r0, r4
	ldr	r3, [r3, #8]
	blx	r3
	add	r1, r4, #32
	mcr	p15, 0, r0, c7, c10, 5
	mcr	p15, 0, r0, c7, c10, 5
.L1144:
	ldrex	r3, [r1]
	sub	r2, r3, #1
	strex	r0, r2, [r1]
	cmp	r0, #0
	bne	.L1144
	mcr	p15, 0, r0, c7, c10, 5
.L1108:
	cmp	r3, #1
	bne	.L1017
	ldr	r3, [r4]
	mov	r0, r4
	ldr	r3, [r3, #12]
	blx	r3
	b	.L1017
.L1182:
	ldr	r3, [r4]
	mov	r0, r4
	ldr	r3, [r3, #8]
	blx	r3
	add	r1, r4, #32
	mcr	p15, 0, r0, c7, c10, 5
	mcr	p15, 0, r0, c7, c10, 5
.L1143:
	ldrex	r3, [r1]
	sub	r2, r3, #1
	strex	r0, r2, [r1]
	cmp	r0, #0
	bne	.L1143
	mcr	p15, 0, r0, c7, c10, 5
.L1109:
	cmp	r3, #1
	bne	.L1023
	ldr	r3, [r4]
	mov	r0, r4
	ldr	r3, [r3, #12]
	blx	r3
	b	.L1023
.L1187:
	ldr	r3, [sp, #4]
	cmp	r6, r3
	movne	r5, r3
	bne	.L1073
	b	.L1050
.L1203:
	add	r3, r4, #28
	mcr	p15, 0, r0, c7, c10, 5
.L1150:
	ldrex	r2, [r3]
	sub	r1, r2, #1
	strex	r0, r1, [r3]
	cmp	r0, #0
	bne	.L1150
	cmp	r2, #1
	mcr	p15, 0, r0, c7, c10, 5
	beq	.L1202
.L1068:
	add	r6, r6, #16
	cmp	r5, r6
	beq	.L1050
.L1073:
	ldr	r4, [r6, #12]
	cmp	r4, #0
	beq	.L1068
	ldr	r3, .L1204+12
	ldr	r3, [fp, r3]
	cmp	r3, #0
	bne	.L1203
	ldr	r3, [r4, #28]
	cmp	r3, #1
	sub	r3, r3, #1
	str	r3, [r4, #28]
	bne	.L1068
	ldr	r3, [r4]
	mov	r0, r4
	ldr	r3, [r3, #8]
	blx	r3
	mcr	p15, 0, r0, c7, c10, 5
	ldr	r3, [r4, #32]
	sub	r2, r3, #1
	str	r2, [r4, #32]
.L1114:
	cmp	r3, #1
	bne	.L1068
	ldr	r3, [r4]
	mov	r0, r4
	ldr	r3, [r3, #12]
	blx	r3
	b	.L1068
.L1202:
	ldr	r3, [r4]
	mov	r0, r4
	ldr	r3, [r3, #8]
	blx	r3
	add	r2, r4, #32
	mcr	p15, 0, r0, c7, c10, 5
	mcr	p15, 0, r0, c7, c10, 5
.L1138:
	ldrex	r3, [r2]
	sub	r1, r3, #1
	strex	r0, r1, [r2]
	cmp	r0, #0
	bne	.L1138
	mcr	p15, 0, r0, c7, c10, 5
	b	.L1114
.L1205:
	.align	2
.L1204:
	.word	_GLOBAL_OFFSET_TABLE_-(.LPIC98+8)
	.word	_ZTVN8asiodnp39IOHandlerE(GOT)
	.word	_ZTVN8opendnp317MultidropTaskLockE(GOT)
	.word	_ZL28__gthrw___pthread_key_createPjPFvPvE(GOT)
	.cantunwind
	.fnend
	.size	_ZN8asiodnp39IOHandlerD2Ev, .-_ZN8asiodnp39IOHandlerD2Ev
	.set	.LTHUNK2,_ZN8asiodnp39IOHandlerD2Ev
	.align	2
	.weak	_ZThn4_N8asiodnp39IOHandlerD1Ev
	.syntax unified
	.arm
	.fpu vfp
	.type	_ZThn4_N8asiodnp39IOHandlerD1Ev, %function
_ZThn4_N8asiodnp39IOHandlerD1Ev:
	.fnstart
.LFB12218:
	@ args = 0, pretend = 0, frame = 0
	@ frame_needed = 0, uses_anonymous_args = 0
	sub	r0, r0, #4
	b	.LTHUNK2(PLT)
	.cantunwind
	.fnend
	.size	_ZThn4_N8asiodnp39IOHandlerD1Ev, .-_ZThn4_N8asiodnp39IOHandlerD1Ev
	.weak	_ZN8asiodnp39IOHandlerD1Ev
	.set	_ZN8asiodnp39IOHandlerD1Ev,_ZN8asiodnp39IOHandlerD2Ev
	.section	.text._ZN8asiodnp39IOHandlerD0Ev,"axG",%progbits,_ZN8asiodnp39IOHandlerD5Ev,comdat
	.align	2
	.weak	_ZN8asiodnp39IOHandlerD0Ev
	.syntax unified
	.arm
	.fpu vfp
	.type	_ZN8asiodnp39IOHandlerD0Ev, %function
_ZN8asiodnp39IOHandlerD0Ev:
	.fnstart
.LFB7834:
	@ args = 0, pretend = 0, frame = 0
	@ frame_needed = 0, uses_anonymous_args = 0
	push	{r4, lr}
	mov	r4, r0
	bl	_ZN8asiodnp39IOHandlerD1Ev(PLT)
	mov	r0, r4
	mov	r1, #580
	bl	_ZdlPvj(PLT)
	mov	r0, r4
	pop	{r4, pc}
	.cantunwind
	.fnend
	.size	_ZN8asiodnp39IOHandlerD0Ev, .-_ZN8asiodnp39IOHandlerD0Ev
	.set	.LTHUNK3,_ZN8asiodnp39IOHandlerD0Ev
	.align	2
	.weak	_ZThn4_N8asiodnp39IOHandlerD0Ev
	.syntax unified
	.arm
	.fpu vfp
	.type	_ZThn4_N8asiodnp39IOHandlerD0Ev, %function
_ZThn4_N8asiodnp39IOHandlerD0Ev:
	.fnstart
.LFB12219:
	@ args = 0, pretend = 0, frame = 0
	@ frame_needed = 0, uses_anonymous_args = 0
	sub	r0, r0, #4
	b	.LTHUNK3(PLT)
	.cantunwind
	.fnend
	.size	_ZThn4_N8asiodnp39IOHandlerD0Ev, .-_ZThn4_N8asiodnp39IOHandlerD0Ev
	.section	.text._ZNSt23_Sp_counted_ptr_inplaceIN8asiodnp315SerialIOHandlerESaIS1_ELN9__gnu_cxx12_Lock_policyE1EE10_M_disposeEv,"axG",%progbits,_ZNSt23_Sp_counted_ptr_inplaceIN8asiodnp315SerialIOHandlerESaIS1_ELN9__gnu_cxx12_Lock_policyE1EE10_M_disposeEv,comdat
	.align	2
	.weak	_ZNSt23_Sp_counted_ptr_inplaceIN8asiodnp315SerialIOHandlerESaIS1_ELN9__gnu_cxx12_Lock_policyE1EE10_M_disposeEv
	.syntax unified
	.arm
	.fpu vfp
	.type	_ZNSt23_Sp_counted_ptr_inplaceIN8asiodnp315SerialIOHandlerESaIS1_ELN9__gnu_cxx12_Lock_policyE1EE10_M_disposeEv, %function
_ZNSt23_Sp_counted_ptr_inplaceIN8asiodnp315SerialIOHandlerESaIS1_ELN9__gnu_cxx12_Lock_policyE1EE10_M_disposeEv:
	.fnstart
.LFB11698:
	@ args = 0, pretend = 0, frame = 0
	@ frame_needed = 0, uses_anonymous_args = 0
	push	{r4, r5, r6, lr}
	mov	r4, r0
	ldr	r5, .L1223
	ldr	r3, .L1223+4
.LPIC99:
	add	r5, pc, r5
	add	r0, r0, #704
	ldr	r3, [r5, r3]
	add	r6, r4, #40
	add	r2, r3, #8
	add	r3, r3, #52
	str	r3, [r4, #44]
	str	r2, [r4, #40]
	bl	_ZN7openpal8TimerRefD1Ev(PLT)
	ldr	r0, [r4, #656]
	add	r3, r4, #664
	cmp	r0, r3
	beq	.L1209
	bl	_ZdlPv(PLT)
.L1209:
	ldr	r4, [r4, #624]
	cmp	r4, #0
	beq	.L1211
	ldr	r3, .L1223+8
	ldr	r3, [r5, r3]
	cmp	r3, #0
	beq	.L1212
	add	r3, r4, #28
	mcr	p15, 0, r0, c7, c10, 5
.L1218:
	ldrex	r2, [r3]
	sub	r1, r2, #1
	strex	r0, r1, [r3]
	cmp	r0, #0
	bne	.L1218
	cmp	r2, #1
	mcr	p15, 0, r0, c7, c10, 5
	beq	.L1222
.L1211:
	mov	r0, r6
	pop	{r4, r5, r6, lr}
	b	_ZN8asiodnp39IOHandlerD2Ev(PLT)
.L1212:
	ldr	r3, [r4, #28]
	cmp	r3, #1
	sub	r3, r3, #1
	str	r3, [r4, #28]
	bne	.L1211
	ldr	r3, [r4]
	mov	r0, r4
	ldr	r3, [r3, #8]
	blx	r3
	mcr	p15, 0, r0, c7, c10, 5
	ldr	r2, [r4, #32]
	sub	r3, r2, #1
	str	r3, [r4, #32]
	b	.L1216
.L1222:
	ldr	r3, [r4]
	mov	r0, r4
	ldr	r3, [r3, #8]
	blx	r3
	add	r3, r4, #32
	mcr	p15, 0, r0, c7, c10, 5
	mcr	p15, 0, r0, c7, c10, 5
.L1217:
	ldrex	r2, [r3]
	sub	r1, r2, #1
	strex	r0, r1, [r3]
	cmp	r0, #0
	bne	.L1217
	mcr	p15, 0, r0, c7, c10, 5
.L1216:
	cmp	r2, #1
	bne	.L1211
	ldr	r3, [r4]
	mov	r0, r4
	ldr	r3, [r3, #12]
	blx	r3
	b	.L1211
.L1224:
	.align	2
.L1223:
	.word	_GLOBAL_OFFSET_TABLE_-(.LPIC99+8)
	.word	_ZTVN8asiodnp315SerialIOHandlerE(GOT)
	.word	_ZL28__gthrw___pthread_key_createPjPFvPvE(GOT)
	.cantunwind
	.fnend
	.size	_ZNSt23_Sp_counted_ptr_inplaceIN8asiodnp315SerialIOHandlerESaIS1_ELN9__gnu_cxx12_Lock_policyE1EE10_M_disposeEv, .-_ZNSt23_Sp_counted_ptr_inplaceIN8asiodnp315SerialIOHandlerESaIS1_ELN9__gnu_cxx12_Lock_policyE1EE10_M_disposeEv
	.section	.text._ZNSt23_Sp_counted_ptr_inplaceIN8asiodnp318TCPServerIOHandlerESaIS1_ELN9__gnu_cxx12_Lock_policyE1EE10_M_disposeEv,"axG",%progbits,_ZNSt23_Sp_counted_ptr_inplaceIN8asiodnp318TCPServerIOHandlerESaIS1_ELN9__gnu_cxx12_Lock_policyE1EE10_M_disposeEv,comdat
	.align	2
	.weak	_ZNSt23_Sp_counted_ptr_inplaceIN8asiodnp318TCPServerIOHandlerESaIS1_ELN9__gnu_cxx12_Lock_policyE1EE10_M_disposeEv
	.syntax unified
	.arm
	.fpu vfp
	.type	_ZNSt23_Sp_counted_ptr_inplaceIN8asiodnp318TCPServerIOHandlerESaIS1_ELN9__gnu_cxx12_Lock_policyE1EE10_M_disposeEv, %function
_ZNSt23_Sp_counted_ptr_inplaceIN8asiodnp318TCPServerIOHandlerESaIS1_ELN9__gnu_cxx12_Lock_policyE1EE10_M_disposeEv:
	.fnstart
.LFB11712:
	@ args = 0, pretend = 0, frame = 0
	@ frame_needed = 0, uses_anonymous_args = 0
	push	{r4, r5, r6, r7, r8, lr}
	mov	r4, r0
	ldr	r5, .L1252
	ldr	r3, .L1252+4
.LPIC100:
	add	r5, pc, r5
	ldr	r7, [r0, #656]
	ldr	r3, [r5, r3]
	cmp	r7, #0
	add	r2, r3, #8
	add	r3, r3, #52
	add	r6, r0, #36
	str	r2, [r0, #36]
	str	r3, [r0, #40]
	beq	.L1227
	ldr	r3, .L1252+8
	ldr	r3, [r5, r3]
	cmp	r3, #0
	beq	.L1228
	add	r3, r7, #28
	mcr	p15, 0, r0, c7, c10, 5
.L1244:
	ldrex	r2, [r3]
	sub	r1, r2, #1
	strex	r0, r1, [r3]
	cmp	r0, #0
	bne	.L1244
	cmp	r2, #1
	mcr	p15, 0, r0, c7, c10, 5
	beq	.L1250
.L1227:
	ldr	r0, [r4, #624]
	add	r3, r4, #632
	cmp	r0, r3
	beq	.L1232
	bl	_ZdlPv(PLT)
.L1232:
	ldr	r4, [r4, #620]
	cmp	r4, #0
	beq	.L1234
	ldr	r3, .L1252+8
	ldr	r3, [r5, r3]
	cmp	r3, #0
	beq	.L1235
	add	r3, r4, #28
	mcr	p15, 0, r0, c7, c10, 5
.L1243:
	ldrex	r2, [r3]
	sub	r1, r2, #1
	strex	r0, r1, [r3]
	cmp	r0, #0
	bne	.L1243
	cmp	r2, #1
	mcr	p15, 0, r0, c7, c10, 5
	beq	.L1251
.L1234:
	mov	r0, r6
	pop	{r4, r5, r6, r7, r8, lr}
	b	_ZN8asiodnp39IOHandlerD2Ev(PLT)
.L1228:
	ldr	r3, [r7, #28]
	cmp	r3, #1
	sub	r3, r3, #1
	str	r3, [r7, #28]
	bne	.L1227
	ldr	r3, [r7]
	mov	r0, r7
	ldr	r3, [r3, #8]
	blx	r3
	mcr	p15, 0, r0, c7, c10, 5
	ldr	r2, [r7, #32]
	sub	r3, r2, #1
	str	r3, [r7, #32]
	b	.L1239
.L1235:
	ldr	r3, [r4, #28]
	cmp	r3, #1
	sub	r3, r3, #1
	str	r3, [r4, #28]
	bne	.L1234
	ldr	r3, [r4]
	mov	r0, r4
	ldr	r3, [r3, #8]
	blx	r3
	mcr	p15, 0, r0, c7, c10, 5
	ldr	r2, [r4, #32]
	sub	r3, r2, #1
	str	r3, [r4, #32]
	b	.L1240
.L1251:
	ldr	r3, [r4]
	mov	r0, r4
	ldr	r3, [r3, #8]
	blx	r3
	add	r3, r4, #32
	mcr	p15, 0, r0, c7, c10, 5
	mcr	p15, 0, r0, c7, c10, 5
.L1241:
	ldrex	r2, [r3]
	sub	r1, r2, #1
	strex	r0, r1, [r3]
	cmp	r0, #0
	bne	.L1241
	mcr	p15, 0, r0, c7, c10, 5
.L1240:
	cmp	r2, #1
	bne	.L1234
	ldr	r3, [r4]
	mov	r0, r4
	ldr	r3, [r3, #12]
	blx	r3
	b	.L1234
.L1250:
	ldr	r3, [r7]
	mov	r0, r7
	ldr	r3, [r3, #8]
	blx	r3
	add	r3, r7, #32
	mcr	p15, 0, r0, c7, c10, 5
	mcr	p15, 0, r0, c7, c10, 5
.L1242:
	ldrex	r2, [r3]
	sub	r1, r2, #1
	strex	r0, r1, [r3]
	cmp	r0, #0
	bne	.L1242
	mcr	p15, 0, r0, c7, c10, 5
.L1239:
	cmp	r2, #1
	bne	.L1227
	ldr	r3, [r7]
	mov	r0, r7
	ldr	r3, [r3, #12]
	blx	r3
	b	.L1227
.L1253:
	.align	2
.L1252:
	.word	_GLOBAL_OFFSET_TABLE_-(.LPIC100+8)
	.word	_ZTVN8asiodnp318TCPServerIOHandlerE(GOT)
	.word	_ZL28__gthrw___pthread_key_createPjPFvPvE(GOT)
	.cantunwind
	.fnend
	.size	_ZNSt23_Sp_counted_ptr_inplaceIN8asiodnp318TCPServerIOHandlerESaIS1_ELN9__gnu_cxx12_Lock_policyE1EE10_M_disposeEv, .-_ZNSt23_Sp_counted_ptr_inplaceIN8asiodnp318TCPServerIOHandlerESaIS1_ELN9__gnu_cxx12_Lock_policyE1EE10_M_disposeEv
	.section	.text._ZNSt23_Sp_counted_ptr_inplaceIN8asiodnp318TCPClientIOHandlerESaIS1_ELN9__gnu_cxx12_Lock_policyE1EE10_M_disposeEv,"axG",%progbits,_ZNSt23_Sp_counted_ptr_inplaceIN8asiodnp318TCPClientIOHandlerESaIS1_ELN9__gnu_cxx12_Lock_policyE1EE10_M_disposeEv,comdat
	.align	2
	.weak	_ZNSt23_Sp_counted_ptr_inplaceIN8asiodnp318TCPClientIOHandlerESaIS1_ELN9__gnu_cxx12_Lock_policyE1EE10_M_disposeEv
	.syntax unified
	.arm
	.fpu vfp
	.type	_ZNSt23_Sp_counted_ptr_inplaceIN8asiodnp318TCPClientIOHandlerESaIS1_ELN9__gnu_cxx12_Lock_policyE1EE10_M_disposeEv, %function
_ZNSt23_Sp_counted_ptr_inplaceIN8asiodnp318TCPClientIOHandlerESaIS1_ELN9__gnu_cxx12_Lock_policyE1EE10_M_disposeEv:
	.fnstart
.LFB11719:
	@ args = 0, pretend = 0, frame = 0
	@ frame_needed = 0, uses_anonymous_args = 0
	push	{r4, r5, r6, r7, r8, lr}
	mov	r4, r0
	ldr	r5, .L1282
	ldr	r3, .L1282+4
.LPIC101:
	add	r5, pc, r5
	add	r0, r0, #716
	ldr	r3, [r5, r3]
	add	r7, r4, #40
	add	r2, r3, #8
	add	r3, r3, #52
	str	r2, [r4, #40]
	str	r3, [r4, #44]
	bl	_ZN7openpal8TimerRefD1Ev(PLT)
	ldr	r6, [r4, #712]
	cmp	r6, #0
	beq	.L1256
	ldr	r3, .L1282+8
	ldr	r3, [r5, r3]
	cmp	r3, #0
	beq	.L1257
	add	r3, r6, #28
	mcr	p15, 0, r0, c7, c10, 5
.L1274:
	ldrex	r2, [r3]
	sub	r1, r2, #1
	strex	r0, r1, [r3]
	cmp	r0, #0
	bne	.L1274
	cmp	r2, #1
	mcr	p15, 0, r0, c7, c10, 5
	beq	.L1280
.L1256:
	ldr	r0, [r4, #684]
	add	r3, r4, #692
	cmp	r0, r3
	beq	.L1261
	bl	_ZdlPv(PLT)
.L1261:
	ldr	r0, [r4, #656]
	add	r3, r4, #664
	cmp	r0, r3
	beq	.L1262
	bl	_ZdlPv(PLT)
.L1262:
	ldr	r4, [r4, #624]
	cmp	r4, #0
	beq	.L1264
	ldr	r3, .L1282+8
	ldr	r3, [r5, r3]
	cmp	r3, #0
	beq	.L1265
	add	r3, r4, #28
	mcr	p15, 0, r0, c7, c10, 5
.L1273:
	ldrex	r2, [r3]
	sub	r1, r2, #1
	strex	r0, r1, [r3]
	cmp	r0, #0
	bne	.L1273
	cmp	r2, #1
	mcr	p15, 0, r0, c7, c10, 5
	beq	.L1281
.L1264:
	mov	r0, r7
	pop	{r4, r5, r6, r7, r8, lr}
	b	_ZN8asiodnp39IOHandlerD2Ev(PLT)
.L1257:
	ldr	r3, [r6, #28]
	cmp	r3, #1
	sub	r3, r3, #1
	str	r3, [r6, #28]
	bne	.L1256
	ldr	r3, [r6]
	mov	r0, r6
	ldr	r3, [r3, #8]
	blx	r3
	mcr	p15, 0, r0, c7, c10, 5
	ldr	r2, [r6, #32]
	sub	r3, r2, #1
	str	r3, [r6, #32]
	b	.L1269
.L1265:
	ldr	r3, [r4, #28]
	cmp	r3, #1
	sub	r3, r3, #1
	str	r3, [r4, #28]
	bne	.L1264
	ldr	r3, [r4]
	mov	r0, r4
	ldr	r3, [r3, #8]
	blx	r3
	mcr	p15, 0, r0, c7, c10, 5
	ldr	r2, [r4, #32]
	sub	r3, r2, #1
	str	r3, [r4, #32]
	b	.L1270
.L1281:
	ldr	r3, [r4]
	mov	r0, r4
	ldr	r3, [r3, #8]
	blx	r3
	add	r3, r4, #32
	mcr	p15, 0, r0, c7, c10, 5
	mcr	p15, 0, r0, c7, c10, 5
.L1271:
	ldrex	r2, [r3]
	sub	r1, r2, #1
	strex	r0, r1, [r3]
	cmp	r0, #0
	bne	.L1271
	mcr	p15, 0, r0, c7, c10, 5
.L1270:
	cmp	r2, #1
	bne	.L1264
	ldr	r3, [r4]
	mov	r0, r4
	ldr	r3, [r3, #12]
	blx	r3
	b	.L1264
.L1280:
	ldr	r3, [r6]
	mov	r0, r6
	ldr	r3, [r3, #8]
	blx	r3
	add	r3, r6, #32
	mcr	p15, 0, r0, c7, c10, 5
	mcr	p15, 0, r0, c7, c10, 5
.L1272:
	ldrex	r2, [r3]
	sub	r1, r2, #1
	strex	r0, r1, [r3]
	cmp	r0, #0
	bne	.L1272
	mcr	p15, 0, r0, c7, c10, 5
.L1269:
	cmp	r2, #1
	bne	.L1256
	ldr	r3, [r6]
	mov	r0, r6
	ldr	r3, [r3, #12]
	blx	r3
	b	.L1256
.L1283:
	.align	2
.L1282:
	.word	_GLOBAL_OFFSET_TABLE_-(.LPIC101+8)
	.word	_ZTVN8asiodnp318TCPClientIOHandlerE(GOT)
	.word	_ZL28__gthrw___pthread_key_createPjPFvPvE(GOT)
	.cantunwind
	.fnend
	.size	_ZNSt23_Sp_counted_ptr_inplaceIN8asiodnp318TCPClientIOHandlerESaIS1_ELN9__gnu_cxx12_Lock_policyE1EE10_M_disposeEv, .-_ZNSt23_Sp_counted_ptr_inplaceIN8asiodnp318TCPClientIOHandlerESaIS1_ELN9__gnu_cxx12_Lock_policyE1EE10_M_disposeEv
	.section	.text._ZNSt8_Rb_treeISt10shared_ptrIN7asiopal9IResourceEES3_St9_IdentityIS3_ESt4lessIS3_ESaIS3_EE16_M_insert_uniqueIS3_EESt4pairISt17_Rb_tree_iteratorIS3_EbEOT_,"axG",%progbits,_ZNSt8_Rb_treeISt10shared_ptrIN7asiopal9IResourceEES3_St9_IdentityIS3_ESt4lessIS3_ESaIS3_EE16_M_insert_uniqueIS3_EESt4pairISt17_Rb_tree_iteratorIS3_EbEOT_,comdat
	.align	2
	.weak	_ZNSt8_Rb_treeISt10shared_ptrIN7asiopal9IResourceEES3_St9_IdentityIS3_ESt4lessIS3_ESaIS3_EE16_M_insert_uniqueIS3_EESt4pairISt17_Rb_tree_iteratorIS3_EbEOT_
	.syntax unified
	.arm
	.fpu vfp
	.type	_ZNSt8_Rb_treeISt10shared_ptrIN7asiopal9IResourceEES3_St9_IdentityIS3_ESt4lessIS3_ESaIS3_EE16_M_insert_uniqueIS3_EESt4pairISt17_Rb_tree_iteratorIS3_EbEOT_, %function
_ZNSt8_Rb_treeISt10shared_ptrIN7asiopal9IResourceEES3_St9_IdentityIS3_ESt4lessIS3_ESaIS3_EE16_M_insert_uniqueIS3_EESt4pairISt17_Rb_tree_iteratorIS3_EbEOT_:
	.fnstart
.LFB10060:
	@ args = 0, pretend = 0, frame = 0
	@ frame_needed = 0, uses_anonymous_args = 0
	ldr	r3, [r1, #8]
	push	{r4, r5, r6, r7, r8, r9, r10, lr}
	.save {r4, r5, r6, r7, r8, r9, r10, lr}
	cmp	r3, #0
	mov	r5, r1
	mov	r6, r0
	mov	r8, r2
	add	r7, r1, #4
	beq	.L1295
	mov	r2, r3
	ldr	ip, [r8]
	mov	r4, #0
	mov	lr, #1
	b	.L1286
.L1301:
	mov	r2, r3
.L1286:
	ldr	r1, [r2, #16]
	mov	r0, lr
	cmp	r1, ip
	movls	r0, r4
	ldrhi	r3, [r2, #8]
	ldrls	r3, [r2, #12]
	cmp	r3, #0
	bne	.L1301
	cmp	r0, #0
	mov	r4, r2
	moveq	r0, r2
	bne	.L1285
	cmp	r1, ip
	bcc	.L1302
.L1292:
	mov	r3, #0
	str	r0, [r6]
	strb	r3, [r6, #4]
	mov	r0, r6
	pop	{r4, r5, r6, r7, r8, r9, r10, pc}
.L1295:
	mov	r4, r7
.L1285:
	ldr	r3, [r5, #12]
	cmp	r3, r4
	beq	.L1291
	mov	r0, r4
	bl	_ZSt18_Rb_tree_decrementPSt18_Rb_tree_node_base(PLT)
	ldr	ip, [r8]
	ldr	r1, [r0, #16]
	cmp	r1, ip
	bcs	.L1292
.L1302:
	cmp	r4, #0
	beq	.L1298
.L1291:
	cmp	r7, r4
	moveq	r10, #1
	beq	.L1293
	ldr	r10, [r8]
	ldr	r3, [r4, #16]
	cmp	r10, r3
	movcs	r10, #0
	movcc	r10, #1
.L1293:
	mov	r0, #24
	bl	_Znwj(PLT)
	ldr	lr, [r8]
	ldr	ip, [r8, #4]
	mov	r1, #0
	mov	r3, r7
	mov	r2, r4
	str	r1, [r8, #4]
	str	r1, [r8]
	mov	r9, r0
	mov	r1, r9
	mov	r0, r10
	str	lr, [r9, #16]
	str	ip, [r9, #20]
	bl	_ZSt29_Rb_tree_insert_and_rebalancebPSt18_Rb_tree_node_baseS0_RS_(PLT)
	ldr	r3, [r5, #20]
	mov	r2, #1
	add	r3, r3, r2
	str	r9, [r6]
	str	r3, [r5, #20]
	strb	r2, [r6, #4]
	mov	r0, r6
	pop	{r4, r5, r6, r7, r8, r9, r10, pc}
.L1298:
	mov	r0, r4
	b	.L1292
	.fnend
	.size	_ZNSt8_Rb_treeISt10shared_ptrIN7asiopal9IResourceEES3_St9_IdentityIS3_ESt4lessIS3_ESaIS3_EE16_M_insert_uniqueIS3_EESt4pairISt17_Rb_tree_iteratorIS3_EbEOT_, .-_ZNSt8_Rb_treeISt10shared_ptrIN7asiopal9IResourceEES3_St9_IdentityIS3_ESt4lessIS3_ESaIS3_EE16_M_insert_uniqueIS3_EESt4pairISt17_Rb_tree_iteratorIS3_EbEOT_
	.text
	.align	2
	.global	_ZN8asiodnp315DNP3ManagerImpl12AddTCPClientERKNSt7__cxx1112basic_stringIcSt11char_traitsIcESaIcEEEjRKN7asiopal12ChannelRetryES8_S8_tSt10shared_ptrINS_16IChannelListenerEE
	.syntax unified
	.arm
	.fpu vfp
	.type	_ZN8asiodnp315DNP3ManagerImpl12AddTCPClientERKNSt7__cxx1112basic_stringIcSt11char_traitsIcESaIcEEEjRKN7asiopal12ChannelRetryES8_S8_tSt10shared_ptrINS_16IChannelListenerEE, %function
_ZN8asiodnp315DNP3ManagerImpl12AddTCPClientERKNSt7__cxx1112basic_stringIcSt11char_traitsIcESaIcEEEjRKN7asiopal12ChannelRetryES8_S8_tSt10shared_ptrINS_16IChannelListenerEE:
	.fnstart
.LFB7957:
	@ args = 20, pretend = 0, frame = 88
	@ frame_needed = 0, uses_anonymous_args = 0
	push	{r4, r5, r6, r7, r8, r9, r10, fp, lr}
	.save {r4, r5, r6, r7, r8, r9, r10, fp, lr}
	.pad #108
	sub	sp, sp, #108
	ldr	r4, .L1474
	ldr	ip, .L1474+4
.LPIC102:
	add	r4, pc, r4
	mov	r7, r1
	mov	fp, r3
	ldr	r1, [r4, ip]
	ldrh	r3, [sp, #156]
	ldr	r8, [r7, #144]
	cmp	r1, #0
	mov	r6, r0
	str	r1, [sp, #20]
	mov	r9, r2
	add	r10, r8, #4
	str	r3, [sp, #24]
	beq	.L1304
	mov	r0, r10
	bl	_ZL26__gthrw_pthread_mutex_lockP15pthread_mutex_t(PLT)
	cmp	r0, #0
	bne	.L1468
.L1304:
	ldrb	r3, [r8, #28]	@ zero_extendqisi2
	cmp	r3, #0
	beq	.L1305
	mov	r3, #0
	str	r3, [r6]
	str	r3, [r6, #4]
.L1306:
	ldr	r3, [sp, #20]
	cmp	r3, #0
	beq	.L1303
	mov	r0, r10
	bl	_ZL28__gthrw_pthread_mutex_unlockP15pthread_mutex_t(PLT)
.L1303:
	mov	r0, r6
	add	sp, sp, #108
	@ sp needed
	pop	{r4, r5, r6, r7, r8, r9, r10, fp, pc}
.L1305:
	mov	r0, #64
.LEHB20:
	bl	_Znwj(PLT)
.LEHE20:
	ldr	r1, .L1474+8
	mov	r3, #0
	str	r3, [r0, #4]
	str	r3, [r0, #8]
	str	r3, [r0, #12]
	str	r3, [r0, #16]
	str	r3, [r0, #20]
	str	r3, [r0, #24]
	mov	r3, #1
	str	r3, [r0, #28]
	str	r3, [r0, #32]
	ldr	r3, [r4, r1]
	ldm	r9, {r1, r2}
	mov	r5, r0
	add	r3, r3, #8
	str	r3, [r0], #36
	add	r3, r5, #44
	add	r2, r1, r2
	str	r3, [r5, #36]
.LEHB21:
	bl	_ZNSt7__cxx1112basic_stringIcSt11char_traitsIcESaIcEE12_M_constructIPcEEvT_S7_St20forward_iterator_tag.isra.93(PLT)
.LEHE21:
	ldr	r3, .L1474+12
	ldr	r2, [r5]
	str	fp, [r5, #60]
	ldr	r3, [r4, r3]
	mov	r0, r5
	mov	r1, r3
	str	r3, [sp, #28]
	ldr	r3, [r2, #16]
	blx	r3
	ldm	r7, {r2, r3}
	cmp	r3, #0
	str	r3, [sp, #64]
	str	r2, [sp, #60]
	beq	.L1469
	ldr	r2, [sp, #20]
	cmp	r2, #0
	beq	.L1311
	add	r3, r3, #28
	mcr	p15, 0, r0, c7, c10, 5
.L1460:
	ldrex	r2, [r3]
	add	r2, r2, #1
	strex	r1, r2, [r3]
	cmp	r1, #0
	bne	.L1460
	add	r3, r5, #28
	mcr	p15, 0, r0, c7, c10, 5
	str	r0, [sp, #68]
	str	r5, [sp, #72]
.L1312:
	mcr	p15, 0, r0, c7, c10, 5
.L1459:
	ldrex	r2, [r3]
	add	r2, r2, #1
	strex	r1, r2, [r3]
	cmp	r1, #0
	bne	.L1459
	mcr	p15, 0, r0, c7, c10, 5
.L1314:
	mov	r0, r5
	bl	_ZNSt16_Sp_counted_baseILN9__gnu_cxx12_Lock_policyE1EE10_M_releaseEv(PLT)
	mov	r3, #0
	mov	r0, #64
	str	r3, [sp, #44]
	str	r3, [sp, #48]
	add	r9, r7, #16
.LEHB22:
	bl	_Znwj(PLT)
.LEHE22:
	add	r2, r0, #4
	ldr	r1, .L1474+16
	mov	r3, #0
	str	r3, [r0, #4]
	str	r3, [r2, #4]
	str	r3, [r2, #8]
	str	r3, [r2, #12]
	str	r3, [r2, #16]
	str	r3, [r2, #20]
	mov	r3, #1
	str	r3, [r0, #28]
	str	r3, [r0, #32]
	ldr	r3, [r4, r1]
	mov	r5, r0
	add	r3, r3, #8
	mov	r1, r9
	str	r3, [r0], #36
.LEHB23:
	bl	_ZN7asiopal8ExecutorC1ERKSt10shared_ptrINS_2IOEE(PLT)
.LEHE23:
	ldr	r3, [r5]
	str	r5, [sp, #48]
	mov	r0, r5
	ldr	r3, [r3, #16]
	ldr	r1, [sp, #28]
	blx	r3
	cmp	r0, #0
	mov	r5, r0
	str	r0, [sp, #44]
	beq	.L1316
	ldr	r3, [r0, #8]
	cmp	r3, #0
	beq	.L1322
	ldr	r2, [r3, #28]
	cmp	r2, #0
	beq	.L1322
.L1316:
	ldr	r3, [sp, #148]
	add	fp, sp, #76
	add	r9, sp, #84
	ldm	r3, {r1, r2}
	mov	r0, fp
	str	r9, [sp, #76]
	add	r2, r1, r2
.LEHB24:
	bl	_ZNSt7__cxx1112basic_stringIcSt11char_traitsIcESaIcEE12_M_constructIPcEEvT_S7_St20forward_iterator_tag.isra.93(PLT)
.LEHE24:
	ldrh	r3, [sp, #24]
	mov	r0, #728
	strh	r3, [sp, #100]	@ movhi
.LEHB25:
	bl	_Znwj(PLT)
.LEHE25:
	ldr	r1, .L1474+20
	mov	r5, r0
	ldr	ip, [sp, #152]
	mov	r3, #0
	mov	r0, #1
	str	r0, [r5, #28]
	str	r0, [r5, #32]
	str	r3, [r5, #4]
	str	r3, [r5, #8]
	str	r3, [r5, #12]
	str	r3, [r5, #16]
	str	r3, [r5, #20]
	str	r3, [r5, #24]
	ldr	r3, [r4, r1]
	mov	r0, r5
	stmib	sp, {fp, ip}
	ldr	ip, [sp, #144]
	add	r2, sp, #44
	add	r3, r3, #8
	str	r2, [sp, #32]
	add	r1, sp, #60
	str	ip, [sp]
	str	r3, [r0], #40
	mov	r3, r2
	ldr	r2, [sp, #160]
	str	r1, [sp, #24]
.LEHB26:
	bl	_ZN8asiodnp318TCPClientIOHandlerC1ERKN7openpal6LoggerERKSt10shared_ptrINS_16IChannelListenerEERKS5_IN7asiopal8ExecutorEERKNSA_12ChannelRetryERKNSA_10IPEndpointERKNSt7__cxx1112basic_stringIcSt11char_traitsIcESaIcEEE(PLT)
.LEHE26:
	ldr	r3, [r5]
	ldr	r1, [sp, #28]
	mov	r0, r5
	ldr	r3, [r3, #16]
	blx	r3
	subs	r3, r0, #0
	beq	.L1331
	ldr	r0, [r3, #12]
	cmp	r0, #0
	beq	.L1337
	ldr	r2, [r0, #28]
	cmp	r2, #0
	beq	.L1337
.L1331:
	ldr	r0, [sp, #76]
	cmp	r0, r9
	beq	.L1344
	str	r3, [sp, #36]
	bl	_ZdlPv(PLT)
	ldr	r3, [sp, #36]
.L1344:
	ldr	r2, [sp, #20]
	str	r3, [sp, #76]
	cmp	r2, #0
	str	r5, [sp, #80]
	beq	.L1345
	add	r3, r5, #28
	mcr	p15, 0, r0, c7, c10, 5
.L1455:
	ldrex	r2, [r3]
	add	r2, r2, #1
	strex	r1, r2, [r3]
	cmp	r1, #0
	bne	.L1455
	mcr	p15, 0, r0, c7, c10, 5
	ldr	r3, [r7, #148]
	ldr	r2, [r7, #144]
	cmp	r3, #0
	str	r2, [sp, #52]
	str	r3, [sp, #56]
	beq	.L1347
	add	r3, r3, #28
	mcr	p15, 0, r0, c7, c10, 5
.L1451:
	ldrex	r2, [r3]
	add	r2, r2, #1
	strex	r1, r2, [r3]
	cmp	r1, #0
	bne	.L1451
	mcr	p15, 0, r0, c7, c10, 5
.L1347:
	mov	r0, #96
.LEHB27:
	bl	_Znwj(PLT)
.LEHE27:
	ldr	r1, .L1474+24
	mov	r7, r0
	mov	r3, #0
	mov	r0, #1
	str	r0, [r7, #28]
	str	r0, [r7, #32]
	str	r3, [r7, #4]
	str	r3, [r7, #8]
	str	r3, [r7, #12]
	str	r3, [r7, #16]
	str	r3, [r7, #20]
	str	r3, [r7, #24]
	ldr	r3, [r4, r1]
	mov	r0, r7
	add	r3, r3, #8
	add	r9, sp, #52
	str	r3, [r0], #36
	ldr	r2, [sp, #32]
	str	r9, [sp]
	mov	r3, fp
	ldr	r1, [sp, #24]
.LEHB28:
	bl	_ZN8asiodnp311DNP3ChannelC1ERKN7openpal6LoggerERKSt10shared_ptrIN7asiopal8ExecutorEERKS5_INS_9IOHandlerEERKS5_INS6_16IResourceManagerEE(PLT)
.LEHE28:
	ldr	r3, [r7]
	ldr	r1, [sp, #28]
	mov	r0, r7
	ldr	r3, [r3, #16]
	blx	r3
	subs	r4, r0, #0
	beq	.L1351
	ldr	r0, [r4, #8]
	cmp	r0, #0
	beq	.L1357
	ldr	r3, [r0, #28]
	cmp	r3, #0
	beq	.L1357
.L1351:
	ldr	r0, [sp, #56]
	cmp	r0, #0
	beq	.L1364
	bl	_ZNSt16_Sp_counted_baseILN9__gnu_cxx12_Lock_policyE1EE10_M_releaseEv(PLT)
.L1364:
	ldr	r0, [sp, #80]
	cmp	r0, #0
	beq	.L1379
	bl	_ZNSt16_Sp_counted_baseILN9__gnu_cxx12_Lock_policyE1EE10_M_releaseEv(PLT)
.L1379:
	mov	r0, r5
	bl	_ZNSt16_Sp_counted_baseILN9__gnu_cxx12_Lock_policyE1EE10_M_releaseEv(PLT)
	ldr	r0, [sp, #48]
	cmp	r0, #0
	beq	.L1365
	bl	_ZNSt16_Sp_counted_baseILN9__gnu_cxx12_Lock_policyE1EE10_M_releaseEv(PLT)
.L1365:
	ldr	r0, [sp, #72]
	cmp	r0, #0
	beq	.L1366
	bl	_ZNSt16_Sp_counted_baseILN9__gnu_cxx12_Lock_policyE1EE10_M_releaseEv(PLT)
.L1366:
	ldr	r0, [sp, #64]
	cmp	r0, #0
	beq	.L1367
	bl	_ZNSt16_Sp_counted_baseILN9__gnu_cxx12_Lock_policyE1EE10_M_releaseEv(PLT)
.L1367:
	cmp	r4, #0
	beq	.L1385
	ldr	r3, [sp, #20]
	str	r4, [sp, #76]
	cmp	r3, #0
	str	r7, [sp, #80]
	beq	.L1470
	add	r3, r7, #28
	mcr	p15, 0, r0, c7, c10, 5
.L1453:
	ldrex	r2, [r3]
	add	r2, r2, #1
	strex	r1, r2, [r3]
	cmp	r1, #0
	bne	.L1453
	mcr	p15, 0, r0, c7, c10, 5
.L1371:
	mov	r2, fp
	add	r1, r8, #32
	mov	r0, r9
.LEHB29:
	bl	_ZNSt8_Rb_treeISt10shared_ptrIN7asiopal9IResourceEES3_St9_IdentityIS3_ESt4lessIS3_ESaIS3_EE16_M_insert_uniqueIS3_EESt4pairISt17_Rb_tree_iteratorIS3_EbEOT_(PLT)
.LEHE29:
	ldr	r0, [sp, #80]
	cmp	r0, #0
	beq	.L1385
	bl	_ZNSt16_Sp_counted_baseILN9__gnu_cxx12_Lock_policyE1EE10_M_releaseEv(PLT)
.L1385:
	stm	r6, {r4, r7}
	b	.L1306
.L1311:
	ldr	r2, [r3, #28]
	str	r0, [sp, #68]
	add	r2, r2, #1
	str	r5, [sp, #72]
	str	r2, [r3, #28]
.L1313:
	ldr	r3, [r5, #28]
	add	r3, r3, #1
	str	r3, [r5, #28]
	b	.L1314
.L1345:
	ldr	r2, [r5, #28]
	ldr	r3, [r7, #148]
	ldr	r1, [r7, #144]
	add	r2, r2, #1
	cmp	r3, #0
	str	r2, [r5, #28]
	str	r3, [sp, #56]
	str	r1, [sp, #52]
	ldrne	r2, [r3, #28]
	addne	r2, r2, #1
	strne	r2, [r3, #28]
	b	.L1347
.L1322:
	ldr	r9, [sp, #48]
	str	r5, [r5, #4]
	cmp	r9, #0
	beq	.L1471
	ldr	r2, [sp, #20]
	cmp	r2, #0
	beq	.L1324
	add	r3, r9, #32
	mcr	p15, 0, r0, c7, c10, 5
.L1458:
	ldrex	r2, [r3]
	add	r2, r2, #1
	strex	r1, r2, [r3]
	cmp	r1, #0
	bne	.L1458
	mcr	p15, 0, r0, c7, c10, 5
	ldr	r0, [r5, #8]
	cmp	r0, #0
	beq	.L1326
.L1462:
	add	r3, r0, #32
	mcr	p15, 0, r0, c7, c10, 5
.L1457:
	ldrex	r2, [r3]
	sub	r1, r2, #1
	strex	ip, r1, [r3]
	cmp	ip, #0
	bne	.L1457
	mcr	p15, 0, r0, c7, c10, 5
.L1329:
	cmp	r2, #1
	bne	.L1326
	mcr	p15, 0, r0, c7, c10, 5
	ldr	r3, [r0]
	ldr	r3, [r3, #12]
	blx	r3
.L1326:
	str	r9, [r5, #8]
	b	.L1316
.L1337:
	ldr	r2, [sp, #20]
	str	r3, [r3, #8]
	cmp	r2, #0
	beq	.L1472
	add	r2, r5, #32
	mcr	p15, 0, r0, c7, c10, 5
.L1456:
	ldrex	r1, [r2]
	add	r1, r1, #1
	strex	r0, r1, [r2]
	cmp	r0, #0
	bne	.L1456
	mcr	p15, 0, r0, c7, c10, 5
	ldr	r0, [r3, #12]
	cmp	r0, #0
	beq	.L1341
	add	r2, r0, #32
	mcr	p15, 0, r0, c7, c10, 5
.L1452:
	ldrex	r1, [r2]
	sub	ip, r1, #1
	strex	lr, ip, [r2]
	cmp	lr, #0
	bne	.L1452
	mcr	p15, 0, r0, c7, c10, 5
.L1387:
	cmp	r1, #1
	bne	.L1341
	str	r3, [sp, #36]
	mcr	p15, 0, r0, c7, c10, 5
	ldr	r2, [r0]
	ldr	r2, [r2, #12]
	blx	r2
	ldr	r3, [sp, #36]
.L1341:
	str	r5, [r3, #12]
	b	.L1331
.L1357:
	ldr	r3, [sp, #20]
	str	r4, [r4, #4]
	cmp	r3, #0
	beq	.L1473
	add	r3, r7, #32
	mcr	p15, 0, r0, c7, c10, 5
.L1454:
	ldrex	r2, [r3]
	add	r2, r2, #1
	strex	r1, r2, [r3]
	cmp	r1, #0
	bne	.L1454
	mcr	p15, 0, r0, c7, c10, 5
	ldr	r0, [r4, #8]
	cmp	r0, #0
	beq	.L1361
	add	r3, r0, #32
	mcr	p15, 0, r0, c7, c10, 5
.L1450:
	ldrex	r2, [r3]
	sub	r1, r2, #1
	strex	ip, r1, [r3]
	cmp	ip, #0
	bne	.L1450
	mcr	p15, 0, r0, c7, c10, 5
.L1388:
	cmp	r2, #1
	bne	.L1361
	mcr	p15, 0, r0, c7, c10, 5
	ldr	r3, [r0]
	ldr	r3, [r3, #12]
	blx	r3
.L1361:
	str	r7, [r4, #8]
	b	.L1351
.L1470:
	ldr	r3, [r7, #28]
	add	r3, r3, #1
	str	r3, [r7, #28]
	b	.L1371
.L1469:
	ldr	r3, [sp, #20]
	str	r0, [sp, #68]
	cmp	r3, #0
	str	r5, [sp, #72]
	beq	.L1313
	add	r3, r5, #28
	b	.L1312
.L1473:
	ldr	r3, [r7, #32]
	cmp	r0, #0
	add	r3, r3, #1
	str	r3, [r7, #32]
	beq	.L1361
	ldr	r2, [r0, #32]
	sub	r3, r2, #1
	str	r3, [r0, #32]
	b	.L1388
.L1472:
	ldr	r2, [r5, #32]
	cmp	r0, #0
	add	r2, r2, #1
	str	r2, [r5, #32]
	beq	.L1341
	ldr	r1, [r0, #32]
	sub	r2, r1, #1
	str	r2, [r0, #32]
	b	.L1387
.L1324:
	ldr	r2, [r9, #32]
	cmp	r3, #0
	add	r2, r2, #1
	str	r2, [r9, #32]
	mov	r0, r3
	beq	.L1326
.L1327:
	ldr	r2, [r3, #32]
	sub	r1, r2, #1
	str	r1, [r3, #32]
	b	.L1329
.L1471:
	subs	r0, r3, #0
	beq	.L1326
	ldr	r2, [sp, #20]
	cmp	r2, #0
	bne	.L1462
	b	.L1327
.L1468:
.LEHB30:
	bl	_ZSt20__throw_system_errori(PLT)
.L1389:
.L1310:
	ldr	r3, [sp, #20]
	cmp	r3, #0
	beq	.L1376
	mov	r0, r10
	bl	_ZL28__gthrw_pthread_mutex_unlockP15pthread_mutex_t(PLT)
.L1376:
	bl	__cxa_end_cleanup(PLT)
.LEHE30:
.L1393:
	mov	r0, r5
	bl	_ZdlPv(PLT)
	b	.L1310
.L1395:
	add	r3, sp, #60
	str	r3, [sp, #24]
.L1333:
	ldr	r0, [sp, #76]
	add	fp, fp, #8
	cmp	r0, fp
	beq	.L1368
	bl	_ZdlPv(PLT)
.L1368:
	ldr	r0, [sp, #48]
	cmp	r0, #0
	beq	.L1318
	bl	_ZNSt16_Sp_counted_baseILN9__gnu_cxx12_Lock_policyE1EE10_M_releaseEv(PLT)
.L1318:
	ldr	r0, [sp, #24]
	bl	_ZN7openpal6LoggerD1Ev(PLT)
	b	.L1310
.L1392:
	add	r3, sp, #60
	str	r3, [sp, #24]
	b	.L1368
.L1394:
	mov	r0, r5
	bl	_ZdlPv(PLT)
	add	r3, sp, #60
	str	r3, [sp, #24]
	b	.L1318
.L1391:
	add	r3, sp, #60
	str	r3, [sp, #24]
	b	.L1318
.L1390:
	ldr	r0, [sp, #80]
	cmp	r0, #0
	beq	.L1375
	bl	_ZNSt16_Sp_counted_baseILN9__gnu_cxx12_Lock_policyE1EE10_M_releaseEv(PLT)
.L1375:
	mov	r0, r7
	bl	_ZNSt16_Sp_counted_baseILN9__gnu_cxx12_Lock_policyE1EE10_M_releaseEv(PLT)
	b	.L1310
.L1398:
	mov	r0, r7
	bl	_ZdlPv(PLT)
.L1353:
	ldr	r0, [sp, #56]
	cmp	r0, #0
	beq	.L1355
	bl	_ZNSt16_Sp_counted_baseILN9__gnu_cxx12_Lock_policyE1EE10_M_releaseEv(PLT)
.L1355:
	ldr	r0, [sp, #80]
	cmp	r0, #0
	beq	.L1369
	bl	_ZNSt16_Sp_counted_baseILN9__gnu_cxx12_Lock_policyE1EE10_M_releaseEv(PLT)
.L1369:
	mov	r0, r5
	bl	_ZNSt16_Sp_counted_baseILN9__gnu_cxx12_Lock_policyE1EE10_M_releaseEv(PLT)
	b	.L1368
.L1397:
	b	.L1353
.L1396:
	mov	r0, r5
	bl	_ZdlPv(PLT)
	b	.L1333
.L1475:
	.align	2
.L1474:
	.word	_GLOBAL_OFFSET_TABLE_-(.LPIC102+8)
	.word	_ZL28__gthrw___pthread_key_createPjPFvPvE(GOT)
	.word	_ZTVSt23_Sp_counted_ptr_inplaceIN7openpal6Logger8SettingsESaIS2_ELN9__gnu_cxx12_Lock_policyE1EE(GOT)
	.word	_ZTISt19_Sp_make_shared_tag(GOT)
	.word	_ZTVSt23_Sp_counted_ptr_inplaceIN7asiopal8ExecutorESaIS1_ELN9__gnu_cxx12_Lock_policyE1EE(GOT)
	.word	_ZTVSt23_Sp_counted_ptr_inplaceIN8asiodnp318TCPClientIOHandlerESaIS1_ELN9__gnu_cxx12_Lock_policyE1EE(GOT)
	.word	_ZTVSt23_Sp_counted_ptr_inplaceIN8asiodnp311DNP3ChannelESaIS1_ELN9__gnu_cxx12_Lock_policyE1EE(GOT)
	.personality	__gxx_personality_v0
	.handlerdata
.LLSDA7957:
	.byte	0xff
	.byte	0xff
	.byte	0x1
	.uleb128 .LLSDACSE7957-.LLSDACSB7957
.LLSDACSB7957:
	.uleb128 .LEHB20-.LFB7957
	.uleb128 .LEHE20-.LEHB20
	.uleb128 .L1389-.LFB7957
	.uleb128 0
	.uleb128 .LEHB21-.LFB7957
	.uleb128 .LEHE21-.LEHB21
	.uleb128 .L1393-.LFB7957
	.uleb128 0
	.uleb128 .LEHB22-.LFB7957
	.uleb128 .LEHE22-.LEHB22
	.uleb128 .L1391-.LFB7957
	.uleb128 0
	.uleb128 .LEHB23-.LFB7957
	.uleb128 .LEHE23-.LEHB23
	.uleb128 .L1394-.LFB7957
	.uleb128 0
	.uleb128 .LEHB24-.LFB7957
	.uleb128 .LEHE24-.LEHB24
	.uleb128 .L1392-.LFB7957
	.uleb128 0
	.uleb128 .LEHB25-.LFB7957
	.uleb128 .LEHE25-.LEHB25
	.uleb128 .L1395-.LFB7957
	.uleb128 0
	.uleb128 .LEHB26-.LFB7957
	.uleb128 .LEHE26-.LEHB26
	.uleb128 .L1396-.LFB7957
	.uleb128 0
	.uleb128 .LEHB27-.LFB7957
	.uleb128 .LEHE27-.LEHB27
	.uleb128 .L1397-.LFB7957
	.uleb128 0
	.uleb128 .LEHB28-.LFB7957
	.uleb128 .LEHE28-.LEHB28
	.uleb128 .L1398-.LFB7957
	.uleb128 0
	.uleb128 .LEHB29-.LFB7957
	.uleb128 .LEHE29-.LEHB29
	.uleb128 .L1390-.LFB7957
	.uleb128 0
	.uleb128 .LEHB30-.LFB7957
	.uleb128 .LEHE30-.LEHB30
	.uleb128 0
	.uleb128 0
.LLSDACSE7957:
	.text
	.fnend
	.size	_ZN8asiodnp315DNP3ManagerImpl12AddTCPClientERKNSt7__cxx1112basic_stringIcSt11char_traitsIcESaIcEEEjRKN7asiopal12ChannelRetryES8_S8_tSt10shared_ptrINS_16IChannelListenerEE, .-_ZN8asiodnp315DNP3ManagerImpl12AddTCPClientERKNSt7__cxx1112basic_stringIcSt11char_traitsIcESaIcEEEjRKN7asiopal12ChannelRetryES8_S8_tSt10shared_ptrINS_16IChannelListenerEE
	.align	2
	.global	_ZN8asiodnp315DNP3ManagerImpl12AddTCPServerERKNSt7__cxx1112basic_stringIcSt11char_traitsIcESaIcEEEjRKN7asiopal12ChannelRetryES8_tSt10shared_ptrINS_16IChannelListenerEE
	.syntax unified
	.arm
	.fpu vfp
	.type	_ZN8asiodnp315DNP3ManagerImpl12AddTCPServerERKNSt7__cxx1112basic_stringIcSt11char_traitsIcESaIcEEEjRKN7asiopal12ChannelRetryES8_tSt10shared_ptrINS_16IChannelListenerEE, %function
_ZN8asiodnp315DNP3ManagerImpl12AddTCPServerERKNSt7__cxx1112basic_stringIcSt11char_traitsIcESaIcEEEjRKN7asiopal12ChannelRetryES8_tSt10shared_ptrINS_16IChannelListenerEE:
	.fnstart
.LFB7977:
	@ args = 16, pretend = 0, frame = 96
	@ frame_needed = 0, uses_anonymous_args = 0
	push	{r4, r5, r6, r7, r8, r9, r10, fp, lr}
	.save {r4, r5, r6, r7, r8, r9, r10, fp, lr}
	.pad #108
	sub	sp, sp, #108
	ldr	r4, .L1662
	ldr	ip, .L1662+4
.LPIC103:
	add	r4, pc, r4
	mov	r8, r1
	mov	fp, r3
	ldr	r1, [r4, ip]
	ldrh	r3, [sp, #152]
	ldr	r7, [r8, #144]
	cmp	r1, #0
	mov	r6, r0
	str	r1, [sp, #12]
	mov	r9, r2
	add	r10, r7, #4
	str	r3, [sp, #16]
	beq	.L1477
	mov	r0, r10
	bl	_ZL26__gthrw_pthread_mutex_lockP15pthread_mutex_t(PLT)
	cmp	r0, #0
	bne	.L1654
.L1477:
	ldrb	r3, [r7, #28]	@ zero_extendqisi2
	cmp	r3, #0
	beq	.L1478
	mov	r3, #0
	str	r3, [r6]
	str	r3, [r6, #4]
.L1479:
	ldr	r3, [sp, #12]
	cmp	r3, #0
	beq	.L1476
	mov	r0, r10
	bl	_ZL28__gthrw_pthread_mutex_unlockP15pthread_mutex_t(PLT)
.L1476:
	mov	r0, r6
	add	sp, sp, #108
	@ sp needed
	pop	{r4, r5, r6, r7, r8, r9, r10, fp, pc}
.L1478:
	str	r3, [sp, #36]
	bl	_ZNSt3_V215system_categoryEv(PLT)
	str	r0, [sp, #40]
	mov	r0, #64
.LEHB31:
	bl	_Znwj(PLT)
.LEHE31:
	ldr	r1, .L1662+8
	mov	r3, #0
	str	r3, [r0, #4]
	str	r3, [r0, #8]
	str	r3, [r0, #12]
	str	r3, [r0, #16]
	str	r3, [r0, #20]
	str	r3, [r0, #24]
	mov	r3, #1
	str	r3, [r0, #28]
	str	r3, [r0, #32]
	ldr	r3, [r4, r1]
	ldm	r9, {r1, r2}
	mov	r5, r0
	add	r3, r3, #8
	str	r3, [r0], #36
	add	r3, r5, #44
	add	r2, r1, r2
	str	r3, [r5, #36]
.LEHB32:
	bl	_ZNSt7__cxx1112basic_stringIcSt11char_traitsIcESaIcEE12_M_constructIPcEEvT_S7_St20forward_iterator_tag.isra.93(PLT)
.LEHE32:
	ldr	r3, .L1662+12
	ldr	r2, [r5]
	str	fp, [r5, #60]
	ldr	r3, [r4, r3]
	mov	r0, r5
	mov	r1, r3
	str	r3, [sp, #20]
	ldr	r3, [r2, #16]
	blx	r3
	ldm	r8, {r2, r3}
	cmp	r3, #0
	str	r3, [sp, #64]
	str	r2, [sp, #60]
	beq	.L1655
	ldr	r2, [sp, #12]
	cmp	r2, #0
	beq	.L1484
	add	r3, r3, #28
	mcr	p15, 0, r0, c7, c10, 5
.L1645:
	ldrex	r2, [r3]
	add	r2, r2, #1
	strex	r1, r2, [r3]
	cmp	r1, #0
	bne	.L1645
	add	r3, r5, #28
	mcr	p15, 0, r0, c7, c10, 5
	str	r0, [sp, #68]
	str	r5, [sp, #72]
.L1485:
	mcr	p15, 0, r0, c7, c10, 5
.L1644:
	ldrex	r2, [r3]
	add	r2, r2, #1
	strex	r1, r2, [r3]
	cmp	r1, #0
	bne	.L1644
	mcr	p15, 0, r0, c7, c10, 5
.L1487:
	mov	r0, r5
	bl	_ZNSt16_Sp_counted_baseILN9__gnu_cxx12_Lock_policyE1EE10_M_releaseEv(PLT)
	mov	r3, #0
	mov	r0, #64
	str	r3, [sp, #44]
	str	r3, [sp, #48]
	add	r9, r8, #16
.LEHB33:
	bl	_Znwj(PLT)
.LEHE33:
	add	r2, r0, #4
	ldr	r1, .L1662+16
	mov	r3, #0
	str	r3, [r0, #4]
	str	r3, [r2, #4]
	str	r3, [r2, #8]
	str	r3, [r2, #12]
	str	r3, [r2, #16]
	str	r3, [r2, #20]
	mov	r3, #1
	str	r3, [r0, #28]
	str	r3, [r0, #32]
	ldr	r3, [r4, r1]
	mov	r5, r0
	add	r3, r3, #8
	mov	r1, r9
	str	r3, [r0], #36
.LEHB34:
	bl	_ZN7asiopal8ExecutorC1ERKSt10shared_ptrINS_2IOEE(PLT)
.LEHE34:
	ldr	r3, [r5]
	str	r5, [sp, #48]
	mov	r0, r5
	ldr	r3, [r3, #16]
	ldr	r1, [sp, #20]
	blx	r3
	cmp	r0, #0
	mov	r5, r0
	str	r0, [sp, #44]
	beq	.L1489
	ldr	r3, [r0, #8]
	cmp	r3, #0
	beq	.L1495
	ldr	r2, [r3, #28]
	cmp	r2, #0
	beq	.L1495
.L1489:
	ldr	r3, [sp, #148]
	add	r5, sp, #76
	add	fp, sp, #84
	ldm	r3, {r1, r2}
	mov	r0, r5
	str	fp, [sp, #76]
	add	r2, r1, r2
.LEHB35:
	bl	_ZNSt7__cxx1112basic_stringIcSt11char_traitsIcESaIcEE12_M_constructIPcEEvT_S7_St20forward_iterator_tag.isra.93(PLT)
.LEHE35:
	ldrh	r3, [sp, #16]
	mov	r0, #660
	strh	r3, [sp, #100]	@ movhi
.LEHB36:
	bl	_Znwj(PLT)
.LEHE36:
	ldr	r1, .L1662+20
	mov	r9, r0
	mov	r3, #0
	mov	r0, #1
	str	r0, [r9, #28]
	str	r0, [r9, #32]
	str	r3, [r9, #4]
	str	r3, [r9, #8]
	str	r3, [r9, #12]
	str	r3, [r9, #16]
	str	r3, [r9, #20]
	str	r3, [r9, #24]
	ldr	r3, [r4, r1]
	mov	r0, r9
	add	r2, sp, #44
	add	r3, r3, #8
	str	r2, [sp, #28]
	str	r5, [sp]
	str	r3, [r0], #36
	mov	r3, r2
	add	r2, sp, #36
	add	r1, sp, #60
	str	r2, [sp, #4]
	ldr	r2, [sp, #156]
	str	r1, [sp, #24]
.LEHB37:
	bl	_ZN8asiodnp318TCPServerIOHandlerC1ERKN7openpal6LoggerERKSt10shared_ptrINS_16IChannelListenerEERKS5_IN7asiopal8ExecutorEERKNSA_10IPEndpointERSt10error_code(PLT)
.LEHE37:
	ldr	r3, [r9]
	ldr	r1, [sp, #20]
	mov	r0, r9
	ldr	r3, [r3, #16]
	blx	r3
	subs	r3, r0, #0
	beq	.L1504
	ldr	r0, [r3, #12]
	cmp	r0, #0
	beq	.L1510
	ldr	r2, [r0, #28]
	cmp	r2, #0
	beq	.L1510
.L1504:
	ldr	r0, [sp, #76]
	cmp	r0, fp
	beq	.L1517
	str	r3, [sp, #16]
	bl	_ZdlPv(PLT)
	ldr	r3, [sp, #16]
.L1517:
	ldr	r2, [sp, #36]
	cmp	r2, #0
	movne	r8, #0
	movne	r4, r8
	beq	.L1656
.L1518:
	mov	r0, r9
	bl	_ZNSt16_Sp_counted_baseILN9__gnu_cxx12_Lock_policyE1EE10_M_releaseEv(PLT)
	ldr	r0, [sp, #48]
	cmp	r0, #0
	beq	.L1539
	bl	_ZNSt16_Sp_counted_baseILN9__gnu_cxx12_Lock_policyE1EE10_M_releaseEv(PLT)
.L1539:
	ldr	r0, [sp, #72]
	cmp	r0, #0
	beq	.L1540
	bl	_ZNSt16_Sp_counted_baseILN9__gnu_cxx12_Lock_policyE1EE10_M_releaseEv(PLT)
.L1540:
	ldr	r0, [sp, #64]
	cmp	r0, #0
	beq	.L1541
	bl	_ZNSt16_Sp_counted_baseILN9__gnu_cxx12_Lock_policyE1EE10_M_releaseEv(PLT)
.L1541:
	cmp	r4, #0
	beq	.L1543
	cmp	r8, #0
	str	r4, [sp, #76]
	str	r8, [sp, #80]
	beq	.L1547
	ldr	r3, [sp, #12]
	cmp	r3, #0
	beq	.L1548
	add	r3, r8, #28
	mcr	p15, 0, r0, c7, c10, 5
.L1638:
	ldrex	r2, [r3]
	add	r2, r2, #1
	strex	r1, r2, [r3]
	cmp	r1, #0
	bne	.L1638
	mcr	p15, 0, r0, c7, c10, 5
.L1547:
	mov	r2, r5
	add	r1, r7, #32
	add	r0, sp, #52
.LEHB38:
	bl	_ZNSt8_Rb_treeISt10shared_ptrIN7asiopal9IResourceEES3_St9_IdentityIS3_ESt4lessIS3_ESaIS3_EE16_M_insert_uniqueIS3_EESt4pairISt17_Rb_tree_iteratorIS3_EbEOT_(PLT)
.LEHE38:
	ldr	r0, [sp, #80]
	cmp	r0, #0
	beq	.L1543
	bl	_ZNSt16_Sp_counted_baseILN9__gnu_cxx12_Lock_policyE1EE10_M_releaseEv(PLT)
.L1543:
	stm	r6, {r4, r8}
	b	.L1479
.L1484:
	ldr	r2, [r3, #28]
	str	r0, [sp, #68]
	add	r2, r2, #1
	str	r5, [sp, #72]
	str	r2, [r3, #28]
.L1486:
	ldr	r3, [r5, #28]
	add	r3, r3, #1
	str	r3, [r5, #28]
	b	.L1487
.L1495:
	ldr	r9, [sp, #48]
	str	r5, [r5, #4]
	cmp	r9, #0
	beq	.L1657
	ldr	r2, [sp, #12]
	cmp	r2, #0
	beq	.L1497
	add	r3, r9, #32
	mcr	p15, 0, r0, c7, c10, 5
.L1643:
	ldrex	r2, [r3]
	add	r2, r2, #1
	strex	r1, r2, [r3]
	cmp	r1, #0
	bne	.L1643
	mcr	p15, 0, r0, c7, c10, 5
	ldr	r0, [r5, #8]
	cmp	r0, #0
	beq	.L1499
.L1647:
	add	r3, r0, #32
	mcr	p15, 0, r0, c7, c10, 5
.L1642:
	ldrex	r2, [r3]
	sub	r1, r2, #1
	strex	ip, r1, [r3]
	cmp	ip, #0
	bne	.L1642
	mcr	p15, 0, r0, c7, c10, 5
.L1502:
	cmp	r2, #1
	bne	.L1499
	mcr	p15, 0, r0, c7, c10, 5
	ldr	r3, [r0]
	ldr	r3, [r3, #12]
	blx	r3
.L1499:
	str	r9, [r5, #8]
	b	.L1489
.L1510:
	ldr	r2, [sp, #12]
	str	r3, [r3, #8]
	cmp	r2, #0
	beq	.L1658
	add	r2, r9, #32
	mcr	p15, 0, r0, c7, c10, 5
.L1641:
	ldrex	r1, [r2]
	add	r1, r1, #1
	strex	r0, r1, [r2]
	cmp	r0, #0
	bne	.L1641
	mcr	p15, 0, r0, c7, c10, 5
	ldr	r0, [r3, #12]
	cmp	r0, #0
	beq	.L1514
	add	r2, r0, #32
	mcr	p15, 0, r0, c7, c10, 5
.L1637:
	ldrex	r1, [r2]
	sub	ip, r1, #1
	strex	lr, ip, [r2]
	cmp	lr, #0
	bne	.L1637
	mcr	p15, 0, r0, c7, c10, 5
.L1562:
	cmp	r1, #1
	bne	.L1514
	str	r3, [sp, #16]
	mcr	p15, 0, r0, c7, c10, 5
	ldr	r2, [r0]
	ldr	r2, [r2, #12]
	blx	r2
	ldr	r3, [sp, #16]
.L1514:
	str	r9, [r3, #12]
	b	.L1504
.L1656:
	ldr	r2, [sp, #12]
	str	r3, [sp, #76]
	cmp	r2, #0
	str	r9, [sp, #80]
	beq	.L1659
	add	r3, r9, #28
	mcr	p15, 0, r0, c7, c10, 5
.L1640:
	ldrex	r2, [r3]
	add	r2, r2, #1
	strex	r1, r2, [r3]
	cmp	r1, #0
	bne	.L1640
	mcr	p15, 0, r0, c7, c10, 5
	ldr	r3, [r8, #148]
	ldr	r2, [r8, #144]
	cmp	r3, #0
	str	r2, [sp, #52]
	str	r3, [sp, #56]
	beq	.L1520
	add	r3, r3, #28
	mcr	p15, 0, r0, c7, c10, 5
.L1636:
	ldrex	r2, [r3]
	add	r2, r2, #1
	strex	r1, r2, [r3]
	cmp	r1, #0
	bne	.L1636
	mcr	p15, 0, r0, c7, c10, 5
.L1520:
	mov	r0, #96
.LEHB39:
	bl	_Znwj(PLT)
.LEHE39:
	ldr	r1, .L1662+24
	mov	r3, #0
	str	r3, [r0, #4]
	str	r3, [r0, #8]
	str	r3, [r0, #12]
	str	r3, [r0, #16]
	str	r3, [r0, #20]
	str	r3, [r0, #24]
	mov	r3, #1
	str	r3, [r0, #28]
	str	r3, [r0, #32]
	ldr	r3, [r4, r1]
	mov	r8, r0
	add	r3, r3, #8
	str	r3, [r0], #36
	add	r3, sp, #52
	str	r3, [sp]
	ldr	r2, [sp, #28]
	mov	r3, r5
	ldr	r1, [sp, #24]
.LEHB40:
	bl	_ZN8asiodnp311DNP3ChannelC1ERKN7openpal6LoggerERKSt10shared_ptrIN7asiopal8ExecutorEERKS5_INS_9IOHandlerEERKS5_INS6_16IResourceManagerEE(PLT)
.LEHE40:
	ldr	r3, [r8]
	ldr	r1, [sp, #20]
	mov	r0, r8
	ldr	r3, [r3, #16]
	blx	r3
	subs	r4, r0, #0
	beq	.L1536
	ldr	r3, [r4, #8]
	cmp	r3, #0
	beq	.L1530
	ldr	r2, [r3, #28]
	cmp	r2, #0
	beq	.L1530
.L1536:
	ldr	r0, [sp, #56]
	cmp	r0, #0
	beq	.L1537
	bl	_ZNSt16_Sp_counted_baseILN9__gnu_cxx12_Lock_policyE1EE10_M_releaseEv(PLT)
.L1537:
	ldr	r0, [sp, #80]
	cmp	r0, #0
	beq	.L1518
	bl	_ZNSt16_Sp_counted_baseILN9__gnu_cxx12_Lock_policyE1EE10_M_releaseEv(PLT)
	b	.L1518
.L1548:
	ldr	r3, [r8, #28]
	add	r3, r3, #1
	str	r3, [r8, #28]
	b	.L1547
.L1659:
	ldr	r2, [r9, #28]
	ldr	r3, [r8, #148]
	ldr	r1, [r8, #144]
	add	r2, r2, #1
	cmp	r3, #0
	str	r2, [r9, #28]
	str	r3, [sp, #56]
	str	r1, [sp, #52]
	ldrne	r2, [r3, #28]
	addne	r2, r2, #1
	strne	r2, [r3, #28]
	b	.L1520
.L1655:
	ldr	r3, [sp, #12]
	str	r0, [sp, #68]
	cmp	r3, #0
	str	r5, [sp, #72]
	beq	.L1486
	add	r3, r5, #28
	b	.L1485
.L1530:
	ldr	r2, [sp, #12]
	str	r4, [r4, #4]
	cmp	r2, #0
	beq	.L1660
	add	r3, r8, #32
	mcr	p15, 0, r0, c7, c10, 5
.L1639:
	ldrex	r2, [r3]
	add	r2, r2, #1
	strex	r1, r2, [r3]
	cmp	r1, #0
	bne	.L1639
	mcr	p15, 0, r0, c7, c10, 5
	ldr	r0, [r4, #8]
	cmp	r0, #0
	beq	.L1533
	add	r3, r0, #32
	mcr	p15, 0, r0, c7, c10, 5
.L1635:
	ldrex	r2, [r3]
	sub	r1, r2, #1
	strex	ip, r1, [r3]
	cmp	ip, #0
	bne	.L1635
	mcr	p15, 0, r0, c7, c10, 5
.L1563:
	cmp	r2, #1
	beq	.L1661
.L1533:
	str	r8, [r4, #8]
	b	.L1536
.L1658:
	ldr	r2, [r9, #32]
	cmp	r0, #0
	add	r2, r2, #1
	str	r2, [r9, #32]
	beq	.L1514
	ldr	r1, [r0, #32]
	sub	r2, r1, #1
	str	r2, [r0, #32]
	b	.L1562
.L1497:
	ldr	r2, [r9, #32]
	cmp	r3, #0
	add	r2, r2, #1
	str	r2, [r9, #32]
	mov	r0, r3
	beq	.L1499
.L1500:
	ldr	r2, [r3, #32]
	sub	r1, r2, #1
	str	r1, [r3, #32]
	b	.L1502
.L1657:
	subs	r0, r3, #0
	beq	.L1499
	ldr	r2, [sp, #12]
	cmp	r2, #0
	bne	.L1647
	b	.L1500
.L1660:
	ldr	r2, [r8, #32]
	subs	r0, r3, #0
	add	r3, r2, #1
	str	r3, [r8, #32]
	beq	.L1533
	ldr	r2, [r0, #32]
	sub	r3, r2, #1
	str	r3, [r0, #32]
	b	.L1563
.L1661:
	mcr	p15, 0, r0, c7, c10, 5
	ldr	r3, [r0]
	ldr	r3, [r3, #12]
	blx	r3
	b	.L1533
.L1654:
.LEHB41:
	bl	_ZSt20__throw_system_errori(PLT)
.L1573:
	mov	r0, r8
	bl	_ZdlPv(PLT)
.L1526:
	ldr	r0, [sp, #56]
	cmp	r0, #0
	beq	.L1528
	bl	_ZNSt16_Sp_counted_baseILN9__gnu_cxx12_Lock_policyE1EE10_M_releaseEv(PLT)
.L1528:
	ldr	r0, [sp, #80]
	cmp	r0, #0
	beq	.L1545
	bl	_ZNSt16_Sp_counted_baseILN9__gnu_cxx12_Lock_policyE1EE10_M_releaseEv(PLT)
.L1545:
	mov	r0, r9
	bl	_ZNSt16_Sp_counted_baseILN9__gnu_cxx12_Lock_policyE1EE10_M_releaseEv(PLT)
.L1544:
	ldr	r0, [sp, #48]
	cmp	r0, #0
	beq	.L1491
	bl	_ZNSt16_Sp_counted_baseILN9__gnu_cxx12_Lock_policyE1EE10_M_releaseEv(PLT)
.L1491:
	ldr	r0, [sp, #24]
	bl	_ZN7openpal6LoggerD1Ev(PLT)
.L1483:
	ldr	r3, [sp, #12]
	cmp	r3, #0
	beq	.L1554
	mov	r0, r10
	bl	_ZL28__gthrw_pthread_mutex_unlockP15pthread_mutex_t(PLT)
.L1554:
	bl	__cxa_end_cleanup(PLT)
.LEHE41:
.L1572:
	b	.L1526
.L1569:
	mov	r0, r5
	bl	_ZdlPv(PLT)
	add	r3, sp, #60
	str	r3, [sp, #24]
	b	.L1491
.L1566:
	add	r3, sp, #60
	str	r3, [sp, #24]
	b	.L1491
.L1564:
	b	.L1483
.L1568:
	mov	r0, r5
	bl	_ZdlPv(PLT)
	b	.L1483
.L1565:
	ldr	r0, [sp, #80]
	cmp	r0, #0
	beq	.L1552
	bl	_ZNSt16_Sp_counted_baseILN9__gnu_cxx12_Lock_policyE1EE10_M_releaseEv(PLT)
.L1552:
	cmp	r8, #0
	beq	.L1483
	mov	r0, r8
	bl	_ZNSt16_Sp_counted_baseILN9__gnu_cxx12_Lock_policyE1EE10_M_releaseEv(PLT)
	b	.L1483
.L1571:
	mov	r0, r9
	bl	_ZdlPv(PLT)
.L1506:
	ldr	r0, [sp, #76]
	add	r5, r5, #8
	cmp	r0, r5
	beq	.L1544
	bl	_ZdlPv(PLT)
	b	.L1544
.L1570:
	add	r3, sp, #60
	str	r3, [sp, #24]
	b	.L1506
.L1567:
	add	r3, sp, #60
	str	r3, [sp, #24]
	b	.L1544
.L1663:
	.align	2
.L1662:
	.word	_GLOBAL_OFFSET_TABLE_-(.LPIC103+8)
	.word	_ZL28__gthrw___pthread_key_createPjPFvPvE(GOT)
	.word	_ZTVSt23_Sp_counted_ptr_inplaceIN7openpal6Logger8SettingsESaIS2_ELN9__gnu_cxx12_Lock_policyE1EE(GOT)
	.word	_ZTISt19_Sp_make_shared_tag(GOT)
	.word	_ZTVSt23_Sp_counted_ptr_inplaceIN7asiopal8ExecutorESaIS1_ELN9__gnu_cxx12_Lock_policyE1EE(GOT)
	.word	_ZTVSt23_Sp_counted_ptr_inplaceIN8asiodnp318TCPServerIOHandlerESaIS1_ELN9__gnu_cxx12_Lock_policyE1EE(GOT)
	.word	_ZTVSt23_Sp_counted_ptr_inplaceIN8asiodnp311DNP3ChannelESaIS1_ELN9__gnu_cxx12_Lock_policyE1EE(GOT)
	.personality	__gxx_personality_v0
	.handlerdata
.LLSDA7977:
	.byte	0xff
	.byte	0xff
	.byte	0x1
	.uleb128 .LLSDACSE7977-.LLSDACSB7977
.LLSDACSB7977:
	.uleb128 .LEHB31-.LFB7977
	.uleb128 .LEHE31-.LEHB31
	.uleb128 .L1564-.LFB7977
	.uleb128 0
	.uleb128 .LEHB32-.LFB7977
	.uleb128 .LEHE32-.LEHB32
	.uleb128 .L1568-.LFB7977
	.uleb128 0
	.uleb128 .LEHB33-.LFB7977
	.uleb128 .LEHE33-.LEHB33
	.uleb128 .L1566-.LFB7977
	.uleb128 0
	.uleb128 .LEHB34-.LFB7977
	.uleb128 .LEHE34-.LEHB34
	.uleb128 .L1569-.LFB7977
	.uleb128 0
	.uleb128 .LEHB35-.LFB7977
	.uleb128 .LEHE35-.LEHB35
	.uleb128 .L1567-.LFB7977
	.uleb128 0
	.uleb128 .LEHB36-.LFB7977
	.uleb128 .LEHE36-.LEHB36
	.uleb128 .L1570-.LFB7977
	.uleb128 0
	.uleb128 .LEHB37-.LFB7977
	.uleb128 .LEHE37-.LEHB37
	.uleb128 .L1571-.LFB7977
	.uleb128 0
	.uleb128 .LEHB38-.LFB7977
	.uleb128 .LEHE38-.LEHB38
	.uleb128 .L1565-.LFB7977
	.uleb128 0
	.uleb128 .LEHB39-.LFB7977
	.uleb128 .LEHE39-.LEHB39
	.uleb128 .L1572-.LFB7977
	.uleb128 0
	.uleb128 .LEHB40-.LFB7977
	.uleb128 .LEHE40-.LEHB40
	.uleb128 .L1573-.LFB7977
	.uleb128 0
	.uleb128 .LEHB41-.LFB7977
	.uleb128 .LEHE41-.LEHB41
	.uleb128 0
	.uleb128 0
.LLSDACSE7977:
	.text
	.fnend
	.size	_ZN8asiodnp315DNP3ManagerImpl12AddTCPServerERKNSt7__cxx1112basic_stringIcSt11char_traitsIcESaIcEEEjRKN7asiopal12ChannelRetryES8_tSt10shared_ptrINS_16IChannelListenerEE, .-_ZN8asiodnp315DNP3ManagerImpl12AddTCPServerERKNSt7__cxx1112basic_stringIcSt11char_traitsIcESaIcEEEjRKN7asiopal12ChannelRetryES8_tSt10shared_ptrINS_16IChannelListenerEE
	.align	2
	.global	_ZN8asiodnp315DNP3ManagerImpl9AddSerialERKNSt7__cxx1112basic_stringIcSt11char_traitsIcESaIcEEEjRKN7asiopal12ChannelRetryENS9_14SerialSettingsESt10shared_ptrINS_16IChannelListenerEE
	.syntax unified
	.arm
	.fpu vfp
	.type	_ZN8asiodnp315DNP3ManagerImpl9AddSerialERKNSt7__cxx1112basic_stringIcSt11char_traitsIcESaIcEEEjRKN7asiopal12ChannelRetryENS9_14SerialSettingsESt10shared_ptrINS_16IChannelListenerEE, %function
_ZN8asiodnp315DNP3ManagerImpl9AddSerialERKNSt7__cxx1112basic_stringIcSt11char_traitsIcESaIcEEEjRKN7asiopal12ChannelRetryENS9_14SerialSettingsESt10shared_ptrINS_16IChannelListenerEE:
	.fnstart
.LFB7988:
	@ args = 12, pretend = 0, frame = 56
	@ frame_needed = 0, uses_anonymous_args = 0
	push	{r4, r5, r6, r7, r8, r9, r10, fp, lr}
	.save {r4, r5, r6, r7, r8, r9, r10, fp, lr}
	mov	r7, r1
	ldr	r4, .L1830
	ldr	ip, .L1830+4
.LPIC104:
	add	r4, pc, r4
	.pad #68
	sub	sp, sp, #68
	ldr	r1, [r4, ip]
	ldr	r8, [r7, #144]
	cmp	r1, #0
	str	r1, [sp, #12]
	mov	r6, r0
	mov	r10, r2
	mov	fp, r3
	add	r9, r8, #4
	beq	.L1665
	mov	r0, r9
	bl	_ZL26__gthrw_pthread_mutex_lockP15pthread_mutex_t(PLT)
	cmp	r0, #0
	bne	.L1824
.L1665:
	ldrb	r3, [r8, #28]	@ zero_extendqisi2
	cmp	r3, #0
	beq	.L1666
	mov	r3, #0
	str	r3, [r6]
	str	r3, [r6, #4]
.L1667:
	ldr	r3, [sp, #12]
	cmp	r3, #0
	beq	.L1664
	mov	r0, r9
	bl	_ZL28__gthrw_pthread_mutex_unlockP15pthread_mutex_t(PLT)
.L1664:
	mov	r0, r6
	add	sp, sp, #68
	@ sp needed
	pop	{r4, r5, r6, r7, r8, r9, r10, fp, pc}
.L1666:
	mov	r0, #64
.LEHB42:
	bl	_Znwj(PLT)
.LEHE42:
	ldr	r1, .L1830+8
	mov	r3, #0
	str	r3, [r0, #4]
	str	r3, [r0, #8]
	str	r3, [r0, #12]
	str	r3, [r0, #16]
	str	r3, [r0, #20]
	str	r3, [r0, #24]
	mov	r3, #1
	str	r3, [r0, #28]
	str	r3, [r0, #32]
	ldr	r3, [r4, r1]
	ldm	r10, {r1, r2}
	mov	r5, r0
	add	r3, r3, #8
	str	r3, [r0], #36
	add	r3, r5, #44
	add	r2, r1, r2
	str	r3, [r5, #36]
.LEHB43:
	bl	_ZNSt7__cxx1112basic_stringIcSt11char_traitsIcESaIcEE12_M_constructIPcEEvT_S7_St20forward_iterator_tag.isra.93(PLT)
.LEHE43:
	ldr	r3, .L1830+12
	ldr	r2, [r5]
	str	fp, [r5, #60]
	ldr	r3, [r4, r3]
	mov	r0, r5
	mov	r1, r3
	str	r3, [sp, #16]
	ldr	r3, [r2, #16]
	blx	r3
	ldm	r7, {r2, r3}
	cmp	r3, #0
	str	r3, [sp, #52]
	str	r2, [sp, #48]
	beq	.L1825
	ldr	r2, [sp, #12]
	cmp	r2, #0
	beq	.L1672
	add	r3, r3, #28
	mcr	p15, 0, r0, c7, c10, 5
.L1816:
	ldrex	r2, [r3]
	add	r2, r2, #1
	strex	r1, r2, [r3]
	cmp	r1, #0
	bne	.L1816
	add	r3, r5, #28
	mcr	p15, 0, r0, c7, c10, 5
	str	r0, [sp, #56]
	str	r5, [sp, #60]
.L1673:
	mcr	p15, 0, r0, c7, c10, 5
.L1815:
	ldrex	r2, [r3]
	add	r2, r2, #1
	strex	r1, r2, [r3]
	cmp	r1, #0
	bne	.L1815
	mcr	p15, 0, r0, c7, c10, 5
.L1675:
	mov	r0, r5
	bl	_ZNSt16_Sp_counted_baseILN9__gnu_cxx12_Lock_policyE1EE10_M_releaseEv(PLT)
	mov	r3, #0
	mov	r0, #64
	str	r3, [sp, #24]
	str	r3, [sp, #28]
	add	r10, r7, #16
.LEHB44:
	bl	_Znwj(PLT)
.LEHE44:
	add	r2, r0, #4
	ldr	r1, .L1830+16
	mov	r3, #0
	str	r3, [r0, #4]
	str	r3, [r2, #4]
	str	r3, [r2, #8]
	str	r3, [r2, #12]
	str	r3, [r2, #16]
	str	r3, [r2, #20]
	mov	r3, #1
	str	r3, [r0, #28]
	str	r3, [r0, #32]
	ldr	r3, [r4, r1]
	mov	r5, r0
	add	r3, r3, #8
	mov	r1, r10
	str	r3, [r0], #36
.LEHB45:
	bl	_ZN7asiopal8ExecutorC1ERKSt10shared_ptrINS_2IOEE(PLT)
.LEHE45:
	ldr	r3, [r5]
	str	r5, [sp, #28]
	mov	r0, r5
	ldr	r3, [r3, #16]
	ldr	r1, [sp, #16]
	blx	r3
	cmp	r0, #0
	mov	r5, r0
	str	r0, [sp, #24]
	beq	.L1677
	ldr	r3, [r0, #8]
	cmp	r3, #0
	beq	.L1683
	ldr	r2, [r3, #28]
	cmp	r2, #0
	beq	.L1683
.L1677:
	mov	r0, #712
.LEHB46:
	bl	_Znwj(PLT)
.LEHE46:
	ldr	r1, .L1830+20
	mov	r5, r0
	mov	r3, #0
	mov	r0, #1
	ldr	r2, [sp, #108]
	str	r0, [r5, #28]
	str	r0, [r5, #32]
	str	r3, [r5, #4]
	str	r3, [r5, #8]
	str	r3, [r5, #12]
	str	r3, [r5, #16]
	str	r3, [r5, #20]
	str	r3, [r5, #24]
	ldr	r3, [r4, r1]
	mov	r0, r5
	str	r2, [sp, #4]
	ldr	r2, [sp, #104]
	add	r3, r3, #8
	add	r10, sp, #24
	add	fp, sp, #48
	str	r2, [sp]
	mov	r1, fp
	str	r3, [r0], #40
	ldr	r2, [sp, #112]
	mov	r3, r10
.LEHB47:
	bl	_ZN8asiodnp315SerialIOHandlerC1ERKN7openpal6LoggerERKSt10shared_ptrINS_16IChannelListenerEERKS5_IN7asiopal8ExecutorEERKNSA_12ChannelRetryERKNSA_14SerialSettingsE(PLT)
.LEHE47:
	ldr	r3, [r5]
	ldr	r1, [sp, #16]
	mov	r0, r5
	ldr	r3, [r3, #16]
	blx	r3
	subs	r3, r0, #0
	beq	.L1692
	ldr	r0, [r3, #12]
	cmp	r0, #0
	beq	.L1696
	ldr	r2, [r0, #28]
	cmp	r2, #0
	beq	.L1696
.L1692:
	ldr	r2, [sp, #12]
	str	r3, [sp, #40]
	cmp	r2, #0
	str	r5, [sp, #44]
	beq	.L1703
	add	r3, r5, #28
	mcr	p15, 0, r0, c7, c10, 5
.L1811:
	ldrex	r2, [r3]
	add	r2, r2, #1
	strex	r1, r2, [r3]
	cmp	r1, #0
	bne	.L1811
	mcr	p15, 0, r0, c7, c10, 5
	ldr	r3, [r7, #148]
	ldr	r2, [r7, #144]
	cmp	r3, #0
	str	r2, [sp, #32]
	str	r3, [sp, #36]
	beq	.L1705
	add	r3, r3, #28
	mcr	p15, 0, r0, c7, c10, 5
.L1807:
	ldrex	r2, [r3]
	add	r2, r2, #1
	strex	r1, r2, [r3]
	cmp	r1, #0
	bne	.L1807
	mcr	p15, 0, r0, c7, c10, 5
.L1705:
	mov	r0, #96
.LEHB48:
	bl	_Znwj(PLT)
.LEHE48:
	ldr	r1, .L1830+24
	mov	r7, r0
	mov	r3, #0
	mov	r0, #1
	str	r0, [r7, #28]
	str	r0, [r7, #32]
	str	r3, [r7, #4]
	str	r3, [r7, #8]
	str	r3, [r7, #12]
	str	r3, [r7, #16]
	str	r3, [r7, #20]
	str	r3, [r7, #24]
	ldr	r3, [r4, r1]
	mov	r0, r7
	add	r3, r3, #8
	add	r1, sp, #32
	add	r4, sp, #40
	str	r3, [r0], #36
	mov	r2, r10
	str	r1, [sp]
	mov	r3, r4
	mov	r1, fp
.LEHB49:
	bl	_ZN8asiodnp311DNP3ChannelC1ERKN7openpal6LoggerERKSt10shared_ptrIN7asiopal8ExecutorEERKS5_INS_9IOHandlerEERKS5_INS6_16IResourceManagerEE(PLT)
.LEHE49:
	ldr	r3, [r7]
	ldr	r1, [sp, #16]
	mov	r0, r7
	ldr	r3, [r3, #16]
	blx	r3
	subs	r10, r0, #0
	beq	.L1709
	ldr	r0, [r10, #8]
	cmp	r0, #0
	beq	.L1715
	ldr	r3, [r0, #28]
	cmp	r3, #0
	beq	.L1715
.L1709:
	ldr	r0, [sp, #36]
	cmp	r0, #0
	beq	.L1722
	bl	_ZNSt16_Sp_counted_baseILN9__gnu_cxx12_Lock_policyE1EE10_M_releaseEv(PLT)
.L1722:
	ldr	r0, [sp, #44]
	cmp	r0, #0
	beq	.L1736
	bl	_ZNSt16_Sp_counted_baseILN9__gnu_cxx12_Lock_policyE1EE10_M_releaseEv(PLT)
.L1736:
	mov	r0, r5
	bl	_ZNSt16_Sp_counted_baseILN9__gnu_cxx12_Lock_policyE1EE10_M_releaseEv(PLT)
	ldr	r0, [sp, #28]
	cmp	r0, #0
	beq	.L1723
	bl	_ZNSt16_Sp_counted_baseILN9__gnu_cxx12_Lock_policyE1EE10_M_releaseEv(PLT)
.L1723:
	ldr	r0, [sp, #60]
	cmp	r0, #0
	beq	.L1724
	bl	_ZNSt16_Sp_counted_baseILN9__gnu_cxx12_Lock_policyE1EE10_M_releaseEv(PLT)
.L1724:
	ldr	r0, [sp, #52]
	cmp	r0, #0
	beq	.L1725
	bl	_ZNSt16_Sp_counted_baseILN9__gnu_cxx12_Lock_policyE1EE10_M_releaseEv(PLT)
.L1725:
	cmp	r10, #0
	beq	.L1742
	ldr	r3, [sp, #12]
	str	r10, [sp, #48]
	cmp	r3, #0
	str	r7, [sp, #52]
	beq	.L1826
	add	r3, r7, #28
	mcr	p15, 0, r0, c7, c10, 5
.L1809:
	ldrex	r2, [r3]
	add	r2, r2, #1
	strex	r1, r2, [r3]
	cmp	r1, #0
	bne	.L1809
	mcr	p15, 0, r0, c7, c10, 5
.L1728:
	mov	r2, fp
	add	r1, r8, #32
	mov	r0, r4
.LEHB50:
	bl	_ZNSt8_Rb_treeISt10shared_ptrIN7asiopal9IResourceEES3_St9_IdentityIS3_ESt4lessIS3_ESaIS3_EE16_M_insert_uniqueIS3_EESt4pairISt17_Rb_tree_iteratorIS3_EbEOT_(PLT)
.LEHE50:
	ldr	r0, [sp, #52]
	cmp	r0, #0
	beq	.L1742
	bl	_ZNSt16_Sp_counted_baseILN9__gnu_cxx12_Lock_policyE1EE10_M_releaseEv(PLT)
.L1742:
	str	r10, [r6]
	str	r7, [r6, #4]
	b	.L1667
.L1672:
	ldr	r2, [r3, #28]
	add	r2, r2, #1
	str	r2, [r3, #28]
	str	r0, [sp, #56]
	str	r5, [sp, #60]
.L1674:
	ldr	r3, [r5, #28]
	add	r3, r3, #1
	str	r3, [r5, #28]
	b	.L1675
.L1703:
	ldr	r2, [r5, #28]
	ldr	r3, [r7, #148]
	ldr	r1, [r7, #144]
	add	r2, r2, #1
	cmp	r3, #0
	str	r2, [r5, #28]
	str	r3, [sp, #36]
	str	r1, [sp, #32]
	ldrne	r2, [r3, #28]
	addne	r2, r2, #1
	strne	r2, [r3, #28]
	b	.L1705
.L1683:
	ldr	r10, [sp, #28]
	str	r5, [r5, #4]
	cmp	r10, #0
	beq	.L1827
	ldr	r2, [sp, #12]
	cmp	r2, #0
	beq	.L1685
	add	r3, r10, #32
	mcr	p15, 0, r0, c7, c10, 5
.L1814:
	ldrex	r2, [r3]
	add	r2, r2, #1
	strex	r1, r2, [r3]
	cmp	r1, #0
	bne	.L1814
	mcr	p15, 0, r0, c7, c10, 5
	ldr	r0, [r5, #8]
	cmp	r0, #0
	beq	.L1687
.L1818:
	add	r3, r0, #32
	mcr	p15, 0, r0, c7, c10, 5
.L1813:
	ldrex	r2, [r3]
	sub	r1, r2, #1
	strex	ip, r1, [r3]
	cmp	ip, #0
	bne	.L1813
	mcr	p15, 0, r0, c7, c10, 5
.L1690:
	cmp	r2, #1
	bne	.L1687
	mcr	p15, 0, r0, c7, c10, 5
	ldr	r3, [r0]
	ldr	r3, [r3, #12]
	blx	r3
.L1687:
	str	r10, [r5, #8]
	b	.L1677
.L1696:
	ldr	r2, [sp, #12]
	str	r3, [r3, #8]
	cmp	r2, #0
	beq	.L1828
	add	r2, r5, #32
	mcr	p15, 0, r0, c7, c10, 5
.L1812:
	ldrex	r1, [r2]
	add	r1, r1, #1
	strex	r0, r1, [r2]
	cmp	r0, #0
	bne	.L1812
	mcr	p15, 0, r0, c7, c10, 5
	ldr	r0, [r3, #12]
	cmp	r0, #0
	beq	.L1700
	add	r2, r0, #32
	mcr	p15, 0, r0, c7, c10, 5
.L1808:
	ldrex	r1, [r2]
	sub	ip, r1, #1
	strex	lr, ip, [r2]
	cmp	lr, #0
	bne	.L1808
	mcr	p15, 0, r0, c7, c10, 5
.L1744:
	cmp	r1, #1
	bne	.L1700
	str	r3, [sp, #20]
	mcr	p15, 0, r0, c7, c10, 5
	ldr	r2, [r0]
	ldr	r2, [r2, #12]
	blx	r2
	ldr	r3, [sp, #20]
.L1700:
	str	r5, [r3, #12]
	b	.L1692
.L1715:
	ldr	r3, [sp, #12]
	str	r10, [r10, #4]
	cmp	r3, #0
	beq	.L1829
	add	r3, r7, #32
	mcr	p15, 0, r0, c7, c10, 5
.L1810:
	ldrex	r2, [r3]
	add	r2, r2, #1
	strex	r1, r2, [r3]
	cmp	r1, #0
	bne	.L1810
	mcr	p15, 0, r0, c7, c10, 5
	ldr	r0, [r10, #8]
	cmp	r0, #0
	beq	.L1719
	add	r3, r0, #32
	mcr	p15, 0, r0, c7, c10, 5
.L1806:
	ldrex	r2, [r3]
	sub	r1, r2, #1
	strex	ip, r1, [r3]
	cmp	ip, #0
	bne	.L1806
	mcr	p15, 0, r0, c7, c10, 5
.L1745:
	cmp	r2, #1
	bne	.L1719
	mcr	p15, 0, r0, c7, c10, 5
	ldr	r3, [r0]
	ldr	r3, [r3, #12]
	blx	r3
.L1719:
	str	r7, [r10, #8]
	b	.L1709
.L1826:
	ldr	r3, [r7, #28]
	add	r3, r3, #1
	str	r3, [r7, #28]
	b	.L1728
.L1825:
	ldr	r3, [sp, #12]
	str	r0, [sp, #56]
	cmp	r3, #0
	str	r5, [sp, #60]
	beq	.L1674
	add	r3, r5, #28
	b	.L1673
.L1685:
	ldr	r2, [r10, #32]
	cmp	r3, #0
	add	r2, r2, #1
	str	r2, [r10, #32]
	mov	r0, r3
	beq	.L1687
.L1688:
	ldr	r2, [r3, #32]
	sub	r1, r2, #1
	str	r1, [r3, #32]
	b	.L1690
.L1828:
	ldr	r2, [r5, #32]
	cmp	r0, #0
	add	r2, r2, #1
	str	r2, [r5, #32]
	beq	.L1700
	ldr	r1, [r0, #32]
	sub	r2, r1, #1
	str	r2, [r0, #32]
	b	.L1744
.L1829:
	ldr	r3, [r7, #32]
	cmp	r0, #0
	add	r3, r3, #1
	str	r3, [r7, #32]
	beq	.L1719
	ldr	r2, [r0, #32]
	sub	r3, r2, #1
	str	r3, [r0, #32]
	b	.L1745
.L1827:
	subs	r0, r3, #0
	beq	.L1687
	ldr	r2, [sp, #12]
	cmp	r2, #0
	bne	.L1818
	b	.L1688
.L1824:
.LEHB51:
	bl	_ZSt20__throw_system_errori(PLT)
.L1747:
	ldr	r0, [sp, #52]
	cmp	r0, #0
	beq	.L1732
	bl	_ZNSt16_Sp_counted_baseILN9__gnu_cxx12_Lock_policyE1EE10_M_releaseEv(PLT)
.L1732:
	mov	r0, r7
	bl	_ZNSt16_Sp_counted_baseILN9__gnu_cxx12_Lock_policyE1EE10_M_releaseEv(PLT)
.L1671:
	ldr	r3, [sp, #12]
	cmp	r3, #0
	beq	.L1733
	mov	r0, r9
	bl	_ZL28__gthrw_pthread_mutex_unlockP15pthread_mutex_t(PLT)
.L1733:
	bl	__cxa_end_cleanup(PLT)
.LEHE51:
.L1754:
	mov	r0, r7
	bl	_ZdlPv(PLT)
.L1711:
	ldr	r0, [sp, #36]
	cmp	r0, #0
	beq	.L1713
	bl	_ZNSt16_Sp_counted_baseILN9__gnu_cxx12_Lock_policyE1EE10_M_releaseEv(PLT)
.L1713:
	ldr	r0, [sp, #44]
	cmp	r0, #0
	beq	.L1726
	bl	_ZNSt16_Sp_counted_baseILN9__gnu_cxx12_Lock_policyE1EE10_M_releaseEv(PLT)
.L1726:
	mov	r0, r5
	bl	_ZNSt16_Sp_counted_baseILN9__gnu_cxx12_Lock_policyE1EE10_M_releaseEv(PLT)
.L1694:
	ldr	r0, [sp, #28]
	cmp	r0, #0
	beq	.L1679
	bl	_ZNSt16_Sp_counted_baseILN9__gnu_cxx12_Lock_policyE1EE10_M_releaseEv(PLT)
.L1679:
	mov	r0, fp
	bl	_ZN7openpal6LoggerD1Ev(PLT)
	b	.L1671
.L1753:
	b	.L1711
.L1752:
	mov	r0, r5
	bl	_ZdlPv(PLT)
	b	.L1694
.L1749:
	add	fp, sp, #48
	b	.L1694
.L1751:
	mov	r0, r5
	bl	_ZdlPv(PLT)
	add	fp, sp, #48
	b	.L1679
.L1748:
	add	fp, sp, #48
	b	.L1679
.L1746:
	b	.L1671
.L1750:
	mov	r0, r5
	bl	_ZdlPv(PLT)
	b	.L1671
.L1831:
	.align	2
.L1830:
	.word	_GLOBAL_OFFSET_TABLE_-(.LPIC104+8)
	.word	_ZL28__gthrw___pthread_key_createPjPFvPvE(GOT)
	.word	_ZTVSt23_Sp_counted_ptr_inplaceIN7openpal6Logger8SettingsESaIS2_ELN9__gnu_cxx12_Lock_policyE1EE(GOT)
	.word	_ZTISt19_Sp_make_shared_tag(GOT)
	.word	_ZTVSt23_Sp_counted_ptr_inplaceIN7asiopal8ExecutorESaIS1_ELN9__gnu_cxx12_Lock_policyE1EE(GOT)
	.word	_ZTVSt23_Sp_counted_ptr_inplaceIN8asiodnp315SerialIOHandlerESaIS1_ELN9__gnu_cxx12_Lock_policyE1EE(GOT)
	.word	_ZTVSt23_Sp_counted_ptr_inplaceIN8asiodnp311DNP3ChannelESaIS1_ELN9__gnu_cxx12_Lock_policyE1EE(GOT)
	.personality	__gxx_personality_v0
	.handlerdata
.LLSDA7988:
	.byte	0xff
	.byte	0xff
	.byte	0x1
	.uleb128 .LLSDACSE7988-.LLSDACSB7988
.LLSDACSB7988:
	.uleb128 .LEHB42-.LFB7988
	.uleb128 .LEHE42-.LEHB42
	.uleb128 .L1746-.LFB7988
	.uleb128 0
	.uleb128 .LEHB43-.LFB7988
	.uleb128 .LEHE43-.LEHB43
	.uleb128 .L1750-.LFB7988
	.uleb128 0
	.uleb128 .LEHB44-.LFB7988
	.uleb128 .LEHE44-.LEHB44
	.uleb128 .L1748-.LFB7988
	.uleb128 0
	.uleb128 .LEHB45-.LFB7988
	.uleb128 .LEHE45-.LEHB45
	.uleb128 .L1751-.LFB7988
	.uleb128 0
	.uleb128 .LEHB46-.LFB7988
	.uleb128 .LEHE46-.LEHB46
	.uleb128 .L1749-.LFB7988
	.uleb128 0
	.uleb128 .LEHB47-.LFB7988
	.uleb128 .LEHE47-.LEHB47
	.uleb128 .L1752-.LFB7988
	.uleb128 0
	.uleb128 .LEHB48-.LFB7988
	.uleb128 .LEHE48-.LEHB48
	.uleb128 .L1753-.LFB7988
	.uleb128 0
	.uleb128 .LEHB49-.LFB7988
	.uleb128 .LEHE49-.LEHB49
	.uleb128 .L1754-.LFB7988
	.uleb128 0
	.uleb128 .LEHB50-.LFB7988
	.uleb128 .LEHE50-.LEHB50
	.uleb128 .L1747-.LFB7988
	.uleb128 0
	.uleb128 .LEHB51-.LFB7988
	.uleb128 .LEHE51-.LEHB51
	.uleb128 0
	.uleb128 0
.LLSDACSE7988:
	.text
	.fnend
	.size	_ZN8asiodnp315DNP3ManagerImpl9AddSerialERKNSt7__cxx1112basic_stringIcSt11char_traitsIcESaIcEEEjRKN7asiopal12ChannelRetryENS9_14SerialSettingsESt10shared_ptrINS_16IChannelListenerEE, .-_ZN8asiodnp315DNP3ManagerImpl9AddSerialERKNSt7__cxx1112basic_stringIcSt11char_traitsIcESaIcEEEjRKN7asiopal12ChannelRetryENS9_14SerialSettingsESt10shared_ptrINS_16IChannelListenerEE
	.align	2
	.global	_ZN8asiodnp315DNP3ManagerImpl14CreateListenerENSt7__cxx1112basic_stringIcSt11char_traitsIcESaIcEEEN7openpal10LogFiltersEN7asiopal10IPEndpointERKSt10shared_ptrINS_16IListenCallbacksEERSt10error_code
	.syntax unified
	.arm
	.fpu vfp
	.type	_ZN8asiodnp315DNP3ManagerImpl14CreateListenerENSt7__cxx1112basic_stringIcSt11char_traitsIcESaIcEEEN7openpal10LogFiltersEN7asiopal10IPEndpointERKSt10shared_ptrINS_16IListenCallbacksEERSt10error_code, %function
_ZN8asiodnp315DNP3ManagerImpl14CreateListenerENSt7__cxx1112basic_stringIcSt11char_traitsIcESaIcEEEN7openpal10LogFiltersEN7asiopal10IPEndpointERKSt10shared_ptrINS_16IListenCallbacksEERSt10error_code:
	.fnstart
.LFB8001:
	@ args = 12, pretend = 0, frame = 40
	@ frame_needed = 0, uses_anonymous_args = 0
	push	{r4, r5, r6, r7, r8, r9, r10, fp, lr}
	.save {r4, r5, r6, r7, r8, r9, r10, fp, lr}
	mov	r7, r1
	ldr	r5, .L1968
	ldr	ip, .L1968+4
.LPIC105:
	add	r5, pc, r5
	.pad #60
	sub	sp, sp, #60
	ldr	r1, [r5, ip]
	ldr	r8, [r7, #144]
	cmp	r1, #0
	str	r1, [sp, #20]
	mov	r4, r0
	mov	r10, r2
	mov	fp, r3
	add	r9, r8, #4
	beq	.L1833
	mov	r0, r9
	bl	_ZL26__gthrw_pthread_mutex_lockP15pthread_mutex_t(PLT)
	cmp	r0, #0
	bne	.L1962
.L1833:
	ldrb	r3, [r8, #28]	@ zero_extendqisi2
	cmp	r3, #0
	beq	.L1834
	ldr	r3, [sp, #20]
	cmp	r3, #0
	mov	r3, #0
	str	r3, [r4]
	str	r3, [r4, #4]
	beq	.L1836
.L1835:
	mov	r0, r9
	bl	_ZL28__gthrw_pthread_mutex_unlockP15pthread_mutex_t(PLT)
	ldr	r7, [r4]
.L1880:
	cmp	r7, #0
	beq	.L1836
	mov	r0, r4
	add	sp, sp, #60
	@ sp needed
	pop	{r4, r5, r6, r7, r8, r9, r10, fp, pc}
.L1834:
	mov	r0, #64
.LEHB52:
	bl	_Znwj(PLT)
.LEHE52:
	ldr	r1, .L1968+8
	mov	r3, #0
	str	r3, [r0, #4]
	str	r3, [r0, #8]
	str	r3, [r0, #12]
	str	r3, [r0, #16]
	str	r3, [r0, #20]
	str	r3, [r0, #24]
	mov	r3, #1
	str	r3, [r0, #28]
	str	r3, [r0, #32]
	ldr	r3, [r5, r1]
	ldm	r10, {r1, r2}
	mov	r6, r0
	add	r3, r3, #8
	str	r3, [r0], #36
	add	r3, r6, #44
	add	r2, r1, r2
	str	r3, [r6, #36]
.LEHB53:
	bl	_ZNSt7__cxx1112basic_stringIcSt11char_traitsIcESaIcEE12_M_constructIPcEEvT_S7_St20forward_iterator_tag.isra.93(PLT)
.LEHE53:
	ldr	r3, .L1968+12
	ldr	r2, [r6]
	str	fp, [r6, #60]
	ldr	fp, [r5, r3]
	mov	r0, r6
	ldr	r3, [r2, #16]
	mov	r1, fp
	blx	r3
	ldm	r7, {r2, r3}
	cmp	r3, #0
	str	r3, [sp, #44]
	str	r2, [sp, #40]
	beq	.L1963
	ldr	r2, [sp, #20]
	cmp	r2, #0
	beq	.L1841
	add	r3, r3, #28
	mcr	p15, 0, r0, c7, c10, 5
.L1955:
	ldrex	r2, [r3]
	add	r2, r2, #1
	strex	r1, r2, [r3]
	cmp	r1, #0
	bne	.L1955
	add	r3, r6, #28
	mcr	p15, 0, r0, c7, c10, 5
	str	r0, [sp, #48]
	str	r6, [sp, #52]
.L1842:
	mcr	p15, 0, r0, c7, c10, 5
.L1954:
	ldrex	r2, [r3]
	add	r2, r2, #1
	strex	r1, r2, [r3]
	cmp	r1, #0
	bne	.L1954
	mcr	p15, 0, r0, c7, c10, 5
.L1844:
	mov	r0, r6
	bl	_ZNSt16_Sp_counted_baseILN9__gnu_cxx12_Lock_policyE1EE10_M_releaseEv(PLT)
	mov	r3, #0
	mov	r0, #64
	str	r3, [sp, #32]
	str	r3, [sp, #36]
	add	r10, r7, #16
.LEHB54:
	bl	_Znwj(PLT)
.LEHE54:
	add	r2, r0, #4
	ldr	r1, .L1968+16
	mov	r3, #0
	str	r3, [r0, #4]
	str	r3, [r2, #4]
	str	r3, [r2, #8]
	str	r3, [r2, #12]
	str	r3, [r2, #16]
	str	r3, [r2, #20]
	mov	r3, #1
	str	r3, [r0, #28]
	str	r3, [r0, #32]
	ldr	r3, [r5, r1]
	mov	r6, r0
	add	r3, r3, #8
	mov	r1, r10
	str	r3, [r0], #36
.LEHB55:
	bl	_ZN7asiopal8ExecutorC1ERKSt10shared_ptrINS_2IOEE(PLT)
.LEHE55:
	ldr	r3, [r6]
	str	r6, [sp, #36]
	mov	r0, r6
	ldr	r3, [r3, #16]
	mov	r1, fp
	blx	r3
	cmp	r0, #0
	mov	r6, r0
	str	r0, [sp, #32]
	beq	.L1846
	ldr	r3, [r0, #8]
	cmp	r3, #0
	beq	.L1852
	ldr	r2, [r3, #28]
	cmp	r2, #0
	beq	.L1852
.L1846:
	mov	r0, #200
	add	r7, r7, #144
.LEHB56:
	bl	_Znwj(PLT)
.LEHE56:
	ldr	r1, .L1968+20
	mov	r6, r0
	mov	r3, #0
	mov	r0, #1
	ldr	r2, [sp, #104]
	str	r0, [r6, #28]
	str	r0, [r6, #32]
	str	r3, [r6, #4]
	str	r3, [r6, #8]
	str	r3, [r6, #12]
	str	r3, [r6, #16]
	str	r3, [r6, #20]
	str	r3, [r6, #24]
	ldr	r3, [r5, r1]
	mov	r0, r6
	str	r2, [sp, #8]
	ldr	r2, [sp, #100]
	add	r3, r3, #8
	add	r10, sp, #40
	str	r2, [sp]
	str	r7, [sp, #4]
	mov	r1, r10
	str	r3, [r0], #40
	add	r2, sp, #32
	ldr	r3, [sp, #96]
.LEHB57:
	bl	_ZN8asiodnp315MasterTCPServerC1ERKN7openpal6LoggerERKSt10shared_ptrIN7asiopal8ExecutorEERKNS6_10IPEndpointERKS5_INS_16IListenCallbacksEERKS5_INS6_15ResourceManagerEERSt10error_code(PLT)
.LEHE57:
	ldr	r3, [r6]
	mov	r1, fp
	mov	r0, r6
	ldr	r3, [r3, #16]
	blx	r3
	subs	r7, r0, #0
	beq	.L1861
	ldr	r0, [r7, #8]
	cmp	r0, #0
	beq	.L1867
	ldr	r3, [r0, #28]
	cmp	r3, #0
	beq	.L1867
.L1861:
	ldr	r3, [sp, #104]
	ldr	r3, [r3]
	cmp	r3, #0
	beq	.L1964
.L1872:
	ldr	r0, [sp, #36]
	cmp	r0, #0
	beq	.L1874
	bl	_ZNSt16_Sp_counted_baseILN9__gnu_cxx12_Lock_policyE1EE10_M_releaseEv(PLT)
.L1874:
	ldr	r0, [sp, #52]
	cmp	r0, #0
	beq	.L1875
	bl	_ZNSt16_Sp_counted_baseILN9__gnu_cxx12_Lock_policyE1EE10_M_releaseEv(PLT)
.L1875:
	ldr	r0, [sp, #44]
	cmp	r0, #0
	beq	.L1876
	bl	_ZNSt16_Sp_counted_baseILN9__gnu_cxx12_Lock_policyE1EE10_M_releaseEv(PLT)
.L1876:
	cmp	r7, #0
	beq	.L1890
	ldr	r3, [sp, #20]
	str	r7, [sp, #40]
	cmp	r3, #0
	str	r6, [sp, #44]
	beq	.L1965
	add	r3, r6, #28
	mcr	p15, 0, r0, c7, c10, 5
.L1950:
	ldrex	r2, [r3]
	add	r2, r2, #1
	strex	r1, r2, [r3]
	cmp	r1, #0
	bne	.L1950
	mcr	p15, 0, r0, c7, c10, 5
.L1878:
	mov	r2, r10
	add	r1, r8, #32
	add	r0, sp, #24
.LEHB58:
	bl	_ZNSt8_Rb_treeISt10shared_ptrIN7asiopal9IResourceEES3_St9_IdentityIS3_ESt4lessIS3_ESaIS3_EE16_M_insert_uniqueIS3_EESt4pairISt17_Rb_tree_iteratorIS3_EbEOT_(PLT)
.LEHE58:
	ldr	r0, [sp, #44]
	cmp	r0, #0
	beq	.L1890
	bl	_ZNSt16_Sp_counted_baseILN9__gnu_cxx12_Lock_policyE1EE10_M_releaseEv(PLT)
.L1890:
	ldr	r3, [sp, #20]
	str	r7, [r4]
	cmp	r3, #0
	str	r6, [r4, #4]
	bne	.L1835
	b	.L1880
.L1836:
	ldr	r1, [sp, #104]
	ldr	r3, .L1968+24
	mov	r2, #0
	str	r2, [r1]
	ldr	r3, [r5, r3]
	mov	r0, r4
	str	r3, [r1, #4]
	add	sp, sp, #60
	@ sp needed
	pop	{r4, r5, r6, r7, r8, r9, r10, fp, pc}
.L1841:
	ldr	r2, [r3, #28]
	add	r2, r2, #1
	str	r2, [r3, #28]
	str	r0, [sp, #48]
	str	r6, [sp, #52]
.L1843:
	ldr	r3, [r6, #28]
	add	r3, r3, #1
	str	r3, [r6, #28]
	b	.L1844
.L1964:
	mov	r0, r7
.LEHB59:
	bl	_ZN7asiopal9TCPServer11StartAcceptEv(PLT)
.LEHE59:
	b	.L1872
.L1867:
	ldr	r3, [sp, #20]
	str	r7, [r7, #4]
	cmp	r3, #0
	beq	.L1966
	add	r3, r6, #32
	mcr	p15, 0, r0, c7, c10, 5
.L1951:
	ldrex	r2, [r3]
	add	r2, r2, #1
	strex	r1, r2, [r3]
	cmp	r1, #0
	bne	.L1951
	mcr	p15, 0, r0, c7, c10, 5
	ldr	r0, [r7, #8]
	cmp	r0, #0
	beq	.L1870
	add	r3, r0, #32
	mcr	p15, 0, r0, c7, c10, 5
.L1949:
	ldrex	r2, [r3]
	sub	r1, r2, #1
	strex	ip, r1, [r3]
	cmp	ip, #0
	bne	.L1949
	mcr	p15, 0, r0, c7, c10, 5
.L1886:
	cmp	r2, #1
	bne	.L1870
	mcr	p15, 0, r0, c7, c10, 5
	ldr	r3, [r0]
	ldr	r3, [r3, #12]
	blx	r3
.L1870:
	str	r6, [r7, #8]
	b	.L1861
.L1852:
	ldr	r10, [sp, #36]
	str	r6, [r6, #4]
	cmp	r10, #0
	beq	.L1967
	ldr	r2, [sp, #20]
	cmp	r2, #0
	beq	.L1854
	add	r3, r10, #32
	mcr	p15, 0, r0, c7, c10, 5
.L1953:
	ldrex	r2, [r3]
	add	r2, r2, #1
	strex	r1, r2, [r3]
	cmp	r1, #0
	bne	.L1953
	mcr	p15, 0, r0, c7, c10, 5
	ldr	r0, [r6, #8]
	cmp	r0, #0
	beq	.L1856
.L1957:
	add	r3, r0, #32
	mcr	p15, 0, r0, c7, c10, 5
.L1952:
	ldrex	r2, [r3]
	sub	r1, r2, #1
	strex	ip, r1, [r3]
	cmp	ip, #0
	bne	.L1952
	mcr	p15, 0, r0, c7, c10, 5
.L1859:
	cmp	r2, #1
	bne	.L1856
	mcr	p15, 0, r0, c7, c10, 5
	ldr	r3, [r0]
	ldr	r3, [r3, #12]
	blx	r3
.L1856:
	str	r10, [r6, #8]
	b	.L1846
.L1965:
	ldr	r3, [r6, #28]
	add	r3, r3, #1
	str	r3, [r6, #28]
	b	.L1878
.L1963:
	ldr	r3, [sp, #20]
	str	r0, [sp, #48]
	cmp	r3, #0
	str	r6, [sp, #52]
	beq	.L1843
	add	r3, r6, #28
	b	.L1842
.L1854:
	ldr	r2, [r10, #32]
	cmp	r3, #0
	add	r2, r2, #1
	str	r2, [r10, #32]
	mov	r0, r3
	beq	.L1856
.L1857:
	ldr	r2, [r3, #32]
	sub	r1, r2, #1
	str	r1, [r3, #32]
	b	.L1859
.L1966:
	ldr	r3, [r6, #32]
	cmp	r0, #0
	add	r3, r3, #1
	str	r3, [r6, #32]
	beq	.L1870
	ldr	r2, [r0, #32]
	sub	r3, r2, #1
	str	r3, [r0, #32]
	b	.L1886
.L1967:
	subs	r0, r3, #0
	beq	.L1856
	ldr	r2, [sp, #20]
	cmp	r2, #0
	bne	.L1957
	b	.L1857
.L1962:
.LEHB60:
	bl	_ZSt20__throw_system_errori(PLT)
.L1898:
	mov	r0, r6
	bl	_ZNSt16_Sp_counted_baseILN9__gnu_cxx12_Lock_policyE1EE10_M_releaseEv(PLT)
.L1863:
	ldr	r0, [sp, #36]
	cmp	r0, #0
	beq	.L1848
	bl	_ZNSt16_Sp_counted_baseILN9__gnu_cxx12_Lock_policyE1EE10_M_releaseEv(PLT)
.L1848:
	mov	r0, r10
	bl	_ZN7openpal6LoggerD1Ev(PLT)
.L1840:
	ldr	r3, [sp, #20]
	cmp	r3, #0
	beq	.L1883
	mov	r0, r9
	bl	_ZL28__gthrw_pthread_mutex_unlockP15pthread_mutex_t(PLT)
.L1883:
	bl	__cxa_end_cleanup(PLT)
.LEHE60:
.L1893:
	ldr	r0, [sp, #44]
	cmp	r0, #0
	beq	.L1882
	bl	_ZNSt16_Sp_counted_baseILN9__gnu_cxx12_Lock_policyE1EE10_M_releaseEv(PLT)
.L1882:
	mov	r0, r6
	bl	_ZNSt16_Sp_counted_baseILN9__gnu_cxx12_Lock_policyE1EE10_M_releaseEv(PLT)
	b	.L1840
.L1892:
	b	.L1840
.L1896:
	mov	r0, r6
	bl	_ZdlPv(PLT)
	b	.L1840
.L1899:
	mov	r0, r6
	bl	_ZdlPv(PLT)
	b	.L1863
.L1895:
	add	r10, sp, #40
	b	.L1863
.L1897:
	mov	r0, r6
	bl	_ZdlPv(PLT)
	add	r10, sp, #40
	b	.L1848
.L1894:
	add	r10, sp, #40
	b	.L1848
.L1969:
	.align	2
.L1968:
	.word	_GLOBAL_OFFSET_TABLE_-(.LPIC105+8)
	.word	_ZL28__gthrw___pthread_key_createPjPFvPvE(GOT)
	.word	_ZTVSt23_Sp_counted_ptr_inplaceIN7openpal6Logger8SettingsESaIS2_ELN9__gnu_cxx12_Lock_policyE1EE(GOT)
	.word	_ZTISt19_Sp_make_shared_tag(GOT)
	.word	_ZTVSt23_Sp_counted_ptr_inplaceIN7asiopal8ExecutorESaIS1_ELN9__gnu_cxx12_Lock_policyE1EE(GOT)
	.word	_ZTVSt23_Sp_counted_ptr_inplaceIN8asiodnp315MasterTCPServerESaIS1_ELN9__gnu_cxx12_Lock_policyE1EE(GOT)
	.word	_ZN8asiodnp313ErrorCategory8instanceE(GOT)
	.personality	__gxx_personality_v0
	.handlerdata
.LLSDA8001:
	.byte	0xff
	.byte	0xff
	.byte	0x1
	.uleb128 .LLSDACSE8001-.LLSDACSB8001
.LLSDACSB8001:
	.uleb128 .LEHB52-.LFB8001
	.uleb128 .LEHE52-.LEHB52
	.uleb128 .L1892-.LFB8001
	.uleb128 0
	.uleb128 .LEHB53-.LFB8001
	.uleb128 .LEHE53-.LEHB53
	.uleb128 .L1896-.LFB8001
	.uleb128 0
	.uleb128 .LEHB54-.LFB8001
	.uleb128 .LEHE54-.LEHB54
	.uleb128 .L1894-.LFB8001
	.uleb128 0
	.uleb128 .LEHB55-.LFB8001
	.uleb128 .LEHE55-.LEHB55
	.uleb128 .L1897-.LFB8001
	.uleb128 0
	.uleb128 .LEHB56-.LFB8001
	.uleb128 .LEHE56-.LEHB56
	.uleb128 .L1895-.LFB8001
	.uleb128 0
	.uleb128 .LEHB57-.LFB8001
	.uleb128 .LEHE57-.LEHB57
	.uleb128 .L1899-.LFB8001
	.uleb128 0
	.uleb128 .LEHB58-.LFB8001
	.uleb128 .LEHE58-.LEHB58
	.uleb128 .L1893-.LFB8001
	.uleb128 0
	.uleb128 .LEHB59-.LFB8001
	.uleb128 .LEHE59-.LEHB59
	.uleb128 .L1898-.LFB8001
	.uleb128 0
	.uleb128 .LEHB60-.LFB8001
	.uleb128 .LEHE60-.LEHB60
	.uleb128 0
	.uleb128 0
.LLSDACSE8001:
	.text
	.fnend
	.size	_ZN8asiodnp315DNP3ManagerImpl14CreateListenerENSt7__cxx1112basic_stringIcSt11char_traitsIcESaIcEEEN7openpal10LogFiltersEN7asiopal10IPEndpointERKSt10shared_ptrINS_16IListenCallbacksEERSt10error_code, .-_ZN8asiodnp315DNP3ManagerImpl14CreateListenerENSt7__cxx1112basic_stringIcSt11char_traitsIcESaIcEEEN7openpal10LogFiltersEN7asiopal10IPEndpointERKSt10shared_ptrINS_16IListenCallbacksEERSt10error_code
	.section	.text._ZNSt8_Rb_treeISt10shared_ptrIN7asiopal9IResourceEES3_St9_IdentityIS3_ESt4lessIS3_ESaIS3_EE8_M_eraseEPSt13_Rb_tree_nodeIS3_E,"axG",%progbits,_ZNSt8_Rb_treeISt10shared_ptrIN7asiopal9IResourceEES3_St9_IdentityIS3_ESt4lessIS3_ESaIS3_EE8_M_eraseEPSt13_Rb_tree_nodeIS3_E,comdat
	.align	2
	.weak	_ZNSt8_Rb_treeISt10shared_ptrIN7asiopal9IResourceEES3_St9_IdentityIS3_ESt4lessIS3_ESaIS3_EE8_M_eraseEPSt13_Rb_tree_nodeIS3_E
	.syntax unified
	.arm
	.fpu vfp
	.type	_ZNSt8_Rb_treeISt10shared_ptrIN7asiopal9IResourceEES3_St9_IdentityIS3_ESt4lessIS3_ESaIS3_EE8_M_eraseEPSt13_Rb_tree_nodeIS3_E, %function
_ZNSt8_Rb_treeISt10shared_ptrIN7asiopal9IResourceEES3_St9_IdentityIS3_ESt4lessIS3_ESaIS3_EE8_M_eraseEPSt13_Rb_tree_nodeIS3_E:
	.fnstart
.LFB11568:
	@ args = 0, pretend = 0, frame = 24
	@ frame_needed = 0, uses_anonymous_args = 0
	push	{r4, r5, r6, r7, r8, r9, r10, fp, lr}
	sub	sp, sp, #28
	ldr	r6, .L2136
	subs	r3, r1, #0
	str	r3, [sp, #20]
.LPIC106:
	add	r6, pc, r6
	beq	.L1970
	mov	r5, r0
.L2051:
	ldr	r3, [r3, #12]
	cmp	r3, #0
	strne	r3, [sp, #4]
	beq	.L2044
.L2045:
	ldr	r3, [r3, #12]
	cmp	r3, #0
	strne	r3, [sp, #8]
	beq	.L2038
.L2039:
	ldr	r9, [r3, #12]
	cmp	r9, #0
	strne	r9, [sp, #16]
	movne	r3, r9
	beq	.L2032
.L2033:
	ldr	r9, [r3, #12]
	cmp	r9, #0
	strne	r9, [sp, #12]
	movne	r3, r9
	beq	.L2026
.L2027:
	ldr	r10, [r3, #12]
	cmp	r10, #0
	beq	.L2020
.L2021:
	ldr	fp, [r10, #12]
	cmp	fp, #0
	beq	.L2014
.L2015:
	ldr	r9, [fp, #12]
	cmp	r9, #0
	beq	.L2008
.L2009:
	ldr	r4, [r9, #12]
	cmp	r4, #0
	bne	.L2003
	b	.L2002
.L2126:
	add	r3, r7, #28
	mcr	p15, 0, r0, c7, c10, 5
.L2105:
	ldrex	r2, [r3]
	sub	r1, r2, #1
	strex	r0, r1, [r3]
	cmp	r0, #0
	bne	.L2105
	cmp	r2, #1
	mcr	p15, 0, r0, c7, c10, 5
	beq	.L2125
.L1997:
	mov	r0, r4
	bl	_ZdlPv(PLT)
	subs	r4, r8, #0
	beq	.L2002
.L2003:
	ldr	r1, [r4, #12]
	mov	r0, r5
	bl	_ZNSt8_Rb_treeISt10shared_ptrIN7asiopal9IResourceEES3_St9_IdentityIS3_ESt4lessIS3_ESaIS3_EE8_M_eraseEPSt13_Rb_tree_nodeIS3_E(PLT)
	ldr	r7, [r4, #20]
	ldr	r8, [r4, #8]
	cmp	r7, #0
	beq	.L1997
	ldr	r3, .L2136+4
	ldr	r3, [r6, r3]
	cmp	r3, #0
	bne	.L2126
	ldr	r3, [r7, #28]
	cmp	r3, #1
	sub	r3, r3, #1
	str	r3, [r7, #28]
	bne	.L1997
	ldr	r3, [r7]
	mov	r0, r7
	ldr	r3, [r3, #8]
	blx	r3
	mcr	p15, 0, r0, c7, c10, 5
	ldr	r2, [r7, #32]
	sub	r3, r2, #1
	str	r3, [r7, #32]
.L2052:
	cmp	r2, #1
	bne	.L1997
	ldr	r3, [r7]
	mov	r0, r7
	ldr	r3, [r3, #12]
	blx	r3
	mov	r0, r4
	bl	_ZdlPv(PLT)
	subs	r4, r8, #0
	bne	.L2003
.L2002:
	ldr	r4, [r9, #20]
	ldr	r7, [r9, #8]
	cmp	r4, #0
	beq	.L2004
	ldr	r3, .L2136+4
	ldr	r3, [r6, r3]
	cmp	r3, #0
	beq	.L2005
	add	r3, r4, #28
	mcr	p15, 0, r0, c7, c10, 5
.L2104:
	ldrex	r2, [r3]
	sub	r1, r2, #1
	strex	r0, r1, [r3]
	cmp	r0, #0
	bne	.L2104
	cmp	r2, #1
	mcr	p15, 0, r0, c7, c10, 5
	beq	.L2127
.L2004:
	mov	r0, r9
	bl	_ZdlPv(PLT)
	subs	r9, r7, #0
	bne	.L2009
.L2008:
	ldr	r4, [fp, #20]
	ldr	r7, [fp, #8]
	cmp	r4, #0
	beq	.L2010
	ldr	r3, .L2136+4
	ldr	r3, [r6, r3]
	cmp	r3, #0
	beq	.L2011
	add	r3, r4, #28
	mcr	p15, 0, r0, c7, c10, 5
.L2103:
	ldrex	r2, [r3]
	sub	r1, r2, #1
	strex	r0, r1, [r3]
	cmp	r0, #0
	bne	.L2103
	cmp	r2, #1
	mcr	p15, 0, r0, c7, c10, 5
	beq	.L2128
.L2010:
	mov	r0, fp
	bl	_ZdlPv(PLT)
	subs	fp, r7, #0
	bne	.L2015
.L2014:
	ldr	r4, [r10, #20]
	ldr	r7, [r10, #8]
	cmp	r4, #0
	beq	.L2016
	ldr	r3, .L2136+4
	ldr	r3, [r6, r3]
	cmp	r3, #0
	beq	.L2017
	add	r3, r4, #28
	mcr	p15, 0, r0, c7, c10, 5
.L2102:
	ldrex	r2, [r3]
	sub	r1, r2, #1
	strex	r0, r1, [r3]
	cmp	r0, #0
	bne	.L2102
	cmp	r2, #1
	mcr	p15, 0, r0, c7, c10, 5
	beq	.L2129
.L2016:
	mov	r0, r10
	bl	_ZdlPv(PLT)
	subs	r10, r7, #0
	bne	.L2021
	ldr	r3, [sp, #12]
.L2020:
	ldr	r4, [r3, #20]
	ldr	r7, [r3, #8]
	cmp	r4, #0
	beq	.L2022
	ldr	r3, .L2136+4
	ldr	r3, [r6, r3]
	cmp	r3, #0
	beq	.L2023
	add	r3, r4, #28
	mcr	p15, 0, r0, c7, c10, 5
.L2101:
	ldrex	r2, [r3]
	sub	r1, r2, #1
	strex	r0, r1, [r3]
	cmp	r0, #0
	bne	.L2101
	cmp	r2, #1
	mcr	p15, 0, r0, c7, c10, 5
	beq	.L2130
.L2022:
	ldr	r0, [sp, #12]
	bl	_ZdlPv(PLT)
	subs	r3, r7, #0
	str	r3, [sp, #12]
	bne	.L2027
	ldr	r3, [sp, #16]
.L2026:
	ldr	r4, [r3, #20]
	ldr	r7, [r3, #8]
	cmp	r4, #0
	beq	.L2028
	ldr	r2, .L2136+4
	add	r3, r4, #28
	ldr	r2, [r6, r2]
	cmp	r2, #0
	beq	.L2029
	mcr	p15, 0, r0, c7, c10, 5
.L2100:
	ldrex	r2, [r3]
	sub	r1, r2, #1
	strex	r0, r1, [r3]
	cmp	r0, #0
	bne	.L2100
	cmp	r2, #1
	mcr	p15, 0, r0, c7, c10, 5
	beq	.L2131
.L2028:
	ldr	r0, [sp, #16]
	bl	_ZdlPv(PLT)
	subs	r3, r7, #0
	str	r3, [sp, #16]
	bne	.L2033
	ldr	r3, [sp, #8]
.L2032:
	ldr	r4, [r3, #20]
	ldr	r7, [r3, #8]
	cmp	r4, #0
	beq	.L2034
	ldr	r2, .L2136+4
	add	r3, r4, #28
	ldr	r2, [r6, r2]
	cmp	r2, #0
	beq	.L2035
	mcr	p15, 0, r0, c7, c10, 5
.L2099:
	ldrex	r2, [r3]
	sub	r1, r2, #1
	strex	r0, r1, [r3]
	cmp	r0, #0
	bne	.L2099
	cmp	r2, #1
	mcr	p15, 0, r0, c7, c10, 5
	beq	.L2132
.L2034:
	ldr	r0, [sp, #8]
	bl	_ZdlPv(PLT)
	subs	r3, r7, #0
	str	r3, [sp, #8]
	bne	.L2039
.L2038:
	ldr	r3, [sp, #4]
	ldr	r4, [r3, #20]
	ldr	r7, [r3, #8]
	cmp	r4, #0
	beq	.L2040
	ldr	r2, .L2136+4
	add	r3, r4, #28
	ldr	r2, [r6, r2]
	cmp	r2, #0
	beq	.L2041
	mcr	p15, 0, r0, c7, c10, 5
.L2098:
	ldrex	r2, [r3]
	sub	r1, r2, #1
	strex	r0, r1, [r3]
	cmp	r0, #0
	bne	.L2098
	cmp	r2, #1
	mcr	p15, 0, r0, c7, c10, 5
	beq	.L2133
.L2040:
	ldr	r0, [sp, #4]
	bl	_ZdlPv(PLT)
	subs	r3, r7, #0
	str	r3, [sp, #4]
	bne	.L2045
.L2044:
	ldr	r3, [sp, #20]
	ldr	r4, [r3, #20]
	ldr	r7, [r3, #8]
	cmp	r4, #0
	beq	.L2046
	ldr	r2, .L2136+4
	add	r3, r4, #28
	ldr	r2, [r6, r2]
	cmp	r2, #0
	beq	.L2047
	mcr	p15, 0, r0, c7, c10, 5
.L2097:
	ldrex	r2, [r3]
	sub	r1, r2, #1
	strex	r0, r1, [r3]
	cmp	r0, #0
	bne	.L2097
	cmp	r2, #1
	mcr	p15, 0, r0, c7, c10, 5
	beq	.L2134
.L2046:
	ldr	r0, [sp, #20]
	bl	_ZdlPv(PLT)
	subs	r3, r7, #0
	str	r3, [sp, #20]
	bne	.L2051
.L1970:
	add	sp, sp, #28
	@ sp needed
	pop	{r4, r5, r6, r7, r8, r9, r10, fp, pc}
.L2125:
	ldr	r3, [r7]
	mov	r0, r7
	ldr	r3, [r3, #8]
	blx	r3
	add	r3, r7, #32
	mcr	p15, 0, r0, c7, c10, 5
	mcr	p15, 0, r0, c7, c10, 5
.L2096:
	ldrex	r2, [r3]
	sub	r1, r2, #1
	strex	r0, r1, [r3]
	cmp	r0, #0
	bne	.L2096
	mcr	p15, 0, r0, c7, c10, 5
	b	.L2052
.L2005:
	ldr	r3, [r4, #28]
	cmp	r3, #1
	sub	r3, r3, #1
	str	r3, [r4, #28]
	bne	.L2004
	ldr	r3, [r4]
	mov	r0, r4
	ldr	r3, [r3, #8]
	blx	r3
	mcr	p15, 0, r0, c7, c10, 5
	ldr	r2, [r4, #32]
	sub	r3, r2, #1
	str	r3, [r4, #32]
.L2053:
	cmp	r2, #1
	bne	.L2004
	ldr	r3, [r4]
	mov	r0, r4
	ldr	r3, [r3, #12]
	blx	r3
	b	.L2004
.L2127:
	ldr	r3, [r4]
	mov	r0, r4
	ldr	r3, [r3, #8]
	blx	r3
	add	r3, r4, #32
	mcr	p15, 0, r0, c7, c10, 5
	mcr	p15, 0, r0, c7, c10, 5
.L2095:
	ldrex	r2, [r3]
	sub	r1, r2, #1
	strex	r0, r1, [r3]
	cmp	r0, #0
	bne	.L2095
	mcr	p15, 0, r0, c7, c10, 5
	b	.L2053
.L2011:
	ldr	r3, [r4, #28]
	cmp	r3, #1
	sub	r3, r3, #1
	str	r3, [r4, #28]
	bne	.L2010
	ldr	r3, [r4]
	mov	r0, r4
	ldr	r3, [r3, #8]
	blx	r3
	mcr	p15, 0, r0, c7, c10, 5
	ldr	r3, [r4, #32]
	sub	r2, r3, #1
	str	r2, [r4, #32]
.L2054:
	cmp	r3, #1
	bne	.L2010
	ldr	r3, [r4]
	mov	r0, r4
	ldr	r3, [r3, #12]
	blx	r3
	b	.L2010
.L2128:
	ldr	r3, [r4]
	mov	r0, r4
	ldr	r3, [r3, #8]
	blx	r3
	add	r2, r4, #32
	mcr	p15, 0, r0, c7, c10, 5
	mcr	p15, 0, r0, c7, c10, 5
.L2094:
	ldrex	r3, [r2]
	sub	r1, r3, #1
	strex	r0, r1, [r2]
	cmp	r0, #0
	bne	.L2094
	mcr	p15, 0, r0, c7, c10, 5
	b	.L2054
.L2017:
	ldr	r3, [r4, #28]
	cmp	r3, #1
	sub	r3, r3, #1
	str	r3, [r4, #28]
	bne	.L2016
	ldr	r3, [r4]
	mov	r0, r4
	ldr	r3, [r3, #8]
	blx	r3
	mcr	p15, 0, r0, c7, c10, 5
	ldr	r3, [r4, #32]
	sub	r2, r3, #1
	cmp	r3, #1
	str	r2, [r4, #32]
	bne	.L2016
.L2135:
	ldr	r3, [r4]
	mov	r0, r4
	ldr	r3, [r3, #12]
	blx	r3
	b	.L2016
.L2129:
	ldr	r3, [r4]
	mov	r0, r4
	ldr	r3, [r3, #8]
	blx	r3
	add	r2, r4, #32
	mcr	p15, 0, r0, c7, c10, 5
	mcr	p15, 0, r0, c7, c10, 5
.L2093:
	ldrex	r3, [r2]
	sub	r1, r3, #1
	strex	r0, r1, [r2]
	cmp	r0, #0
	bne	.L2093
	cmp	r3, #1
	mcr	p15, 0, r0, c7, c10, 5
	bne	.L2016
	b	.L2135
.L2133:
	ldr	r3, [r4]
	mov	r0, r4
	ldr	r3, [r3, #8]
	blx	r3
	add	r2, r4, #32
	mcr	p15, 0, r0, c7, c10, 5
	mcr	p15, 0, r0, c7, c10, 5
.L2089:
	ldrex	r3, [r2]
	sub	r1, r3, #1
	strex	r0, r1, [r2]
	cmp	r0, #0
	bne	.L2089
	mcr	p15, 0, r0, c7, c10, 5
.L2059:
	cmp	r3, #1
	bne	.L2040
	ldr	r3, [r4]
	mov	r0, r4
	ldr	r3, [r3, #12]
	blx	r3
	b	.L2040
.L2041:
	ldr	r3, [r4, #28]
	cmp	r3, #1
	sub	r3, r3, #1
	str	r3, [r4, #28]
	bne	.L2040
	ldr	r3, [r4]
	mov	r0, r4
	ldr	r3, [r3, #8]
	blx	r3
	mcr	p15, 0, r0, c7, c10, 5
	ldr	r3, [r4, #32]
	sub	r2, r3, #1
	str	r2, [r4, #32]
	b	.L2059
.L2130:
	ldr	r3, [r4]
	mov	r0, r4
	ldr	r3, [r3, #8]
	blx	r3
	add	r2, r4, #32
	mcr	p15, 0, r0, c7, c10, 5
	mcr	p15, 0, r0, c7, c10, 5
.L2092:
	ldrex	r3, [r2]
	sub	r1, r3, #1
	strex	r0, r1, [r2]
	cmp	r0, #0
	bne	.L2092
	mcr	p15, 0, r0, c7, c10, 5
.L2056:
	cmp	r3, #1
	bne	.L2022
	ldr	r3, [r4]
	mov	r0, r4
	ldr	r3, [r3, #12]
	blx	r3
	b	.L2022
.L2023:
	ldr	r3, [r4, #28]
	cmp	r3, #1
	sub	r3, r3, #1
	str	r3, [r4, #28]
	bne	.L2022
	ldr	r3, [r4]
	mov	r0, r4
	ldr	r3, [r3, #8]
	blx	r3
	mcr	p15, 0, r0, c7, c10, 5
	ldr	r3, [r4, #32]
	sub	r2, r3, #1
	str	r2, [r4, #32]
	b	.L2056
.L2132:
	ldr	r3, [r4]
	mov	r0, r4
	ldr	r3, [r3, #8]
	blx	r3
	add	r2, r4, #32
	mcr	p15, 0, r0, c7, c10, 5
	mcr	p15, 0, r0, c7, c10, 5
.L2090:
	ldrex	r3, [r2]
	sub	r1, r3, #1
	strex	r0, r1, [r2]
	cmp	r0, #0
	bne	.L2090
	mcr	p15, 0, r0, c7, c10, 5
.L2058:
	cmp	r3, #1
	bne	.L2034
	ldr	r3, [r4]
	mov	r0, r4
	ldr	r3, [r3, #12]
	blx	r3
	b	.L2034
.L2035:
	ldr	r3, [r4, #28]
	cmp	r3, #1
	sub	r3, r3, #1
	str	r3, [r4, #28]
	bne	.L2034
	ldr	r3, [r4]
	mov	r0, r4
	ldr	r3, [r3, #8]
	blx	r3
	mcr	p15, 0, r0, c7, c10, 5
	ldr	r3, [r4, #32]
	sub	r2, r3, #1
	str	r2, [r4, #32]
	b	.L2058
.L2131:
	ldr	r3, [r4]
	mov	r0, r4
	ldr	r3, [r3, #8]
	blx	r3
	add	r2, r4, #32
	mcr	p15, 0, r0, c7, c10, 5
	mcr	p15, 0, r0, c7, c10, 5
.L2091:
	ldrex	r3, [r2]
	sub	r1, r3, #1
	strex	r0, r1, [r2]
	cmp	r0, #0
	bne	.L2091
	mcr	p15, 0, r0, c7, c10, 5
.L2057:
	cmp	r3, #1
	bne	.L2028
	ldr	r3, [r4]
	mov	r0, r4
	ldr	r3, [r3, #12]
	blx	r3
	b	.L2028
.L2029:
	ldr	r3, [r4, #28]
	cmp	r3, #1
	sub	r3, r3, #1
	str	r3, [r4, #28]
	bne	.L2028
	ldr	r3, [r4]
	mov	r0, r4
	ldr	r3, [r3, #8]
	blx	r3
	mcr	p15, 0, r0, c7, c10, 5
	ldr	r3, [r4, #32]
	sub	r2, r3, #1
	str	r2, [r4, #32]
	b	.L2057
.L2134:
	ldr	r3, [r4]
	mov	r0, r4
	ldr	r3, [r3, #8]
	blx	r3
	add	r2, r4, #32
	mcr	p15, 0, r0, c7, c10, 5
	mcr	p15, 0, r0, c7, c10, 5
.L2088:
	ldrex	r3, [r2]
	sub	r1, r3, #1
	strex	r0, r1, [r2]
	cmp	r0, #0
	bne	.L2088
	mcr	p15, 0, r0, c7, c10, 5
.L2060:
	cmp	r3, #1
	bne	.L2046
	ldr	r3, [r4]
	mov	r0, r4
	ldr	r3, [r3, #12]
	blx	r3
	b	.L2046
.L2047:
	ldr	r3, [r4, #28]
	cmp	r3, #1
	sub	r3, r3, #1
	str	r3, [r4, #28]
	bne	.L2046
	ldr	r3, [r4]
	mov	r0, r4
	ldr	r3, [r3, #8]
	blx	r3
	mcr	p15, 0, r0, c7, c10, 5
	ldr	r3, [r4, #32]
	sub	r2, r3, #1
	str	r2, [r4, #32]
	b	.L2060
.L2137:
	.align	2
.L2136:
	.word	_GLOBAL_OFFSET_TABLE_-(.LPIC106+8)
	.word	_ZL28__gthrw___pthread_key_createPjPFvPvE(GOT)
	.cantunwind
	.fnend
	.size	_ZNSt8_Rb_treeISt10shared_ptrIN7asiopal9IResourceEES3_St9_IdentityIS3_ESt4lessIS3_ESaIS3_EE8_M_eraseEPSt13_Rb_tree_nodeIS3_E, .-_ZNSt8_Rb_treeISt10shared_ptrIN7asiopal9IResourceEES3_St9_IdentityIS3_ESt4lessIS3_ESaIS3_EE8_M_eraseEPSt13_Rb_tree_nodeIS3_E
	.section	.text._ZNSt23_Sp_counted_ptr_inplaceIN7asiopal15ResourceManagerESaIS1_ELN9__gnu_cxx12_Lock_policyE1EE10_M_disposeEv,"axG",%progbits,_ZNSt23_Sp_counted_ptr_inplaceIN7asiopal15ResourceManagerESaIS1_ELN9__gnu_cxx12_Lock_policyE1EE10_M_disposeEv,comdat
	.align	2
	.weak	_ZNSt23_Sp_counted_ptr_inplaceIN7asiopal15ResourceManagerESaIS1_ELN9__gnu_cxx12_Lock_policyE1EE10_M_disposeEv
	.syntax unified
	.arm
	.fpu vfp
	.type	_ZNSt23_Sp_counted_ptr_inplaceIN7asiopal15ResourceManagerESaIS1_ELN9__gnu_cxx12_Lock_policyE1EE10_M_disposeEv, %function
_ZNSt23_Sp_counted_ptr_inplaceIN7asiopal15ResourceManagerESaIS1_ELN9__gnu_cxx12_Lock_policyE1EE10_M_disposeEv:
	.fnstart
.LFB11754:
	@ args = 0, pretend = 0, frame = 0
	@ frame_needed = 0, uses_anonymous_args = 0
	push	{r4, r5, r6, r7, r8, lr}
	ldr	r8, .L2161
	ldr	r3, .L2161+4
.LPIC107:
	add	r8, pc, r8
	ldr	r4, [r0, #76]
	ldr	r3, [r8, r3]
	cmp	r4, #0
	add	r3, r3, #8
	str	r3, [r0, #36]
	popeq	{r4, r5, r6, r7, r8, pc}
	add	r7, r0, #68
	b	.L2147
.L2159:
	add	r3, r5, #28
	mcr	p15, 0, r0, c7, c10, 5
.L2153:
	ldrex	r2, [r3]
	sub	r1, r2, #1
	strex	r0, r1, [r3]
	cmp	r0, #0
	bne	.L2153
	cmp	r2, #1
	mcr	p15, 0, r0, c7, c10, 5
	beq	.L2157
.L2141:
	mov	r0, r4
	bl	_ZdlPv(PLT)
	subs	r4, r6, #0
	beq	.L2158
.L2147:
	ldr	r1, [r4, #12]
	mov	r0, r7
	bl	_ZNSt8_Rb_treeISt10shared_ptrIN7asiopal9IResourceEES3_St9_IdentityIS3_ESt4lessIS3_ESaIS3_EE8_M_eraseEPSt13_Rb_tree_nodeIS3_E(PLT)
	ldr	r5, [r4, #20]
	ldr	r6, [r4, #8]
	cmp	r5, #0
	beq	.L2141
	ldr	r3, .L2161+8
	ldr	r3, [r8, r3]
	cmp	r3, #0
	bne	.L2159
	ldr	r3, [r5, #28]
	cmp	r3, #1
	sub	r3, r3, #1
	str	r3, [r5, #28]
	bne	.L2141
	ldr	r3, [r5]
	mov	r0, r5
	ldr	r3, [r3, #8]
	blx	r3
	mcr	p15, 0, r0, c7, c10, 5
	ldr	r2, [r5, #32]
	sub	r3, r2, #1
	cmp	r2, #1
	str	r3, [r5, #32]
	bne	.L2141
	ldr	r3, [r5]
	mov	r0, r5
	ldr	r3, [r3, #12]
	blx	r3
.L2160:
	mov	r0, r4
	bl	_ZdlPv(PLT)
	subs	r4, r6, #0
	bne	.L2147
.L2158:
	pop	{r4, r5, r6, r7, r8, pc}
.L2157:
	ldr	r3, [r5]
	mov	r0, r5
	ldr	r3, [r3, #8]
	blx	r3
	add	r3, r5, #32
	mcr	p15, 0, r0, c7, c10, 5
	mcr	p15, 0, r0, c7, c10, 5
.L2152:
	ldrex	r2, [r3]
	sub	r1, r2, #1
	strex	r0, r1, [r3]
	cmp	r0, #0
	bne	.L2152
	cmp	r2, #1
	mcr	p15, 0, r0, c7, c10, 5
	bne	.L2141
	ldr	r3, [r5]
	mov	r0, r5
	ldr	r3, [r3, #12]
	blx	r3
	b	.L2160
.L2162:
	.align	2
.L2161:
	.word	_GLOBAL_OFFSET_TABLE_-(.LPIC107+8)
	.word	_ZTVN7asiopal15ResourceManagerE(GOT)
	.word	_ZL28__gthrw___pthread_key_createPjPFvPvE(GOT)
	.cantunwind
	.fnend
	.size	_ZNSt23_Sp_counted_ptr_inplaceIN7asiopal15ResourceManagerESaIS1_ELN9__gnu_cxx12_Lock_policyE1EE10_M_disposeEv, .-_ZNSt23_Sp_counted_ptr_inplaceIN7asiopal15ResourceManagerESaIS1_ELN9__gnu_cxx12_Lock_policyE1EE10_M_disposeEv
	.section	.text.startup,"ax",%progbits
	.align	2
	.syntax unified
	.arm
	.fpu vfp
	.type	_GLOBAL__sub_I_DNP3ManagerImpl.cpp, %function
_GLOBAL__sub_I_DNP3ManagerImpl.cpp:
	.fnstart
.LFB11943:
	@ args = 0, pretend = 0, frame = 8
	@ frame_needed = 0, uses_anonymous_args = 0
	push	{r4, r5, lr}
	sub	sp, sp, #12
	ldr	r4, .L2196
	bl	_ZN4asio15system_categoryEv(PLT)
	ldr	r3, .L2196+4
.LPIC108:
	add	r4, pc, r4
	ldr	r5, [r4, r3]
	ldrb	r3, [r5]	@ zero_extendqisi2
	mcr	p15, 0, r0, c7, c10, 5
	tst	r3, #1
	beq	.L2188
.L2165:
	ldr	r3, .L2196+8
	ldr	r5, [r4, r3]
	ldrb	r3, [r5]	@ zero_extendqisi2
	mcr	p15, 0, r0, c7, c10, 5
	tst	r3, #1
	beq	.L2189
.L2168:
	ldr	r3, .L2196+12
	ldr	r5, [r4, r3]
	ldrb	r3, [r5]	@ zero_extendqisi2
	mcr	p15, 0, r0, c7, c10, 5
	tst	r3, #1
	beq	.L2190
.L2171:
	ldr	r2, .L2196+16
	mov	r3, #0
	mov	r0, sp
	bl	_ZN7openpal12TimeDuration12MillisecondsEx(PLT)
	ldr	r3, .L2196+20
	ldr	r3, [r4, r3]
	ldr	r2, [r3]
	tst	r2, #1
	beq	.L2191
.L2173:
	ldr	r3, .L2196+24
	ldr	r3, [r4, r3]
	ldr	r2, [r3]
	tst	r2, #1
	beq	.L2192
.L2174:
	ldr	r3, .L2196+28
	ldr	r3, [r4, r3]
	ldr	r2, [r3]
	tst	r2, #1
	beq	.L2193
.L2175:
	ldr	r3, .L2196+32
	ldr	r3, [r4, r3]
	ldr	r2, [r3]
	tst	r2, #1
	beq	.L2194
.L2176:
	ldr	r3, .L2196+36
	ldr	r3, [r4, r3]
	ldr	r2, [r3]
	tst	r2, #1
	beq	.L2195
	add	sp, sp, #12
	@ sp needed
	pop	{r4, r5, pc}
.L2188:
	mov	r0, r5
	bl	__cxa_guard_acquire(PLT)
	cmp	r0, #0
	beq	.L2165
	mov	r0, r5
	bl	__cxa_guard_release(PLT)
	ldr	r3, .L2196+40
	ldr	r1, .L2196+44
	ldr	r2, .L2196+48
	ldr	r0, [r4, r3]
.LPIC109:
	add	r2, pc, r2
	ldr	r1, [r4, r1]
	bl	__aeabi_atexit(PLT)
	b	.L2165
.L2195:
	ldr	r2, .L2196+52
	mov	r0, #1
	ldr	r1, .L2196+56
	str	r0, [r3]
	ldr	r0, [r4, r2]
	ldr	r2, .L2196+60
	ldr	r1, [r4, r1]
.LPIC116:
	add	r2, pc, r2
	add	sp, sp, #12
	@ sp needed
	pop	{r4, r5, lr}
	b	__aeabi_atexit(PLT)
.L2190:
	mov	r0, r5
	bl	__cxa_guard_acquire(PLT)
	cmp	r0, #0
	beq	.L2171
	mov	r0, r5
	bl	__cxa_guard_release(PLT)
	ldr	r3, .L2196+64
	ldr	r1, .L2196+68
	ldr	r2, .L2196+72
	ldr	r0, [r4, r3]
.LPIC111:
	add	r2, pc, r2
	ldr	r1, [r4, r1]
	bl	__aeabi_atexit(PLT)
	b	.L2171
.L2189:
	mov	r0, r5
	bl	__cxa_guard_acquire(PLT)
	cmp	r0, #0
	beq	.L2168
	mov	r0, r5
	bl	__cxa_guard_release(PLT)
	ldr	r3, .L2196+76
	ldr	r1, .L2196+80
	ldr	r2, .L2196+84
	ldr	r0, [r4, r3]
.LPIC110:
	add	r2, pc, r2
	ldr	r1, [r4, r1]
	bl	__aeabi_atexit(PLT)
	b	.L2168
.L2194:
	ldr	r2, .L2196+88
	mov	r1, #1
	str	r1, [r3]
	ldr	r5, [r4, r2]
	mov	r0, r5
	bl	_ZN4asio6detail20posix_tss_ptr_createERj(PLT)
	ldr	r3, .L2196+92
	ldr	r2, .L2196+96
	mov	r0, r5
.LPIC115:
	add	r2, pc, r2
	ldr	r1, [r4, r3]
	bl	__aeabi_atexit(PLT)
	b	.L2176
.L2193:
	ldr	r2, .L2196+100
	mov	r0, #1
	ldr	r1, .L2196+104
	str	r0, [r3]
	ldr	r0, [r4, r2]
	ldr	r2, .L2196+108
	ldr	r1, [r4, r1]
.LPIC114:
	add	r2, pc, r2
	bl	__aeabi_atexit(PLT)
	b	.L2175
.L2192:
	ldr	r2, .L2196+112
	mov	r0, #1
	ldr	r1, .L2196+116
	str	r0, [r3]
	ldr	r0, [r4, r2]
	ldr	r2, .L2196+120
	ldr	r1, [r4, r1]
.LPIC113:
	add	r2, pc, r2
	bl	__aeabi_atexit(PLT)
	b	.L2174
.L2191:
	ldr	r2, .L2196+124
	mov	r1, #1
	str	r1, [r3]
	ldr	r5, [r4, r2]
	mov	r0, r5
	bl	_ZN4asio6detail20posix_tss_ptr_createERj(PLT)
	ldr	r3, .L2196+128
	ldr	r2, .L2196+132
	mov	r0, r5
.LPIC112:
	add	r2, pc, r2
	ldr	r1, [r4, r3]
	bl	__aeabi_atexit(PLT)
	b	.L2173
.L2197:
	.align	2
.L2196:
	.word	_GLOBAL_OFFSET_TABLE_-(.LPIC108+8)
	.word	_ZGVZN4asio5error18get_netdb_categoryEvE8instance(GOT)
	.word	_ZGVZN4asio5error21get_addrinfo_categoryEvE8instance(GOT)
	.word	_ZGVZN4asio5error17get_misc_categoryEvE8instance(GOT)
	.word	5000
	.word	_ZGVN4asio6detail10call_stackINS0_15task_io_serviceENS0_27task_io_service_thread_infoEE4top_E(GOT)
	.word	_ZGVN4asio6detail12service_baseINS0_13epoll_reactorEE2idE(GOT)
	.word	_ZGVN4asio6detail12service_baseINS0_15task_io_serviceEE2idE(GOT)
	.word	_ZGVN4asio6detail10call_stackINS0_14strand_service11strand_implEhE4top_E(GOT)
	.word	_ZGVN4asio6detail12service_baseINS0_14strand_serviceEE2idE(GOT)
	.word	_ZZN4asio5error18get_netdb_categoryEvE8instance(GOT)
	.word	_ZN4asio5error6detail14netdb_categoryD1Ev(GOT)
	.word	__dso_handle-(.LPIC109+8)
	.word	_ZN4asio6detail12service_baseINS0_14strand_serviceEE2idE(GOT)
	.word	_ZN4asio6detail10service_idINS0_14strand_serviceEED1Ev(GOT)
	.word	__dso_handle-(.LPIC116+8)
	.word	_ZZN4asio5error17get_misc_categoryEvE8instance(GOT)
	.word	_ZN4asio5error6detail13misc_categoryD1Ev(GOT)
	.word	__dso_handle-(.LPIC111+8)
	.word	_ZZN4asio5error21get_addrinfo_categoryEvE8instance(GOT)
	.word	_ZN4asio5error6detail17addrinfo_categoryD1Ev(GOT)
	.word	__dso_handle-(.LPIC110+8)
	.word	_ZN4asio6detail10call_stackINS0_14strand_service11strand_implEhE4top_E(GOT)
	.word	_ZN4asio6detail7tss_ptrINS0_10call_stackINS0_14strand_service11strand_implEhE7contextEED1Ev(GOT)
	.word	__dso_handle-(.LPIC115+8)
	.word	_ZN4asio6detail12service_baseINS0_15task_io_serviceEE2idE(GOT)
	.word	_ZN4asio6detail10service_idINS0_15task_io_serviceEED1Ev(GOT)
	.word	__dso_handle-(.LPIC114+8)
	.word	_ZN4asio6detail12service_baseINS0_13epoll_reactorEE2idE(GOT)
	.word	_ZN4asio6detail10service_idINS0_13epoll_reactorEED1Ev(GOT)
	.word	__dso_handle-(.LPIC113+8)
	.word	_ZN4asio6detail10call_stackINS0_15task_io_serviceENS0_27task_io_service_thread_infoEE4top_E(GOT)
	.word	_ZN4asio6detail7tss_ptrINS0_10call_stackINS0_15task_io_serviceENS0_27task_io_service_thread_infoEE7contextEED1Ev(GOT)
	.word	__dso_handle-(.LPIC112+8)
	.cantunwind
	.fnend
	.size	_GLOBAL__sub_I_DNP3ManagerImpl.cpp, .-_GLOBAL__sub_I_DNP3ManagerImpl.cpp
	.section	.init_array,"aw"
	.align	2
	.word	_GLOBAL__sub_I_DNP3ManagerImpl.cpp
	.section	.text._ZNSt23_Sp_counted_ptr_inplaceIN8asiodnp311DNP3ChannelESaIS1_ELN9__gnu_cxx12_Lock_policyE1EE10_M_disposeEv,"axG",%progbits,_ZNSt23_Sp_counted_ptr_inplaceIN8asiodnp311DNP3ChannelESaIS1_ELN9__gnu_cxx12_Lock_policyE1EE10_M_disposeEv,comdat
	.align	2
	.weak	_ZNSt23_Sp_counted_ptr_inplaceIN8asiodnp311DNP3ChannelESaIS1_ELN9__gnu_cxx12_Lock_policyE1EE10_M_disposeEv
	.syntax unified
	.arm
	.fpu vfp
	.type	_ZNSt23_Sp_counted_ptr_inplaceIN8asiodnp311DNP3ChannelESaIS1_ELN9__gnu_cxx12_Lock_policyE1EE10_M_disposeEv, %function
_ZNSt23_Sp_counted_ptr_inplaceIN8asiodnp311DNP3ChannelESaIS1_ELN9__gnu_cxx12_Lock_policyE1EE10_M_disposeEv:
	.fnstart
.LFB11740:
	@ args = 0, pretend = 0, frame = 0
	@ frame_needed = 0, uses_anonymous_args = 0
	@ link register save eliminated.
	add	r0, r0, #36
	b	_ZN8asiodnp311DNP3ChannelD1Ev(PLT)
	.cantunwind
	.fnend
	.size	_ZNSt23_Sp_counted_ptr_inplaceIN8asiodnp311DNP3ChannelESaIS1_ELN9__gnu_cxx12_Lock_policyE1EE10_M_disposeEv, .-_ZNSt23_Sp_counted_ptr_inplaceIN8asiodnp311DNP3ChannelESaIS1_ELN9__gnu_cxx12_Lock_policyE1EE10_M_disposeEv
	.weak	_ZTSN9__gnu_cxx7__mutexE
	.section	.rodata._ZTSN9__gnu_cxx7__mutexE,"aG",%progbits,_ZTSN9__gnu_cxx7__mutexE,comdat
	.align	2
	.type	_ZTSN9__gnu_cxx7__mutexE, %object
	.size	_ZTSN9__gnu_cxx7__mutexE, 21
_ZTSN9__gnu_cxx7__mutexE:
	.ascii	"N9__gnu_cxx7__mutexE\000"
	.weak	_ZTIN9__gnu_cxx7__mutexE
	.section	.data.rel.ro._ZTIN9__gnu_cxx7__mutexE,"awG",%progbits,_ZTIN9__gnu_cxx7__mutexE,comdat
	.align	2
	.type	_ZTIN9__gnu_cxx7__mutexE, %object
	.size	_ZTIN9__gnu_cxx7__mutexE, 8
_ZTIN9__gnu_cxx7__mutexE:
	.word	_ZTVN10__cxxabiv117__class_type_infoE+8
	.word	_ZTSN9__gnu_cxx7__mutexE
	.weak	_ZTSSt11_Mutex_baseILN9__gnu_cxx12_Lock_policyE1EE
	.section	.rodata._ZTSSt11_Mutex_baseILN9__gnu_cxx12_Lock_policyE1EE,"aG",%progbits,_ZTSSt11_Mutex_baseILN9__gnu_cxx12_Lock_policyE1EE,comdat
	.align	2
	.type	_ZTSSt11_Mutex_baseILN9__gnu_cxx12_Lock_policyE1EE, %object
	.size	_ZTSSt11_Mutex_baseILN9__gnu_cxx12_Lock_policyE1EE, 47
_ZTSSt11_Mutex_baseILN9__gnu_cxx12_Lock_policyE1EE:
	.ascii	"St11_Mutex_baseILN9__gnu_cxx12_Lock_policyE1EE\000"
	.weak	_ZTISt11_Mutex_baseILN9__gnu_cxx12_Lock_policyE1EE
	.section	.data.rel.ro._ZTISt11_Mutex_baseILN9__gnu_cxx12_Lock_policyE1EE,"awG",%progbits,_ZTISt11_Mutex_baseILN9__gnu_cxx12_Lock_policyE1EE,comdat
	.align	2
	.type	_ZTISt11_Mutex_baseILN9__gnu_cxx12_Lock_policyE1EE, %object
	.size	_ZTISt11_Mutex_baseILN9__gnu_cxx12_Lock_policyE1EE, 12
_ZTISt11_Mutex_baseILN9__gnu_cxx12_Lock_policyE1EE:
	.word	_ZTVN10__cxxabiv120__si_class_type_infoE+8
	.word	_ZTSSt11_Mutex_baseILN9__gnu_cxx12_Lock_policyE1EE
	.word	_ZTIN9__gnu_cxx7__mutexE
	.weak	_ZTSN4asio6detail11noncopyableE
	.section	.rodata._ZTSN4asio6detail11noncopyableE,"aG",%progbits,_ZTSN4asio6detail11noncopyableE,comdat
	.align	2
	.type	_ZTSN4asio6detail11noncopyableE, %object
	.size	_ZTSN4asio6detail11noncopyableE, 28
_ZTSN4asio6detail11noncopyableE:
	.ascii	"N4asio6detail11noncopyableE\000"
	.weak	_ZTIN4asio6detail11noncopyableE
	.section	.data.rel.ro._ZTIN4asio6detail11noncopyableE,"awG",%progbits,_ZTIN4asio6detail11noncopyableE,comdat
	.align	2
	.type	_ZTIN4asio6detail11noncopyableE, %object
	.size	_ZTIN4asio6detail11noncopyableE, 8
_ZTIN4asio6detail11noncopyableE:
	.word	_ZTVN10__cxxabiv117__class_type_infoE+8
	.word	_ZTSN4asio6detail11noncopyableE
	.weak	_ZGVN4asio6detail12service_baseINS0_14strand_serviceEE2idE
	.section	.bss._ZGVN4asio6detail12service_baseINS0_14strand_serviceEE2idE,"awG",%nobits,_ZGVN4asio6detail12service_baseINS0_14strand_serviceEE2idE,comdat
	.align	2
	.type	_ZGVN4asio6detail12service_baseINS0_14strand_serviceEE2idE, %gnu_unique_object
	.size	_ZGVN4asio6detail12service_baseINS0_14strand_serviceEE2idE, 4
_ZGVN4asio6detail12service_baseINS0_14strand_serviceEE2idE:
	.space	4
	.weak	_ZGVN4asio6detail10call_stackINS0_14strand_service11strand_implEhE4top_E
	.section	.bss._ZGVN4asio6detail10call_stackINS0_14strand_service11strand_implEhE4top_E,"awG",%nobits,_ZGVN4asio6detail10call_stackINS0_14strand_service11strand_implEhE4top_E,comdat
	.align	2
	.type	_ZGVN4asio6detail10call_stackINS0_14strand_service11strand_implEhE4top_E, %gnu_unique_object
	.size	_ZGVN4asio6detail10call_stackINS0_14strand_service11strand_implEhE4top_E, 4
_ZGVN4asio6detail10call_stackINS0_14strand_service11strand_implEhE4top_E:
	.space	4
	.weak	_ZGVN4asio6detail12service_baseINS0_15task_io_serviceEE2idE
	.section	.bss._ZGVN4asio6detail12service_baseINS0_15task_io_serviceEE2idE,"awG",%nobits,_ZGVN4asio6detail12service_baseINS0_15task_io_serviceEE2idE,comdat
	.align	2
	.type	_ZGVN4asio6detail12service_baseINS0_15task_io_serviceEE2idE, %gnu_unique_object
	.size	_ZGVN4asio6detail12service_baseINS0_15task_io_serviceEE2idE, 4
_ZGVN4asio6detail12service_baseINS0_15task_io_serviceEE2idE:
	.space	4
	.weak	_ZGVN4asio6detail12service_baseINS0_13epoll_reactorEE2idE
	.section	.bss._ZGVN4asio6detail12service_baseINS0_13epoll_reactorEE2idE,"awG",%nobits,_ZGVN4asio6detail12service_baseINS0_13epoll_reactorEE2idE,comdat
	.align	2
	.type	_ZGVN4asio6detail12service_baseINS0_13epoll_reactorEE2idE, %gnu_unique_object
	.size	_ZGVN4asio6detail12service_baseINS0_13epoll_reactorEE2idE, 4
_ZGVN4asio6detail12service_baseINS0_13epoll_reactorEE2idE:
	.space	4
	.weak	_ZGVN4asio6detail10call_stackINS0_15task_io_serviceENS0_27task_io_service_thread_infoEE4top_E
	.section	.bss._ZGVN4asio6detail10call_stackINS0_15task_io_serviceENS0_27task_io_service_thread_infoEE4top_E,"awG",%nobits,_ZGVN4asio6detail10call_stackINS0_15task_io_serviceENS0_27task_io_service_thread_infoEE4top_E,comdat
	.align	2
	.type	_ZGVN4asio6detail10call_stackINS0_15task_io_serviceENS0_27task_io_service_thread_infoEE4top_E, %gnu_unique_object
	.size	_ZGVN4asio6detail10call_stackINS0_15task_io_serviceENS0_27task_io_service_thread_infoEE4top_E, 4
_ZGVN4asio6detail10call_stackINS0_15task_io_serviceENS0_27task_io_service_thread_infoEE4top_E:
	.space	4
	.weak	_ZN4asio6detail12service_baseINS0_14strand_serviceEE2idE
	.section	.bss._ZN4asio6detail12service_baseINS0_14strand_serviceEE2idE,"awG",%nobits,_ZN4asio6detail12service_baseINS0_14strand_serviceEE2idE,comdat
	.align	2
	.type	_ZN4asio6detail12service_baseINS0_14strand_serviceEE2idE, %gnu_unique_object
	.size	_ZN4asio6detail12service_baseINS0_14strand_serviceEE2idE, 1
_ZN4asio6detail12service_baseINS0_14strand_serviceEE2idE:
	.space	1
	.weak	_ZN4asio6detail10call_stackINS0_14strand_service11strand_implEhE4top_E
	.section	.bss._ZN4asio6detail10call_stackINS0_14strand_service11strand_implEhE4top_E,"awG",%nobits,_ZN4asio6detail10call_stackINS0_14strand_service11strand_implEhE4top_E,comdat
	.align	2
	.type	_ZN4asio6detail10call_stackINS0_14strand_service11strand_implEhE4top_E, %gnu_unique_object
	.size	_ZN4asio6detail10call_stackINS0_14strand_service11strand_implEhE4top_E, 4
_ZN4asio6detail10call_stackINS0_14strand_service11strand_implEhE4top_E:
	.space	4
	.weak	_ZN4asio6detail12service_baseINS0_15task_io_serviceEE2idE
	.section	.bss._ZN4asio6detail12service_baseINS0_15task_io_serviceEE2idE,"awG",%nobits,_ZN4asio6detail12service_baseINS0_15task_io_serviceEE2idE,comdat
	.align	2
	.type	_ZN4asio6detail12service_baseINS0_15task_io_serviceEE2idE, %gnu_unique_object
	.size	_ZN4asio6detail12service_baseINS0_15task_io_serviceEE2idE, 1
_ZN4asio6detail12service_baseINS0_15task_io_serviceEE2idE:
	.space	1
	.weak	_ZN4asio6detail12service_baseINS0_13epoll_reactorEE2idE
	.section	.bss._ZN4asio6detail12service_baseINS0_13epoll_reactorEE2idE,"awG",%nobits,_ZN4asio6detail12service_baseINS0_13epoll_reactorEE2idE,comdat
	.align	2
	.type	_ZN4asio6detail12service_baseINS0_13epoll_reactorEE2idE, %gnu_unique_object
	.size	_ZN4asio6detail12service_baseINS0_13epoll_reactorEE2idE, 1
_ZN4asio6detail12service_baseINS0_13epoll_reactorEE2idE:
	.space	1
	.weak	_ZN4asio6detail10call_stackINS0_15task_io_serviceENS0_27task_io_service_thread_infoEE4top_E
	.section	.bss._ZN4asio6detail10call_stackINS0_15task_io_serviceENS0_27task_io_service_thread_infoEE4top_E,"awG",%nobits,_ZN4asio6detail10call_stackINS0_15task_io_serviceENS0_27task_io_service_thread_infoEE4top_E,comdat
	.align	2
	.type	_ZN4asio6detail10call_stackINS0_15task_io_serviceENS0_27task_io_service_thread_infoEE4top_E, %gnu_unique_object
	.size	_ZN4asio6detail10call_stackINS0_15task_io_serviceENS0_27task_io_service_thread_infoEE4top_E, 4
_ZN4asio6detail10call_stackINS0_15task_io_serviceENS0_27task_io_service_thread_infoEE4top_E:
	.space	4
	.weak	_ZTSSt16_Sp_counted_baseILN9__gnu_cxx12_Lock_policyE1EE
	.section	.rodata._ZTSSt16_Sp_counted_baseILN9__gnu_cxx12_Lock_policyE1EE,"aG",%progbits,_ZTSSt16_Sp_counted_baseILN9__gnu_cxx12_Lock_policyE1EE,comdat
	.align	2
	.type	_ZTSSt16_Sp_counted_baseILN9__gnu_cxx12_Lock_policyE1EE, %object
	.size	_ZTSSt16_Sp_counted_baseILN9__gnu_cxx12_Lock_policyE1EE, 52
_ZTSSt16_Sp_counted_baseILN9__gnu_cxx12_Lock_policyE1EE:
	.ascii	"St16_Sp_counted_baseILN9__gnu_cxx12_Lock_policyE1EE"
	.ascii	"\000"
	.weak	_ZTISt16_Sp_counted_baseILN9__gnu_cxx12_Lock_policyE1EE
	.section	.data.rel.ro._ZTISt16_Sp_counted_baseILN9__gnu_cxx12_Lock_policyE1EE,"awG",%progbits,_ZTISt16_Sp_counted_baseILN9__gnu_cxx12_Lock_policyE1EE,comdat
	.align	2
	.type	_ZTISt16_Sp_counted_baseILN9__gnu_cxx12_Lock_policyE1EE, %object
	.size	_ZTISt16_Sp_counted_baseILN9__gnu_cxx12_Lock_policyE1EE, 24
_ZTISt16_Sp_counted_baseILN9__gnu_cxx12_Lock_policyE1EE:
	.word	_ZTVN10__cxxabiv121__vmi_class_type_infoE+8
	.word	_ZTSSt16_Sp_counted_baseILN9__gnu_cxx12_Lock_policyE1EE
	.word	0
	.word	1
	.word	_ZTISt11_Mutex_baseILN9__gnu_cxx12_Lock_policyE1EE
	.word	1026
	.weak	_ZTSN4asio6detail15system_categoryE
	.section	.rodata._ZTSN4asio6detail15system_categoryE,"aG",%progbits,_ZTSN4asio6detail15system_categoryE,comdat
	.align	2
	.type	_ZTSN4asio6detail15system_categoryE, %object
	.size	_ZTSN4asio6detail15system_categoryE, 32
_ZTSN4asio6detail15system_categoryE:
	.ascii	"N4asio6detail15system_categoryE\000"
	.weak	_ZTIN4asio6detail15system_categoryE
	.section	.data.rel.ro._ZTIN4asio6detail15system_categoryE,"awG",%progbits,_ZTIN4asio6detail15system_categoryE,comdat
	.align	2
	.type	_ZTIN4asio6detail15system_categoryE, %object
	.size	_ZTIN4asio6detail15system_categoryE, 12
_ZTIN4asio6detail15system_categoryE:
	.word	_ZTVN10__cxxabiv120__si_class_type_infoE+8
	.word	_ZTSN4asio6detail15system_categoryE
	.word	_ZTINSt3_V214error_categoryE
	.weak	_ZTSN4asio5error6detail14netdb_categoryE
	.section	.rodata._ZTSN4asio5error6detail14netdb_categoryE,"aG",%progbits,_ZTSN4asio5error6detail14netdb_categoryE,comdat
	.align	2
	.type	_ZTSN4asio5error6detail14netdb_categoryE, %object
	.size	_ZTSN4asio5error6detail14netdb_categoryE, 37
_ZTSN4asio5error6detail14netdb_categoryE:
	.ascii	"N4asio5error6detail14netdb_categoryE\000"
	.weak	_ZTIN4asio5error6detail14netdb_categoryE
	.section	.data.rel.ro._ZTIN4asio5error6detail14netdb_categoryE,"awG",%progbits,_ZTIN4asio5error6detail14netdb_categoryE,comdat
	.align	2
	.type	_ZTIN4asio5error6detail14netdb_categoryE, %object
	.size	_ZTIN4asio5error6detail14netdb_categoryE, 12
_ZTIN4asio5error6detail14netdb_categoryE:
	.word	_ZTVN10__cxxabiv120__si_class_type_infoE+8
	.word	_ZTSN4asio5error6detail14netdb_categoryE
	.word	_ZTINSt3_V214error_categoryE
	.weak	_ZTSN4asio5error6detail17addrinfo_categoryE
	.section	.rodata._ZTSN4asio5error6detail17addrinfo_categoryE,"aG",%progbits,_ZTSN4asio5error6detail17addrinfo_categoryE,comdat
	.align	2
	.type	_ZTSN4asio5error6detail17addrinfo_categoryE, %object
	.size	_ZTSN4asio5error6detail17addrinfo_categoryE, 40
_ZTSN4asio5error6detail17addrinfo_categoryE:
	.ascii	"N4asio5error6detail17addrinfo_categoryE\000"
	.weak	_ZTIN4asio5error6detail17addrinfo_categoryE
	.section	.data.rel.ro._ZTIN4asio5error6detail17addrinfo_categoryE,"awG",%progbits,_ZTIN4asio5error6detail17addrinfo_categoryE,comdat
	.align	2
	.type	_ZTIN4asio5error6detail17addrinfo_categoryE, %object
	.size	_ZTIN4asio5error6detail17addrinfo_categoryE, 12
_ZTIN4asio5error6detail17addrinfo_categoryE:
	.word	_ZTVN10__cxxabiv120__si_class_type_infoE+8
	.word	_ZTSN4asio5error6detail17addrinfo_categoryE
	.word	_ZTINSt3_V214error_categoryE
	.weak	_ZTSN4asio5error6detail13misc_categoryE
	.section	.rodata._ZTSN4asio5error6detail13misc_categoryE,"aG",%progbits,_ZTSN4asio5error6detail13misc_categoryE,comdat
	.align	2
