	.arch armv6
	.eabi_attribute 28, 1
	.eabi_attribute 20, 1
	.eabi_attribute 21, 1
	.eabi_attribute 23, 3
	.eabi_attribute 24, 1
	.eabi_attribute 25, 1
	.eabi_attribute 26, 2
	.eabi_attribute 30, 2
	.eabi_attribute 34, 1
	.eabi_attribute 18, 4
	.file	"DNP3Channel.cpp"
	.section	.text._ZNK9__gnu_cxx24__concurrence_lock_error4whatEv,"axG",%progbits,_ZNK9__gnu_cxx24__concurrence_lock_error4whatEv,comdat
	.align	2
	.weak	_ZNK9__gnu_cxx24__concurrence_lock_error4whatEv
	.syntax unified
	.arm
	.fpu vfp
	.type	_ZNK9__gnu_cxx24__concurrence_lock_error4whatEv, %function
_ZNK9__gnu_cxx24__concurrence_lock_error4whatEv:
	.fnstart
.LFB1602:
	@ args = 0, pretend = 0, frame = 0
	@ frame_needed = 0, uses_anonymous_args = 0
	@ link register save eliminated.
	ldr	r0, .L2
.LPIC0:
	add	r0, pc, r0
	bx	lr
.L3:
	.align	2
.L2:
	.word	.LC0-(.LPIC0+8)
	.cantunwind
	.fnend
	.size	_ZNK9__gnu_cxx24__concurrence_lock_error4whatEv, .-_ZNK9__gnu_cxx24__concurrence_lock_error4whatEv
	.section	.text._ZNK9__gnu_cxx26__concurrence_unlock_error4whatEv,"axG",%progbits,_ZNK9__gnu_cxx26__concurrence_unlock_error4whatEv,comdat
	.align	2
	.weak	_ZNK9__gnu_cxx26__concurrence_unlock_error4whatEv
	.syntax unified
	.arm
	.fpu vfp
	.type	_ZNK9__gnu_cxx26__concurrence_unlock_error4whatEv, %function
_ZNK9__gnu_cxx26__concurrence_unlock_error4whatEv:
	.fnstart
.LFB1603:
	@ args = 0, pretend = 0, frame = 0
	@ frame_needed = 0, uses_anonymous_args = 0
	@ link register save eliminated.
	ldr	r0, .L5
.LPIC1:
	add	r0, pc, r0
	bx	lr
.L6:
	.align	2
.L5:
	.word	.LC1-(.LPIC1+8)
	.cantunwind
	.fnend
	.size	_ZNK9__gnu_cxx26__concurrence_unlock_error4whatEv, .-_ZNK9__gnu_cxx26__concurrence_unlock_error4whatEv
	.section	.text._ZNK4asio6detail15system_category4nameEv,"axG",%progbits,_ZNK4asio6detail15system_category4nameEv,comdat
	.align	2
	.weak	_ZNK4asio6detail15system_category4nameEv
	.syntax unified
	.arm
	.fpu vfp
	.type	_ZNK4asio6detail15system_category4nameEv, %function
_ZNK4asio6detail15system_category4nameEv:
	.fnstart
.LFB3336:
	@ args = 0, pretend = 0, frame = 0
	@ frame_needed = 0, uses_anonymous_args = 0
	@ link register save eliminated.
	ldr	r0, .L8
.LPIC2:
	add	r0, pc, r0
	bx	lr
.L9:
	.align	2
.L8:
	.word	.LC2-(.LPIC2+8)
	.cantunwind
	.fnend
	.size	_ZNK4asio6detail15system_category4nameEv, .-_ZNK4asio6detail15system_category4nameEv
	.section	.text._ZNK4asio5error6detail14netdb_category4nameEv,"axG",%progbits,_ZNK4asio5error6detail14netdb_category4nameEv,comdat
	.align	2
	.weak	_ZNK4asio5error6detail14netdb_category4nameEv
	.syntax unified
	.arm
	.fpu vfp
	.type	_ZNK4asio5error6detail14netdb_category4nameEv, %function
_ZNK4asio5error6detail14netdb_category4nameEv:
	.fnstart
.LFB3357:
	@ args = 0, pretend = 0, frame = 0
	@ frame_needed = 0, uses_anonymous_args = 0
	@ link register save eliminated.
	ldr	r0, .L11
.LPIC3:
	add	r0, pc, r0
	bx	lr
.L12:
	.align	2
.L11:
	.word	.LC3-(.LPIC3+8)
	.cantunwind
	.fnend
	.size	_ZNK4asio5error6detail14netdb_category4nameEv, .-_ZNK4asio5error6detail14netdb_category4nameEv
	.section	.text._ZNK4asio5error6detail17addrinfo_category4nameEv,"axG",%progbits,_ZNK4asio5error6detail17addrinfo_category4nameEv,comdat
	.align	2
	.weak	_ZNK4asio5error6detail17addrinfo_category4nameEv
	.syntax unified
	.arm
	.fpu vfp
	.type	_ZNK4asio5error6detail17addrinfo_category4nameEv, %function
_ZNK4asio5error6detail17addrinfo_category4nameEv:
	.fnstart
.LFB3363:
	@ args = 0, pretend = 0, frame = 0
	@ frame_needed = 0, uses_anonymous_args = 0
	@ link register save eliminated.
	ldr	r0, .L14
.LPIC4:
	add	r0, pc, r0
	bx	lr
.L15:
	.align	2
.L14:
	.word	.LC4-(.LPIC4+8)
	.cantunwind
	.fnend
	.size	_ZNK4asio5error6detail17addrinfo_category4nameEv, .-_ZNK4asio5error6detail17addrinfo_category4nameEv
	.section	.text._ZNK4asio5error6detail13misc_category4nameEv,"axG",%progbits,_ZNK4asio5error6detail13misc_category4nameEv,comdat
	.align	2
	.weak	_ZNK4asio5error6detail13misc_category4nameEv
	.syntax unified
	.arm
	.fpu vfp
	.type	_ZNK4asio5error6detail13misc_category4nameEv, %function
_ZNK4asio5error6detail13misc_category4nameEv:
	.fnstart
.LFB3369:
	@ args = 0, pretend = 0, frame = 0
	@ frame_needed = 0, uses_anonymous_args = 0
	@ link register save eliminated.
	ldr	r0, .L17
.LPIC5:
	add	r0, pc, r0
	bx	lr
.L18:
	.align	2
.L17:
	.word	.LC5-(.LPIC5+8)
	.cantunwind
	.fnend
	.size	_ZNK4asio5error6detail13misc_category4nameEv, .-_ZNK4asio5error6detail13misc_category4nameEv
	.section	.text._ZNSt13__future_base13_State_baseV217_M_complete_asyncEv,"axG",%progbits,_ZNSt13__future_base13_State_baseV217_M_complete_asyncEv,comdat
	.align	2
	.weak	_ZNSt13__future_base13_State_baseV217_M_complete_asyncEv
	.syntax unified
	.arm
	.fpu vfp
	.type	_ZNSt13__future_base13_State_baseV217_M_complete_asyncEv, %function
_ZNSt13__future_base13_State_baseV217_M_complete_asyncEv:
	.fnstart
.LFB7464:
	@ args = 0, pretend = 0, frame = 0
	@ frame_needed = 0, uses_anonymous_args = 0
	@ link register save eliminated.
	bx	lr
	.cantunwind
	.fnend
	.size	_ZNSt13__future_base13_State_baseV217_M_complete_asyncEv, .-_ZNSt13__future_base13_State_baseV217_M_complete_asyncEv
	.section	.text._ZNKSt13__future_base13_State_baseV221_M_is_deferred_futureEv,"axG",%progbits,_ZNKSt13__future_base13_State_baseV221_M_is_deferred_futureEv,comdat
	.align	2
	.weak	_ZNKSt13__future_base13_State_baseV221_M_is_deferred_futureEv
	.syntax unified
	.arm
	.fpu vfp
	.type	_ZNKSt13__future_base13_State_baseV221_M_is_deferred_futureEv, %function
_ZNKSt13__future_base13_State_baseV221_M_is_deferred_futureEv:
	.fnstart
.LFB7465:
	@ args = 0, pretend = 0, frame = 0
	@ frame_needed = 0, uses_anonymous_args = 0
	@ link register save eliminated.
	mov	r0, #0
	bx	lr
	.cantunwind
	.fnend
	.size	_ZNKSt13__future_base13_State_baseV221_M_is_deferred_futureEv, .-_ZNKSt13__future_base13_State_baseV221_M_is_deferred_futureEv
	.global	__tls_get_addr
	.section	.text._ZZSt9call_onceIMNSt13__future_base13_State_baseV2EFvPSt8functionIFSt10unique_ptrINS0_12_Result_baseENS4_8_DeleterEEvEEPbEJPS1_S9_SA_EEvRSt9once_flagOT_DpOT0_ENUlvE0_4_FUNEv,"axG",%progbits,_ZZSt9call_onceIMNSt13__future_base13_State_baseV2EFvPSt8functionIFSt10unique_ptrINS0_12_Result_baseENS4_8_DeleterEEvEEPbEJPS1_S9_SA_EEvRSt9once_flagOT_DpOT0_ENKUlvE0_clEv,comdat
	.align	2
	.weak	_ZZSt9call_onceIMNSt13__future_base13_State_baseV2EFvPSt8functionIFSt10unique_ptrINS0_12_Result_baseENS4_8_DeleterEEvEEPbEJPS1_S9_SA_EEvRSt9once_flagOT_DpOT0_ENUlvE0_4_FUNEv
	.syntax unified
	.arm
	.fpu vfp
	.type	_ZZSt9call_onceIMNSt13__future_base13_State_baseV2EFvPSt8functionIFSt10unique_ptrINS0_12_Result_baseENS4_8_DeleterEEvEEPbEJPS1_S9_SA_EEvRSt9once_flagOT_DpOT0_ENUlvE0_4_FUNEv, %function
_ZZSt9call_onceIMNSt13__future_base13_State_baseV2EFvPSt8functionIFSt10unique_ptrINS0_12_Result_baseENS4_8_DeleterEEvEEPbEJPS1_S9_SA_EEvRSt9once_flagOT_DpOT0_ENUlvE0_4_FUNEv:
	.fnstart
.LFB9156:
	@ args = 0, pretend = 0, frame = 0
	@ frame_needed = 0, uses_anonymous_args = 0
	ldr	r0, .L26
	push	{r4, lr}
.LPIC6:
	add	r0, pc, r0
	bl	__tls_get_addr(PLT)
	ldr	r3, [r0]
	ldr	lr, [r3]
	ldmib	r3, {r1, r2}
	ldr	r3, [r3, #12]
	ldr	ip, [lr, #4]
	ldr	r0, [r1]
	tst	ip, #1
	ldr	r1, [r2]
	ldr	r2, [r3]
	ldr	r3, [lr]
	ldrne	lr, [r0, ip, asr #1]
	addeq	r0, r0, ip, asr #1
	addne	r0, r0, ip, asr #1
	ldrne	r3, [lr, r3]
	pop	{r4, lr}
	bx	r3	@ indirect register sibling call
.L27:
	.align	2
.L26:
	.word	_ZSt15__once_callable(tlsgd) + (. - .LPIC6 - 8)
	.cantunwind
	.fnend
	.size	_ZZSt9call_onceIMNSt13__future_base13_State_baseV2EFvPSt8functionIFSt10unique_ptrINS0_12_Result_baseENS4_8_DeleterEEvEEPbEJPS1_S9_SA_EEvRSt9once_flagOT_DpOT0_ENUlvE0_4_FUNEv, .-_ZZSt9call_onceIMNSt13__future_base13_State_baseV2EFvPSt8functionIFSt10unique_ptrINS0_12_Result_baseENS4_8_DeleterEEvEEPbEJPS1_S9_SA_EEvRSt9once_flagOT_DpOT0_ENUlvE0_4_FUNEv
	.text
	.align	2
	.syntax unified
	.arm
	.fpu vfp
	.type	_ZNSt17_Function_handlerIFN8opendnp314LinkStatisticsEvEZN8asiodnp311DNP3Channel13GetStatisticsEvEUlvE_E9_M_invokeERKSt9_Any_data, %function
_ZNSt17_Function_handlerIFN8opendnp314LinkStatisticsEvEZN8asiodnp311DNP3Channel13GetStatisticsEvEUlvE_E9_M_invokeERKSt9_Any_data:
	.fnstart
.LFB10157:
	@ args = 0, pretend = 0, frame = 0
	@ frame_needed = 0, uses_anonymous_args = 0
	ldr	r3, [r1]
	push	{r4, r5, r6, lr}
	mov	r6, r0
	ldr	ip, [r3, #36]
	mov	r4, r0
	add	r5, ip, #40
	add	lr, r0, #24
	ldmia	r5!, {r0, r1, r2, r3}
	add	ip, ip, #136
	stmia	r4!, {r0, r1, r2, r3}
	ldm	r5, {r0, r1}
	stm	r4, {r0, r1}
	ldmia	ip!, {r0, r1, r2, r3}
	stmia	lr!, {r0, r1, r2, r3}
	ldm	ip, {r0, r1, r2}
	stm	lr, {r0, r1, r2}
	mov	r0, r6
	pop	{r4, r5, r6, pc}
	.cantunwind
	.fnend
	.size	_ZNSt17_Function_handlerIFN8opendnp314LinkStatisticsEvEZN8asiodnp311DNP3Channel13GetStatisticsEvEUlvE_E9_M_invokeERKSt9_Any_data, .-_ZNSt17_Function_handlerIFN8opendnp314LinkStatisticsEvEZN8asiodnp311DNP3Channel13GetStatisticsEvEUlvE_E9_M_invokeERKSt9_Any_data
	.align	2
	.syntax unified
	.arm
	.fpu vfp
	.type	_ZNSt14_Function_base13_Base_managerIZN8asiodnp311DNP3Channel13GetStatisticsEvEUlvE_E10_M_managerERSt9_Any_dataRKS5_St18_Manager_operation, %function
_ZNSt14_Function_base13_Base_managerIZN8asiodnp311DNP3Channel13GetStatisticsEvEUlvE_E10_M_managerERSt9_Any_dataRKS5_St18_Manager_operation:
	.fnstart
.LFB10158:
	@ args = 0, pretend = 0, frame = 0
	@ frame_needed = 0, uses_anonymous_args = 0
	@ link register save eliminated.
	cmp	r2, #1
	streq	r1, [r0]
	beq	.L31
	bcc	.L33
	cmp	r2, #2
	ldreq	r3, [r1]
	streq	r3, [r0]
.L31:
	mov	r0, #0
	bx	lr
.L33:
	ldr	r3, .L35
.LPIC7:
	add	r3, pc, r3
	str	r3, [r0]
	mov	r0, #0
	bx	lr
.L36:
	.align	2
.L35:
	.word	.LANCHOR0-(.LPIC7+8)
	.cantunwind
	.fnend
	.size	_ZNSt14_Function_base13_Base_managerIZN8asiodnp311DNP3Channel13GetStatisticsEvEUlvE_E10_M_managerERSt9_Any_dataRKS5_St18_Manager_operation, .-_ZNSt14_Function_base13_Base_managerIZN8asiodnp311DNP3Channel13GetStatisticsEvEUlvE_E10_M_managerERSt9_Any_dataRKS5_St18_Manager_operation
	.align	2
	.syntax unified
	.arm
	.fpu vfp
	.type	_ZNSt17_Function_handlerIFN7openpal10LogFiltersEvEZNK8asiodnp311DNP3Channel13GetLogFiltersEvEUlvE_E9_M_invokeERKSt9_Any_data, %function
_ZNSt17_Function_handlerIFN7openpal10LogFiltersEvEZNK8asiodnp311DNP3Channel13GetLogFiltersEvEUlvE_E9_M_invokeERKSt9_Any_data:
	.fnstart
.LFB10179:
	@ args = 0, pretend = 0, frame = 0
	@ frame_needed = 0, uses_anonymous_args = 0
	@ link register save eliminated.
	ldr	r3, [r0]
	ldr	r3, [r3, #20]
	ldr	r0, [r3, #24]
	bx	lr
	.cantunwind
	.fnend
	.size	_ZNSt17_Function_handlerIFN7openpal10LogFiltersEvEZNK8asiodnp311DNP3Channel13GetLogFiltersEvEUlvE_E9_M_invokeERKSt9_Any_data, .-_ZNSt17_Function_handlerIFN7openpal10LogFiltersEvEZNK8asiodnp311DNP3Channel13GetLogFiltersEvEUlvE_E9_M_invokeERKSt9_Any_data
	.align	2
	.syntax unified
	.arm
	.fpu vfp
	.type	_ZNSt14_Function_base13_Base_managerIZNK8asiodnp311DNP3Channel13GetLogFiltersEvEUlvE_E10_M_managerERSt9_Any_dataRKS5_St18_Manager_operation, %function
_ZNSt14_Function_base13_Base_managerIZNK8asiodnp311DNP3Channel13GetLogFiltersEvEUlvE_E10_M_managerERSt9_Any_dataRKS5_St18_Manager_operation:
	.fnstart
.LFB10180:
	@ args = 0, pretend = 0, frame = 0
	@ frame_needed = 0, uses_anonymous_args = 0
	@ link register save eliminated.
	cmp	r2, #1
	streq	r1, [r0]
	beq	.L39
	bcc	.L41
	cmp	r2, #2
	ldreq	r3, [r1]
	streq	r3, [r0]
.L39:
	mov	r0, #0
	bx	lr
.L41:
	ldr	r3, .L43
.LPIC8:
	add	r3, pc, r3
	add	r3, r3, #8
	str	r3, [r0]
	mov	r0, #0
	bx	lr
.L44:
	.align	2
.L43:
	.word	.LANCHOR0-(.LPIC8+8)
	.cantunwind
	.fnend
	.size	_ZNSt14_Function_base13_Base_managerIZNK8asiodnp311DNP3Channel13GetLogFiltersEvEUlvE_E10_M_managerERSt9_Any_dataRKS5_St18_Manager_operation, .-_ZNSt14_Function_base13_Base_managerIZNK8asiodnp311DNP3Channel13GetLogFiltersEvEUlvE_E10_M_managerERSt9_Any_dataRKS5_St18_Manager_operation
	.section	.text._ZNSt14_Function_base13_Base_managerINSt13__future_base13_State_baseV27_SetterIN8opendnp314LinkStatisticsEOS5_EEE10_M_managerERSt9_Any_dataRKS9_St18_Manager_operation,"axG",%progbits,_ZNSt14_Function_base13_Base_managerINSt13__future_base13_State_baseV27_SetterIN8opendnp314LinkStatisticsEOS5_EEE10_M_managerERSt9_Any_dataRKS9_St18_Manager_operation,comdat
	.align	2
	.weak	_ZNSt14_Function_base13_Base_managerINSt13__future_base13_State_baseV27_SetterIN8opendnp314LinkStatisticsEOS5_EEE10_M_managerERSt9_Any_dataRKS9_St18_Manager_operation
	.syntax unified
	.arm
	.fpu vfp
	.type	_ZNSt14_Function_base13_Base_managerINSt13__future_base13_State_baseV27_SetterIN8opendnp314LinkStatisticsEOS5_EEE10_M_managerERSt9_Any_dataRKS9_St18_Manager_operation, %function
_ZNSt14_Function_base13_Base_managerINSt13__future_base13_State_baseV27_SetterIN8opendnp314LinkStatisticsEOS5_EEE10_M_managerERSt9_Any_dataRKS9_St18_Manager_operation:
	.fnstart
.LFB10969:
	@ args = 0, pretend = 0, frame = 0
	@ frame_needed = 0, uses_anonymous_args = 0
	@ link register save eliminated.
	ldr	r3, .L50
	cmp	r2, #1
.LPIC9:
	add	r3, pc, r3
	mov	ip, r0
	streq	r1, [r0]
	beq	.L46
	bcc	.L48
	cmp	r2, #2
	ldmeq	r1, {r0, r1}
	stmeq	ip, {r0, r1}
.L46:
	mov	r0, #0
	bx	lr
.L48:
	ldr	r2, .L50+4
	ldr	r3, [r3, r2]
	str	r3, [r0]
	mov	r0, #0
	bx	lr
.L51:
	.align	2
.L50:
	.word	_GLOBAL_OFFSET_TABLE_-(.LPIC9+8)
	.word	_ZTINSt13__future_base13_State_baseV27_SetterIN8opendnp314LinkStatisticsEOS3_EE(GOT)
	.cantunwind
	.fnend
	.size	_ZNSt14_Function_base13_Base_managerINSt13__future_base13_State_baseV27_SetterIN8opendnp314LinkStatisticsEOS5_EEE10_M_managerERSt9_Any_dataRKS9_St18_Manager_operation, .-_ZNSt14_Function_base13_Base_managerINSt13__future_base13_State_baseV27_SetterIN8opendnp314LinkStatisticsEOS5_EEE10_M_managerERSt9_Any_dataRKS9_St18_Manager_operation
	.section	.text._ZNSt14_Function_base13_Base_managerINSt13__future_base13_State_baseV27_SetterIN7openpal10LogFiltersEOS5_EEE10_M_managerERSt9_Any_dataRKS9_St18_Manager_operation,"axG",%progbits,_ZNSt14_Function_base13_Base_managerINSt13__future_base13_State_baseV27_SetterIN7openpal10LogFiltersEOS5_EEE10_M_managerERSt9_Any_dataRKS9_St18_Manager_operation,comdat
	.align	2
	.weak	_ZNSt14_Function_base13_Base_managerINSt13__future_base13_State_baseV27_SetterIN7openpal10LogFiltersEOS5_EEE10_M_managerERSt9_Any_dataRKS9_St18_Manager_operation
	.syntax unified
	.arm
	.fpu vfp
	.type	_ZNSt14_Function_base13_Base_managerINSt13__future_base13_State_baseV27_SetterIN7openpal10LogFiltersEOS5_EEE10_M_managerERSt9_Any_dataRKS9_St18_Manager_operation, %function
_ZNSt14_Function_base13_Base_managerINSt13__future_base13_State_baseV27_SetterIN7openpal10LogFiltersEOS5_EEE10_M_managerERSt9_Any_dataRKS9_St18_Manager_operation:
	.fnstart
.LFB10997:
	@ args = 0, pretend = 0, frame = 0
	@ frame_needed = 0, uses_anonymous_args = 0
	@ link register save eliminated.
	ldr	r3, .L57
	cmp	r2, #1
.LPIC10:
	add	r3, pc, r3
	mov	ip, r0
	streq	r1, [r0]
	beq	.L53
	bcc	.L55
	cmp	r2, #2
	ldmeq	r1, {r0, r1}
	stmeq	ip, {r0, r1}
.L53:
	mov	r0, #0
	bx	lr
.L55:
	ldr	r2, .L57+4
	ldr	r3, [r3, r2]
	str	r3, [r0]
	mov	r0, #0
	bx	lr
.L58:
	.align	2
.L57:
	.word	_GLOBAL_OFFSET_TABLE_-(.LPIC10+8)
	.word	_ZTINSt13__future_base13_State_baseV27_SetterIN7openpal10LogFiltersEOS3_EE(GOT)
	.cantunwind
	.fnend
	.size	_ZNSt14_Function_base13_Base_managerINSt13__future_base13_State_baseV27_SetterIN7openpal10LogFiltersEOS5_EEE10_M_managerERSt9_Any_dataRKS9_St18_Manager_operation, .-_ZNSt14_Function_base13_Base_managerINSt13__future_base13_State_baseV27_SetterIN7openpal10LogFiltersEOS5_EEE10_M_managerERSt9_Any_dataRKS9_St18_Manager_operation
	.section	.text._ZNSt14_Function_base13_Base_managerINSt13__future_base13_State_baseV27_SetterIbObEEE10_M_managerERSt9_Any_dataRKS7_St18_Manager_operation,"axG",%progbits,_ZNSt14_Function_base13_Base_managerINSt13__future_base13_State_baseV27_SetterIbObEEE10_M_managerERSt9_Any_dataRKS7_St18_Manager_operation,comdat
	.align	2
	.weak	_ZNSt14_Function_base13_Base_managerINSt13__future_base13_State_baseV27_SetterIbObEEE10_M_managerERSt9_Any_dataRKS7_St18_Manager_operation
	.syntax unified
	.arm
	.fpu vfp
	.type	_ZNSt14_Function_base13_Base_managerINSt13__future_base13_State_baseV27_SetterIbObEEE10_M_managerERSt9_Any_dataRKS7_St18_Manager_operation, %function
_ZNSt14_Function_base13_Base_managerINSt13__future_base13_State_baseV27_SetterIbObEEE10_M_managerERSt9_Any_dataRKS7_St18_Manager_operation:
	.fnstart
.LFB11337:
	@ args = 0, pretend = 0, frame = 0
	@ frame_needed = 0, uses_anonymous_args = 0
	@ link register save eliminated.
	ldr	r3, .L64
	cmp	r2, #1
.LPIC11:
	add	r3, pc, r3
	mov	ip, r0
	streq	r1, [r0]
	beq	.L60
	bcc	.L62
	cmp	r2, #2
	ldmeq	r1, {r0, r1}
	stmeq	ip, {r0, r1}
.L60:
	mov	r0, #0
	bx	lr
.L62:
	ldr	r2, .L64+4
	ldr	r3, [r3, r2]
	str	r3, [r0]
	mov	r0, #0
	bx	lr
.L65:
	.align	2
.L64:
	.word	_GLOBAL_OFFSET_TABLE_-(.LPIC11+8)
	.word	_ZTINSt13__future_base13_State_baseV27_SetterIbObEE(GOT)
	.cantunwind
	.fnend
	.size	_ZNSt14_Function_base13_Base_managerINSt13__future_base13_State_baseV27_SetterIbObEEE10_M_managerERSt9_Any_dataRKS7_St18_Manager_operation, .-_ZNSt14_Function_base13_Base_managerINSt13__future_base13_State_baseV27_SetterIbObEEE10_M_managerERSt9_Any_dataRKS7_St18_Manager_operation
	.section	.text._ZNSt13__future_base13_State_baseV2D2Ev,"axG",%progbits,_ZNSt13__future_base13_State_baseV2D5Ev,comdat
	.align	2
	.weak	_ZNSt13__future_base13_State_baseV2D2Ev
	.syntax unified
	.arm
	.fpu vfp
	.type	_ZNSt13__future_base13_State_baseV2D2Ev, %function
_ZNSt13__future_base13_State_baseV2D2Ev:
	.fnstart
.LFB12339:
	@ args = 0, pretend = 0, frame = 0
	@ frame_needed = 0, uses_anonymous_args = 0
	ldr	r3, .L72
	ldr	r2, .L72+4
.LPIC12:
	add	r3, pc, r3
	push	{r4, lr}
	.save {r4, lr}
	mov	r4, r0
	ldr	r3, [r3, r2]
	ldr	r0, [r0, #4]
	add	r3, r3, #8
	cmp	r0, #0
	str	r3, [r4]
	beq	.L67
	ldr	r3, [r0]
	ldr	r3, [r3]
	blx	r3
.L67:
	mov	r0, r4
	pop	{r4, pc}
.L73:
	.align	2
.L72:
	.word	_GLOBAL_OFFSET_TABLE_-(.LPIC12+8)
	.word	_ZTVNSt13__future_base13_State_baseV2E(GOT)
	.global	__gxx_personality_v0
	.personality	__gxx_personality_v0
	.handlerdata
.LLSDA12339:
	.byte	0xff
	.byte	0xff
	.byte	0x1
	.uleb128 .LLSDACSE12339-.LLSDACSB12339
.LLSDACSB12339:
.LLSDACSE12339:
	.section	.text._ZNSt13__future_base13_State_baseV2D2Ev,"axG",%progbits,_ZNSt13__future_base13_State_baseV2D5Ev,comdat
	.fnend
	.size	_ZNSt13__future_base13_State_baseV2D2Ev, .-_ZNSt13__future_base13_State_baseV2D2Ev
	.weak	_ZNSt13__future_base13_State_baseV2D1Ev
	.set	_ZNSt13__future_base13_State_baseV2D1Ev,_ZNSt13__future_base13_State_baseV2D2Ev
	.section	.text._ZN4asio6detail10service_idINS0_13epoll_reactorEED2Ev,"axG",%progbits,_ZN4asio6detail10service_idINS0_13epoll_reactorEED5Ev,comdat
	.align	2
	.weak	_ZN4asio6detail10service_idINS0_13epoll_reactorEED2Ev
	.syntax unified
	.arm
	.fpu vfp
	.type	_ZN4asio6detail10service_idINS0_13epoll_reactorEED2Ev, %function
_ZN4asio6detail10service_idINS0_13epoll_reactorEED2Ev:
	.fnstart
.LFB12411:
	@ args = 0, pretend = 0, frame = 0
	@ frame_needed = 0, uses_anonymous_args = 0
	@ link register save eliminated.
	bx	lr
	.cantunwind
	.fnend
	.size	_ZN4asio6detail10service_idINS0_13epoll_reactorEED2Ev, .-_ZN4asio6detail10service_idINS0_13epoll_reactorEED2Ev
	.weak	_ZN4asio6detail10service_idINS0_13epoll_reactorEED1Ev
	.set	_ZN4asio6detail10service_idINS0_13epoll_reactorEED1Ev,_ZN4asio6detail10service_idINS0_13epoll_reactorEED2Ev
	.section	.text._ZN4asio6detail10service_idINS0_15task_io_serviceEED2Ev,"axG",%progbits,_ZN4asio6detail10service_idINS0_15task_io_serviceEED5Ev,comdat
	.align	2
	.weak	_ZN4asio6detail10service_idINS0_15task_io_serviceEED2Ev
	.syntax unified
	.arm
	.fpu vfp
	.type	_ZN4asio6detail10service_idINS0_15task_io_serviceEED2Ev, %function
_ZN4asio6detail10service_idINS0_15task_io_serviceEED2Ev:
	.fnstart
.LFB12414:
	@ args = 0, pretend = 0, frame = 0
	@ frame_needed = 0, uses_anonymous_args = 0
	@ link register save eliminated.
	bx	lr
	.cantunwind
	.fnend
	.size	_ZN4asio6detail10service_idINS0_15task_io_serviceEED2Ev, .-_ZN4asio6detail10service_idINS0_15task_io_serviceEED2Ev
	.weak	_ZN4asio6detail10service_idINS0_15task_io_serviceEED1Ev
	.set	_ZN4asio6detail10service_idINS0_15task_io_serviceEED1Ev,_ZN4asio6detail10service_idINS0_15task_io_serviceEED2Ev
	.section	.text._ZN4asio6detail10service_idINS0_14strand_serviceEED2Ev,"axG",%progbits,_ZN4asio6detail10service_idINS0_14strand_serviceEED5Ev,comdat
	.align	2
	.weak	_ZN4asio6detail10service_idINS0_14strand_serviceEED2Ev
	.syntax unified
	.arm
	.fpu vfp
	.type	_ZN4asio6detail10service_idINS0_14strand_serviceEED2Ev, %function
_ZN4asio6detail10service_idINS0_14strand_serviceEED2Ev:
	.fnstart
.LFB12420:
	@ args = 0, pretend = 0, frame = 0
	@ frame_needed = 0, uses_anonymous_args = 0
	@ link register save eliminated.
	bx	lr
	.cantunwind
	.fnend
	.size	_ZN4asio6detail10service_idINS0_14strand_serviceEED2Ev, .-_ZN4asio6detail10service_idINS0_14strand_serviceEED2Ev
	.weak	_ZN4asio6detail10service_idINS0_14strand_serviceEED1Ev
	.set	_ZN4asio6detail10service_idINS0_14strand_serviceEED1Ev,_ZN4asio6detail10service_idINS0_14strand_serviceEED2Ev
	.section	.text._ZNSt23_Sp_counted_ptr_inplaceIN8asiodnp315OutstationStackESaIS1_ELN9__gnu_cxx12_Lock_policyE1EED2Ev,"axG",%progbits,_ZNSt23_Sp_counted_ptr_inplaceIN8asiodnp315OutstationStackESaIS1_ELN9__gnu_cxx12_Lock_policyE1EED5Ev,comdat
	.align	2
	.weak	_ZNSt23_Sp_counted_ptr_inplaceIN8asiodnp315OutstationStackESaIS1_ELN9__gnu_cxx12_Lock_policyE1EED2Ev
	.syntax unified
	.arm
	.fpu vfp
	.type	_ZNSt23_Sp_counted_ptr_inplaceIN8asiodnp315OutstationStackESaIS1_ELN9__gnu_cxx12_Lock_policyE1EED2Ev, %function
_ZNSt23_Sp_counted_ptr_inplaceIN8asiodnp315OutstationStackESaIS1_ELN9__gnu_cxx12_Lock_policyE1EED2Ev:
	.fnstart
.LFB12423:
	@ args = 0, pretend = 0, frame = 0
	@ frame_needed = 0, uses_anonymous_args = 0
	@ link register save eliminated.
	bx	lr
	.cantunwind
	.fnend
	.size	_ZNSt23_Sp_counted_ptr_inplaceIN8asiodnp315OutstationStackESaIS1_ELN9__gnu_cxx12_Lock_policyE1EED2Ev, .-_ZNSt23_Sp_counted_ptr_inplaceIN8asiodnp315OutstationStackESaIS1_ELN9__gnu_cxx12_Lock_policyE1EED2Ev
	.weak	_ZNSt23_Sp_counted_ptr_inplaceIN8asiodnp315OutstationStackESaIS1_ELN9__gnu_cxx12_Lock_policyE1EED1Ev
	.set	_ZNSt23_Sp_counted_ptr_inplaceIN8asiodnp315OutstationStackESaIS1_ELN9__gnu_cxx12_Lock_policyE1EED1Ev,_ZNSt23_Sp_counted_ptr_inplaceIN8asiodnp315OutstationStackESaIS1_ELN9__gnu_cxx12_Lock_policyE1EED2Ev
	.section	.text._ZNSt23_Sp_counted_ptr_inplaceIN8asiodnp311MasterStackESaIS1_ELN9__gnu_cxx12_Lock_policyE1EED2Ev,"axG",%progbits,_ZNSt23_Sp_counted_ptr_inplaceIN8asiodnp311MasterStackESaIS1_ELN9__gnu_cxx12_Lock_policyE1EED5Ev,comdat
	.align	2
	.weak	_ZNSt23_Sp_counted_ptr_inplaceIN8asiodnp311MasterStackESaIS1_ELN9__gnu_cxx12_Lock_policyE1EED2Ev
	.syntax unified
	.arm
	.fpu vfp
	.type	_ZNSt23_Sp_counted_ptr_inplaceIN8asiodnp311MasterStackESaIS1_ELN9__gnu_cxx12_Lock_policyE1EED2Ev, %function
_ZNSt23_Sp_counted_ptr_inplaceIN8asiodnp311MasterStackESaIS1_ELN9__gnu_cxx12_Lock_policyE1EED2Ev:
	.fnstart
.LFB12430:
	@ args = 0, pretend = 0, frame = 0
	@ frame_needed = 0, uses_anonymous_args = 0
	@ link register save eliminated.
	bx	lr
	.cantunwind
	.fnend
	.size	_ZNSt23_Sp_counted_ptr_inplaceIN8asiodnp311MasterStackESaIS1_ELN9__gnu_cxx12_Lock_policyE1EED2Ev, .-_ZNSt23_Sp_counted_ptr_inplaceIN8asiodnp311MasterStackESaIS1_ELN9__gnu_cxx12_Lock_policyE1EED2Ev
	.weak	_ZNSt23_Sp_counted_ptr_inplaceIN8asiodnp311MasterStackESaIS1_ELN9__gnu_cxx12_Lock_policyE1EED1Ev
	.set	_ZNSt23_Sp_counted_ptr_inplaceIN8asiodnp311MasterStackESaIS1_ELN9__gnu_cxx12_Lock_policyE1EED1Ev,_ZNSt23_Sp_counted_ptr_inplaceIN8asiodnp311MasterStackESaIS1_ELN9__gnu_cxx12_Lock_policyE1EED2Ev
	.section	.text._ZNSt23_Sp_counted_ptr_inplaceIN8asiodnp311MasterStackESaIS1_ELN9__gnu_cxx12_Lock_policyE1EE10_M_disposeEv,"axG",%progbits,_ZNSt23_Sp_counted_ptr_inplaceIN8asiodnp311MasterStackESaIS1_ELN9__gnu_cxx12_Lock_policyE1EE10_M_disposeEv,comdat
	.align	2
	.weak	_ZNSt23_Sp_counted_ptr_inplaceIN8asiodnp311MasterStackESaIS1_ELN9__gnu_cxx12_Lock_policyE1EE10_M_disposeEv
	.syntax unified
	.arm
	.fpu vfp
	.type	_ZNSt23_Sp_counted_ptr_inplaceIN8asiodnp311MasterStackESaIS1_ELN9__gnu_cxx12_Lock_policyE1EE10_M_disposeEv, %function
_ZNSt23_Sp_counted_ptr_inplaceIN8asiodnp311MasterStackESaIS1_ELN9__gnu_cxx12_Lock_policyE1EE10_M_disposeEv:
	.fnstart
.LFB12433:
	@ args = 0, pretend = 0, frame = 0
	@ frame_needed = 0, uses_anonymous_args = 0
	@ link register save eliminated.
	mov	r3, r0
	add	r0, r0, #40
	ldr	r3, [r3, #40]
	ldr	r3, [r3, #8]
	bx	r3
	.cantunwind
	.fnend
	.size	_ZNSt23_Sp_counted_ptr_inplaceIN8asiodnp311MasterStackESaIS1_ELN9__gnu_cxx12_Lock_policyE1EE10_M_disposeEv, .-_ZNSt23_Sp_counted_ptr_inplaceIN8asiodnp311MasterStackESaIS1_ELN9__gnu_cxx12_Lock_policyE1EE10_M_disposeEv
	.section	.text._ZNSt23_Sp_counted_ptr_inplaceIN7asiopal15ResourceManagerESaIS1_ELN9__gnu_cxx12_Lock_policyE1EED2Ev,"axG",%progbits,_ZNSt23_Sp_counted_ptr_inplaceIN7asiopal15ResourceManagerESaIS1_ELN9__gnu_cxx12_Lock_policyE1EED5Ev,comdat
	.align	2
	.weak	_ZNSt23_Sp_counted_ptr_inplaceIN7asiopal15ResourceManagerESaIS1_ELN9__gnu_cxx12_Lock_policyE1EED2Ev
	.syntax unified
	.arm
	.fpu vfp
	.type	_ZNSt23_Sp_counted_ptr_inplaceIN7asiopal15ResourceManagerESaIS1_ELN9__gnu_cxx12_Lock_policyE1EED2Ev, %function
_ZNSt23_Sp_counted_ptr_inplaceIN7asiopal15ResourceManagerESaIS1_ELN9__gnu_cxx12_Lock_policyE1EED2Ev:
	.fnstart
.LFB12451:
	@ args = 0, pretend = 0, frame = 0
	@ frame_needed = 0, uses_anonymous_args = 0
	@ link register save eliminated.
	bx	lr
	.cantunwind
	.fnend
	.size	_ZNSt23_Sp_counted_ptr_inplaceIN7asiopal15ResourceManagerESaIS1_ELN9__gnu_cxx12_Lock_policyE1EED2Ev, .-_ZNSt23_Sp_counted_ptr_inplaceIN7asiopal15ResourceManagerESaIS1_ELN9__gnu_cxx12_Lock_policyE1EED2Ev
	.weak	_ZNSt23_Sp_counted_ptr_inplaceIN7asiopal15ResourceManagerESaIS1_ELN9__gnu_cxx12_Lock_policyE1EED1Ev
	.set	_ZNSt23_Sp_counted_ptr_inplaceIN7asiopal15ResourceManagerESaIS1_ELN9__gnu_cxx12_Lock_policyE1EED1Ev,_ZNSt23_Sp_counted_ptr_inplaceIN7asiopal15ResourceManagerESaIS1_ELN9__gnu_cxx12_Lock_policyE1EED2Ev
	.section	.text._ZNSt23_Sp_counted_ptr_inplaceINSt13__future_base13_State_baseV2ESaIS1_ELN9__gnu_cxx12_Lock_policyE1EED2Ev,"axG",%progbits,_ZNSt23_Sp_counted_ptr_inplaceINSt13__future_base13_State_baseV2ESaIS1_ELN9__gnu_cxx12_Lock_policyE1EED5Ev,comdat
	.align	2
	.weak	_ZNSt23_Sp_counted_ptr_inplaceINSt13__future_base13_State_baseV2ESaIS1_ELN9__gnu_cxx12_Lock_policyE1EED2Ev
	.syntax unified
	.arm
	.fpu vfp
	.type	_ZNSt23_Sp_counted_ptr_inplaceINSt13__future_base13_State_baseV2ESaIS1_ELN9__gnu_cxx12_Lock_policyE1EED2Ev, %function
_ZNSt23_Sp_counted_ptr_inplaceINSt13__future_base13_State_baseV2ESaIS1_ELN9__gnu_cxx12_Lock_policyE1EED2Ev:
	.fnstart
.LFB12465:
	@ args = 0, pretend = 0, frame = 0
	@ frame_needed = 0, uses_anonymous_args = 0
	@ link register save eliminated.
	bx	lr
	.cantunwind
	.fnend
	.size	_ZNSt23_Sp_counted_ptr_inplaceINSt13__future_base13_State_baseV2ESaIS1_ELN9__gnu_cxx12_Lock_policyE1EED2Ev, .-_ZNSt23_Sp_counted_ptr_inplaceINSt13__future_base13_State_baseV2ESaIS1_ELN9__gnu_cxx12_Lock_policyE1EED2Ev
	.weak	_ZNSt23_Sp_counted_ptr_inplaceINSt13__future_base13_State_baseV2ESaIS1_ELN9__gnu_cxx12_Lock_policyE1EED1Ev
	.set	_ZNSt23_Sp_counted_ptr_inplaceINSt13__future_base13_State_baseV2ESaIS1_ELN9__gnu_cxx12_Lock_policyE1EED1Ev,_ZNSt23_Sp_counted_ptr_inplaceINSt13__future_base13_State_baseV2ESaIS1_ELN9__gnu_cxx12_Lock_policyE1EED2Ev
	.section	.text._ZNSt23_Sp_counted_ptr_inplaceINSt13__future_base13_State_baseV2ESaIS1_ELN9__gnu_cxx12_Lock_policyE1EE10_M_disposeEv,"axG",%progbits,_ZNSt23_Sp_counted_ptr_inplaceINSt13__future_base13_State_baseV2ESaIS1_ELN9__gnu_cxx12_Lock_policyE1EE10_M_disposeEv,comdat
	.align	2
	.weak	_ZNSt23_Sp_counted_ptr_inplaceINSt13__future_base13_State_baseV2ESaIS1_ELN9__gnu_cxx12_Lock_policyE1EE10_M_disposeEv
	.syntax unified
	.arm
	.fpu vfp
	.type	_ZNSt23_Sp_counted_ptr_inplaceINSt13__future_base13_State_baseV2ESaIS1_ELN9__gnu_cxx12_Lock_policyE1EE10_M_disposeEv, %function
_ZNSt23_Sp_counted_ptr_inplaceINSt13__future_base13_State_baseV2ESaIS1_ELN9__gnu_cxx12_Lock_policyE1EE10_M_disposeEv:
	.fnstart
.LFB12468:
	@ args = 0, pretend = 0, frame = 0
	@ frame_needed = 0, uses_anonymous_args = 0
	@ link register save eliminated.
	mov	r3, r0
	add	r0, r0, #36
	ldr	r3, [r3, #36]
	ldr	r3, [r3]
	bx	r3
	.cantunwind
	.fnend
	.size	_ZNSt23_Sp_counted_ptr_inplaceINSt13__future_base13_State_baseV2ESaIS1_ELN9__gnu_cxx12_Lock_policyE1EE10_M_disposeEv, .-_ZNSt23_Sp_counted_ptr_inplaceINSt13__future_base13_State_baseV2ESaIS1_ELN9__gnu_cxx12_Lock_policyE1EE10_M_disposeEv
	.section	.text._ZNSt23_Sp_counted_ptr_inplaceIN7openpal6Logger8SettingsESaIS2_ELN9__gnu_cxx12_Lock_policyE1EED2Ev,"axG",%progbits,_ZNSt23_Sp_counted_ptr_inplaceIN7openpal6Logger8SettingsESaIS2_ELN9__gnu_cxx12_Lock_policyE1EED5Ev,comdat
	.align	2
	.weak	_ZNSt23_Sp_counted_ptr_inplaceIN7openpal6Logger8SettingsESaIS2_ELN9__gnu_cxx12_Lock_policyE1EED2Ev
	.syntax unified
	.arm
	.fpu vfp
	.type	_ZNSt23_Sp_counted_ptr_inplaceIN7openpal6Logger8SettingsESaIS2_ELN9__gnu_cxx12_Lock_policyE1EED2Ev, %function
_ZNSt23_Sp_counted_ptr_inplaceIN7openpal6Logger8SettingsESaIS2_ELN9__gnu_cxx12_Lock_policyE1EED2Ev:
	.fnstart
.LFB12479:
	@ args = 0, pretend = 0, frame = 0
	@ frame_needed = 0, uses_anonymous_args = 0
	@ link register save eliminated.
	bx	lr
	.cantunwind
	.fnend
	.size	_ZNSt23_Sp_counted_ptr_inplaceIN7openpal6Logger8SettingsESaIS2_ELN9__gnu_cxx12_Lock_policyE1EED2Ev, .-_ZNSt23_Sp_counted_ptr_inplaceIN7openpal6Logger8SettingsESaIS2_ELN9__gnu_cxx12_Lock_policyE1EED2Ev
	.weak	_ZNSt23_Sp_counted_ptr_inplaceIN7openpal6Logger8SettingsESaIS2_ELN9__gnu_cxx12_Lock_policyE1EED1Ev
	.set	_ZNSt23_Sp_counted_ptr_inplaceIN7openpal6Logger8SettingsESaIS2_ELN9__gnu_cxx12_Lock_policyE1EED1Ev,_ZNSt23_Sp_counted_ptr_inplaceIN7openpal6Logger8SettingsESaIS2_ELN9__gnu_cxx12_Lock_policyE1EED2Ev
	.section	.text._ZNSt23_Sp_counted_ptr_inplaceIN7openpal6Logger8SettingsESaIS2_ELN9__gnu_cxx12_Lock_policyE1EE14_M_get_deleterERKSt9type_info,"axG",%progbits,_ZNSt23_Sp_counted_ptr_inplaceIN7openpal6Logger8SettingsESaIS2_ELN9__gnu_cxx12_Lock_policyE1EE14_M_get_deleterERKSt9type_info,comdat
	.align	2
	.weak	_ZNSt23_Sp_counted_ptr_inplaceIN7openpal6Logger8SettingsESaIS2_ELN9__gnu_cxx12_Lock_policyE1EE14_M_get_deleterERKSt9type_info
	.syntax unified
	.arm
	.fpu vfp
	.type	_ZNSt23_Sp_counted_ptr_inplaceIN7openpal6Logger8SettingsESaIS2_ELN9__gnu_cxx12_Lock_policyE1EE14_M_get_deleterERKSt9type_info, %function
_ZNSt23_Sp_counted_ptr_inplaceIN7openpal6Logger8SettingsESaIS2_ELN9__gnu_cxx12_Lock_policyE1EE14_M_get_deleterERKSt9type_info:
	.fnstart
.LFB12484:
	@ args = 0, pretend = 0, frame = 0
	@ frame_needed = 0, uses_anonymous_args = 0
	ldr	r3, .L88
	ldr	r2, .L88+4
.LPIC13:
	add	r3, pc, r3
	push	{r4, lr}
	mov	r4, r0
	ldr	r2, [r3, r2]
	mov	r0, r1
	mov	r1, r2
	bl	_ZNKSt9type_infoeqERKS_(PLT)
	cmp	r0, #0
	addne	r0, r4, #36
	pop	{r4, pc}
.L89:
	.align	2
.L88:
	.word	_GLOBAL_OFFSET_TABLE_-(.LPIC13+8)
	.word	_ZTISt19_Sp_make_shared_tag(GOT)
	.cantunwind
	.fnend
	.size	_ZNSt23_Sp_counted_ptr_inplaceIN7openpal6Logger8SettingsESaIS2_ELN9__gnu_cxx12_Lock_policyE1EE14_M_get_deleterERKSt9type_info, .-_ZNSt23_Sp_counted_ptr_inplaceIN7openpal6Logger8SettingsESaIS2_ELN9__gnu_cxx12_Lock_policyE1EE14_M_get_deleterERKSt9type_info
	.section	.text._ZNSt23_Sp_counted_ptr_inplaceINSt13__future_base13_State_baseV2ESaIS1_ELN9__gnu_cxx12_Lock_policyE1EE14_M_get_deleterERKSt9type_info,"axG",%progbits,_ZNSt23_Sp_counted_ptr_inplaceINSt13__future_base13_State_baseV2ESaIS1_ELN9__gnu_cxx12_Lock_policyE1EE14_M_get_deleterERKSt9type_info,comdat
	.align	2
	.weak	_ZNSt23_Sp_counted_ptr_inplaceINSt13__future_base13_State_baseV2ESaIS1_ELN9__gnu_cxx12_Lock_policyE1EE14_M_get_deleterERKSt9type_info
	.syntax unified
	.arm
	.fpu vfp
	.type	_ZNSt23_Sp_counted_ptr_inplaceINSt13__future_base13_State_baseV2ESaIS1_ELN9__gnu_cxx12_Lock_policyE1EE14_M_get_deleterERKSt9type_info, %function
_ZNSt23_Sp_counted_ptr_inplaceINSt13__future_base13_State_baseV2ESaIS1_ELN9__gnu_cxx12_Lock_policyE1EE14_M_get_deleterERKSt9type_info:
	.fnstart
.LFB12470:
	@ args = 0, pretend = 0, frame = 0
	@ frame_needed = 0, uses_anonymous_args = 0
	ldr	r3, .L94
	ldr	r2, .L94+4
.LPIC14:
	add	r3, pc, r3
	push	{r4, lr}
	mov	r4, r0
	ldr	r2, [r3, r2]
	mov	r0, r1
	mov	r1, r2
	bl	_ZNKSt9type_infoeqERKS_(PLT)
	cmp	r0, #0
	addne	r0, r4, #36
	pop	{r4, pc}
.L95:
	.align	2
.L94:
	.word	_GLOBAL_OFFSET_TABLE_-(.LPIC14+8)
	.word	_ZTISt19_Sp_make_shared_tag(GOT)
	.cantunwind
	.fnend
	.size	_ZNSt23_Sp_counted_ptr_inplaceINSt13__future_base13_State_baseV2ESaIS1_ELN9__gnu_cxx12_Lock_policyE1EE14_M_get_deleterERKSt9type_info, .-_ZNSt23_Sp_counted_ptr_inplaceINSt13__future_base13_State_baseV2ESaIS1_ELN9__gnu_cxx12_Lock_policyE1EE14_M_get_deleterERKSt9type_info
	.section	.text._ZNSt23_Sp_counted_ptr_inplaceIN7asiopal15ResourceManagerESaIS1_ELN9__gnu_cxx12_Lock_policyE1EE14_M_get_deleterERKSt9type_info,"axG",%progbits,_ZNSt23_Sp_counted_ptr_inplaceIN7asiopal15ResourceManagerESaIS1_ELN9__gnu_cxx12_Lock_policyE1EE14_M_get_deleterERKSt9type_info,comdat
	.align	2
	.weak	_ZNSt23_Sp_counted_ptr_inplaceIN7asiopal15ResourceManagerESaIS1_ELN9__gnu_cxx12_Lock_policyE1EE14_M_get_deleterERKSt9type_info
	.syntax unified
	.arm
	.fpu vfp
	.type	_ZNSt23_Sp_counted_ptr_inplaceIN7asiopal15ResourceManagerESaIS1_ELN9__gnu_cxx12_Lock_policyE1EE14_M_get_deleterERKSt9type_info, %function
_ZNSt23_Sp_counted_ptr_inplaceIN7asiopal15ResourceManagerESaIS1_ELN9__gnu_cxx12_Lock_policyE1EE14_M_get_deleterERKSt9type_info:
	.fnstart
.LFB12456:
	@ args = 0, pretend = 0, frame = 0
	@ frame_needed = 0, uses_anonymous_args = 0
	ldr	r3, .L100
	ldr	r2, .L100+4
.LPIC15:
	add	r3, pc, r3
	push	{r4, lr}
	mov	r4, r0
	ldr	r2, [r3, r2]
	mov	r0, r1
	mov	r1, r2
	bl	_ZNKSt9type_infoeqERKS_(PLT)
	cmp	r0, #0
	addne	r0, r4, #36
	pop	{r4, pc}
.L101:
	.align	2
.L100:
	.word	_GLOBAL_OFFSET_TABLE_-(.LPIC15+8)
	.word	_ZTISt19_Sp_make_shared_tag(GOT)
	.cantunwind
	.fnend
	.size	_ZNSt23_Sp_counted_ptr_inplaceIN7asiopal15ResourceManagerESaIS1_ELN9__gnu_cxx12_Lock_policyE1EE14_M_get_deleterERKSt9type_info, .-_ZNSt23_Sp_counted_ptr_inplaceIN7asiopal15ResourceManagerESaIS1_ELN9__gnu_cxx12_Lock_policyE1EE14_M_get_deleterERKSt9type_info
	.section	.text._ZNSt23_Sp_counted_ptr_inplaceIN8asiodnp311MasterStackESaIS1_ELN9__gnu_cxx12_Lock_policyE1EE14_M_get_deleterERKSt9type_info,"axG",%progbits,_ZNSt23_Sp_counted_ptr_inplaceIN8asiodnp311MasterStackESaIS1_ELN9__gnu_cxx12_Lock_policyE1EE14_M_get_deleterERKSt9type_info,comdat
	.align	2
	.weak	_ZNSt23_Sp_counted_ptr_inplaceIN8asiodnp311MasterStackESaIS1_ELN9__gnu_cxx12_Lock_policyE1EE14_M_get_deleterERKSt9type_info
	.syntax unified
	.arm
	.fpu vfp
	.type	_ZNSt23_Sp_counted_ptr_inplaceIN8asiodnp311MasterStackESaIS1_ELN9__gnu_cxx12_Lock_policyE1EE14_M_get_deleterERKSt9type_info, %function
_ZNSt23_Sp_counted_ptr_inplaceIN8asiodnp311MasterStackESaIS1_ELN9__gnu_cxx12_Lock_policyE1EE14_M_get_deleterERKSt9type_info:
	.fnstart
.LFB12435:
	@ args = 0, pretend = 0, frame = 0
	@ frame_needed = 0, uses_anonymous_args = 0
	ldr	r3, .L106
	ldr	r2, .L106+4
.LPIC16:
	add	r3, pc, r3
	push	{r4, lr}
	mov	r4, r0
	ldr	r2, [r3, r2]
	mov	r0, r1
	mov	r1, r2
	bl	_ZNKSt9type_infoeqERKS_(PLT)
	cmp	r0, #0
	addne	r0, r4, #40
	pop	{r4, pc}
.L107:
	.align	2
.L106:
	.word	_GLOBAL_OFFSET_TABLE_-(.LPIC16+8)
	.word	_ZTISt19_Sp_make_shared_tag(GOT)
	.cantunwind
	.fnend
	.size	_ZNSt23_Sp_counted_ptr_inplaceIN8asiodnp311MasterStackESaIS1_ELN9__gnu_cxx12_Lock_policyE1EE14_M_get_deleterERKSt9type_info, .-_ZNSt23_Sp_counted_ptr_inplaceIN8asiodnp311MasterStackESaIS1_ELN9__gnu_cxx12_Lock_policyE1EE14_M_get_deleterERKSt9type_info
	.section	.text._ZNSt23_Sp_counted_ptr_inplaceIN8asiodnp315OutstationStackESaIS1_ELN9__gnu_cxx12_Lock_policyE1EE14_M_get_deleterERKSt9type_info,"axG",%progbits,_ZNSt23_Sp_counted_ptr_inplaceIN8asiodnp315OutstationStackESaIS1_ELN9__gnu_cxx12_Lock_policyE1EE14_M_get_deleterERKSt9type_info,comdat
	.align	2
	.weak	_ZNSt23_Sp_counted_ptr_inplaceIN8asiodnp315OutstationStackESaIS1_ELN9__gnu_cxx12_Lock_policyE1EE14_M_get_deleterERKSt9type_info
	.syntax unified
	.arm
	.fpu vfp
	.type	_ZNSt23_Sp_counted_ptr_inplaceIN8asiodnp315OutstationStackESaIS1_ELN9__gnu_cxx12_Lock_policyE1EE14_M_get_deleterERKSt9type_info, %function
_ZNSt23_Sp_counted_ptr_inplaceIN8asiodnp315OutstationStackESaIS1_ELN9__gnu_cxx12_Lock_policyE1EE14_M_get_deleterERKSt9type_info:
	.fnstart
.LFB12428:
	@ args = 0, pretend = 0, frame = 0
	@ frame_needed = 0, uses_anonymous_args = 0
	ldr	r3, .L112
	ldr	r2, .L112+4
.LPIC17:
	add	r3, pc, r3
	push	{r4, lr}
	mov	r4, r0
	ldr	r2, [r3, r2]
	mov	r0, r1
	mov	r1, r2
	bl	_ZNKSt9type_infoeqERKS_(PLT)
	cmp	r0, #0
	addne	r0, r4, #40
	pop	{r4, pc}
.L113:
	.align	2
.L112:
	.word	_GLOBAL_OFFSET_TABLE_-(.LPIC17+8)
	.word	_ZTISt19_Sp_make_shared_tag(GOT)
	.cantunwind
	.fnend
	.size	_ZNSt23_Sp_counted_ptr_inplaceIN8asiodnp315OutstationStackESaIS1_ELN9__gnu_cxx12_Lock_policyE1EE14_M_get_deleterERKSt9type_info, .-_ZNSt23_Sp_counted_ptr_inplaceIN8asiodnp315OutstationStackESaIS1_ELN9__gnu_cxx12_Lock_policyE1EE14_M_get_deleterERKSt9type_info
	.section	.text._ZN9__gnu_cxx24__concurrence_lock_errorD2Ev,"axG",%progbits,_ZN9__gnu_cxx24__concurrence_lock_errorD5Ev,comdat
	.align	2
	.weak	_ZN9__gnu_cxx24__concurrence_lock_errorD2Ev
	.syntax unified
	.arm
	.fpu vfp
	.type	_ZN9__gnu_cxx24__concurrence_lock_errorD2Ev, %function
_ZN9__gnu_cxx24__concurrence_lock_errorD2Ev:
	.fnstart
.LFB12403:
	@ args = 0, pretend = 0, frame = 0
	@ frame_needed = 0, uses_anonymous_args = 0
	ldr	r3, .L116
	ldr	r2, .L116+4
.LPIC18:
	add	r3, pc, r3
	push	{r4, lr}
	mov	r4, r0
	ldr	r3, [r3, r2]
	add	r3, r3, #8
	str	r3, [r0]
	bl	_ZNSt9exceptionD2Ev(PLT)
	mov	r0, r4
	pop	{r4, pc}
.L117:
	.align	2
.L116:
	.word	_GLOBAL_OFFSET_TABLE_-(.LPIC18+8)
	.word	_ZTVN9__gnu_cxx24__concurrence_lock_errorE(GOT)
	.cantunwind
	.fnend
	.size	_ZN9__gnu_cxx24__concurrence_lock_errorD2Ev, .-_ZN9__gnu_cxx24__concurrence_lock_errorD2Ev
	.weak	_ZN9__gnu_cxx24__concurrence_lock_errorD1Ev
	.set	_ZN9__gnu_cxx24__concurrence_lock_errorD1Ev,_ZN9__gnu_cxx24__concurrence_lock_errorD2Ev
	.section	.text._ZN9__gnu_cxx26__concurrence_unlock_errorD2Ev,"axG",%progbits,_ZN9__gnu_cxx26__concurrence_unlock_errorD5Ev,comdat
	.align	2
	.weak	_ZN9__gnu_cxx26__concurrence_unlock_errorD2Ev
	.syntax unified
	.arm
	.fpu vfp
	.type	_ZN9__gnu_cxx26__concurrence_unlock_errorD2Ev, %function
_ZN9__gnu_cxx26__concurrence_unlock_errorD2Ev:
	.fnstart
.LFB12399:
	@ args = 0, pretend = 0, frame = 0
	@ frame_needed = 0, uses_anonymous_args = 0
	ldr	r3, .L120
	ldr	r2, .L120+4
.LPIC19:
	add	r3, pc, r3
	push	{r4, lr}
	mov	r4, r0
	ldr	r3, [r3, r2]
	add	r3, r3, #8
	str	r3, [r0]
	bl	_ZNSt9exceptionD2Ev(PLT)
	mov	r0, r4
	pop	{r4, pc}
.L121:
	.align	2
.L120:
	.word	_GLOBAL_OFFSET_TABLE_-(.LPIC19+8)
	.word	_ZTVN9__gnu_cxx26__concurrence_unlock_errorE(GOT)
	.cantunwind
	.fnend
	.size	_ZN9__gnu_cxx26__concurrence_unlock_errorD2Ev, .-_ZN9__gnu_cxx26__concurrence_unlock_errorD2Ev
	.weak	_ZN9__gnu_cxx26__concurrence_unlock_errorD1Ev
	.set	_ZN9__gnu_cxx26__concurrence_unlock_errorD1Ev,_ZN9__gnu_cxx26__concurrence_unlock_errorD2Ev
	.section	.text._ZN9__gnu_cxx24__concurrence_lock_errorD0Ev,"axG",%progbits,_ZN9__gnu_cxx24__concurrence_lock_errorD5Ev,comdat
	.align	2
	.weak	_ZN9__gnu_cxx24__concurrence_lock_errorD0Ev
	.syntax unified
	.arm
	.fpu vfp
	.type	_ZN9__gnu_cxx24__concurrence_lock_errorD0Ev, %function
_ZN9__gnu_cxx24__concurrence_lock_errorD0Ev:
	.fnstart
.LFB12405:
	@ args = 0, pretend = 0, frame = 0
	@ frame_needed = 0, uses_anonymous_args = 0
	ldr	r3, .L124
	ldr	r2, .L124+4
.LPIC20:
	add	r3, pc, r3
	push	{r4, lr}
	mov	r4, r0
	ldr	r3, [r3, r2]
	add	r3, r3, #8
	str	r3, [r0]
	bl	_ZNSt9exceptionD2Ev(PLT)
	mov	r0, r4
	mov	r1, #4
	bl	_ZdlPvj(PLT)
	mov	r0, r4
	pop	{r4, pc}
.L125:
	.align	2
.L124:
	.word	_GLOBAL_OFFSET_TABLE_-(.LPIC20+8)
	.word	_ZTVN9__gnu_cxx24__concurrence_lock_errorE(GOT)
	.cantunwind
	.fnend
	.size	_ZN9__gnu_cxx24__concurrence_lock_errorD0Ev, .-_ZN9__gnu_cxx24__concurrence_lock_errorD0Ev
	.section	.text._ZN9__gnu_cxx26__concurrence_unlock_errorD0Ev,"axG",%progbits,_ZN9__gnu_cxx26__concurrence_unlock_errorD5Ev,comdat
	.align	2
	.weak	_ZN9__gnu_cxx26__concurrence_unlock_errorD0Ev
	.syntax unified
	.arm
	.fpu vfp
	.type	_ZN9__gnu_cxx26__concurrence_unlock_errorD0Ev, %function
_ZN9__gnu_cxx26__concurrence_unlock_errorD0Ev:
	.fnstart
.LFB12401:
	@ args = 0, pretend = 0, frame = 0
	@ frame_needed = 0, uses_anonymous_args = 0
	ldr	r3, .L128
	ldr	r2, .L128+4
.LPIC21:
	add	r3, pc, r3
	push	{r4, lr}
	mov	r4, r0
	ldr	r3, [r3, r2]
	add	r3, r3, #8
	str	r3, [r0]
	bl	_ZNSt9exceptionD2Ev(PLT)
	mov	r0, r4
	mov	r1, #4
	bl	_ZdlPvj(PLT)
	mov	r0, r4
	pop	{r4, pc}
.L129:
	.align	2
.L128:
	.word	_GLOBAL_OFFSET_TABLE_-(.LPIC21+8)
	.word	_ZTVN9__gnu_cxx26__concurrence_unlock_errorE(GOT)
	.cantunwind
	.fnend
	.size	_ZN9__gnu_cxx26__concurrence_unlock_errorD0Ev, .-_ZN9__gnu_cxx26__concurrence_unlock_errorD0Ev
	.section	.text._ZNSt13__future_base13_State_baseV2D0Ev,"axG",%progbits,_ZNSt13__future_base13_State_baseV2D5Ev,comdat
	.align	2
	.weak	_ZNSt13__future_base13_State_baseV2D0Ev
	.syntax unified
	.arm
	.fpu vfp
	.type	_ZNSt13__future_base13_State_baseV2D0Ev, %function
_ZNSt13__future_base13_State_baseV2D0Ev:
	.fnstart
.LFB12341:
	@ args = 0, pretend = 0, frame = 0
	@ frame_needed = 0, uses_anonymous_args = 0
	ldr	r3, .L136
	ldr	r2, .L136+4
.LPIC22:
	add	r3, pc, r3
	push	{r4, lr}
	.save {r4, lr}
	mov	r4, r0
	ldr	r3, [r3, r2]
	ldr	r0, [r0, #4]
	add	r3, r3, #8
	cmp	r0, #0
	str	r3, [r4]
	beq	.L131
	ldr	r3, [r0]
	ldr	r3, [r3]
	blx	r3
.L131:
	mov	r0, r4
	mov	r1, #20
	bl	_ZdlPvj(PLT)
	mov	r0, r4
	pop	{r4, pc}
.L137:
	.align	2
.L136:
	.word	_GLOBAL_OFFSET_TABLE_-(.LPIC22+8)
	.word	_ZTVNSt13__future_base13_State_baseV2E(GOT)
	.personality	__gxx_personality_v0
	.handlerdata
.LLSDA12341:
	.byte	0xff
	.byte	0xff
	.byte	0x1
	.uleb128 .LLSDACSE12341-.LLSDACSB12341
.LLSDACSB12341:
.LLSDACSE12341:
	.section	.text._ZNSt13__future_base13_State_baseV2D0Ev,"axG",%progbits,_ZNSt13__future_base13_State_baseV2D5Ev,comdat
	.fnend
	.size	_ZNSt13__future_base13_State_baseV2D0Ev, .-_ZNSt13__future_base13_State_baseV2D0Ev
	.section	.text._ZNSt23_Sp_counted_ptr_inplaceIN7openpal6Logger8SettingsESaIS2_ELN9__gnu_cxx12_Lock_policyE1EED0Ev,"axG",%progbits,_ZNSt23_Sp_counted_ptr_inplaceIN7openpal6Logger8SettingsESaIS2_ELN9__gnu_cxx12_Lock_policyE1EED5Ev,comdat
	.align	2
	.weak	_ZNSt23_Sp_counted_ptr_inplaceIN7openpal6Logger8SettingsESaIS2_ELN9__gnu_cxx12_Lock_policyE1EED0Ev
	.syntax unified
	.arm
	.fpu vfp
	.type	_ZNSt23_Sp_counted_ptr_inplaceIN7openpal6Logger8SettingsESaIS2_ELN9__gnu_cxx12_Lock_policyE1EED0Ev, %function
_ZNSt23_Sp_counted_ptr_inplaceIN7openpal6Logger8SettingsESaIS2_ELN9__gnu_cxx12_Lock_policyE1EED0Ev:
	.fnstart
.LFB12481:
	@ args = 0, pretend = 0, frame = 0
	@ frame_needed = 0, uses_anonymous_args = 0
	push	{r4, lr}
	mov	r1, #64
	mov	r4, r0
	bl	_ZdlPvj(PLT)
	mov	r0, r4
	pop	{r4, pc}
	.cantunwind
	.fnend
	.size	_ZNSt23_Sp_counted_ptr_inplaceIN7openpal6Logger8SettingsESaIS2_ELN9__gnu_cxx12_Lock_policyE1EED0Ev, .-_ZNSt23_Sp_counted_ptr_inplaceIN7openpal6Logger8SettingsESaIS2_ELN9__gnu_cxx12_Lock_policyE1EED0Ev
	.section	.text._ZNSt23_Sp_counted_ptr_inplaceINSt13__future_base13_State_baseV2ESaIS1_ELN9__gnu_cxx12_Lock_policyE1EED0Ev,"axG",%progbits,_ZNSt23_Sp_counted_ptr_inplaceINSt13__future_base13_State_baseV2ESaIS1_ELN9__gnu_cxx12_Lock_policyE1EED5Ev,comdat
	.align	2
	.weak	_ZNSt23_Sp_counted_ptr_inplaceINSt13__future_base13_State_baseV2ESaIS1_ELN9__gnu_cxx12_Lock_policyE1EED0Ev
	.syntax unified
	.arm
	.fpu vfp
	.type	_ZNSt23_Sp_counted_ptr_inplaceINSt13__future_base13_State_baseV2ESaIS1_ELN9__gnu_cxx12_Lock_policyE1EED0Ev, %function
_ZNSt23_Sp_counted_ptr_inplaceINSt13__future_base13_State_baseV2ESaIS1_ELN9__gnu_cxx12_Lock_policyE1EED0Ev:
	.fnstart
.LFB12467:
	@ args = 0, pretend = 0, frame = 0
	@ frame_needed = 0, uses_anonymous_args = 0
	push	{r4, lr}
	mov	r1, #56
	mov	r4, r0
	bl	_ZdlPvj(PLT)
	mov	r0, r4
	pop	{r4, pc}
	.cantunwind
	.fnend
	.size	_ZNSt23_Sp_counted_ptr_inplaceINSt13__future_base13_State_baseV2ESaIS1_ELN9__gnu_cxx12_Lock_policyE1EED0Ev, .-_ZNSt23_Sp_counted_ptr_inplaceINSt13__future_base13_State_baseV2ESaIS1_ELN9__gnu_cxx12_Lock_policyE1EED0Ev
	.section	.text._ZNSt23_Sp_counted_ptr_inplaceIN7asiopal15ResourceManagerESaIS1_ELN9__gnu_cxx12_Lock_policyE1EED0Ev,"axG",%progbits,_ZNSt23_Sp_counted_ptr_inplaceIN7asiopal15ResourceManagerESaIS1_ELN9__gnu_cxx12_Lock_policyE1EED5Ev,comdat
	.align	2
	.weak	_ZNSt23_Sp_counted_ptr_inplaceIN7asiopal15ResourceManagerESaIS1_ELN9__gnu_cxx12_Lock_policyE1EED0Ev
	.syntax unified
	.arm
	.fpu vfp
	.type	_ZNSt23_Sp_counted_ptr_inplaceIN7asiopal15ResourceManagerESaIS1_ELN9__gnu_cxx12_Lock_policyE1EED0Ev, %function
_ZNSt23_Sp_counted_ptr_inplaceIN7asiopal15ResourceManagerESaIS1_ELN9__gnu_cxx12_Lock_policyE1EED0Ev:
	.fnstart
.LFB12453:
	@ args = 0, pretend = 0, frame = 0
	@ frame_needed = 0, uses_anonymous_args = 0
	push	{r4, lr}
	mov	r1, #92
	mov	r4, r0
	bl	_ZdlPvj(PLT)
	mov	r0, r4
	pop	{r4, pc}
	.cantunwind
	.fnend
	.size	_ZNSt23_Sp_counted_ptr_inplaceIN7asiopal15ResourceManagerESaIS1_ELN9__gnu_cxx12_Lock_policyE1EED0Ev, .-_ZNSt23_Sp_counted_ptr_inplaceIN7asiopal15ResourceManagerESaIS1_ELN9__gnu_cxx12_Lock_policyE1EED0Ev
	.section	.text._ZNSt23_Sp_counted_ptr_inplaceIN8asiodnp311MasterStackESaIS1_ELN9__gnu_cxx12_Lock_policyE1EED0Ev,"axG",%progbits,_ZNSt23_Sp_counted_ptr_inplaceIN8asiodnp311MasterStackESaIS1_ELN9__gnu_cxx12_Lock_policyE1EED5Ev,comdat
	.align	2
	.weak	_ZNSt23_Sp_counted_ptr_inplaceIN8asiodnp311MasterStackESaIS1_ELN9__gnu_cxx12_Lock_policyE1EED0Ev
	.syntax unified
	.arm
	.fpu vfp
	.type	_ZNSt23_Sp_counted_ptr_inplaceIN8asiodnp311MasterStackESaIS1_ELN9__gnu_cxx12_Lock_policyE1EED0Ev, %function
_ZNSt23_Sp_counted_ptr_inplaceIN8asiodnp311MasterStackESaIS1_ELN9__gnu_cxx12_Lock_policyE1EED0Ev:
	.fnstart
.LFB12432:
	@ args = 0, pretend = 0, frame = 0
	@ frame_needed = 0, uses_anonymous_args = 0
	push	{r4, lr}
	mov	r1, #416
	mov	r4, r0
	bl	_ZdlPvj(PLT)
	mov	r0, r4
	pop	{r4, pc}
	.cantunwind
	.fnend
	.size	_ZNSt23_Sp_counted_ptr_inplaceIN8asiodnp311MasterStackESaIS1_ELN9__gnu_cxx12_Lock_policyE1EED0Ev, .-_ZNSt23_Sp_counted_ptr_inplaceIN8asiodnp311MasterStackESaIS1_ELN9__gnu_cxx12_Lock_policyE1EED0Ev
	.section	.text._ZNSt23_Sp_counted_ptr_inplaceIN8asiodnp315OutstationStackESaIS1_ELN9__gnu_cxx12_Lock_policyE1EED0Ev,"axG",%progbits,_ZNSt23_Sp_counted_ptr_inplaceIN8asiodnp315OutstationStackESaIS1_ELN9__gnu_cxx12_Lock_policyE1EED5Ev,comdat
	.align	2
	.weak	_ZNSt23_Sp_counted_ptr_inplaceIN8asiodnp315OutstationStackESaIS1_ELN9__gnu_cxx12_Lock_policyE1EED0Ev
	.syntax unified
	.arm
	.fpu vfp
	.type	_ZNSt23_Sp_counted_ptr_inplaceIN8asiodnp315OutstationStackESaIS1_ELN9__gnu_cxx12_Lock_policyE1EED0Ev, %function
_ZNSt23_Sp_counted_ptr_inplaceIN8asiodnp315OutstationStackESaIS1_ELN9__gnu_cxx12_Lock_policyE1EED0Ev:
	.fnstart
.LFB12425:
	@ args = 0, pretend = 0, frame = 0
	@ frame_needed = 0, uses_anonymous_args = 0
	push	{r4, lr}
	mov	r1, #760
	mov	r4, r0
	bl	_ZdlPvj(PLT)
	mov	r0, r4
	pop	{r4, pc}
	.cantunwind
	.fnend
	.size	_ZNSt23_Sp_counted_ptr_inplaceIN8asiodnp315OutstationStackESaIS1_ELN9__gnu_cxx12_Lock_policyE1EED0Ev, .-_ZNSt23_Sp_counted_ptr_inplaceIN8asiodnp315OutstationStackESaIS1_ELN9__gnu_cxx12_Lock_policyE1EED0Ev
	.section	.text._ZN7openpal5ArrayIhjED2Ev,"axG",%progbits,_ZN7openpal5ArrayIhjED5Ev,comdat
	.align	2
	.weak	_ZN7openpal5ArrayIhjED2Ev
	.syntax unified
	.arm
	.fpu vfp
	.type	_ZN7openpal5ArrayIhjED2Ev, %function
_ZN7openpal5ArrayIhjED2Ev:
	.fnstart
.LFB9415:
	@ args = 0, pretend = 0, frame = 0
	@ frame_needed = 0, uses_anonymous_args = 0
	ldr	r3, .L154
	ldr	r2, .L154+4
.LPIC23:
	add	r3, pc, r3
	push	{r4, lr}
	mov	r4, r0
	ldr	r3, [r3, r2]
	ldr	r0, [r0, #8]
	add	r3, r3, #8
	cmp	r0, #0
	str	r3, [r4]
	beq	.L149
	bl	_ZdaPv(PLT)
.L149:
	mov	r0, r4
	pop	{r4, pc}
.L155:
	.align	2
.L154:
	.word	_GLOBAL_OFFSET_TABLE_-(.LPIC23+8)
	.word	_ZTVN7openpal5ArrayIhjEE(GOT)
	.cantunwind
	.fnend
	.size	_ZN7openpal5ArrayIhjED2Ev, .-_ZN7openpal5ArrayIhjED2Ev
	.weak	_ZN7openpal5ArrayIhjED1Ev
	.set	_ZN7openpal5ArrayIhjED1Ev,_ZN7openpal5ArrayIhjED2Ev
	.section	.text._ZN7openpal5ArrayIhjED0Ev,"axG",%progbits,_ZN7openpal5ArrayIhjED5Ev,comdat
	.align	2
	.weak	_ZN7openpal5ArrayIhjED0Ev
	.syntax unified
	.arm
	.fpu vfp
	.type	_ZN7openpal5ArrayIhjED0Ev, %function
_ZN7openpal5ArrayIhjED0Ev:
	.fnstart
.LFB9417:
	@ args = 0, pretend = 0, frame = 0
	@ frame_needed = 0, uses_anonymous_args = 0
	ldr	r3, .L162
	ldr	r2, .L162+4
.LPIC24:
	add	r3, pc, r3
	push	{r4, lr}
	mov	r4, r0
	ldr	r3, [r3, r2]
	ldr	r0, [r0, #8]
	add	r3, r3, #8
	cmp	r0, #0
	str	r3, [r4]
	beq	.L157
	bl	_ZdaPv(PLT)
.L157:
	mov	r0, r4
	mov	r1, #12
	bl	_ZdlPvj(PLT)
	mov	r0, r4
	pop	{r4, pc}
.L163:
	.align	2
.L162:
	.word	_GLOBAL_OFFSET_TABLE_-(.LPIC24+8)
	.word	_ZTVN7openpal5ArrayIhjEE(GOT)
	.cantunwind
	.fnend
	.size	_ZN7openpal5ArrayIhjED0Ev, .-_ZN7openpal5ArrayIhjED0Ev
	.section	.text._ZN7openpal5ArrayIN8opendnp34CellINS1_19TimeAndIntervalSpecEEEtED2Ev,"axG",%progbits,_ZN7openpal5ArrayIN8opendnp34CellINS1_19TimeAndIntervalSpecEEEtED5Ev,comdat
	.align	2
	.weak	_ZN7openpal5ArrayIN8opendnp34CellINS1_19TimeAndIntervalSpecEEEtED2Ev
	.syntax unified
	.arm
	.fpu vfp
	.type	_ZN7openpal5ArrayIN8opendnp34CellINS1_19TimeAndIntervalSpecEEEtED2Ev, %function
_ZN7openpal5ArrayIN8opendnp34CellINS1_19TimeAndIntervalSpecEEEtED2Ev:
	.fnstart
.LFB12758:
	@ args = 0, pretend = 0, frame = 0
	@ frame_needed = 0, uses_anonymous_args = 0
	ldr	r3, .L170
	ldr	r2, .L170+4
.LPIC25:
	add	r3, pc, r3
	push	{r4, lr}
	mov	r4, r0
	ldr	r3, [r3, r2]
	ldr	r0, [r0, #8]
	add	r3, r3, #8
	cmp	r0, #0
	str	r3, [r4]
	beq	.L165
	bl	_ZdaPv(PLT)
.L165:
	mov	r0, r4
	pop	{r4, pc}
.L171:
	.align	2
.L170:
	.word	_GLOBAL_OFFSET_TABLE_-(.LPIC25+8)
	.word	_ZTVN7openpal5ArrayIN8opendnp34CellINS1_19TimeAndIntervalSpecEEEtEE(GOT)
	.cantunwind
	.fnend
	.size	_ZN7openpal5ArrayIN8opendnp34CellINS1_19TimeAndIntervalSpecEEEtED2Ev, .-_ZN7openpal5ArrayIN8opendnp34CellINS1_19TimeAndIntervalSpecEEEtED2Ev
	.weak	_ZN7openpal5ArrayIN8opendnp34CellINS1_19TimeAndIntervalSpecEEEtED1Ev
	.set	_ZN7openpal5ArrayIN8opendnp34CellINS1_19TimeAndIntervalSpecEEEtED1Ev,_ZN7openpal5ArrayIN8opendnp34CellINS1_19TimeAndIntervalSpecEEEtED2Ev
	.section	.text._ZN7openpal5ArrayIN8opendnp34CellINS1_19TimeAndIntervalSpecEEEtED0Ev,"axG",%progbits,_ZN7openpal5ArrayIN8opendnp34CellINS1_19TimeAndIntervalSpecEEEtED5Ev,comdat
	.align	2
	.weak	_ZN7openpal5ArrayIN8opendnp34CellINS1_19TimeAndIntervalSpecEEEtED0Ev
	.syntax unified
	.arm
	.fpu vfp
	.type	_ZN7openpal5ArrayIN8opendnp34CellINS1_19TimeAndIntervalSpecEEEtED0Ev, %function
_ZN7openpal5ArrayIN8opendnp34CellINS1_19TimeAndIntervalSpecEEEtED0Ev:
	.fnstart
.LFB12760:
	@ args = 0, pretend = 0, frame = 0
	@ frame_needed = 0, uses_anonymous_args = 0
	ldr	r3, .L178
	ldr	r2, .L178+4
.LPIC26:
	add	r3, pc, r3
	push	{r4, lr}
	mov	r4, r0
	ldr	r3, [r3, r2]
	ldr	r0, [r0, #8]
	add	r3, r3, #8
	cmp	r0, #0
	str	r3, [r4]
	beq	.L173
	bl	_ZdaPv(PLT)
.L173:
	mov	r0, r4
	mov	r1, #12
	bl	_ZdlPvj(PLT)
	mov	r0, r4
	pop	{r4, pc}
.L179:
	.align	2
.L178:
	.word	_GLOBAL_OFFSET_TABLE_-(.LPIC26+8)
	.word	_ZTVN7openpal5ArrayIN8opendnp34CellINS1_19TimeAndIntervalSpecEEEtEE(GOT)
	.cantunwind
	.fnend
	.size	_ZN7openpal5ArrayIN8opendnp34CellINS1_19TimeAndIntervalSpecEEEtED0Ev, .-_ZN7openpal5ArrayIN8opendnp34CellINS1_19TimeAndIntervalSpecEEEtED0Ev
	.section	.text._ZN7openpal5ArrayIN8opendnp34CellINS1_22AnalogOutputStatusSpecEEEtED2Ev,"axG",%progbits,_ZN7openpal5ArrayIN8opendnp34CellINS1_22AnalogOutputStatusSpecEEEtED5Ev,comdat
	.align	2
	.weak	_ZN7openpal5ArrayIN8opendnp34CellINS1_22AnalogOutputStatusSpecEEEtED2Ev
	.syntax unified
	.arm
	.fpu vfp
	.type	_ZN7openpal5ArrayIN8opendnp34CellINS1_22AnalogOutputStatusSpecEEEtED2Ev, %function
_ZN7openpal5ArrayIN8opendnp34CellINS1_22AnalogOutputStatusSpecEEEtED2Ev:
	.fnstart
.LFB12754:
	@ args = 0, pretend = 0, frame = 0
	@ frame_needed = 0, uses_anonymous_args = 0
	ldr	r3, .L186
	ldr	r2, .L186+4
.LPIC27:
	add	r3, pc, r3
	push	{r4, lr}
	mov	r4, r0
	ldr	r3, [r3, r2]
	ldr	r0, [r0, #8]
	add	r3, r3, #8
	cmp	r0, #0
	str	r3, [r4]
	beq	.L181
	bl	_ZdaPv(PLT)
.L181:
	mov	r0, r4
	pop	{r4, pc}
.L187:
	.align	2
.L186:
	.word	_GLOBAL_OFFSET_TABLE_-(.LPIC27+8)
	.word	_ZTVN7openpal5ArrayIN8opendnp34CellINS1_22AnalogOutputStatusSpecEEEtEE(GOT)
	.cantunwind
	.fnend
	.size	_ZN7openpal5ArrayIN8opendnp34CellINS1_22AnalogOutputStatusSpecEEEtED2Ev, .-_ZN7openpal5ArrayIN8opendnp34CellINS1_22AnalogOutputStatusSpecEEEtED2Ev
	.weak	_ZN7openpal5ArrayIN8opendnp34CellINS1_22AnalogOutputStatusSpecEEEtED1Ev
	.set	_ZN7openpal5ArrayIN8opendnp34CellINS1_22AnalogOutputStatusSpecEEEtED1Ev,_ZN7openpal5ArrayIN8opendnp34CellINS1_22AnalogOutputStatusSpecEEEtED2Ev
	.section	.text._ZN7openpal5ArrayIN8opendnp34CellINS1_22AnalogOutputStatusSpecEEEtED0Ev,"axG",%progbits,_ZN7openpal5ArrayIN8opendnp34CellINS1_22AnalogOutputStatusSpecEEEtED5Ev,comdat
	.align	2
	.weak	_ZN7openpal5ArrayIN8opendnp34CellINS1_22AnalogOutputStatusSpecEEEtED0Ev
	.syntax unified
	.arm
	.fpu vfp
	.type	_ZN7openpal5ArrayIN8opendnp34CellINS1_22AnalogOutputStatusSpecEEEtED0Ev, %function
_ZN7openpal5ArrayIN8opendnp34CellINS1_22AnalogOutputStatusSpecEEEtED0Ev:
	.fnstart
.LFB12756:
	@ args = 0, pretend = 0, frame = 0
	@ frame_needed = 0, uses_anonymous_args = 0
	ldr	r3, .L194
	ldr	r2, .L194+4
.LPIC28:
	add	r3, pc, r3
	push	{r4, lr}
	mov	r4, r0
	ldr	r3, [r3, r2]
	ldr	r0, [r0, #8]
	add	r3, r3, #8
	cmp	r0, #0
	str	r3, [r4]
	beq	.L189
	bl	_ZdaPv(PLT)
.L189:
	mov	r0, r4
	mov	r1, #12
	bl	_ZdlPvj(PLT)
	mov	r0, r4
	pop	{r4, pc}
.L195:
	.align	2
.L194:
	.word	_GLOBAL_OFFSET_TABLE_-(.LPIC28+8)
	.word	_ZTVN7openpal5ArrayIN8opendnp34CellINS1_22AnalogOutputStatusSpecEEEtEE(GOT)
	.cantunwind
	.fnend
	.size	_ZN7openpal5ArrayIN8opendnp34CellINS1_22AnalogOutputStatusSpecEEEtED0Ev, .-_ZN7openpal5ArrayIN8opendnp34CellINS1_22AnalogOutputStatusSpecEEEtED0Ev
	.section	.text._ZN7openpal5ArrayIN8opendnp34CellINS1_22BinaryOutputStatusSpecEEEtED2Ev,"axG",%progbits,_ZN7openpal5ArrayIN8opendnp34CellINS1_22BinaryOutputStatusSpecEEEtED5Ev,comdat
	.align	2
	.weak	_ZN7openpal5ArrayIN8opendnp34CellINS1_22BinaryOutputStatusSpecEEEtED2Ev
	.syntax unified
	.arm
	.fpu vfp
	.type	_ZN7openpal5ArrayIN8opendnp34CellINS1_22BinaryOutputStatusSpecEEEtED2Ev, %function
_ZN7openpal5ArrayIN8opendnp34CellINS1_22BinaryOutputStatusSpecEEEtED2Ev:
	.fnstart
.LFB12750:
	@ args = 0, pretend = 0, frame = 0
	@ frame_needed = 0, uses_anonymous_args = 0
	ldr	r3, .L202
	ldr	r2, .L202+4
.LPIC29:
	add	r3, pc, r3
	push	{r4, lr}
	mov	r4, r0
	ldr	r3, [r3, r2]
	ldr	r0, [r0, #8]
	add	r3, r3, #8
	cmp	r0, #0
	str	r3, [r4]
	beq	.L197
	bl	_ZdaPv(PLT)
.L197:
	mov	r0, r4
	pop	{r4, pc}
.L203:
	.align	2
.L202:
	.word	_GLOBAL_OFFSET_TABLE_-(.LPIC29+8)
	.word	_ZTVN7openpal5ArrayIN8opendnp34CellINS1_22BinaryOutputStatusSpecEEEtEE(GOT)
	.cantunwind
	.fnend
	.size	_ZN7openpal5ArrayIN8opendnp34CellINS1_22BinaryOutputStatusSpecEEEtED2Ev, .-_ZN7openpal5ArrayIN8opendnp34CellINS1_22BinaryOutputStatusSpecEEEtED2Ev
	.weak	_ZN7openpal5ArrayIN8opendnp34CellINS1_22BinaryOutputStatusSpecEEEtED1Ev
	.set	_ZN7openpal5ArrayIN8opendnp34CellINS1_22BinaryOutputStatusSpecEEEtED1Ev,_ZN7openpal5ArrayIN8opendnp34CellINS1_22BinaryOutputStatusSpecEEEtED2Ev
	.section	.text._ZN7openpal5ArrayIN8opendnp34CellINS1_22BinaryOutputStatusSpecEEEtED0Ev,"axG",%progbits,_ZN7openpal5ArrayIN8opendnp34CellINS1_22BinaryOutputStatusSpecEEEtED5Ev,comdat
	.align	2
	.weak	_ZN7openpal5ArrayIN8opendnp34CellINS1_22BinaryOutputStatusSpecEEEtED0Ev
	.syntax unified
	.arm
	.fpu vfp
	.type	_ZN7openpal5ArrayIN8opendnp34CellINS1_22BinaryOutputStatusSpecEEEtED0Ev, %function
_ZN7openpal5ArrayIN8opendnp34CellINS1_22BinaryOutputStatusSpecEEEtED0Ev:
	.fnstart
.LFB12752:
	@ args = 0, pretend = 0, frame = 0
	@ frame_needed = 0, uses_anonymous_args = 0
	ldr	r3, .L210
	ldr	r2, .L210+4
.LPIC30:
	add	r3, pc, r3
	push	{r4, lr}
	mov	r4, r0
	ldr	r3, [r3, r2]
	ldr	r0, [r0, #8]
	add	r3, r3, #8
	cmp	r0, #0
	str	r3, [r4]
	beq	.L205
	bl	_ZdaPv(PLT)
.L205:
	mov	r0, r4
	mov	r1, #12
	bl	_ZdlPvj(PLT)
	mov	r0, r4
	pop	{r4, pc}
.L211:
	.align	2
.L210:
	.word	_GLOBAL_OFFSET_TABLE_-(.LPIC30+8)
	.word	_ZTVN7openpal5ArrayIN8opendnp34CellINS1_22BinaryOutputStatusSpecEEEtEE(GOT)
	.cantunwind
	.fnend
	.size	_ZN7openpal5ArrayIN8opendnp34CellINS1_22BinaryOutputStatusSpecEEEtED0Ev, .-_ZN7openpal5ArrayIN8opendnp34CellINS1_22BinaryOutputStatusSpecEEEtED0Ev
	.section	.text._ZN7openpal5ArrayIN8opendnp34CellINS1_17FrozenCounterSpecEEEtED2Ev,"axG",%progbits,_ZN7openpal5ArrayIN8opendnp34CellINS1_17FrozenCounterSpecEEEtED5Ev,comdat
	.align	2
	.weak	_ZN7openpal5ArrayIN8opendnp34CellINS1_17FrozenCounterSpecEEEtED2Ev
	.syntax unified
	.arm
	.fpu vfp
	.type	_ZN7openpal5ArrayIN8opendnp34CellINS1_17FrozenCounterSpecEEEtED2Ev, %function
_ZN7openpal5ArrayIN8opendnp34CellINS1_17FrozenCounterSpecEEEtED2Ev:
	.fnstart
.LFB12746:
	@ args = 0, pretend = 0, frame = 0
	@ frame_needed = 0, uses_anonymous_args = 0
	ldr	r3, .L218
	ldr	r2, .L218+4
.LPIC31:
	add	r3, pc, r3
	push	{r4, lr}
	mov	r4, r0
	ldr	r3, [r3, r2]
	ldr	r0, [r0, #8]
	add	r3, r3, #8
	cmp	r0, #0
	str	r3, [r4]
	beq	.L213
	bl	_ZdaPv(PLT)
.L213:
	mov	r0, r4
	pop	{r4, pc}
.L219:
	.align	2
.L218:
	.word	_GLOBAL_OFFSET_TABLE_-(.LPIC31+8)
	.word	_ZTVN7openpal5ArrayIN8opendnp34CellINS1_17FrozenCounterSpecEEEtEE(GOT)
	.cantunwind
	.fnend
	.size	_ZN7openpal5ArrayIN8opendnp34CellINS1_17FrozenCounterSpecEEEtED2Ev, .-_ZN7openpal5ArrayIN8opendnp34CellINS1_17FrozenCounterSpecEEEtED2Ev
	.weak	_ZN7openpal5ArrayIN8opendnp34CellINS1_17FrozenCounterSpecEEEtED1Ev
	.set	_ZN7openpal5ArrayIN8opendnp34CellINS1_17FrozenCounterSpecEEEtED1Ev,_ZN7openpal5ArrayIN8opendnp34CellINS1_17FrozenCounterSpecEEEtED2Ev
	.section	.text._ZN7openpal5ArrayIN8opendnp34CellINS1_17FrozenCounterSpecEEEtED0Ev,"axG",%progbits,_ZN7openpal5ArrayIN8opendnp34CellINS1_17FrozenCounterSpecEEEtED5Ev,comdat
	.align	2
	.weak	_ZN7openpal5ArrayIN8opendnp34CellINS1_17FrozenCounterSpecEEEtED0Ev
	.syntax unified
	.arm
	.fpu vfp
	.type	_ZN7openpal5ArrayIN8opendnp34CellINS1_17FrozenCounterSpecEEEtED0Ev, %function
_ZN7openpal5ArrayIN8opendnp34CellINS1_17FrozenCounterSpecEEEtED0Ev:
	.fnstart
.LFB12748:
	@ args = 0, pretend = 0, frame = 0
	@ frame_needed = 0, uses_anonymous_args = 0
	ldr	r3, .L226
	ldr	r2, .L226+4
.LPIC32:
	add	r3, pc, r3
	push	{r4, lr}
	mov	r4, r0
	ldr	r3, [r3, r2]
	ldr	r0, [r0, #8]
	add	r3, r3, #8
	cmp	r0, #0
	str	r3, [r4]
	beq	.L221
	bl	_ZdaPv(PLT)
.L221:
	mov	r0, r4
	mov	r1, #12
	bl	_ZdlPvj(PLT)
	mov	r0, r4
	pop	{r4, pc}
.L227:
	.align	2
.L226:
	.word	_GLOBAL_OFFSET_TABLE_-(.LPIC32+8)
	.word	_ZTVN7openpal5ArrayIN8opendnp34CellINS1_17FrozenCounterSpecEEEtEE(GOT)
	.cantunwind
	.fnend
	.size	_ZN7openpal5ArrayIN8opendnp34CellINS1_17FrozenCounterSpecEEEtED0Ev, .-_ZN7openpal5ArrayIN8opendnp34CellINS1_17FrozenCounterSpecEEEtED0Ev
	.section	.text._ZN7openpal5ArrayIN8opendnp34CellINS1_11CounterSpecEEEtED2Ev,"axG",%progbits,_ZN7openpal5ArrayIN8opendnp34CellINS1_11CounterSpecEEEtED5Ev,comdat
	.align	2
	.weak	_ZN7openpal5ArrayIN8opendnp34CellINS1_11CounterSpecEEEtED2Ev
	.syntax unified
	.arm
	.fpu vfp
	.type	_ZN7openpal5ArrayIN8opendnp34CellINS1_11CounterSpecEEEtED2Ev, %function
_ZN7openpal5ArrayIN8opendnp34CellINS1_11CounterSpecEEEtED2Ev:
	.fnstart
.LFB12742:
	@ args = 0, pretend = 0, frame = 0
	@ frame_needed = 0, uses_anonymous_args = 0
	ldr	r3, .L234
	ldr	r2, .L234+4
.LPIC33:
	add	r3, pc, r3
	push	{r4, lr}
	mov	r4, r0
	ldr	r3, [r3, r2]
	ldr	r0, [r0, #8]
	add	r3, r3, #8
	cmp	r0, #0
	str	r3, [r4]
	beq	.L229
	bl	_ZdaPv(PLT)
.L229:
	mov	r0, r4
	pop	{r4, pc}
.L235:
	.align	2
.L234:
	.word	_GLOBAL_OFFSET_TABLE_-(.LPIC33+8)
	.word	_ZTVN7openpal5ArrayIN8opendnp34CellINS1_11CounterSpecEEEtEE(GOT)
	.cantunwind
	.fnend
	.size	_ZN7openpal5ArrayIN8opendnp34CellINS1_11CounterSpecEEEtED2Ev, .-_ZN7openpal5ArrayIN8opendnp34CellINS1_11CounterSpecEEEtED2Ev
	.weak	_ZN7openpal5ArrayIN8opendnp34CellINS1_11CounterSpecEEEtED1Ev
	.set	_ZN7openpal5ArrayIN8opendnp34CellINS1_11CounterSpecEEEtED1Ev,_ZN7openpal5ArrayIN8opendnp34CellINS1_11CounterSpecEEEtED2Ev
	.section	.text._ZN7openpal5ArrayIN8opendnp34CellINS1_11CounterSpecEEEtED0Ev,"axG",%progbits,_ZN7openpal5ArrayIN8opendnp34CellINS1_11CounterSpecEEEtED5Ev,comdat
	.align	2
	.weak	_ZN7openpal5ArrayIN8opendnp34CellINS1_11CounterSpecEEEtED0Ev
	.syntax unified
	.arm
	.fpu vfp
	.type	_ZN7openpal5ArrayIN8opendnp34CellINS1_11CounterSpecEEEtED0Ev, %function
_ZN7openpal5ArrayIN8opendnp34CellINS1_11CounterSpecEEEtED0Ev:
	.fnstart
.LFB12744:
	@ args = 0, pretend = 0, frame = 0
	@ frame_needed = 0, uses_anonymous_args = 0
	ldr	r3, .L242
	ldr	r2, .L242+4
.LPIC34:
	add	r3, pc, r3
	push	{r4, lr}
	mov	r4, r0
	ldr	r3, [r3, r2]
	ldr	r0, [r0, #8]
	add	r3, r3, #8
	cmp	r0, #0
	str	r3, [r4]
	beq	.L237
	bl	_ZdaPv(PLT)
.L237:
	mov	r0, r4
	mov	r1, #12
	bl	_ZdlPvj(PLT)
	mov	r0, r4
	pop	{r4, pc}
.L243:
	.align	2
.L242:
	.word	_GLOBAL_OFFSET_TABLE_-(.LPIC34+8)
	.word	_ZTVN7openpal5ArrayIN8opendnp34CellINS1_11CounterSpecEEEtEE(GOT)
	.cantunwind
	.fnend
	.size	_ZN7openpal5ArrayIN8opendnp34CellINS1_11CounterSpecEEEtED0Ev, .-_ZN7openpal5ArrayIN8opendnp34CellINS1_11CounterSpecEEEtED0Ev
	.section	.text._ZN7openpal5ArrayIN8opendnp34CellINS1_10AnalogSpecEEEtED2Ev,"axG",%progbits,_ZN7openpal5ArrayIN8opendnp34CellINS1_10AnalogSpecEEEtED5Ev,comdat
	.align	2
	.weak	_ZN7openpal5ArrayIN8opendnp34CellINS1_10AnalogSpecEEEtED2Ev
	.syntax unified
	.arm
	.fpu vfp
	.type	_ZN7openpal5ArrayIN8opendnp34CellINS1_10AnalogSpecEEEtED2Ev, %function
_ZN7openpal5ArrayIN8opendnp34CellINS1_10AnalogSpecEEEtED2Ev:
	.fnstart
.LFB12738:
	@ args = 0, pretend = 0, frame = 0
	@ frame_needed = 0, uses_anonymous_args = 0
	ldr	r3, .L250
	ldr	r2, .L250+4
.LPIC35:
	add	r3, pc, r3
	push	{r4, lr}
	mov	r4, r0
	ldr	r3, [r3, r2]
	ldr	r0, [r0, #8]
	add	r3, r3, #8
	cmp	r0, #0
	str	r3, [r4]
	beq	.L245
	bl	_ZdaPv(PLT)
.L245:
	mov	r0, r4
	pop	{r4, pc}
.L251:
	.align	2
.L250:
	.word	_GLOBAL_OFFSET_TABLE_-(.LPIC35+8)
	.word	_ZTVN7openpal5ArrayIN8opendnp34CellINS1_10AnalogSpecEEEtEE(GOT)
	.cantunwind
	.fnend
	.size	_ZN7openpal5ArrayIN8opendnp34CellINS1_10AnalogSpecEEEtED2Ev, .-_ZN7openpal5ArrayIN8opendnp34CellINS1_10AnalogSpecEEEtED2Ev
	.weak	_ZN7openpal5ArrayIN8opendnp34CellINS1_10AnalogSpecEEEtED1Ev
	.set	_ZN7openpal5ArrayIN8opendnp34CellINS1_10AnalogSpecEEEtED1Ev,_ZN7openpal5ArrayIN8opendnp34CellINS1_10AnalogSpecEEEtED2Ev
	.section	.text._ZN7openpal5ArrayIN8opendnp34CellINS1_10AnalogSpecEEEtED0Ev,"axG",%progbits,_ZN7openpal5ArrayIN8opendnp34CellINS1_10AnalogSpecEEEtED5Ev,comdat
	.align	2
	.weak	_ZN7openpal5ArrayIN8opendnp34CellINS1_10AnalogSpecEEEtED0Ev
	.syntax unified
	.arm
	.fpu vfp
	.type	_ZN7openpal5ArrayIN8opendnp34CellINS1_10AnalogSpecEEEtED0Ev, %function
_ZN7openpal5ArrayIN8opendnp34CellINS1_10AnalogSpecEEEtED0Ev:
	.fnstart
.LFB12740:
	@ args = 0, pretend = 0, frame = 0
	@ frame_needed = 0, uses_anonymous_args = 0
	ldr	r3, .L258
	ldr	r2, .L258+4
.LPIC36:
	add	r3, pc, r3
	push	{r4, lr}
	mov	r4, r0
	ldr	r3, [r3, r2]
	ldr	r0, [r0, #8]
	add	r3, r3, #8
	cmp	r0, #0
	str	r3, [r4]
	beq	.L253
	bl	_ZdaPv(PLT)
.L253:
	mov	r0, r4
	mov	r1, #12
	bl	_ZdlPvj(PLT)
	mov	r0, r4
	pop	{r4, pc}
.L259:
	.align	2
.L258:
	.word	_GLOBAL_OFFSET_TABLE_-(.LPIC36+8)
	.word	_ZTVN7openpal5ArrayIN8opendnp34CellINS1_10AnalogSpecEEEtEE(GOT)
	.cantunwind
	.fnend
	.size	_ZN7openpal5ArrayIN8opendnp34CellINS1_10AnalogSpecEEEtED0Ev, .-_ZN7openpal5ArrayIN8opendnp34CellINS1_10AnalogSpecEEEtED0Ev
	.section	.text._ZN7openpal5ArrayIN8opendnp34CellINS1_19DoubleBitBinarySpecEEEtED2Ev,"axG",%progbits,_ZN7openpal5ArrayIN8opendnp34CellINS1_19DoubleBitBinarySpecEEEtED5Ev,comdat
	.align	2
	.weak	_ZN7openpal5ArrayIN8opendnp34CellINS1_19DoubleBitBinarySpecEEEtED2Ev
	.syntax unified
	.arm
	.fpu vfp
	.type	_ZN7openpal5ArrayIN8opendnp34CellINS1_19DoubleBitBinarySpecEEEtED2Ev, %function
_ZN7openpal5ArrayIN8opendnp34CellINS1_19DoubleBitBinarySpecEEEtED2Ev:
	.fnstart
.LFB12734:
	@ args = 0, pretend = 0, frame = 0
	@ frame_needed = 0, uses_anonymous_args = 0
	ldr	r3, .L266
	ldr	r2, .L266+4
.LPIC37:
	add	r3, pc, r3
	push	{r4, lr}
	mov	r4, r0
	ldr	r3, [r3, r2]
	ldr	r0, [r0, #8]
	add	r3, r3, #8
	cmp	r0, #0
	str	r3, [r4]
	beq	.L261
	bl	_ZdaPv(PLT)
.L261:
	mov	r0, r4
	pop	{r4, pc}
.L267:
	.align	2
.L266:
	.word	_GLOBAL_OFFSET_TABLE_-(.LPIC37+8)
	.word	_ZTVN7openpal5ArrayIN8opendnp34CellINS1_19DoubleBitBinarySpecEEEtEE(GOT)
	.cantunwind
	.fnend
	.size	_ZN7openpal5ArrayIN8opendnp34CellINS1_19DoubleBitBinarySpecEEEtED2Ev, .-_ZN7openpal5ArrayIN8opendnp34CellINS1_19DoubleBitBinarySpecEEEtED2Ev
	.weak	_ZN7openpal5ArrayIN8opendnp34CellINS1_19DoubleBitBinarySpecEEEtED1Ev
	.set	_ZN7openpal5ArrayIN8opendnp34CellINS1_19DoubleBitBinarySpecEEEtED1Ev,_ZN7openpal5ArrayIN8opendnp34CellINS1_19DoubleBitBinarySpecEEEtED2Ev
	.section	.text._ZN7openpal5ArrayIN8opendnp34CellINS1_19DoubleBitBinarySpecEEEtED0Ev,"axG",%progbits,_ZN7openpal5ArrayIN8opendnp34CellINS1_19DoubleBitBinarySpecEEEtED5Ev,comdat
	.align	2
	.weak	_ZN7openpal5ArrayIN8opendnp34CellINS1_19DoubleBitBinarySpecEEEtED0Ev
	.syntax unified
	.arm
	.fpu vfp
	.type	_ZN7openpal5ArrayIN8opendnp34CellINS1_19DoubleBitBinarySpecEEEtED0Ev, %function
_ZN7openpal5ArrayIN8opendnp34CellINS1_19DoubleBitBinarySpecEEEtED0Ev:
	.fnstart
.LFB12736:
	@ args = 0, pretend = 0, frame = 0
	@ frame_needed = 0, uses_anonymous_args = 0
	ldr	r3, .L274
	ldr	r2, .L274+4
.LPIC38:
	add	r3, pc, r3
	push	{r4, lr}
	mov	r4, r0
	ldr	r3, [r3, r2]
	ldr	r0, [r0, #8]
	add	r3, r3, #8
	cmp	r0, #0
	str	r3, [r4]
	beq	.L269
	bl	_ZdaPv(PLT)
.L269:
	mov	r0, r4
	mov	r1, #12
	bl	_ZdlPvj(PLT)
	mov	r0, r4
	pop	{r4, pc}
.L275:
	.align	2
.L274:
	.word	_GLOBAL_OFFSET_TABLE_-(.LPIC38+8)
	.word	_ZTVN7openpal5ArrayIN8opendnp34CellINS1_19DoubleBitBinarySpecEEEtEE(GOT)
	.cantunwind
	.fnend
	.size	_ZN7openpal5ArrayIN8opendnp34CellINS1_19DoubleBitBinarySpecEEEtED0Ev, .-_ZN7openpal5ArrayIN8opendnp34CellINS1_19DoubleBitBinarySpecEEEtED0Ev
	.section	.text._ZN7openpal5ArrayIN8opendnp34CellINS1_10BinarySpecEEEtED2Ev,"axG",%progbits,_ZN7openpal5ArrayIN8opendnp34CellINS1_10BinarySpecEEEtED5Ev,comdat
	.align	2
	.weak	_ZN7openpal5ArrayIN8opendnp34CellINS1_10BinarySpecEEEtED2Ev
	.syntax unified
	.arm
	.fpu vfp
	.type	_ZN7openpal5ArrayIN8opendnp34CellINS1_10BinarySpecEEEtED2Ev, %function
_ZN7openpal5ArrayIN8opendnp34CellINS1_10BinarySpecEEEtED2Ev:
	.fnstart
.LFB12730:
	@ args = 0, pretend = 0, frame = 0
	@ frame_needed = 0, uses_anonymous_args = 0
	ldr	r3, .L282
	ldr	r2, .L282+4
.LPIC39:
	add	r3, pc, r3
	push	{r4, lr}
	mov	r4, r0
	ldr	r3, [r3, r2]
	ldr	r0, [r0, #8]
	add	r3, r3, #8
	cmp	r0, #0
	str	r3, [r4]
	beq	.L277
	bl	_ZdaPv(PLT)
.L277:
	mov	r0, r4
	pop	{r4, pc}
.L283:
	.align	2
.L282:
	.word	_GLOBAL_OFFSET_TABLE_-(.LPIC39+8)
	.word	_ZTVN7openpal5ArrayIN8opendnp34CellINS1_10BinarySpecEEEtEE(GOT)
	.cantunwind
	.fnend
	.size	_ZN7openpal5ArrayIN8opendnp34CellINS1_10BinarySpecEEEtED2Ev, .-_ZN7openpal5ArrayIN8opendnp34CellINS1_10BinarySpecEEEtED2Ev
	.weak	_ZN7openpal5ArrayIN8opendnp34CellINS1_10BinarySpecEEEtED1Ev
	.set	_ZN7openpal5ArrayIN8opendnp34CellINS1_10BinarySpecEEEtED1Ev,_ZN7openpal5ArrayIN8opendnp34CellINS1_10BinarySpecEEEtED2Ev
	.section	.text._ZN7openpal5ArrayIN8opendnp34CellINS1_10BinarySpecEEEtED0Ev,"axG",%progbits,_ZN7openpal5ArrayIN8opendnp34CellINS1_10BinarySpecEEEtED5Ev,comdat
	.align	2
	.weak	_ZN7openpal5ArrayIN8opendnp34CellINS1_10BinarySpecEEEtED0Ev
	.syntax unified
	.arm
	.fpu vfp
	.type	_ZN7openpal5ArrayIN8opendnp34CellINS1_10BinarySpecEEEtED0Ev, %function
_ZN7openpal5ArrayIN8opendnp34CellINS1_10BinarySpecEEEtED0Ev:
	.fnstart
.LFB12732:
	@ args = 0, pretend = 0, frame = 0
	@ frame_needed = 0, uses_anonymous_args = 0
	ldr	r3, .L290
	ldr	r2, .L290+4
.LPIC40:
	add	r3, pc, r3
	push	{r4, lr}
	mov	r4, r0
	ldr	r3, [r3, r2]
	ldr	r0, [r0, #8]
	add	r3, r3, #8
	cmp	r0, #0
	str	r3, [r4]
	beq	.L285
	bl	_ZdaPv(PLT)
.L285:
	mov	r0, r4
	mov	r1, #12
	bl	_ZdlPvj(PLT)
	mov	r0, r4
	pop	{r4, pc}
.L291:
	.align	2
.L290:
	.word	_GLOBAL_OFFSET_TABLE_-(.LPIC40+8)
	.word	_ZTVN7openpal5ArrayIN8opendnp34CellINS1_10BinarySpecEEEtEE(GOT)
	.cantunwind
	.fnend
	.size	_ZN7openpal5ArrayIN8opendnp34CellINS1_10BinarySpecEEEtED0Ev, .-_ZN7openpal5ArrayIN8opendnp34CellINS1_10BinarySpecEEEtED0Ev
	.section	.text._ZN7openpal5ArrayINS_8ListNodeIN8opendnp39SOERecordEEEjED2Ev,"axG",%progbits,_ZN7openpal5ArrayINS_8ListNodeIN8opendnp39SOERecordEEEjED5Ev,comdat
	.align	2
	.weak	_ZN7openpal5ArrayINS_8ListNodeIN8opendnp39SOERecordEEEjED2Ev
	.syntax unified
	.arm
	.fpu vfp
	.type	_ZN7openpal5ArrayINS_8ListNodeIN8opendnp39SOERecordEEEjED2Ev, %function
_ZN7openpal5ArrayINS_8ListNodeIN8opendnp39SOERecordEEEjED2Ev:
	.fnstart
.LFB12726:
	@ args = 0, pretend = 0, frame = 0
	@ frame_needed = 0, uses_anonymous_args = 0
	ldr	r3, .L298
	ldr	r2, .L298+4
.LPIC41:
	add	r3, pc, r3
	push	{r4, lr}
	mov	r4, r0
	ldr	r3, [r3, r2]
	ldr	r0, [r0, #8]
	add	r3, r3, #8
	cmp	r0, #0
	str	r3, [r4]
	beq	.L293
	bl	_ZdaPv(PLT)
.L293:
	mov	r0, r4
	pop	{r4, pc}
.L299:
	.align	2
.L298:
	.word	_GLOBAL_OFFSET_TABLE_-(.LPIC41+8)
	.word	_ZTVN7openpal5ArrayINS_8ListNodeIN8opendnp39SOERecordEEEjEE(GOT)
	.cantunwind
	.fnend
	.size	_ZN7openpal5ArrayINS_8ListNodeIN8opendnp39SOERecordEEEjED2Ev, .-_ZN7openpal5ArrayINS_8ListNodeIN8opendnp39SOERecordEEEjED2Ev
	.weak	_ZN7openpal5ArrayINS_8ListNodeIN8opendnp39SOERecordEEEjED1Ev
	.set	_ZN7openpal5ArrayINS_8ListNodeIN8opendnp39SOERecordEEEjED1Ev,_ZN7openpal5ArrayINS_8ListNodeIN8opendnp39SOERecordEEEjED2Ev
	.section	.text._ZN7openpal5ArrayINS_8ListNodeIN8opendnp39SOERecordEEEjED0Ev,"axG",%progbits,_ZN7openpal5ArrayINS_8ListNodeIN8opendnp39SOERecordEEEjED5Ev,comdat
	.align	2
	.weak	_ZN7openpal5ArrayINS_8ListNodeIN8opendnp39SOERecordEEEjED0Ev
	.syntax unified
	.arm
	.fpu vfp
	.type	_ZN7openpal5ArrayINS_8ListNodeIN8opendnp39SOERecordEEEjED0Ev, %function
_ZN7openpal5ArrayINS_8ListNodeIN8opendnp39SOERecordEEEjED0Ev:
	.fnstart
.LFB12728:
	@ args = 0, pretend = 0, frame = 0
	@ frame_needed = 0, uses_anonymous_args = 0
	ldr	r3, .L306
	ldr	r2, .L306+4
.LPIC42:
	add	r3, pc, r3
	push	{r4, lr}
	mov	r4, r0
	ldr	r3, [r3, r2]
	ldr	r0, [r0, #8]
	add	r3, r3, #8
	cmp	r0, #0
	str	r3, [r4]
	beq	.L301
	bl	_ZdaPv(PLT)
.L301:
	mov	r0, r4
	mov	r1, #12
	bl	_ZdlPvj(PLT)
	mov	r0, r4
	pop	{r4, pc}
.L307:
	.align	2
.L306:
	.word	_GLOBAL_OFFSET_TABLE_-(.LPIC42+8)
	.word	_ZTVN7openpal5ArrayINS_8ListNodeIN8opendnp39SOERecordEEEjEE(GOT)
	.cantunwind
	.fnend
	.size	_ZN7openpal5ArrayINS_8ListNodeIN8opendnp39SOERecordEEEjED0Ev, .-_ZN7openpal5ArrayINS_8ListNodeIN8opendnp39SOERecordEEEjED0Ev
	.section	.text._ZNSt23_Sp_counted_ptr_inplaceIN8asiodnp315OutstationStackESaIS1_ELN9__gnu_cxx12_Lock_policyE1EE10_M_destroyEv,"axG",%progbits,_ZNSt23_Sp_counted_ptr_inplaceIN8asiodnp315OutstationStackESaIS1_ELN9__gnu_cxx12_Lock_policyE1EE10_M_destroyEv,comdat
	.align	2
	.weak	_ZNSt23_Sp_counted_ptr_inplaceIN8asiodnp315OutstationStackESaIS1_ELN9__gnu_cxx12_Lock_policyE1EE10_M_destroyEv
	.syntax unified
	.arm
	.fpu vfp
	.type	_ZNSt23_Sp_counted_ptr_inplaceIN8asiodnp315OutstationStackESaIS1_ELN9__gnu_cxx12_Lock_policyE1EE10_M_destroyEv, %function
_ZNSt23_Sp_counted_ptr_inplaceIN8asiodnp315OutstationStackESaIS1_ELN9__gnu_cxx12_Lock_policyE1EE10_M_destroyEv:
	.fnstart
.LFB12427:
	@ args = 0, pretend = 0, frame = 0
	@ frame_needed = 0, uses_anonymous_args = 0
	@ link register save eliminated.
	b	_ZdlPv(PLT)
	.cantunwind
	.fnend
	.size	_ZNSt23_Sp_counted_ptr_inplaceIN8asiodnp315OutstationStackESaIS1_ELN9__gnu_cxx12_Lock_policyE1EE10_M_destroyEv, .-_ZNSt23_Sp_counted_ptr_inplaceIN8asiodnp315OutstationStackESaIS1_ELN9__gnu_cxx12_Lock_policyE1EE10_M_destroyEv
	.section	.text._ZNSt23_Sp_counted_ptr_inplaceIN8asiodnp311MasterStackESaIS1_ELN9__gnu_cxx12_Lock_policyE1EE10_M_destroyEv,"axG",%progbits,_ZNSt23_Sp_counted_ptr_inplaceIN8asiodnp311MasterStackESaIS1_ELN9__gnu_cxx12_Lock_policyE1EE10_M_destroyEv,comdat
	.align	2
	.weak	_ZNSt23_Sp_counted_ptr_inplaceIN8asiodnp311MasterStackESaIS1_ELN9__gnu_cxx12_Lock_policyE1EE10_M_destroyEv
	.syntax unified
	.arm
	.fpu vfp
	.type	_ZNSt23_Sp_counted_ptr_inplaceIN8asiodnp311MasterStackESaIS1_ELN9__gnu_cxx12_Lock_policyE1EE10_M_destroyEv, %function
_ZNSt23_Sp_counted_ptr_inplaceIN8asiodnp311MasterStackESaIS1_ELN9__gnu_cxx12_Lock_policyE1EE10_M_destroyEv:
	.fnstart
.LFB12434:
	@ args = 0, pretend = 0, frame = 0
	@ frame_needed = 0, uses_anonymous_args = 0
	@ link register save eliminated.
	b	_ZdlPv(PLT)
	.cantunwind
	.fnend
	.size	_ZNSt23_Sp_counted_ptr_inplaceIN8asiodnp311MasterStackESaIS1_ELN9__gnu_cxx12_Lock_policyE1EE10_M_destroyEv, .-_ZNSt23_Sp_counted_ptr_inplaceIN8asiodnp311MasterStackESaIS1_ELN9__gnu_cxx12_Lock_policyE1EE10_M_destroyEv
	.section	.text._ZNSt23_Sp_counted_ptr_inplaceIN7asiopal15ResourceManagerESaIS1_ELN9__gnu_cxx12_Lock_policyE1EE10_M_destroyEv,"axG",%progbits,_ZNSt23_Sp_counted_ptr_inplaceIN7asiopal15ResourceManagerESaIS1_ELN9__gnu_cxx12_Lock_policyE1EE10_M_destroyEv,comdat
	.align	2
	.weak	_ZNSt23_Sp_counted_ptr_inplaceIN7asiopal15ResourceManagerESaIS1_ELN9__gnu_cxx12_Lock_policyE1EE10_M_destroyEv
	.syntax unified
	.arm
	.fpu vfp
	.type	_ZNSt23_Sp_counted_ptr_inplaceIN7asiopal15ResourceManagerESaIS1_ELN9__gnu_cxx12_Lock_policyE1EE10_M_destroyEv, %function
_ZNSt23_Sp_counted_ptr_inplaceIN7asiopal15ResourceManagerESaIS1_ELN9__gnu_cxx12_Lock_policyE1EE10_M_destroyEv:
	.fnstart
.LFB12455:
	@ args = 0, pretend = 0, frame = 0
	@ frame_needed = 0, uses_anonymous_args = 0
	@ link register save eliminated.
	b	_ZdlPv(PLT)
	.cantunwind
	.fnend
	.size	_ZNSt23_Sp_counted_ptr_inplaceIN7asiopal15ResourceManagerESaIS1_ELN9__gnu_cxx12_Lock_policyE1EE10_M_destroyEv, .-_ZNSt23_Sp_counted_ptr_inplaceIN7asiopal15ResourceManagerESaIS1_ELN9__gnu_cxx12_Lock_policyE1EE10_M_destroyEv
	.section	.text._ZNSt23_Sp_counted_ptr_inplaceINSt13__future_base13_State_baseV2ESaIS1_ELN9__gnu_cxx12_Lock_policyE1EE10_M_destroyEv,"axG",%progbits,_ZNSt23_Sp_counted_ptr_inplaceINSt13__future_base13_State_baseV2ESaIS1_ELN9__gnu_cxx12_Lock_policyE1EE10_M_destroyEv,comdat
	.align	2
	.weak	_ZNSt23_Sp_counted_ptr_inplaceINSt13__future_base13_State_baseV2ESaIS1_ELN9__gnu_cxx12_Lock_policyE1EE10_M_destroyEv
	.syntax unified
	.arm
	.fpu vfp
	.type	_ZNSt23_Sp_counted_ptr_inplaceINSt13__future_base13_State_baseV2ESaIS1_ELN9__gnu_cxx12_Lock_policyE1EE10_M_destroyEv, %function
_ZNSt23_Sp_counted_ptr_inplaceINSt13__future_base13_State_baseV2ESaIS1_ELN9__gnu_cxx12_Lock_policyE1EE10_M_destroyEv:
	.fnstart
.LFB12469:
	@ args = 0, pretend = 0, frame = 0
	@ frame_needed = 0, uses_anonymous_args = 0
	@ link register save eliminated.
	b	_ZdlPv(PLT)
	.cantunwind
	.fnend
	.size	_ZNSt23_Sp_counted_ptr_inplaceINSt13__future_base13_State_baseV2ESaIS1_ELN9__gnu_cxx12_Lock_policyE1EE10_M_destroyEv, .-_ZNSt23_Sp_counted_ptr_inplaceINSt13__future_base13_State_baseV2ESaIS1_ELN9__gnu_cxx12_Lock_policyE1EE10_M_destroyEv
	.section	.text._ZNSt23_Sp_counted_ptr_inplaceIN7openpal6Logger8SettingsESaIS2_ELN9__gnu_cxx12_Lock_policyE1EE10_M_destroyEv,"axG",%progbits,_ZNSt23_Sp_counted_ptr_inplaceIN7openpal6Logger8SettingsESaIS2_ELN9__gnu_cxx12_Lock_policyE1EE10_M_destroyEv,comdat
	.align	2
	.weak	_ZNSt23_Sp_counted_ptr_inplaceIN7openpal6Logger8SettingsESaIS2_ELN9__gnu_cxx12_Lock_policyE1EE10_M_destroyEv
	.syntax unified
	.arm
	.fpu vfp
	.type	_ZNSt23_Sp_counted_ptr_inplaceIN7openpal6Logger8SettingsESaIS2_ELN9__gnu_cxx12_Lock_policyE1EE10_M_destroyEv, %function
_ZNSt23_Sp_counted_ptr_inplaceIN7openpal6Logger8SettingsESaIS2_ELN9__gnu_cxx12_Lock_policyE1EE10_M_destroyEv:
	.fnstart
.LFB12483:
	@ args = 0, pretend = 0, frame = 0
	@ frame_needed = 0, uses_anonymous_args = 0
	@ link register save eliminated.
	b	_ZdlPv(PLT)
	.cantunwind
	.fnend
	.size	_ZNSt23_Sp_counted_ptr_inplaceIN7openpal6Logger8SettingsESaIS2_ELN9__gnu_cxx12_Lock_policyE1EE10_M_destroyEv, .-_ZNSt23_Sp_counted_ptr_inplaceIN7openpal6Logger8SettingsESaIS2_ELN9__gnu_cxx12_Lock_policyE1EE10_M_destroyEv
	.section	.text._ZNSt23_Sp_counted_ptr_inplaceIN7openpal6Logger8SettingsESaIS2_ELN9__gnu_cxx12_Lock_policyE1EE10_M_disposeEv,"axG",%progbits,_ZNSt23_Sp_counted_ptr_inplaceIN7openpal6Logger8SettingsESaIS2_ELN9__gnu_cxx12_Lock_policyE1EE10_M_disposeEv,comdat
	.align	2
	.weak	_ZNSt23_Sp_counted_ptr_inplaceIN7openpal6Logger8SettingsESaIS2_ELN9__gnu_cxx12_Lock_policyE1EE10_M_disposeEv
	.syntax unified
	.arm
	.fpu vfp
	.type	_ZNSt23_Sp_counted_ptr_inplaceIN7openpal6Logger8SettingsESaIS2_ELN9__gnu_cxx12_Lock_policyE1EE10_M_disposeEv, %function
_ZNSt23_Sp_counted_ptr_inplaceIN7openpal6Logger8SettingsESaIS2_ELN9__gnu_cxx12_Lock_policyE1EE10_M_disposeEv:
	.fnstart
.LFB12482:
	@ args = 0, pretend = 0, frame = 0
	@ frame_needed = 0, uses_anonymous_args = 0
	@ link register save eliminated.
	add	r3, r0, #44
	ldr	r0, [r0, #36]
	cmp	r0, r3
	bxeq	lr
	b	_ZdlPv(PLT)
	.cantunwind
	.fnend
	.size	_ZNSt23_Sp_counted_ptr_inplaceIN7openpal6Logger8SettingsESaIS2_ELN9__gnu_cxx12_Lock_policyE1EE10_M_disposeEv, .-_ZNSt23_Sp_counted_ptr_inplaceIN7openpal6Logger8SettingsESaIS2_ELN9__gnu_cxx12_Lock_policyE1EE10_M_disposeEv
	.section	.text._ZNSt13__future_base7_ResultIN8opendnp314LinkStatisticsEED2Ev,"axG",%progbits,_ZNSt13__future_base7_ResultIN8opendnp314LinkStatisticsEED5Ev,comdat
	.align	2
	.weak	_ZNSt13__future_base7_ResultIN8opendnp314LinkStatisticsEED2Ev
	.syntax unified
	.arm
	.fpu vfp
	.type	_ZNSt13__future_base7_ResultIN8opendnp314LinkStatisticsEED2Ev, %function
_ZNSt13__future_base7_ResultIN8opendnp314LinkStatisticsEED2Ev:
	.fnstart
.LFB12511:
	@ args = 0, pretend = 0, frame = 0
	@ frame_needed = 0, uses_anonymous_args = 0
	ldr	r3, .L317
	ldr	r2, .L317+4
.LPIC43:
	add	r3, pc, r3
	push	{r4, lr}
	mov	r4, r0
	ldr	r3, [r3, r2]
	add	r3, r3, #8
	str	r3, [r0]
	bl	_ZNSt13__future_base12_Result_baseD2Ev(PLT)
	mov	r0, r4
	pop	{r4, pc}
.L318:
	.align	2
.L317:
	.word	_GLOBAL_OFFSET_TABLE_-(.LPIC43+8)
	.word	_ZTVNSt13__future_base7_ResultIN8opendnp314LinkStatisticsEEE(GOT)
	.cantunwind
	.fnend
	.size	_ZNSt13__future_base7_ResultIN8opendnp314LinkStatisticsEED2Ev, .-_ZNSt13__future_base7_ResultIN8opendnp314LinkStatisticsEED2Ev
	.weak	_ZNSt13__future_base7_ResultIN8opendnp314LinkStatisticsEED1Ev
	.set	_ZNSt13__future_base7_ResultIN8opendnp314LinkStatisticsEED1Ev,_ZNSt13__future_base7_ResultIN8opendnp314LinkStatisticsEED2Ev
	.section	.text._ZNSt13__future_base7_ResultIN8opendnp314LinkStatisticsEED0Ev,"axG",%progbits,_ZNSt13__future_base7_ResultIN8opendnp314LinkStatisticsEED5Ev,comdat
	.align	2
	.weak	_ZNSt13__future_base7_ResultIN8opendnp314LinkStatisticsEED0Ev
	.syntax unified
	.arm
	.fpu vfp
	.type	_ZNSt13__future_base7_ResultIN8opendnp314LinkStatisticsEED0Ev, %function
_ZNSt13__future_base7_ResultIN8opendnp314LinkStatisticsEED0Ev:
	.fnstart
.LFB12513:
	@ args = 0, pretend = 0, frame = 0
	@ frame_needed = 0, uses_anonymous_args = 0
	ldr	r3, .L321
	ldr	r2, .L321+4
.LPIC44:
	add	r3, pc, r3
	push	{r4, lr}
	mov	r4, r0
	ldr	r3, [r3, r2]
	add	r3, r3, #8
	str	r3, [r0]
	bl	_ZNSt13__future_base12_Result_baseD2Ev(PLT)
	mov	r0, r4
	mov	r1, #64
	bl	_ZdlPvj(PLT)
	mov	r0, r4
	pop	{r4, pc}
.L322:
	.align	2
.L321:
	.word	_GLOBAL_OFFSET_TABLE_-(.LPIC44+8)
	.word	_ZTVNSt13__future_base7_ResultIN8opendnp314LinkStatisticsEEE(GOT)
	.cantunwind
	.fnend
	.size	_ZNSt13__future_base7_ResultIN8opendnp314LinkStatisticsEED0Ev, .-_ZNSt13__future_base7_ResultIN8opendnp314LinkStatisticsEED0Ev
	.section	.text._ZNSt13__future_base7_ResultIN7openpal10LogFiltersEED2Ev,"axG",%progbits,_ZNSt13__future_base7_ResultIN7openpal10LogFiltersEED5Ev,comdat
	.align	2
	.weak	_ZNSt13__future_base7_ResultIN7openpal10LogFiltersEED2Ev
	.syntax unified
	.arm
	.fpu vfp
	.type	_ZNSt13__future_base7_ResultIN7openpal10LogFiltersEED2Ev, %function
_ZNSt13__future_base7_ResultIN7openpal10LogFiltersEED2Ev:
	.fnstart
.LFB12506:
	@ args = 0, pretend = 0, frame = 0
	@ frame_needed = 0, uses_anonymous_args = 0
	ldr	r3, .L325
	ldr	r2, .L325+4
.LPIC45:
	add	r3, pc, r3
	push	{r4, lr}
	mov	r4, r0
	ldr	r3, [r3, r2]
	add	r3, r3, #8
	str	r3, [r0]
	bl	_ZNSt13__future_base12_Result_baseD2Ev(PLT)
	mov	r0, r4
	pop	{r4, pc}
.L326:
	.align	2
.L325:
	.word	_GLOBAL_OFFSET_TABLE_-(.LPIC45+8)
	.word	_ZTVNSt13__future_base7_ResultIN7openpal10LogFiltersEEE(GOT)
	.cantunwind
	.fnend
	.size	_ZNSt13__future_base7_ResultIN7openpal10LogFiltersEED2Ev, .-_ZNSt13__future_base7_ResultIN7openpal10LogFiltersEED2Ev
	.weak	_ZNSt13__future_base7_ResultIN7openpal10LogFiltersEED1Ev
	.set	_ZNSt13__future_base7_ResultIN7openpal10LogFiltersEED1Ev,_ZNSt13__future_base7_ResultIN7openpal10LogFiltersEED2Ev
	.section	.text._ZNSt13__future_base7_ResultIN7openpal10LogFiltersEED0Ev,"axG",%progbits,_ZNSt13__future_base7_ResultIN7openpal10LogFiltersEED5Ev,comdat
	.align	2
	.weak	_ZNSt13__future_base7_ResultIN7openpal10LogFiltersEED0Ev
	.syntax unified
	.arm
	.fpu vfp
	.type	_ZNSt13__future_base7_ResultIN7openpal10LogFiltersEED0Ev, %function
_ZNSt13__future_base7_ResultIN7openpal10LogFiltersEED0Ev:
	.fnstart
.LFB12508:
	@ args = 0, pretend = 0, frame = 0
	@ frame_needed = 0, uses_anonymous_args = 0
	ldr	r3, .L329
	ldr	r2, .L329+4
.LPIC46:
	add	r3, pc, r3
	push	{r4, lr}
	mov	r4, r0
	ldr	r3, [r3, r2]
	add	r3, r3, #8
	str	r3, [r0]
	bl	_ZNSt13__future_base12_Result_baseD2Ev(PLT)
	mov	r0, r4
	mov	r1, #16
	bl	_ZdlPvj(PLT)
	mov	r0, r4
	pop	{r4, pc}
.L330:
	.align	2
.L329:
	.word	_GLOBAL_OFFSET_TABLE_-(.LPIC46+8)
	.word	_ZTVNSt13__future_base7_ResultIN7openpal10LogFiltersEEE(GOT)
	.cantunwind
	.fnend
	.size	_ZNSt13__future_base7_ResultIN7openpal10LogFiltersEED0Ev, .-_ZNSt13__future_base7_ResultIN7openpal10LogFiltersEED0Ev
	.section	.text._ZNSt13__future_base7_ResultIbED2Ev,"axG",%progbits,_ZNSt13__future_base7_ResultIbED5Ev,comdat
	.align	2
	.weak	_ZNSt13__future_base7_ResultIbED2Ev
	.syntax unified
	.arm
	.fpu vfp
	.type	_ZNSt13__future_base7_ResultIbED2Ev, %function
_ZNSt13__future_base7_ResultIbED2Ev:
	.fnstart
.LFB12501:
	@ args = 0, pretend = 0, frame = 0
	@ frame_needed = 0, uses_anonymous_args = 0
	ldr	r3, .L333
	ldr	r2, .L333+4
.LPIC47:
	add	r3, pc, r3
	push	{r4, lr}
	mov	r4, r0
	ldr	r3, [r3, r2]
	add	r3, r3, #8
	str	r3, [r0]
	bl	_ZNSt13__future_base12_Result_baseD2Ev(PLT)
	mov	r0, r4
	pop	{r4, pc}
.L334:
	.align	2
.L333:
	.word	_GLOBAL_OFFSET_TABLE_-(.LPIC47+8)
	.word	_ZTVNSt13__future_base7_ResultIbEE(GOT)
	.cantunwind
	.fnend
	.size	_ZNSt13__future_base7_ResultIbED2Ev, .-_ZNSt13__future_base7_ResultIbED2Ev
	.weak	_ZNSt13__future_base7_ResultIbED1Ev
	.set	_ZNSt13__future_base7_ResultIbED1Ev,_ZNSt13__future_base7_ResultIbED2Ev
	.section	.text._ZNSt13__future_base7_ResultIbED0Ev,"axG",%progbits,_ZNSt13__future_base7_ResultIbED5Ev,comdat
	.align	2
	.weak	_ZNSt13__future_base7_ResultIbED0Ev
	.syntax unified
	.arm
	.fpu vfp
	.type	_ZNSt13__future_base7_ResultIbED0Ev, %function
_ZNSt13__future_base7_ResultIbED0Ev:
	.fnstart
.LFB12503:
	@ args = 0, pretend = 0, frame = 0
	@ frame_needed = 0, uses_anonymous_args = 0
	ldr	r3, .L337
	ldr	r2, .L337+4
.LPIC48:
	add	r3, pc, r3
	push	{r4, lr}
	mov	r4, r0
	ldr	r3, [r3, r2]
	add	r3, r3, #8
	str	r3, [r0]
	bl	_ZNSt13__future_base12_Result_baseD2Ev(PLT)
	mov	r0, r4
	mov	r1, #12
	bl	_ZdlPvj(PLT)
	mov	r0, r4
	pop	{r4, pc}
.L338:
	.align	2
.L337:
	.word	_GLOBAL_OFFSET_TABLE_-(.LPIC48+8)
	.word	_ZTVNSt13__future_base7_ResultIbEE(GOT)
	.cantunwind
	.fnend
	.size	_ZNSt13__future_base7_ResultIbED0Ev, .-_ZNSt13__future_base7_ResultIbED0Ev
	.section	.text._ZNSt13__future_base13_State_baseV29_M_do_setEPSt8functionIFSt10unique_ptrINS_12_Result_baseENS3_8_DeleterEEvEEPb,"axG",%progbits,_ZNSt13__future_base13_State_baseV29_M_do_setEPSt8functionIFSt10unique_ptrINS_12_Result_baseENS3_8_DeleterEEvEEPb,comdat
	.align	2
	.weak	_ZNSt13__future_base13_State_baseV29_M_do_setEPSt8functionIFSt10unique_ptrINS_12_Result_baseENS3_8_DeleterEEvEEPb
	.syntax unified
	.arm
	.fpu vfp
	.type	_ZNSt13__future_base13_State_baseV29_M_do_setEPSt8functionIFSt10unique_ptrINS_12_Result_baseENS3_8_DeleterEEvEEPb, %function
_ZNSt13__future_base13_State_baseV29_M_do_setEPSt8functionIFSt10unique_ptrINS_12_Result_baseENS3_8_DeleterEEvEEPb:
	.fnstart
.LFB7463:
	@ args = 0, pretend = 0, frame = 8
	@ frame_needed = 0, uses_anonymous_args = 0
	push	{r4, r5, lr}
	.save {r4, r5, lr}
	mov	r4, r0
	ldr	r0, [r1, #8]
	.pad #12
	sub	sp, sp, #12
	cmp	r0, #0
	beq	.L346
	ldr	r3, [r1, #12]
	add	r0, sp, #4
	mov	r5, r2
.LEHB0:
	blx	r3
.LEHE0:
	ldr	r0, [r4, #4]
	ldr	r3, [sp, #4]
	mov	r2, #1
	cmp	r0, #0
	strb	r2, [r5]
	str	r0, [sp, #4]
	str	r3, [r4, #4]
	beq	.L339
	ldr	r3, [r0]
	ldr	r3, [r3]
	blx	r3
.L339:
	add	sp, sp, #12
	@ sp needed
	pop	{r4, r5, pc}
.L346:
.LEHB1:
	bl	_ZSt25__throw_bad_function_callv(PLT)
.LEHE1:
	.personality	__gxx_personality_v0
	.handlerdata
.LLSDA7463:
	.byte	0xff
	.byte	0xff
	.byte	0x1
	.uleb128 .LLSDACSE7463-.LLSDACSB7463
.LLSDACSB7463:
	.uleb128 .LEHB0-.LFB7463
	.uleb128 .LEHE0-.LEHB0
	.uleb128 0
	.uleb128 0
	.uleb128 .LEHB1-.LFB7463
	.uleb128 .LEHE1-.LEHB1
	.uleb128 0
	.uleb128 0
.LLSDACSE7463:
	.section	.text._ZNSt13__future_base13_State_baseV29_M_do_setEPSt8functionIFSt10unique_ptrINS_12_Result_baseENS3_8_DeleterEEvEEPb,"axG",%progbits,_ZNSt13__future_base13_State_baseV29_M_do_setEPSt8functionIFSt10unique_ptrINS_12_Result_baseENS3_8_DeleterEEvEEPb,comdat
	.fnend
	.size	_ZNSt13__future_base13_State_baseV29_M_do_setEPSt8functionIFSt10unique_ptrINS_12_Result_baseENS3_8_DeleterEEvEEPb, .-_ZNSt13__future_base13_State_baseV29_M_do_setEPSt8functionIFSt10unique_ptrINS_12_Result_baseENS3_8_DeleterEEvEEPb
	.section	.text._ZNSt17_Function_handlerIFSt10unique_ptrINSt13__future_base12_Result_baseENS2_8_DeleterEEvENS1_13_State_baseV27_SetterIN8opendnp314LinkStatisticsEOS9_EEE9_M_invokeERKSt9_Any_data,"axG",%progbits,_ZNSt17_Function_handlerIFSt10unique_ptrINSt13__future_base12_Result_baseENS2_8_DeleterEEvENS1_13_State_baseV27_SetterIN8opendnp314LinkStatisticsEOS9_EEE9_M_invokeERKSt9_Any_data,comdat
	.align	2
	.weak	_ZNSt17_Function_handlerIFSt10unique_ptrINSt13__future_base12_Result_baseENS2_8_DeleterEEvENS1_13_State_baseV27_SetterIN8opendnp314LinkStatisticsEOS9_EEE9_M_invokeERKSt9_Any_data
	.syntax unified
	.arm
	.fpu vfp
	.type	_ZNSt17_Function_handlerIFSt10unique_ptrINSt13__future_base12_Result_baseENS2_8_DeleterEEvENS1_13_State_baseV27_SetterIN8opendnp314LinkStatisticsEOS9_EEE9_M_invokeERKSt9_Any_data, %function
_ZNSt17_Function_handlerIFSt10unique_ptrINSt13__future_base12_Result_baseENS2_8_DeleterEEvENS1_13_State_baseV27_SetterIN8opendnp314LinkStatisticsEOS9_EEE9_M_invokeERKSt9_Any_data:
	.fnstart
.LFB10968:
	@ args = 0, pretend = 0, frame = 0
	@ frame_needed = 0, uses_anonymous_args = 0
	push	{r4, r5, r6, lr}
	.save {r4, r5, r6, lr}
	ldr	r5, [r1]
	ldr	r3, [r5]
	cmp	r3, #0
	beq	.L354
	ldr	r4, [r5, #8]
	mov	r6, r0
	adds	ip, r4, #8
	ldr	lr, [r1, #4]
	beq	.L349
	ldmia	lr!, {r0, r1, r2, r3}
	stmia	ip!, {r0, r1, r2, r3}
	ldmia	lr!, {r0, r1, r2, r3}
	stmia	ip!, {r0, r1, r2, r3}
	ldmia	lr!, {r0, r1, r2, r3}
	stmia	ip!, {r0, r1, r2, r3}
	ldr	r3, [lr]
	str	r3, [ip]
.L349:
	mov	r2, #1
	mov	r3, #0
	strb	r2, [r4, #60]
	mov	r0, r6
	str	r3, [r5, #8]
	str	r4, [r6]
	pop	{r4, r5, r6, pc}
.L354:
	mov	r0, #3
	bl	_ZSt20__throw_future_errori(PLT)
	.fnend
	.size	_ZNSt17_Function_handlerIFSt10unique_ptrINSt13__future_base12_Result_baseENS2_8_DeleterEEvENS1_13_State_baseV27_SetterIN8opendnp314LinkStatisticsEOS9_EEE9_M_invokeERKSt9_Any_data, .-_ZNSt17_Function_handlerIFSt10unique_ptrINSt13__future_base12_Result_baseENS2_8_DeleterEEvENS1_13_State_baseV27_SetterIN8opendnp314LinkStatisticsEOS9_EEE9_M_invokeERKSt9_Any_data
	.section	.text._ZNSt17_Function_handlerIFSt10unique_ptrINSt13__future_base12_Result_baseENS2_8_DeleterEEvENS1_13_State_baseV27_SetterIN7openpal10LogFiltersEOS9_EEE9_M_invokeERKSt9_Any_data,"axG",%progbits,_ZNSt17_Function_handlerIFSt10unique_ptrINSt13__future_base12_Result_baseENS2_8_DeleterEEvENS1_13_State_baseV27_SetterIN7openpal10LogFiltersEOS9_EEE9_M_invokeERKSt9_Any_data,comdat
	.align	2
	.weak	_ZNSt17_Function_handlerIFSt10unique_ptrINSt13__future_base12_Result_baseENS2_8_DeleterEEvENS1_13_State_baseV27_SetterIN7openpal10LogFiltersEOS9_EEE9_M_invokeERKSt9_Any_data
	.syntax unified
	.arm
	.fpu vfp
	.type	_ZNSt17_Function_handlerIFSt10unique_ptrINSt13__future_base12_Result_baseENS2_8_DeleterEEvENS1_13_State_baseV27_SetterIN7openpal10LogFiltersEOS9_EEE9_M_invokeERKSt9_Any_data, %function
_ZNSt17_Function_handlerIFSt10unique_ptrINSt13__future_base12_Result_baseENS2_8_DeleterEEvENS1_13_State_baseV27_SetterIN7openpal10LogFiltersEOS9_EEE9_M_invokeERKSt9_Any_data:
	.fnstart
.LFB10996:
	@ args = 0, pretend = 0, frame = 0
	@ frame_needed = 0, uses_anonymous_args = 0
	ldr	r2, [r1]
	ldr	r3, [r2]
	cmp	r3, #0
	beq	.L364
	ldr	r3, [r2, #8]
	ldr	r1, [r1, #4]
	cmn	r3, #8
	mov	ip, r0
	ldrne	r1, [r1]
	mov	r0, #1
	strne	r1, [r3, #8]
	mov	r1, #0
	strb	r0, [r3, #12]
	str	r1, [r2, #8]
	mov	r0, ip
	str	r3, [ip]
	bx	lr
.L364:
	push	{r4, lr}
	.save {r4, lr}
	mov	r0, #3
	bl	_ZSt20__throw_future_errori(PLT)
	.fnend
	.size	_ZNSt17_Function_handlerIFSt10unique_ptrINSt13__future_base12_Result_baseENS2_8_DeleterEEvENS1_13_State_baseV27_SetterIN7openpal10LogFiltersEOS9_EEE9_M_invokeERKSt9_Any_data, .-_ZNSt17_Function_handlerIFSt10unique_ptrINSt13__future_base12_Result_baseENS2_8_DeleterEEvENS1_13_State_baseV27_SetterIN7openpal10LogFiltersEOS9_EEE9_M_invokeERKSt9_Any_data
	.section	.text._ZNSt17_Function_handlerIFSt10unique_ptrINSt13__future_base12_Result_baseENS2_8_DeleterEEvENS1_13_State_baseV27_SetterIbObEEE9_M_invokeERKSt9_Any_data,"axG",%progbits,_ZNSt17_Function_handlerIFSt10unique_ptrINSt13__future_base12_Result_baseENS2_8_DeleterEEvENS1_13_State_baseV27_SetterIbObEEE9_M_invokeERKSt9_Any_data,comdat
	.align	2
	.weak	_ZNSt17_Function_handlerIFSt10unique_ptrINSt13__future_base12_Result_baseENS2_8_DeleterEEvENS1_13_State_baseV27_SetterIbObEEE9_M_invokeERKSt9_Any_data
	.syntax unified
	.arm
	.fpu vfp
	.type	_ZNSt17_Function_handlerIFSt10unique_ptrINSt13__future_base12_Result_baseENS2_8_DeleterEEvENS1_13_State_baseV27_SetterIbObEEE9_M_invokeERKSt9_Any_data, %function
_ZNSt17_Function_handlerIFSt10unique_ptrINSt13__future_base12_Result_baseENS2_8_DeleterEEvENS1_13_State_baseV27_SetterIbObEEE9_M_invokeERKSt9_Any_data:
	.fnstart
.LFB11336:
	@ args = 0, pretend = 0, frame = 0
	@ frame_needed = 0, uses_anonymous_args = 0
	ldr	r2, [r1]
	ldr	r3, [r2]
	cmp	r3, #0
	beq	.L374
	ldr	r1, [r1, #4]
	ldr	r3, [r2, #8]
	mov	ip, r0
	ldrb	r1, [r1]	@ zero_extendqisi2
	cmn	r3, #8
	mov	r0, #1
	strbne	r1, [r3, #8]
	mov	r1, #0
	strb	r0, [r3, #9]
	str	r1, [r2, #8]
	mov	r0, ip
	str	r3, [ip]
	bx	lr
.L374:
	push	{r4, lr}
	.save {r4, lr}
	mov	r0, #3
	bl	_ZSt20__throw_future_errori(PLT)
	.fnend
	.size	_ZNSt17_Function_handlerIFSt10unique_ptrINSt13__future_base12_Result_baseENS2_8_DeleterEEvENS1_13_State_baseV27_SetterIbObEEE9_M_invokeERKSt9_Any_data, .-_ZNSt17_Function_handlerIFSt10unique_ptrINSt13__future_base12_Result_baseENS2_8_DeleterEEvENS1_13_State_baseV27_SetterIbObEEE9_M_invokeERKSt9_Any_data
	.section	.text._ZN4asio6detail7tss_ptrINS0_10call_stackINS0_15task_io_serviceENS0_27task_io_service_thread_infoEE7contextEED2Ev,"axG",%progbits,_ZN4asio6detail7tss_ptrINS0_10call_stackINS0_15task_io_serviceENS0_27task_io_service_thread_infoEE7contextEED5Ev,comdat
	.align	2
	.weak	_ZN4asio6detail7tss_ptrINS0_10call_stackINS0_15task_io_serviceENS0_27task_io_service_thread_infoEE7contextEED2Ev
	.syntax unified
	.arm
	.fpu vfp
	.type	_ZN4asio6detail7tss_ptrINS0_10call_stackINS0_15task_io_serviceENS0_27task_io_service_thread_infoEE7contextEED2Ev, %function
_ZN4asio6detail7tss_ptrINS0_10call_stackINS0_15task_io_serviceENS0_27task_io_service_thread_infoEE7contextEED2Ev:
	.fnstart
.LFB12408:
	@ args = 0, pretend = 0, frame = 0
	@ frame_needed = 0, uses_anonymous_args = 0
	push	{r4, lr}
	mov	r4, r0
	ldr	r0, [r0]
	bl	pthread_key_delete(PLT)
	mov	r0, r4
	pop	{r4, pc}
	.cantunwind
	.fnend
	.size	_ZN4asio6detail7tss_ptrINS0_10call_stackINS0_15task_io_serviceENS0_27task_io_service_thread_infoEE7contextEED2Ev, .-_ZN4asio6detail7tss_ptrINS0_10call_stackINS0_15task_io_serviceENS0_27task_io_service_thread_infoEE7contextEED2Ev
	.weak	_ZN4asio6detail7tss_ptrINS0_10call_stackINS0_15task_io_serviceENS0_27task_io_service_thread_infoEE7contextEED1Ev
	.set	_ZN4asio6detail7tss_ptrINS0_10call_stackINS0_15task_io_serviceENS0_27task_io_service_thread_infoEE7contextEED1Ev,_ZN4asio6detail7tss_ptrINS0_10call_stackINS0_15task_io_serviceENS0_27task_io_service_thread_infoEE7contextEED2Ev
	.section	.text._ZN4asio6detail7tss_ptrINS0_10call_stackINS0_14strand_service11strand_implEhE7contextEED2Ev,"axG",%progbits,_ZN4asio6detail7tss_ptrINS0_10call_stackINS0_14strand_service11strand_implEhE7contextEED5Ev,comdat
	.align	2
	.weak	_ZN4asio6detail7tss_ptrINS0_10call_stackINS0_14strand_service11strand_implEhE7contextEED2Ev
	.syntax unified
	.arm
	.fpu vfp
	.type	_ZN4asio6detail7tss_ptrINS0_10call_stackINS0_14strand_service11strand_implEhE7contextEED2Ev, %function
_ZN4asio6detail7tss_ptrINS0_10call_stackINS0_14strand_service11strand_implEhE7contextEED2Ev:
	.fnstart
.LFB12417:
	@ args = 0, pretend = 0, frame = 0
	@ frame_needed = 0, uses_anonymous_args = 0
	push	{r4, lr}
	mov	r4, r0
	ldr	r0, [r0]
	bl	pthread_key_delete(PLT)
	mov	r0, r4
	pop	{r4, pc}
	.cantunwind
	.fnend
	.size	_ZN4asio6detail7tss_ptrINS0_10call_stackINS0_14strand_service11strand_implEhE7contextEED2Ev, .-_ZN4asio6detail7tss_ptrINS0_10call_stackINS0_14strand_service11strand_implEhE7contextEED2Ev
	.weak	_ZN4asio6detail7tss_ptrINS0_10call_stackINS0_14strand_service11strand_implEhE7contextEED1Ev
	.set	_ZN4asio6detail7tss_ptrINS0_10call_stackINS0_14strand_service11strand_implEhE7contextEED1Ev,_ZN4asio6detail7tss_ptrINS0_10call_stackINS0_14strand_service11strand_implEhE7contextEED2Ev
	.section	.text._ZN4asio6detail15system_categoryD2Ev,"axG",%progbits,_ZN4asio6detail15system_categoryD5Ev,comdat
	.align	2
	.weak	_ZN4asio6detail15system_categoryD2Ev
	.syntax unified
	.arm
	.fpu vfp
	.type	_ZN4asio6detail15system_categoryD2Ev, %function
_ZN4asio6detail15system_categoryD2Ev:
	.fnstart
.LFB12383:
	@ args = 0, pretend = 0, frame = 0
	@ frame_needed = 0, uses_anonymous_args = 0
	ldr	r3, .L381
	ldr	r2, .L381+4
.LPIC49:
	add	r3, pc, r3
	push	{r4, lr}
	mov	r4, r0
	ldr	r3, [r3, r2]
	add	r3, r3, #8
	str	r3, [r0]
	bl	_ZNSt3_V214error_categoryD2Ev(PLT)
	mov	r0, r4
	pop	{r4, pc}
.L382:
	.align	2
.L381:
	.word	_GLOBAL_OFFSET_TABLE_-(.LPIC49+8)
	.word	_ZTVN4asio6detail15system_categoryE(GOT)
	.cantunwind
	.fnend
	.size	_ZN4asio6detail15system_categoryD2Ev, .-_ZN4asio6detail15system_categoryD2Ev
	.weak	_ZN4asio6detail15system_categoryD1Ev
	.set	_ZN4asio6detail15system_categoryD1Ev,_ZN4asio6detail15system_categoryD2Ev
	.section	.text._ZN4asio6detail15system_categoryD0Ev,"axG",%progbits,_ZN4asio6detail15system_categoryD5Ev,comdat
	.align	2
	.weak	_ZN4asio6detail15system_categoryD0Ev
	.syntax unified
	.arm
	.fpu vfp
	.type	_ZN4asio6detail15system_categoryD0Ev, %function
_ZN4asio6detail15system_categoryD0Ev:
	.fnstart
.LFB12385:
	@ args = 0, pretend = 0, frame = 0
	@ frame_needed = 0, uses_anonymous_args = 0
	ldr	r3, .L385
	ldr	r2, .L385+4
.LPIC50:
	add	r3, pc, r3
	push	{r4, lr}
	mov	r4, r0
	ldr	r3, [r3, r2]
	add	r3, r3, #8
	str	r3, [r0]
	bl	_ZNSt3_V214error_categoryD2Ev(PLT)
	mov	r0, r4
	mov	r1, #4
	bl	_ZdlPvj(PLT)
	mov	r0, r4
	pop	{r4, pc}
.L386:
	.align	2
.L385:
	.word	_GLOBAL_OFFSET_TABLE_-(.LPIC50+8)
	.word	_ZTVN4asio6detail15system_categoryE(GOT)
	.cantunwind
	.fnend
	.size	_ZN4asio6detail15system_categoryD0Ev, .-_ZN4asio6detail15system_categoryD0Ev
	.section	.text._ZN4asio5error6detail14netdb_categoryD2Ev,"axG",%progbits,_ZN4asio5error6detail14netdb_categoryD5Ev,comdat
	.align	2
	.weak	_ZN4asio5error6detail14netdb_categoryD2Ev
	.syntax unified
	.arm
	.fpu vfp
	.type	_ZN4asio5error6detail14netdb_categoryD2Ev, %function
_ZN4asio5error6detail14netdb_categoryD2Ev:
	.fnstart
.LFB12379:
	@ args = 0, pretend = 0, frame = 0
	@ frame_needed = 0, uses_anonymous_args = 0
	ldr	r3, .L389
	ldr	r2, .L389+4
.LPIC51:
	add	r3, pc, r3
	push	{r4, lr}
	mov	r4, r0
	ldr	r3, [r3, r2]
	add	r3, r3, #8
	str	r3, [r0]
	bl	_ZNSt3_V214error_categoryD2Ev(PLT)
	mov	r0, r4
	pop	{r4, pc}
.L390:
	.align	2
.L389:
	.word	_GLOBAL_OFFSET_TABLE_-(.LPIC51+8)
	.word	_ZTVN4asio5error6detail14netdb_categoryE(GOT)
	.cantunwind
	.fnend
	.size	_ZN4asio5error6detail14netdb_categoryD2Ev, .-_ZN4asio5error6detail14netdb_categoryD2Ev
	.weak	_ZN4asio5error6detail14netdb_categoryD1Ev
	.set	_ZN4asio5error6detail14netdb_categoryD1Ev,_ZN4asio5error6detail14netdb_categoryD2Ev
	.section	.text._ZN4asio5error6detail14netdb_categoryD0Ev,"axG",%progbits,_ZN4asio5error6detail14netdb_categoryD5Ev,comdat
	.align	2
	.weak	_ZN4asio5error6detail14netdb_categoryD0Ev
	.syntax unified
	.arm
	.fpu vfp
	.type	_ZN4asio5error6detail14netdb_categoryD0Ev, %function
_ZN4asio5error6detail14netdb_categoryD0Ev:
	.fnstart
.LFB12381:
	@ args = 0, pretend = 0, frame = 0
	@ frame_needed = 0, uses_anonymous_args = 0
	ldr	r3, .L393
	ldr	r2, .L393+4
.LPIC52:
	add	r3, pc, r3
	push	{r4, lr}
	mov	r4, r0
	ldr	r3, [r3, r2]
	add	r3, r3, #8
	str	r3, [r0]
	bl	_ZNSt3_V214error_categoryD2Ev(PLT)
	mov	r0, r4
	mov	r1, #4
	bl	_ZdlPvj(PLT)
	mov	r0, r4
	pop	{r4, pc}
.L394:
	.align	2
.L393:
	.word	_GLOBAL_OFFSET_TABLE_-(.LPIC52+8)
	.word	_ZTVN4asio5error6detail14netdb_categoryE(GOT)
	.cantunwind
	.fnend
	.size	_ZN4asio5error6detail14netdb_categoryD0Ev, .-_ZN4asio5error6detail14netdb_categoryD0Ev
	.section	.text._ZN4asio5error6detail17addrinfo_categoryD2Ev,"axG",%progbits,_ZN4asio5error6detail17addrinfo_categoryD5Ev,comdat
	.align	2
	.weak	_ZN4asio5error6detail17addrinfo_categoryD2Ev
	.syntax unified
	.arm
	.fpu vfp
	.type	_ZN4asio5error6detail17addrinfo_categoryD2Ev, %function
_ZN4asio5error6detail17addrinfo_categoryD2Ev:
	.fnstart
.LFB12375:
	@ args = 0, pretend = 0, frame = 0
	@ frame_needed = 0, uses_anonymous_args = 0
	ldr	r3, .L397
	ldr	r2, .L397+4
.LPIC53:
	add	r3, pc, r3
	push	{r4, lr}
	mov	r4, r0
	ldr	r3, [r3, r2]
	add	r3, r3, #8
	str	r3, [r0]
	bl	_ZNSt3_V214error_categoryD2Ev(PLT)
	mov	r0, r4
	pop	{r4, pc}
.L398:
	.align	2
.L397:
	.word	_GLOBAL_OFFSET_TABLE_-(.LPIC53+8)
	.word	_ZTVN4asio5error6detail17addrinfo_categoryE(GOT)
	.cantunwind
	.fnend
	.size	_ZN4asio5error6detail17addrinfo_categoryD2Ev, .-_ZN4asio5error6detail17addrinfo_categoryD2Ev
	.weak	_ZN4asio5error6detail17addrinfo_categoryD1Ev
	.set	_ZN4asio5error6detail17addrinfo_categoryD1Ev,_ZN4asio5error6detail17addrinfo_categoryD2Ev
	.section	.text._ZN4asio5error6detail17addrinfo_categoryD0Ev,"axG",%progbits,_ZN4asio5error6detail17addrinfo_categoryD5Ev,comdat
	.align	2
	.weak	_ZN4asio5error6detail17addrinfo_categoryD0Ev
	.syntax unified
	.arm
	.fpu vfp
	.type	_ZN4asio5error6detail17addrinfo_categoryD0Ev, %function
_ZN4asio5error6detail17addrinfo_categoryD0Ev:
	.fnstart
.LFB12377:
	@ args = 0, pretend = 0, frame = 0
	@ frame_needed = 0, uses_anonymous_args = 0
	ldr	r3, .L401
	ldr	r2, .L401+4
.LPIC54:
	add	r3, pc, r3
	push	{r4, lr}
	mov	r4, r0
	ldr	r3, [r3, r2]
	add	r3, r3, #8
	str	r3, [r0]
	bl	_ZNSt3_V214error_categoryD2Ev(PLT)
	mov	r0, r4
	mov	r1, #4
	bl	_ZdlPvj(PLT)
	mov	r0, r4
	pop	{r4, pc}
.L402:
	.align	2
.L401:
	.word	_GLOBAL_OFFSET_TABLE_-(.LPIC54+8)
	.word	_ZTVN4asio5error6detail17addrinfo_categoryE(GOT)
	.cantunwind
	.fnend
	.size	_ZN4asio5error6detail17addrinfo_categoryD0Ev, .-_ZN4asio5error6detail17addrinfo_categoryD0Ev
	.section	.text._ZN4asio5error6detail13misc_categoryD2Ev,"axG",%progbits,_ZN4asio5error6detail13misc_categoryD5Ev,comdat
	.align	2
	.weak	_ZN4asio5error6detail13misc_categoryD2Ev
	.syntax unified
	.arm
	.fpu vfp
	.type	_ZN4asio5error6detail13misc_categoryD2Ev, %function
_ZN4asio5error6detail13misc_categoryD2Ev:
	.fnstart
.LFB12371:
	@ args = 0, pretend = 0, frame = 0
	@ frame_needed = 0, uses_anonymous_args = 0
	ldr	r3, .L405
	ldr	r2, .L405+4
.LPIC55:
	add	r3, pc, r3
	push	{r4, lr}
	mov	r4, r0
	ldr	r3, [r3, r2]
	add	r3, r3, #8
	str	r3, [r0]
	bl	_ZNSt3_V214error_categoryD2Ev(PLT)
	mov	r0, r4
	pop	{r4, pc}
.L406:
	.align	2
.L405:
	.word	_GLOBAL_OFFSET_TABLE_-(.LPIC55+8)
	.word	_ZTVN4asio5error6detail13misc_categoryE(GOT)
	.cantunwind
	.fnend
	.size	_ZN4asio5error6detail13misc_categoryD2Ev, .-_ZN4asio5error6detail13misc_categoryD2Ev
	.weak	_ZN4asio5error6detail13misc_categoryD1Ev
	.set	_ZN4asio5error6detail13misc_categoryD1Ev,_ZN4asio5error6detail13misc_categoryD2Ev
	.section	.text._ZN4asio5error6detail13misc_categoryD0Ev,"axG",%progbits,_ZN4asio5error6detail13misc_categoryD5Ev,comdat
	.align	2
	.weak	_ZN4asio5error6detail13misc_categoryD0Ev
	.syntax unified
	.arm
	.fpu vfp
	.type	_ZN4asio5error6detail13misc_categoryD0Ev, %function
_ZN4asio5error6detail13misc_categoryD0Ev:
	.fnstart
.LFB12373:
	@ args = 0, pretend = 0, frame = 0
	@ frame_needed = 0, uses_anonymous_args = 0
	ldr	r3, .L409
	ldr	r2, .L409+4
.LPIC56:
	add	r3, pc, r3
	push	{r4, lr}
	mov	r4, r0
	ldr	r3, [r3, r2]
	add	r3, r3, #8
	str	r3, [r0]
	bl	_ZNSt3_V214error_categoryD2Ev(PLT)
	mov	r0, r4
	mov	r1, #4
	bl	_ZdlPvj(PLT)
	mov	r0, r4
	pop	{r4, pc}
.L410:
	.align	2
.L409:
	.word	_GLOBAL_OFFSET_TABLE_-(.LPIC56+8)
	.word	_ZTVN4asio5error6detail13misc_categoryE(GOT)
	.cantunwind
	.fnend
	.size	_ZN4asio5error6detail13misc_categoryD0Ev, .-_ZN4asio5error6detail13misc_categoryD0Ev
	.text
	.align	2
	.syntax unified
	.arm
	.fpu vfp
	.type	_ZN4asio6detail14strand_service7do_postERPNS1_11strand_implEPNS0_25task_io_service_operationEb.isra.58, %function
_ZN4asio6detail14strand_service7do_postERPNS1_11strand_implEPNS0_25task_io_service_operationEb.isra.58:
	.fnstart
.LFB12916:
	@ args = 0, pretend = 0, frame = 16
	@ frame_needed = 0, uses_anonymous_args = 0
	push	{r4, r5, r6, r7, r8, r9, lr}
	mov	r9, r0
	ldr	r0, [r1]
	mov	r5, r1
	sub	sp, sp, #20
	add	r0, r0, #12
	mov	r4, r2
	mov	r8, r3
	bl	pthread_mutex_lock(PLT)
	ldr	r0, [r5]
	ldr	r7, .L450
	ldrb	r6, [r0, #36]	@ zero_extendqisi2
.LPIC57:
	add	r7, pc, r7
	cmp	r6, #0
	beq	.L412
	ldr	r3, [r0, #44]
	mov	r2, #0
	cmp	r3, r2
	str	r2, [r4]
	add	r0, r0, #12
	strne	r4, [r3]
	streq	r4, [r0, #32]
	strne	r4, [r0, #32]
	streq	r4, [r0, #28]
	bl	pthread_mutex_unlock(PLT)
.L411:
	add	sp, sp, #20
	@ sp needed
	pop	{r4, r5, r6, r7, r8, r9, pc}
.L412:
	mov	r3, #1
	strb	r3, [r0, #36]
	add	r0, r0, #12
	bl	pthread_mutex_unlock(PLT)
	ldr	r5, [r5]
	str	r6, [r4]
	ldr	r3, [r5, #52]
	cmp	r3, #0
	strne	r4, [r3]
	streq	r4, [r5, #52]
	strne	r4, [r5, #52]
	streq	r4, [r5, #48]
	ldr	r4, [r9]
	ldrb	r3, [r4, #20]	@ zero_extendqisi2
	orrs	r3, r8, r3
	beq	.L418
	ldr	r3, .L450+4
	ldr	r3, [r7, r3]
	ldr	r0, [r3]
	bl	pthread_getspecific(PLT)
	cmp	r0, #0
	bne	.L444
	b	.L418
.L421:
	ldr	r0, [r0, #8]
	cmp	r0, #0
	beq	.L418
.L444:
	ldr	r3, [r0]
	cmp	r4, r3
	bne	.L421
	ldr	r3, [r0, #4]
	cmp	r3, #0
	beq	.L418
	ldr	r1, [r3, #8]
	ldr	r2, [r3, #12]
	cmp	r1, #0
	add	r2, r2, #1
	mov	r0, #0
	str	r2, [r3, #12]
	str	r0, [r5]
	strne	r5, [r1]
	streq	r5, [r3, #8]
	strne	r5, [r3, #8]
	streq	r5, [r3, #4]
	add	sp, sp, #20
	@ sp needed
	pop	{r4, r5, r6, r7, r8, r9, pc}
.L418:
	add	r3, r4, #124
	mcr	p15, 0, r0, c7, c10, 5
.L446:
	ldrex	r2, [r3]
	add	r2, r2, #1
	strex	r1, r2, [r3]
	cmp	r1, #0
	bne	.L446
	add	r6, r4, #24
	mcr	p15, 0, r0, c7, c10, 5
	mov	r0, r6
	bl	pthread_mutex_lock(PLT)
	ldr	r3, [r4, #132]
	mov	r2, #0
	cmp	r3, r2
	str	r2, [r5]
	strne	r5, [r3]
	ldr	r3, [r4, #96]
	strne	r5, [r4, #132]
	orr	r3, r3, #1
	streq	r5, [r4, #132]
	streq	r5, [r4, #128]
	cmp	r3, #1
	add	r5, r4, #48
	str	r3, [r4, #96]
	beq	.L427
	mov	r0, r6
	bl	pthread_mutex_unlock(PLT)
	mov	r0, r5
	bl	pthread_cond_signal(PLT)
	add	sp, sp, #20
	@ sp needed
	pop	{r4, r5, r6, r7, r8, r9, pc}
.L427:
	ldrb	r1, [r4, #120]	@ zero_extendqisi2
	cmp	r1, #0
	bne	.L429
	ldr	r0, [r4, #104]
	cmp	r0, #0
	beq	.L429
	strb	r3, [r4, #120]
	add	lr, r0, #48
	mov	r4, #-2147483639
	ldr	r2, [r0, #48]
	str	r1, [sp, #4]
	str	r1, [sp, #12]
	mov	r3, sp
	ldr	r0, [r0, #56]
	mov	r1, #3
	str	r4, [sp]
	str	lr, [sp, #8]
	bl	epoll_ctl(PLT)
.L429:
	mov	r0, r6
	bl	pthread_mutex_unlock(PLT)
	b	.L411
.L451:
	.align	2
.L450:
	.word	_GLOBAL_OFFSET_TABLE_-(.LPIC57+8)
	.word	_ZN4asio6detail10call_stackINS0_15task_io_serviceENS0_27task_io_service_thread_infoEE4top_E(GOT)
	.cantunwind
	.fnend
	.size	_ZN4asio6detail14strand_service7do_postERPNS1_11strand_implEPNS0_25task_io_service_operationEb.isra.58, .-_ZN4asio6detail14strand_service7do_postERPNS1_11strand_implEPNS0_25task_io_service_operationEb.isra.58
	.section	.text._ZNSt13__future_base7_ResultIN7openpal10LogFiltersEE10_M_destroyEv,"axG",%progbits,_ZNSt13__future_base7_ResultIN7openpal10LogFiltersEE10_M_destroyEv,comdat
	.align	2
	.weak	_ZNSt13__future_base7_ResultIN7openpal10LogFiltersEE10_M_destroyEv
	.syntax unified
	.arm
	.fpu vfp
	.type	_ZNSt13__future_base7_ResultIN7openpal10LogFiltersEE10_M_destroyEv, %function
_ZNSt13__future_base7_ResultIN7openpal10LogFiltersEE10_M_destroyEv:
	.fnstart
.LFB12504:
	@ args = 0, pretend = 0, frame = 0
	@ frame_needed = 0, uses_anonymous_args = 0
	ldr	r1, .L455
	ldr	ip, [r0]
	ldr	r2, .L455+4
.LPIC58:
	add	r1, pc, r1
	push	{r4, lr}
	ldr	lr, [ip, #8]
	ldr	r2, [r1, r2]
	cmp	lr, r2
	bne	.L453
	ldr	r3, .L455+8
	mov	r4, r0
	ldr	r3, [r1, r3]
	add	r3, r3, #8
	str	r3, [r0]
	bl	_ZNSt13__future_base12_Result_baseD2Ev(PLT)
	mov	r0, r4
	mov	r1, #16
	pop	{r4, lr}
	b	_ZdlPvj(PLT)
.L453:
	mov	r3, lr
	pop	{r4, lr}
	bx	r3
.L456:
	.align	2
.L455:
	.word	_GLOBAL_OFFSET_TABLE_-(.LPIC58+8)
	.word	_ZNSt13__future_base7_ResultIN7openpal10LogFiltersEED0Ev(GOT)
	.word	_ZTVNSt13__future_base7_ResultIN7openpal10LogFiltersEEE(GOT)
	.cantunwind
	.fnend
	.size	_ZNSt13__future_base7_ResultIN7openpal10LogFiltersEE10_M_destroyEv, .-_ZNSt13__future_base7_ResultIN7openpal10LogFiltersEE10_M_destroyEv
	.section	.text._ZNSt13__future_base7_ResultIN8opendnp314LinkStatisticsEE10_M_destroyEv,"axG",%progbits,_ZNSt13__future_base7_ResultIN8opendnp314LinkStatisticsEE10_M_destroyEv,comdat
	.align	2
	.weak	_ZNSt13__future_base7_ResultIN8opendnp314LinkStatisticsEE10_M_destroyEv
	.syntax unified
	.arm
	.fpu vfp
	.type	_ZNSt13__future_base7_ResultIN8opendnp314LinkStatisticsEE10_M_destroyEv, %function
_ZNSt13__future_base7_ResultIN8opendnp314LinkStatisticsEE10_M_destroyEv:
	.fnstart
.LFB12509:
	@ args = 0, pretend = 0, frame = 0
	@ frame_needed = 0, uses_anonymous_args = 0
	ldr	r1, .L460
	ldr	ip, [r0]
	ldr	r2, .L460+4
.LPIC59:
	add	r1, pc, r1
	push	{r4, lr}
	ldr	lr, [ip, #8]
	ldr	r2, [r1, r2]
	cmp	lr, r2
	bne	.L458
	ldr	r3, .L460+8
	mov	r4, r0
	ldr	r3, [r1, r3]
	add	r3, r3, #8
	str	r3, [r0]
	bl	_ZNSt13__future_base12_Result_baseD2Ev(PLT)
	mov	r0, r4
	mov	r1, #64
	pop	{r4, lr}
	b	_ZdlPvj(PLT)
.L458:
	mov	r3, lr
	pop	{r4, lr}
	bx	r3
.L461:
	.align	2
.L460:
	.word	_GLOBAL_OFFSET_TABLE_-(.LPIC59+8)
	.word	_ZNSt13__future_base7_ResultIN8opendnp314LinkStatisticsEED0Ev(GOT)
	.word	_ZTVNSt13__future_base7_ResultIN8opendnp314LinkStatisticsEEE(GOT)
	.cantunwind
	.fnend
	.size	_ZNSt13__future_base7_ResultIN8opendnp314LinkStatisticsEE10_M_destroyEv, .-_ZNSt13__future_base7_ResultIN8opendnp314LinkStatisticsEE10_M_destroyEv
	.section	.text._ZNSt13__future_base7_ResultIbE10_M_destroyEv,"axG",%progbits,_ZNSt13__future_base7_ResultIbE10_M_destroyEv,comdat
	.align	2
	.weak	_ZNSt13__future_base7_ResultIbE10_M_destroyEv
	.syntax unified
	.arm
	.fpu vfp
	.type	_ZNSt13__future_base7_ResultIbE10_M_destroyEv, %function
_ZNSt13__future_base7_ResultIbE10_M_destroyEv:
	.fnstart
.LFB12499:
	@ args = 0, pretend = 0, frame = 0
	@ frame_needed = 0, uses_anonymous_args = 0
	ldr	r1, .L465
	ldr	ip, [r0]
	ldr	r2, .L465+4
.LPIC60:
	add	r1, pc, r1
	push	{r4, lr}
	ldr	lr, [ip, #8]
	ldr	r2, [r1, r2]
	cmp	lr, r2
	bne	.L463
	ldr	r3, .L465+8
	mov	r4, r0
	ldr	r3, [r1, r3]
	add	r3, r3, #8
	str	r3, [r0]
	bl	_ZNSt13__future_base12_Result_baseD2Ev(PLT)
	mov	r0, r4
	mov	r1, #12
	pop	{r4, lr}
	b	_ZdlPvj(PLT)
.L463:
	mov	r3, lr
	pop	{r4, lr}
	bx	r3
.L466:
	.align	2
.L465:
	.word	_GLOBAL_OFFSET_TABLE_-(.LPIC60+8)
	.word	_ZNSt13__future_base7_ResultIbED0Ev(GOT)
	.word	_ZTVNSt13__future_base7_ResultIbEE(GOT)
	.cantunwind
	.fnend
	.size	_ZNSt13__future_base7_ResultIbE10_M_destroyEv, .-_ZNSt13__future_base7_ResultIbE10_M_destroyEv
	.text
	.align	2
	.syntax unified
	.arm
	.fpu vfp
	.type	_ZNSt7__cxx1112basic_stringIcSt11char_traitsIcESaIcEEC2EPKcRKS3_.isra.101, %function
_ZNSt7__cxx1112basic_stringIcSt11char_traitsIcESaIcEEC2EPKcRKS3_.isra.101:
	.fnstart
.LFB12959:
	@ args = 0, pretend = 0, frame = 8
	@ frame_needed = 0, uses_anonymous_args = 0
	push	{r4, r5, r6, r7, lr}
	.save {r4, r5, r6, r7, lr}
	add	r6, r0, #8
	subs	r7, r1, #0
	.pad #12
	sub	sp, sp, #12
	str	r6, [r0]
	beq	.L468
	mov	r5, r0
	mov	r0, r7
	bl	strlen(PLT)
	cmp	r0, #15
	mov	r4, r0
	str	r0, [sp, #4]
	bhi	.L476
	cmp	r0, #1
	beq	.L477
	cmp	r0, #0
	bne	.L478
.L472:
	mov	r3, #0
	str	r4, [r5, #4]
	mov	r0, r5
	strb	r3, [r6, r4]
	add	sp, sp, #12
	@ sp needed
	pop	{r4, r5, r6, r7, pc}
.L476:
	mov	r2, #0
	add	r1, sp, #4
	mov	r0, r5
	bl	_ZNSt7__cxx1112basic_stringIcSt11char_traitsIcESaIcEE9_M_createERjj(PLT)
	ldr	r3, [sp, #4]
	str	r3, [r5, #8]
	str	r0, [r5]
.L470:
	mov	r2, r4
	mov	r1, r7
	bl	memcpy(PLT)
	ldr	r4, [sp, #4]
	ldr	r6, [r5]
	b	.L472
.L477:
	ldrb	r3, [r7]	@ zero_extendqisi2
	strb	r3, [r5, #8]
	b	.L472
.L468:
	ldr	r0, .L479
.LPIC61:
	add	r0, pc, r0
	bl	_ZSt19__throw_logic_errorPKc(PLT)
.L478:
	mov	r0, r6
	b	.L470
.L480:
	.align	2
.L479:
	.word	.LC6-(.LPIC61+8)
	.fnend
	.size	_ZNSt7__cxx1112basic_stringIcSt11char_traitsIcESaIcEEC2EPKcRKS3_.isra.101, .-_ZNSt7__cxx1112basic_stringIcSt11char_traitsIcESaIcEEC2EPKcRKS3_.isra.101
	.section	.text._ZNK4asio6detail15system_category7messageB5cxx11Ei,"axG",%progbits,_ZNK4asio6detail15system_category7messageB5cxx11Ei,comdat
	.align	2
	.weak	_ZNK4asio6detail15system_category7messageB5cxx11Ei
	.syntax unified
	.arm
	.fpu vfp
	.type	_ZNK4asio6detail15system_category7messageB5cxx11Ei, %function
_ZNK4asio6detail15system_category7messageB5cxx11Ei:
	.fnstart
.LFB3337:
	@ args = 0, pretend = 0, frame = 264
	@ frame_needed = 0, uses_anonymous_args = 0
	cmp	r2, #125
	push	{r4, r5, r6, r7, r8, lr}
	.save {r4, r5, r6, r7, r8, lr}
	mov	r4, r0
	.pad #264
	sub	sp, sp, #264
	beq	.L491
	mov	r7, #0
	mov	r5, r2
	mov	r1, r7
	mov	r2, #252
	add	r0, sp, #12
	str	r7, [sp, #8]
	bl	memset(PLT)
	mov	r0, r5
	mov	r2, #256
	add	r1, sp, #8
	bl	strerror_r(PLT)
	add	r6, r4, #8
	str	r6, [r4]
	subs	r8, r0, #0
	beq	.L484
	bl	strlen(PLT)
	cmp	r0, #15
	mov	r5, r0
	str	r0, [sp, #4]
	bhi	.L492
	cmp	r0, #1
	beq	.L493
	cmp	r0, #0
	bne	.L494
.L488:
	mov	r3, #0
	str	r5, [r4, #4]
	mov	r0, r4
	strb	r3, [r6, r5]
	add	sp, sp, #264
	@ sp needed
	pop	{r4, r5, r6, r7, r8, pc}
.L492:
	mov	r2, r7
	add	r1, sp, #4
	mov	r0, r4
	bl	_ZNSt7__cxx1112basic_stringIcSt11char_traitsIcESaIcEE9_M_createERjj(PLT)
	ldr	r3, [sp, #4]
	str	r3, [r4, #8]
	str	r0, [r4]
.L486:
	mov	r2, r5
	mov	r1, r8
	bl	memcpy(PLT)
	ldr	r5, [sp, #4]
	ldr	r6, [r4]
	b	.L488
.L493:
	ldrb	r3, [r8]	@ zero_extendqisi2
	strb	r3, [r4, #8]
	b	.L488
.L491:
	add	r1, sp, #264
	add	r3, r0, #8
	mov	r2, #18
	str	r2, [r1, #-256]!
	str	r3, [r0]
	mov	r2, #0
	bl	_ZNSt7__cxx1112basic_stringIcSt11char_traitsIcESaIcEE9_M_createERjj(PLT)
	ldr	ip, .L495
	ldr	r6, [sp, #8]
.LPIC62:
	add	ip, pc, ip
	str	r6, [r4, #8]
	mov	r5, #0
	str	r0, [r4]
	mov	lr, r0
	ldmia	ip!, {r0, r1, r2, r3}
	ldrh	ip, [ip]	@ unaligned
	str	r0, [lr]	@ unaligned
	str	r1, [lr, #4]	@ unaligned
	strh	ip, [lr, #16]	@ unaligned
	str	r2, [lr, #8]	@ unaligned
	str	r3, [lr, #12]	@ unaligned
	ldr	r3, [sp, #8]
	ldr	r2, [r4]
	str	r3, [r4, #4]
	mov	r0, r4
	strb	r5, [r2, r3]
	add	sp, sp, #264
	@ sp needed
	pop	{r4, r5, r6, r7, r8, pc}
.L484:
	ldr	r0, .L495+4
.LPIC63:
	add	r0, pc, r0
	bl	_ZSt19__throw_logic_errorPKc(PLT)
.L494:
	mov	r0, r6
	b	.L486
.L496:
	.align	2
.L495:
	.word	.LC7-(.LPIC62+8)
	.word	.LC6-(.LPIC63+8)
	.fnend
	.size	_ZNK4asio6detail15system_category7messageB5cxx11Ei, .-_ZNK4asio6detail15system_category7messageB5cxx11Ei
	.text
	.align	2
	.syntax unified
	.arm
	.fpu vfp
	.type	_ZN4asio6detail18completion_handlerIZN8asiodnp311DNP3Channel13SetLogFiltersERKN7openpal10LogFiltersEEUlvE_E11do_completeEPNS0_15task_io_serviceEPNS0_25task_io_service_operationERKSt10error_codej, %function
_ZN4asio6detail18completion_handlerIZN8asiodnp311DNP3Channel13SetLogFiltersERKN7openpal10LogFiltersEEUlvE_E11do_completeEPNS0_15task_io_serviceEPNS0_25task_io_service_operationERKSt10error_codej:
	.fnstart
.LFB11016:
	@ args = 0, pretend = 0, frame = 16
	@ frame_needed = 0, uses_anonymous_args = 0
	push	{r4, r5, r6, r7, r8, lr}
	sub	sp, sp, #16
	ldr	r5, .L525
	ldr	r3, .L525+4
.LPIC64:
	add	r5, pc, r5
	ldr	r2, [r1, #20]
	mov	r7, r0
	str	r2, [sp, #12]
	ldr	r3, [r5, r3]
	mov	r4, r1
	ldr	r8, [r1, #12]
	ldr	r0, [r3]
	ldr	r6, [r1, #16]
	bl	pthread_getspecific(PLT)
	cmp	r0, #0
	beq	.L498
	ldr	r3, [r0, #4]
	cmp	r3, #0
	beq	.L498
	ldr	r2, [r3]
	cmp	r2, #0
	beq	.L523
.L498:
	mov	r0, r4
	bl	_ZdlPv(PLT)
.L499:
	cmp	r7, #0
	beq	.L500
	add	r3, sp, #16
	mov	r1, #1
	mov	r2, #0
	str	r2, [r3, #-16]!
.L519:
	ldrex	r0, [r3]
	strex	ip, r1, [r3]
	cmp	ip, #0
	bne	.L519
	mcr	p15, 0, r0, c7, c10, 5
	ldr	r3, [r8, #20]
	ldr	r1, [sp, #12]
	str	r1, [r3, #24]
	mcr	p15, 0, r0, c7, c10, 5
	str	r2, [sp]
.L500:
	cmp	r6, #0
	beq	.L497
	ldr	r3, .L525+8
	ldr	r3, [r5, r3]
	cmp	r3, #0
	beq	.L503
	add	r3, r6, #28
	mcr	p15, 0, r0, c7, c10, 5
.L518:
	ldrex	r2, [r3]
	sub	r1, r2, #1
	strex	r0, r1, [r3]
	cmp	r0, #0
	bne	.L518
	cmp	r2, #1
	mcr	p15, 0, r0, c7, c10, 5
	beq	.L524
.L497:
	add	sp, sp, #16
	@ sp needed
	pop	{r4, r5, r6, r7, r8, pc}
.L503:
	ldr	r3, [r6, #28]
	cmp	r3, #1
	sub	r3, r3, #1
	str	r3, [r6, #28]
	bne	.L497
	ldr	r3, [r6]
	mov	r0, r6
	ldr	r3, [r3, #8]
	blx	r3
	mcr	p15, 0, r0, c7, c10, 5
	ldr	r2, [r6, #32]
	sub	r3, r2, #1
	str	r3, [r6, #32]
	b	.L507
.L524:
	ldr	r3, [r6]
	mov	r0, r6
	ldr	r3, [r3, #8]
	blx	r3
	add	r3, r6, #32
	mcr	p15, 0, r0, c7, c10, 5
	mcr	p15, 0, r0, c7, c10, 5
.L517:
	ldrex	r2, [r3]
	sub	r1, r2, #1
	strex	r0, r1, [r3]
	cmp	r0, #0
	bne	.L517
	mcr	p15, 0, r0, c7, c10, 5
.L507:
	cmp	r2, #1
	bne	.L497
	ldr	r3, [r6]
	mov	r0, r6
	ldr	r3, [r3, #12]
	blx	r3
	b	.L497
.L523:
	ldrb	r2, [r4, #24]	@ zero_extendqisi2
	strb	r2, [r4]
	str	r4, [r3]
	b	.L499
.L526:
	.align	2
.L525:
	.word	_GLOBAL_OFFSET_TABLE_-(.LPIC64+8)
	.word	_ZN4asio6detail10call_stackINS0_15task_io_serviceENS0_27task_io_service_thread_infoEE4top_E(GOT)
	.word	_ZL28__gthrw___pthread_key_createPjPFvPvE(GOT)
	.cantunwind
	.fnend
	.size	_ZN4asio6detail18completion_handlerIZN8asiodnp311DNP3Channel13SetLogFiltersERKN7openpal10LogFiltersEEUlvE_E11do_completeEPNS0_15task_io_serviceEPNS0_25task_io_service_operationERKSt10error_codej, .-_ZN4asio6detail18completion_handlerIZN8asiodnp311DNP3Channel13SetLogFiltersERKN7openpal10LogFiltersEEUlvE_E11do_completeEPNS0_15task_io_serviceEPNS0_25task_io_service_operationERKSt10error_codej
	.section	.text._ZNSt23_Sp_counted_ptr_inplaceIN8asiodnp315OutstationStackESaIS1_ELN9__gnu_cxx12_Lock_policyE1EE10_M_disposeEv,"axG",%progbits,_ZNSt23_Sp_counted_ptr_inplaceIN8asiodnp315OutstationStackESaIS1_ELN9__gnu_cxx12_Lock_policyE1EE10_M_disposeEv,comdat
	.align	2
	.weak	_ZNSt23_Sp_counted_ptr_inplaceIN8asiodnp315OutstationStackESaIS1_ELN9__gnu_cxx12_Lock_policyE1EE10_M_disposeEv
	.syntax unified
	.arm
	.fpu vfp
	.type	_ZNSt23_Sp_counted_ptr_inplaceIN8asiodnp315OutstationStackESaIS1_ELN9__gnu_cxx12_Lock_policyE1EE10_M_disposeEv, %function
_ZNSt23_Sp_counted_ptr_inplaceIN8asiodnp315OutstationStackESaIS1_ELN9__gnu_cxx12_Lock_policyE1EE10_M_disposeEv:
	.fnstart
.LFB12426:
	@ args = 0, pretend = 0, frame = 0
	@ frame_needed = 0, uses_anonymous_args = 0
	push	{r4, r5, r6, lr}
	mov	r4, r0
	ldr	r5, .L740
	ldr	r3, .L740+4
.LPIC65:
	add	r5, pc, r5
	ldr	r1, .L740+8
	ldr	r3, [r5, r3]
	ldr	r2, .L740+12
	add	r0, r3, #72
	add	ip, r3, #8
	add	r3, r3, #104
	str	r0, [r4, #44]
	str	ip, [r4, #40]
	str	r3, [r4, #48]
	ldr	r3, [r5, r1]
	ldr	r0, [r4, #748]
	add	r3, r3, #8
	str	r3, [r4, #120]
	ldr	r6, [r5, r2]
	cmp	r0, #0
	add	r3, r6, #8
	str	r3, [r4, #740]
	beq	.L528
	bl	_ZdaPv(PLT)
.L528:
	ldr	r0, [r4, #716]
	add	r3, r6, #8
	cmp	r0, #0
	str	r3, [r4, #708]
	beq	.L529
	bl	_ZdaPv(PLT)
.L529:
	ldr	r0, [r4, #660]
	add	r6, r6, #8
	cmp	r0, #0
	str	r6, [r4, #652]
	beq	.L530
	bl	_ZdaPv(PLT)
.L530:
	add	r0, r4, #612
	bl	_ZN7openpal8TimerRefD1Ev(PLT)
	ldr	r1, .L740+16
	ldr	r3, .L740+20
	ldr	r2, .L740+24
	ldr	r1, [r5, r1]
	ldr	r0, [r4, #496]
	add	r1, r1, #8
	str	r1, [r4, #380]
	ldr	r3, [r5, r3]
	cmp	r0, #0
	add	ip, r3, #8
	add	r1, r3, #44
	add	r3, r3, #60
	str	ip, [r4, #392]
	str	r1, [r4, #396]
	str	r3, [r4, #400]
	ldr	r3, [r5, r2]
	add	r3, r3, #8
	str	r3, [r4, #488]
	beq	.L531
	bl	_ZdaPv(PLT)
.L531:
	ldr	r3, .L740+28
	ldr	r0, [r4, #484]
	ldr	r3, [r5, r3]
	cmp	r0, #0
	add	r3, r3, #8
	str	r3, [r4, #476]
	beq	.L532
	bl	_ZdaPv(PLT)
.L532:
	ldr	r3, .L740+32
	ldr	r0, [r4, #472]
	ldr	r3, [r5, r3]
	cmp	r0, #0
	add	r3, r3, #8
	str	r3, [r4, #464]
	beq	.L533
	bl	_ZdaPv(PLT)
.L533:
	ldr	r3, .L740+36
	ldr	r0, [r4, #460]
	ldr	r3, [r5, r3]
	cmp	r0, #0
	add	r3, r3, #8
	str	r3, [r4, #452]
	beq	.L534
	bl	_ZdaPv(PLT)
.L534:
	ldr	r3, .L740+40
	ldr	r0, [r4, #448]
	ldr	r3, [r5, r3]
	cmp	r0, #0
	add	r3, r3, #8
	str	r3, [r4, #440]
	beq	.L535
	bl	_ZdaPv(PLT)
.L535:
	ldr	r3, .L740+44
	ldr	r0, [r4, #436]
	ldr	r3, [r5, r3]
	cmp	r0, #0
	add	r3, r3, #8
	str	r3, [r4, #428]
	beq	.L536
	bl	_ZdaPv(PLT)
.L536:
	ldr	r3, .L740+48
	ldr	r0, [r4, #424]
	ldr	r3, [r5, r3]
	cmp	r0, #0
	add	r3, r3, #8
	str	r3, [r4, #416]
	beq	.L537
	bl	_ZdaPv(PLT)
.L537:
	ldr	r3, .L740+52
	ldr	r0, [r4, #412]
	ldr	r3, [r5, r3]
	cmp	r0, #0
	add	r3, r3, #8
	str	r3, [r4, #404]
	beq	.L538
	bl	_ZdaPv(PLT)
.L538:
	ldr	r3, .L740+56
	ldr	r2, .L740+60
	ldr	r0, [r4, #232]
	ldr	r3, [r5, r3]
	cmp	r0, #0
	add	lr, r3, #8
	add	ip, r3, #80
	add	r1, r3, #96
	add	r3, r3, #112
	str	lr, [r4, #172]
	str	ip, [r4, #176]
	str	r1, [r4, #180]
	str	r3, [r4, #184]
	ldr	r3, [r5, r2]
	add	r3, r3, #8
	str	r3, [r4, #224]
	beq	.L539
	bl	_ZdaPv(PLT)
.L539:
	ldr	r6, [r4, #168]
	cmp	r6, #0
	beq	.L541
	ldr	r3, .L740+64
	ldr	r3, [r5, r3]
	cmp	r3, #0
	beq	.L542
	add	r3, r6, #28
	mcr	p15, 0, r0, c7, c10, 5
.L698:
	ldrex	r2, [r3]
	sub	r1, r2, #1
	strex	r0, r1, [r3]
	cmp	r0, #0
	bne	.L698
	cmp	r2, #1
	mcr	p15, 0, r0, c7, c10, 5
	beq	.L726
.L541:
	ldr	r6, [r4, #160]
	cmp	r6, #0
	beq	.L547
	ldr	r3, .L740+64
	ldr	r3, [r5, r3]
	cmp	r3, #0
	beq	.L548
	add	r3, r6, #28
	mcr	p15, 0, r0, c7, c10, 5
.L697:
	ldrex	r2, [r3]
	sub	r1, r2, #1
	strex	r0, r1, [r3]
	cmp	r0, #0
	bne	.L697
	cmp	r2, #1
	mcr	p15, 0, r0, c7, c10, 5
	beq	.L727
.L547:
	ldr	r6, [r4, #152]
	cmp	r6, #0
	beq	.L553
	ldr	r3, .L740+64
	ldr	r3, [r5, r3]
	cmp	r3, #0
	beq	.L554
	add	r3, r6, #28
	mcr	p15, 0, r0, c7, c10, 5
.L696:
	ldrex	r2, [r3]
	sub	r1, r2, #1
	strex	r0, r1, [r3]
	cmp	r0, #0
	bne	.L696
	cmp	r2, #1
	mcr	p15, 0, r0, c7, c10, 5
	beq	.L728
.L553:
	ldr	r6, [r4, #144]
	cmp	r6, #0
	beq	.L559
	ldr	r3, .L740+64
	ldr	r3, [r5, r3]
	cmp	r3, #0
	beq	.L560
	add	r3, r6, #28
	mcr	p15, 0, r0, c7, c10, 5
.L695:
	ldrex	r2, [r3]
	sub	r1, r2, #1
	strex	r0, r1, [r3]
	cmp	r0, #0
	bne	.L695
	cmp	r2, #1
	mcr	p15, 0, r0, c7, c10, 5
	beq	.L729
.L559:
	ldr	r6, [r4, #136]
	cmp	r6, #0
	beq	.L565
	ldr	r3, .L740+64
	ldr	r3, [r5, r3]
	cmp	r3, #0
	beq	.L566
	add	r3, r6, #28
	mcr	p15, 0, r0, c7, c10, 5
.L694:
	ldrex	r2, [r3]
	sub	r1, r2, #1
	strex	r0, r1, [r3]
	cmp	r0, #0
	bne	.L694
	cmp	r2, #1
	mcr	p15, 0, r0, c7, c10, 5
	beq	.L730
.L565:
	ldr	r6, [r4, #128]
	cmp	r6, #0
	beq	.L571
	ldr	r3, .L740+64
	ldr	r3, [r5, r3]
	cmp	r3, #0
	beq	.L572
	add	r3, r6, #28
	mcr	p15, 0, r0, c7, c10, 5
.L693:
	ldrex	r2, [r3]
	sub	r1, r2, #1
	strex	r0, r1, [r3]
	cmp	r0, #0
	bne	.L693
	cmp	r2, #1
	mcr	p15, 0, r0, c7, c10, 5
	beq	.L731
.L571:
	ldr	r6, [r4, #112]
	cmp	r6, #0
	beq	.L577
	ldr	r3, .L740+64
	ldr	r3, [r5, r3]
	cmp	r3, #0
	beq	.L578
	add	r3, r6, #28
	mcr	p15, 0, r0, c7, c10, 5
.L692:
	ldrex	r2, [r3]
	sub	r1, r2, #1
	strex	r0, r1, [r3]
	cmp	r0, #0
	bne	.L692
	cmp	r2, #1
	mcr	p15, 0, r0, c7, c10, 5
	beq	.L732
.L577:
	ldr	r6, [r4, #104]
	cmp	r6, #0
	beq	.L583
	ldr	r3, .L740+64
	ldr	r3, [r5, r3]
	cmp	r3, #0
	beq	.L584
	add	r3, r6, #28
	mcr	p15, 0, r0, c7, c10, 5
.L691:
	ldrex	r2, [r3]
	sub	r1, r2, #1
	strex	r0, r1, [r3]
	cmp	r0, #0
	bne	.L691
	cmp	r2, #1
	mcr	p15, 0, r0, c7, c10, 5
	beq	.L733
.L583:
	ldr	r6, [r4, #96]
	cmp	r6, #0
	beq	.L589
	ldr	r3, .L740+64
	ldr	r3, [r5, r3]
	cmp	r3, #0
	beq	.L590
	add	r3, r6, #28
	mcr	p15, 0, r0, c7, c10, 5
.L690:
	ldrex	r2, [r3]
	sub	r1, r2, #1
	strex	r0, r1, [r3]
	cmp	r0, #0
	bne	.L690
	cmp	r2, #1
	mcr	p15, 0, r0, c7, c10, 5
	beq	.L734
.L589:
	ldr	r6, [r4, #88]
	cmp	r6, #0
	beq	.L595
	ldr	r3, .L740+64
	ldr	r3, [r5, r3]
	cmp	r3, #0
	beq	.L596
	add	r3, r6, #28
	mcr	p15, 0, r0, c7, c10, 5
.L689:
	ldrex	r2, [r3]
	sub	r1, r2, #1
	strex	r0, r1, [r3]
	cmp	r0, #0
	bne	.L689
	cmp	r2, #1
	mcr	p15, 0, r0, c7, c10, 5
	beq	.L735
.L595:
	ldr	r6, [r4, #80]
	cmp	r6, #0
	beq	.L601
	ldr	r3, .L740+64
	ldr	r3, [r5, r3]
	cmp	r3, #0
	beq	.L602
	add	r3, r6, #28
	mcr	p15, 0, r0, c7, c10, 5
.L688:
	ldrex	r2, [r3]
	sub	r1, r2, #1
	strex	r0, r1, [r3]
	cmp	r0, #0
	bne	.L688
	cmp	r2, #1
	mcr	p15, 0, r0, c7, c10, 5
	beq	.L736
.L601:
	ldr	r6, [r4, #72]
	cmp	r6, #0
	beq	.L607
	ldr	r3, .L740+64
	ldr	r3, [r5, r3]
	cmp	r3, #0
	beq	.L608
	add	r3, r6, #28
	mcr	p15, 0, r0, c7, c10, 5
.L687:
	ldrex	r2, [r3]
	sub	r1, r2, #1
	strex	r0, r1, [r3]
	cmp	r0, #0
	bne	.L687
	cmp	r2, #1
	mcr	p15, 0, r0, c7, c10, 5
	beq	.L737
.L607:
	ldr	r6, [r4, #64]
	cmp	r6, #0
	beq	.L613
	ldr	r3, .L740+64
	ldr	r3, [r5, r3]
	cmp	r3, #0
	beq	.L614
	add	r3, r6, #28
	mcr	p15, 0, r0, c7, c10, 5
.L686:
	ldrex	r2, [r3]
	sub	r1, r2, #1
	strex	r0, r1, [r3]
	cmp	r0, #0
	bne	.L686
	cmp	r2, #1
	mcr	p15, 0, r0, c7, c10, 5
	beq	.L738
.L613:
	ldr	r0, [r4, #56]
	cmp	r0, #0
	popeq	{r4, r5, r6, pc}
	ldr	r3, .L740+64
	ldr	r3, [r5, r3]
	cmp	r3, #0
	beq	.L620
	add	r3, r0, #32
	mcr	p15, 0, r0, c7, c10, 5
.L685:
	ldrex	r2, [r3]
	sub	r1, r2, #1
	strex	ip, r1, [r3]
	cmp	ip, #0
	bne	.L685
	cmp	r2, #1
	mcr	p15, 0, r0, c7, c10, 5
	popne	{r4, r5, r6, pc}
.L739:
	mcr	p15, 0, r0, c7, c10, 5
	ldr	r3, [r0]
	pop	{r4, r5, r6, lr}
	ldr	r3, [r3, #12]
	bx	r3	@ indirect register sibling call
.L548:
	ldr	r3, [r6, #28]
	cmp	r3, #1
	sub	r3, r3, #1
	str	r3, [r6, #28]
	bne	.L547
	ldr	r3, [r6]
	mov	r0, r6
	ldr	r3, [r3, #8]
	blx	r3
	mcr	p15, 0, r0, c7, c10, 5
	ldr	r2, [r6, #32]
	sub	r3, r2, #1
	str	r3, [r6, #32]
	b	.L624
.L554:
	ldr	r3, [r6, #28]
	cmp	r3, #1
	sub	r3, r3, #1
	str	r3, [r6, #28]
	bne	.L553
	ldr	r3, [r6]
	mov	r0, r6
	ldr	r3, [r3, #8]
	blx	r3
	mcr	p15, 0, r0, c7, c10, 5
	ldr	r2, [r6, #32]
	sub	r3, r2, #1
	str	r3, [r6, #32]
	b	.L625
.L542:
	ldr	r3, [r6, #28]
	cmp	r3, #1
	sub	r3, r3, #1
	str	r3, [r6, #28]
	bne	.L541
	ldr	r3, [r6]
	mov	r0, r6
	ldr	r3, [r3, #8]
	blx	r3
	mcr	p15, 0, r0, c7, c10, 5
	ldr	r2, [r6, #32]
	sub	r3, r2, #1
	str	r3, [r6, #32]
	b	.L623
.L566:
	ldr	r3, [r6, #28]
	cmp	r3, #1
	sub	r3, r3, #1
	str	r3, [r6, #28]
	bne	.L565
	ldr	r3, [r6]
	mov	r0, r6
	ldr	r3, [r3, #8]
	blx	r3
	mcr	p15, 0, r0, c7, c10, 5
	ldr	r2, [r6, #32]
	sub	r3, r2, #1
	str	r3, [r6, #32]
	b	.L627
.L608:
	ldr	r3, [r6, #28]
	cmp	r3, #1
	sub	r3, r3, #1
	str	r3, [r6, #28]
	bne	.L607
	ldr	r3, [r6]
	mov	r0, r6
	ldr	r3, [r3, #8]
	blx	r3
	mcr	p15, 0, r0, c7, c10, 5
	ldr	r2, [r6, #32]
	sub	r3, r2, #1
	str	r3, [r6, #32]
	b	.L634
.L578:
	ldr	r3, [r6, #28]
	cmp	r3, #1
	sub	r3, r3, #1
	str	r3, [r6, #28]
	bne	.L577
	ldr	r3, [r6]
	mov	r0, r6
	ldr	r3, [r3, #8]
	blx	r3
	mcr	p15, 0, r0, c7, c10, 5
	ldr	r2, [r6, #32]
	sub	r3, r2, #1
	str	r3, [r6, #32]
	b	.L629
.L596:
	ldr	r3, [r6, #28]
	cmp	r3, #1
	sub	r3, r3, #1
	str	r3, [r6, #28]
	bne	.L595
	ldr	r3, [r6]
	mov	r0, r6
	ldr	r3, [r3, #8]
	blx	r3
	mcr	p15, 0, r0, c7, c10, 5
	ldr	r2, [r6, #32]
	sub	r3, r2, #1
	str	r3, [r6, #32]
	b	.L632
.L590:
	ldr	r3, [r6, #28]
	cmp	r3, #1
	sub	r3, r3, #1
	str	r3, [r6, #28]
	bne	.L589
	ldr	r3, [r6]
	mov	r0, r6
	ldr	r3, [r3, #8]
	blx	r3
	mcr	p15, 0, r0, c7, c10, 5
	ldr	r2, [r6, #32]
	sub	r3, r2, #1
	str	r3, [r6, #32]
	b	.L631
.L614:
	ldr	r3, [r6, #28]
	cmp	r3, #1
	sub	r3, r3, #1
	str	r3, [r6, #28]
	bne	.L613
	ldr	r3, [r6]
	mov	r0, r6
	ldr	r3, [r3, #8]
	blx	r3
	mcr	p15, 0, r0, c7, c10, 5
	ldr	r2, [r6, #32]
	sub	r3, r2, #1
	str	r3, [r6, #32]
	b	.L635
.L584:
	ldr	r3, [r6, #28]
	cmp	r3, #1
	sub	r3, r3, #1
	str	r3, [r6, #28]
	bne	.L583
	ldr	r3, [r6]
	mov	r0, r6
	ldr	r3, [r3, #8]
	blx	r3
	mcr	p15, 0, r0, c7, c10, 5
	ldr	r2, [r6, #32]
	sub	r3, r2, #1
	str	r3, [r6, #32]
	b	.L630
.L602:
	ldr	r3, [r6, #28]
	cmp	r3, #1
	sub	r3, r3, #1
	str	r3, [r6, #28]
	bne	.L601
	ldr	r3, [r6]
	mov	r0, r6
	ldr	r3, [r3, #8]
	blx	r3
	mcr	p15, 0, r0, c7, c10, 5
	ldr	r2, [r6, #32]
	sub	r3, r2, #1
	str	r3, [r6, #32]
	b	.L633
.L620:
	ldr	r2, [r0, #32]
	cmp	r2, #1
	sub	r3, r2, #1
	str	r3, [r0, #32]
	popne	{r4, r5, r6, pc}
	b	.L739
.L572:
	ldr	r3, [r6, #28]
	cmp	r3, #1
	sub	r3, r3, #1
	str	r3, [r6, #28]
	bne	.L571
	ldr	r3, [r6]
	mov	r0, r6
	ldr	r3, [r3, #8]
	blx	r3
	mcr	p15, 0, r0, c7, c10, 5
	ldr	r2, [r6, #32]
	sub	r3, r2, #1
	str	r3, [r6, #32]
	b	.L628
.L560:
	ldr	r3, [r6, #28]
	cmp	r3, #1
	sub	r3, r3, #1
	str	r3, [r6, #28]
	bne	.L559
	ldr	r3, [r6]
	mov	r0, r6
	ldr	r3, [r3, #8]
	blx	r3
	mcr	p15, 0, r0, c7, c10, 5
	ldr	r2, [r6, #32]
	sub	r3, r2, #1
	str	r3, [r6, #32]
	b	.L626
.L731:
	ldr	r3, [r6]
	mov	r0, r6
	ldr	r3, [r3, #8]
	blx	r3
	add	r3, r6, #32
	mcr	p15, 0, r0, c7, c10, 5
	mcr	p15, 0, r0, c7, c10, 5
.L679:
	ldrex	r2, [r3]
	sub	r1, r2, #1
	strex	r0, r1, [r3]
	cmp	r0, #0
	bne	.L679
	mcr	p15, 0, r0, c7, c10, 5
.L628:
	cmp	r2, #1
	bne	.L571
	ldr	r3, [r6]
	mov	r0, r6
	ldr	r3, [r3, #12]
	blx	r3
	b	.L571
.L733:
	ldr	r3, [r6]
	mov	r0, r6
	ldr	r3, [r3, #8]
	blx	r3
	add	r3, r6, #32
	mcr	p15, 0, r0, c7, c10, 5
	mcr	p15, 0, r0, c7, c10, 5
.L677:
	ldrex	r2, [r3]
	sub	r1, r2, #1
	strex	r0, r1, [r3]
	cmp	r0, #0
	bne	.L677
	mcr	p15, 0, r0, c7, c10, 5
.L630:
	cmp	r2, #1
	bne	.L583
	ldr	r3, [r6]
	mov	r0, r6
	ldr	r3, [r3, #12]
	blx	r3
	b	.L583
.L738:
	ldr	r3, [r6]
	mov	r0, r6
	ldr	r3, [r3, #8]
	blx	r3
	add	r3, r6, #32
	mcr	p15, 0, r0, c7, c10, 5
	mcr	p15, 0, r0, c7, c10, 5
.L672:
	ldrex	r2, [r3]
	sub	r1, r2, #1
	strex	r0, r1, [r3]
	cmp	r0, #0
	bne	.L672
	mcr	p15, 0, r0, c7, c10, 5
.L635:
	cmp	r2, #1
	bne	.L613
	ldr	r3, [r6]
	mov	r0, r6
	ldr	r3, [r3, #12]
	blx	r3
	b	.L613
.L736:
	ldr	r3, [r6]
	mov	r0, r6
	ldr	r3, [r3, #8]
	blx	r3
	add	r3, r6, #32
	mcr	p15, 0, r0, c7, c10, 5
	mcr	p15, 0, r0, c7, c10, 5
.L674:
	ldrex	r2, [r3]
	sub	r1, r2, #1
	strex	r0, r1, [r3]
	cmp	r0, #0
	bne	.L674
	mcr	p15, 0, r0, c7, c10, 5
.L633:
	cmp	r2, #1
	bne	.L601
	ldr	r3, [r6]
	mov	r0, r6
	ldr	r3, [r3, #12]
	blx	r3
	b	.L601
.L729:
	ldr	r3, [r6]
	mov	r0, r6
	ldr	r3, [r3, #8]
	blx	r3
	add	r3, r6, #32
	mcr	p15, 0, r0, c7, c10, 5
	mcr	p15, 0, r0, c7, c10, 5
.L681:
	ldrex	r2, [r3]
	sub	r1, r2, #1
	strex	r0, r1, [r3]
	cmp	r0, #0
	bne	.L681
	mcr	p15, 0, r0, c7, c10, 5
.L626:
	cmp	r2, #1
	bne	.L559
	ldr	r3, [r6]
	mov	r0, r6
	ldr	r3, [r3, #12]
	blx	r3
	b	.L559
.L726:
	ldr	r3, [r6]
	mov	r0, r6
	ldr	r3, [r3, #8]
	blx	r3
	add	r3, r6, #32
	mcr	p15, 0, r0, c7, c10, 5
	mcr	p15, 0, r0, c7, c10, 5
.L684:
	ldrex	r2, [r3]
	sub	r1, r2, #1
	strex	r0, r1, [r3]
	cmp	r0, #0
	bne	.L684
	mcr	p15, 0, r0, c7, c10, 5
.L623:
	cmp	r2, #1
	bne	.L541
	ldr	r3, [r6]
	mov	r0, r6
	ldr	r3, [r3, #12]
	blx	r3
	b	.L541
.L727:
	ldr	r3, [r6]
	mov	r0, r6
	ldr	r3, [r3, #8]
	blx	r3
	add	r3, r6, #32
	mcr	p15, 0, r0, c7, c10, 5
	mcr	p15, 0, r0, c7, c10, 5
.L683:
	ldrex	r2, [r3]
	sub	r1, r2, #1
	strex	r0, r1, [r3]
	cmp	r0, #0
	bne	.L683
	mcr	p15, 0, r0, c7, c10, 5
.L624:
	cmp	r2, #1
	bne	.L547
	ldr	r3, [r6]
	mov	r0, r6
	ldr	r3, [r3, #12]
	blx	r3
	b	.L547
.L728:
	ldr	r3, [r6]
	mov	r0, r6
	ldr	r3, [r3, #8]
	blx	r3
	add	r3, r6, #32
	mcr	p15, 0, r0, c7, c10, 5
	mcr	p15, 0, r0, c7, c10, 5
.L682:
	ldrex	r2, [r3]
	sub	r1, r2, #1
	strex	r0, r1, [r3]
	cmp	r0, #0
	bne	.L682
	mcr	p15, 0, r0, c7, c10, 5
.L625:
	cmp	r2, #1
	bne	.L553
	ldr	r3, [r6]
	mov	r0, r6
	ldr	r3, [r3, #12]
	blx	r3
	b	.L553
.L730:
	ldr	r3, [r6]
	mov	r0, r6
	ldr	r3, [r3, #8]
	blx	r3
	add	r3, r6, #32
	mcr	p15, 0, r0, c7, c10, 5
	mcr	p15, 0, r0, c7, c10, 5
.L680:
	ldrex	r2, [r3]
	sub	r1, r2, #1
	strex	r0, r1, [r3]
	cmp	r0, #0
	bne	.L680
	mcr	p15, 0, r0, c7, c10, 5
.L627:
	cmp	r2, #1
	bne	.L565
	ldr	r3, [r6]
	mov	r0, r6
	ldr	r3, [r3, #12]
	blx	r3
	b	.L565
.L732:
	ldr	r3, [r6]
	mov	r0, r6
	ldr	r3, [r3, #8]
	blx	r3
	add	r3, r6, #32
	mcr	p15, 0, r0, c7, c10, 5
	mcr	p15, 0, r0, c7, c10, 5
.L678:
	ldrex	r2, [r3]
	sub	r1, r2, #1
	strex	r0, r1, [r3]
	cmp	r0, #0
	bne	.L678
	mcr	p15, 0, r0, c7, c10, 5
.L629:
	cmp	r2, #1
	bne	.L577
	ldr	r3, [r6]
	mov	r0, r6
	ldr	r3, [r3, #12]
	blx	r3
	b	.L577
.L734:
	ldr	r3, [r6]
	mov	r0, r6
	ldr	r3, [r3, #8]
	blx	r3
	add	r3, r6, #32
	mcr	p15, 0, r0, c7, c10, 5
	mcr	p15, 0, r0, c7, c10, 5
.L676:
	ldrex	r2, [r3]
	sub	r1, r2, #1
	strex	r0, r1, [r3]
	cmp	r0, #0
	bne	.L676
	mcr	p15, 0, r0, c7, c10, 5
.L631:
	cmp	r2, #1
	bne	.L589
	ldr	r3, [r6]
	mov	r0, r6
	ldr	r3, [r3, #12]
	blx	r3
	b	.L589
.L735:
	ldr	r3, [r6]
	mov	r0, r6
	ldr	r3, [r3, #8]
	blx	r3
	add	r3, r6, #32
	mcr	p15, 0, r0, c7, c10, 5
	mcr	p15, 0, r0, c7, c10, 5
.L675:
	ldrex	r2, [r3]
	sub	r1, r2, #1
	strex	r0, r1, [r3]
	cmp	r0, #0
	bne	.L675
	mcr	p15, 0, r0, c7, c10, 5
.L632:
	cmp	r2, #1
	bne	.L595
	ldr	r3, [r6]
	mov	r0, r6
	ldr	r3, [r3, #12]
	blx	r3
	b	.L595
.L737:
	ldr	r3, [r6]
	mov	r0, r6
	ldr	r3, [r3, #8]
	blx	r3
	add	r3, r6, #32
	mcr	p15, 0, r0, c7, c10, 5
	mcr	p15, 0, r0, c7, c10, 5
.L673:
	ldrex	r2, [r3]
	sub	r1, r2, #1
	strex	r0, r1, [r3]
	cmp	r0, #0
	bne	.L673
	mcr	p15, 0, r0, c7, c10, 5
.L634:
	cmp	r2, #1
	bne	.L607
	ldr	r3, [r6]
	mov	r0, r6
	ldr	r3, [r3, #12]
	blx	r3
	b	.L607
.L741:
	.align	2
.L740:
	.word	_GLOBAL_OFFSET_TABLE_-(.LPIC65+8)
	.word	_ZTVN8asiodnp315OutstationStackE(GOT)
	.word	_ZTVN8opendnp38OContextE(GOT)
	.word	_ZTVN7openpal5ArrayIhjEE(GOT)
	.word	_ZTVN8opendnp38DatabaseE(GOT)
	.word	_ZTVN8opendnp315DatabaseBuffersE(GOT)
	.word	_ZTVN7openpal5ArrayIN8opendnp34CellINS1_19TimeAndIntervalSpecEEEtEE(GOT)
	.word	_ZTVN7openpal5ArrayIN8opendnp34CellINS1_22AnalogOutputStatusSpecEEEtEE(GOT)
	.word	_ZTVN7openpal5ArrayIN8opendnp34CellINS1_22BinaryOutputStatusSpecEEEtEE(GOT)
	.word	_ZTVN7openpal5ArrayIN8opendnp34CellINS1_17FrozenCounterSpecEEEtEE(GOT)
	.word	_ZTVN7openpal5ArrayIN8opendnp34CellINS1_11CounterSpecEEEtEE(GOT)
	.word	_ZTVN7openpal5ArrayIN8opendnp34CellINS1_10AnalogSpecEEEtEE(GOT)
	.word	_ZTVN7openpal5ArrayIN8opendnp34CellINS1_19DoubleBitBinarySpecEEEtEE(GOT)
	.word	_ZTVN7openpal5ArrayIN8opendnp34CellINS1_10BinarySpecEEEtEE(GOT)
	.word	_ZTVN8opendnp311EventBufferE(GOT)
	.word	_ZTVN7openpal5ArrayINS_8ListNodeIN8opendnp39SOERecordEEEjEE(GOT)
	.word	_ZL28__gthrw___pthread_key_createPjPFvPvE(GOT)
	.cantunwind
	.fnend
	.size	_ZNSt23_Sp_counted_ptr_inplaceIN8asiodnp315OutstationStackESaIS1_ELN9__gnu_cxx12_Lock_policyE1EE10_M_disposeEv, .-_ZNSt23_Sp_counted_ptr_inplaceIN8asiodnp315OutstationStackESaIS1_ELN9__gnu_cxx12_Lock_policyE1EE10_M_disposeEv
	.section	.text._ZNK4asio5error6detail17addrinfo_category7messageB5cxx11Ei,"axG",%progbits,_ZNK4asio5error6detail17addrinfo_category7messageB5cxx11Ei,comdat
	.align	2
	.weak	_ZNK4asio5error6detail17addrinfo_category7messageB5cxx11Ei
	.syntax unified
	.arm
	.fpu vfp
	.type	_ZNK4asio5error6detail17addrinfo_category7messageB5cxx11Ei, %function
_ZNK4asio5error6detail17addrinfo_category7messageB5cxx11Ei:
	.fnstart
.LFB3364:
	@ args = 0, pretend = 0, frame = 8
	@ frame_needed = 0, uses_anonymous_args = 0
	push	{r4, r5, r6, lr}
	.save {r4, r5, r6, lr}
	cmn	r2, #8
	.pad #8
	sub	sp, sp, #8
	add	r1, sp, #8
	mov	r4, r0
	beq	.L747
	cmn	r2, #7
	beq	.L748
	add	r3, r0, #8
	mov	r2, #19
	str	r2, [r1, #-4]!
	str	r3, [r0]
	mov	r2, #0
	bl	_ZNSt7__cxx1112basic_stringIcSt11char_traitsIcESaIcEE9_M_createERjj(PLT)
	ldr	ip, .L749
	ldr	r6, [sp, #4]
.LPIC68:
	add	ip, pc, ip
	str	r6, [r4, #8]
	mov	r5, #0
	str	r0, [r4]
	mov	lr, r0
	ldmia	ip!, {r0, r1, r2, r3}
	ldrh	r6, [ip]	@ unaligned
	ldrb	ip, [ip, #2]	@ zero_extendqisi2
	str	r0, [lr]	@ unaligned
	str	r1, [lr, #4]	@ unaligned
	str	r2, [lr, #8]	@ unaligned
	str	r3, [lr, #12]	@ unaligned
	strh	r6, [lr, #16]	@ unaligned
	strb	ip, [lr, #18]
	ldr	r3, [sp, #4]
	ldr	r2, [r4]
	str	r3, [r4, #4]
	strb	r5, [r2, r3]
.L742:
	mov	r0, r4
	add	sp, sp, #8
	@ sp needed
	pop	{r4, r5, r6, pc}
.L748:
	add	r3, r0, #8
	mov	r2, #25
	str	r2, [r1, #-4]!
	str	r3, [r0]
	mov	r2, #0
	bl	_ZNSt7__cxx1112basic_stringIcSt11char_traitsIcESaIcEE9_M_createERjj(PLT)
	ldr	ip, .L749+4
	ldr	r6, [sp, #4]
.LPIC67:
	add	ip, pc, ip
	str	r6, [r4, #8]
	mov	r5, #0
	str	r0, [r4]
	mov	lr, r0
	ldmia	ip!, {r0, r1, r2, r3}
	str	r0, [lr]	@ unaligned
	str	r1, [lr, #4]	@ unaligned
	ldmia	ip!, {r0, r1}
	str	r3, [lr, #12]	@ unaligned
	str	r2, [lr, #8]	@ unaligned
	ldrb	r3, [ip]	@ zero_extendqisi2
	str	r0, [lr, #16]	@ unaligned
	str	r1, [lr, #20]	@ unaligned
	strb	r3, [lr, #24]
	ldr	r3, [sp, #4]
	ldr	r2, [r4]
	str	r3, [r4, #4]
	mov	r0, r4
	strb	r5, [r2, r3]
	add	sp, sp, #8
	@ sp needed
	pop	{r4, r5, r6, pc}
.L747:
	add	r3, r0, #8
	mov	r2, #17
	str	r2, [r1, #-4]!
	str	r3, [r0]
	mov	r2, #0
	bl	_ZNSt7__cxx1112basic_stringIcSt11char_traitsIcESaIcEE9_M_createERjj(PLT)
	ldr	ip, .L749+8
	ldr	r6, [sp, #4]
.LPIC66:
	add	ip, pc, ip
	str	r6, [r4, #8]
	mov	r5, #0
	str	r0, [r4]
	mov	lr, r0
	ldmia	ip!, {r0, r1, r2, r3}
	ldrb	ip, [ip]	@ zero_extendqisi2
	str	r0, [lr]	@ unaligned
	str	r1, [lr, #4]	@ unaligned
	strb	ip, [lr, #16]
	str	r2, [lr, #8]	@ unaligned
	str	r3, [lr, #12]	@ unaligned
	ldr	r3, [sp, #4]
	ldr	r2, [r4]
	str	r3, [r4, #4]
	strb	r5, [r2, r3]
	b	.L742
.L750:
	.align	2
.L749:
	.word	.LC10-(.LPIC68+8)
	.word	.LC9-(.LPIC67+8)
	.word	.LC8-(.LPIC66+8)
	.fnend
	.size	_ZNK4asio5error6detail17addrinfo_category7messageB5cxx11Ei, .-_ZNK4asio5error6detail17addrinfo_category7messageB5cxx11Ei
	.section	.text._ZNK4asio5error6detail14netdb_category7messageB5cxx11Ei,"axG",%progbits,_ZNK4asio5error6detail14netdb_category7messageB5cxx11Ei,comdat
	.align	2
	.weak	_ZNK4asio5error6detail14netdb_category7messageB5cxx11Ei
	.syntax unified
	.arm
	.fpu vfp
	.type	_ZNK4asio5error6detail14netdb_category7messageB5cxx11Ei, %function
_ZNK4asio5error6detail14netdb_category7messageB5cxx11Ei:
	.fnstart
.LFB3358:
	@ args = 0, pretend = 0, frame = 8
	@ frame_needed = 0, uses_anonymous_args = 0
	cmp	r2, #1
	push	{r4, r5, r6, lr}
	.save {r4, r5, r6, lr}
	mov	r4, r0
	.pad #8
	sub	sp, sp, #8
	beq	.L760
	cmp	r2, #2
	beq	.L761
	cmp	r2, #4
	beq	.L762
	cmp	r2, #3
	add	r1, sp, #8
	beq	.L763
	add	r3, r0, #8
	mov	r2, #16
	str	r2, [r1, #-4]!
	str	r3, [r0]
	mov	r2, #0
	bl	_ZNSt7__cxx1112basic_stringIcSt11char_traitsIcESaIcEE9_M_createERjj(PLT)
	ldr	ip, .L764
	ldr	r5, [sp, #4]
.LPIC73:
	add	ip, pc, ip
	str	r5, [r4, #8]
	str	r0, [r4]
	mov	lr, r0
	ldmia	ip!, {r0, r1, r2, r3}
	mov	ip, #0
	str	r0, [lr]	@ unaligned
	str	r1, [lr, #4]	@ unaligned
	str	r2, [lr, #8]	@ unaligned
	str	r3, [lr, #12]	@ unaligned
	ldr	r3, [sp, #4]
	ldr	r2, [r4]
	str	r3, [r4, #4]
	strb	ip, [r2, r3]
.L751:
	mov	r0, r4
	add	sp, sp, #8
	@ sp needed
	pop	{r4, r5, r6, pc}
.L763:
	add	r3, r0, #8
	mov	r2, #55
	str	r2, [r1, #-4]!
	str	r3, [r0]
	mov	r2, #0
	bl	_ZNSt7__cxx1112basic_stringIcSt11char_traitsIcESaIcEE9_M_createERjj(PLT)
	ldr	r5, .L764+4
	ldr	r3, [sp, #4]
.LPIC72:
	add	r5, pc, r5
	add	r6, r5, #48
	str	r3, [r4, #8]
	mov	lr, r0
	str	r0, [r4]
.L757:
	mov	ip, r5
	add	lr, lr, #16
	ldmia	ip!, {r0, r1, r2, r3}
	add	r5, r5, #16
	cmp	ip, r6
	str	r0, [lr, #-16]	@ unaligned
	str	r1, [lr, #-12]	@ unaligned
	str	r2, [lr, #-8]	@ unaligned
	str	r3, [lr, #-4]	@ unaligned
	bne	.L757
	ldrh	r2, [r5, #4]	@ unaligned
	ldrb	r3, [r5, #6]	@ zero_extendqisi2
	ldr	r0, [r5]
	strh	r2, [lr, #4]	@ unaligned
	strb	r3, [lr, #6]
	str	r0, [lr]	@ unaligned
	ldr	r3, [sp, #4]
	ldr	r2, [r4]
	mov	r1, #0
	str	r3, [r4, #4]
	strb	r1, [r2, r3]
	b	.L751
.L760:
	add	r1, sp, #8
	add	r3, r0, #8
	mov	r2, #30
	str	r2, [r1, #-4]!
	str	r3, [r0]
	mov	r2, #0
	bl	_ZNSt7__cxx1112basic_stringIcSt11char_traitsIcESaIcEE9_M_createERjj(PLT)
	ldr	ip, .L764+8
	ldr	r6, [sp, #4]
.LPIC69:
	add	ip, pc, ip
	str	r6, [r4, #8]
	mov	r5, #0
	str	r0, [r4]
	mov	lr, r0
	ldmia	ip!, {r0, r1, r2, r3}
	str	r0, [lr]	@ unaligned
	str	r1, [lr, #4]	@ unaligned
	str	r2, [lr, #8]	@ unaligned
	ldmia	ip!, {r0, r1, r2}
	str	r3, [lr, #12]	@ unaligned
	ldrh	r3, [ip]	@ unaligned
	str	r0, [lr, #16]	@ unaligned
	str	r1, [lr, #20]	@ unaligned
	strh	r3, [lr, #28]	@ unaligned
	str	r2, [lr, #24]	@ unaligned
	ldr	r3, [sp, #4]
	ldr	r2, [r4]
	str	r3, [r4, #4]
	strb	r5, [r2, r3]
	b	.L751
.L761:
	ldr	r1, .L764+12
.LPIC70:
	add	r1, pc, r1
	bl	_ZNSt7__cxx1112basic_stringIcSt11char_traitsIcESaIcEEC2EPKcRKS3_.isra.101(PLT)
	b	.L751
.L762:
	ldr	r1, .L764+16
.LPIC71:
	add	r1, pc, r1
	bl	_ZNSt7__cxx1112basic_stringIcSt11char_traitsIcESaIcEEC2EPKcRKS3_.isra.101(PLT)
	b	.L751
.L765:
	.align	2
.L764:
	.word	.LC15-(.LPIC73+8)
	.word	.LC14-(.LPIC72+8)
	.word	.LC11-(.LPIC69+8)
	.word	.LC12-(.LPIC70+8)
	.word	.LC13-(.LPIC71+8)
	.fnend
	.size	_ZNK4asio5error6detail14netdb_category7messageB5cxx11Ei, .-_ZNK4asio5error6detail14netdb_category7messageB5cxx11Ei
	.section	.text._ZNK4asio5error6detail13misc_category7messageB5cxx11Ei,"axG",%progbits,_ZNK4asio5error6detail13misc_category7messageB5cxx11Ei,comdat
	.align	2
	.weak	_ZNK4asio5error6detail13misc_category7messageB5cxx11Ei
	.syntax unified
	.arm
	.fpu vfp
	.type	_ZNK4asio5error6detail13misc_category7messageB5cxx11Ei, %function
_ZNK4asio5error6detail13misc_category7messageB5cxx11Ei:
	.fnstart
.LFB3370:
	@ args = 0, pretend = 0, frame = 8
	@ frame_needed = 0, uses_anonymous_args = 0
	cmp	r2, #1
	push	{r4, r5, r6, lr}
	.save {r4, r5, r6, lr}
	mov	r4, r0
	.pad #8
	sub	sp, sp, #8
	beq	.L775
	cmp	r2, #2
	beq	.L776
	cmp	r2, #3
	beq	.L777
	cmp	r2, #4
	beq	.L778
	ldr	ip, .L779
	add	r3, r0, #8
.LPIC78:
	add	ip, pc, ip
	mov	r5, #15
	ldmia	ip!, {r0, r1, r2}
	mov	lr, #0
	str	r3, [r4]
	str	r5, [r4, #4]
	ldrh	r6, [ip]	@ unaligned
	ldrb	ip, [ip, #2]	@ zero_extendqisi2
	str	r0, [r4, #8]	@ unaligned
	str	r1, [r4, #12]	@ unaligned
	str	r2, [r4, #16]	@ unaligned
	strh	r6, [r4, #20]	@ unaligned
	strb	ip, [r4, #22]
	strb	lr, [r4, #23]
.L766:
	mov	r0, r4
	add	sp, sp, #8
	@ sp needed
	pop	{r4, r5, r6, pc}
.L778:
	add	r1, sp, #8
	add	r3, r0, #8
	mov	r2, #57
	str	r2, [r1, #-4]!
	str	r3, [r0]
	mov	r2, #0
	bl	_ZNSt7__cxx1112basic_stringIcSt11char_traitsIcESaIcEE9_M_createERjj(PLT)
	ldr	r5, .L779+4
	ldr	r3, [sp, #4]
.LPIC77:
	add	r5, pc, r5
	add	r6, r5, #48
	str	r3, [r4, #8]
	mov	lr, r0
	str	r0, [r4]
.L772:
	mov	ip, r5
	add	lr, lr, #16
	ldmia	ip!, {r0, r1, r2, r3}
	add	r5, r5, #16
	cmp	ip, r6
	str	r0, [lr, #-16]	@ unaligned
	str	r1, [lr, #-12]	@ unaligned
	str	r2, [lr, #-8]	@ unaligned
	str	r3, [lr, #-4]	@ unaligned
	bne	.L772
	ldmia	r5!, {r0, r1}
	mov	ip, #0
	ldrb	r3, [r5]	@ zero_extendqisi2
	str	r0, [lr]	@ unaligned
	str	r1, [lr, #4]	@ unaligned
	strb	r3, [lr, #8]
	ldr	r3, [sp, #4]
	ldr	r2, [r4]
	str	r3, [r4, #4]
	strb	ip, [r2, r3]
	b	.L766
.L775:
	ldr	ip, .L779+8
	add	r3, r0, #8
.LPIC74:
	add	ip, pc, ip
	mov	lr, #12
	ldmia	ip!, {r0, r1, r2}
	mov	ip, #0
	str	r3, [r4]
	str	lr, [r4, #4]
	str	r0, [r4, #8]	@ unaligned
	str	r1, [r4, #12]	@ unaligned
	str	r2, [r4, #16]	@ unaligned
	strb	ip, [r4, #20]
	b	.L766
.L776:
	ldr	r2, .L779+12
	add	r3, r0, #8
.LPIC75:
	add	r2, pc, r2
	mov	lr, #11
	ldmia	r2!, {r0, r1}
	mov	ip, #0
	str	r3, [r4]
	ldrh	r5, [r2]	@ unaligned
	ldrb	r2, [r2, #2]	@ zero_extendqisi2
	str	r0, [r4, #8]	@ unaligned
	str	r1, [r4, #12]	@ unaligned
	strh	r5, [r4, #16]	@ unaligned
	strb	r2, [r4, #18]
	str	lr, [r4, #4]
	strb	ip, [r4, #19]
	b	.L766
.L777:
	ldr	r1, .L779+16
.LPIC76:
	add	r1, pc, r1
	bl	_ZNSt7__cxx1112basic_stringIcSt11char_traitsIcESaIcEEC2EPKcRKS3_.isra.101(PLT)
	b	.L766
.L780:
	.align	2
.L779:
	.word	.LC20-(.LPIC78+8)
	.word	.LC19-(.LPIC77+8)
	.word	.LC16-(.LPIC74+8)
	.word	.LC17-(.LPIC75+8)
	.word	.LC18-(.LPIC76+8)
	.fnend
	.size	_ZNK4asio5error6detail13misc_category7messageB5cxx11Ei, .-_ZNK4asio5error6detail13misc_category7messageB5cxx11Ei
	.section	.text._ZN4asio6detail18completion_handlerIZN7asiopal8Executor10ReturnFromIbEET_RKSt8functionIFS5_vEEEUlvE_E11do_completeEPNS0_15task_io_serviceEPNS0_25task_io_service_operationERKSt10error_codej,"axG",%progbits,_ZN4asio6detail18completion_handlerIZN7asiopal8Executor10ReturnFromIbEET_RKSt8functionIFS5_vEEEUlvE_E11do_completeEPNS0_15task_io_serviceEPNS0_25task_io_service_operationERKSt10error_codej,comdat
	.align	2
	.weak	_ZN4asio6detail18completion_handlerIZN7asiopal8Executor10ReturnFromIbEET_RKSt8functionIFS5_vEEEUlvE_E11do_completeEPNS0_15task_io_serviceEPNS0_25task_io_service_operationERKSt10error_codej
	.syntax unified
	.arm
	.fpu vfp
	.type	_ZN4asio6detail18completion_handlerIZN7asiopal8Executor10ReturnFromIbEET_RKSt8functionIFS5_vEEEUlvE_E11do_completeEPNS0_15task_io_serviceEPNS0_25task_io_service_operationERKSt10error_codej, %function
_ZN4asio6detail18completion_handlerIZN7asiopal8Executor10ReturnFromIbEET_RKSt8functionIFS5_vEEEUlvE_E11do_completeEPNS0_15task_io_serviceEPNS0_25task_io_service_operationERKSt10error_codej:
	.fnstart
.LFB11795:
	@ args = 0, pretend = 0, frame = 64
	@ frame_needed = 0, uses_anonymous_args = 0
	push	{r4, r5, r6, r7, r8, lr}
	.save {r4, r5, r6, r7, r8, lr}
	mov	r8, r0
	ldr	r4, .L817
	ldr	r3, .L817+4
.LPIC79:
	add	r4, pc, r4
	.pad #64
	sub	sp, sp, #64
	ldr	r3, [r4, r3]
	mov	r5, r1
	ldr	r7, [r1, #12]
	ldr	r0, [r3]
	ldr	r6, [r1, #16]
	bl	pthread_getspecific(PLT)
	cmp	r0, #0
	beq	.L782
	ldr	r3, [r0, #4]
	cmp	r3, #0
	beq	.L782
	ldr	r2, [r3]
	cmp	r2, #0
	beq	.L814
.L782:
	mov	r0, r5
	bl	_ZdlPv(PLT)
.L783:
	cmp	r8, #0
	beq	.L781
	add	r3, sp, #64
	mov	r2, #0
	str	r2, [r3, #-56]!
	mov	r2, #1
.L812:
	ldrex	r1, [r3]
	strex	r0, r2, [r3]
	cmp	r0, #0
	bne	.L812
	mcr	p15, 0, r0, c7, c10, 5
	ldr	r3, [r6, #8]
	cmp	r3, #0
	beq	.L815
	ldr	r3, [r6, #12]
	mov	r0, r6
.LEHB2:
	blx	r3
.LEHE2:
	ldr	r3, .L817+8
	ldr	r2, .L817+12
	add	r1, sp, #6
	ldr	r5, [r7]
	strb	r0, [sp, #6]
	str	r1, [sp, #36]
	str	r7, [sp, #32]
	ldr	r1, [r4, r3]
	ldr	r3, .L817+16
	str	r1, [sp, #44]
	ldr	r1, [r4, r2]
	mov	r2, #0
	str	r1, [sp, #40]
	strb	r2, [sp, #7]
	ldr	r3, [r4, r3]
	ldr	r0, .L817+20
	str	r3, [sp, #24]
	add	r3, sp, #7
	str	r3, [sp, #12]
	add	r3, sp, #24
	str	r3, [sp, #48]
	add	r3, sp, #20
	str	r3, [sp, #52]
	add	r3, sp, #16
	str	r3, [sp, #56]
.LPIC80:
	add	r0, pc, r0
	add	r3, sp, #12
	add	r6, sp, #32
	str	r2, [sp, #28]
	str	r3, [sp, #60]
	str	r5, [sp, #20]
	str	r6, [sp, #16]
	bl	__tls_get_addr(PLT)
	ldr	r3, .L817+24
	add	r2, sp, #48
	str	r2, [r0]
.LPIC81:
	add	r0, pc, r3
	bl	__tls_get_addr(PLT)
	ldr	r2, .L817+28
	ldr	r3, .L817+32
	ldr	r2, [r4, r2]
	str	r2, [r0]
	ldr	r3, [r4, r3]
	cmp	r3, #0
	beq	.L796
	ldr	r3, .L817+36
	add	r0, r5, #16
	ldr	r1, [r4, r3]
.LEHB3:
	bl	_ZL20__gthrw_pthread_oncePiPFvvE(PLT)
	cmp	r0, #0
	bne	.L786
	ldrb	r3, [sp, #7]	@ zero_extendqisi2
	cmp	r3, #0
	bne	.L816
	mov	r0, #2
	bl	_ZSt20__throw_future_errori(PLT)
.LEHE3:
.L816:
	add	r0, r5, #8
	mov	r2, #1
	mcr	p15, 0, r0, c7, c10, 5
.L811:
	ldrex	r3, [r0]
	strex	r1, r2, [r0]
	cmp	r1, #0
	bne	.L811
	cmp	r3, #0
	blt	.L789
.L792:
	ldr	r3, [sp, #40]
	cmp	r3, #0
	beq	.L791
	mov	r2, #3
	mov	r1, r6
	mov	r0, r6
	blx	r3
.L791:
	mov	r3, #0
	mcr	p15, 0, r0, c7, c10, 5
	str	r3, [sp, #8]
.L781:
	add	sp, sp, #64
	@ sp needed
	pop	{r4, r5, r6, r7, r8, pc}
.L796:
	mvn	r0, #0
.L786:
.LEHB4:
	bl	_ZSt20__throw_system_errori(PLT)
.LEHE4:
.L814:
	ldrb	r2, [r5, #20]	@ zero_extendqisi2
	strb	r2, [r5]
	str	r5, [r3]
	b	.L783
.L798:
	ldr	r3, [sp, #40]
	cmp	r3, #0
	beq	.L795
	mov	r2, #3
	mov	r1, r6
	mov	r0, r6
	blx	r3
.L795:
	mov	r3, #0
	mcr	p15, 0, r0, c7, c10, 5
	str	r3, [sp, #8]
.LEHB5:
	bl	__cxa_end_cleanup(PLT)
.LEHE5:
.L789:
.LEHB6:
	bl	_ZNSt28__atomic_futex_unsigned_base19_M_futex_notify_allEPj(PLT)
.LEHE6:
	b	.L792
.L815:
.LEHB7:
	bl	_ZSt25__throw_bad_function_callv(PLT)
.LEHE7:
.L797:
	b	.L795
.L818:
	.align	2
.L817:
	.word	_GLOBAL_OFFSET_TABLE_-(.LPIC79+8)
	.word	_ZN4asio6detail10call_stackINS0_15task_io_serviceENS0_27task_io_service_thread_infoEE4top_E(GOT)
	.word	_ZNSt17_Function_handlerIFSt10unique_ptrINSt13__future_base12_Result_baseENS2_8_DeleterEEvENS1_13_State_baseV27_SetterIbObEEE9_M_invokeERKSt9_Any_data(GOT)
	.word	_ZNSt14_Function_base13_Base_managerINSt13__future_base13_State_baseV27_SetterIbObEEE10_M_managerERSt9_Any_dataRKS7_St18_Manager_operation(GOT)
	.word	_ZNSt13__future_base13_State_baseV29_M_do_setEPSt8functionIFSt10unique_ptrINS_12_Result_baseENS3_8_DeleterEEvEEPb(GOT)
	.word	_ZSt15__once_callable(tlsgd) + (. - .LPIC80 - 8)
	.word	_ZSt11__once_call(tlsgd) + (. - .LPIC81 - 8)
	.word	_ZZSt9call_onceIMNSt13__future_base13_State_baseV2EFvPSt8functionIFSt10unique_ptrINS0_12_Result_baseENS4_8_DeleterEEvEEPbEJPS1_S9_SA_EEvRSt9once_flagOT_DpOT0_ENUlvE0_4_FUNEv(GOT)
	.word	_ZL28__gthrw___pthread_key_createPjPFvPvE(GOT)
	.word	__once_proxy(GOT)
	.personality	__gxx_personality_v0
	.handlerdata
.LLSDA11795:
	.byte	0xff
	.byte	0xff
	.byte	0x1
	.uleb128 .LLSDACSE11795-.LLSDACSB11795
.LLSDACSB11795:
	.uleb128 .LEHB2-.LFB11795
	.uleb128 .LEHE2-.LEHB2
	.uleb128 .L797-.LFB11795
	.uleb128 0
	.uleb128 .LEHB3-.LFB11795
	.uleb128 .LEHE3-.LEHB3
	.uleb128 .L798-.LFB11795
	.uleb128 0
	.uleb128 .LEHB4-.LFB11795
	.uleb128 .LEHE4-.LEHB4
	.uleb128 .L798-.LFB11795
	.uleb128 0
	.uleb128 .LEHB5-.LFB11795
	.uleb128 .LEHE5-.LEHB5
	.uleb128 0
	.uleb128 0
	.uleb128 .LEHB6-.LFB11795
	.uleb128 .LEHE6-.LEHB6
	.uleb128 .L798-.LFB11795
	.uleb128 0
	.uleb128 .LEHB7-.LFB11795
	.uleb128 .LEHE7-.LEHB7
	.uleb128 .L797-.LFB11795
	.uleb128 0
.LLSDACSE11795:
	.section	.text._ZN4asio6detail18completion_handlerIZN7asiopal8Executor10ReturnFromIbEET_RKSt8functionIFS5_vEEEUlvE_E11do_completeEPNS0_15task_io_serviceEPNS0_25task_io_service_operationERKSt10error_codej,"axG",%progbits,_ZN4asio6detail18completion_handlerIZN7asiopal8Executor10ReturnFromIbEET_RKSt8functionIFS5_vEEEUlvE_E11do_completeEPNS0_15task_io_serviceEPNS0_25task_io_service_operationERKSt10error_codej,comdat
	.fnend
	.size	_ZN4asio6detail18completion_handlerIZN7asiopal8Executor10ReturnFromIbEET_RKSt8functionIFS5_vEEEUlvE_E11do_completeEPNS0_15task_io_serviceEPNS0_25task_io_service_operationERKSt10error_codej, .-_ZN4asio6detail18completion_handlerIZN7asiopal8Executor10ReturnFromIbEET_RKSt8functionIFS5_vEEEUlvE_E11do_completeEPNS0_15task_io_serviceEPNS0_25task_io_service_operationERKSt10error_codej
	.section	.text._ZN4asio6detail18completion_handlerIZN7asiopal8Executor10ReturnFromIN7openpal10LogFiltersEEET_RKSt8functionIFS7_vEEEUlvE_E11do_completeEPNS0_15task_io_serviceEPNS0_25task_io_service_operationERKSt10error_codej,"axG",%progbits,_ZN4asio6detail18completion_handlerIZN7asiopal8Executor10ReturnFromIN7openpal10LogFiltersEEET_RKSt8functionIFS7_vEEEUlvE_E11do_completeEPNS0_15task_io_serviceEPNS0_25task_io_service_operationERKSt10error_codej,comdat
	.align	2
	.weak	_ZN4asio6detail18completion_handlerIZN7asiopal8Executor10ReturnFromIN7openpal10LogFiltersEEET_RKSt8functionIFS7_vEEEUlvE_E11do_completeEPNS0_15task_io_serviceEPNS0_25task_io_service_operationERKSt10error_codej
	.syntax unified
	.arm
	.fpu vfp
	.type	_ZN4asio6detail18completion_handlerIZN7asiopal8Executor10ReturnFromIN7openpal10LogFiltersEEET_RKSt8functionIFS7_vEEEUlvE_E11do_completeEPNS0_15task_io_serviceEPNS0_25task_io_service_operationERKSt10error_codej, %function
_ZN4asio6detail18completion_handlerIZN7asiopal8Executor10ReturnFromIN7openpal10LogFiltersEEET_RKSt8functionIFS7_vEEEUlvE_E11do_completeEPNS0_15task_io_serviceEPNS0_25task_io_service_operationERKSt10error_codej:
	.fnstart
.LFB11321:
	@ args = 0, pretend = 0, frame = 64
	@ frame_needed = 0, uses_anonymous_args = 0
	push	{r4, r5, r6, r7, r8, lr}
	.save {r4, r5, r6, r7, r8, lr}
	mov	r8, r0
	ldr	r4, .L855
	ldr	r3, .L855+4
.LPIC82:
	add	r4, pc, r4
	.pad #64
	sub	sp, sp, #64
	ldr	r3, [r4, r3]
	mov	r5, r1
	ldr	r7, [r1, #12]
	ldr	r0, [r3]
	ldr	r6, [r1, #16]
	bl	pthread_getspecific(PLT)
	cmp	r0, #0
	beq	.L820
	ldr	r3, [r0, #4]
	cmp	r3, #0
	beq	.L820
	ldr	r2, [r3]
	cmp	r2, #0
	beq	.L852
.L820:
	mov	r0, r5
	bl	_ZdlPv(PLT)
.L821:
	cmp	r8, #0
	beq	.L819
	add	r3, sp, #64
	mov	r2, #0
	str	r2, [r3, #-60]!
	mov	r2, #1
.L850:
	ldrex	r1, [r3]
	strex	r0, r2, [r3]
	cmp	r0, #0
	bne	.L850
	mcr	p15, 0, r0, c7, c10, 5
	ldr	r3, [r6, #8]
	cmp	r3, #0
	beq	.L853
	ldr	r3, [r6, #12]
	mov	r0, r6
.LEHB8:
	blx	r3
.LEHE8:
	ldr	r3, .L855+8
	ldr	r2, .L855+12
	add	r1, sp, #8
	ldr	r5, [r7]
	str	r0, [sp, #8]
	str	r1, [sp, #36]
	str	r7, [sp, #32]
	ldr	r1, [r4, r3]
	ldr	r3, .L855+16
	str	r1, [sp, #44]
	ldr	r1, [r4, r2]
	mov	r2, #0
	str	r1, [sp, #40]
	strb	r2, [sp, #3]
	ldr	r3, [r4, r3]
	ldr	r0, .L855+20
	str	r3, [sp, #24]
	add	r3, sp, #3
	str	r3, [sp, #12]
	add	r3, sp, #24
	str	r3, [sp, #48]
	add	r3, sp, #20
	str	r3, [sp, #52]
	add	r3, sp, #16
	str	r3, [sp, #56]
.LPIC83:
	add	r0, pc, r0
	add	r3, sp, #12
	add	r6, sp, #32
	str	r2, [sp, #28]
	str	r3, [sp, #60]
	str	r5, [sp, #20]
	str	r6, [sp, #16]
	bl	__tls_get_addr(PLT)
	ldr	r3, .L855+24
	add	r2, sp, #48
	str	r2, [r0]
.LPIC84:
	add	r0, pc, r3
	bl	__tls_get_addr(PLT)
	ldr	r2, .L855+28
	ldr	r3, .L855+32
	ldr	r2, [r4, r2]
	str	r2, [r0]
	ldr	r3, [r4, r3]
	cmp	r3, #0
	beq	.L834
	ldr	r3, .L855+36
	add	r0, r5, #16
	ldr	r1, [r4, r3]
.LEHB9:
	bl	_ZL20__gthrw_pthread_oncePiPFvvE(PLT)
	cmp	r0, #0
	bne	.L824
	ldrb	r3, [sp, #3]	@ zero_extendqisi2
	cmp	r3, #0
	bne	.L854
	mov	r0, #2
	bl	_ZSt20__throw_future_errori(PLT)
.LEHE9:
.L854:
	add	r0, r5, #8
	mov	r2, #1
	mcr	p15, 0, r0, c7, c10, 5
.L849:
	ldrex	r3, [r0]
	strex	r1, r2, [r0]
	cmp	r1, #0
	bne	.L849
	cmp	r3, #0
	blt	.L827
.L830:
	ldr	r3, [sp, #40]
	cmp	r3, #0
	beq	.L829
	mov	r2, #3
	mov	r1, r6
	mov	r0, r6
	blx	r3
.L829:
	mov	r3, #0
	mcr	p15, 0, r0, c7, c10, 5
	str	r3, [sp, #4]
.L819:
	add	sp, sp, #64
	@ sp needed
	pop	{r4, r5, r6, r7, r8, pc}
.L834:
	mvn	r0, #0
.L824:
.LEHB10:
	bl	_ZSt20__throw_system_errori(PLT)
.LEHE10:
.L852:
	ldrb	r2, [r5, #20]	@ zero_extendqisi2
	strb	r2, [r5]
	str	r5, [r3]
	b	.L821
.L836:
	ldr	r3, [sp, #40]
	cmp	r3, #0
	beq	.L833
	mov	r2, #3
	mov	r1, r6
	mov	r0, r6
	blx	r3
.L833:
	mov	r3, #0
	mcr	p15, 0, r0, c7, c10, 5
	str	r3, [sp, #4]
.LEHB11:
	bl	__cxa_end_cleanup(PLT)
.LEHE11:
.L827:
.LEHB12:
	bl	_ZNSt28__atomic_futex_unsigned_base19_M_futex_notify_allEPj(PLT)
.LEHE12:
	b	.L830
.L853:
.LEHB13:
	bl	_ZSt25__throw_bad_function_callv(PLT)
.LEHE13:
.L835:
	b	.L833
.L856:
	.align	2
.L855:
	.word	_GLOBAL_OFFSET_TABLE_-(.LPIC82+8)
	.word	_ZN4asio6detail10call_stackINS0_15task_io_serviceENS0_27task_io_service_thread_infoEE4top_E(GOT)
	.word	_ZNSt17_Function_handlerIFSt10unique_ptrINSt13__future_base12_Result_baseENS2_8_DeleterEEvENS1_13_State_baseV27_SetterIN7openpal10LogFiltersEOS9_EEE9_M_invokeERKSt9_Any_data(GOT)
	.word	_ZNSt14_Function_base13_Base_managerINSt13__future_base13_State_baseV27_SetterIN7openpal10LogFiltersEOS5_EEE10_M_managerERSt9_Any_dataRKS9_St18_Manager_operation(GOT)
	.word	_ZNSt13__future_base13_State_baseV29_M_do_setEPSt8functionIFSt10unique_ptrINS_12_Result_baseENS3_8_DeleterEEvEEPb(GOT)
	.word	_ZSt15__once_callable(tlsgd) + (. - .LPIC83 - 8)
	.word	_ZSt11__once_call(tlsgd) + (. - .LPIC84 - 8)
	.word	_ZZSt9call_onceIMNSt13__future_base13_State_baseV2EFvPSt8functionIFSt10unique_ptrINS0_12_Result_baseENS4_8_DeleterEEvEEPbEJPS1_S9_SA_EEvRSt9once_flagOT_DpOT0_ENUlvE0_4_FUNEv(GOT)
	.word	_ZL28__gthrw___pthread_key_createPjPFvPvE(GOT)
	.word	__once_proxy(GOT)
	.personality	__gxx_personality_v0
	.handlerdata
.LLSDA11321:
	.byte	0xff
	.byte	0xff
	.byte	0x1
	.uleb128 .LLSDACSE11321-.LLSDACSB11321
.LLSDACSB11321:
	.uleb128 .LEHB8-.LFB11321
	.uleb128 .LEHE8-.LEHB8
	.uleb128 .L835-.LFB11321
	.uleb128 0
	.uleb128 .LEHB9-.LFB11321
	.uleb128 .LEHE9-.LEHB9
	.uleb128 .L836-.LFB11321
	.uleb128 0
	.uleb128 .LEHB10-.LFB11321
	.uleb128 .LEHE10-.LEHB10
	.uleb128 .L836-.LFB11321
	.uleb128 0
	.uleb128 .LEHB11-.LFB11321
	.uleb128 .LEHE11-.LEHB11
	.uleb128 0
	.uleb128 0
	.uleb128 .LEHB12-.LFB11321
	.uleb128 .LEHE12-.LEHB12
	.uleb128 .L836-.LFB11321
	.uleb128 0
	.uleb128 .LEHB13-.LFB11321
	.uleb128 .LEHE13-.LEHB13
	.uleb128 .L835-.LFB11321
	.uleb128 0
.LLSDACSE11321:
	.section	.text._ZN4asio6detail18completion_handlerIZN7asiopal8Executor10ReturnFromIN7openpal10LogFiltersEEET_RKSt8functionIFS7_vEEEUlvE_E11do_completeEPNS0_15task_io_serviceEPNS0_25task_io_service_operationERKSt10error_codej,"axG",%progbits,_ZN4asio6detail18completion_handlerIZN7asiopal8Executor10ReturnFromIN7openpal10LogFiltersEEET_RKSt8functionIFS7_vEEEUlvE_E11do_completeEPNS0_15task_io_serviceEPNS0_25task_io_service_operationERKSt10error_codej,comdat
	.fnend
	.size	_ZN4asio6detail18completion_handlerIZN7asiopal8Executor10ReturnFromIN7openpal10LogFiltersEEET_RKSt8functionIFS7_vEEEUlvE_E11do_completeEPNS0_15task_io_serviceEPNS0_25task_io_service_operationERKSt10error_codej, .-_ZN4asio6detail18completion_handlerIZN7asiopal8Executor10ReturnFromIN7openpal10LogFiltersEEET_RKSt8functionIFS7_vEEEUlvE_E11do_completeEPNS0_15task_io_serviceEPNS0_25task_io_service_operationERKSt10error_codej
	.section	.text._ZN4asio6detail18completion_handlerIZN7asiopal8Executor10ReturnFromIN8opendnp314LinkStatisticsEEET_RKSt8functionIFS7_vEEEUlvE_E11do_completeEPNS0_15task_io_serviceEPNS0_25task_io_service_operationERKSt10error_codej,"axG",%progbits,_ZN4asio6detail18completion_handlerIZN7asiopal8Executor10ReturnFromIN8opendnp314LinkStatisticsEEET_RKSt8functionIFS7_vEEEUlvE_E11do_completeEPNS0_15task_io_serviceEPNS0_25task_io_service_operationERKSt10error_codej,comdat
	.align	2
	.weak	_ZN4asio6detail18completion_handlerIZN7asiopal8Executor10ReturnFromIN8opendnp314LinkStatisticsEEET_RKSt8functionIFS7_vEEEUlvE_E11do_completeEPNS0_15task_io_serviceEPNS0_25task_io_service_operationERKSt10error_codej
	.syntax unified
	.arm
	.fpu vfp
	.type	_ZN4asio6detail18completion_handlerIZN7asiopal8Executor10ReturnFromIN8opendnp314LinkStatisticsEEET_RKSt8functionIFS7_vEEEUlvE_E11do_completeEPNS0_15task_io_serviceEPNS0_25task_io_service_operationERKSt10error_codej, %function
_ZN4asio6detail18completion_handlerIZN7asiopal8Executor10ReturnFromIN8opendnp314LinkStatisticsEEET_RKSt8functionIFS7_vEEEUlvE_E11do_completeEPNS0_15task_io_serviceEPNS0_25task_io_service_operationERKSt10error_codej:
	.fnstart
.LFB11303:
	@ args = 0, pretend = 0, frame = 112
	@ frame_needed = 0, uses_anonymous_args = 0
	push	{r4, r5, r6, r7, r8, lr}
	.save {r4, r5, r6, r7, r8, lr}
	mov	r8, r0
	ldr	r4, .L893
	ldr	r3, .L893+4
.LPIC85:
	add	r4, pc, r4
	.pad #112
	sub	sp, sp, #112
	ldr	r3, [r4, r3]
	mov	r5, r1
	ldr	r7, [r1, #12]
	ldr	r0, [r3]
	ldr	r6, [r1, #16]
	bl	pthread_getspecific(PLT)
	cmp	r0, #0
	beq	.L858
	ldr	r3, [r0, #4]
	cmp	r3, #0
	beq	.L858
	ldr	r2, [r3]
	cmp	r2, #0
	beq	.L890
.L858:
	mov	r0, r5
	bl	_ZdlPv(PLT)
.L859:
	cmp	r8, #0
	beq	.L857
	add	r3, sp, #112
	mov	r2, #0
	str	r2, [r3, #-108]!
	mov	r2, #1
.L888:
	ldrex	r1, [r3]
	strex	r0, r2, [r3]
	cmp	r0, #0
	bne	.L888
	mcr	p15, 0, r0, c7, c10, 5
	ldr	r3, [r6, #8]
	cmp	r3, #0
	beq	.L891
	add	r8, sp, #60
	mov	r0, r8
	ldr	r3, [r6, #12]
	mov	r1, r6
.LEHB14:
	blx	r3
.LEHE14:
	ldr	r3, .L893+8
	ldr	r2, .L893+12
	ldr	r5, [r7]
	str	r7, [sp, #28]
	str	r8, [sp, #32]
	ldr	r1, [r4, r3]
	ldr	r3, .L893+16
	str	r1, [sp, #40]
	ldr	r1, [r4, r2]
	mov	r2, #0
	str	r1, [sp, #36]
	strb	r2, [sp, #3]
	ldr	r3, [r4, r3]
	ldr	r0, .L893+20
	str	r3, [sp, #20]
	add	r3, sp, #3
	str	r3, [sp, #8]
	add	r3, sp, #20
	str	r3, [sp, #44]
	add	r3, sp, #16
	str	r3, [sp, #48]
	add	r3, sp, #12
	str	r3, [sp, #52]
.LPIC86:
	add	r0, pc, r0
	add	r3, sp, #8
	add	r6, sp, #28
	str	r2, [sp, #24]
	str	r3, [sp, #56]
	str	r5, [sp, #16]
	str	r6, [sp, #12]
	bl	__tls_get_addr(PLT)
	ldr	r3, .L893+24
	add	r2, sp, #44
	str	r2, [r0]
.LPIC87:
	add	r0, pc, r3
	bl	__tls_get_addr(PLT)
	ldr	r2, .L893+28
	ldr	r3, .L893+32
	ldr	r2, [r4, r2]
	str	r2, [r0]
	ldr	r3, [r4, r3]
	cmp	r3, #0
	beq	.L872
	ldr	r3, .L893+36
	add	r0, r5, #16
	ldr	r1, [r4, r3]
.LEHB15:
	bl	_ZL20__gthrw_pthread_oncePiPFvvE(PLT)
	cmp	r0, #0
	bne	.L862
	ldrb	r3, [sp, #3]	@ zero_extendqisi2
	cmp	r3, #0
	bne	.L892
	mov	r0, #2
	bl	_ZSt20__throw_future_errori(PLT)
.LEHE15:
.L892:
	add	r0, r5, #8
	mov	r2, #1
	mcr	p15, 0, r0, c7, c10, 5
.L887:
	ldrex	r3, [r0]
	strex	r1, r2, [r0]
	cmp	r1, #0
	bne	.L887
	cmp	r3, #0
	blt	.L865
.L868:
	ldr	r3, [sp, #36]
	cmp	r3, #0
	beq	.L867
	mov	r2, #3
	mov	r1, r6
	mov	r0, r6
	blx	r3
.L867:
	mov	r3, #0
	mcr	p15, 0, r0, c7, c10, 5
	str	r3, [sp, #4]
.L857:
	add	sp, sp, #112
	@ sp needed
	pop	{r4, r5, r6, r7, r8, pc}
.L872:
	mvn	r0, #0
.L862:
.LEHB16:
	bl	_ZSt20__throw_system_errori(PLT)
.LEHE16:
.L890:
	ldrb	r2, [r5, #20]	@ zero_extendqisi2
	strb	r2, [r5]
	str	r5, [r3]
	b	.L859
.L874:
	ldr	r3, [sp, #36]
	cmp	r3, #0
	beq	.L871
	mov	r2, #3
	mov	r1, r6
	mov	r0, r6
	blx	r3
.L871:
	mov	r3, #0
	mcr	p15, 0, r0, c7, c10, 5
	str	r3, [sp, #4]
.LEHB17:
	bl	__cxa_end_cleanup(PLT)
.LEHE17:
.L865:
.LEHB18:
	bl	_ZNSt28__atomic_futex_unsigned_base19_M_futex_notify_allEPj(PLT)
.LEHE18:
	b	.L868
.L891:
.LEHB19:
	bl	_ZSt25__throw_bad_function_callv(PLT)
.LEHE19:
.L873:
	b	.L871
.L894:
	.align	2
.L893:
	.word	_GLOBAL_OFFSET_TABLE_-(.LPIC85+8)
	.word	_ZN4asio6detail10call_stackINS0_15task_io_serviceENS0_27task_io_service_thread_infoEE4top_E(GOT)
	.word	_ZNSt17_Function_handlerIFSt10unique_ptrINSt13__future_base12_Result_baseENS2_8_DeleterEEvENS1_13_State_baseV27_SetterIN8opendnp314LinkStatisticsEOS9_EEE9_M_invokeERKSt9_Any_data(GOT)
	.word	_ZNSt14_Function_base13_Base_managerINSt13__future_base13_State_baseV27_SetterIN8opendnp314LinkStatisticsEOS5_EEE10_M_managerERSt9_Any_dataRKS9_St18_Manager_operation(GOT)
	.word	_ZNSt13__future_base13_State_baseV29_M_do_setEPSt8functionIFSt10unique_ptrINS_12_Result_baseENS3_8_DeleterEEvEEPb(GOT)
	.word	_ZSt15__once_callable(tlsgd) + (. - .LPIC86 - 8)
	.word	_ZSt11__once_call(tlsgd) + (. - .LPIC87 - 8)
	.word	_ZZSt9call_onceIMNSt13__future_base13_State_baseV2EFvPSt8functionIFSt10unique_ptrINS0_12_Result_baseENS4_8_DeleterEEvEEPbEJPS1_S9_SA_EEvRSt9once_flagOT_DpOT0_ENUlvE0_4_FUNEv(GOT)
	.word	_ZL28__gthrw___pthread_key_createPjPFvPvE(GOT)
	.word	__once_proxy(GOT)
	.personality	__gxx_personality_v0
	.handlerdata
.LLSDA11303:
	.byte	0xff
	.byte	0xff
	.byte	0x1
	.uleb128 .LLSDACSE11303-.LLSDACSB11303
.LLSDACSB11303:
	.uleb128 .LEHB14-.LFB11303
	.uleb128 .LEHE14-.LEHB14
	.uleb128 .L873-.LFB11303
	.uleb128 0
	.uleb128 .LEHB15-.LFB11303
	.uleb128 .LEHE15-.LEHB15
	.uleb128 .L874-.LFB11303
	.uleb128 0
	.uleb128 .LEHB16-.LFB11303
	.uleb128 .LEHE16-.LEHB16
	.uleb128 .L874-.LFB11303
	.uleb128 0
	.uleb128 .LEHB17-.LFB11303
	.uleb128 .LEHE17-.LEHB17
	.uleb128 0
	.uleb128 0
	.uleb128 .LEHB18-.LFB11303
	.uleb128 .LEHE18-.LEHB18
	.uleb128 .L874-.LFB11303
	.uleb128 0
	.uleb128 .LEHB19-.LFB11303
	.uleb128 .LEHE19-.LEHB19
	.uleb128 .L873-.LFB11303
	.uleb128 0
.LLSDACSE11303:
	.section	.text._ZN4asio6detail18completion_handlerIZN7asiopal8Executor10ReturnFromIN8opendnp314LinkStatisticsEEET_RKSt8functionIFS7_vEEEUlvE_E11do_completeEPNS0_15task_io_serviceEPNS0_25task_io_service_operationERKSt10error_codej,"axG",%progbits,_ZN4asio6detail18completion_handlerIZN7asiopal8Executor10ReturnFromIN8opendnp314LinkStatisticsEEET_RKSt8functionIFS7_vEEEUlvE_E11do_completeEPNS0_15task_io_serviceEPNS0_25task_io_service_operationERKSt10error_codej,comdat
	.fnend
	.size	_ZN4asio6detail18completion_handlerIZN7asiopal8Executor10ReturnFromIN8opendnp314LinkStatisticsEEET_RKSt8functionIFS7_vEEEUlvE_E11do_completeEPNS0_15task_io_serviceEPNS0_25task_io_service_operationERKSt10error_codej, .-_ZN4asio6detail18completion_handlerIZN7asiopal8Executor10ReturnFromIN8opendnp314LinkStatisticsEEET_RKSt8functionIFS7_vEEEUlvE_E11do_completeEPNS0_15task_io_serviceEPNS0_25task_io_service_operationERKSt10error_codej
	.section	.text._ZN9__gnu_cxx13__scoped_lockD2Ev,"axG",%progbits,_ZN9__gnu_cxx13__scoped_lockD5Ev,comdat
	.align	2
	.weak	_ZN9__gnu_cxx13__scoped_lockD2Ev
	.syntax unified
	.arm
	.fpu vfp
	.type	_ZN9__gnu_cxx13__scoped_lockD2Ev, %function
_ZN9__gnu_cxx13__scoped_lockD2Ev:
	.fnstart
.LFB1653:
	@ args = 0, pretend = 0, frame = 0
	@ frame_needed = 0, uses_anonymous_args = 0
	push	{r4, r5, r6, lr}
	.save {r4, r5, r6, lr}
	mov	r5, r0
	ldr	r4, .L909
	ldr	r3, .L909+4
.LPIC88:
	add	r4, pc, r4
	ldr	r3, [r4, r3]
	cmp	r3, #0
	beq	.L902
	ldr	r0, [r0]
	bl	_ZL28__gthrw_pthread_mutex_unlockP15pthread_mutex_t(PLT)
	cmp	r0, #0
	bne	.L908
.L902:
	mov	r0, r5
	pop	{r4, r5, r6, pc}
.L908:
	mov	r0, #4
	bl	__cxa_allocate_exception(PLT)
	ldr	r1, .L909+8
	ldr	r2, .L909+12
	ldr	r3, .L909+16
	ldr	r1, [r4, r1]
	add	r1, r1, #8
	str	r1, [r0]
	ldr	r2, [r4, r2]
	ldr	r1, [r4, r3]
.LEHB20:
	bl	__cxa_throw(PLT)
.LEHE20:
.L899:
	cmn	r1, #1
	beq	.L898
.LEHB21:
	bl	__cxa_end_cleanup(PLT)
.L898:
	bl	__cxa_call_unexpected(PLT)
.LEHE21:
.L910:
	.align	2
.L909:
	.word	_GLOBAL_OFFSET_TABLE_-(.LPIC88+8)
	.word	_ZL28__gthrw___pthread_key_createPjPFvPvE(GOT)
	.word	_ZTVN9__gnu_cxx26__concurrence_unlock_errorE(GOT)
	.word	_ZN9__gnu_cxx26__concurrence_unlock_errorD1Ev(GOT)
	.word	_ZTIN9__gnu_cxx26__concurrence_unlock_errorE(GOT)
	.personality	__gxx_personality_v0
	.handlerdata
	.align	2
.LLSDA1653:
	.byte	0xff
	.byte	0x90
	.uleb128 .LLSDATT1653-.LLSDATTD1653
.LLSDATTD1653:
	.byte	0x1
	.uleb128 .LLSDACSE1653-.LLSDACSB1653
.LLSDACSB1653:
	.uleb128 .LEHB20-.LFB1653
	.uleb128 .LEHE20-.LEHB20
	.uleb128 .L899-.LFB1653
	.uleb128 0x1
	.uleb128 .LEHB21-.LFB1653
	.uleb128 .LEHE21-.LEHB21
	.uleb128 0
	.uleb128 0
.LLSDACSE1653:
	.byte	0x7f
	.byte	0
	.align	2
.LLSDATT1653:
	.word	0
	.section	.text._ZN9__gnu_cxx13__scoped_lockD2Ev,"axG",%progbits,_ZN9__gnu_cxx13__scoped_lockD5Ev,comdat
	.fnend
	.size	_ZN9__gnu_cxx13__scoped_lockD2Ev, .-_ZN9__gnu_cxx13__scoped_lockD2Ev
	.weak	_ZN9__gnu_cxx13__scoped_lockD1Ev
	.set	_ZN9__gnu_cxx13__scoped_lockD1Ev,_ZN9__gnu_cxx13__scoped_lockD2Ev
	.section	.text._ZSt20__throw_bad_weak_ptrv,"axG",%progbits,_ZSt20__throw_bad_weak_ptrv,comdat
	.align	2
	.weak	_ZSt20__throw_bad_weak_ptrv
	.syntax unified
	.arm
	.fpu vfp
	.type	_ZSt20__throw_bad_weak_ptrv, %function
_ZSt20__throw_bad_weak_ptrv:
	.fnstart
.LFB1746:
	@ args = 0, pretend = 0, frame = 0
	@ frame_needed = 0, uses_anonymous_args = 0
	push	{r4, lr}
	.save {r4, lr}
	mov	r0, #4
	bl	__cxa_allocate_exception(PLT)
	ldr	r3, .L913
	ldr	ip, .L913+4
.LPIC89:
	add	r3, pc, r3
	ldr	r2, .L913+8
	ldr	ip, [r3, ip]
	ldr	r1, .L913+12
	add	ip, ip, #8
	str	ip, [r0]
	ldr	r2, [r3, r2]
	ldr	r1, [r3, r1]
	bl	__cxa_throw(PLT)
.L914:
	.align	2
.L913:
	.word	_GLOBAL_OFFSET_TABLE_-(.LPIC89+8)
	.word	_ZTVSt12bad_weak_ptr(GOT)
	.word	_ZNSt12bad_weak_ptrD1Ev(GOT)
	.word	_ZTISt12bad_weak_ptr(GOT)
	.fnend
	.size	_ZSt20__throw_bad_weak_ptrv, .-_ZSt20__throw_bad_weak_ptrv
	.section	.text._ZNSt16_Sp_counted_baseILN9__gnu_cxx12_Lock_policyE1EE15_M_add_ref_lockEv,"axG",%progbits,_ZNSt16_Sp_counted_baseILN9__gnu_cxx12_Lock_policyE1EE15_M_add_ref_lockEv,comdat
	.align	2
	.weak	_ZNSt16_Sp_counted_baseILN9__gnu_cxx12_Lock_policyE1EE15_M_add_ref_lockEv
	.syntax unified
	.arm
	.fpu vfp
	.type	_ZNSt16_Sp_counted_baseILN9__gnu_cxx12_Lock_policyE1EE15_M_add_ref_lockEv, %function
_ZNSt16_Sp_counted_baseILN9__gnu_cxx12_Lock_policyE1EE15_M_add_ref_lockEv:
	.fnstart
.LFB1762:
	@ args = 0, pretend = 0, frame = 8
	@ frame_needed = 0, uses_anonymous_args = 0
	push	{r4, r5, lr}
	.save {r4, r5, lr}
	.pad #12
	sub	sp, sp, #12
	ldr	r5, .L936
	ldr	r3, .L936+4
.LPIC90:
	add	r5, pc, r5
	mov	r4, r0
	add	r0, r0, #4
	str	r0, [sp, #4]
	ldr	r3, [r5, r3]
	cmp	r3, #0
	beq	.L916
	bl	_ZL26__gthrw_pthread_mutex_lockP15pthread_mutex_t(PLT)
	cmp	r0, #0
	bne	.L935
	add	r3, r4, #28
	mcr	p15, 0, r0, c7, c10, 5
.L932:
	ldrex	r2, [r3]
	add	r1, r2, #1
	strex	r0, r1, [r3]
	cmp	r0, #0
	bne	.L932
	cmp	r2, #0
	mcr	p15, 0, r0, c7, c10, 5
	beq	.L921
	ldr	r0, [sp, #4]
	bl	_ZL28__gthrw_pthread_mutex_unlockP15pthread_mutex_t(PLT)
	cmp	r0, #0
	bne	.L923
.L915:
	add	sp, sp, #12
	@ sp needed
	pop	{r4, r5, pc}
.L916:
	ldr	r3, [r4, #28]
	cmp	r3, #0
	add	r3, r3, #1
	str	r3, [r4, #28]
	bne	.L915
.L921:
	mov	r3, #0
	str	r3, [r4, #28]
.LEHB22:
	bl	_ZSt20__throw_bad_weak_ptrv(PLT)
.LEHE22:
.L924:
	add	r0, sp, #4
	bl	_ZN9__gnu_cxx13__scoped_lockD1Ev(PLT)
.L934:
.LEHB23:
	bl	__cxa_end_cleanup(PLT)
.LEHE23:
.L923:
	mov	r0, #4
	bl	__cxa_allocate_exception(PLT)
	ldr	r1, .L936+8
	ldr	r2, .L936+12
	ldr	r3, .L936+16
	ldr	r1, [r5, r1]
	add	r1, r1, #8
	str	r1, [r0]
	ldr	r2, [r5, r2]
	ldr	r1, [r5, r3]
.LEHB24:
	bl	__cxa_throw(PLT)
.LEHE24:
.L925:
	cmn	r1, #1
	bne	.L934
.LEHB25:
	bl	__cxa_call_unexpected(PLT)
.L935:
	mov	r0, #4
	bl	__cxa_allocate_exception(PLT)
	ldr	r1, .L936+20
	ldr	r2, .L936+24
	ldr	r3, .L936+28
	ldr	r1, [r5, r1]
	add	r1, r1, #8
	str	r1, [r0]
	ldr	r2, [r5, r2]
	ldr	r1, [r5, r3]
	bl	__cxa_throw(PLT)
.LEHE25:
.L937:
	.align	2
.L936:
	.word	_GLOBAL_OFFSET_TABLE_-(.LPIC90+8)
	.word	_ZL28__gthrw___pthread_key_createPjPFvPvE(GOT)
	.word	_ZTVN9__gnu_cxx26__concurrence_unlock_errorE(GOT)
	.word	_ZN9__gnu_cxx26__concurrence_unlock_errorD1Ev(GOT)
	.word	_ZTIN9__gnu_cxx26__concurrence_unlock_errorE(GOT)
	.word	_ZTVN9__gnu_cxx24__concurrence_lock_errorE(GOT)
	.word	_ZN9__gnu_cxx24__concurrence_lock_errorD1Ev(GOT)
	.word	_ZTIN9__gnu_cxx24__concurrence_lock_errorE(GOT)
	.personality	__gxx_personality_v0
	.handlerdata
	.align	2
.LLSDA1762:
	.byte	0xff
	.byte	0x90
	.uleb128 .LLSDATT1762-.LLSDATTD1762
.LLSDATTD1762:
	.byte	0x1
	.uleb128 .LLSDACSE1762-.LLSDACSB1762
.LLSDACSB1762:
	.uleb128 .LEHB22-.LFB1762
	.uleb128 .LEHE22-.LEHB22
	.uleb128 .L924-.LFB1762
	.uleb128 0
	.uleb128 .LEHB23-.LFB1762
	.uleb128 .LEHE23-.LEHB23
	.uleb128 0
	.uleb128 0
	.uleb128 .LEHB24-.LFB1762
	.uleb128 .LEHE24-.LEHB24
	.uleb128 .L925-.LFB1762
	.uleb128 0x1
	.uleb128 .LEHB25-.LFB1762
	.uleb128 .LEHE25-.LEHB25
	.uleb128 0
	.uleb128 0
.LLSDACSE1762:
	.byte	0x7f
	.byte	0
	.align	2
.LLSDATT1762:
	.word	0
	.section	.text._ZNSt16_Sp_counted_baseILN9__gnu_cxx12_Lock_policyE1EE15_M_add_ref_lockEv,"axG",%progbits,_ZNSt16_Sp_counted_baseILN9__gnu_cxx12_Lock_policyE1EE15_M_add_ref_lockEv,comdat
	.fnend
	.size	_ZNSt16_Sp_counted_baseILN9__gnu_cxx12_Lock_policyE1EE15_M_add_ref_lockEv, .-_ZNSt16_Sp_counted_baseILN9__gnu_cxx12_Lock_policyE1EE15_M_add_ref_lockEv
	.section	.text._ZN7openpal6LoggerD2Ev,"axG",%progbits,_ZN7openpal6LoggerD5Ev,comdat
	.align	2
	.weak	_ZN7openpal6LoggerD2Ev
	.syntax unified
	.arm
	.fpu vfp
	.type	_ZN7openpal6LoggerD2Ev, %function
_ZN7openpal6LoggerD2Ev:
	.fnstart
.LFB2694:
	@ args = 0, pretend = 0, frame = 0
	@ frame_needed = 0, uses_anonymous_args = 0
	push	{r4, r5, r6, lr}
	mov	r4, r0
	ldr	r5, [r0, #12]
	ldr	r6, .L965
	cmp	r5, #0
.LPIC91:
	add	r6, pc, r6
	beq	.L940
	ldr	r3, .L965+4
	ldr	r3, [r6, r3]
	cmp	r3, #0
	beq	.L941
	add	r3, r5, #28
	mcr	p15, 0, r0, c7, c10, 5
.L957:
	ldrex	r2, [r3]
	sub	r1, r2, #1
	strex	r0, r1, [r3]
	cmp	r0, #0
	bne	.L957
	cmp	r2, #1
	mcr	p15, 0, r0, c7, c10, 5
	beq	.L963
.L940:
	ldr	r5, [r4, #4]
	cmp	r5, #0
	beq	.L953
	ldr	r3, .L965+4
	ldr	r3, [r6, r3]
	cmp	r3, #0
	beq	.L947
	add	r3, r5, #28
	mcr	p15, 0, r0, c7, c10, 5
.L956:
	ldrex	r2, [r3]
	sub	r1, r2, #1
	strex	r0, r1, [r3]
	cmp	r0, #0
	bne	.L956
	cmp	r2, #1
	mcr	p15, 0, r0, c7, c10, 5
	beq	.L964
.L953:
	mov	r0, r4
	pop	{r4, r5, r6, pc}
.L941:
	ldr	r3, [r5, #28]
	cmp	r3, #1
	sub	r3, r3, #1
	str	r3, [r5, #28]
	bne	.L940
	ldr	r3, [r5]
	mov	r0, r5
	ldr	r3, [r3, #8]
	blx	r3
	mcr	p15, 0, r0, c7, c10, 5
	ldr	r2, [r5, #32]
	sub	r3, r2, #1
	str	r3, [r5, #32]
	b	.L951
.L947:
	ldr	r3, [r5, #28]
	cmp	r3, #1
	sub	r3, r3, #1
	str	r3, [r5, #28]
	bne	.L953
	ldr	r3, [r5]
	mov	r0, r5
	ldr	r3, [r3, #8]
	blx	r3
	mcr	p15, 0, r0, c7, c10, 5
	ldr	r2, [r5, #32]
	sub	r3, r2, #1
	str	r3, [r5, #32]
	b	.L952
.L964:
	ldr	r3, [r5]
	mov	r0, r5
	ldr	r3, [r3, #8]
	blx	r3
	add	r3, r5, #32
	mcr	p15, 0, r0, c7, c10, 5
	mcr	p15, 0, r0, c7, c10, 5
.L954:
	ldrex	r2, [r3]
	sub	r1, r2, #1
	strex	r0, r1, [r3]
	cmp	r0, #0
	bne	.L954
	mcr	p15, 0, r0, c7, c10, 5
.L952:
	cmp	r2, #1
	bne	.L953
	ldr	r3, [r5]
	mov	r0, r5
	ldr	r3, [r3, #12]
	blx	r3
	b	.L953
.L963:
	ldr	r3, [r5]
	mov	r0, r5
	ldr	r3, [r3, #8]
	blx	r3
	add	r3, r5, #32
	mcr	p15, 0, r0, c7, c10, 5
	mcr	p15, 0, r0, c7, c10, 5
.L955:
	ldrex	r2, [r3]
	sub	r1, r2, #1
	strex	r0, r1, [r3]
	cmp	r0, #0
	bne	.L955
	mcr	p15, 0, r0, c7, c10, 5
.L951:
	cmp	r2, #1
	bne	.L940
	ldr	r3, [r5]
	mov	r0, r5
	ldr	r3, [r3, #12]
	blx	r3
	b	.L940
.L966:
	.align	2
.L965:
	.word	_GLOBAL_OFFSET_TABLE_-(.LPIC91+8)
	.word	_ZL28__gthrw___pthread_key_createPjPFvPvE(GOT)
	.cantunwind
	.fnend
	.size	_ZN7openpal6LoggerD2Ev, .-_ZN7openpal6LoggerD2Ev
	.weak	_ZN7openpal6LoggerD1Ev
	.set	_ZN7openpal6LoggerD1Ev,_ZN7openpal6LoggerD2Ev
	.section	.text._ZNSt12system_errorC2ESt10error_codePKc,"axG",%progbits,_ZNSt12system_errorC5ESt10error_codePKc,comdat
	.align	2
	.weak	_ZNSt12system_errorC2ESt10error_codePKc
	.syntax unified
	.arm
	.fpu vfp
	.type	_ZNSt12system_errorC2ESt10error_codePKc, %function
_ZNSt12system_errorC2ESt10error_codePKc:
	.fnstart
.LFB3297:
	@ args = 0, pretend = 0, frame = 80
	@ frame_needed = 0, uses_anonymous_args = 0
	push	{r4, r5, r6, r7, r8, r9, r10, fp, lr}
	.save {r4, r5, r6, r7, r8, r9, r10, fp, lr}
	.pad #92
	sub	sp, sp, #92
	add	r4, sp, #8
	add	r8, sp, #64
	stm	r4, {r1, r2}
	ldr	r2, [sp, #12]
	mov	r5, r0
	mov	r1, r2
	ldr	ip, [r2]
	mov	r0, r8
	ldr	r2, [sp, #8]
	ldr	r6, [ip, #16]
	mov	r7, r3
.LEHB26:
	blx	r6
.LEHE26:
	mov	r3, #2
	str	r3, [sp]
	ldr	r3, .L986
	mov	r2, #0
	ldr	r9, .L986+4
	mov	r0, r8
	mov	r1, r2
.LPIC92:
	add	r3, pc, r3
.LPIC93:
	add	r9, pc, r9
.LEHB27:
	bl	_ZNSt7__cxx1112basic_stringIcSt11char_traitsIcESaIcEE10_M_replaceEjjPKcj(PLT)
.LEHE27:
	mov	lr, r0
	add	r6, sp, #48
	str	r6, [sp, #40]
	ldr	r3, [lr], #8
	mov	ip, r0
	cmp	r3, lr
	moveq	r10, r6
	ldreq	r0, [lr]	@ unaligned
	ldreq	r1, [lr, #4]	@ unaligned
	ldreq	r2, [lr, #8]	@ unaligned
	ldreq	r3, [lr, #12]	@ unaligned
	ldrne	r2, [ip, #8]
	strne	r3, [sp, #40]
	stmiaeq	r10!, {r0, r1, r2, r3}
	mov	fp, #0
	strne	r2, [sp, #48]
	ldr	r3, [ip, #4]
	strb	fp, [ip, #8]
	str	r3, [sp, #44]
	mov	r0, r7
	str	lr, [ip]
	str	fp, [ip, #4]
	bl	strlen(PLT)
	add	r10, sp, #40
	mov	r3, r7
	mov	r2, fp
	mov	r1, fp
	str	r0, [sp]
	mov	r0, r10
.LEHB28:
	bl	_ZNSt7__cxx1112basic_stringIcSt11char_traitsIcESaIcEE10_M_replaceEjjPKcj(PLT)
.LEHE28:
	mov	lr, r0
	add	r7, sp, #24
	str	r7, [sp, #16]
	ldr	r3, [lr], #8
	mov	ip, r0
	cmp	r3, lr
	moveq	fp, r7
	ldreq	r0, [lr]	@ unaligned
	ldreq	r1, [lr, #4]	@ unaligned
	ldreq	r2, [lr, #8]	@ unaligned
	ldreq	r3, [lr, #12]	@ unaligned
	ldrne	r2, [ip, #8]
	strne	r3, [sp, #16]
	stmiaeq	fp!, {r0, r1, r2, r3}
	mov	r3, #0
	strne	r2, [sp, #24]
	ldr	r2, [ip, #4]
	add	fp, sp, #16
	str	r2, [sp, #20]
	strb	r3, [ip, #8]
	str	lr, [ip]
	str	r3, [ip, #4]
	mov	r1, fp
	mov	r0, r5
.LEHB29:
	bl	_ZNSt13runtime_errorC2ERKNSt7__cxx1112basic_stringIcSt11char_traitsIcESaIcEEE(PLT)
.LEHE29:
	ldr	r0, [sp, #16]
	cmp	r0, r7
	beq	.L972
	bl	_ZdlPv(PLT)
.L972:
	ldr	r0, [sp, #40]
	cmp	r0, r6
	beq	.L973
	bl	_ZdlPv(PLT)
.L973:
	ldr	r0, [sp, #64]
	add	r3, sp, #72
	cmp	r0, r3
	beq	.L974
	bl	_ZdlPv(PLT)
.L974:
	ldr	r2, .L986+8
	ldm	r4, {r0, r1}
	mov	r3, r5
	ldr	r2, [r9, r2]
	add	r2, r2, #8
	str	r2, [r3], #8
	stm	r3, {r0, r1}
	mov	r0, r5
	add	sp, sp, #92
	@ sp needed
	pop	{r4, r5, r6, r7, r8, r9, r10, fp, pc}
.L981:
.L979:
	ldr	r0, [sp, #64]
	add	r8, r8, #8
	cmp	r0, r8
	beq	.L980
	bl	_ZdlPv(PLT)
.L980:
.LEHB30:
	bl	__cxa_end_cleanup(PLT)
.LEHE30:
.L983:
	ldr	r0, [sp, #16]
	add	fp, fp, #8
	cmp	r0, fp
	beq	.L977
	bl	_ZdlPv(PLT)
.L977:
	ldr	r0, [sp, #40]
	add	r10, r10, #8
	cmp	r0, r10
	beq	.L979
	bl	_ZdlPv(PLT)
	b	.L979
.L982:
	b	.L977
.L987:
	.align	2
.L986:
	.word	.LC21-(.LPIC92+8)
	.word	_GLOBAL_OFFSET_TABLE_-(.LPIC93+8)
	.word	_ZTVSt12system_error(GOT)
	.personality	__gxx_personality_v0
	.handlerdata
.LLSDA3297:
	.byte	0xff
	.byte	0xff
	.byte	0x1
	.uleb128 .LLSDACSE3297-.LLSDACSB3297
.LLSDACSB3297:
	.uleb128 .LEHB26-.LFB3297
	.uleb128 .LEHE26-.LEHB26
	.uleb128 0
	.uleb128 0
	.uleb128 .LEHB27-.LFB3297
	.uleb128 .LEHE27-.LEHB27
	.uleb128 .L981-.LFB3297
	.uleb128 0
	.uleb128 .LEHB28-.LFB3297
	.uleb128 .LEHE28-.LEHB28
	.uleb128 .L982-.LFB3297
	.uleb128 0
	.uleb128 .LEHB29-.LFB3297
	.uleb128 .LEHE29-.LEHB29
	.uleb128 .L983-.LFB3297
	.uleb128 0
	.uleb128 .LEHB30-.LFB3297
	.uleb128 .LEHE30-.LEHB30
	.uleb128 0
	.uleb128 0
.LLSDACSE3297:
	.section	.text._ZNSt12system_errorC2ESt10error_codePKc,"axG",%progbits,_ZNSt12system_errorC5ESt10error_codePKc,comdat
	.fnend
	.size	_ZNSt12system_errorC2ESt10error_codePKc, .-_ZNSt12system_errorC2ESt10error_codePKc
	.weak	_ZNSt12system_errorC1ESt10error_codePKc
	.set	_ZNSt12system_errorC1ESt10error_codePKc,_ZNSt12system_errorC2ESt10error_codePKc
	.section	.text._ZN4asio6detail20posix_tss_ptr_createERj,"axG",%progbits,_ZN4asio6detail20posix_tss_ptr_createERj,comdat
	.align	2
	.weak	_ZN4asio6detail20posix_tss_ptr_createERj
	.syntax unified
	.arm
	.fpu vfp
	.type	_ZN4asio6detail20posix_tss_ptr_createERj, %function
_ZN4asio6detail20posix_tss_ptr_createERj:
	.fnstart
.LFB3375:
	@ args = 0, pretend = 0, frame = 24
	@ frame_needed = 0, uses_anonymous_args = 0
	push	{r4, r5, r6, lr}
	.save {r4, r5, r6, lr}
	mov	r1, #0
	.pad #24
	sub	sp, sp, #24
	bl	pthread_key_create(PLT)
	ldr	r4, .L1002
	ldr	r3, .L1002+4
.LPIC94:
	add	r4, pc, r4
	ldr	r6, [r4, r3]
	ldrb	r3, [r6]	@ zero_extendqisi2
	mcr	p15, 0, r0, c7, c10, 5
	tst	r3, #1
	mov	r5, r0
	beq	.L1000
.L999:
	ldr	r3, .L1002+8
	ldr	r6, [r4, r3]
.L990:
	cmp	r5, #0
	stm	sp, {r5, r6}
	bne	.L1001
	add	sp, sp, #24
	@ sp needed
	pop	{r4, r5, r6, pc}
.L1000:
	mov	r0, r6
	bl	__cxa_guard_acquire(PLT)
	cmp	r0, #0
	beq	.L999
	mov	r0, r6
	bl	__cxa_guard_release(PLT)
	ldr	r3, .L1002+8
	ldr	r1, .L1002+12
	ldr	r2, .L1002+16
	ldr	r6, [r4, r3]
.LPIC95:
	add	r2, pc, r2
	ldr	r1, [r4, r1]
	mov	r0, r6
	bl	__aeabi_atexit(PLT)
	b	.L990
.L1001:
	ldr	r3, .L1002+20
	add	r5, sp, #8
	ldm	sp, {r1, r2}
.LPIC96:
	add	r3, pc, r3
	mov	r0, r5
.LEHB31:
	bl	_ZNSt12system_errorC1ESt10error_codePKc(PLT)
.LEHE31:
	mov	r0, #16
	bl	__cxa_allocate_exception(PLT)
	mov	r1, r5
	mov	r6, r0
	bl	_ZNSt13runtime_errorC2ERKS_(PLT)
	ldr	r3, .L1002+24
	add	r2, sp, #24
	ldr	ip, .L1002+28
	ldmdb	r2, {r0, r1}
	ldr	lr, [r4, r3]
	ldr	r2, .L1002+32
	mov	r3, r6
	add	lr, lr, #8
	str	lr, [r3], #8
	stm	r3, {r0, r1}
	mov	r0, r6
	ldr	r2, [r4, r2]
	ldr	r1, [r4, ip]
.LEHB32:
	bl	__cxa_throw(PLT)
.LEHE32:
.L994:
	mov	r0, r5
	bl	_ZNSt12system_errorD1Ev(PLT)
.LEHB33:
	bl	__cxa_end_cleanup(PLT)
.LEHE33:
.L1003:
	.align	2
.L1002:
	.word	_GLOBAL_OFFSET_TABLE_-(.LPIC94+8)
	.word	_ZGVZN4asio15system_categoryEvE8instance(GOT)
	.word	_ZZN4asio15system_categoryEvE8instance(GOT)
	.word	_ZN4asio6detail15system_categoryD1Ev(GOT)
	.word	__dso_handle-(.LPIC95+8)
	.word	.LC22-(.LPIC96+8)
	.word	_ZTVSt12system_error(GOT)
	.word	_ZTISt12system_error(GOT)
	.word	_ZNSt12system_errorD1Ev(GOT)
	.personality	__gxx_personality_v0
	.handlerdata
.LLSDA3375:
	.byte	0xff
	.byte	0xff
	.byte	0x1
	.uleb128 .LLSDACSE3375-.LLSDACSB3375
.LLSDACSB3375:
	.uleb128 .LEHB31-.LFB3375
	.uleb128 .LEHE31-.LEHB31
	.uleb128 0
	.uleb128 0
	.uleb128 .LEHB32-.LFB3375
	.uleb128 .LEHE32-.LEHB32
	.uleb128 .L994-.LFB3375
	.uleb128 0
	.uleb128 .LEHB33-.LFB3375
	.uleb128 .LEHE33-.LEHB33
	.uleb128 0
	.uleb128 0
.LLSDACSE3375:
	.section	.text._ZN4asio6detail20posix_tss_ptr_createERj,"axG",%progbits,_ZN4asio6detail20posix_tss_ptr_createERj,comdat
	.fnend
	.size	_ZN4asio6detail20posix_tss_ptr_createERj, .-_ZN4asio6detail20posix_tss_ptr_createERj
	.section	.text._ZN4asio28asio_handler_is_continuationEz,"axG",%progbits,_ZN4asio28asio_handler_is_continuationEz,comdat
	.align	2
	.weak	_ZN4asio28asio_handler_is_continuationEz
	.syntax unified
	.arm
	.fpu vfp
	.type	_ZN4asio28asio_handler_is_continuationEz, %function
_ZN4asio28asio_handler_is_continuationEz:
	.fnstart
.LFB3407:
	@ args = 0, pretend = 0, frame = 0
	@ frame_needed = 0, uses_anonymous_args = 0
	@ link register save eliminated.
	mov	r0, #0
	bx	lr
	.cantunwind
	.fnend
	.size	_ZN4asio28asio_handler_is_continuationEz, .-_ZN4asio28asio_handler_is_continuationEz
	.section	.text._ZNSt13__future_base13_State_baseV24waitEv,"axG",%progbits,_ZNSt13__future_base13_State_baseV24waitEv,comdat
	.align	2
	.weak	_ZNSt13__future_base13_State_baseV24waitEv
	.syntax unified
	.arm
	.fpu vfp
	.type	_ZNSt13__future_base13_State_baseV24waitEv, %function
_ZNSt13__future_base13_State_baseV24waitEv:
	.fnstart
.LFB7424:
	@ args = 0, pretend = 0, frame = 0
	@ frame_needed = 0, uses_anonymous_args = 0
	push	{r4, r5, r6, r7, r8, r9, r10, lr}
	.save {r4, r5, r6, r7, r8, r9, r10, lr}
	mov	r4, r0
	mov	r10, r0
	ldr	r3, [r4], #8
	.pad #16
	sub	sp, sp, #16
	ldr	r3, [r3, #8]
	blx	r3
	ldr	r2, [r10, #8]
	mcr	p15, 0, r0, c7, c10, 5
	bic	r2, r2, #-2147483648
	cmp	r2, #1
	beq	.L1007
	mov	r6, #0
	mov	r5, r6
	mov	r9, r6
	mov	r8, r6
	mov	r7, r6
.L1010:
	ldrex	r3, [r4]
	orr	r3, r3, #-2147483648
	strex	r1, r3, [r4]
	cmp	r1, #0
	bne	.L1010
	orr	r2, r2, #-2147483648
	str	r9, [sp, #8]
	str	r8, [sp, #12]
	str	r6, [sp]
	str	r5, [sp, #4]
	mov	r3, r7
	mov	r1, r4
	mov	r0, r4
	bl	_ZNSt28__atomic_futex_unsigned_base19_M_futex_wait_untilEPjjbNSt6chrono8durationIxSt5ratioILx1ELx1EEEENS2_IxS3_ILx1ELx1000000000EEEE(PLT)
	ldr	r2, [r4]
	mcr	p15, 0, r0, c7, c10, 5
	bic	r2, r2, #-2147483648
	eor	r0, r0, #1
	cmp	r2, #1
	orreq	r0, r0, #1
	tst	r0, #255
	beq	.L1010
.L1007:
	ldr	r0, [r10, #4]
	add	sp, sp, #16
	@ sp needed
	pop	{r4, r5, r6, r7, r8, r9, r10, pc}
	.fnend
	.size	_ZNSt13__future_base13_State_baseV24waitEv, .-_ZNSt13__future_base13_State_baseV24waitEv
	.section	.text._ZZSt9call_onceIMNSt13__future_base13_State_baseV2EFvPSt8functionIFSt10unique_ptrINS0_12_Result_baseENS4_8_DeleterEEvEEPbEJPS1_S9_SA_EEvRSt9once_flagOT_DpOT0_ENKUlvE0_clEv,"axG",%progbits,_ZZSt9call_onceIMNSt13__future_base13_State_baseV2EFvPSt8functionIFSt10unique_ptrINS0_12_Result_baseENS4_8_DeleterEEvEEPbEJPS1_S9_SA_EEvRSt9once_flagOT_DpOT0_ENKUlvE0_clEv,comdat
	.align	2
	.weak	_ZZSt9call_onceIMNSt13__future_base13_State_baseV2EFvPSt8functionIFSt10unique_ptrINS0_12_Result_baseENS4_8_DeleterEEvEEPbEJPS1_S9_SA_EEvRSt9once_flagOT_DpOT0_ENKUlvE0_clEv
	.syntax unified
	.arm
	.fpu vfp
	.type	_ZZSt9call_onceIMNSt13__future_base13_State_baseV2EFvPSt8functionIFSt10unique_ptrINS0_12_Result_baseENS4_8_DeleterEEvEEPbEJPS1_S9_SA_EEvRSt9once_flagOT_DpOT0_ENKUlvE0_clEv, %function
_ZZSt9call_onceIMNSt13__future_base13_State_baseV2EFvPSt8functionIFSt10unique_ptrINS0_12_Result_baseENS4_8_DeleterEEvEEPbEJPS1_S9_SA_EEvRSt9once_flagOT_DpOT0_ENKUlvE0_clEv:
	.fnstart
.LFB9155:
	@ args = 0, pretend = 0, frame = 0
	@ frame_needed = 0, uses_anonymous_args = 0
	ldr	r0, .L1016
	push	{r4, lr}
.LPIC97:
	add	r0, pc, r0
	bl	__tls_get_addr(PLT)
	ldr	r3, [r0]
	ldr	lr, [r3]
	ldmib	r3, {r1, r2}
	ldr	r3, [r3, #12]
	ldr	ip, [lr, #4]
	ldr	r0, [r1]
	tst	ip, #1
	ldr	r1, [r2]
	ldr	r2, [r3]
	ldr	r3, [lr]
	ldrne	lr, [r0, ip, asr #1]
	addeq	r0, r0, ip, asr #1
	addne	r0, r0, ip, asr #1
	ldrne	r3, [lr, r3]
	pop	{r4, lr}
	bx	r3	@ indirect register sibling call
.L1017:
	.align	2
.L1016:
	.word	_ZSt15__once_callable(tlsgd) + (. - .LPIC97 - 8)
	.cantunwind
	.fnend
	.size	_ZZSt9call_onceIMNSt13__future_base13_State_baseV2EFvPSt8functionIFSt10unique_ptrINS0_12_Result_baseENS4_8_DeleterEEvEEPbEJPS1_S9_SA_EEvRSt9once_flagOT_DpOT0_ENKUlvE0_clEv, .-_ZZSt9call_onceIMNSt13__future_base13_State_baseV2EFvPSt8functionIFSt10unique_ptrINS0_12_Result_baseENS4_8_DeleterEEvEEPbEJPS1_S9_SA_EEvRSt9once_flagOT_DpOT0_ENKUlvE0_clEv
	.section	.text._ZSt18make_exception_ptrISt12future_errorENSt15__exception_ptr13exception_ptrET_,"axG",%progbits,_ZSt18make_exception_ptrISt12future_errorENSt15__exception_ptr13exception_ptrET_,comdat
	.align	2
	.weak	_ZSt18make_exception_ptrISt12future_errorENSt15__exception_ptr13exception_ptrET_
	.syntax unified
	.arm
	.fpu vfp
	.type	_ZSt18make_exception_ptrISt12future_errorENSt15__exception_ptr13exception_ptrET_, %function
_ZSt18make_exception_ptrISt12future_errorENSt15__exception_ptr13exception_ptrET_:
	.fnstart
.LFB9196:
	@ args = 0, pretend = 0, frame = 0
	@ frame_needed = 0, uses_anonymous_args = 0
	push	{r4, r5, r6, r7, r8, lr}
	.save {r4, r5, r6, r7, r8, lr}
	mov	r5, r0
	mov	r0, #16
	mov	r4, r1
	bl	__cxa_allocate_exception(PLT)
	mov	r1, r4
	add	r4, r4, #8
	mov	r6, r0
	bl	_ZNSt11logic_errorC2ERKS_(PLT)
	ldr	r3, .L1022
	ldr	r2, .L1022+4
.LPIC98:
	add	r3, pc, r3
	ldm	r4, {r0, r1}
	ldr	r7, [r3, r2]
	ldr	lr, .L1022+8
	ldr	ip, .L1022+12
	mov	r2, r6
	add	r4, r7, #8
	str	r4, [r2], #8
	stm	r2, {r0, r1}
	mov	r0, r6
	ldr	r2, [r3, lr]
	ldr	r1, [r3, ip]
.LEHB34:
	bl	__cxa_throw(PLT)
.LEHE34:
.L1020:
	bl	__cxa_begin_catch(PLT)
	mov	r0, r5
	bl	_ZSt17current_exceptionv(PLT)
	bl	__cxa_end_catch(PLT)
	mov	r0, r5
	pop	{r4, r5, r6, r7, r8, pc}
.L1023:
	.align	2
.L1022:
	.word	_GLOBAL_OFFSET_TABLE_-(.LPIC98+8)
	.word	_ZTVSt12future_error(GOT)
	.word	_ZNSt12future_errorD1Ev(GOT)
	.word	_ZTISt12future_error(GOT)
	.personality	__gxx_personality_v0
	.handlerdata
	.align	2
.LLSDA9196:
	.byte	0xff
	.byte	0x90
	.uleb128 .LLSDATT9196-.LLSDATTD9196
.LLSDATTD9196:
	.byte	0x1
	.uleb128 .LLSDACSE9196-.LLSDACSB9196
.LLSDACSB9196:
	.uleb128 .LEHB34-.LFB9196
	.uleb128 .LEHE34-.LEHB34
	.uleb128 .L1020-.LFB9196
	.uleb128 0x1
.LLSDACSE9196:
	.byte	0x1
	.byte	0
	.align	2
	.word	0
.LLSDATT9196:
	.section	.text._ZSt18make_exception_ptrISt12future_errorENSt15__exception_ptr13exception_ptrET_,"axG",%progbits,_ZSt18make_exception_ptrISt12future_errorENSt15__exception_ptr13exception_ptrET_,comdat
	.fnend
	.size	_ZSt18make_exception_ptrISt12future_errorENSt15__exception_ptr13exception_ptrET_, .-_ZSt18make_exception_ptrISt12future_errorENSt15__exception_ptr13exception_ptrET_
	.section	.text._ZNSt13__future_base13_State_baseV216_M_break_promiseESt10unique_ptrINS_12_Result_baseENS2_8_DeleterEE,"axG",%progbits,_ZNSt13__future_base13_State_baseV216_M_break_promiseESt10unique_ptrINS_12_Result_baseENS2_8_DeleterEE,comdat
	.align	2
	.weak	_ZNSt13__future_base13_State_baseV216_M_break_promiseESt10unique_ptrINS_12_Result_baseENS2_8_DeleterEE
	.syntax unified
	.arm
	.fpu vfp
	.type	_ZNSt13__future_base13_State_baseV216_M_break_promiseESt10unique_ptrINS_12_Result_baseENS2_8_DeleterEE, %function
_ZNSt13__future_base13_State_baseV216_M_break_promiseESt10unique_ptrINS_12_Result_baseENS2_8_DeleterEE:
	.fnstart
.LFB7452:
	@ args = 0, pretend = 0, frame = 72
	@ frame_needed = 0, uses_anonymous_args = 0
	ldr	r3, [r1]
	push	{r4, r5, r6, r7, r8, r9, r10, fp, lr}
	.save {r4, r5, r6, r7, r8, r9, r10, fp, lr}
	cmp	r3, #0
	ldr	r10, .L1044
	.pad #84
	sub	sp, sp, #84
.LPIC100:
	add	r10, pc, r10
	beq	.L1024
	mov	r4, r1
	mov	r5, r0
	bl	_ZSt15future_categoryv(PLT)
	ldr	ip, [r4]
	mov	r2, #4
	add	ip, ip, r2
	add	r6, sp, #32
	str	ip, [sp, #12]
	ldr	r3, [r0]
	mov	r1, r0
	mov	r9, r0
	ldr	r3, [r3, #16]
	mov	r0, r6
.LEHB35:
	blx	r3
.LEHE35:
	mov	r3, #19
	str	r3, [sp]
	ldr	r3, .L1044+4
	mov	r2, #0
	mov	r0, r6
	mov	r1, r2
.LPIC99:
	add	r3, pc, r3
.LEHB36:
	bl	_ZNSt7__cxx1112basic_stringIcSt11char_traitsIcESaIcEE10_M_replaceEjjPKcj(PLT)
.LEHE36:
	mov	lr, r0
	add	fp, sp, #64
	str	fp, [sp, #56]
	ldr	r3, [lr], #8
	mov	ip, r0
	cmp	r3, lr
	strne	r3, [sp, #56]
	ldreq	r0, [lr]	@ unaligned
	ldreq	r1, [lr, #4]	@ unaligned
	ldreq	r2, [lr, #8]	@ unaligned
	ldreq	r3, [lr, #12]	@ unaligned
	ldrne	r3, [ip, #8]
	moveq	r7, fp
	strne	r3, [sp, #64]
	stmiaeq	r7!, {r0, r1, r2, r3}
	add	r8, sp, #16
	ldr	r2, [ip, #4]
	mov	r3, #0
	add	r7, sp, #56
	str	r2, [sp, #60]
	mov	r1, r7
	str	lr, [ip]
	str	r3, [ip, #4]
	strb	r3, [ip, #8]
	mov	r0, r8
.LEHB37:
	bl	_ZNSt11logic_errorC2ERKNSt7__cxx1112basic_stringIcSt11char_traitsIcESaIcEEE(PLT)
.LEHE37:
	ldr	r0, [sp, #56]
	cmp	r0, fp
	beq	.L1028
	bl	_ZdlPv(PLT)
.L1028:
	ldr	r0, [sp, #32]
	add	r3, sp, #40
	cmp	r0, r3
	beq	.L1029
	bl	_ZdlPv(PLT)
.L1029:
	ldr	r3, .L1044+8
	mov	r2, #4
	mov	r1, r8
	ldr	r3, [r10, r3]
	mov	r0, r6
	add	r3, r3, #8
	str	r3, [sp, #16]
	str	r2, [sp, #24]
	str	r9, [sp, #28]
	bl	_ZSt18make_exception_ptrISt12future_errorENSt15__exception_ptr13exception_ptrET_(PLT)
	ldr	r2, [sp, #32]
	mov	r3, #0
	ldr	r1, [sp, #12]
	mov	r0, r7
	str	r2, [sp, #56]
	str	r3, [sp, #32]
	bl	_ZNSt15__exception_ptr13exception_ptr4swapERS0_(PLT)
	mov	r0, r7
	bl	_ZNSt15__exception_ptr13exception_ptrD1Ev(PLT)
	mov	r0, r6
	bl	_ZNSt15__exception_ptr13exception_ptrD1Ev(PLT)
	mov	r0, r8
	bl	_ZNSt12future_errorD1Ev(PLT)
	ldr	r2, [r5, #4]
	ldr	r3, [r4]
	add	r0, r5, #8
	str	r2, [r4]
	mov	r2, #1
	str	r3, [r5, #4]
	mcr	p15, 0, r0, c7, c10, 5
.L1040:
	ldrex	r3, [r0]
	strex	r1, r2, [r0]
	cmp	r1, #0
	bne	.L1040
	cmp	r3, #0
	blt	.L1043
.L1024:
	add	sp, sp, #84
	@ sp needed
	pop	{r4, r5, r6, r7, r8, r9, r10, fp, pc}
.L1043:
.LEHB38:
	bl	_ZNSt28__atomic_futex_unsigned_base19_M_futex_notify_allEPj(PLT)
	add	sp, sp, #84
	@ sp needed
	pop	{r4, r5, r6, r7, r8, r9, r10, fp, pc}
.L1035:
.L1033:
	ldr	r0, [sp, #32]
	add	r6, r6, #8
	cmp	r0, r6
	beq	.L1034
	bl	_ZdlPv(PLT)
.L1034:
	bl	__cxa_end_cleanup(PLT)
.LEHE38:
.L1036:
	ldr	r0, [sp, #56]
	add	r7, r7, #8
	cmp	r0, r7
	beq	.L1033
	bl	_ZdlPv(PLT)
	b	.L1033
.L1045:
	.align	2
.L1044:
	.word	_GLOBAL_OFFSET_TABLE_-(.LPIC100+8)
	.word	.LC23-(.LPIC99+8)
	.word	_ZTVSt12future_error(GOT)
	.personality	__gxx_personality_v0
	.handlerdata
.LLSDA7452:
	.byte	0xff
	.byte	0xff
	.byte	0x1
	.uleb128 .LLSDACSE7452-.LLSDACSB7452
.LLSDACSB7452:
	.uleb128 .LEHB35-.LFB7452
	.uleb128 .LEHE35-.LEHB35
	.uleb128 0
	.uleb128 0
	.uleb128 .LEHB36-.LFB7452
	.uleb128 .LEHE36-.LEHB36
	.uleb128 .L1035-.LFB7452
	.uleb128 0
	.uleb128 .LEHB37-.LFB7452
	.uleb128 .LEHE37-.LEHB37
	.uleb128 .L1036-.LFB7452
	.uleb128 0
	.uleb128 .LEHB38-.LFB7452
	.uleb128 .LEHE38-.LEHB38
	.uleb128 0
	.uleb128 0
.LLSDACSE7452:
	.section	.text._ZNSt13__future_base13_State_baseV216_M_break_promiseESt10unique_ptrINS_12_Result_baseENS2_8_DeleterEE,"axG",%progbits,_ZNSt13__future_base13_State_baseV216_M_break_promiseESt10unique_ptrINS_12_Result_baseENS2_8_DeleterEE,comdat
	.fnend
	.size	_ZNSt13__future_base13_State_baseV216_M_break_promiseESt10unique_ptrINS_12_Result_baseENS2_8_DeleterEE, .-_ZNSt13__future_base13_State_baseV216_M_break_promiseESt10unique_ptrINS_12_Result_baseENS2_8_DeleterEE
	.section	.text._ZZZN8asiodnp311DNP3Channel8AddStackINS_11MasterStackEEESt10shared_ptrIT_ERKN8opendnp310LinkConfigERKS5_ENKUlvE_clEvENUlvE_D2Ev,"axG",%progbits,_ZZZN8asiodnp311DNP3Channel8AddStackINS_11MasterStackEEESt10shared_ptrIT_ERKN8opendnp310LinkConfigERKS5_ENKUlvE_clEvENUlvE_D5Ev,comdat
	.align	2
	.weak	_ZZZN8asiodnp311DNP3Channel8AddStackINS_11MasterStackEEESt10shared_ptrIT_ERKN8opendnp310LinkConfigERKS5_ENKUlvE_clEvENUlvE_D2Ev
	.syntax unified
	.arm
	.fpu vfp
	.type	_ZZZN8asiodnp311DNP3Channel8AddStackINS_11MasterStackEEESt10shared_ptrIT_ERKN8opendnp310LinkConfigERKS5_ENKUlvE_clEvENUlvE_D2Ev, %function
_ZZZN8asiodnp311DNP3Channel8AddStackINS_11MasterStackEEESt10shared_ptrIT_ERKN8opendnp310LinkConfigERKS5_ENKUlvE_clEvENUlvE_D2Ev:
	.fnstart
.LFB9559:
	@ args = 0, pretend = 0, frame = 0
	@ frame_needed = 0, uses_anonymous_args = 0
	push	{r4, r5, r6, lr}
	mov	r4, r0
	ldr	r5, [r0, #16]
	ldr	r6, .L1073
	cmp	r5, #0
.LPIC101:
	add	r6, pc, r6
	beq	.L1048
	ldr	r3, .L1073+4
	ldr	r3, [r6, r3]
	cmp	r3, #0
	beq	.L1049
	add	r3, r5, #28
	mcr	p15, 0, r0, c7, c10, 5
.L1065:
	ldrex	r2, [r3]
	sub	r1, r2, #1
	strex	r0, r1, [r3]
	cmp	r0, #0
	bne	.L1065
	cmp	r2, #1
	mcr	p15, 0, r0, c7, c10, 5
	beq	.L1071
.L1048:
	ldr	r5, [r4, #4]
	cmp	r5, #0
	beq	.L1061
	ldr	r3, .L1073+4
	ldr	r3, [r6, r3]
	cmp	r3, #0
	beq	.L1055
	add	r3, r5, #28
	mcr	p15, 0, r0, c7, c10, 5
.L1064:
	ldrex	r2, [r3]
	sub	r1, r2, #1
	strex	r0, r1, [r3]
	cmp	r0, #0
	bne	.L1064
	cmp	r2, #1
	mcr	p15, 0, r0, c7, c10, 5
	beq	.L1072
.L1061:
	mov	r0, r4
	pop	{r4, r5, r6, pc}
.L1049:
	ldr	r3, [r5, #28]
	cmp	r3, #1
	sub	r3, r3, #1
	str	r3, [r5, #28]
	bne	.L1048
	ldr	r3, [r5]
	mov	r0, r5
	ldr	r3, [r3, #8]
	blx	r3
	mcr	p15, 0, r0, c7, c10, 5
	ldr	r2, [r5, #32]
	sub	r3, r2, #1
	str	r3, [r5, #32]
	b	.L1059
.L1055:
	ldr	r3, [r5, #28]
	cmp	r3, #1
	sub	r3, r3, #1
	str	r3, [r5, #28]
	bne	.L1061
	ldr	r3, [r5]
	mov	r0, r5
	ldr	r3, [r3, #8]
	blx	r3
	mcr	p15, 0, r0, c7, c10, 5
	ldr	r2, [r5, #32]
	sub	r3, r2, #1
	str	r3, [r5, #32]
	b	.L1060
.L1072:
	ldr	r3, [r5]
	mov	r0, r5
	ldr	r3, [r3, #8]
	blx	r3
	add	r3, r5, #32
	mcr	p15, 0, r0, c7, c10, 5
	mcr	p15, 0, r0, c7, c10, 5
.L1062:
	ldrex	r2, [r3]
	sub	r1, r2, #1
	strex	r0, r1, [r3]
	cmp	r0, #0
	bne	.L1062
	mcr	p15, 0, r0, c7, c10, 5
.L1060:
	cmp	r2, #1
	bne	.L1061
	ldr	r3, [r5]
	mov	r0, r5
	ldr	r3, [r3, #12]
	blx	r3
	b	.L1061
.L1071:
	ldr	r3, [r5]
	mov	r0, r5
	ldr	r3, [r3, #8]
	blx	r3
	add	r3, r5, #32
	mcr	p15, 0, r0, c7, c10, 5
	mcr	p15, 0, r0, c7, c10, 5
.L1063:
	ldrex	r2, [r3]
	sub	r1, r2, #1
	strex	r0, r1, [r3]
	cmp	r0, #0
	bne	.L1063
	mcr	p15, 0, r0, c7, c10, 5
.L1059:
	cmp	r2, #1
	bne	.L1048
	ldr	r3, [r5]
	mov	r0, r5
	ldr	r3, [r3, #12]
	blx	r3
	b	.L1048
.L1074:
	.align	2
.L1073:
	.word	_GLOBAL_OFFSET_TABLE_-(.LPIC101+8)
	.word	_ZL28__gthrw___pthread_key_createPjPFvPvE(GOT)
	.cantunwind
	.fnend
	.size	_ZZZN8asiodnp311DNP3Channel8AddStackINS_11MasterStackEEESt10shared_ptrIT_ERKN8opendnp310LinkConfigERKS5_ENKUlvE_clEvENUlvE_D2Ev, .-_ZZZN8asiodnp311DNP3Channel8AddStackINS_11MasterStackEEESt10shared_ptrIT_ERKN8opendnp310LinkConfigERKS5_ENKUlvE_clEvENUlvE_D2Ev
	.weak	_ZZZN8asiodnp311DNP3Channel8AddStackINS_11MasterStackEEESt10shared_ptrIT_ERKN8opendnp310LinkConfigERKS5_ENKUlvE_clEvENUlvE_D1Ev
	.set	_ZZZN8asiodnp311DNP3Channel8AddStackINS_11MasterStackEEESt10shared_ptrIT_ERKN8opendnp310LinkConfigERKS5_ENKUlvE_clEvENUlvE_D1Ev,_ZZZN8asiodnp311DNP3Channel8AddStackINS_11MasterStackEEESt10shared_ptrIT_ERKN8opendnp310LinkConfigERKS5_ENKUlvE_clEvENUlvE_D2Ev
	.section	.text._ZZN8asiodnp311DNP3Channel8AddStackINS_11MasterStackEEESt10shared_ptrIT_ERKN8opendnp310LinkConfigERKS5_ENUlvE_D2Ev,"axG",%progbits,_ZZN8asiodnp311DNP3Channel8AddStackINS_11MasterStackEEESt10shared_ptrIT_ERKN8opendnp310LinkConfigERKS5_ENUlvE_D5Ev,comdat
	.align	2
	.weak	_ZZN8asiodnp311DNP3Channel8AddStackINS_11MasterStackEEESt10shared_ptrIT_ERKN8opendnp310LinkConfigERKS5_ENUlvE_D2Ev
	.syntax unified
	.arm
	.fpu vfp
	.type	_ZZN8asiodnp311DNP3Channel8AddStackINS_11MasterStackEEESt10shared_ptrIT_ERKN8opendnp310LinkConfigERKS5_ENUlvE_D2Ev, %function
_ZZN8asiodnp311DNP3Channel8AddStackINS_11MasterStackEEESt10shared_ptrIT_ERKN8opendnp310LinkConfigERKS5_ENUlvE_D2Ev:
	.fnstart
.LFB9580:
	@ args = 0, pretend = 0, frame = 0
	@ frame_needed = 0, uses_anonymous_args = 0
	push	{r4, r5, r6, lr}
	mov	r4, r0
	ldr	r5, [r0, #16]
	ldr	r6, .L1102
	cmp	r5, #0
.LPIC102:
	add	r6, pc, r6
	beq	.L1077
	ldr	r3, .L1102+4
	ldr	r3, [r6, r3]
	cmp	r3, #0
	beq	.L1078
	add	r3, r5, #28
	mcr	p15, 0, r0, c7, c10, 5
.L1094:
	ldrex	r2, [r3]
	sub	r1, r2, #1
	strex	r0, r1, [r3]
	cmp	r0, #0
	bne	.L1094
	cmp	r2, #1
	mcr	p15, 0, r0, c7, c10, 5
	beq	.L1100
.L1077:
	ldr	r5, [r4, #4]
	cmp	r5, #0
	beq	.L1090
	ldr	r3, .L1102+4
	ldr	r3, [r6, r3]
	cmp	r3, #0
	beq	.L1084
	add	r3, r5, #28
	mcr	p15, 0, r0, c7, c10, 5
.L1093:
	ldrex	r2, [r3]
	sub	r1, r2, #1
	strex	r0, r1, [r3]
	cmp	r0, #0
	bne	.L1093
	cmp	r2, #1
	mcr	p15, 0, r0, c7, c10, 5
	beq	.L1101
.L1090:
	mov	r0, r4
	pop	{r4, r5, r6, pc}
.L1078:
	ldr	r3, [r5, #28]
	cmp	r3, #1
	sub	r3, r3, #1
	str	r3, [r5, #28]
	bne	.L1077
	ldr	r3, [r5]
	mov	r0, r5
	ldr	r3, [r3, #8]
	blx	r3
	mcr	p15, 0, r0, c7, c10, 5
	ldr	r2, [r5, #32]
	sub	r3, r2, #1
	str	r3, [r5, #32]
	b	.L1088
.L1084:
	ldr	r3, [r5, #28]
	cmp	r3, #1
	sub	r3, r3, #1
	str	r3, [r5, #28]
	bne	.L1090
	ldr	r3, [r5]
	mov	r0, r5
	ldr	r3, [r3, #8]
	blx	r3
	mcr	p15, 0, r0, c7, c10, 5
	ldr	r2, [r5, #32]
	sub	r3, r2, #1
	str	r3, [r5, #32]
	b	.L1089
.L1101:
	ldr	r3, [r5]
	mov	r0, r5
	ldr	r3, [r3, #8]
	blx	r3
	add	r3, r5, #32
	mcr	p15, 0, r0, c7, c10, 5
	mcr	p15, 0, r0, c7, c10, 5
.L1091:
	ldrex	r2, [r3]
	sub	r1, r2, #1
	strex	r0, r1, [r3]
	cmp	r0, #0
	bne	.L1091
	mcr	p15, 0, r0, c7, c10, 5
.L1089:
	cmp	r2, #1
	bne	.L1090
	ldr	r3, [r5]
	mov	r0, r5
	ldr	r3, [r3, #12]
	blx	r3
	b	.L1090
.L1100:
	ldr	r3, [r5]
	mov	r0, r5
	ldr	r3, [r3, #8]
	blx	r3
	add	r3, r5, #32
	mcr	p15, 0, r0, c7, c10, 5
	mcr	p15, 0, r0, c7, c10, 5
.L1092:
	ldrex	r2, [r3]
	sub	r1, r2, #1
	strex	r0, r1, [r3]
	cmp	r0, #0
	bne	.L1092
	mcr	p15, 0, r0, c7, c10, 5
.L1088:
	cmp	r2, #1
	bne	.L1077
	ldr	r3, [r5]
	mov	r0, r5
	ldr	r3, [r3, #12]
	blx	r3
	b	.L1077
.L1103:
	.align	2
.L1102:
	.word	_GLOBAL_OFFSET_TABLE_-(.LPIC102+8)
	.word	_ZL28__gthrw___pthread_key_createPjPFvPvE(GOT)
	.cantunwind
	.fnend
	.size	_ZZN8asiodnp311DNP3Channel8AddStackINS_11MasterStackEEESt10shared_ptrIT_ERKN8opendnp310LinkConfigERKS5_ENUlvE_D2Ev, .-_ZZN8asiodnp311DNP3Channel8AddStackINS_11MasterStackEEESt10shared_ptrIT_ERKN8opendnp310LinkConfigERKS5_ENUlvE_D2Ev
	.weak	_ZZN8asiodnp311DNP3Channel8AddStackINS_11MasterStackEEESt10shared_ptrIT_ERKN8opendnp310LinkConfigERKS5_ENUlvE_D1Ev
	.set	_ZZN8asiodnp311DNP3Channel8AddStackINS_11MasterStackEEESt10shared_ptrIT_ERKN8opendnp310LinkConfigERKS5_ENUlvE_D1Ev,_ZZN8asiodnp311DNP3Channel8AddStackINS_11MasterStackEEESt10shared_ptrIT_ERKN8opendnp310LinkConfigERKS5_ENUlvE_D2Ev
	.section	.text._ZZZN8asiodnp311DNP3Channel8AddStackINS_15OutstationStackEEESt10shared_ptrIT_ERKN8opendnp310LinkConfigERKS5_ENKUlvE_clEvENUlvE_D2Ev,"axG",%progbits,_ZZZN8asiodnp311DNP3Channel8AddStackINS_15OutstationStackEEESt10shared_ptrIT_ERKN8opendnp310LinkConfigERKS5_ENKUlvE_clEvENUlvE_D5Ev,comdat
	.align	2
	.weak	_ZZZN8asiodnp311DNP3Channel8AddStackINS_15OutstationStackEEESt10shared_ptrIT_ERKN8opendnp310LinkConfigERKS5_ENKUlvE_clEvENUlvE_D2Ev
	.syntax unified
	.arm
	.fpu vfp
	.type	_ZZZN8asiodnp311DNP3Channel8AddStackINS_15OutstationStackEEESt10shared_ptrIT_ERKN8opendnp310LinkConfigERKS5_ENKUlvE_clEvENUlvE_D2Ev, %function
_ZZZN8asiodnp311DNP3Channel8AddStackINS_15OutstationStackEEESt10shared_ptrIT_ERKN8opendnp310LinkConfigERKS5_ENKUlvE_clEvENUlvE_D2Ev:
	.fnstart
.LFB9602:
	@ args = 0, pretend = 0, frame = 0
	@ frame_needed = 0, uses_anonymous_args = 0
	push	{r4, r5, r6, lr}
	mov	r4, r0
	ldr	r5, [r0, #16]
	ldr	r6, .L1131
	cmp	r5, #0
.LPIC103:
	add	r6, pc, r6
	beq	.L1106
	ldr	r3, .L1131+4
	ldr	r3, [r6, r3]
	cmp	r3, #0
	beq	.L1107
	add	r3, r5, #28
	mcr	p15, 0, r0, c7, c10, 5
.L1123:
	ldrex	r2, [r3]
	sub	r1, r2, #1
	strex	r0, r1, [r3]
	cmp	r0, #0
	bne	.L1123
	cmp	r2, #1
	mcr	p15, 0, r0, c7, c10, 5
	beq	.L1129
.L1106:
	ldr	r5, [r4, #4]
	cmp	r5, #0
	beq	.L1119
	ldr	r3, .L1131+4
	ldr	r3, [r6, r3]
	cmp	r3, #0
	beq	.L1113
	add	r3, r5, #28
	mcr	p15, 0, r0, c7, c10, 5
.L1122:
	ldrex	r2, [r3]
	sub	r1, r2, #1
	strex	r0, r1, [r3]
	cmp	r0, #0
	bne	.L1122
	cmp	r2, #1
	mcr	p15, 0, r0, c7, c10, 5
	beq	.L1130
.L1119:
	mov	r0, r4
	pop	{r4, r5, r6, pc}
.L1107:
	ldr	r3, [r5, #28]
	cmp	r3, #1
	sub	r3, r3, #1
	str	r3, [r5, #28]
	bne	.L1106
	ldr	r3, [r5]
	mov	r0, r5
	ldr	r3, [r3, #8]
	blx	r3
	mcr	p15, 0, r0, c7, c10, 5
	ldr	r2, [r5, #32]
	sub	r3, r2, #1
	str	r3, [r5, #32]
	b	.L1117
.L1113:
	ldr	r3, [r5, #28]
	cmp	r3, #1
	sub	r3, r3, #1
	str	r3, [r5, #28]
	bne	.L1119
	ldr	r3, [r5]
	mov	r0, r5
	ldr	r3, [r3, #8]
	blx	r3
	mcr	p15, 0, r0, c7, c10, 5
	ldr	r2, [r5, #32]
	sub	r3, r2, #1
	str	r3, [r5, #32]
	b	.L1118
.L1130:
	ldr	r3, [r5]
	mov	r0, r5
	ldr	r3, [r3, #8]
	blx	r3
	add	r3, r5, #32
	mcr	p15, 0, r0, c7, c10, 5
	mcr	p15, 0, r0, c7, c10, 5
.L1120:
	ldrex	r2, [r3]
	sub	r1, r2, #1
	strex	r0, r1, [r3]
	cmp	r0, #0
	bne	.L1120
	mcr	p15, 0, r0, c7, c10, 5
.L1118:
	cmp	r2, #1
	bne	.L1119
	ldr	r3, [r5]
	mov	r0, r5
	ldr	r3, [r3, #12]
	blx	r3
	b	.L1119
.L1129:
	ldr	r3, [r5]
	mov	r0, r5
	ldr	r3, [r3, #8]
	blx	r3
	add	r3, r5, #32
	mcr	p15, 0, r0, c7, c10, 5
	mcr	p15, 0, r0, c7, c10, 5
.L1121:
	ldrex	r2, [r3]
	sub	r1, r2, #1
	strex	r0, r1, [r3]
	cmp	r0, #0
	bne	.L1121
	mcr	p15, 0, r0, c7, c10, 5
.L1117:
	cmp	r2, #1
	bne	.L1106
	ldr	r3, [r5]
	mov	r0, r5
	ldr	r3, [r3, #12]
	blx	r3
	b	.L1106
.L1132:
	.align	2
.L1131:
	.word	_GLOBAL_OFFSET_TABLE_-(.LPIC103+8)
	.word	_ZL28__gthrw___pthread_key_createPjPFvPvE(GOT)
	.cantunwind
	.fnend
	.size	_ZZZN8asiodnp311DNP3Channel8AddStackINS_15OutstationStackEEESt10shared_ptrIT_ERKN8opendnp310LinkConfigERKS5_ENKUlvE_clEvENUlvE_D2Ev, .-_ZZZN8asiodnp311DNP3Channel8AddStackINS_15OutstationStackEEESt10shared_ptrIT_ERKN8opendnp310LinkConfigERKS5_ENKUlvE_clEvENUlvE_D2Ev
	.weak	_ZZZN8asiodnp311DNP3Channel8AddStackINS_15OutstationStackEEESt10shared_ptrIT_ERKN8opendnp310LinkConfigERKS5_ENKUlvE_clEvENUlvE_D1Ev
	.set	_ZZZN8asiodnp311DNP3Channel8AddStackINS_15OutstationStackEEESt10shared_ptrIT_ERKN8opendnp310LinkConfigERKS5_ENKUlvE_clEvENUlvE_D1Ev,_ZZZN8asiodnp311DNP3Channel8AddStackINS_15OutstationStackEEESt10shared_ptrIT_ERKN8opendnp310LinkConfigERKS5_ENKUlvE_clEvENUlvE_D2Ev
	.section	.text._ZZN8asiodnp311DNP3Channel8AddStackINS_15OutstationStackEEESt10shared_ptrIT_ERKN8opendnp310LinkConfigERKS5_ENUlvE_D2Ev,"axG",%progbits,_ZZN8asiodnp311DNP3Channel8AddStackINS_15OutstationStackEEESt10shared_ptrIT_ERKN8opendnp310LinkConfigERKS5_ENUlvE_D5Ev,comdat
	.align	2
	.weak	_ZZN8asiodnp311DNP3Channel8AddStackINS_15OutstationStackEEESt10shared_ptrIT_ERKN8opendnp310LinkConfigERKS5_ENUlvE_D2Ev
	.syntax unified
	.arm
	.fpu vfp
	.type	_ZZN8asiodnp311DNP3Channel8AddStackINS_15OutstationStackEEESt10shared_ptrIT_ERKN8opendnp310LinkConfigERKS5_ENUlvE_D2Ev, %function
_ZZN8asiodnp311DNP3Channel8AddStackINS_15OutstationStackEEESt10shared_ptrIT_ERKN8opendnp310LinkConfigERKS5_ENUlvE_D2Ev:
	.fnstart
.LFB9620:
	@ args = 0, pretend = 0, frame = 0
	@ frame_needed = 0, uses_anonymous_args = 0
	push	{r4, r5, r6, lr}
	mov	r4, r0
	ldr	r5, [r0, #16]
	ldr	r6, .L1160
	cmp	r5, #0
.LPIC104:
	add	r6, pc, r6
	beq	.L1135
	ldr	r3, .L1160+4
	ldr	r3, [r6, r3]
	cmp	r3, #0
	beq	.L1136
	add	r3, r5, #28
	mcr	p15, 0, r0, c7, c10, 5
.L1152:
	ldrex	r2, [r3]
	sub	r1, r2, #1
	strex	r0, r1, [r3]
	cmp	r0, #0
	bne	.L1152
	cmp	r2, #1
	mcr	p15, 0, r0, c7, c10, 5
	beq	.L1158
.L1135:
	ldr	r5, [r4, #4]
	cmp	r5, #0
	beq	.L1148
	ldr	r3, .L1160+4
	ldr	r3, [r6, r3]
	cmp	r3, #0
	beq	.L1142
	add	r3, r5, #28
	mcr	p15, 0, r0, c7, c10, 5
.L1151:
	ldrex	r2, [r3]
	sub	r1, r2, #1
	strex	r0, r1, [r3]
	cmp	r0, #0
	bne	.L1151
	cmp	r2, #1
	mcr	p15, 0, r0, c7, c10, 5
	beq	.L1159
.L1148:
	mov	r0, r4
	pop	{r4, r5, r6, pc}
.L1136:
	ldr	r3, [r5, #28]
	cmp	r3, #1
	sub	r3, r3, #1
	str	r3, [r5, #28]
	bne	.L1135
	ldr	r3, [r5]
	mov	r0, r5
	ldr	r3, [r3, #8]
	blx	r3
	mcr	p15, 0, r0, c7, c10, 5
	ldr	r2, [r5, #32]
	sub	r3, r2, #1
	str	r3, [r5, #32]
	b	.L1146
.L1142:
	ldr	r3, [r5, #28]
	cmp	r3, #1
	sub	r3, r3, #1
	str	r3, [r5, #28]
	bne	.L1148
	ldr	r3, [r5]
	mov	r0, r5
	ldr	r3, [r3, #8]
	blx	r3
	mcr	p15, 0, r0, c7, c10, 5
	ldr	r2, [r5, #32]
	sub	r3, r2, #1
	str	r3, [r5, #32]
	b	.L1147
.L1159:
	ldr	r3, [r5]
	mov	r0, r5
	ldr	r3, [r3, #8]
	blx	r3
	add	r3, r5, #32
	mcr	p15, 0, r0, c7, c10, 5
	mcr	p15, 0, r0, c7, c10, 5
.L1149:
	ldrex	r2, [r3]
	sub	r1, r2, #1
	strex	r0, r1, [r3]
	cmp	r0, #0
	bne	.L1149
	mcr	p15, 0, r0, c7, c10, 5
.L1147:
	cmp	r2, #1
	bne	.L1148
	ldr	r3, [r5]
	mov	r0, r5
	ldr	r3, [r3, #12]
	blx	r3
	b	.L1148
.L1158:
	ldr	r3, [r5]
	mov	r0, r5
	ldr	r3, [r3, #8]
	blx	r3
	add	r3, r5, #32
	mcr	p15, 0, r0, c7, c10, 5
	mcr	p15, 0, r0, c7, c10, 5
.L1150:
	ldrex	r2, [r3]
	sub	r1, r2, #1
	strex	r0, r1, [r3]
	cmp	r0, #0
	bne	.L1150
	mcr	p15, 0, r0, c7, c10, 5
.L1146:
	cmp	r2, #1
	bne	.L1135
	ldr	r3, [r5]
	mov	r0, r5
	ldr	r3, [r3, #12]
	blx	r3
	b	.L1135
.L1161:
	.align	2
.L1160:
	.word	_GLOBAL_OFFSET_TABLE_-(.LPIC104+8)
	.word	_ZL28__gthrw___pthread_key_createPjPFvPvE(GOT)
	.cantunwind
	.fnend
	.size	_ZZN8asiodnp311DNP3Channel8AddStackINS_15OutstationStackEEESt10shared_ptrIT_ERKN8opendnp310LinkConfigERKS5_ENUlvE_D2Ev, .-_ZZN8asiodnp311DNP3Channel8AddStackINS_15OutstationStackEEESt10shared_ptrIT_ERKN8opendnp310LinkConfigERKS5_ENUlvE_D2Ev
	.weak	_ZZN8asiodnp311DNP3Channel8AddStackINS_15OutstationStackEEESt10shared_ptrIT_ERKN8opendnp310LinkConfigERKS5_ENUlvE_D1Ev
	.set	_ZZN8asiodnp311DNP3Channel8AddStackINS_15OutstationStackEEESt10shared_ptrIT_ERKN8opendnp310LinkConfigERKS5_ENUlvE_D1Ev,_ZZN8asiodnp311DNP3Channel8AddStackINS_15OutstationStackEEESt10shared_ptrIT_ERKN8opendnp310LinkConfigERKS5_ENUlvE_D2Ev
	.section	.text._ZNSt16_Sp_counted_baseILN9__gnu_cxx12_Lock_policyE1EE10_M_releaseEv,"axG",%progbits,_ZNSt16_Sp_counted_baseILN9__gnu_cxx12_Lock_policyE1EE10_M_releaseEv,comdat
	.align	2
	.weak	_ZNSt16_Sp_counted_baseILN9__gnu_cxx12_Lock_policyE1EE10_M_releaseEv
	.syntax unified
	.arm
	.fpu vfp
	.type	_ZNSt16_Sp_counted_baseILN9__gnu_cxx12_Lock_policyE1EE10_M_releaseEv, %function
_ZNSt16_Sp_counted_baseILN9__gnu_cxx12_Lock_policyE1EE10_M_releaseEv:
	.fnstart
.LFB9728:
	@ args = 0, pretend = 0, frame = 0
	@ frame_needed = 0, uses_anonymous_args = 0
	ldr	r3, .L1174
	ldr	r2, .L1174+4
.LPIC105:
	add	r3, pc, r3
	push	{r4, r5, r6, lr}
	mov	r4, r0
	ldr	r3, [r3, r2]
	cmp	r3, #0
	beq	.L1163
	add	r3, r0, #28
	mcr	p15, 0, r0, c7, c10, 5
.L1170:
	ldrex	r2, [r3]
	sub	r1, r2, #1
	strex	ip, r1, [r3]
	cmp	ip, #0
	bne	.L1170
	cmp	r2, #1
	mcr	p15, 0, r0, c7, c10, 5
	popne	{r4, r5, r6, pc}
	mov	r5, r4
	ldr	r3, [r5], #32
	ldr	r3, [r3, #8]
	blx	r3
	mcr	p15, 0, r0, c7, c10, 5
	mcr	p15, 0, r0, c7, c10, 5
.L1169:
	ldrex	r3, [r5]
	sub	r2, r3, #1
	strex	r1, r2, [r5]
	cmp	r1, #0
	bne	.L1169
	mcr	p15, 0, r0, c7, c10, 5
.L1168:
	cmp	r3, #1
	popne	{r4, r5, r6, pc}
	ldr	r3, [r4]
	mov	r0, r4
	pop	{r4, r5, r6, lr}
	ldr	r3, [r3, #12]
	bx	r3	@ indirect register sibling call
.L1163:
	ldr	r3, [r0, #28]
	cmp	r3, #1
	sub	r3, r3, #1
	str	r3, [r0, #28]
	popne	{r4, r5, r6, pc}
	ldr	r3, [r0]
	ldr	r3, [r3, #8]
	blx	r3
	mcr	p15, 0, r0, c7, c10, 5
	ldr	r3, [r4, #32]
	sub	r2, r3, #1
	str	r2, [r4, #32]
	b	.L1168
.L1175:
	.align	2
.L1174:
	.word	_GLOBAL_OFFSET_TABLE_-(.LPIC105+8)
	.word	_ZL28__gthrw___pthread_key_createPjPFvPvE(GOT)
	.cantunwind
	.fnend
	.size	_ZNSt16_Sp_counted_baseILN9__gnu_cxx12_Lock_policyE1EE10_M_releaseEv, .-_ZNSt16_Sp_counted_baseILN9__gnu_cxx12_Lock_policyE1EE10_M_releaseEv
	.text
	.align	2
	.syntax unified
	.arm
	.fpu vfp
	.type	_ZNSt14_Function_base13_Base_managerIZN8asiodnp311DNP3Channel8ShutdownEvEUlvE_E10_M_managerERSt9_Any_dataRKS5_St18_Manager_operation, %function
_ZNSt14_Function_base13_Base_managerIZN8asiodnp311DNP3Channel8ShutdownEvEUlvE_E10_M_managerERSt9_Any_dataRKS5_St18_Manager_operation:
	.fnstart
.LFB10140:
	@ args = 0, pretend = 0, frame = 0
	@ frame_needed = 0, uses_anonymous_args = 0
	push	{r4, r5, r6, lr}
	.save {r4, r5, r6, lr}
	mov	r5, r0
	ldr	r4, .L1197
.LPIC107:
	add	r4, pc, r4
	cmp	r2, #3
	addls	pc, pc, r2, asl #2
	b	.L1177
.L1179:
	b	.L1178
	b	.L1180
	b	.L1181
	b	.L1182
	.p2align 1
.L1182:
	ldr	r4, [r0]
	cmp	r4, #0
	beq	.L1177
	ldr	r0, [r4, #4]
	cmp	r0, #0
	beq	.L1185
	bl	_ZNSt16_Sp_counted_baseILN9__gnu_cxx12_Lock_policyE1EE10_M_releaseEv(PLT)
.L1185:
	mov	r0, r4
	mov	r1, #8
	bl	_ZdlPvj(PLT)
.L1177:
	mov	r0, #0
	pop	{r4, r5, r6, pc}
.L1181:
	mov	r0, #8
	ldr	r6, [r1]
	bl	_Znwj(PLT)
	ldm	r6, {r2, r3}
	cmp	r3, #0
	stm	r0, {r2, r3}
	beq	.L1183
	ldr	r2, .L1197+4
	ldr	r2, [r4, r2]
	cmp	r2, #0
	beq	.L1184
	add	r3, r3, #28
	mcr	p15, 0, r0, c7, c10, 5
.L1195:
	ldrex	r2, [r3]
	add	r2, r2, #1
	strex	r1, r2, [r3]
	cmp	r1, #0
	bne	.L1195
	mcr	p15, 0, r0, c7, c10, 5
.L1183:
	str	r0, [r5]
	mov	r0, #0
	pop	{r4, r5, r6, pc}
.L1180:
	ldr	r3, [r1]
	str	r3, [r0]
	mov	r0, #0
	pop	{r4, r5, r6, pc}
.L1178:
	ldr	r3, .L1197+8
.LPIC106:
	add	r3, pc, r3
	add	r3, r3, #16
	str	r3, [r0]
	mov	r0, #0
	pop	{r4, r5, r6, pc}
.L1184:
	ldr	r2, [r3, #28]
	add	r2, r2, #1
	str	r2, [r3, #28]
	b	.L1183
.L1198:
	.align	2
.L1197:
	.word	_GLOBAL_OFFSET_TABLE_-(.LPIC107+8)
	.word	_ZL28__gthrw___pthread_key_createPjPFvPvE(GOT)
	.word	.LANCHOR0-(.LPIC106+8)
	.fnend
	.size	_ZNSt14_Function_base13_Base_managerIZN8asiodnp311DNP3Channel8ShutdownEvEUlvE_E10_M_managerERSt9_Any_dataRKS5_St18_Manager_operation, .-_ZNSt14_Function_base13_Base_managerIZN8asiodnp311DNP3Channel8ShutdownEvEUlvE_E10_M_managerERSt9_Any_dataRKS5_St18_Manager_operation
	.section	.text._ZNSt17_Function_handlerIFbvEZZN8asiodnp311DNP3Channel8AddStackINS1_11MasterStackEEESt10shared_ptrIT_ERKN8opendnp310LinkConfigERKS7_ENKUlvE_clEvEUlvE_E9_M_invokeERKSt9_Any_data,"axG",%progbits,_ZNSt17_Function_handlerIFbvEZZN8asiodnp311DNP3Channel8AddStackINS1_11MasterStackEEESt10shared_ptrIT_ERKN8opendnp310LinkConfigERKS7_ENKUlvE_clEvEUlvE_E9_M_invokeERKSt9_Any_data,comdat
	.align	2
	.weak	_ZNSt17_Function_handlerIFbvEZZN8asiodnp311DNP3Channel8AddStackINS1_11MasterStackEEESt10shared_ptrIT_ERKN8opendnp310LinkConfigERKS7_ENKUlvE_clEvEUlvE_E9_M_invokeERKSt9_Any_data
	.syntax unified
	.arm
	.fpu vfp
	.type	_ZNSt17_Function_handlerIFbvEZZN8asiodnp311DNP3Channel8AddStackINS1_11MasterStackEEESt10shared_ptrIT_ERKN8opendnp310LinkConfigERKS7_ENKUlvE_clEvEUlvE_E9_M_invokeERKSt9_Any_data, %function
_ZNSt17_Function_handlerIFbvEZZN8asiodnp311DNP3Channel8AddStackINS1_11MasterStackEEESt10shared_ptrIT_ERKN8opendnp310LinkConfigERKS7_ENKUlvE_clEvEUlvE_E9_M_invokeERKSt9_Any_data:
	.fnstart
.LFB10722:
	@ args = 0, pretend = 0, frame = 8
	@ frame_needed = 0, uses_anonymous_args = 0
	ldr	r2, [r0]
	push	{r4, r5, r6, lr}
	.save {r4, r5, r6, lr}
	.pad #8
	sub	sp, sp, #8
	ldr	r3, [r2]
	ldr	r1, [r2, #12]
	cmp	r3, #0
	ldr	r4, .L1228
	ldr	r0, [r1, #36]
	addne	r1, r3, #8
	moveq	r1, r3
	ldr	r3, [r2, #4]
.LPIC108:
	add	r4, pc, r4
	cmp	r3, #0
	str	r1, [sp]
	str	r3, [sp, #4]
	beq	.L1201
	ldr	r1, .L1228+4
	ldr	r1, [r4, r1]
	cmp	r1, #0
	beq	.L1202
	add	r3, r3, #28
	mcr	p15, 0, r0, c7, c10, 5
.L1223:
	ldrex	r1, [r3]
	add	r1, r1, #1
	strex	ip, r1, [r3]
	cmp	ip, #0
	bne	.L1223
	mcr	p15, 0, r0, c7, c10, 5
.L1201:
	add	r2, r2, #8
	mov	r1, sp
.LEHB39:
	bl	_ZN8asiodnp39IOHandler10AddContextERKSt10shared_ptrIN8opendnp312ILinkSessionEERKNS2_5RouteE(PLT)
.LEHE39:
	ldr	r5, [sp, #4]
	mov	r6, r0
	cmp	r5, #0
	beq	.L1214
	ldr	r3, .L1228+4
	ldr	r3, [r4, r3]
	cmp	r3, #0
	beq	.L1205
	add	r3, r5, #28
	mcr	p15, 0, r0, c7, c10, 5
.L1222:
	ldrex	r2, [r3]
	sub	r1, r2, #1
	strex	r0, r1, [r3]
	cmp	r0, #0
	bne	.L1222
	cmp	r2, #1
	mcr	p15, 0, r0, c7, c10, 5
	beq	.L1227
.L1214:
	mov	r0, r6
	add	sp, sp, #8
	@ sp needed
	pop	{r4, r5, r6, pc}
.L1202:
	ldr	r1, [r3, #28]
	add	r1, r1, #1
	str	r1, [r3, #28]
	b	.L1201
.L1205:
	ldr	r3, [r5, #28]
	cmp	r3, #1
	sub	r3, r3, #1
	str	r3, [r5, #28]
	bne	.L1214
	ldr	r3, [r5]
	mov	r0, r5
	ldr	r3, [r3, #8]
	blx	r3
	mcr	p15, 0, r0, c7, c10, 5
	ldr	r2, [r5, #32]
	sub	r3, r2, #1
	str	r3, [r5, #32]
	b	.L1211
.L1227:
	ldr	r3, [r5]
	mov	r0, r5
	ldr	r3, [r3, #8]
	blx	r3
	add	r3, r5, #32
	mcr	p15, 0, r0, c7, c10, 5
	mcr	p15, 0, r0, c7, c10, 5
.L1221:
	ldrex	r2, [r3]
	sub	r1, r2, #1
	strex	r0, r1, [r3]
	cmp	r0, #0
	bne	.L1221
	mcr	p15, 0, r0, c7, c10, 5
.L1211:
	cmp	r2, #1
	bne	.L1214
	ldr	r3, [r5]
	mov	r0, r5
	ldr	r3, [r3, #12]
	blx	r3
	b	.L1214
.L1213:
	ldr	r0, [sp, #4]
	cmp	r0, #0
	beq	.L1210
	bl	_ZNSt16_Sp_counted_baseILN9__gnu_cxx12_Lock_policyE1EE10_M_releaseEv(PLT)
.L1210:
.LEHB40:
	bl	__cxa_end_cleanup(PLT)
.LEHE40:
.L1229:
	.align	2
.L1228:
	.word	_GLOBAL_OFFSET_TABLE_-(.LPIC108+8)
	.word	_ZL28__gthrw___pthread_key_createPjPFvPvE(GOT)
	.personality	__gxx_personality_v0
	.handlerdata
.LLSDA10722:
	.byte	0xff
	.byte	0xff
	.byte	0x1
	.uleb128 .LLSDACSE10722-.LLSDACSB10722
.LLSDACSB10722:
	.uleb128 .LEHB39-.LFB10722
	.uleb128 .LEHE39-.LEHB39
	.uleb128 .L1213-.LFB10722
	.uleb128 0
	.uleb128 .LEHB40-.LFB10722
	.uleb128 .LEHE40-.LEHB40
	.uleb128 0
	.uleb128 0
.LLSDACSE10722:
	.section	.text._ZNSt17_Function_handlerIFbvEZZN8asiodnp311DNP3Channel8AddStackINS1_11MasterStackEEESt10shared_ptrIT_ERKN8opendnp310LinkConfigERKS7_ENKUlvE_clEvEUlvE_E9_M_invokeERKSt9_Any_data,"axG",%progbits,_ZNSt17_Function_handlerIFbvEZZN8asiodnp311DNP3Channel8AddStackINS1_11MasterStackEEESt10shared_ptrIT_ERKN8opendnp310LinkConfigERKS7_ENKUlvE_clEvEUlvE_E9_M_invokeERKSt9_Any_data,comdat
	.fnend
	.size	_ZNSt17_Function_handlerIFbvEZZN8asiodnp311DNP3Channel8AddStackINS1_11MasterStackEEESt10shared_ptrIT_ERKN8opendnp310LinkConfigERKS7_ENKUlvE_clEvEUlvE_E9_M_invokeERKSt9_Any_data, .-_ZNSt17_Function_handlerIFbvEZZN8asiodnp311DNP3Channel8AddStackINS1_11MasterStackEEESt10shared_ptrIT_ERKN8opendnp310LinkConfigERKS7_ENKUlvE_clEvEUlvE_E9_M_invokeERKSt9_Any_data
	.section	.text._ZNSt17_Function_handlerIFbvEZZN8asiodnp311DNP3Channel8AddStackINS1_15OutstationStackEEESt10shared_ptrIT_ERKN8opendnp310LinkConfigERKS7_ENKUlvE_clEvEUlvE_E9_M_invokeERKSt9_Any_data,"axG",%progbits,_ZNSt17_Function_handlerIFbvEZZN8asiodnp311DNP3Channel8AddStackINS1_15OutstationStackEEESt10shared_ptrIT_ERKN8opendnp310LinkConfigERKS7_ENKUlvE_clEvEUlvE_E9_M_invokeERKSt9_Any_data,comdat
	.align	2
	.weak	_ZNSt17_Function_handlerIFbvEZZN8asiodnp311DNP3Channel8AddStackINS1_15OutstationStackEEESt10shared_ptrIT_ERKN8opendnp310LinkConfigERKS7_ENKUlvE_clEvEUlvE_E9_M_invokeERKSt9_Any_data
	.syntax unified
	.arm
	.fpu vfp
	.type	_ZNSt17_Function_handlerIFbvEZZN8asiodnp311DNP3Channel8AddStackINS1_15OutstationStackEEESt10shared_ptrIT_ERKN8opendnp310LinkConfigERKS7_ENKUlvE_clEvEUlvE_E9_M_invokeERKSt9_Any_data, %function
_ZNSt17_Function_handlerIFbvEZZN8asiodnp311DNP3Channel8AddStackINS1_15OutstationStackEEESt10shared_ptrIT_ERKN8opendnp310LinkConfigERKS7_ENKUlvE_clEvEUlvE_E9_M_invokeERKSt9_Any_data:
	.fnstart
.LFB10774:
	@ args = 0, pretend = 0, frame = 8
	@ frame_needed = 0, uses_anonymous_args = 0
	ldr	r2, [r0]
	push	{r4, r5, r6, lr}
	.save {r4, r5, r6, lr}
	.pad #8
	sub	sp, sp, #8
	ldr	r3, [r2]
	ldr	r1, [r2, #12]
	cmp	r3, #0
	ldr	r4, .L1259
	ldr	r0, [r1, #36]
	addne	r1, r3, #4
	moveq	r1, r3
	ldr	r3, [r2, #4]
.LPIC109:
	add	r4, pc, r4
	cmp	r3, #0
	str	r1, [sp]
	str	r3, [sp, #4]
	beq	.L1232
	ldr	r1, .L1259+4
	ldr	r1, [r4, r1]
	cmp	r1, #0
	beq	.L1233
	add	r3, r3, #28
	mcr	p15, 0, r0, c7, c10, 5
.L1254:
	ldrex	r1, [r3]
	add	r1, r1, #1
	strex	ip, r1, [r3]
	cmp	ip, #0
	bne	.L1254
	mcr	p15, 0, r0, c7, c10, 5
.L1232:
	add	r2, r2, #8
	mov	r1, sp
.LEHB41:
	bl	_ZN8asiodnp39IOHandler10AddContextERKSt10shared_ptrIN8opendnp312ILinkSessionEERKNS2_5RouteE(PLT)
.LEHE41:
	ldr	r5, [sp, #4]
	mov	r6, r0
	cmp	r5, #0
	beq	.L1245
	ldr	r3, .L1259+4
	ldr	r3, [r4, r3]
	cmp	r3, #0
	beq	.L1236
	add	r3, r5, #28
	mcr	p15, 0, r0, c7, c10, 5
.L1253:
	ldrex	r2, [r3]
	sub	r1, r2, #1
	strex	r0, r1, [r3]
	cmp	r0, #0
	bne	.L1253
	cmp	r2, #1
	mcr	p15, 0, r0, c7, c10, 5
	beq	.L1258
.L1245:
	mov	r0, r6
	add	sp, sp, #8
	@ sp needed
	pop	{r4, r5, r6, pc}
.L1233:
	ldr	r1, [r3, #28]
	add	r1, r1, #1
	str	r1, [r3, #28]
	b	.L1232
.L1236:
	ldr	r3, [r5, #28]
	cmp	r3, #1
	sub	r3, r3, #1
	str	r3, [r5, #28]
	bne	.L1245
	ldr	r3, [r5]
	mov	r0, r5
	ldr	r3, [r3, #8]
	blx	r3
	mcr	p15, 0, r0, c7, c10, 5
	ldr	r2, [r5, #32]
	sub	r3, r2, #1
	str	r3, [r5, #32]
	b	.L1242
.L1258:
	ldr	r3, [r5]
	mov	r0, r5
	ldr	r3, [r3, #8]
	blx	r3
	add	r3, r5, #32
	mcr	p15, 0, r0, c7, c10, 5
	mcr	p15, 0, r0, c7, c10, 5
.L1252:
	ldrex	r2, [r3]
	sub	r1, r2, #1
	strex	r0, r1, [r3]
	cmp	r0, #0
	bne	.L1252
	mcr	p15, 0, r0, c7, c10, 5
.L1242:
	cmp	r2, #1
	bne	.L1245
	ldr	r3, [r5]
	mov	r0, r5
	ldr	r3, [r3, #12]
	blx	r3
	b	.L1245
.L1244:
	ldr	r0, [sp, #4]
	cmp	r0, #0
	beq	.L1241
	bl	_ZNSt16_Sp_counted_baseILN9__gnu_cxx12_Lock_policyE1EE10_M_releaseEv(PLT)
.L1241:
.LEHB42:
	bl	__cxa_end_cleanup(PLT)
.LEHE42:
.L1260:
	.align	2
.L1259:
	.word	_GLOBAL_OFFSET_TABLE_-(.LPIC109+8)
	.word	_ZL28__gthrw___pthread_key_createPjPFvPvE(GOT)
	.personality	__gxx_personality_v0
	.handlerdata
.LLSDA10774:
	.byte	0xff
	.byte	0xff
	.byte	0x1
	.uleb128 .LLSDACSE10774-.LLSDACSB10774
.LLSDACSB10774:
	.uleb128 .LEHB41-.LFB10774
	.uleb128 .LEHE41-.LEHB41
	.uleb128 .L1244-.LFB10774
	.uleb128 0
	.uleb128 .LEHB42-.LFB10774
	.uleb128 .LEHE42-.LEHB42
	.uleb128 0
	.uleb128 0
.LLSDACSE10774:
	.section	.text._ZNSt17_Function_handlerIFbvEZZN8asiodnp311DNP3Channel8AddStackINS1_15OutstationStackEEESt10shared_ptrIT_ERKN8opendnp310LinkConfigERKS7_ENKUlvE_clEvEUlvE_E9_M_invokeERKSt9_Any_data,"axG",%progbits,_ZNSt17_Function_handlerIFbvEZZN8asiodnp311DNP3Channel8AddStackINS1_15OutstationStackEEESt10shared_ptrIT_ERKN8opendnp310LinkConfigERKS7_ENKUlvE_clEvEUlvE_E9_M_invokeERKSt9_Any_data,comdat
	.fnend
	.size	_ZNSt17_Function_handlerIFbvEZZN8asiodnp311DNP3Channel8AddStackINS1_15OutstationStackEEESt10shared_ptrIT_ERKN8opendnp310LinkConfigERKS7_ENKUlvE_clEvEUlvE_E9_M_invokeERKSt9_Any_data, .-_ZNSt17_Function_handlerIFbvEZZN8asiodnp311DNP3Channel8AddStackINS1_15OutstationStackEEESt10shared_ptrIT_ERKN8opendnp310LinkConfigERKS7_ENKUlvE_clEvEUlvE_E9_M_invokeERKSt9_Any_data
	.text
	.align	2
	.global	_ZN8asiodnp311DNP3Channel8ShutdownEv
	.syntax unified
	.arm
	.fpu vfp
	.type	_ZN8asiodnp311DNP3Channel8ShutdownEv, %function
_ZN8asiodnp311DNP3Channel8ShutdownEv:
	.fnstart
.LFB8332:
	@ args = 0, pretend = 0, frame = 16
	@ frame_needed = 0, uses_anonymous_args = 0
	push	{r4, r5, r6, r7, r8, lr}
	.save {r4, r5, r6, r7, r8, lr}
	.pad #16
	sub	sp, sp, #16
	ldr	r4, [r0, #8]
	ldr	r8, .L1288
	cmp	r4, #0
.LPIC110:
	add	r8, pc, r8
	beq	.L1262
	mov	r5, r0
	mov	r0, r4
.LEHB43:
	bl	_ZNSt16_Sp_counted_baseILN9__gnu_cxx12_Lock_policyE1EE15_M_add_ref_lockEv(PLT)
.LEHE43:
	ldr	r3, .L1288+4
	ldr	r6, [r5, #4]
	ldr	r7, [r5, #28]
	ldr	r3, [r8, r3]
	cmp	r3, #0
	beq	.L1263
	add	r3, r4, #28
	mcr	p15, 0, r0, c7, c10, 5
.L1285:
	ldrex	r2, [r3]
	add	r2, r2, #1
	strex	r1, r2, [r3]
	cmp	r1, #0
	bne	.L1285
	mcr	p15, 0, r0, c7, c10, 5
.L1264:
	mov	r3, #0
	mov	r0, #8
	str	r3, [sp, #8]
.LEHB44:
	bl	_Znwj(PLT)
.LEHE44:
	ldr	r2, .L1288+8
	ldr	r3, .L1288+12
	mov	ip, r0
.LPIC111:
	add	r2, pc, r2
.LPIC112:
	add	r3, pc, r3
	mov	r0, r7
	mov	r1, sp
	mov	r5, sp
	str	r6, [ip]
	str	r4, [ip, #4]
	str	ip, [sp]
	str	r2, [sp, #12]
	str	r3, [sp, #8]
.LEHB45:
	bl	_ZN7asiopal8Executor18BlockUntilAndFlushERKSt8functionIFvvEE(PLT)
.LEHE45:
	ldr	r3, [sp, #8]
	cmp	r3, #0
	beq	.L1269
	mov	r2, #3
	mov	r1, sp
	mov	r0, r5
	blx	r3
.L1269:
	mov	r0, r4
	bl	_ZNSt16_Sp_counted_baseILN9__gnu_cxx12_Lock_policyE1EE10_M_releaseEv(PLT)
	add	sp, sp, #16
	@ sp needed
	pop	{r4, r5, r6, r7, r8, pc}
.L1263:
	ldr	r3, [r4, #28]
	add	r3, r3, #1
	str	r3, [r4, #28]
	b	.L1264
.L1262:
.LEHB46:
	bl	_ZSt20__throw_bad_weak_ptrv(PLT)
.LEHE46:
.L1272:
	ldr	r3, [sp, #8]
	cmp	r3, #0
	beq	.L1268
	mov	r2, #3
	mov	r1, r5
	mov	r0, r5
	blx	r3
.L1268:
	mov	r0, r4
	bl	_ZNSt16_Sp_counted_baseILN9__gnu_cxx12_Lock_policyE1EE10_M_releaseEv(PLT)
.LEHB47:
	bl	__cxa_end_cleanup(PLT)
.LEHE47:
.L1273:
	ldr	r3, [sp, #8]
	cmp	r3, #0
	beq	.L1267
	mov	r1, sp
	mov	r0, sp
	mov	r2, #3
	blx	r3
.L1267:
	mov	r0, r4
	bl	_ZNSt16_Sp_counted_baseILN9__gnu_cxx12_Lock_policyE1EE10_M_releaseEv(PLT)
	b	.L1268
.L1289:
	.align	2
.L1288:
	.word	_GLOBAL_OFFSET_TABLE_-(.LPIC110+8)
	.word	_ZL28__gthrw___pthread_key_createPjPFvPvE(GOT)
	.word	_ZNSt17_Function_handlerIFvvEZN8asiodnp311DNP3Channel8ShutdownEvEUlvE_E9_M_invokeERKSt9_Any_data-(.LPIC111+8)
	.word	_ZNSt14_Function_base13_Base_managerIZN8asiodnp311DNP3Channel8ShutdownEvEUlvE_E10_M_managerERSt9_Any_dataRKS5_St18_Manager_operation-(.LPIC112+8)
	.personality	__gxx_personality_v0
	.handlerdata
.LLSDA8332:
	.byte	0xff
	.byte	0xff
	.byte	0x1
	.uleb128 .LLSDACSE8332-.LLSDACSB8332
.LLSDACSB8332:
	.uleb128 .LEHB43-.LFB8332
	.uleb128 .LEHE43-.LEHB43
	.uleb128 0
	.uleb128 0
	.uleb128 .LEHB44-.LFB8332
	.uleb128 .LEHE44-.LEHB44
	.uleb128 .L1273-.LFB8332
	.uleb128 0
	.uleb128 .LEHB45-.LFB8332
	.uleb128 .LEHE45-.LEHB45
	.uleb128 .L1272-.LFB8332
	.uleb128 0
	.uleb128 .LEHB46-.LFB8332
	.uleb128 .LEHE46-.LEHB46
	.uleb128 0
	.uleb128 0
	.uleb128 .LEHB47-.LFB8332
	.uleb128 .LEHE47-.LEHB47
	.uleb128 0
	.uleb128 0
.LLSDACSE8332:
	.text
	.fnend
	.size	_ZN8asiodnp311DNP3Channel8ShutdownEv, .-_ZN8asiodnp311DNP3Channel8ShutdownEv
	.align	2
	.global	_ZN8asiodnp311DNP3Channel12ShutdownImplEv
	.syntax unified
	.arm
	.fpu vfp
	.type	_ZN8asiodnp311DNP3Channel12ShutdownImplEv, %function
_ZN8asiodnp311DNP3Channel12ShutdownImplEv:
	.fnstart
.LFB8352:
	@ args = 0, pretend = 0, frame = 32
	@ frame_needed = 0, uses_anonymous_args = 0
	ldr	r3, [r0, #52]
	push	{r4, r5, r6, r7, r8, r9, r10, fp, lr}
	.save {r4, r5, r6, r7, r8, r9, r10, fp, lr}
	cmp	r3, #0
	ldr	r6, .L1370
	.pad #36
	sub	sp, sp, #36
.LPIC113:
	add	r6, pc, r6
	beq	.L1290
	mov	r4, r0
	ldr	r0, [r0, #36]
.LEHB48:
	bl	_ZN8asiodnp39IOHandler8ShutdownEv(PLT)
	ldr	r0, [r4, #40]
	mov	r3, #0
	cmp	r0, r3
	str	r3, [r4, #36]
	str	r3, [r4, #40]
	beq	.L1292
	bl	_ZNSt16_Sp_counted_baseILN9__gnu_cxx12_Lock_policyE1EE10_M_releaseEv(PLT)
.L1292:
	ldr	r0, [r4, #52]
	bl	_ZN7asiopal15ResourceManager8ShutdownEv(PLT)
	ldr	r0, [r4, #56]
	mov	r3, #0
	cmp	r0, r3
	str	r3, [r4, #52]
	str	r3, [r4, #56]
	beq	.L1293
	bl	_ZNSt16_Sp_counted_baseILN9__gnu_cxx12_Lock_policyE1EE10_M_releaseEv(PLT)
.L1293:
	ldr	r5, [r4, #8]
	cmp	r5, #0
	beq	.L1294
	mov	r0, r5
	bl	_ZNSt16_Sp_counted_baseILN9__gnu_cxx12_Lock_policyE1EE15_M_add_ref_lockEv(PLT)
.LEHE48:
	ldr	r3, .L1370+4
	ldr	r2, [r4, #4]
	ldr	r7, [r4, #28]
	stmib	sp, {r2, r5}
	ldr	r3, [r6, r3]
	cmp	r3, #0
	beq	.L1295
	add	r3, r5, #28
	mcr	p15, 0, r0, c7, c10, 5
.L1364:
	ldrex	r2, [r3]
	add	r2, r2, #1
	strex	r1, r2, [r3]
	cmp	r1, #0
	bne	.L1364
	mcr	p15, 0, r0, c7, c10, 5
	ldr	fp, [sp, #8]
.L1296:
	add	r0, sp, #4
	bl	_ZN4asio28asio_handler_is_continuationEz(PLT)
	ldr	r3, .L1370+8
	ldr	r9, [r7, #20]
	ldr	r10, [r6, r3]
	mov	r8, r0
	ldr	r0, [r10]
	bl	pthread_getspecific(PLT)
	cmp	r0, #0
	beq	.L1297
	ldr	r3, [r0, #4]
	cmp	r3, #0
	beq	.L1297
	ldr	r4, [r3]
	cmp	r4, #0
	beq	.L1297
	mov	r2, #0
	str	r2, [r3]
	ldrb	r3, [r4]	@ zero_extendqisi2
	cmp	r3, #19
	bls	.L1368
.L1366:
	strb	r3, [r4, #20]
	ldr	r3, .L1370+12
	ldr	r0, [r7, #24]
	ldr	r2, [sp, #4]
	mov	r6, #0
.LPIC114:
	add	r3, pc, r3
	str	fp, [r4, #16]
	str	r3, [r4, #4]
	str	r2, [r4, #12]
	add	r0, r0, #12
	str	r6, [r4]
	str	r6, [r4, #8]
	str	r6, [sp, #8]
	str	r6, [sp, #4]
	bl	pthread_mutex_lock(PLT)
	ldr	r0, [r7, #24]
	ldrb	fp, [r0, #36]	@ zero_extendqisi2
	cmp	fp, r6
	beq	.L1300
	ldr	r3, [r0, #44]
	str	r6, [r4]
	cmp	r3, r6
	strne	r4, [r3]
	streq	r4, [r0, #44]
	strne	r4, [r0, #44]
	streq	r4, [r0, #40]
	add	r0, r0, #12
	bl	pthread_mutex_unlock(PLT)
.L1303:
	mov	r0, r5
	bl	_ZNSt16_Sp_counted_baseILN9__gnu_cxx12_Lock_policyE1EE10_M_releaseEv(PLT)
.L1290:
	add	sp, sp, #36
	@ sp needed
	pop	{r4, r5, r6, r7, r8, r9, r10, fp, pc}
.L1295:
	ldr	r3, [r5, #28]
	mov	fp, r5
	add	r3, r3, #1
	str	r3, [r5, #28]
	b	.L1296
.L1368:
	mov	r0, r4
	bl	_ZdlPv(PLT)
.L1297:
	mov	r0, #21
.LEHB49:
	bl	_Znwj(PLT)
.LEHE49:
	mov	r4, r0
	mov	r3, #20
	b	.L1366
.L1300:
	mov	r3, #1
	strb	r3, [r0, #36]
	add	r0, r0, #12
	bl	pthread_mutex_unlock(PLT)
	ldr	r6, [r7, #24]
	str	fp, [r4]
	ldr	r3, [r6, #52]
	cmp	r3, #0
	strne	r4, [r3]
	streq	r4, [r6, #52]
	strne	r4, [r6, #52]
	streq	r4, [r6, #48]
	ldr	r4, [r9, #20]
	ldrb	r3, [r4, #20]	@ zero_extendqisi2
	orr	r8, r8, r3
	tst	r8, #255
	bne	.L1369
.L1306:
	add	r3, r4, #124
	mcr	p15, 0, r0, c7, c10, 5
.L1363:
	ldrex	r2, [r3]
	add	r2, r2, #1
	strex	r1, r2, [r3]
	cmp	r1, #0
	bne	.L1363
	add	r7, r4, #24
	mcr	p15, 0, r0, c7, c10, 5
	mov	r0, r7
	bl	pthread_mutex_lock(PLT)
	ldr	r3, [r4, #132]
	mov	r2, #0
	cmp	r3, r2
	str	r2, [r6]
	strne	r6, [r3]
	ldr	r3, [r4, #96]
	strne	r6, [r4, #132]
	orr	r3, r3, #1
	streq	r6, [r4, #132]
	streq	r6, [r4, #128]
	cmp	r3, #1
	add	r6, r4, #48
	str	r3, [r4, #96]
	beq	.L1316
	mov	r0, r7
	bl	pthread_mutex_unlock(PLT)
	mov	r0, r6
	bl	pthread_cond_signal(PLT)
.L1317:
	ldr	r0, [sp, #8]
.L1313:
	cmp	r0, #0
	beq	.L1303
	bl	_ZNSt16_Sp_counted_baseILN9__gnu_cxx12_Lock_policyE1EE10_M_releaseEv(PLT)
	b	.L1303
.L1369:
	ldr	r0, [r10]
	bl	pthread_getspecific(PLT)
	cmp	r0, #0
	beq	.L1306
	ldr	r3, [r0]
	cmp	r3, r4
	bne	.L1309
	b	.L1307
.L1361:
	ldr	r3, [r0]
	cmp	r4, r3
	beq	.L1307
.L1309:
	ldr	r0, [r0, #8]
	cmp	r0, #0
	bne	.L1361
	b	.L1306
.L1307:
	ldr	r3, [r0, #4]
	cmp	r3, #0
	beq	.L1306
	ldr	r1, [r3, #8]
	ldr	r2, [r3, #12]
	cmp	r1, #0
	mov	r0, #0
	add	r2, r2, #1
	str	r2, [r3, #12]
	str	r0, [r6]
	strne	r6, [r1]
	ldrne	r0, [sp, #8]
	strne	r6, [r3, #8]
	streq	r6, [r3, #8]
	streq	r6, [r3, #4]
	ldreq	r0, [sp, #8]
	b	.L1313
.L1316:
	ldrb	r2, [r4, #120]	@ zero_extendqisi2
	cmp	r2, #0
	bne	.L1318
	ldr	r0, [r4, #104]
	cmp	r0, #0
	beq	.L1318
	add	r1, sp, #16
	add	ip, r0, #48
	strb	r3, [r4, #120]
	mov	lr, #-2147483639
	mov	r3, r1
	str	r2, [sp, #20]
	str	r2, [sp, #28]
	mov	r1, #3
	ldr	r2, [r0, #48]
	ldr	r0, [r0, #56]
	str	lr, [sp, #16]
	str	ip, [sp, #24]
	bl	epoll_ctl(PLT)
.L1318:
	mov	r0, r7
	bl	pthread_mutex_unlock(PLT)
	b	.L1317
.L1294:
.LEHB50:
	bl	_ZSt20__throw_bad_weak_ptrv(PLT)
.L1323:
	cmp	fp, #0
	beq	.L1321
	mov	r0, fp
	bl	_ZNSt16_Sp_counted_baseILN9__gnu_cxx12_Lock_policyE1EE10_M_releaseEv(PLT)
.L1321:
	mov	r0, r5
	bl	_ZNSt16_Sp_counted_baseILN9__gnu_cxx12_Lock_policyE1EE10_M_releaseEv(PLT)
	bl	__cxa_end_cleanup(PLT)
.LEHE50:
.L1371:
	.align	2
.L1370:
	.word	_GLOBAL_OFFSET_TABLE_-(.LPIC113+8)
	.word	_ZL28__gthrw___pthread_key_createPjPFvPvE(GOT)
	.word	_ZN4asio6detail10call_stackINS0_15task_io_serviceENS0_27task_io_service_thread_infoEE4top_E(GOT)
	.word	_ZN4asio6detail18completion_handlerIZN8asiodnp311DNP3Channel12ShutdownImplEvEUlvE_E11do_completeEPNS0_15task_io_serviceEPNS0_25task_io_service_operationERKSt10error_codej-(.LPIC114+8)
	.personality	__gxx_personality_v0
	.handlerdata
.LLSDA8352:
	.byte	0xff
	.byte	0xff
	.byte	0x1
	.uleb128 .LLSDACSE8352-.LLSDACSB8352
.LLSDACSB8352:
	.uleb128 .LEHB48-.LFB8352
	.uleb128 .LEHE48-.LEHB48
	.uleb128 0
	.uleb128 0
	.uleb128 .LEHB49-.LFB8352
	.uleb128 .LEHE49-.LEHB49
	.uleb128 .L1323-.LFB8352
	.uleb128 0
	.uleb128 .LEHB50-.LFB8352
	.uleb128 .LEHE50-.LEHB50
	.uleb128 0
	.uleb128 0
.LLSDACSE8352:
	.text
	.fnend
	.size	_ZN8asiodnp311DNP3Channel12ShutdownImplEv, .-_ZN8asiodnp311DNP3Channel12ShutdownImplEv
	.align	2
	.global	_ZN8asiodnp311DNP3ChannelD2Ev
	.syntax unified
	.arm
	.fpu vfp
	.type	_ZN8asiodnp311DNP3ChannelD2Ev, %function
_ZN8asiodnp311DNP3ChannelD2Ev:
	.fnstart
.LFB8329:
	@ args = 0, pretend = 0, frame = 0
	@ frame_needed = 0, uses_anonymous_args = 0
	push	{r4, r5, r6, lr}
	.save {r4, r5, r6, lr}
	mov	r4, r0
	ldr	r5, .L1454
	ldr	r3, .L1454+4
.LPIC115:
	add	r5, pc, r5
	ldr	r3, [r5, r3]
	add	r3, r3, #8
	str	r3, [r0]
	bl	_ZN8asiodnp311DNP3Channel12ShutdownImplEv(PLT)
	ldr	r6, [r4, #56]
	cmp	r6, #0
	beq	.L1374
	ldr	r3, .L1454+8
	ldr	r3, [r5, r3]
	cmp	r3, #0
	beq	.L1375
	add	r3, r6, #28
	mcr	p15, 0, r0, c7, c10, 5
.L1433:
	ldrex	r2, [r3]
	sub	r1, r2, #1
	strex	r0, r1, [r3]
	cmp	r0, #0
	bne	.L1433
	cmp	r2, #1
	mcr	p15, 0, r0, c7, c10, 5
	beq	.L1447
.L1374:
	ldr	r6, [r4, #48]
	cmp	r6, #0
	beq	.L1380
	ldr	r3, .L1454+8
	ldr	r3, [r5, r3]
	cmp	r3, #0
	beq	.L1381
	add	r3, r6, #28
	mcr	p15, 0, r0, c7, c10, 5
.L1432:
	ldrex	r2, [r3]
	sub	r1, r2, #1
	strex	r0, r1, [r3]
	cmp	r0, #0
	bne	.L1432
	cmp	r2, #1
	mcr	p15, 0, r0, c7, c10, 5
	beq	.L1448
.L1380:
	ldr	r6, [r4, #40]
	cmp	r6, #0
	beq	.L1386
	ldr	r3, .L1454+8
	ldr	r3, [r5, r3]
	cmp	r3, #0
	beq	.L1387
	add	r3, r6, #28
	mcr	p15, 0, r0, c7, c10, 5
.L1431:
	ldrex	r2, [r3]
	sub	r1, r2, #1
	strex	r0, r1, [r3]
	cmp	r0, #0
	bne	.L1431
	cmp	r2, #1
	mcr	p15, 0, r0, c7, c10, 5
	beq	.L1449
.L1386:
	ldr	r6, [r4, #32]
	cmp	r6, #0
	beq	.L1392
	ldr	r3, .L1454+8
	ldr	r3, [r5, r3]
	cmp	r3, #0
	beq	.L1393
	add	r3, r6, #28
	mcr	p15, 0, r0, c7, c10, 5
.L1430:
	ldrex	r2, [r3]
	sub	r1, r2, #1
	strex	r0, r1, [r3]
	cmp	r0, #0
	bne	.L1430
	cmp	r2, #1
	mcr	p15, 0, r0, c7, c10, 5
	beq	.L1450
.L1392:
	ldr	r6, [r4, #24]
	cmp	r6, #0
	beq	.L1398
	ldr	r3, .L1454+8
	ldr	r3, [r5, r3]
	cmp	r3, #0
	beq	.L1399
	add	r3, r6, #28
	mcr	p15, 0, r0, c7, c10, 5
.L1429:
	ldrex	r2, [r3]
	sub	r1, r2, #1
	strex	r0, r1, [r3]
	cmp	r0, #0
	bne	.L1429
	cmp	r2, #1
	mcr	p15, 0, r0, c7, c10, 5
	beq	.L1451
.L1398:
	ldr	r6, [r4, #16]
	cmp	r6, #0
	beq	.L1404
	ldr	r3, .L1454+8
	ldr	r3, [r5, r3]
	cmp	r3, #0
	beq	.L1405
	add	r3, r6, #28
	mcr	p15, 0, r0, c7, c10, 5
.L1428:
	ldrex	r2, [r3]
	sub	r1, r2, #1
	strex	r0, r1, [r3]
	cmp	r0, #0
	bne	.L1428
	cmp	r2, #1
	mcr	p15, 0, r0, c7, c10, 5
	beq	.L1452
.L1404:
	ldr	r0, [r4, #8]
	cmp	r0, #0
	beq	.L1420
	ldr	r3, .L1454+8
	ldr	r3, [r5, r3]
	cmp	r3, #0
	beq	.L1411
	add	r3, r0, #32
	mcr	p15, 0, r0, c7, c10, 5
.L1427:
	ldrex	r2, [r3]
	sub	r1, r2, #1
	strex	ip, r1, [r3]
	cmp	ip, #0
	bne	.L1427
	cmp	r2, #1
	mcr	p15, 0, r0, c7, c10, 5
	beq	.L1453
.L1420:
	mov	r0, r4
	pop	{r4, r5, r6, pc}
.L1393:
	ldr	r3, [r6, #28]
	cmp	r3, #1
	sub	r3, r3, #1
	str	r3, [r6, #28]
	bne	.L1392
	ldr	r3, [r6]
	mov	r0, r6
	ldr	r3, [r3, #8]
	blx	r3
	mcr	p15, 0, r0, c7, c10, 5
	ldr	r2, [r6, #32]
	sub	r3, r2, #1
	str	r3, [r6, #32]
	b	.L1417
.L1387:
	ldr	r3, [r6, #28]
	cmp	r3, #1
	sub	r3, r3, #1
	str	r3, [r6, #28]
	bne	.L1386
	ldr	r3, [r6]
	mov	r0, r6
	ldr	r3, [r3, #8]
	blx	r3
	mcr	p15, 0, r0, c7, c10, 5
	ldr	r2, [r6, #32]
	sub	r3, r2, #1
	str	r3, [r6, #32]
	b	.L1416
.L1381:
	ldr	r3, [r6, #28]
	cmp	r3, #1
	sub	r3, r3, #1
	str	r3, [r6, #28]
	bne	.L1380
	ldr	r3, [r6]
	mov	r0, r6
	ldr	r3, [r3, #8]
	blx	r3
	mcr	p15, 0, r0, c7, c10, 5
	ldr	r2, [r6, #32]
	sub	r3, r2, #1
	str	r3, [r6, #32]
	b	.L1415
.L1375:
	ldr	r3, [r6, #28]
	cmp	r3, #1
	sub	r3, r3, #1
	str	r3, [r6, #28]
	bne	.L1374
	ldr	r3, [r6]
	mov	r0, r6
	ldr	r3, [r3, #8]
	blx	r3
	mcr	p15, 0, r0, c7, c10, 5
	ldr	r2, [r6, #32]
	sub	r3, r2, #1
	str	r3, [r6, #32]
	b	.L1414
.L1399:
	ldr	r3, [r6, #28]
	cmp	r3, #1
	sub	r3, r3, #1
	str	r3, [r6, #28]
	bne	.L1398
	ldr	r3, [r6]
	mov	r0, r6
	ldr	r3, [r3, #8]
	blx	r3
	mcr	p15, 0, r0, c7, c10, 5
	ldr	r2, [r6, #32]
	sub	r3, r2, #1
	str	r3, [r6, #32]
	b	.L1418
.L1411:
	ldr	r2, [r0, #32]
	sub	r3, r2, #1
	cmp	r2, #1
	str	r3, [r0, #32]
	bne	.L1420
.L1453:
	mcr	p15, 0, r0, c7, c10, 5
	ldr	r3, [r0]
	ldr	r3, [r3, #12]
	blx	r3
	mov	r0, r4
	pop	{r4, r5, r6, pc}
.L1405:
	ldr	r3, [r6, #28]
	cmp	r3, #1
	sub	r3, r3, #1
	str	r3, [r6, #28]
	bne	.L1404
	ldr	r3, [r6]
	mov	r0, r6
	ldr	r3, [r3, #8]
	blx	r3
	mcr	p15, 0, r0, c7, c10, 5
	ldr	r2, [r6, #32]
	sub	r3, r2, #1
	str	r3, [r6, #32]
	b	.L1419
.L1452:
	ldr	r3, [r6]
	mov	r0, r6
	ldr	r3, [r3, #8]
	blx	r3
	add	r3, r6, #32
	mcr	p15, 0, r0, c7, c10, 5
	mcr	p15, 0, r0, c7, c10, 5
.L1421:
	ldrex	r2, [r3]
	sub	r1, r2, #1
	strex	r0, r1, [r3]
	cmp	r0, #0
	bne	.L1421
	mcr	p15, 0, r0, c7, c10, 5
.L1419:
	cmp	r2, #1
	bne	.L1404
	ldr	r3, [r6]
	mov	r0, r6
	ldr	r3, [r3, #12]
	blx	r3
	b	.L1404
.L1451:
	ldr	r3, [r6]
	mov	r0, r6
	ldr	r3, [r3, #8]
	blx	r3
	add	r3, r6, #32
	mcr	p15, 0, r0, c7, c10, 5
	mcr	p15, 0, r0, c7, c10, 5
.L1422:
	ldrex	r2, [r3]
	sub	r1, r2, #1
	strex	r0, r1, [r3]
	cmp	r0, #0
	bne	.L1422
	mcr	p15, 0, r0, c7, c10, 5
.L1418:
	cmp	r2, #1
	bne	.L1398
	ldr	r3, [r6]
	mov	r0, r6
	ldr	r3, [r3, #12]
	blx	r3
	b	.L1398
.L1450:
	ldr	r3, [r6]
	mov	r0, r6
	ldr	r3, [r3, #8]
	blx	r3
	add	r3, r6, #32
	mcr	p15, 0, r0, c7, c10, 5
	mcr	p15, 0, r0, c7, c10, 5
.L1423:
	ldrex	r2, [r3]
	sub	r1, r2, #1
	strex	r0, r1, [r3]
	cmp	r0, #0
	bne	.L1423
	mcr	p15, 0, r0, c7, c10, 5
.L1417:
	cmp	r2, #1
	bne	.L1392
	ldr	r3, [r6]
	mov	r0, r6
	ldr	r3, [r3, #12]
	blx	r3
	b	.L1392
.L1447:
	ldr	r3, [r6]
	mov	r0, r6
	ldr	r3, [r3, #8]
	blx	r3
	add	r3, r6, #32
	mcr	p15, 0, r0, c7, c10, 5
	mcr	p15, 0, r0, c7, c10, 5
.L1426:
	ldrex	r2, [r3]
	sub	r1, r2, #1
	strex	r0, r1, [r3]
	cmp	r0, #0
	bne	.L1426
	mcr	p15, 0, r0, c7, c10, 5
.L1414:
	cmp	r2, #1
	bne	.L1374
	ldr	r3, [r6]
	mov	r0, r6
	ldr	r3, [r3, #12]
	blx	r3
	b	.L1374
.L1448:
	ldr	r3, [r6]
	mov	r0, r6
	ldr	r3, [r3, #8]
	blx	r3
	add	r3, r6, #32
	mcr	p15, 0, r0, c7, c10, 5
	mcr	p15, 0, r0, c7, c10, 5
.L1425:
	ldrex	r2, [r3]
	sub	r1, r2, #1
	strex	r0, r1, [r3]
	cmp	r0, #0
	bne	.L1425
	mcr	p15, 0, r0, c7, c10, 5
.L1415:
	cmp	r2, #1
	bne	.L1380
	ldr	r3, [r6]
	mov	r0, r6
	ldr	r3, [r3, #12]
	blx	r3
	b	.L1380
.L1449:
	ldr	r3, [r6]
	mov	r0, r6
	ldr	r3, [r3, #8]
	blx	r3
	add	r3, r6, #32
	mcr	p15, 0, r0, c7, c10, 5
	mcr	p15, 0, r0, c7, c10, 5
.L1424:
	ldrex	r2, [r3]
	sub	r1, r2, #1
	strex	r0, r1, [r3]
	cmp	r0, #0
	bne	.L1424
	mcr	p15, 0, r0, c7, c10, 5
.L1416:
	cmp	r2, #1
	bne	.L1386
	ldr	r3, [r6]
	mov	r0, r6
	ldr	r3, [r3, #12]
	blx	r3
	b	.L1386
.L1455:
	.align	2
.L1454:
	.word	_GLOBAL_OFFSET_TABLE_-(.LPIC115+8)
	.word	_ZTVN8asiodnp311DNP3ChannelE(GOT)
	.word	_ZL28__gthrw___pthread_key_createPjPFvPvE(GOT)
	.personality	__gxx_personality_v0
	.handlerdata
.LLSDA8329:
	.byte	0xff
	.byte	0xff
	.byte	0x1
	.uleb128 .LLSDACSE8329-.LLSDACSB8329
.LLSDACSB8329:
.LLSDACSE8329:
	.text
	.fnend
	.size	_ZN8asiodnp311DNP3ChannelD2Ev, .-_ZN8asiodnp311DNP3ChannelD2Ev
	.global	_ZN8asiodnp311DNP3ChannelD1Ev
	.set	_ZN8asiodnp311DNP3ChannelD1Ev,_ZN8asiodnp311DNP3ChannelD2Ev
	.align	2
	.global	_ZN8asiodnp311DNP3ChannelD0Ev
	.syntax unified
	.arm
	.fpu vfp
	.type	_ZN8asiodnp311DNP3ChannelD0Ev, %function
_ZN8asiodnp311DNP3ChannelD0Ev:
	.fnstart
.LFB8331:
	@ args = 0, pretend = 0, frame = 0
	@ frame_needed = 0, uses_anonymous_args = 0
	push	{r4, lr}
	mov	r4, r0
	bl	_ZN8asiodnp311DNP3ChannelD1Ev(PLT)
	mov	r0, r4
	mov	r1, #60
	bl	_ZdlPvj(PLT)
	mov	r0, r4
	pop	{r4, pc}
	.cantunwind
	.fnend
	.size	_ZN8asiodnp311DNP3ChannelD0Ev, .-_ZN8asiodnp311DNP3ChannelD0Ev
	.align	2
	.syntax unified
	.arm
	.fpu vfp
	.type	_ZNSt17_Function_handlerIFvvEZN8asiodnp311DNP3Channel8ShutdownEvEUlvE_E9_M_invokeERKSt9_Any_data, %function
_ZNSt17_Function_handlerIFvvEZN8asiodnp311DNP3Channel8ShutdownEvEUlvE_E9_M_invokeERKSt9_Any_data:
	.fnstart
.LFB10139:
	@ args = 0, pretend = 0, frame = 0
	@ frame_needed = 0, uses_anonymous_args = 0
	@ link register save eliminated.
	ldr	r3, [r0]
	ldr	r0, [r3]
	b	_ZN8asiodnp311DNP3Channel12ShutdownImplEv(PLT)
	.cantunwind
	.fnend
	.size	_ZNSt17_Function_handlerIFvvEZN8asiodnp311DNP3Channel8ShutdownEvEUlvE_E9_M_invokeERKSt9_Any_data, .-_ZNSt17_Function_handlerIFvvEZN8asiodnp311DNP3Channel8ShutdownEvEUlvE_E9_M_invokeERKSt9_Any_data
	.align	2
	.global	_ZN8asiodnp311DNP3Channel13SetLogFiltersERKN7openpal10LogFiltersE
	.syntax unified
	.arm
	.fpu vfp
	.type	_ZN8asiodnp311DNP3Channel13SetLogFiltersERKN7openpal10LogFiltersE, %function
_ZN8asiodnp311DNP3Channel13SetLogFiltersERKN7openpal10LogFiltersE:
	.fnstart
.LFB8376:
	@ args = 0, pretend = 0, frame = 56
	@ frame_needed = 0, uses_anonymous_args = 0
	push	{r4, r5, r6, r7, r8, r9, r10, fp, lr}
	.save {r4, r5, r6, r7, r8, r9, r10, fp, lr}
	.pad #60
	sub	sp, sp, #60
	ldr	r4, [r0, #8]
	ldr	r8, .L1568
	cmp	r4, #0
.LPIC116:
	add	r8, pc, r8
	beq	.L1460
	ldr	r3, .L1568+4
	mov	r6, r0
	add	r0, r4, #4
	str	r0, [sp, #40]
	ldr	r3, [r8, r3]
	mov	r9, r1
	cmp	r3, #0
	str	r3, [sp]
	beq	.L1461
	bl	_ZL26__gthrw_pthread_mutex_lockP15pthread_mutex_t(PLT)
	cmp	r0, #0
	bne	.L1564
	add	r5, r4, #28
	mcr	p15, 0, r0, c7, c10, 5
.L1552:
	ldrex	r3, [r5]
	add	r2, r3, #1
	strex	r1, r2, [r5]
	cmp	r1, #0
	bne	.L1552
	cmp	r3, #0
	mcr	p15, 0, r0, c7, c10, 5
	beq	.L1504
	ldr	r0, [sp, #40]
	bl	_ZL28__gthrw_pthread_mutex_unlockP15pthread_mutex_t(PLT)
	cmp	r0, #0
	bne	.L1507
	ldr	r3, [r6, #4]
	ldr	r2, [r9]
	str	r4, [sp, #44]
	str	r2, [sp, #20]
	str	r3, [sp, #40]
	ldr	r6, [r6, #28]
	mcr	p15, 0, r0, c7, c10, 5
.L1551:
	ldrex	r3, [r5]
	add	r3, r3, #1
	strex	r2, r3, [r5]
	cmp	r2, #0
	bne	.L1551
	mcr	p15, 0, r0, c7, c10, 5
	ldr	r9, [sp, #44]
	ldr	r3, [sp, #20]
.L1508:
	add	r0, sp, #40
	str	r3, [sp, #48]
	bl	_ZN4asio28asio_handler_is_continuationEz(PLT)
	ldr	r3, .L1568+8
	ldr	fp, [r6, #20]
	ldr	r3, [r8, r3]
	str	r3, [sp, #4]
	mov	r10, r0
	ldr	r0, [r3]
	bl	pthread_getspecific(PLT)
	cmp	r0, #0
	beq	.L1466
	ldr	r2, [r0, #4]
	cmp	r2, #0
	beq	.L1466
	ldr	r8, [r2]
	cmp	r8, #0
	beq	.L1466
	mov	r1, #0
	str	r1, [r2]
	ldrb	r2, [r8]	@ zero_extendqisi2
	cmp	r2, #23
	bls	.L1565
.L1557:
	strb	r2, [r8, #24]
	ldr	r2, .L1568+12
	ldr	r0, [r6, #24]
	ldr	ip, [sp, #40]
	ldr	r1, [sp, #48]
	mov	r7, #0
.LPIC117:
	add	r2, pc, r2
	str	r2, [r8, #4]
	str	ip, [r8, #12]
	str	r7, [r8]
	str	r7, [r8, #8]
	add	r0, r0, #12
	str	r7, [sp, #44]
	str	r9, [r8, #16]
	str	r7, [sp, #40]
	str	r1, [r8, #20]
	bl	pthread_mutex_lock(PLT)
	ldr	r0, [r6, #24]
	ldrb	r9, [r0, #36]	@ zero_extendqisi2
	cmp	r9, r7
	beq	.L1469
	ldr	r1, [r0, #44]
	str	r7, [r8]
	cmp	r1, r7
	strne	r8, [r1]
	streq	r8, [r0, #44]
	strne	r8, [r0, #44]
	streq	r8, [r0, #40]
	add	r0, r0, #12
	bl	pthread_mutex_unlock(PLT)
.L1489:
	ldr	r3, [sp]
	cmp	r3, #0
	beq	.L1496
.L1495:
	mcr	p15, 0, r0, c7, c10, 5
.L1553:
	ldrex	r3, [r5]
	sub	r2, r3, #1
	strex	r1, r2, [r5]
	cmp	r1, #0
	bne	.L1553
	cmp	r3, #1
	mcr	p15, 0, r0, c7, c10, 5
	beq	.L1566
.L1459:
	add	sp, sp, #60
	@ sp needed
	pop	{r4, r5, r6, r7, r8, r9, r10, fp, pc}
.L1565:
	mov	r0, r8
	bl	_ZdlPv(PLT)
.L1466:
	mov	r0, #25
.LEHB51:
	bl	_Znwj(PLT)
.LEHE51:
	mov	r8, r0
	mov	r2, #24
	b	.L1557
.L1461:
	ldr	r3, [r4, #28]
	add	r5, r4, #28
	add	r2, r3, #1
	cmp	r3, #0
	str	r2, [r4, #28]
	beq	.L1504
	ldr	r1, [r1]
	ldr	r2, [r6, #4]
	add	r3, r3, #2
	str	r4, [sp, #44]
	str	r2, [sp, #40]
	ldr	r6, [r6, #28]
	str	r1, [sp, #20]
	str	r3, [r4, #28]
	mov	r9, r4
	mov	r3, r1
	b	.L1508
.L1469:
	mov	r2, #1
	strb	r2, [r0, #36]
	add	r0, r0, #12
	bl	pthread_mutex_unlock(PLT)
	ldr	r7, [r6, #24]
	ldr	r6, [fp, #20]
	str	r9, [r8]
	ldr	r1, [r7, #52]
	ldrb	r3, [r6, #20]	@ zero_extendqisi2
	cmp	r1, #0
	strne	r8, [r1]
	orr	r10, r10, r3
	strne	r8, [r7, #52]
	streq	r8, [r7, #52]
	streq	r8, [r7, #48]
	tst	r10, #255
	beq	.L1475
	ldr	r3, [sp, #4]
	ldr	r0, [r3]
	bl	pthread_getspecific(PLT)
	cmp	r0, #0
	beq	.L1475
	ldr	r3, [r0]
	cmp	r3, r6
	bne	.L1478
	b	.L1476
.L1545:
	ldr	r3, [r0]
	cmp	r6, r3
	beq	.L1476
.L1478:
	ldr	r0, [r0, #8]
	cmp	r0, #0
	bne	.L1545
.L1475:
	add	r3, r6, #124
	mcr	p15, 0, r0, c7, c10, 5
.L1555:
	ldrex	r2, [r3]
	add	r2, r2, #1
	strex	r1, r2, [r3]
	cmp	r1, #0
	bne	.L1555
	add	r8, r6, #24
	mcr	p15, 0, r0, c7, c10, 5
	mov	r0, r8
	bl	pthread_mutex_lock(PLT)
	ldr	r3, [r6, #132]
	mov	r1, #0
	cmp	r3, r1
	str	r1, [r7]
	strne	r7, [r3]
	ldr	r3, [r6, #96]
	strne	r7, [r6, #132]
	orr	r3, r3, #1
	streq	r7, [r6, #132]
	streq	r7, [r6, #128]
	cmp	r3, #1
	add	r9, r6, #48
	str	r3, [r6, #96]
	beq	.L1485
	mov	r0, r8
	bl	pthread_mutex_unlock(PLT)
	mov	r0, r9
	bl	pthread_cond_signal(PLT)
.L1486:
	ldr	r6, [sp, #44]
.L1482:
	cmp	r6, #0
	beq	.L1489
	ldr	r3, [sp]
	cmp	r3, #0
	beq	.L1490
	add	r3, r6, #28
	mcr	p15, 0, r0, c7, c10, 5
.L1554:
	ldrex	r2, [r3]
	sub	r1, r2, #1
	strex	r0, r1, [r3]
	cmp	r0, #0
	bne	.L1554
	cmp	r2, #1
	mcr	p15, 0, r0, c7, c10, 5
	bne	.L1495
	ldr	r3, [r6]
	mov	r0, r6
	ldr	r3, [r3, #8]
	blx	r3
	add	r3, r6, #32
	mcr	p15, 0, r0, c7, c10, 5
	mcr	p15, 0, r0, c7, c10, 5
.L1550:
	ldrex	r2, [r3]
	sub	r1, r2, #1
	strex	r0, r1, [r3]
	cmp	r0, #0
	bne	.L1550
	mcr	p15, 0, r0, c7, c10, 5
.L1509:
	cmp	r2, #1
	bne	.L1489
	ldr	r3, [r6]
	mov	r0, r6
	ldr	r3, [r3, #12]
	blx	r3
	b	.L1489
.L1490:
	ldr	r3, [r6, #28]
	cmp	r3, #1
	sub	r3, r3, #1
	str	r3, [r6, #28]
	beq	.L1567
.L1496:
	ldr	r3, [r4, #28]
	cmp	r3, #1
	sub	r3, r3, #1
	str	r3, [r4, #28]
	bne	.L1459
	ldr	r3, [r4]
	mov	r0, r4
	ldr	r3, [r3, #8]
	blx	r3
	mcr	p15, 0, r0, c7, c10, 5
	ldr	r2, [r4, #32]
	sub	r3, r2, #1
	str	r3, [r4, #32]
	b	.L1510
.L1485:
	ldrb	r2, [r6, #120]	@ zero_extendqisi2
	cmp	r2, #0
	bne	.L1487
	ldr	r0, [r6, #104]
	cmp	r0, #0
	beq	.L1487
	add	r1, sp, #24
	add	ip, r0, #48
	strb	r3, [r6, #120]
	mov	lr, #-2147483639
	mov	r3, r1
	str	r2, [sp, #28]
	str	r2, [sp, #36]
	mov	r1, #3
	ldr	r2, [r0, #48]
	ldr	r0, [r0, #56]
	str	lr, [sp, #24]
	str	ip, [sp, #32]
	bl	epoll_ctl(PLT)
.L1487:
	mov	r0, r8
	bl	pthread_mutex_unlock(PLT)
	b	.L1486
.L1476:
	ldr	r3, [r0, #4]
	cmp	r3, #0
	beq	.L1475
	ldr	r0, [r3, #8]
	ldr	r1, [r3, #12]
	cmp	r0, #0
	add	r1, r1, #1
	mov	ip, #0
	str	r1, [r3, #12]
	ldrne	r6, [sp, #44]
	str	ip, [r7]
	ldreq	r6, [sp, #44]
	strne	r7, [r0]
	streq	r7, [r3, #8]
	strne	r7, [r3, #8]
	streq	r7, [r3, #4]
	b	.L1482
.L1566:
	ldr	r3, [r4]
	mov	r0, r4
	ldr	r3, [r3, #8]
	blx	r3
	add	r3, r4, #32
	mcr	p15, 0, r0, c7, c10, 5
	mcr	p15, 0, r0, c7, c10, 5
.L1549:
	ldrex	r2, [r3]
	sub	r1, r2, #1
	strex	r0, r1, [r3]
	cmp	r0, #0
	bne	.L1549
	mcr	p15, 0, r0, c7, c10, 5
.L1510:
	cmp	r2, #1
	bne	.L1459
	ldr	r3, [r4]
	mov	r0, r4
	ldr	r3, [r3, #12]
	blx	r3
	b	.L1459
.L1567:
	ldr	r3, [r6]
	mov	r0, r6
	ldr	r3, [r3, #8]
	blx	r3
	mcr	p15, 0, r0, c7, c10, 5
	ldr	r2, [r6, #32]
	sub	r3, r2, #1
	str	r3, [r6, #32]
	b	.L1509
.L1504:
	mov	r3, #0
	str	r3, [r4, #28]
.LEHB52:
	bl	_ZSt20__throw_bad_weak_ptrv(PLT)
.LEHE52:
.L1512:
	add	r0, sp, #40
	bl	_ZN9__gnu_cxx13__scoped_lockD1Ev(PLT)
.L1558:
.LEHB53:
	bl	__cxa_end_cleanup(PLT)
.L1460:
	bl	_ZSt20__throw_bad_weak_ptrv(PLT)
.LEHE53:
.L1507:
	mov	r0, #4
	bl	__cxa_allocate_exception(PLT)
	ldr	r1, .L1568+16
	ldr	r2, .L1568+20
	ldr	r3, .L1568+24
	ldr	r1, [r8, r1]
	add	r1, r1, #8
	str	r1, [r0]
	ldr	r2, [r8, r2]
	ldr	r1, [r8, r3]
.LEHB54:
	bl	__cxa_throw(PLT)
.LEHE54:
.L1513:
	cmn	r1, #1
	bne	.L1558
.LEHB55:
	bl	__cxa_call_unexpected(PLT)
.L1564:
	mov	r0, #4
	bl	__cxa_allocate_exception(PLT)
	ldr	r1, .L1568+28
	ldr	r2, .L1568+32
	ldr	r3, .L1568+36
	ldr	r1, [r8, r1]
	add	r1, r1, #8
	str	r1, [r0]
	ldr	r2, [r8, r2]
	ldr	r1, [r8, r3]
	bl	__cxa_throw(PLT)
.L1511:
	cmp	r9, #0
	beq	.L1498
	mov	r0, r9
	bl	_ZNSt16_Sp_counted_baseILN9__gnu_cxx12_Lock_policyE1EE10_M_releaseEv(PLT)
.L1498:
	mov	r0, r4
	bl	_ZNSt16_Sp_counted_baseILN9__gnu_cxx12_Lock_policyE1EE10_M_releaseEv(PLT)
	bl	__cxa_end_cleanup(PLT)
.LEHE55:
.L1569:
	.align	2
.L1568:
	.word	_GLOBAL_OFFSET_TABLE_-(.LPIC116+8)
	.word	_ZL28__gthrw___pthread_key_createPjPFvPvE(GOT)
	.word	_ZN4asio6detail10call_stackINS0_15task_io_serviceENS0_27task_io_service_thread_infoEE4top_E(GOT)
	.word	_ZN4asio6detail18completion_handlerIZN8asiodnp311DNP3Channel13SetLogFiltersERKN7openpal10LogFiltersEEUlvE_E11do_completeEPNS0_15task_io_serviceEPNS0_25task_io_service_operationERKSt10error_codej-(.LPIC117+8)
	.word	_ZTVN9__gnu_cxx26__concurrence_unlock_errorE(GOT)
	.word	_ZN9__gnu_cxx26__concurrence_unlock_errorD1Ev(GOT)
	.word	_ZTIN9__gnu_cxx26__concurrence_unlock_errorE(GOT)
	.word	_ZTVN9__gnu_cxx24__concurrence_lock_errorE(GOT)
	.word	_ZN9__gnu_cxx24__concurrence_lock_errorD1Ev(GOT)
	.word	_ZTIN9__gnu_cxx24__concurrence_lock_errorE(GOT)
	.personality	__gxx_personality_v0
	.handlerdata
	.align	2
.LLSDA8376:
	.byte	0xff
	.byte	0x90
	.uleb128 .LLSDATT8376-.LLSDATTD8376
.LLSDATTD8376:
	.byte	0x1
	.uleb128 .LLSDACSE8376-.LLSDACSB8376
.LLSDACSB8376:
	.uleb128 .LEHB51-.LFB8376
	.uleb128 .LEHE51-.LEHB51
	.uleb128 .L1511-.LFB8376
	.uleb128 0
	.uleb128 .LEHB52-.LFB8376
	.uleb128 .LEHE52-.LEHB52
	.uleb128 .L1512-.LFB8376
	.uleb128 0
	.uleb128 .LEHB53-.LFB8376
	.uleb128 .LEHE53-.LEHB53
	.uleb128 0
	.uleb128 0
	.uleb128 .LEHB54-.LFB8376
	.uleb128 .LEHE54-.LEHB54
	.uleb128 .L1513-.LFB8376
	.uleb128 0x1
	.uleb128 .LEHB55-.LFB8376
	.uleb128 .LEHE55-.LEHB55
	.uleb128 0
	.uleb128 0
.LLSDACSE8376:
	.byte	0x7f
	.byte	0
	.align	2
.LLSDATT8376:
	.word	0
	.text
	.fnend
	.size	_ZN8asiodnp311DNP3Channel13SetLogFiltersERKN7openpal10LogFiltersE, .-_ZN8asiodnp311DNP3Channel13SetLogFiltersERKN7openpal10LogFiltersE
	.align	2
	.global	_ZN8asiodnp311DNP3ChannelC2ERKN7openpal6LoggerERKSt10shared_ptrIN7asiopal8ExecutorEERKS5_INS_9IOHandlerEERKS5_INS6_16IResourceManagerEE
	.syntax unified
	.arm
	.fpu vfp
	.type	_ZN8asiodnp311DNP3ChannelC2ERKN7openpal6LoggerERKSt10shared_ptrIN7asiopal8ExecutorEERKS5_INS_9IOHandlerEERKS5_INS6_16IResourceManagerEE, %function
_ZN8asiodnp311DNP3ChannelC2ERKN7openpal6LoggerERKSt10shared_ptrIN7asiopal8ExecutorEERKS5_INS_9IOHandlerEERKS5_INS6_16IResourceManagerEE:
	.fnstart
.LFB8326:
	@ args = 4, pretend = 0, frame = 0
	@ frame_needed = 0, uses_anonymous_args = 0
	push	{r4, r5, r6, r7, r8, lr}
	.save {r4, r5, r6, r7, r8, lr}
	mov	r4, r0
	ldr	r6, .L1652
	ldr	ip, .L1652+4
.LPIC118:
	add	r6, pc, r6
	mov	r0, #0
	str	r0, [r4, #4]
	str	r0, [r4, #8]
	ldr	r0, [r1, #4]
	ldr	ip, [r6, ip]
	ldr	lr, [r1]
	add	ip, ip, #8
	cmp	r0, #0
	str	lr, [r4, #12]
	str	ip, [r4]
	str	r0, [r4, #16]
	ldr	lr, [sp, #24]
	beq	.L1571
	ldr	ip, .L1652+8
	ldr	ip, [r6, ip]
	cmp	ip, #0
	beq	.L1572
	add	r0, r0, #28
	mcr	p15, 0, r0, c7, c10, 5
.L1644:
	ldrex	ip, [r0]
	add	ip, ip, #1
	strex	r5, ip, [r0]
	cmp	r5, #0
	bne	.L1644
	mcr	p15, 0, r0, c7, c10, 5
	ldr	ip, [r1, #12]
	ldr	r1, [r1, #8]
	cmp	ip, #0
	str	r1, [r4, #20]
	str	ip, [r4, #24]
	beq	.L1635
.L1646:
	add	ip, ip, #28
	mcr	p15, 0, r0, c7, c10, 5
.L1643:
	ldrex	r1, [ip]
	add	r1, r1, #1
	strex	r0, r1, [ip]
	cmp	r0, #0
	bne	.L1643
	mcr	p15, 0, r0, c7, c10, 5
.L1635:
	ldr	r1, [r2, #4]
	ldr	r2, [r2]
	cmp	r1, #0
	str	r2, [r4, #28]
	str	r1, [r4, #32]
	beq	.L1579
.L1602:
	add	r1, r1, #28
	mcr	p15, 0, r0, c7, c10, 5
.L1642:
	ldrex	r2, [r1]
	add	r2, r2, #1
	strex	r0, r2, [r1]
	cmp	r0, #0
	bne	.L1642
	mcr	p15, 0, r0, c7, c10, 5
	ldr	r2, [r3, #4]
	ldr	r3, [r3]
	cmp	r2, #0
	str	r3, [r4, #36]
	str	r2, [r4, #40]
	beq	.L1582
.L1647:
	add	r2, r2, #28
	mcr	p15, 0, r0, c7, c10, 5
.L1641:
	ldrex	r3, [r2]
	add	r3, r3, #1
	strex	r1, r3, [r2]
	cmp	r1, #0
	bne	.L1641
	mcr	p15, 0, r0, c7, c10, 5
	ldm	lr, {r2, r3}
	cmp	r3, #0
	str	r2, [r4, #44]
	str	r3, [r4, #48]
	beq	.L1585
.L1648:
	add	r3, r3, #28
	mcr	p15, 0, r0, c7, c10, 5
.L1640:
	ldrex	r2, [r3]
	add	r2, r2, #1
	strex	r1, r2, [r3]
	cmp	r1, #0
	bne	.L1640
	mcr	p15, 0, r0, c7, c10, 5
.L1585:
	mov	r3, #0
	str	r3, [r4, #52]
	str	r3, [r4, #56]
	mov	r0, #92
.LEHB56:
	bl	_Znwj(PLT)
.LEHE56:
	ldr	r2, .L1652+12
	mov	r5, r0
	mov	r1, #0
	mov	r0, #1
	str	r1, [r5, #4]
	str	r1, [r5, #8]
	str	r1, [r5, #12]
	str	r1, [r5, #16]
	str	r1, [r5, #20]
	str	r1, [r5, #24]
	str	r0, [r5, #28]
	str	r0, [r5, #32]
	ldr	r3, [r6, r2]
	mov	r7, r5
	add	r3, r3, #8
	str	r3, [r7], #36
	mov	r2, #56
	mov	r0, r7
	bl	memset(PLT)
	ldr	r2, .L1652+16
	ldr	r3, .L1652+20
	add	r1, r5, #72
	ldr	r2, [r6, r2]
	str	r5, [r4, #56]
	add	r2, r2, #8
	str	r2, [r5, #36]
	str	r1, [r5, #80]
	str	r1, [r5, #84]
	ldr	r1, [r6, r3]
	mov	r0, r1
	bl	_ZNKSt9type_infoeqERKS_(PLT)
	cmp	r0, #0
	movne	r0, r7
	moveq	r0, #0
	str	r0, [r4, #52]
	mov	r0, r4
	pop	{r4, r5, r6, r7, r8, pc}
.L1572:
	ldr	ip, [r1, #12]
	ldr	r5, [r0, #28]
	ldr	r7, [r1, #8]
	cmp	ip, #0
	add	r1, r5, #1
	str	r1, [r0, #28]
	str	r7, [r4, #20]
	str	ip, [r4, #24]
	beq	.L1651
.L1575:
	ldr	r1, [r2, #4]
	ldr	r0, [ip, #28]
	ldr	r5, [r2]
	cmp	r1, #0
	add	r2, r0, #1
	str	r2, [ip, #28]
	str	r5, [r4, #28]
	str	r1, [r4, #32]
	beq	.L1579
.L1580:
	ldr	r2, [r3, #4]
	ldr	r0, [r1, #28]
	ldr	ip, [r3]
	cmp	r2, #0
	add	r3, r0, #1
	str	r3, [r1, #28]
	str	ip, [r4, #36]
	str	r2, [r4, #40]
	beq	.L1582
.L1583:
	ldm	lr, {r0, r3}
	ldr	r1, [r2, #28]
	cmp	r3, #0
	add	r1, r1, #1
	str	r1, [r2, #28]
	str	r0, [r4, #44]
	str	r3, [r4, #48]
	beq	.L1585
.L1586:
	ldr	r2, [r3, #28]
	add	r2, r2, #1
	str	r2, [r3, #28]
	b	.L1585
.L1582:
	ldm	lr, {r2, r3}
	cmp	r3, #0
	str	r2, [r4, #44]
	str	r3, [r4, #48]
	beq	.L1585
	ldr	r2, .L1652+8
	ldr	r2, [r6, r2]
	cmp	r2, #0
	bne	.L1648
	b	.L1586
.L1571:
	ldr	ip, [r1, #12]
	ldr	r1, [r1, #8]
	cmp	ip, #0
	str	r1, [r4, #20]
	str	ip, [r4, #24]
	beq	.L1577
	ldr	r1, .L1652+8
	ldr	r1, [r6, r1]
	cmp	r1, #0
	bne	.L1646
	b	.L1575
.L1651:
	ldr	r1, [r2, #4]
	ldr	r2, [r2]
	cmp	r1, #0
	str	r2, [r4, #28]
	str	r1, [r4, #32]
	bne	.L1580
.L1579:
	ldr	r2, [r3, #4]
	ldr	r3, [r3]
	cmp	r2, #0
	str	r3, [r4, #36]
	str	r2, [r4, #40]
	beq	.L1582
	ldr	r3, .L1652+8
	ldr	r3, [r6, r3]
	cmp	r3, #0
	bne	.L1647
	b	.L1583
.L1577:
	ldr	r1, [r2, #4]
	ldr	r2, [r2]
	cmp	r1, #0
	str	r2, [r4, #28]
	str	r1, [r4, #32]
	beq	.L1579
	ldr	r2, .L1652+8
	ldr	r2, [r6, r2]
	cmp	r2, #0
	bne	.L1602
	b	.L1580
.L1604:
	ldr	r0, [r4, #48]
	cmp	r0, #0
	beq	.L1590
	bl	_ZNSt16_Sp_counted_baseILN9__gnu_cxx12_Lock_policyE1EE10_M_releaseEv(PLT)
.L1590:
	ldr	r0, [r4, #40]
	cmp	r0, #0
	beq	.L1591
	bl	_ZNSt16_Sp_counted_baseILN9__gnu_cxx12_Lock_policyE1EE10_M_releaseEv(PLT)
.L1591:
	ldr	r0, [r4, #32]
	cmp	r0, #0
	beq	.L1592
	bl	_ZNSt16_Sp_counted_baseILN9__gnu_cxx12_Lock_policyE1EE10_M_releaseEv(PLT)
.L1592:
	add	r0, r4, #12
	bl	_ZN7openpal6LoggerD1Ev(PLT)
	ldr	r0, [r4, #8]
	cmp	r0, #0
	beq	.L1594
	ldr	r3, .L1652+8
	add	r2, r0, #32
	ldr	r3, [r6, r3]
	cmp	r3, #0
	beq	.L1595
	mcr	p15, 0, r0, c7, c10, 5
.L1639:
	ldrex	r3, [r2]
	sub	r1, r3, #1
	strex	ip, r1, [r2]
	cmp	ip, #0
	bne	.L1639
	mcr	p15, 0, r0, c7, c10, 5
.L1596:
	cmp	r3, #1
	bne	.L1594
	mcr	p15, 0, r0, c7, c10, 5
	ldr	r3, [r0]
	ldr	r3, [r3, #12]
	blx	r3
.L1594:
.LEHB57:
	bl	__cxa_end_cleanup(PLT)
.LEHE57:
.L1595:
	ldr	r3, [r0, #32]
	sub	r2, r3, #1
	str	r2, [r0, #32]
	b	.L1596
.L1653:
	.align	2
.L1652:
	.word	_GLOBAL_OFFSET_TABLE_-(.LPIC118+8)
	.word	_ZTVN8asiodnp311DNP3ChannelE(GOT)
	.word	_ZL28__gthrw___pthread_key_createPjPFvPvE(GOT)
	.word	_ZTVSt23_Sp_counted_ptr_inplaceIN7asiopal15ResourceManagerESaIS1_ELN9__gnu_cxx12_Lock_policyE1EE(GOT)
	.word	_ZTVN7asiopal15ResourceManagerE(GOT)
	.word	_ZTISt19_Sp_make_shared_tag(GOT)
	.personality	__gxx_personality_v0
	.handlerdata
.LLSDA8326:
	.byte	0xff
	.byte	0xff
	.byte	0x1
	.uleb128 .LLSDACSE8326-.LLSDACSB8326
.LLSDACSB8326:
	.uleb128 .LEHB56-.LFB8326
	.uleb128 .LEHE56-.LEHB56
	.uleb128 .L1604-.LFB8326
	.uleb128 0
	.uleb128 .LEHB57-.LFB8326
	.uleb128 .LEHE57-.LEHB57
	.uleb128 0
	.uleb128 0
.LLSDACSE8326:
	.text
	.fnend
	.size	_ZN8asiodnp311DNP3ChannelC2ERKN7openpal6LoggerERKSt10shared_ptrIN7asiopal8ExecutorEERKS5_INS_9IOHandlerEERKS5_INS6_16IResourceManagerEE, .-_ZN8asiodnp311DNP3ChannelC2ERKN7openpal6LoggerERKSt10shared_ptrIN7asiopal8ExecutorEERKS5_INS_9IOHandlerEERKS5_INS6_16IResourceManagerEE
	.global	_ZN8asiodnp311DNP3ChannelC1ERKN7openpal6LoggerERKSt10shared_ptrIN7asiopal8ExecutorEERKS5_INS_9IOHandlerEERKS5_INS6_16IResourceManagerEE
	.set	_ZN8asiodnp311DNP3ChannelC1ERKN7openpal6LoggerERKSt10shared_ptrIN7asiopal8ExecutorEERKS5_INS_9IOHandlerEERKS5_INS6_16IResourceManagerEE,_ZN8asiodnp311DNP3ChannelC2ERKN7openpal6LoggerERKSt10shared_ptrIN7asiopal8ExecutorEERKS5_INS_9IOHandlerEERKS5_INS6_16IResourceManagerEE
	.align	2
	.syntax unified
	.arm
	.fpu vfp
	.type	_ZN4asio6detail18completion_handlerIZN8asiodnp311DNP3Channel12ShutdownImplEvEUlvE_E11do_completeEPNS0_15task_io_serviceEPNS0_25task_io_service_operationERKSt10error_codej, %function
_ZN4asio6detail18completion_handlerIZN8asiodnp311DNP3Channel12ShutdownImplEvEUlvE_E11do_completeEPNS0_15task_io_serviceEPNS0_25task_io_service_operationERKSt10error_codej:
	.fnstart
.LFB10954:
	@ args = 0, pretend = 0, frame = 16
	@ frame_needed = 0, uses_anonymous_args = 0
	push	{r4, r5, r6, r7, r8, lr}
	.save {r4, r5, r6, r7, r8, lr}
	mov	r8, r0
	ldr	r6, .L1704
	ldr	r3, .L1704+4
.LPIC119:
	add	r6, pc, r6
	.pad #16
	sub	sp, sp, #16
	ldr	r3, [r6, r3]
	mov	r7, r1
	ldr	r5, [r1, #12]
	ldr	r0, [r3]
	ldr	r4, [r1, #16]
	bl	pthread_getspecific(PLT)
	cmp	r0, #0
	beq	.L1655
	ldr	r3, [r0, #4]
	cmp	r3, #0
	beq	.L1655
	ldr	r2, [r3]
	cmp	r2, #0
	beq	.L1702
.L1655:
	mov	r0, r7
	bl	_ZdlPv(PLT)
.L1656:
	cmp	r8, #0
	beq	.L1657
	add	r3, sp, #16
	mov	r2, #0
	str	r2, [r3, #-12]!
	mov	r2, #1
.L1698:
	ldrex	r1, [r3]
	strex	r0, r2, [r3]
	cmp	r0, #0
	bne	.L1698
	mcr	p15, 0, r0, c7, c10, 5
	ldr	r0, [r5, #44]
	cmp	r4, #0
	ldr	r3, [r0]
	str	r5, [sp, #8]
	str	r4, [sp, #12]
	ldr	r3, [r3, #8]
	beq	.L1658
	ldr	r2, .L1704+8
	ldr	r2, [r6, r2]
	cmp	r2, #0
	beq	.L1659
	add	r2, r4, #28
	mcr	p15, 0, r0, c7, c10, 5
.L1697:
	ldrex	r1, [r2]
	add	r1, r1, #1
	strex	ip, r1, [r2]
	cmp	ip, #0
	bne	.L1697
	mcr	p15, 0, r0, c7, c10, 5
.L1658:
	add	r1, sp, #8
.LEHB58:
	blx	r3
.LEHE58:
	ldr	r0, [sp, #12]
	cmp	r0, #0
	beq	.L1660
	bl	_ZNSt16_Sp_counted_baseILN9__gnu_cxx12_Lock_policyE1EE10_M_releaseEv(PLT)
.L1660:
	ldr	r0, [r5, #48]
	mov	r3, #0
	cmp	r0, r3
	str	r3, [r5, #44]
	str	r3, [r5, #48]
	beq	.L1661
	bl	_ZNSt16_Sp_counted_baseILN9__gnu_cxx12_Lock_policyE1EE10_M_releaseEv(PLT)
.L1661:
	mov	r3, #0
	mcr	p15, 0, r0, c7, c10, 5
	str	r3, [sp, #4]
.L1657:
	cmp	r4, #0
	beq	.L1654
	ldr	r3, .L1704+8
	ldr	r3, [r6, r3]
	cmp	r3, #0
	beq	.L1668
	add	r3, r4, #28
	mcr	p15, 0, r0, c7, c10, 5
.L1696:
	ldrex	r2, [r3]
	sub	r1, r2, #1
	strex	r0, r1, [r3]
	cmp	r0, #0
	bne	.L1696
	cmp	r2, #1
	mcr	p15, 0, r0, c7, c10, 5
	beq	.L1703
.L1654:
	add	sp, sp, #16
	@ sp needed
	pop	{r4, r5, r6, r7, r8, pc}
.L1659:
	ldr	r2, [r4, #28]
	add	r2, r2, #1
	str	r2, [r4, #28]
	b	.L1658
.L1668:
	ldr	r3, [r4, #28]
	cmp	r3, #1
	sub	r3, r3, #1
	str	r3, [r4, #28]
	bne	.L1654
	ldr	r3, [r4]
	mov	r0, r4
	ldr	r3, [r3, #8]
	blx	r3
	mcr	p15, 0, r0, c7, c10, 5
	ldr	r2, [r4, #32]
	sub	r3, r2, #1
	str	r3, [r4, #32]
	b	.L1672
.L1703:
	ldr	r3, [r4]
	mov	r0, r4
	ldr	r3, [r3, #8]
	blx	r3
	add	r3, r4, #32
	mcr	p15, 0, r0, c7, c10, 5
	mcr	p15, 0, r0, c7, c10, 5
.L1695:
	ldrex	r2, [r3]
	sub	r1, r2, #1
	strex	r0, r1, [r3]
	cmp	r0, #0
	bne	.L1695
	mcr	p15, 0, r0, c7, c10, 5
.L1672:
	cmp	r2, #1
	bne	.L1654
	ldr	r3, [r4]
	mov	r0, r4
	ldr	r3, [r3, #12]
	blx	r3
	b	.L1654
.L1702:
	ldrb	r2, [r7, #20]	@ zero_extendqisi2
	strb	r2, [r7]
	str	r7, [r3]
	b	.L1656
.L1673:
	ldr	r0, [sp, #12]
	cmp	r0, #0
	beq	.L1663
	bl	_ZNSt16_Sp_counted_baseILN9__gnu_cxx12_Lock_policyE1EE10_M_releaseEv(PLT)
.L1663:
	mov	r3, #0
	cmp	r4, #0
	mcr	p15, 0, r0, c7, c10, 5
	str	r3, [sp, #4]
	beq	.L1665
	mov	r0, r4
	bl	_ZNSt16_Sp_counted_baseILN9__gnu_cxx12_Lock_policyE1EE10_M_releaseEv(PLT)
.L1665:
.LEHB59:
	bl	__cxa_end_cleanup(PLT)
.LEHE59:
.L1705:
	.align	2
.L1704:
	.word	_GLOBAL_OFFSET_TABLE_-(.LPIC119+8)
	.word	_ZN4asio6detail10call_stackINS0_15task_io_serviceENS0_27task_io_service_thread_infoEE4top_E(GOT)
	.word	_ZL28__gthrw___pthread_key_createPjPFvPvE(GOT)
	.personality	__gxx_personality_v0
	.handlerdata
.LLSDA10954:
	.byte	0xff
	.byte	0xff
	.byte	0x1
	.uleb128 .LLSDACSE10954-.LLSDACSB10954
.LLSDACSB10954:
	.uleb128 .LEHB58-.LFB10954
	.uleb128 .LEHE58-.LEHB58
	.uleb128 .L1673-.LFB10954
	.uleb128 0
	.uleb128 .LEHB59-.LFB10954
	.uleb128 .LEHE59-.LEHB59
	.uleb128 0
	.uleb128 0
.LLSDACSE10954:
	.text
	.fnend
	.size	_ZN4asio6detail18completion_handlerIZN8asiodnp311DNP3Channel12ShutdownImplEvEUlvE_E11do_completeEPNS0_15task_io_serviceEPNS0_25task_io_service_operationERKSt10error_codej, .-_ZN4asio6detail18completion_handlerIZN8asiodnp311DNP3Channel12ShutdownImplEvEUlvE_E11do_completeEPNS0_15task_io_serviceEPNS0_25task_io_service_operationERKSt10error_codej
	.section	.text._ZNSt14_Function_base13_Base_managerIZZN8asiodnp311DNP3Channel8AddStackINS1_15OutstationStackEEESt10shared_ptrIT_ERKN8opendnp310LinkConfigERKS7_ENKUlvE_clEvEUlvE_E10_M_managerERSt9_Any_dataRKSH_St18_Manager_operation,"axG",%progbits,_ZNSt14_Function_base13_Base_managerIZZN8asiodnp311DNP3Channel8AddStackINS1_15OutstationStackEEESt10shared_ptrIT_ERKN8opendnp310LinkConfigERKS7_ENKUlvE_clEvEUlvE_E10_M_managerERSt9_Any_dataRKSH_St18_Manager_operation,comdat
	.align	2
	.weak	_ZNSt14_Function_base13_Base_managerIZZN8asiodnp311DNP3Channel8AddStackINS1_15OutstationStackEEESt10shared_ptrIT_ERKN8opendnp310LinkConfigERKS7_ENKUlvE_clEvEUlvE_E10_M_managerERSt9_Any_dataRKSH_St18_Manager_operation
	.syntax unified
	.arm
	.fpu vfp
	.type	_ZNSt14_Function_base13_Base_managerIZZN8asiodnp311DNP3Channel8AddStackINS1_15OutstationStackEEESt10shared_ptrIT_ERKN8opendnp310LinkConfigERKS7_ENKUlvE_clEvEUlvE_E10_M_managerERSt9_Any_dataRKSH_St18_Manager_operation, %function
_ZNSt14_Function_base13_Base_managerIZZN8asiodnp311DNP3Channel8AddStackINS1_15OutstationStackEEESt10shared_ptrIT_ERKN8opendnp310LinkConfigERKS7_ENKUlvE_clEvEUlvE_E10_M_managerERSt9_Any_dataRKSH_St18_Manager_operation:
	.fnstart
.LFB10775:
	@ args = 0, pretend = 0, frame = 0
	@ frame_needed = 0, uses_anonymous_args = 0
	push	{r4, r5, r6, lr}
	.save {r4, r5, r6, lr}
	mov	r5, r0
	ldr	r4, .L1742
.LPIC120:
	add	r4, pc, r4
	cmp	r2, #3
	addls	pc, pc, r2, asl #2
	b	.L1732
.L1709:
	b	.L1708
	b	.L1710
	b	.L1711
	b	.L1712
	.p2align 1
.L1711:
	mov	r0, #20
	ldr	r6, [r1]
	bl	_Znwj(PLT)
	ldm	r6, {r1, r2}
	cmp	r2, #0
	mov	r3, r0
	stm	r0, {r1, r2}
	beq	.L1713
	ldr	r1, .L1742+4
	ldr	r1, [r4, r1]
	cmp	r1, #0
	beq	.L1714
	add	r2, r2, #28
	mcr	p15, 0, r0, c7, c10, 5
.L1739:
	ldrex	r1, [r2]
	add	r1, r1, #1
	strex	r0, r1, [r2]
	cmp	r0, #0
	bne	.L1739
	mcr	p15, 0, r0, c7, c10, 5
	ldr	r1, [r6, #16]
	ldr	r0, [r6, #8]
	ldr	r2, [r6, #12]
	cmp	r1, #0
	str	r0, [r3, #8]	@ unaligned
	str	r2, [r3, #12]
	str	r1, [r3, #16]
	beq	.L1716
.L1741:
	add	r1, r1, #28
	mcr	p15, 0, r0, c7, c10, 5
.L1738:
	ldrex	r2, [r1]
	add	r2, r2, #1
	strex	r0, r2, [r1]
	cmp	r0, #0
	bne	.L1738
	mcr	p15, 0, r0, c7, c10, 5
.L1716:
	str	r3, [r5]
.L1732:
	mov	r0, #0
	pop	{r4, r5, r6, pc}
.L1712:
	ldr	r4, [r0]
	cmp	r4, #0
	beq	.L1732
	ldr	r0, [r4, #16]
	cmp	r0, #0
	beq	.L1719
	bl	_ZNSt16_Sp_counted_baseILN9__gnu_cxx12_Lock_policyE1EE10_M_releaseEv(PLT)
.L1719:
	ldr	r0, [r4, #4]
	cmp	r0, #0
	beq	.L1720
	bl	_ZNSt16_Sp_counted_baseILN9__gnu_cxx12_Lock_policyE1EE10_M_releaseEv(PLT)
.L1720:
	mov	r0, r4
	mov	r1, #20
	bl	_ZdlPvj(PLT)
	mov	r0, #0
	pop	{r4, r5, r6, pc}
.L1710:
	ldr	r3, [r1]
	str	r3, [r0]
	mov	r0, #0
	pop	{r4, r5, r6, pc}
.L1708:
	ldr	r3, .L1742+8
	ldr	r3, [r4, r3]
	str	r3, [r0]
	mov	r0, #0
	pop	{r4, r5, r6, pc}
.L1714:
	ldr	ip, [r2, #28]
	ldr	r1, [r6, #16]
	ldr	r0, [r6, #8]
	ldr	lr, [r6, #12]
	add	ip, ip, #1
	cmp	r1, #0
	str	ip, [r2, #28]
	str	r1, [r3, #16]
	str	r0, [r3, #8]	@ unaligned
