	.arch armv6
	.eabi_attribute 28, 1
	.eabi_attribute 20, 1
	.eabi_attribute 21, 1
	.eabi_attribute 23, 3
	.eabi_attribute 24, 1
	.eabi_attribute 25, 1
	.eabi_attribute 26, 2
	.eabi_attribute 30, 2
	.eabi_attribute 34, 1
	.eabi_attribute 18, 4
	.file	"EmptyResponseTask.cpp"
	.section	.text._ZNK8opendnp311IMasterTask10IsAuthTaskEv,"axG",%progbits,_ZNK8opendnp311IMasterTask10IsAuthTaskEv,comdat
	.align	2
	.weak	_ZNK8opendnp311IMasterTask10IsAuthTaskEv
	.syntax unified
	.arm
	.fpu vfp
	.type	_ZNK8opendnp311IMasterTask10IsAuthTaskEv, %function
_ZNK8opendnp311IMasterTask10IsAuthTaskEv:
	.fnstart
.LFB2267:
	@ args = 0, pretend = 0, frame = 0
	@ frame_needed = 0, uses_anonymous_args = 0
	@ link register save eliminated.
	mov	r0, #0
	bx	lr
	.cantunwind
	.fnend
	.size	_ZNK8opendnp311IMasterTask10IsAuthTaskEv, .-_ZNK8opendnp311IMasterTask10IsAuthTaskEv
	.section	.text._ZN8opendnp311IMasterTask10InitializeEv,"axG",%progbits,_ZN8opendnp311IMasterTask10InitializeEv,comdat
	.align	2
	.weak	_ZN8opendnp311IMasterTask10InitializeEv
	.syntax unified
	.arm
	.fpu vfp
	.type	_ZN8opendnp311IMasterTask10InitializeEv, %function
_ZN8opendnp311IMasterTask10InitializeEv:
	.fnstart
.LFB2268:
	@ args = 0, pretend = 0, frame = 0
	@ frame_needed = 0, uses_anonymous_args = 0
	@ link register save eliminated.
	bx	lr
	.cantunwind
	.fnend
	.size	_ZN8opendnp311IMasterTask10InitializeEv, .-_ZN8opendnp311IMasterTask10InitializeEv
	.section	.text._ZNK8opendnp321SimpleRequestTaskBase11IsRecurringEv,"axG",%progbits,_ZNK8opendnp321SimpleRequestTaskBase11IsRecurringEv,comdat
	.align	2
	.weak	_ZNK8opendnp321SimpleRequestTaskBase11IsRecurringEv
	.syntax unified
	.arm
	.fpu vfp
	.type	_ZNK8opendnp321SimpleRequestTaskBase11IsRecurringEv, %function
_ZNK8opendnp321SimpleRequestTaskBase11IsRecurringEv:
	.fnstart
.LFB2269:
	@ args = 0, pretend = 0, frame = 0
	@ frame_needed = 0, uses_anonymous_args = 0
	@ link register save eliminated.
	mov	r0, #0
	bx	lr
	.cantunwind
	.fnend
	.size	_ZNK8opendnp321SimpleRequestTaskBase11IsRecurringEv, .-_ZNK8opendnp321SimpleRequestTaskBase11IsRecurringEv
	.section	.text._ZNK8opendnp321SimpleRequestTaskBase8PriorityEv,"axG",%progbits,_ZNK8opendnp321SimpleRequestTaskBase8PriorityEv,comdat
	.align	2
	.weak	_ZNK8opendnp321SimpleRequestTaskBase8PriorityEv
	.syntax unified
	.arm
	.fpu vfp
	.type	_ZNK8opendnp321SimpleRequestTaskBase8PriorityEv, %function
_ZNK8opendnp321SimpleRequestTaskBase8PriorityEv:
	.fnstart
.LFB2270:
	@ args = 0, pretend = 0, frame = 0
	@ frame_needed = 0, uses_anonymous_args = 0
	@ link register save eliminated.
	ldr	r0, [r0, #68]
	bx	lr
	.cantunwind
	.fnend
	.size	_ZNK8opendnp321SimpleRequestTaskBase8PriorityEv, .-_ZNK8opendnp321SimpleRequestTaskBase8PriorityEv
	.section	.text._ZNK8opendnp321SimpleRequestTaskBase19BlocksLowerPriorityEv,"axG",%progbits,_ZNK8opendnp321SimpleRequestTaskBase19BlocksLowerPriorityEv,comdat
	.align	2
	.weak	_ZNK8opendnp321SimpleRequestTaskBase19BlocksLowerPriorityEv
	.syntax unified
	.arm
	.fpu vfp
	.type	_ZNK8opendnp321SimpleRequestTaskBase19BlocksLowerPriorityEv, %function
_ZNK8opendnp321SimpleRequestTaskBase19BlocksLowerPriorityEv:
	.fnstart
.LFB2271:
	@ args = 0, pretend = 0, frame = 0
	@ frame_needed = 0, uses_anonymous_args = 0
	@ link register save eliminated.
	mov	r0, #0
	bx	lr
	.cantunwind
	.fnend
	.size	_ZNK8opendnp321SimpleRequestTaskBase19BlocksLowerPriorityEv, .-_ZNK8opendnp321SimpleRequestTaskBase19BlocksLowerPriorityEv
	.section	.text._ZNK8opendnp321SimpleRequestTaskBase9IsEnabledEv,"axG",%progbits,_ZNK8opendnp321SimpleRequestTaskBase9IsEnabledEv,comdat
	.align	2
	.weak	_ZNK8opendnp321SimpleRequestTaskBase9IsEnabledEv
	.syntax unified
	.arm
	.fpu vfp
	.type	_ZNK8opendnp321SimpleRequestTaskBase9IsEnabledEv, %function
_ZNK8opendnp321SimpleRequestTaskBase9IsEnabledEv:
	.fnstart
.LFB2272:
	@ args = 0, pretend = 0, frame = 0
	@ frame_needed = 0, uses_anonymous_args = 0
	@ link register save eliminated.
	mov	r0, #1
	bx	lr
	.cantunwind
	.fnend
	.size	_ZNK8opendnp321SimpleRequestTaskBase9IsEnabledEv, .-_ZNK8opendnp321SimpleRequestTaskBase9IsEnabledEv
	.section	.text._ZNK8opendnp321SimpleRequestTaskBase11GetTaskTypeEv,"axG",%progbits,_ZNK8opendnp321SimpleRequestTaskBase11GetTaskTypeEv,comdat
	.align	2
	.weak	_ZNK8opendnp321SimpleRequestTaskBase11GetTaskTypeEv
	.syntax unified
	.arm
	.fpu vfp
	.type	_ZNK8opendnp321SimpleRequestTaskBase11GetTaskTypeEv, %function
_ZNK8opendnp321SimpleRequestTaskBase11GetTaskTypeEv:
	.fnstart
.LFB2273:
	@ args = 0, pretend = 0, frame = 0
	@ frame_needed = 0, uses_anonymous_args = 0
	@ link register save eliminated.
	mov	r0, #7
	bx	lr
	.cantunwind
	.fnend
	.size	_ZNK8opendnp321SimpleRequestTaskBase11GetTaskTypeEv, .-_ZNK8opendnp321SimpleRequestTaskBase11GetTaskTypeEv
	.section	.text._ZNK8opendnp317EmptyResponseTask4NameEv,"axG",%progbits,_ZNK8opendnp317EmptyResponseTask4NameEv,comdat
	.align	2
	.weak	_ZNK8opendnp317EmptyResponseTask4NameEv
	.syntax unified
	.arm
	.fpu vfp
	.type	_ZNK8opendnp317EmptyResponseTask4NameEv, %function
_ZNK8opendnp317EmptyResponseTask4NameEv:
	.fnstart
.LFB2274:
	@ args = 0, pretend = 0, frame = 0
	@ frame_needed = 0, uses_anonymous_args = 0
	@ link register save eliminated.
	ldr	r0, [r0, #88]
	bx	lr
	.cantunwind
	.fnend
	.size	_ZNK8opendnp317EmptyResponseTask4NameEv, .-_ZNK8opendnp317EmptyResponseTask4NameEv
	.text
	.align	2
	.global	_ZN8opendnp317EmptyResponseTask15ProcessResponseERKNS_18APDUResponseHeaderERKN7openpal6RSliceE
	.syntax unified
	.arm
	.fpu vfp
	.type	_ZN8opendnp317EmptyResponseTask15ProcessResponseERKNS_18APDUResponseHeaderERKN7openpal6RSliceE, %function
_ZN8opendnp317EmptyResponseTask15ProcessResponseERKNS_18APDUResponseHeaderERKN7openpal6RSliceE:
	.fnstart
.LFB2286:
	@ args = 0, pretend = 0, frame = 0
	@ frame_needed = 0, uses_anonymous_args = 0
	push	{r4, lr}
	.save {r4, lr}
	bl	_ZN8opendnp311IMasterTask20ValidateNullResponseERKNS_18APDUResponseHeaderERKN7openpal6RSliceE(PLT)
	cmp	r0, #0
	movne	r0, #2
	moveq	r0, #0
	pop	{r4, pc}
	.fnend
	.size	_ZN8opendnp317EmptyResponseTask15ProcessResponseERKNS_18APDUResponseHeaderERKN7openpal6RSliceE, .-_ZN8opendnp317EmptyResponseTask15ProcessResponseERKNS_18APDUResponseHeaderERKN7openpal6RSliceE
	.section	.text._ZN8opendnp317EmptyResponseTask14OnTaskCompleteENS_14TaskCompletionEN7openpal18MonotonicTimestampE,"axG",%progbits,_ZN8opendnp317EmptyResponseTask14OnTaskCompleteENS_14TaskCompletionEN7openpal18MonotonicTimestampE,comdat
	.align	2
	.weak	_ZN8opendnp317EmptyResponseTask14OnTaskCompleteENS_14TaskCompletionEN7openpal18MonotonicTimestampE
	.syntax unified
	.arm
	.fpu vfp
	.type	_ZN8opendnp317EmptyResponseTask14OnTaskCompleteENS_14TaskCompletionEN7openpal18MonotonicTimestampE, %function
_ZN8opendnp317EmptyResponseTask14OnTaskCompleteENS_14TaskCompletionEN7openpal18MonotonicTimestampE:
	.fnstart
.LFB2275:
	@ args = 8, pretend = 0, frame = 8
	@ frame_needed = 0, uses_anonymous_args = 0
	push	{r4, lr}
	.save {r4, lr}
	.pad #8
	sub	sp, sp, #8
	mov	r4, r0
	mov	r0, sp
	bl	_ZN7openpal18MonotonicTimestamp3MaxEv(PLT)
	ldrd	r2, [sp]
	mov	r1, #0
	mov	r0, r4
	strb	r1, [r4]
	strd	r2, [r4, #8]
	add	sp, sp, #8
	@ sp needed
	pop	{r4, pc}
	.fnend
	.size	_ZN8opendnp317EmptyResponseTask14OnTaskCompleteENS_14TaskCompletionEN7openpal18MonotonicTimestampE, .-_ZN8opendnp317EmptyResponseTask14OnTaskCompleteENS_14TaskCompletionEN7openpal18MonotonicTimestampE
	.section	.text._ZN8opendnp317EmptyResponseTaskD0Ev,"axG",%progbits,_ZN8opendnp317EmptyResponseTaskD5Ev,comdat
	.align	2
	.weak	_ZN8opendnp317EmptyResponseTaskD0Ev
	.syntax unified
	.arm
	.fpu vfp
	.type	_ZN8opendnp317EmptyResponseTaskD0Ev, %function
_ZN8opendnp317EmptyResponseTaskD0Ev:
	.fnstart
.LFB2864:
	@ args = 0, pretend = 0, frame = 0
	@ frame_needed = 0, uses_anonymous_args = 0
	push	{r4, r5, r6, lr}
	.save {r4, r5, r6, lr}
	add	r2, r0, #96
	ldr	r5, .L23
	ldr	r3, .L23+4
.LPIC0:
	add	r5, pc, r5
	mov	r4, r0
	ldr	r3, [r5, r3]
	ldr	r0, [r0, #88]
	add	r3, r3, #8
	cmp	r0, r2
	str	r3, [r4]
	beq	.L16
	bl	_ZdlPv(PLT)
.L16:
	ldr	r3, .L23+8
	ldr	r6, [r4, #80]
	ldr	r3, [r5, r3]
	cmp	r6, #0
	add	r3, r3, #8
	str	r3, [r4]
	beq	.L17
	add	r1, r4, #72
	mov	r0, r1
	mov	r2, #3
	blx	r6
.L17:
	mov	r0, r4
	bl	_ZN8opendnp311IMasterTaskD2Ev(PLT)
	mov	r0, r4
	mov	r1, #112
	bl	_ZdlPvj(PLT)
	mov	r0, r4
	pop	{r4, r5, r6, pc}
.L24:
	.align	2
.L23:
	.word	_GLOBAL_OFFSET_TABLE_-(.LPIC0+8)
	.word	_ZTVN8opendnp317EmptyResponseTaskE(GOT)
	.word	_ZTVN8opendnp321SimpleRequestTaskBaseE(GOT)
	.global	__gxx_personality_v0
	.personality	__gxx_personality_v0
	.handlerdata
.LLSDA2864:
	.byte	0xff
	.byte	0xff
	.byte	0x1
	.uleb128 .LLSDACSE2864-.LLSDACSB2864
.LLSDACSB2864:
.LLSDACSE2864:
	.section	.text._ZN8opendnp317EmptyResponseTaskD0Ev,"axG",%progbits,_ZN8opendnp317EmptyResponseTaskD5Ev,comdat
	.fnend
	.size	_ZN8opendnp317EmptyResponseTaskD0Ev, .-_ZN8opendnp317EmptyResponseTaskD0Ev
	.section	.text._ZN8opendnp317EmptyResponseTaskD2Ev,"axG",%progbits,_ZN8opendnp317EmptyResponseTaskD5Ev,comdat
	.align	2
	.weak	_ZN8opendnp317EmptyResponseTaskD2Ev
	.syntax unified
	.arm
	.fpu vfp
	.type	_ZN8opendnp317EmptyResponseTaskD2Ev, %function
_ZN8opendnp317EmptyResponseTaskD2Ev:
	.fnstart
.LFB2862:
	@ args = 0, pretend = 0, frame = 0
	@ frame_needed = 0, uses_anonymous_args = 0
	push	{r4, r5, r6, lr}
	.save {r4, r5, r6, lr}
	add	r2, r0, #96
	ldr	r5, .L32
	ldr	r3, .L32+4
.LPIC1:
	add	r5, pc, r5
	mov	r4, r0
	ldr	r3, [r5, r3]
	ldr	r0, [r0, #88]
	add	r3, r3, #8
	cmp	r0, r2
	str	r3, [r4]
	beq	.L26
	bl	_ZdlPv(PLT)
.L26:
	ldr	r3, .L32+8
	ldr	r6, [r4, #80]
	ldr	r3, [r5, r3]
	cmp	r6, #0
	add	r3, r3, #8
	str	r3, [r4]
	beq	.L27
	add	r1, r4, #72
	mov	r0, r1
	mov	r2, #3
	blx	r6
.L27:
	mov	r0, r4
	bl	_ZN8opendnp311IMasterTaskD2Ev(PLT)
	mov	r0, r4
	pop	{r4, r5, r6, pc}
.L33:
	.align	2
.L32:
	.word	_GLOBAL_OFFSET_TABLE_-(.LPIC1+8)
	.word	_ZTVN8opendnp317EmptyResponseTaskE(GOT)
	.word	_ZTVN8opendnp321SimpleRequestTaskBaseE(GOT)
	.personality	__gxx_personality_v0
	.handlerdata
.LLSDA2862:
	.byte	0xff
	.byte	0xff
	.byte	0x1
	.uleb128 .LLSDACSE2862-.LLSDACSB2862
.LLSDACSB2862:
.LLSDACSE2862:
	.section	.text._ZN8opendnp317EmptyResponseTaskD2Ev,"axG",%progbits,_ZN8opendnp317EmptyResponseTaskD5Ev,comdat
	.fnend
	.size	_ZN8opendnp317EmptyResponseTaskD2Ev, .-_ZN8opendnp317EmptyResponseTaskD2Ev
	.weak	_ZN8opendnp317EmptyResponseTaskD1Ev
	.set	_ZN8opendnp317EmptyResponseTaskD1Ev,_ZN8opendnp317EmptyResponseTaskD2Ev
	.section	.text._ZN7openpal6LoggerD2Ev,"axG",%progbits,_ZN7openpal6LoggerD5Ev,comdat
	.align	2
	.weak	_ZN7openpal6LoggerD2Ev
	.syntax unified
	.arm
	.fpu vfp
	.type	_ZN7openpal6LoggerD2Ev, %function
_ZN7openpal6LoggerD2Ev:
	.fnstart
.LFB1980:
	@ args = 0, pretend = 0, frame = 0
	@ frame_needed = 0, uses_anonymous_args = 0
	push	{r4, r5, r6, lr}
	mov	r4, r0
	ldr	r5, [r0, #12]
	ldr	r6, .L61
	cmp	r5, #0
.LPIC2:
	add	r6, pc, r6
	beq	.L36
	ldr	r3, .L61+4
	ldr	r3, [r6, r3]
	cmp	r3, #0
	beq	.L37
	add	r3, r5, #28
	mcr	p15, 0, r0, c7, c10, 5
.L53:
	ldrex	r2, [r3]
	sub	r1, r2, #1
	strex	r0, r1, [r3]
	cmp	r0, #0
	bne	.L53
	cmp	r2, #1
	mcr	p15, 0, r0, c7, c10, 5
	beq	.L59
.L36:
	ldr	r5, [r4, #4]
	cmp	r5, #0
	beq	.L49
	ldr	r3, .L61+4
	ldr	r3, [r6, r3]
	cmp	r3, #0
	beq	.L43
	add	r3, r5, #28
	mcr	p15, 0, r0, c7, c10, 5
.L52:
	ldrex	r2, [r3]
	sub	r1, r2, #1
	strex	r0, r1, [r3]
	cmp	r0, #0
	bne	.L52
	cmp	r2, #1
	mcr	p15, 0, r0, c7, c10, 5
	beq	.L60
.L49:
	mov	r0, r4
	pop	{r4, r5, r6, pc}
.L37:
	ldr	r3, [r5, #28]
	cmp	r3, #1
	sub	r3, r3, #1
	str	r3, [r5, #28]
	bne	.L36
	ldr	r3, [r5]
	mov	r0, r5
	ldr	r3, [r3, #8]
	blx	r3
	mcr	p15, 0, r0, c7, c10, 5
	ldr	r2, [r5, #32]
	sub	r3, r2, #1
	str	r3, [r5, #32]
	b	.L47
.L43:
	ldr	r3, [r5, #28]
	cmp	r3, #1
	sub	r3, r3, #1
	str	r3, [r5, #28]
	bne	.L49
	ldr	r3, [r5]
	mov	r0, r5
	ldr	r3, [r3, #8]
	blx	r3
	mcr	p15, 0, r0, c7, c10, 5
	ldr	r2, [r5, #32]
	sub	r3, r2, #1
	str	r3, [r5, #32]
	b	.L48
.L60:
	ldr	r3, [r5]
	mov	r0, r5
	ldr	r3, [r3, #8]
	blx	r3
	add	r3, r5, #32
	mcr	p15, 0, r0, c7, c10, 5
	mcr	p15, 0, r0, c7, c10, 5
.L50:
	ldrex	r2, [r3]
	sub	r1, r2, #1
	strex	r0, r1, [r3]
	cmp	r0, #0
	bne	.L50
	mcr	p15, 0, r0, c7, c10, 5
.L48:
	cmp	r2, #1
	bne	.L49
	ldr	r3, [r5]
	mov	r0, r5
	ldr	r3, [r3, #12]
	blx	r3
	b	.L49
.L59:
	ldr	r3, [r5]
	mov	r0, r5
	ldr	r3, [r3, #8]
	blx	r3
	add	r3, r5, #32
	mcr	p15, 0, r0, c7, c10, 5
	mcr	p15, 0, r0, c7, c10, 5
.L51:
	ldrex	r2, [r3]
	sub	r1, r2, #1
	strex	r0, r1, [r3]
	cmp	r0, #0
	bne	.L51
	mcr	p15, 0, r0, c7, c10, 5
.L47:
	cmp	r2, #1
	bne	.L36
	ldr	r3, [r5]
	mov	r0, r5
	ldr	r3, [r3, #12]
	blx	r3
	b	.L36
.L62:
	.align	2
.L61:
	.word	_GLOBAL_OFFSET_TABLE_-(.LPIC2+8)
	.word	_ZL28__gthrw___pthread_key_createPjPFvPvE(GOT)
	.cantunwind
	.fnend
	.size	_ZN7openpal6LoggerD2Ev, .-_ZN7openpal6LoggerD2Ev
	.weak	_ZN7openpal6LoggerD1Ev
	.set	_ZN7openpal6LoggerD1Ev,_ZN7openpal6LoggerD2Ev
	.text
	.align	2
	.global	_ZN8opendnp317EmptyResponseTaskC2ERNS_18IMasterApplicationERKNSt7__cxx1112basic_stringIcSt11char_traitsIcESaIcEEENS_12FunctionCodeERKSt8functionIFbRNS_12HeaderWriterEEEN7openpal6LoggerERKNS_10TaskConfigE
	.syntax unified
	.arm
	.fpu vfp
	.type	_ZN8opendnp317EmptyResponseTaskC2ERNS_18IMasterApplicationERKNSt7__cxx1112basic_stringIcSt11char_traitsIcESaIcEEENS_12FunctionCodeERKSt8functionIFbRNS_12HeaderWriterEEEN7openpal6LoggerERKNS_10TaskConfigE, %function
_ZN8opendnp317EmptyResponseTaskC2ERNS_18IMasterApplicationERKNSt7__cxx1112basic_stringIcSt11char_traitsIcESaIcEEENS_12FunctionCodeERKSt8functionIFbRNS_12HeaderWriterEEEN7openpal6LoggerERKNS_10TaskConfigE:
	.fnstart
.LFB2284:
	@ args = 12, pretend = 0, frame = 16
	@ frame_needed = 0, uses_anonymous_args = 0
	push	{r4, r5, r6, r7, r8, r9, lr}
	.save {r4, r5, r6, r7, r8, r9, lr}
	.pad #36
	sub	sp, sp, #36
	mov	r4, r0
	ldr	lr, [sp, #68]
	ldr	r6, .L130
	mov	r7, r2
	ldr	r0, [lr, #4]
	ldr	ip, [lr]
	cmp	r0, #0
.LPIC3:
	add	r6, pc, r6
	str	r0, [sp, #20]
	str	ip, [sp, #16]
	ldr	r2, [sp, #64]
	ldr	r5, [sp, #72]
	beq	.L64
	ldr	ip, .L130+4
	ldr	ip, [r6, ip]
	cmp	ip, #0
	beq	.L65
	add	r0, r0, #28
	mcr	p15, 0, r0, c7, c10, 5
.L115:
	ldrex	ip, [r0]
	add	ip, ip, #1
	strex	r8, ip, [r0]
	cmp	r8, #0
	bne	.L115
	mcr	p15, 0, r0, c7, c10, 5
	ldr	ip, [lr, #12]
	ldr	r0, [lr, #8]
	cmp	ip, #0
	str	r0, [sp, #24]
	str	ip, [sp, #28]
	beq	.L67
.L117:
	add	ip, ip, #28
	mcr	p15, 0, r0, c7, c10, 5
.L114:
	ldrex	r0, [ip]
	add	r0, r0, #1
	strex	lr, r0, [ip]
	cmp	lr, #0
	bne	.L114
	mcr	p15, 0, r0, c7, c10, 5
.L67:
	add	r8, sp, #16
	str	r2, [sp]
	str	r5, [sp, #8]
	mov	r2, r3
	str	r8, [sp, #4]
	mov	r3, #110
	mov	r0, r4
.LEHB0:
	bl	_ZN8opendnp321SimpleRequestTaskBaseC2ERNS_18IMasterApplicationENS_12FunctionCodeEiRKSt8functionIFbRNS_12HeaderWriterEEEN7openpal6LoggerERKNS_10TaskConfigE(PLT)
.LEHE0:
	ldr	r5, [sp, #28]
	cmp	r5, #0
	beq	.L71
	ldr	r3, .L130+4
	ldr	r3, [r6, r3]
	cmp	r3, #0
	beq	.L72
	add	r3, r5, #28
	mcr	p15, 0, r0, c7, c10, 5
.L113:
	ldrex	r2, [r3]
	sub	r1, r2, #1
	strex	r0, r1, [r3]
	cmp	r0, #0
	bne	.L113
	cmp	r2, #1
	mcr	p15, 0, r0, c7, c10, 5
	beq	.L124
.L71:
	ldr	r5, [sp, #20]
	cmp	r5, #0
	beq	.L77
	ldr	r3, .L130+4
	ldr	r3, [r6, r3]
	cmp	r3, #0
	beq	.L78
	add	r3, r5, #28
	mcr	p15, 0, r0, c7, c10, 5
.L112:
	ldrex	r2, [r3]
	sub	r1, r2, #1
	strex	r0, r1, [r3]
	cmp	r0, #0
	bne	.L112
	cmp	r2, #1
	mcr	p15, 0, r0, c7, c10, 5
	beq	.L125
.L77:
	ldr	r2, .L130+8
	mov	r0, r4
	ldr	r5, [r7, #4]
	ldr	r2, [r6, r2]
	add	r3, r4, #96
	add	r2, r2, #8
	str	r2, [r0], #88
	str	r3, [r4, #88]
	ldr	r7, [r7]
	rsb	r1, r5, #0
	cmp	r7, r1
	clz	r2, r7
	lsr	r2, r2, #5
	moveq	r2, #0
	cmp	r2, #0
	beq	.L126
	ldr	r0, .L130+12
.LPIC4:
	add	r0, pc, r0
.LEHB1:
	bl	_ZSt19__throw_logic_errorPKc(PLT)
.L126:
	cmp	r5, #15
	str	r5, [sp, #16]
	bhi	.L127
	cmp	r5, #1
	beq	.L128
	cmp	r5, #0
	bne	.L129
.L86:
	mov	r2, #0
	str	r5, [r4, #92]
	mov	r0, r4
	strb	r2, [r3, r5]
	add	sp, sp, #36
	@ sp needed
	pop	{r4, r5, r6, r7, r8, r9, pc}
.L72:
	ldr	r3, [r5, #28]
	cmp	r3, #1
	sub	r3, r3, #1
	str	r3, [r5, #28]
	bne	.L71
	ldr	r3, [r5]
	mov	r0, r5
	ldr	r3, [r3, #8]
	blx	r3
	mcr	p15, 0, r0, c7, c10, 5
	ldr	r2, [r5, #32]
	sub	r3, r2, #1
	str	r3, [r5, #32]
	b	.L93
.L65:
	ldr	ip, [lr, #12]
	ldr	r8, [r0, #28]
	ldr	r9, [lr, #8]
	cmp	ip, #0
	add	lr, r8, #1
	str	lr, [r0, #28]
	str	ip, [sp, #28]
	str	r9, [sp, #24]
	beq	.L67
.L68:
	ldr	r0, [ip, #28]
	add	r0, r0, #1
	str	r0, [ip, #28]
	b	.L67
.L127:
	mov	r1, r8
	bl	_ZNSt7__cxx1112basic_stringIcSt11char_traitsIcESaIcEE9_M_createERjj(PLT)
.LEHE1:
	ldr	r3, [sp, #16]
	str	r0, [r4, #88]
	str	r3, [r4, #96]
.L84:
	mov	r2, r5
	mov	r1, r7
	bl	memcpy(PLT)
	ldr	r5, [sp, #16]
	ldr	r3, [r4, #88]
	b	.L86
.L78:
	ldr	r3, [r5, #28]
	cmp	r3, #1
	sub	r3, r3, #1
	str	r3, [r5, #28]
	bne	.L77
	ldr	r3, [r5]
	mov	r0, r5
	ldr	r3, [r3, #8]
	blx	r3
	mcr	p15, 0, r0, c7, c10, 5
	ldr	r2, [r5, #32]
	sub	r3, r2, #1
	str	r3, [r5, #32]
	b	.L94
.L125:
	ldr	r3, [r5]
	mov	r0, r5
	ldr	r3, [r3, #8]
	blx	r3
	add	r3, r5, #32
	mcr	p15, 0, r0, c7, c10, 5
	mcr	p15, 0, r0, c7, c10, 5
.L110:
	ldrex	r2, [r3]
	sub	r1, r2, #1
	strex	r0, r1, [r3]
	cmp	r0, #0
	bne	.L110
	mcr	p15, 0, r0, c7, c10, 5
.L94:
	cmp	r2, #1
	bne	.L77
	ldr	r3, [r5]
	mov	r0, r5
	ldr	r3, [r3, #12]
	blx	r3
	b	.L77
.L124:
	ldr	r3, [r5]
	mov	r0, r5
	ldr	r3, [r3, #8]
	blx	r3
	add	r3, r5, #32
	mcr	p15, 0, r0, c7, c10, 5
	mcr	p15, 0, r0, c7, c10, 5
.L111:
	ldrex	r2, [r3]
	sub	r1, r2, #1
	strex	r0, r1, [r3]
	cmp	r0, #0
	bne	.L111
	mcr	p15, 0, r0, c7, c10, 5
.L93:
	cmp	r2, #1
	bne	.L71
	ldr	r3, [r5]
	mov	r0, r5
	ldr	r3, [r3, #12]
	blx	r3
	b	.L71
.L128:
	ldrb	r2, [r7]	@ zero_extendqisi2
	strb	r2, [r4, #96]
	b	.L86
.L64:
	ldr	ip, [lr, #12]
	ldr	r0, [lr, #8]
	cmp	ip, #0
	str	ip, [sp, #28]
	str	r0, [sp, #24]
	beq	.L67
	ldr	r0, .L130+4
	ldr	r0, [r6, r0]
	cmp	r0, #0
	bne	.L117
	b	.L68
.L97:
	ldr	r3, .L130+16
	ldr	r5, [r4, #80]
	ldr	r3, [r6, r3]
	cmp	r5, #0
	add	r3, r3, #8
	str	r3, [r4]
	beq	.L89
	add	r1, r4, #72
	mov	r0, r1
	mov	r2, #3
	blx	r5
.L89:
	mov	r0, r4
	bl	_ZN8opendnp311IMasterTaskD2Ev(PLT)
.LEHB2:
	bl	__cxa_end_cleanup(PLT)
.L129:
	mov	r0, r3
	b	.L84
.L96:
	mov	r0, r8
	bl	_ZN7openpal6LoggerD1Ev(PLT)
	bl	__cxa_end_cleanup(PLT)
.LEHE2:
.L131:
	.align	2
.L130:
	.word	_GLOBAL_OFFSET_TABLE_-(.LPIC3+8)
	.word	_ZL28__gthrw___pthread_key_createPjPFvPvE(GOT)
	.word	_ZTVN8opendnp317EmptyResponseTaskE(GOT)
	.word	.LC0-(.LPIC4+8)
	.word	_ZTVN8opendnp321SimpleRequestTaskBaseE(GOT)
	.personality	__gxx_personality_v0
	.handlerdata
.LLSDA2284:
	.byte	0xff
	.byte	0xff
	.byte	0x1
	.uleb128 .LLSDACSE2284-.LLSDACSB2284
.LLSDACSB2284:
	.uleb128 .LEHB0-.LFB2284
	.uleb128 .LEHE0-.LEHB0
	.uleb128 .L96-.LFB2284
	.uleb128 0
	.uleb128 .LEHB1-.LFB2284
	.uleb128 .LEHE1-.LEHB1
	.uleb128 .L97-.LFB2284
	.uleb128 0
	.uleb128 .LEHB2-.LFB2284
	.uleb128 .LEHE2-.LEHB2
	.uleb128 0
	.uleb128 0
.LLSDACSE2284:
	.text
	.fnend
	.size	_ZN8opendnp317EmptyResponseTaskC2ERNS_18IMasterApplicationERKNSt7__cxx1112basic_stringIcSt11char_traitsIcESaIcEEENS_12FunctionCodeERKSt8functionIFbRNS_12HeaderWriterEEEN7openpal6LoggerERKNS_10TaskConfigE, .-_ZN8opendnp317EmptyResponseTaskC2ERNS_18IMasterApplicationERKNSt7__cxx1112basic_stringIcSt11char_traitsIcESaIcEEENS_12FunctionCodeERKSt8functionIFbRNS_12HeaderWriterEEEN7openpal6LoggerERKNS_10TaskConfigE
	.global	_ZN8opendnp317EmptyResponseTaskC1ERNS_18IMasterApplicationERKNSt7__cxx1112basic_stringIcSt11char_traitsIcESaIcEEENS_12FunctionCodeERKSt8functionIFbRNS_12HeaderWriterEEEN7openpal6LoggerERKNS_10TaskConfigE
	.set	_ZN8opendnp317EmptyResponseTaskC1ERNS_18IMasterApplicationERKNSt7__cxx1112basic_stringIcSt11char_traitsIcESaIcEEENS_12FunctionCodeERKSt8functionIFbRNS_12HeaderWriterEEEN7openpal6LoggerERKNS_10TaskConfigE,_ZN8opendnp317EmptyResponseTaskC2ERNS_18IMasterApplicationERKNSt7__cxx1112basic_stringIcSt11char_traitsIcESaIcEEENS_12FunctionCodeERKSt8functionIFbRNS_12HeaderWriterEEEN7openpal6LoggerERKNS_10TaskConfigE
	.global	_ZTSN8opendnp317EmptyResponseTaskE
	.global	_ZTIN8opendnp317EmptyResponseTaskE
	.global	_ZTVN8opendnp317EmptyResponseTaskE
	.weakref	_ZL28__gthrw___pthread_key_createPjPFvPvE,__pthread_key_create
	.section	.rodata
	.align	2
	.type	_ZTSN8opendnp317EmptyResponseTaskE, %object
	.size	_ZTSN8opendnp317EmptyResponseTaskE, 31
_ZTSN8opendnp317EmptyResponseTaskE:
	.ascii	"N8opendnp317EmptyResponseTaskE\000"
	.section	.data.rel.ro,"aw",%progbits
	.align	2
	.type	_ZTIN8opendnp317EmptyResponseTaskE, %object
	.size	_ZTIN8opendnp317EmptyResponseTaskE, 12
_ZTIN8opendnp317EmptyResponseTaskE:
	.word	_ZTVN10__cxxabiv120__si_class_type_infoE+8
	.word	_ZTSN8opendnp317EmptyResponseTaskE
	.word	_ZTIN8opendnp321SimpleRequestTaskBaseE
	.type	_ZTVN8opendnp317EmptyResponseTaskE, %object
	.size	_ZTVN8opendnp317EmptyResponseTaskE, 60
_ZTVN8opendnp317EmptyResponseTaskE:
	.word	0
	.word	_ZTIN8opendnp317EmptyResponseTaskE
	.word	_ZN8opendnp317EmptyResponseTaskD1Ev
	.word	_ZN8opendnp317EmptyResponseTaskD0Ev
	.word	_ZNK8opendnp311IMasterTask10IsAuthTaskEv
	.word	_ZNK8opendnp317EmptyResponseTask4NameEv
	.word	_ZNK8opendnp321SimpleRequestTaskBase8PriorityEv
	.word	_ZNK8opendnp321SimpleRequestTaskBase19BlocksLowerPriorityEv
	.word	_ZNK8opendnp321SimpleRequestTaskBase11IsRecurringEv
	.word	_ZN8opendnp321SimpleRequestTaskBase12BuildRequestERNS_11APDURequestEh
	.word	_ZN8opendnp311IMasterTask10InitializeEv
	.word	_ZN8opendnp317EmptyResponseTask15ProcessResponseERKNS_18APDUResponseHeaderERKN7openpal6RSliceE
	.word	_ZN8opendnp317EmptyResponseTask14OnTaskCompleteENS_14TaskCompletionEN7openpal18MonotonicTimestampE
	.word	_ZNK8opendnp321SimpleRequestTaskBase9IsEnabledEv
	.word	_ZNK8opendnp321SimpleRequestTaskBase11GetTaskTypeEv
	.section	.rodata.str1.4,"aMS",%progbits,1
	.align	2
.LC0:
	.ascii	"basic_string::_M_construct null not valid\000"
	.ident	"GCC: (Raspbian 6.3.0-18+rpi1+deb9u1) 6.3.0 20170516"
	.section	.note.GNU-stack,"",%progbits
