	.arch armv6
	.eabi_attribute 28, 1
	.eabi_attribute 20, 1
	.eabi_attribute 21, 1
	.eabi_attribute 23, 3
	.eabi_attribute 24, 1
	.eabi_attribute 25, 1
	.eabi_attribute 26, 2
	.eabi_attribute 30, 2
	.eabi_attribute 34, 1
	.eabi_attribute 18, 4
	.file	"Executor.cpp"
	.section	.text._ZNK9__gnu_cxx24__concurrence_lock_error4whatEv,"axG",%progbits,_ZNK9__gnu_cxx24__concurrence_lock_error4whatEv,comdat
	.align	2
	.weak	_ZNK9__gnu_cxx24__concurrence_lock_error4whatEv
	.syntax unified
	.arm
	.fpu vfp
	.type	_ZNK9__gnu_cxx24__concurrence_lock_error4whatEv, %function
_ZNK9__gnu_cxx24__concurrence_lock_error4whatEv:
	.fnstart
.LFB1433:
	@ args = 0, pretend = 0, frame = 0
	@ frame_needed = 0, uses_anonymous_args = 0
	@ link register save eliminated.
	ldr	r0, .L2
.LPIC0:
	add	r0, pc, r0
	bx	lr
.L3:
	.align	2
.L2:
	.word	.LC0-(.LPIC0+8)
	.cantunwind
	.fnend
	.size	_ZNK9__gnu_cxx24__concurrence_lock_error4whatEv, .-_ZNK9__gnu_cxx24__concurrence_lock_error4whatEv
	.section	.text._ZNK9__gnu_cxx26__concurrence_unlock_error4whatEv,"axG",%progbits,_ZNK9__gnu_cxx26__concurrence_unlock_error4whatEv,comdat
	.align	2
	.weak	_ZNK9__gnu_cxx26__concurrence_unlock_error4whatEv
	.syntax unified
	.arm
	.fpu vfp
	.type	_ZNK9__gnu_cxx26__concurrence_unlock_error4whatEv, %function
_ZNK9__gnu_cxx26__concurrence_unlock_error4whatEv:
	.fnstart
.LFB1434:
	@ args = 0, pretend = 0, frame = 0
	@ frame_needed = 0, uses_anonymous_args = 0
	@ link register save eliminated.
	ldr	r0, .L5
.LPIC1:
	add	r0, pc, r0
	bx	lr
.L6:
	.align	2
.L5:
	.word	.LC1-(.LPIC1+8)
	.cantunwind
	.fnend
	.size	_ZNK9__gnu_cxx26__concurrence_unlock_error4whatEv, .-_ZNK9__gnu_cxx26__concurrence_unlock_error4whatEv
	.section	.text._ZNK4asio6detail15system_category4nameEv,"axG",%progbits,_ZNK4asio6detail15system_category4nameEv,comdat
	.align	2
	.weak	_ZNK4asio6detail15system_category4nameEv
	.syntax unified
	.arm
	.fpu vfp
	.type	_ZNK4asio6detail15system_category4nameEv, %function
_ZNK4asio6detail15system_category4nameEv:
	.fnstart
.LFB2057:
	@ args = 0, pretend = 0, frame = 0
	@ frame_needed = 0, uses_anonymous_args = 0
	@ link register save eliminated.
	ldr	r0, .L8
.LPIC2:
	add	r0, pc, r0
	bx	lr
.L9:
	.align	2
.L8:
	.word	.LC2-(.LPIC2+8)
	.cantunwind
	.fnend
	.size	_ZNK4asio6detail15system_category4nameEv, .-_ZNK4asio6detail15system_category4nameEv
	.section	.text._ZNK4asio5error6detail14netdb_category4nameEv,"axG",%progbits,_ZNK4asio5error6detail14netdb_category4nameEv,comdat
	.align	2
	.weak	_ZNK4asio5error6detail14netdb_category4nameEv
	.syntax unified
	.arm
	.fpu vfp
	.type	_ZNK4asio5error6detail14netdb_category4nameEv, %function
_ZNK4asio5error6detail14netdb_category4nameEv:
	.fnstart
.LFB2078:
	@ args = 0, pretend = 0, frame = 0
	@ frame_needed = 0, uses_anonymous_args = 0
	@ link register save eliminated.
	ldr	r0, .L11
.LPIC3:
	add	r0, pc, r0
	bx	lr
.L12:
	.align	2
.L11:
	.word	.LC3-(.LPIC3+8)
	.cantunwind
	.fnend
	.size	_ZNK4asio5error6detail14netdb_category4nameEv, .-_ZNK4asio5error6detail14netdb_category4nameEv
	.section	.text._ZNK4asio5error6detail17addrinfo_category4nameEv,"axG",%progbits,_ZNK4asio5error6detail17addrinfo_category4nameEv,comdat
	.align	2
	.weak	_ZNK4asio5error6detail17addrinfo_category4nameEv
	.syntax unified
	.arm
	.fpu vfp
	.type	_ZNK4asio5error6detail17addrinfo_category4nameEv, %function
_ZNK4asio5error6detail17addrinfo_category4nameEv:
	.fnstart
.LFB2084:
	@ args = 0, pretend = 0, frame = 0
	@ frame_needed = 0, uses_anonymous_args = 0
	@ link register save eliminated.
	ldr	r0, .L14
.LPIC4:
	add	r0, pc, r0
	bx	lr
.L15:
	.align	2
.L14:
	.word	.LC4-(.LPIC4+8)
	.cantunwind
	.fnend
	.size	_ZNK4asio5error6detail17addrinfo_category4nameEv, .-_ZNK4asio5error6detail17addrinfo_category4nameEv
	.section	.text._ZNK4asio5error6detail13misc_category4nameEv,"axG",%progbits,_ZNK4asio5error6detail13misc_category4nameEv,comdat
	.align	2
	.weak	_ZNK4asio5error6detail13misc_category4nameEv
	.syntax unified
	.arm
	.fpu vfp
	.type	_ZNK4asio5error6detail13misc_category4nameEv, %function
_ZNK4asio5error6detail13misc_category4nameEv:
	.fnstart
.LFB2090:
	@ args = 0, pretend = 0, frame = 0
	@ frame_needed = 0, uses_anonymous_args = 0
	@ link register save eliminated.
	ldr	r0, .L17
.LPIC5:
	add	r0, pc, r0
	bx	lr
.L18:
	.align	2
.L17:
	.word	.LC5-(.LPIC5+8)
	.cantunwind
	.fnend
	.size	_ZNK4asio5error6detail13misc_category4nameEv, .-_ZNK4asio5error6detail13misc_category4nameEv
	.section	.text._ZN4asio10io_service7service12fork_serviceENS0_10fork_eventE,"axG",%progbits,_ZN4asio10io_service7service12fork_serviceENS0_10fork_eventE,comdat
	.align	2
	.weak	_ZN4asio10io_service7service12fork_serviceENS0_10fork_eventE
	.syntax unified
	.arm
	.fpu vfp
	.type	_ZN4asio10io_service7service12fork_serviceENS0_10fork_eventE, %function
_ZN4asio10io_service7service12fork_serviceENS0_10fork_eventE:
	.fnstart
.LFB3171:
	@ args = 0, pretend = 0, frame = 0
	@ frame_needed = 0, uses_anonymous_args = 0
	@ link register save eliminated.
	bx	lr
	.cantunwind
	.fnend
	.size	_ZN4asio10io_service7service12fork_serviceENS0_10fork_eventE, .-_ZN4asio10io_service7service12fork_serviceENS0_10fork_eventE
	.section	.text._ZNSt13__future_base13_State_baseV217_M_complete_asyncEv,"axG",%progbits,_ZNSt13__future_base13_State_baseV217_M_complete_asyncEv,comdat
	.align	2
	.weak	_ZNSt13__future_base13_State_baseV217_M_complete_asyncEv
	.syntax unified
	.arm
	.fpu vfp
	.type	_ZNSt13__future_base13_State_baseV217_M_complete_asyncEv, %function
_ZNSt13__future_base13_State_baseV217_M_complete_asyncEv:
	.fnstart
.LFB6472:
	@ args = 0, pretend = 0, frame = 0
	@ frame_needed = 0, uses_anonymous_args = 0
	@ link register save eliminated.
	bx	lr
	.cantunwind
	.fnend
	.size	_ZNSt13__future_base13_State_baseV217_M_complete_asyncEv, .-_ZNSt13__future_base13_State_baseV217_M_complete_asyncEv
	.section	.text._ZNKSt13__future_base13_State_baseV221_M_is_deferred_futureEv,"axG",%progbits,_ZNKSt13__future_base13_State_baseV221_M_is_deferred_futureEv,comdat
	.align	2
	.weak	_ZNKSt13__future_base13_State_baseV221_M_is_deferred_futureEv
	.syntax unified
	.arm
	.fpu vfp
	.type	_ZNKSt13__future_base13_State_baseV221_M_is_deferred_futureEv, %function
_ZNKSt13__future_base13_State_baseV221_M_is_deferred_futureEv:
	.fnstart
.LFB6473:
	@ args = 0, pretend = 0, frame = 0
	@ frame_needed = 0, uses_anonymous_args = 0
	@ link register save eliminated.
	mov	r0, #0
	bx	lr
	.cantunwind
	.fnend
	.size	_ZNKSt13__future_base13_State_baseV221_M_is_deferred_futureEv, .-_ZNKSt13__future_base13_State_baseV221_M_is_deferred_futureEv
	.text
	.align	2
	.syntax unified
	.arm
	.fpu vfp
	.type	_ZNSt14_Function_base13_Base_managerIZN7asiopal8Executor18BlockUntilAndFlushERKSt8functionIFvvEEEUlvE_E10_M_managerERSt9_Any_dataRKSA_St18_Manager_operation, %function
_ZNSt14_Function_base13_Base_managerIZN7asiopal8Executor18BlockUntilAndFlushERKSt8functionIFvvEEEUlvE_E10_M_managerERSt9_Any_dataRKSA_St18_Manager_operation:
	.fnstart
.LFB7992:
	@ args = 0, pretend = 0, frame = 0
	@ frame_needed = 0, uses_anonymous_args = 0
	@ link register save eliminated.
	cmp	r2, #0
	beq	.L24
	cmp	r2, #1
	streq	r1, [r0]
	mov	r0, #0
	bx	lr
.L24:
	ldr	r3, .L27
.LPIC6:
	add	r3, pc, r3
	str	r3, [r0]
	mov	r0, #0
	bx	lr
.L28:
	.align	2
.L27:
	.word	.LANCHOR0-(.LPIC6+8)
	.cantunwind
	.fnend
	.size	_ZNSt14_Function_base13_Base_managerIZN7asiopal8Executor18BlockUntilAndFlushERKSt8functionIFvvEEEUlvE_E10_M_managerERSt9_Any_dataRKSA_St18_Manager_operation, .-_ZNSt14_Function_base13_Base_managerIZN7asiopal8Executor18BlockUntilAndFlushERKSt8functionIFvvEEEUlvE_E10_M_managerERSt9_Any_dataRKSA_St18_Manager_operation
	.section	.text._ZNSt14_Function_base13_Base_managerINSt13__future_base13_State_baseV27_SetterIbObEEE10_M_managerERSt9_Any_dataRKS7_St18_Manager_operation,"axG",%progbits,_ZNSt14_Function_base13_Base_managerINSt13__future_base13_State_baseV27_SetterIbObEEE10_M_managerERSt9_Any_dataRKS7_St18_Manager_operation,comdat
	.align	2
	.weak	_ZNSt14_Function_base13_Base_managerINSt13__future_base13_State_baseV27_SetterIbObEEE10_M_managerERSt9_Any_dataRKS7_St18_Manager_operation
	.syntax unified
	.arm
	.fpu vfp
	.type	_ZNSt14_Function_base13_Base_managerINSt13__future_base13_State_baseV27_SetterIbObEEE10_M_managerERSt9_Any_dataRKS7_St18_Manager_operation, %function
_ZNSt14_Function_base13_Base_managerINSt13__future_base13_State_baseV27_SetterIbObEEE10_M_managerERSt9_Any_dataRKS7_St18_Manager_operation:
	.fnstart
.LFB8176:
	@ args = 0, pretend = 0, frame = 0
	@ frame_needed = 0, uses_anonymous_args = 0
	@ link register save eliminated.
	ldr	r3, .L34
	cmp	r2, #1
.LPIC7:
	add	r3, pc, r3
	mov	ip, r0
	streq	r1, [r0]
	beq	.L30
	bcc	.L32
	cmp	r2, #2
	ldmeq	r1, {r0, r1}
	stmeq	ip, {r0, r1}
.L30:
	mov	r0, #0
	bx	lr
.L32:
	ldr	r2, .L34+4
	ldr	r3, [r3, r2]
	str	r3, [r0]
	mov	r0, #0
	bx	lr
.L35:
	.align	2
.L34:
	.word	_GLOBAL_OFFSET_TABLE_-(.LPIC7+8)
	.word	_ZTINSt13__future_base13_State_baseV27_SetterIbObEE(GOT)
	.cantunwind
	.fnend
	.size	_ZNSt14_Function_base13_Base_managerINSt13__future_base13_State_baseV27_SetterIbObEEE10_M_managerERSt9_Any_dataRKS7_St18_Manager_operation, .-_ZNSt14_Function_base13_Base_managerINSt13__future_base13_State_baseV27_SetterIbObEEE10_M_managerERSt9_Any_dataRKS7_St18_Manager_operation
	.section	.text._ZNSt13__future_base13_State_baseV2D2Ev,"axG",%progbits,_ZNSt13__future_base13_State_baseV2D5Ev,comdat
	.align	2
	.weak	_ZNSt13__future_base13_State_baseV2D2Ev
	.syntax unified
	.arm
	.fpu vfp
	.type	_ZNSt13__future_base13_State_baseV2D2Ev, %function
_ZNSt13__future_base13_State_baseV2D2Ev:
	.fnstart
.LFB8993:
	@ args = 0, pretend = 0, frame = 0
	@ frame_needed = 0, uses_anonymous_args = 0
	ldr	r3, .L42
	ldr	r2, .L42+4
.LPIC8:
	add	r3, pc, r3
	push	{r4, lr}
	.save {r4, lr}
	mov	r4, r0
	ldr	r3, [r3, r2]
	ldr	r0, [r0, #4]
	add	r3, r3, #8
	cmp	r0, #0
	str	r3, [r4]
	beq	.L37
	ldr	r3, [r0]
	ldr	r3, [r3]
	blx	r3
.L37:
	mov	r0, r4
	pop	{r4, pc}
.L43:
	.align	2
.L42:
	.word	_GLOBAL_OFFSET_TABLE_-(.LPIC8+8)
	.word	_ZTVNSt13__future_base13_State_baseV2E(GOT)
	.global	__gxx_personality_v0
	.personality	__gxx_personality_v0
	.handlerdata
.LLSDA8993:
	.byte	0xff
	.byte	0xff
	.byte	0x1
	.uleb128 .LLSDACSE8993-.LLSDACSB8993
.LLSDACSB8993:
.LLSDACSE8993:
	.section	.text._ZNSt13__future_base13_State_baseV2D2Ev,"axG",%progbits,_ZNSt13__future_base13_State_baseV2D5Ev,comdat
	.fnend
	.size	_ZNSt13__future_base13_State_baseV2D2Ev, .-_ZNSt13__future_base13_State_baseV2D2Ev
	.weak	_ZNSt13__future_base13_State_baseV2D1Ev
	.set	_ZNSt13__future_base13_State_baseV2D1Ev,_ZNSt13__future_base13_State_baseV2D2Ev
	.section	.text._ZN4asio6detail10service_idINS0_13epoll_reactorEED2Ev,"axG",%progbits,_ZN4asio6detail10service_idINS0_13epoll_reactorEED5Ev,comdat
	.align	2
	.weak	_ZN4asio6detail10service_idINS0_13epoll_reactorEED2Ev
	.syntax unified
	.arm
	.fpu vfp
	.type	_ZN4asio6detail10service_idINS0_13epoll_reactorEED2Ev, %function
_ZN4asio6detail10service_idINS0_13epoll_reactorEED2Ev:
	.fnstart
.LFB9061:
	@ args = 0, pretend = 0, frame = 0
	@ frame_needed = 0, uses_anonymous_args = 0
	@ link register save eliminated.
	bx	lr
	.cantunwind
	.fnend
	.size	_ZN4asio6detail10service_idINS0_13epoll_reactorEED2Ev, .-_ZN4asio6detail10service_idINS0_13epoll_reactorEED2Ev
	.weak	_ZN4asio6detail10service_idINS0_13epoll_reactorEED1Ev
	.set	_ZN4asio6detail10service_idINS0_13epoll_reactorEED1Ev,_ZN4asio6detail10service_idINS0_13epoll_reactorEED2Ev
	.section	.text._ZN4asio6detail10service_idINS0_15task_io_serviceEED2Ev,"axG",%progbits,_ZN4asio6detail10service_idINS0_15task_io_serviceEED5Ev,comdat
	.align	2
	.weak	_ZN4asio6detail10service_idINS0_15task_io_serviceEED2Ev
	.syntax unified
	.arm
	.fpu vfp
	.type	_ZN4asio6detail10service_idINS0_15task_io_serviceEED2Ev, %function
_ZN4asio6detail10service_idINS0_15task_io_serviceEED2Ev:
	.fnstart
.LFB9064:
	@ args = 0, pretend = 0, frame = 0
	@ frame_needed = 0, uses_anonymous_args = 0
	@ link register save eliminated.
	bx	lr
	.cantunwind
	.fnend
	.size	_ZN4asio6detail10service_idINS0_15task_io_serviceEED2Ev, .-_ZN4asio6detail10service_idINS0_15task_io_serviceEED2Ev
	.weak	_ZN4asio6detail10service_idINS0_15task_io_serviceEED1Ev
	.set	_ZN4asio6detail10service_idINS0_15task_io_serviceEED1Ev,_ZN4asio6detail10service_idINS0_15task_io_serviceEED2Ev
	.section	.text._ZN4asio6detail10service_idINS0_14strand_serviceEED2Ev,"axG",%progbits,_ZN4asio6detail10service_idINS0_14strand_serviceEED5Ev,comdat
	.align	2
	.weak	_ZN4asio6detail10service_idINS0_14strand_serviceEED2Ev
	.syntax unified
	.arm
	.fpu vfp
	.type	_ZN4asio6detail10service_idINS0_14strand_serviceEED2Ev, %function
_ZN4asio6detail10service_idINS0_14strand_serviceEED2Ev:
	.fnstart
.LFB9070:
	@ args = 0, pretend = 0, frame = 0
	@ frame_needed = 0, uses_anonymous_args = 0
	@ link register save eliminated.
	bx	lr
	.cantunwind
	.fnend
	.size	_ZN4asio6detail10service_idINS0_14strand_serviceEED2Ev, .-_ZN4asio6detail10service_idINS0_14strand_serviceEED2Ev
	.weak	_ZN4asio6detail10service_idINS0_14strand_serviceEED1Ev
	.set	_ZN4asio6detail10service_idINS0_14strand_serviceEED1Ev,_ZN4asio6detail10service_idINS0_14strand_serviceEED2Ev
	.section	.text._ZNSt23_Sp_counted_ptr_inplaceIN7asiopal5TimerESaIS1_ELN9__gnu_cxx12_Lock_policyE1EED2Ev,"axG",%progbits,_ZNSt23_Sp_counted_ptr_inplaceIN7asiopal5TimerESaIS1_ELN9__gnu_cxx12_Lock_policyE1EED5Ev,comdat
	.align	2
	.weak	_ZNSt23_Sp_counted_ptr_inplaceIN7asiopal5TimerESaIS1_ELN9__gnu_cxx12_Lock_policyE1EED2Ev
	.syntax unified
	.arm
	.fpu vfp
	.type	_ZNSt23_Sp_counted_ptr_inplaceIN7asiopal5TimerESaIS1_ELN9__gnu_cxx12_Lock_policyE1EED2Ev, %function
_ZNSt23_Sp_counted_ptr_inplaceIN7asiopal5TimerESaIS1_ELN9__gnu_cxx12_Lock_policyE1EED2Ev:
	.fnstart
.LFB9073:
	@ args = 0, pretend = 0, frame = 0
	@ frame_needed = 0, uses_anonymous_args = 0
	@ link register save eliminated.
	bx	lr
	.cantunwind
	.fnend
	.size	_ZNSt23_Sp_counted_ptr_inplaceIN7asiopal5TimerESaIS1_ELN9__gnu_cxx12_Lock_policyE1EED2Ev, .-_ZNSt23_Sp_counted_ptr_inplaceIN7asiopal5TimerESaIS1_ELN9__gnu_cxx12_Lock_policyE1EED2Ev
	.weak	_ZNSt23_Sp_counted_ptr_inplaceIN7asiopal5TimerESaIS1_ELN9__gnu_cxx12_Lock_policyE1EED1Ev
	.set	_ZNSt23_Sp_counted_ptr_inplaceIN7asiopal5TimerESaIS1_ELN9__gnu_cxx12_Lock_policyE1EED1Ev,_ZNSt23_Sp_counted_ptr_inplaceIN7asiopal5TimerESaIS1_ELN9__gnu_cxx12_Lock_policyE1EED2Ev
	.section	.text._ZNSt23_Sp_counted_ptr_inplaceINSt13__future_base13_State_baseV2ESaIS1_ELN9__gnu_cxx12_Lock_policyE1EED2Ev,"axG",%progbits,_ZNSt23_Sp_counted_ptr_inplaceINSt13__future_base13_State_baseV2ESaIS1_ELN9__gnu_cxx12_Lock_policyE1EED5Ev,comdat
	.align	2
	.weak	_ZNSt23_Sp_counted_ptr_inplaceINSt13__future_base13_State_baseV2ESaIS1_ELN9__gnu_cxx12_Lock_policyE1EED2Ev
	.syntax unified
	.arm
	.fpu vfp
	.type	_ZNSt23_Sp_counted_ptr_inplaceINSt13__future_base13_State_baseV2ESaIS1_ELN9__gnu_cxx12_Lock_policyE1EED2Ev, %function
_ZNSt23_Sp_counted_ptr_inplaceINSt13__future_base13_State_baseV2ESaIS1_ELN9__gnu_cxx12_Lock_policyE1EED2Ev:
	.fnstart
.LFB9087:
	@ args = 0, pretend = 0, frame = 0
	@ frame_needed = 0, uses_anonymous_args = 0
	@ link register save eliminated.
	bx	lr
	.cantunwind
	.fnend
	.size	_ZNSt23_Sp_counted_ptr_inplaceINSt13__future_base13_State_baseV2ESaIS1_ELN9__gnu_cxx12_Lock_policyE1EED2Ev, .-_ZNSt23_Sp_counted_ptr_inplaceINSt13__future_base13_State_baseV2ESaIS1_ELN9__gnu_cxx12_Lock_policyE1EED2Ev
	.weak	_ZNSt23_Sp_counted_ptr_inplaceINSt13__future_base13_State_baseV2ESaIS1_ELN9__gnu_cxx12_Lock_policyE1EED1Ev
	.set	_ZNSt23_Sp_counted_ptr_inplaceINSt13__future_base13_State_baseV2ESaIS1_ELN9__gnu_cxx12_Lock_policyE1EED1Ev,_ZNSt23_Sp_counted_ptr_inplaceINSt13__future_base13_State_baseV2ESaIS1_ELN9__gnu_cxx12_Lock_policyE1EED2Ev
	.section	.text._ZNSt23_Sp_counted_ptr_inplaceINSt13__future_base13_State_baseV2ESaIS1_ELN9__gnu_cxx12_Lock_policyE1EE10_M_disposeEv,"axG",%progbits,_ZNSt23_Sp_counted_ptr_inplaceINSt13__future_base13_State_baseV2ESaIS1_ELN9__gnu_cxx12_Lock_policyE1EE10_M_disposeEv,comdat
	.align	2
	.weak	_ZNSt23_Sp_counted_ptr_inplaceINSt13__future_base13_State_baseV2ESaIS1_ELN9__gnu_cxx12_Lock_policyE1EE10_M_disposeEv
	.syntax unified
	.arm
	.fpu vfp
	.type	_ZNSt23_Sp_counted_ptr_inplaceINSt13__future_base13_State_baseV2ESaIS1_ELN9__gnu_cxx12_Lock_policyE1EE10_M_disposeEv, %function
_ZNSt23_Sp_counted_ptr_inplaceINSt13__future_base13_State_baseV2ESaIS1_ELN9__gnu_cxx12_Lock_policyE1EE10_M_disposeEv:
	.fnstart
.LFB9090:
	@ args = 0, pretend = 0, frame = 0
	@ frame_needed = 0, uses_anonymous_args = 0
	@ link register save eliminated.
	mov	r3, r0
	add	r0, r0, #36
	ldr	r3, [r3, #36]
	ldr	r3, [r3]
	bx	r3
	.cantunwind
	.fnend
	.size	_ZNSt23_Sp_counted_ptr_inplaceINSt13__future_base13_State_baseV2ESaIS1_ELN9__gnu_cxx12_Lock_policyE1EE10_M_disposeEv, .-_ZNSt23_Sp_counted_ptr_inplaceINSt13__future_base13_State_baseV2ESaIS1_ELN9__gnu_cxx12_Lock_policyE1EE10_M_disposeEv
	.section	.text._ZNSt13__future_base13_State_baseV2D0Ev,"axG",%progbits,_ZNSt13__future_base13_State_baseV2D5Ev,comdat
	.align	2
	.weak	_ZNSt13__future_base13_State_baseV2D0Ev
	.syntax unified
	.arm
	.fpu vfp
	.type	_ZNSt13__future_base13_State_baseV2D0Ev, %function
_ZNSt13__future_base13_State_baseV2D0Ev:
	.fnstart
.LFB8995:
	@ args = 0, pretend = 0, frame = 0
	@ frame_needed = 0, uses_anonymous_args = 0
	ldr	r3, .L56
	ldr	r2, .L56+4
.LPIC9:
	add	r3, pc, r3
	push	{r4, lr}
	.save {r4, lr}
	mov	r4, r0
	ldr	r3, [r3, r2]
	ldr	r0, [r0, #4]
	add	r3, r3, #8
	cmp	r0, #0
	str	r3, [r4]
	beq	.L51
	ldr	r3, [r0]
	ldr	r3, [r3]
	blx	r3
.L51:
	mov	r0, r4
	mov	r1, #20
	bl	_ZdlPvj(PLT)
	mov	r0, r4
	pop	{r4, pc}
.L57:
	.align	2
.L56:
	.word	_GLOBAL_OFFSET_TABLE_-(.LPIC9+8)
	.word	_ZTVNSt13__future_base13_State_baseV2E(GOT)
	.personality	__gxx_personality_v0
	.handlerdata
.LLSDA8995:
	.byte	0xff
	.byte	0xff
	.byte	0x1
	.uleb128 .LLSDACSE8995-.LLSDACSB8995
.LLSDACSB8995:
.LLSDACSE8995:
	.section	.text._ZNSt13__future_base13_State_baseV2D0Ev,"axG",%progbits,_ZNSt13__future_base13_State_baseV2D5Ev,comdat
	.fnend
	.size	_ZNSt13__future_base13_State_baseV2D0Ev, .-_ZNSt13__future_base13_State_baseV2D0Ev
	.section	.text._ZNSt23_Sp_counted_ptr_inplaceINSt13__future_base13_State_baseV2ESaIS1_ELN9__gnu_cxx12_Lock_policyE1EED0Ev,"axG",%progbits,_ZNSt23_Sp_counted_ptr_inplaceINSt13__future_base13_State_baseV2ESaIS1_ELN9__gnu_cxx12_Lock_policyE1EED5Ev,comdat
	.align	2
	.weak	_ZNSt23_Sp_counted_ptr_inplaceINSt13__future_base13_State_baseV2ESaIS1_ELN9__gnu_cxx12_Lock_policyE1EED0Ev
	.syntax unified
	.arm
	.fpu vfp
	.type	_ZNSt23_Sp_counted_ptr_inplaceINSt13__future_base13_State_baseV2ESaIS1_ELN9__gnu_cxx12_Lock_policyE1EED0Ev, %function
_ZNSt23_Sp_counted_ptr_inplaceINSt13__future_base13_State_baseV2ESaIS1_ELN9__gnu_cxx12_Lock_policyE1EED0Ev:
	.fnstart
.LFB9089:
	@ args = 0, pretend = 0, frame = 0
	@ frame_needed = 0, uses_anonymous_args = 0
	push	{r4, lr}
	mov	r1, #56
	mov	r4, r0
	bl	_ZdlPvj(PLT)
	mov	r0, r4
	pop	{r4, pc}
	.cantunwind
	.fnend
	.size	_ZNSt23_Sp_counted_ptr_inplaceINSt13__future_base13_State_baseV2ESaIS1_ELN9__gnu_cxx12_Lock_policyE1EED0Ev, .-_ZNSt23_Sp_counted_ptr_inplaceINSt13__future_base13_State_baseV2ESaIS1_ELN9__gnu_cxx12_Lock_policyE1EED0Ev
	.section	.text._ZNSt23_Sp_counted_ptr_inplaceIN7asiopal5TimerESaIS1_ELN9__gnu_cxx12_Lock_policyE1EED0Ev,"axG",%progbits,_ZNSt23_Sp_counted_ptr_inplaceIN7asiopal5TimerESaIS1_ELN9__gnu_cxx12_Lock_policyE1EED5Ev,comdat
	.align	2
	.weak	_ZNSt23_Sp_counted_ptr_inplaceIN7asiopal5TimerESaIS1_ELN9__gnu_cxx12_Lock_policyE1EED0Ev
	.syntax unified
	.arm
	.fpu vfp
	.type	_ZNSt23_Sp_counted_ptr_inplaceIN7asiopal5TimerESaIS1_ELN9__gnu_cxx12_Lock_policyE1EED0Ev, %function
_ZNSt23_Sp_counted_ptr_inplaceIN7asiopal5TimerESaIS1_ELN9__gnu_cxx12_Lock_policyE1EED0Ev:
	.fnstart
.LFB9075:
	@ args = 0, pretend = 0, frame = 0
	@ frame_needed = 0, uses_anonymous_args = 0
	push	{r4, lr}
	mov	r1, #88
	mov	r4, r0
	bl	_ZdlPvj(PLT)
	mov	r0, r4
	pop	{r4, pc}
	.cantunwind
	.fnend
	.size	_ZNSt23_Sp_counted_ptr_inplaceIN7asiopal5TimerESaIS1_ELN9__gnu_cxx12_Lock_policyE1EED0Ev, .-_ZNSt23_Sp_counted_ptr_inplaceIN7asiopal5TimerESaIS1_ELN9__gnu_cxx12_Lock_policyE1EED0Ev
	.section	.text._ZN4asio6detail15system_categoryD2Ev,"axG",%progbits,_ZN4asio6detail15system_categoryD5Ev,comdat
	.align	2
	.weak	_ZN4asio6detail15system_categoryD2Ev
	.syntax unified
	.arm
	.fpu vfp
	.type	_ZN4asio6detail15system_categoryD2Ev, %function
_ZN4asio6detail15system_categoryD2Ev:
	.fnstart
.LFB9037:
	@ args = 0, pretend = 0, frame = 0
	@ frame_needed = 0, uses_anonymous_args = 0
	ldr	r3, .L64
	ldr	r2, .L64+4
.LPIC10:
	add	r3, pc, r3
	push	{r4, lr}
	mov	r4, r0
	ldr	r3, [r3, r2]
	add	r3, r3, #8
	str	r3, [r0]
	bl	_ZNSt3_V214error_categoryD2Ev(PLT)
	mov	r0, r4
	pop	{r4, pc}
.L65:
	.align	2
.L64:
	.word	_GLOBAL_OFFSET_TABLE_-(.LPIC10+8)
	.word	_ZTVN4asio6detail15system_categoryE(GOT)
	.cantunwind
	.fnend
	.size	_ZN4asio6detail15system_categoryD2Ev, .-_ZN4asio6detail15system_categoryD2Ev
	.weak	_ZN4asio6detail15system_categoryD1Ev
	.set	_ZN4asio6detail15system_categoryD1Ev,_ZN4asio6detail15system_categoryD2Ev
	.section	.text._ZN4asio6detail15system_categoryD0Ev,"axG",%progbits,_ZN4asio6detail15system_categoryD5Ev,comdat
	.align	2
	.weak	_ZN4asio6detail15system_categoryD0Ev
	.syntax unified
	.arm
	.fpu vfp
	.type	_ZN4asio6detail15system_categoryD0Ev, %function
_ZN4asio6detail15system_categoryD0Ev:
	.fnstart
.LFB9039:
	@ args = 0, pretend = 0, frame = 0
	@ frame_needed = 0, uses_anonymous_args = 0
	ldr	r3, .L68
	ldr	r2, .L68+4
.LPIC11:
	add	r3, pc, r3
	push	{r4, lr}
	mov	r4, r0
	ldr	r3, [r3, r2]
	add	r3, r3, #8
	str	r3, [r0]
	bl	_ZNSt3_V214error_categoryD2Ev(PLT)
	mov	r0, r4
	mov	r1, #4
	bl	_ZdlPvj(PLT)
	mov	r0, r4
	pop	{r4, pc}
.L69:
	.align	2
.L68:
	.word	_GLOBAL_OFFSET_TABLE_-(.LPIC11+8)
	.word	_ZTVN4asio6detail15system_categoryE(GOT)
	.cantunwind
	.fnend
	.size	_ZN4asio6detail15system_categoryD0Ev, .-_ZN4asio6detail15system_categoryD0Ev
	.section	.text._ZN4asio5error6detail14netdb_categoryD2Ev,"axG",%progbits,_ZN4asio5error6detail14netdb_categoryD5Ev,comdat
	.align	2
	.weak	_ZN4asio5error6detail14netdb_categoryD2Ev
	.syntax unified
	.arm
	.fpu vfp
	.type	_ZN4asio5error6detail14netdb_categoryD2Ev, %function
_ZN4asio5error6detail14netdb_categoryD2Ev:
	.fnstart
.LFB9033:
	@ args = 0, pretend = 0, frame = 0
	@ frame_needed = 0, uses_anonymous_args = 0
	ldr	r3, .L72
	ldr	r2, .L72+4
.LPIC12:
	add	r3, pc, r3
	push	{r4, lr}
	mov	r4, r0
	ldr	r3, [r3, r2]
	add	r3, r3, #8
	str	r3, [r0]
	bl	_ZNSt3_V214error_categoryD2Ev(PLT)
	mov	r0, r4
	pop	{r4, pc}
.L73:
	.align	2
.L72:
	.word	_GLOBAL_OFFSET_TABLE_-(.LPIC12+8)
	.word	_ZTVN4asio5error6detail14netdb_categoryE(GOT)
	.cantunwind
	.fnend
	.size	_ZN4asio5error6detail14netdb_categoryD2Ev, .-_ZN4asio5error6detail14netdb_categoryD2Ev
	.weak	_ZN4asio5error6detail14netdb_categoryD1Ev
	.set	_ZN4asio5error6detail14netdb_categoryD1Ev,_ZN4asio5error6detail14netdb_categoryD2Ev
	.section	.text._ZN4asio5error6detail14netdb_categoryD0Ev,"axG",%progbits,_ZN4asio5error6detail14netdb_categoryD5Ev,comdat
	.align	2
	.weak	_ZN4asio5error6detail14netdb_categoryD0Ev
	.syntax unified
	.arm
	.fpu vfp
	.type	_ZN4asio5error6detail14netdb_categoryD0Ev, %function
_ZN4asio5error6detail14netdb_categoryD0Ev:
	.fnstart
.LFB9035:
	@ args = 0, pretend = 0, frame = 0
	@ frame_needed = 0, uses_anonymous_args = 0
	ldr	r3, .L76
	ldr	r2, .L76+4
.LPIC13:
	add	r3, pc, r3
	push	{r4, lr}
	mov	r4, r0
	ldr	r3, [r3, r2]
	add	r3, r3, #8
	str	r3, [r0]
	bl	_ZNSt3_V214error_categoryD2Ev(PLT)
	mov	r0, r4
	mov	r1, #4
	bl	_ZdlPvj(PLT)
	mov	r0, r4
	pop	{r4, pc}
.L77:
	.align	2
.L76:
	.word	_GLOBAL_OFFSET_TABLE_-(.LPIC13+8)
	.word	_ZTVN4asio5error6detail14netdb_categoryE(GOT)
	.cantunwind
	.fnend
	.size	_ZN4asio5error6detail14netdb_categoryD0Ev, .-_ZN4asio5error6detail14netdb_categoryD0Ev
	.section	.text._ZN4asio5error6detail17addrinfo_categoryD2Ev,"axG",%progbits,_ZN4asio5error6detail17addrinfo_categoryD5Ev,comdat
	.align	2
	.weak	_ZN4asio5error6detail17addrinfo_categoryD2Ev
	.syntax unified
	.arm
	.fpu vfp
	.type	_ZN4asio5error6detail17addrinfo_categoryD2Ev, %function
_ZN4asio5error6detail17addrinfo_categoryD2Ev:
	.fnstart
.LFB9029:
	@ args = 0, pretend = 0, frame = 0
	@ frame_needed = 0, uses_anonymous_args = 0
	ldr	r3, .L80
	ldr	r2, .L80+4
.LPIC14:
	add	r3, pc, r3
	push	{r4, lr}
	mov	r4, r0
	ldr	r3, [r3, r2]
	add	r3, r3, #8
	str	r3, [r0]
	bl	_ZNSt3_V214error_categoryD2Ev(PLT)
	mov	r0, r4
	pop	{r4, pc}
.L81:
	.align	2
.L80:
	.word	_GLOBAL_OFFSET_TABLE_-(.LPIC14+8)
	.word	_ZTVN4asio5error6detail17addrinfo_categoryE(GOT)
	.cantunwind
	.fnend
	.size	_ZN4asio5error6detail17addrinfo_categoryD2Ev, .-_ZN4asio5error6detail17addrinfo_categoryD2Ev
	.weak	_ZN4asio5error6detail17addrinfo_categoryD1Ev
	.set	_ZN4asio5error6detail17addrinfo_categoryD1Ev,_ZN4asio5error6detail17addrinfo_categoryD2Ev
	.section	.text._ZN4asio5error6detail17addrinfo_categoryD0Ev,"axG",%progbits,_ZN4asio5error6detail17addrinfo_categoryD5Ev,comdat
	.align	2
	.weak	_ZN4asio5error6detail17addrinfo_categoryD0Ev
	.syntax unified
	.arm
	.fpu vfp
	.type	_ZN4asio5error6detail17addrinfo_categoryD0Ev, %function
_ZN4asio5error6detail17addrinfo_categoryD0Ev:
	.fnstart
.LFB9031:
	@ args = 0, pretend = 0, frame = 0
	@ frame_needed = 0, uses_anonymous_args = 0
	ldr	r3, .L84
	ldr	r2, .L84+4
.LPIC15:
	add	r3, pc, r3
	push	{r4, lr}
	mov	r4, r0
	ldr	r3, [r3, r2]
	add	r3, r3, #8
	str	r3, [r0]
	bl	_ZNSt3_V214error_categoryD2Ev(PLT)
	mov	r0, r4
	mov	r1, #4
	bl	_ZdlPvj(PLT)
	mov	r0, r4
	pop	{r4, pc}
.L85:
	.align	2
.L84:
	.word	_GLOBAL_OFFSET_TABLE_-(.LPIC15+8)
	.word	_ZTVN4asio5error6detail17addrinfo_categoryE(GOT)
	.cantunwind
	.fnend
	.size	_ZN4asio5error6detail17addrinfo_categoryD0Ev, .-_ZN4asio5error6detail17addrinfo_categoryD0Ev
	.section	.text._ZN4asio5error6detail13misc_categoryD2Ev,"axG",%progbits,_ZN4asio5error6detail13misc_categoryD5Ev,comdat
	.align	2
	.weak	_ZN4asio5error6detail13misc_categoryD2Ev
	.syntax unified
	.arm
	.fpu vfp
	.type	_ZN4asio5error6detail13misc_categoryD2Ev, %function
_ZN4asio5error6detail13misc_categoryD2Ev:
	.fnstart
.LFB9025:
	@ args = 0, pretend = 0, frame = 0
	@ frame_needed = 0, uses_anonymous_args = 0
	ldr	r3, .L88
	ldr	r2, .L88+4
.LPIC16:
	add	r3, pc, r3
	push	{r4, lr}
	mov	r4, r0
	ldr	r3, [r3, r2]
	add	r3, r3, #8
	str	r3, [r0]
	bl	_ZNSt3_V214error_categoryD2Ev(PLT)
	mov	r0, r4
	pop	{r4, pc}
.L89:
	.align	2
.L88:
	.word	_GLOBAL_OFFSET_TABLE_-(.LPIC16+8)
	.word	_ZTVN4asio5error6detail13misc_categoryE(GOT)
	.cantunwind
	.fnend
	.size	_ZN4asio5error6detail13misc_categoryD2Ev, .-_ZN4asio5error6detail13misc_categoryD2Ev
	.weak	_ZN4asio5error6detail13misc_categoryD1Ev
	.set	_ZN4asio5error6detail13misc_categoryD1Ev,_ZN4asio5error6detail13misc_categoryD2Ev
	.section	.text._ZN4asio5error6detail13misc_categoryD0Ev,"axG",%progbits,_ZN4asio5error6detail13misc_categoryD5Ev,comdat
	.align	2
	.weak	_ZN4asio5error6detail13misc_categoryD0Ev
	.syntax unified
	.arm
	.fpu vfp
	.type	_ZN4asio5error6detail13misc_categoryD0Ev, %function
_ZN4asio5error6detail13misc_categoryD0Ev:
	.fnstart
.LFB9027:
	@ args = 0, pretend = 0, frame = 0
	@ frame_needed = 0, uses_anonymous_args = 0
	ldr	r3, .L92
	ldr	r2, .L92+4
.LPIC17:
	add	r3, pc, r3
	push	{r4, lr}
	mov	r4, r0
	ldr	r3, [r3, r2]
	add	r3, r3, #8
	str	r3, [r0]
	bl	_ZNSt3_V214error_categoryD2Ev(PLT)
	mov	r0, r4
	mov	r1, #4
	bl	_ZdlPvj(PLT)
	mov	r0, r4
	pop	{r4, pc}
.L93:
	.align	2
.L92:
	.word	_GLOBAL_OFFSET_TABLE_-(.LPIC17+8)
	.word	_ZTVN4asio5error6detail13misc_categoryE(GOT)
	.cantunwind
	.fnend
	.size	_ZN4asio5error6detail13misc_categoryD0Ev, .-_ZN4asio5error6detail13misc_categoryD0Ev
	.section	.text._ZNSt23_Sp_counted_ptr_inplaceIN7asiopal5TimerESaIS1_ELN9__gnu_cxx12_Lock_policyE1EE10_M_destroyEv,"axG",%progbits,_ZNSt23_Sp_counted_ptr_inplaceIN7asiopal5TimerESaIS1_ELN9__gnu_cxx12_Lock_policyE1EE10_M_destroyEv,comdat
	.align	2
	.weak	_ZNSt23_Sp_counted_ptr_inplaceIN7asiopal5TimerESaIS1_ELN9__gnu_cxx12_Lock_policyE1EE10_M_destroyEv
	.syntax unified
	.arm
	.fpu vfp
	.type	_ZNSt23_Sp_counted_ptr_inplaceIN7asiopal5TimerESaIS1_ELN9__gnu_cxx12_Lock_policyE1EE10_M_destroyEv, %function
_ZNSt23_Sp_counted_ptr_inplaceIN7asiopal5TimerESaIS1_ELN9__gnu_cxx12_Lock_policyE1EE10_M_destroyEv:
	.fnstart
.LFB9077:
	@ args = 0, pretend = 0, frame = 0
	@ frame_needed = 0, uses_anonymous_args = 0
	@ link register save eliminated.
	b	_ZdlPv(PLT)
	.cantunwind
	.fnend
	.size	_ZNSt23_Sp_counted_ptr_inplaceIN7asiopal5TimerESaIS1_ELN9__gnu_cxx12_Lock_policyE1EE10_M_destroyEv, .-_ZNSt23_Sp_counted_ptr_inplaceIN7asiopal5TimerESaIS1_ELN9__gnu_cxx12_Lock_policyE1EE10_M_destroyEv
	.section	.text._ZNSt23_Sp_counted_ptr_inplaceINSt13__future_base13_State_baseV2ESaIS1_ELN9__gnu_cxx12_Lock_policyE1EE10_M_destroyEv,"axG",%progbits,_ZNSt23_Sp_counted_ptr_inplaceINSt13__future_base13_State_baseV2ESaIS1_ELN9__gnu_cxx12_Lock_policyE1EE10_M_destroyEv,comdat
	.align	2
	.weak	_ZNSt23_Sp_counted_ptr_inplaceINSt13__future_base13_State_baseV2ESaIS1_ELN9__gnu_cxx12_Lock_policyE1EE10_M_destroyEv
	.syntax unified
	.arm
	.fpu vfp
	.type	_ZNSt23_Sp_counted_ptr_inplaceINSt13__future_base13_State_baseV2ESaIS1_ELN9__gnu_cxx12_Lock_policyE1EE10_M_destroyEv, %function
_ZNSt23_Sp_counted_ptr_inplaceINSt13__future_base13_State_baseV2ESaIS1_ELN9__gnu_cxx12_Lock_policyE1EE10_M_destroyEv:
	.fnstart
.LFB9091:
	@ args = 0, pretend = 0, frame = 0
	@ frame_needed = 0, uses_anonymous_args = 0
	@ link register save eliminated.
	b	_ZdlPv(PLT)
	.cantunwind
	.fnend
	.size	_ZNSt23_Sp_counted_ptr_inplaceINSt13__future_base13_State_baseV2ESaIS1_ELN9__gnu_cxx12_Lock_policyE1EE10_M_destroyEv, .-_ZNSt23_Sp_counted_ptr_inplaceINSt13__future_base13_State_baseV2ESaIS1_ELN9__gnu_cxx12_Lock_policyE1EE10_M_destroyEv
	.section	.text._ZNSt23_Sp_counted_ptr_inplaceINSt13__future_base13_State_baseV2ESaIS1_ELN9__gnu_cxx12_Lock_policyE1EE14_M_get_deleterERKSt9type_info,"axG",%progbits,_ZNSt23_Sp_counted_ptr_inplaceINSt13__future_base13_State_baseV2ESaIS1_ELN9__gnu_cxx12_Lock_policyE1EE14_M_get_deleterERKSt9type_info,comdat
	.align	2
	.weak	_ZNSt23_Sp_counted_ptr_inplaceINSt13__future_base13_State_baseV2ESaIS1_ELN9__gnu_cxx12_Lock_policyE1EE14_M_get_deleterERKSt9type_info
	.syntax unified
	.arm
	.fpu vfp
	.type	_ZNSt23_Sp_counted_ptr_inplaceINSt13__future_base13_State_baseV2ESaIS1_ELN9__gnu_cxx12_Lock_policyE1EE14_M_get_deleterERKSt9type_info, %function
_ZNSt23_Sp_counted_ptr_inplaceINSt13__future_base13_State_baseV2ESaIS1_ELN9__gnu_cxx12_Lock_policyE1EE14_M_get_deleterERKSt9type_info:
	.fnstart
.LFB9092:
	@ args = 0, pretend = 0, frame = 0
	@ frame_needed = 0, uses_anonymous_args = 0
	ldr	r3, .L100
	ldr	r2, .L100+4
.LPIC18:
	add	r3, pc, r3
	push	{r4, lr}
	mov	r4, r0
	ldr	r2, [r3, r2]
	mov	r0, r1
	mov	r1, r2
	bl	_ZNKSt9type_infoeqERKS_(PLT)
	cmp	r0, #0
	addne	r0, r4, #36
	pop	{r4, pc}
.L101:
	.align	2
.L100:
	.word	_GLOBAL_OFFSET_TABLE_-(.LPIC18+8)
	.word	_ZTISt19_Sp_make_shared_tag(GOT)
	.cantunwind
	.fnend
	.size	_ZNSt23_Sp_counted_ptr_inplaceINSt13__future_base13_State_baseV2ESaIS1_ELN9__gnu_cxx12_Lock_policyE1EE14_M_get_deleterERKSt9type_info, .-_ZNSt23_Sp_counted_ptr_inplaceINSt13__future_base13_State_baseV2ESaIS1_ELN9__gnu_cxx12_Lock_policyE1EE14_M_get_deleterERKSt9type_info
	.section	.text._ZNSt23_Sp_counted_ptr_inplaceIN7asiopal5TimerESaIS1_ELN9__gnu_cxx12_Lock_policyE1EE14_M_get_deleterERKSt9type_info,"axG",%progbits,_ZNSt23_Sp_counted_ptr_inplaceIN7asiopal5TimerESaIS1_ELN9__gnu_cxx12_Lock_policyE1EE14_M_get_deleterERKSt9type_info,comdat
	.align	2
	.weak	_ZNSt23_Sp_counted_ptr_inplaceIN7asiopal5TimerESaIS1_ELN9__gnu_cxx12_Lock_policyE1EE14_M_get_deleterERKSt9type_info
	.syntax unified
	.arm
	.fpu vfp
	.type	_ZNSt23_Sp_counted_ptr_inplaceIN7asiopal5TimerESaIS1_ELN9__gnu_cxx12_Lock_policyE1EE14_M_get_deleterERKSt9type_info, %function
_ZNSt23_Sp_counted_ptr_inplaceIN7asiopal5TimerESaIS1_ELN9__gnu_cxx12_Lock_policyE1EE14_M_get_deleterERKSt9type_info:
	.fnstart
.LFB9078:
	@ args = 0, pretend = 0, frame = 0
	@ frame_needed = 0, uses_anonymous_args = 0
	ldr	r3, .L106
	ldr	r2, .L106+4
.LPIC19:
	add	r3, pc, r3
	push	{r4, lr}
	mov	r4, r0
	ldr	r2, [r3, r2]
	mov	r0, r1
	mov	r1, r2
	bl	_ZNKSt9type_infoeqERKS_(PLT)
	cmp	r0, #0
	addne	r0, r4, #40
	pop	{r4, pc}
.L107:
	.align	2
.L106:
	.word	_GLOBAL_OFFSET_TABLE_-(.LPIC19+8)
	.word	_ZTISt19_Sp_make_shared_tag(GOT)
	.cantunwind
	.fnend
	.size	_ZNSt23_Sp_counted_ptr_inplaceIN7asiopal5TimerESaIS1_ELN9__gnu_cxx12_Lock_policyE1EE14_M_get_deleterERKSt9type_info, .-_ZNSt23_Sp_counted_ptr_inplaceIN7asiopal5TimerESaIS1_ELN9__gnu_cxx12_Lock_policyE1EE14_M_get_deleterERKSt9type_info
	.section	.text._ZNSt13__future_base7_ResultIbED2Ev,"axG",%progbits,_ZNSt13__future_base7_ResultIbED5Ev,comdat
	.align	2
	.weak	_ZNSt13__future_base7_ResultIbED2Ev
	.syntax unified
	.arm
	.fpu vfp
	.type	_ZNSt13__future_base7_ResultIbED2Ev, %function
_ZNSt13__future_base7_ResultIbED2Ev:
	.fnstart
.LFB9109:
	@ args = 0, pretend = 0, frame = 0
	@ frame_needed = 0, uses_anonymous_args = 0
	ldr	r3, .L110
	ldr	r2, .L110+4
.LPIC20:
	add	r3, pc, r3
	push	{r4, lr}
	mov	r4, r0
	ldr	r3, [r3, r2]
	add	r3, r3, #8
	str	r3, [r0]
	bl	_ZNSt13__future_base12_Result_baseD2Ev(PLT)
	mov	r0, r4
	pop	{r4, pc}
.L111:
	.align	2
.L110:
	.word	_GLOBAL_OFFSET_TABLE_-(.LPIC20+8)
	.word	_ZTVNSt13__future_base7_ResultIbEE(GOT)
	.cantunwind
	.fnend
	.size	_ZNSt13__future_base7_ResultIbED2Ev, .-_ZNSt13__future_base7_ResultIbED2Ev
	.weak	_ZNSt13__future_base7_ResultIbED1Ev
	.set	_ZNSt13__future_base7_ResultIbED1Ev,_ZNSt13__future_base7_ResultIbED2Ev
	.section	.text._ZNSt13__future_base7_ResultIbED0Ev,"axG",%progbits,_ZNSt13__future_base7_ResultIbED5Ev,comdat
	.align	2
	.weak	_ZNSt13__future_base7_ResultIbED0Ev
	.syntax unified
	.arm
	.fpu vfp
	.type	_ZNSt13__future_base7_ResultIbED0Ev, %function
_ZNSt13__future_base7_ResultIbED0Ev:
	.fnstart
.LFB9111:
	@ args = 0, pretend = 0, frame = 0
	@ frame_needed = 0, uses_anonymous_args = 0
	ldr	r3, .L114
	ldr	r2, .L114+4
.LPIC21:
	add	r3, pc, r3
	push	{r4, lr}
	mov	r4, r0
	ldr	r3, [r3, r2]
	add	r3, r3, #8
	str	r3, [r0]
	bl	_ZNSt13__future_base12_Result_baseD2Ev(PLT)
	mov	r0, r4
	mov	r1, #12
	bl	_ZdlPvj(PLT)
	mov	r0, r4
	pop	{r4, pc}
.L115:
	.align	2
.L114:
	.word	_GLOBAL_OFFSET_TABLE_-(.LPIC21+8)
	.word	_ZTVNSt13__future_base7_ResultIbEE(GOT)
	.cantunwind
	.fnend
	.size	_ZNSt13__future_base7_ResultIbED0Ev, .-_ZNSt13__future_base7_ResultIbED0Ev
	.text
	.align	2
	.global	_ZN7asiopal8Executor7GetTimeEv
	.syntax unified
	.arm
	.fpu vfp
	.type	_ZN7asiopal8Executor7GetTimeEv, %function
_ZN7asiopal8Executor7GetTimeEv:
	.fnstart
.LFB6728:
	@ args = 0, pretend = 0, frame = 8
	@ frame_needed = 0, uses_anonymous_args = 0
	push	{r4, r5, lr}
	.save {r4, r5, lr}
	.pad #12
	sub	sp, sp, #12
	mov	r5, r0
	mov	r0, sp
	bl	_ZNSt6chrono3_V212steady_clock3nowEv(PLT)
	mov	r0, r5
	mov	r1, sp
	bl	_ZN7asiopal15TimeConversions7ConvertERKNSt6chrono10time_pointINS1_3_V212steady_clockENS1_8durationIxSt5ratioILx1ELx1000000000EEEEEE(PLT)
	mov	r0, r5
	add	sp, sp, #12
	@ sp needed
	pop	{r4, r5, pc}
	.fnend
	.size	_ZN7asiopal8Executor7GetTimeEv, .-_ZN7asiopal8Executor7GetTimeEv
	.section	.text._ZN9__gnu_cxx24__concurrence_lock_errorD2Ev,"axG",%progbits,_ZN9__gnu_cxx24__concurrence_lock_errorD5Ev,comdat
	.align	2
	.weak	_ZN9__gnu_cxx24__concurrence_lock_errorD2Ev
	.syntax unified
	.arm
	.fpu vfp
	.type	_ZN9__gnu_cxx24__concurrence_lock_errorD2Ev, %function
_ZN9__gnu_cxx24__concurrence_lock_errorD2Ev:
	.fnstart
.LFB9053:
	@ args = 0, pretend = 0, frame = 0
	@ frame_needed = 0, uses_anonymous_args = 0
	ldr	r3, .L120
	ldr	r2, .L120+4
.LPIC22:
	add	r3, pc, r3
	push	{r4, lr}
	mov	r4, r0
	ldr	r3, [r3, r2]
	add	r3, r3, #8
	str	r3, [r0]
	bl	_ZNSt9exceptionD2Ev(PLT)
	mov	r0, r4
	pop	{r4, pc}
.L121:
	.align	2
.L120:
	.word	_GLOBAL_OFFSET_TABLE_-(.LPIC22+8)
	.word	_ZTVN9__gnu_cxx24__concurrence_lock_errorE(GOT)
	.cantunwind
	.fnend
	.size	_ZN9__gnu_cxx24__concurrence_lock_errorD2Ev, .-_ZN9__gnu_cxx24__concurrence_lock_errorD2Ev
	.weak	_ZN9__gnu_cxx24__concurrence_lock_errorD1Ev
	.set	_ZN9__gnu_cxx24__concurrence_lock_errorD1Ev,_ZN9__gnu_cxx24__concurrence_lock_errorD2Ev
	.section	.text._ZN9__gnu_cxx24__concurrence_lock_errorD0Ev,"axG",%progbits,_ZN9__gnu_cxx24__concurrence_lock_errorD5Ev,comdat
	.align	2
	.weak	_ZN9__gnu_cxx24__concurrence_lock_errorD0Ev
	.syntax unified
	.arm
	.fpu vfp
	.type	_ZN9__gnu_cxx24__concurrence_lock_errorD0Ev, %function
_ZN9__gnu_cxx24__concurrence_lock_errorD0Ev:
	.fnstart
.LFB9055:
	@ args = 0, pretend = 0, frame = 0
	@ frame_needed = 0, uses_anonymous_args = 0
	ldr	r3, .L124
	ldr	r2, .L124+4
.LPIC23:
	add	r3, pc, r3
	push	{r4, lr}
	mov	r4, r0
	ldr	r3, [r3, r2]
	add	r3, r3, #8
	str	r3, [r0]
	bl	_ZNSt9exceptionD2Ev(PLT)
	mov	r0, r4
	mov	r1, #4
	bl	_ZdlPvj(PLT)
	mov	r0, r4
	pop	{r4, pc}
.L125:
	.align	2
.L124:
	.word	_GLOBAL_OFFSET_TABLE_-(.LPIC23+8)
	.word	_ZTVN9__gnu_cxx24__concurrence_lock_errorE(GOT)
	.cantunwind
	.fnend
	.size	_ZN9__gnu_cxx24__concurrence_lock_errorD0Ev, .-_ZN9__gnu_cxx24__concurrence_lock_errorD0Ev
	.section	.text._ZN9__gnu_cxx26__concurrence_unlock_errorD2Ev,"axG",%progbits,_ZN9__gnu_cxx26__concurrence_unlock_errorD5Ev,comdat
	.align	2
	.weak	_ZN9__gnu_cxx26__concurrence_unlock_errorD2Ev
	.syntax unified
	.arm
	.fpu vfp
	.type	_ZN9__gnu_cxx26__concurrence_unlock_errorD2Ev, %function
_ZN9__gnu_cxx26__concurrence_unlock_errorD2Ev:
	.fnstart
.LFB9049:
	@ args = 0, pretend = 0, frame = 0
	@ frame_needed = 0, uses_anonymous_args = 0
	ldr	r3, .L128
	ldr	r2, .L128+4
.LPIC24:
	add	r3, pc, r3
	push	{r4, lr}
	mov	r4, r0
	ldr	r3, [r3, r2]
	add	r3, r3, #8
	str	r3, [r0]
	bl	_ZNSt9exceptionD2Ev(PLT)
	mov	r0, r4
	pop	{r4, pc}
.L129:
	.align	2
.L128:
	.word	_GLOBAL_OFFSET_TABLE_-(.LPIC24+8)
	.word	_ZTVN9__gnu_cxx26__concurrence_unlock_errorE(GOT)
	.cantunwind
	.fnend
	.size	_ZN9__gnu_cxx26__concurrence_unlock_errorD2Ev, .-_ZN9__gnu_cxx26__concurrence_unlock_errorD2Ev
	.weak	_ZN9__gnu_cxx26__concurrence_unlock_errorD1Ev
	.set	_ZN9__gnu_cxx26__concurrence_unlock_errorD1Ev,_ZN9__gnu_cxx26__concurrence_unlock_errorD2Ev
	.section	.text._ZN9__gnu_cxx26__concurrence_unlock_errorD0Ev,"axG",%progbits,_ZN9__gnu_cxx26__concurrence_unlock_errorD5Ev,comdat
	.align	2
	.weak	_ZN9__gnu_cxx26__concurrence_unlock_errorD0Ev
	.syntax unified
	.arm
	.fpu vfp
	.type	_ZN9__gnu_cxx26__concurrence_unlock_errorD0Ev, %function
_ZN9__gnu_cxx26__concurrence_unlock_errorD0Ev:
	.fnstart
.LFB9051:
	@ args = 0, pretend = 0, frame = 0
	@ frame_needed = 0, uses_anonymous_args = 0
	ldr	r3, .L132
	ldr	r2, .L132+4
.LPIC25:
	add	r3, pc, r3
	push	{r4, lr}
	mov	r4, r0
	ldr	r3, [r3, r2]
	add	r3, r3, #8
	str	r3, [r0]
	bl	_ZNSt9exceptionD2Ev(PLT)
	mov	r0, r4
	mov	r1, #4
	bl	_ZdlPvj(PLT)
	mov	r0, r4
	pop	{r4, pc}
.L133:
	.align	2
.L132:
	.word	_GLOBAL_OFFSET_TABLE_-(.LPIC25+8)
	.word	_ZTVN9__gnu_cxx26__concurrence_unlock_errorE(GOT)
	.cantunwind
	.fnend
	.size	_ZN9__gnu_cxx26__concurrence_unlock_errorD0Ev, .-_ZN9__gnu_cxx26__concurrence_unlock_errorD0Ev
	.section	.text._ZNSt13__future_base13_State_baseV29_M_do_setEPSt8functionIFSt10unique_ptrINS_12_Result_baseENS3_8_DeleterEEvEEPb,"axG",%progbits,_ZNSt13__future_base13_State_baseV29_M_do_setEPSt8functionIFSt10unique_ptrINS_12_Result_baseENS3_8_DeleterEEvEEPb,comdat
	.align	2
	.weak	_ZNSt13__future_base13_State_baseV29_M_do_setEPSt8functionIFSt10unique_ptrINS_12_Result_baseENS3_8_DeleterEEvEEPb
	.syntax unified
	.arm
	.fpu vfp
	.type	_ZNSt13__future_base13_State_baseV29_M_do_setEPSt8functionIFSt10unique_ptrINS_12_Result_baseENS3_8_DeleterEEvEEPb, %function
_ZNSt13__future_base13_State_baseV29_M_do_setEPSt8functionIFSt10unique_ptrINS_12_Result_baseENS3_8_DeleterEEvEEPb:
	.fnstart
.LFB6471:
	@ args = 0, pretend = 0, frame = 8
	@ frame_needed = 0, uses_anonymous_args = 0
	push	{r4, r5, lr}
	.save {r4, r5, lr}
	mov	r4, r0
	ldr	r0, [r1, #8]
	.pad #12
	sub	sp, sp, #12
	cmp	r0, #0
	beq	.L141
	ldr	r3, [r1, #12]
	add	r0, sp, #4
	mov	r5, r2
.LEHB0:
	blx	r3
.LEHE0:
	ldr	r0, [r4, #4]
	ldr	r3, [sp, #4]
	mov	r2, #1
	cmp	r0, #0
	strb	r2, [r5]
	str	r0, [sp, #4]
	str	r3, [r4, #4]
	beq	.L134
	ldr	r3, [r0]
	ldr	r3, [r3]
	blx	r3
.L134:
	add	sp, sp, #12
	@ sp needed
	pop	{r4, r5, pc}
.L141:
.LEHB1:
	bl	_ZSt25__throw_bad_function_callv(PLT)
.LEHE1:
	.personality	__gxx_personality_v0
	.handlerdata
.LLSDA6471:
	.byte	0xff
	.byte	0xff
	.byte	0x1
	.uleb128 .LLSDACSE6471-.LLSDACSB6471
.LLSDACSB6471:
	.uleb128 .LEHB0-.LFB6471
	.uleb128 .LEHE0-.LEHB0
	.uleb128 0
	.uleb128 0
	.uleb128 .LEHB1-.LFB6471
	.uleb128 .LEHE1-.LEHB1
	.uleb128 0
	.uleb128 0
.LLSDACSE6471:
	.section	.text._ZNSt13__future_base13_State_baseV29_M_do_setEPSt8functionIFSt10unique_ptrINS_12_Result_baseENS3_8_DeleterEEvEEPb,"axG",%progbits,_ZNSt13__future_base13_State_baseV29_M_do_setEPSt8functionIFSt10unique_ptrINS_12_Result_baseENS3_8_DeleterEEvEEPb,comdat
	.fnend
	.size	_ZNSt13__future_base13_State_baseV29_M_do_setEPSt8functionIFSt10unique_ptrINS_12_Result_baseENS3_8_DeleterEEvEEPb, .-_ZNSt13__future_base13_State_baseV29_M_do_setEPSt8functionIFSt10unique_ptrINS_12_Result_baseENS3_8_DeleterEEvEEPb
	.section	.text._ZNSt17_Function_handlerIFSt10unique_ptrINSt13__future_base12_Result_baseENS2_8_DeleterEEvENS1_13_State_baseV27_SetterIbObEEE9_M_invokeERKSt9_Any_data,"axG",%progbits,_ZNSt17_Function_handlerIFSt10unique_ptrINSt13__future_base12_Result_baseENS2_8_DeleterEEvENS1_13_State_baseV27_SetterIbObEEE9_M_invokeERKSt9_Any_data,comdat
	.align	2
	.weak	_ZNSt17_Function_handlerIFSt10unique_ptrINSt13__future_base12_Result_baseENS2_8_DeleterEEvENS1_13_State_baseV27_SetterIbObEEE9_M_invokeERKSt9_Any_data
	.syntax unified
	.arm
	.fpu vfp
	.type	_ZNSt17_Function_handlerIFSt10unique_ptrINSt13__future_base12_Result_baseENS2_8_DeleterEEvENS1_13_State_baseV27_SetterIbObEEE9_M_invokeERKSt9_Any_data, %function
_ZNSt17_Function_handlerIFSt10unique_ptrINSt13__future_base12_Result_baseENS2_8_DeleterEEvENS1_13_State_baseV27_SetterIbObEEE9_M_invokeERKSt9_Any_data:
	.fnstart
.LFB8175:
	@ args = 0, pretend = 0, frame = 0
	@ frame_needed = 0, uses_anonymous_args = 0
	ldr	r2, [r1]
	ldr	r3, [r2]
	cmp	r3, #0
	beq	.L151
	ldr	r1, [r1, #4]
	ldr	r3, [r2, #8]
	mov	ip, r0
	ldrb	r1, [r1]	@ zero_extendqisi2
	cmn	r3, #8
	mov	r0, #1
	strbne	r1, [r3, #8]
	mov	r1, #0
	strb	r0, [r3, #9]
	str	r1, [r2, #8]
	mov	r0, ip
	str	r3, [ip]
	bx	lr
.L151:
	push	{r4, lr}
	.save {r4, lr}
	mov	r0, #3
	bl	_ZSt20__throw_future_errori(PLT)
	.fnend
	.size	_ZNSt17_Function_handlerIFSt10unique_ptrINSt13__future_base12_Result_baseENS2_8_DeleterEEvENS1_13_State_baseV27_SetterIbObEEE9_M_invokeERKSt9_Any_data, .-_ZNSt17_Function_handlerIFSt10unique_ptrINSt13__future_base12_Result_baseENS2_8_DeleterEEvENS1_13_State_baseV27_SetterIbObEEE9_M_invokeERKSt9_Any_data
	.section	.text._ZN4asio6detail7tss_ptrINS0_10call_stackINS0_15task_io_serviceENS0_27task_io_service_thread_infoEE7contextEED2Ev,"axG",%progbits,_ZN4asio6detail7tss_ptrINS0_10call_stackINS0_15task_io_serviceENS0_27task_io_service_thread_infoEE7contextEED5Ev,comdat
	.align	2
	.weak	_ZN4asio6detail7tss_ptrINS0_10call_stackINS0_15task_io_serviceENS0_27task_io_service_thread_infoEE7contextEED2Ev
	.syntax unified
	.arm
	.fpu vfp
	.type	_ZN4asio6detail7tss_ptrINS0_10call_stackINS0_15task_io_serviceENS0_27task_io_service_thread_infoEE7contextEED2Ev, %function
_ZN4asio6detail7tss_ptrINS0_10call_stackINS0_15task_io_serviceENS0_27task_io_service_thread_infoEE7contextEED2Ev:
	.fnstart
.LFB9058:
	@ args = 0, pretend = 0, frame = 0
	@ frame_needed = 0, uses_anonymous_args = 0
	push	{r4, lr}
	mov	r4, r0
	ldr	r0, [r0]
	bl	pthread_key_delete(PLT)
	mov	r0, r4
	pop	{r4, pc}
	.cantunwind
	.fnend
	.size	_ZN4asio6detail7tss_ptrINS0_10call_stackINS0_15task_io_serviceENS0_27task_io_service_thread_infoEE7contextEED2Ev, .-_ZN4asio6detail7tss_ptrINS0_10call_stackINS0_15task_io_serviceENS0_27task_io_service_thread_infoEE7contextEED2Ev
	.weak	_ZN4asio6detail7tss_ptrINS0_10call_stackINS0_15task_io_serviceENS0_27task_io_service_thread_infoEE7contextEED1Ev
	.set	_ZN4asio6detail7tss_ptrINS0_10call_stackINS0_15task_io_serviceENS0_27task_io_service_thread_infoEE7contextEED1Ev,_ZN4asio6detail7tss_ptrINS0_10call_stackINS0_15task_io_serviceENS0_27task_io_service_thread_infoEE7contextEED2Ev
	.section	.text._ZN4asio6detail7tss_ptrINS0_10call_stackINS0_14strand_service11strand_implEhE7contextEED2Ev,"axG",%progbits,_ZN4asio6detail7tss_ptrINS0_10call_stackINS0_14strand_service11strand_implEhE7contextEED5Ev,comdat
	.align	2
	.weak	_ZN4asio6detail7tss_ptrINS0_10call_stackINS0_14strand_service11strand_implEhE7contextEED2Ev
	.syntax unified
	.arm
	.fpu vfp
	.type	_ZN4asio6detail7tss_ptrINS0_10call_stackINS0_14strand_service11strand_implEhE7contextEED2Ev, %function
_ZN4asio6detail7tss_ptrINS0_10call_stackINS0_14strand_service11strand_implEhE7contextEED2Ev:
	.fnstart
.LFB9067:
	@ args = 0, pretend = 0, frame = 0
	@ frame_needed = 0, uses_anonymous_args = 0
	push	{r4, lr}
	mov	r4, r0
	ldr	r0, [r0]
	bl	pthread_key_delete(PLT)
	mov	r0, r4
	pop	{r4, pc}
	.cantunwind
	.fnend
	.size	_ZN4asio6detail7tss_ptrINS0_10call_stackINS0_14strand_service11strand_implEhE7contextEED2Ev, .-_ZN4asio6detail7tss_ptrINS0_10call_stackINS0_14strand_service11strand_implEhE7contextEED2Ev
	.weak	_ZN4asio6detail7tss_ptrINS0_10call_stackINS0_14strand_service11strand_implEhE7contextEED1Ev
	.set	_ZN4asio6detail7tss_ptrINS0_10call_stackINS0_14strand_service11strand_implEhE7contextEED1Ev,_ZN4asio6detail7tss_ptrINS0_10call_stackINS0_14strand_service11strand_implEhE7contextEED2Ev
	.text
	.align	2
	.syntax unified
	.arm
	.fpu vfp
	.type	_ZNSt17_Function_handlerIFvvEZN7asiopal8Executor18BlockUntilAndFlushERKSt8functionIS0_EEUlvE_E9_M_invokeERKSt9_Any_data, %function
_ZNSt17_Function_handlerIFvvEZN7asiopal8Executor18BlockUntilAndFlushERKSt8functionIS0_EEUlvE_E9_M_invokeERKSt9_Any_data:
	.fnstart
.LFB9330:
	@ args = 0, pretend = 0, frame = 0
	@ frame_needed = 0, uses_anonymous_args = 0
	@ link register save eliminated.
	bx	lr
	.cantunwind
	.fnend
	.size	_ZNSt17_Function_handlerIFvvEZN7asiopal8Executor18BlockUntilAndFlushERKSt8functionIS0_EEUlvE_E9_M_invokeERKSt9_Any_data, .-_ZNSt17_Function_handlerIFvvEZN7asiopal8Executor18BlockUntilAndFlushERKSt8functionIS0_EEUlvE_E9_M_invokeERKSt9_Any_data
	.section	.text._ZNSt13__future_base7_ResultIbE10_M_destroyEv,"axG",%progbits,_ZNSt13__future_base7_ResultIbE10_M_destroyEv,comdat
	.align	2
	.weak	_ZNSt13__future_base7_ResultIbE10_M_destroyEv
	.syntax unified
	.arm
	.fpu vfp
	.type	_ZNSt13__future_base7_ResultIbE10_M_destroyEv, %function
_ZNSt13__future_base7_ResultIbE10_M_destroyEv:
	.fnstart
.LFB9107:
	@ args = 0, pretend = 0, frame = 0
	@ frame_needed = 0, uses_anonymous_args = 0
	ldr	r1, .L160
	ldr	ip, [r0]
	ldr	r2, .L160+4
.LPIC26:
	add	r1, pc, r1
	push	{r4, lr}
	ldr	lr, [ip, #8]
	ldr	r2, [r1, r2]
	cmp	lr, r2
	bne	.L158
	ldr	r3, .L160+8
	mov	r4, r0
	ldr	r3, [r1, r3]
	add	r3, r3, #8
	str	r3, [r0]
	bl	_ZNSt13__future_base12_Result_baseD2Ev(PLT)
	mov	r0, r4
	mov	r1, #12
	pop	{r4, lr}
	b	_ZdlPvj(PLT)
.L158:
	mov	r3, lr
	pop	{r4, lr}
	bx	r3
.L161:
	.align	2
.L160:
	.word	_GLOBAL_OFFSET_TABLE_-(.LPIC26+8)
	.word	_ZNSt13__future_base7_ResultIbED0Ev(GOT)
	.word	_ZTVNSt13__future_base7_ResultIbEE(GOT)
	.cantunwind
	.fnend
	.size	_ZNSt13__future_base7_ResultIbE10_M_destroyEv, .-_ZNSt13__future_base7_ResultIbE10_M_destroyEv
	.section	.text._ZN4asio6detail14strand_serviceD2Ev,"axG",%progbits,_ZN4asio6detail14strand_serviceD5Ev,comdat
	.align	2
	.weak	_ZN4asio6detail14strand_serviceD2Ev
	.syntax unified
	.arm
	.fpu vfp
	.type	_ZN4asio6detail14strand_serviceD2Ev, %function
_ZN4asio6detail14strand_serviceD2Ev:
	.fnstart
.LFB8997:
	@ args = 0, pretend = 0, frame = 16
	@ frame_needed = 0, uses_anonymous_args = 0
	ldr	r3, .L188
	ldr	r2, .L188+4
	push	{r4, r5, r6, r7, r8, r9, r10, fp, lr}
	.save {r4, r5, r6, r7, r8, r9, r10, fp, lr}
.LPIC35:
	add	r3, pc, r3
	.pad #20
	sub	sp, sp, #20
	mov	r9, r0
	str	r0, [sp, #4]
	ldr	r2, [r3, r2]
	add	r8, r0, #820
	add	r6, sp, #8
	mov	r5, #0
	mov	r10, #56
	add	r2, r2, #8
	str	r2, [r9], #48
.L172:
	ldr	r4, [r8, #-4]!
	cmp	r4, #0
	beq	.L163
	ldr	r1, [r4, #48]
	cmp	r1, #0
	beq	.L168
	str	r1, [sp]
	bl	_ZNSt3_V215system_categoryEv(PLT)
	ldr	r1, [sp]
	mov	fp, r0
.L169:
	ldr	r3, [r1]
	ldr	r7, [r1, #4]
	cmp	r3, #0
	streq	r3, [r4, #52]
	str	r3, [r4, #48]
	mov	r3, #0
	str	r5, [r1]
	mov	r0, r3
	str	r5, [sp, #8]
	str	fp, [sp, #12]
	mov	r2, r6
	blx	r7
	ldr	r1, [r4, #48]
	cmp	r1, #0
	bne	.L169
.L168:
	ldr	r1, [r4, #40]
	cmp	r1, #0
	beq	.L165
	str	r1, [sp]
	bl	_ZNSt3_V215system_categoryEv(PLT)
	ldr	r1, [sp]
	mov	fp, r0
.L171:
	ldr	r3, [r1]
	ldr	r7, [r1, #4]
	cmp	r3, #0
	streq	r3, [r4, #44]
	str	r3, [r4, #40]
	mov	r3, #0
	str	r5, [r1]
	mov	r0, r3
	str	r5, [sp, #8]
	str	fp, [sp, #12]
	mov	r2, r6
	blx	r7
	ldr	r1, [r4, #40]
	cmp	r1, #0
	bne	.L171
.L165:
	add	r0, r4, #12
	bl	pthread_mutex_destroy(PLT)
	mov	r1, r10
	mov	r0, r4
	bl	_ZdlPvj(PLT)
.L163:
	cmp	r9, r8
	bne	.L172
	ldr	r4, [sp, #4]
	add	r0, r4, #24
	bl	pthread_mutex_destroy(PLT)
	mov	r0, r4
	add	sp, sp, #20
	@ sp needed
	pop	{r4, r5, r6, r7, r8, r9, r10, fp, pc}
.L189:
	.align	2
.L188:
	.word	_GLOBAL_OFFSET_TABLE_-(.LPIC35+8)
	.word	_ZTVN4asio6detail14strand_serviceE(GOT)
	.personality	__gxx_personality_v0
	.handlerdata
.LLSDA8997:
	.byte	0xff
	.byte	0xff
	.byte	0x1
	.uleb128 .LLSDACSE8997-.LLSDACSB8997
.LLSDACSB8997:
.LLSDACSE8997:
	.section	.text._ZN4asio6detail14strand_serviceD2Ev,"axG",%progbits,_ZN4asio6detail14strand_serviceD5Ev,comdat
	.fnend
	.size	_ZN4asio6detail14strand_serviceD2Ev, .-_ZN4asio6detail14strand_serviceD2Ev
	.weak	_ZN4asio6detail14strand_serviceD1Ev
	.set	_ZN4asio6detail14strand_serviceD1Ev,_ZN4asio6detail14strand_serviceD2Ev
	.section	.text._ZN4asio6detail14strand_serviceD0Ev,"axG",%progbits,_ZN4asio6detail14strand_serviceD5Ev,comdat
	.align	2
	.weak	_ZN4asio6detail14strand_serviceD0Ev
	.syntax unified
	.arm
	.fpu vfp
	.type	_ZN4asio6detail14strand_serviceD0Ev, %function
_ZN4asio6detail14strand_serviceD0Ev:
	.fnstart
.LFB8999:
	@ args = 0, pretend = 0, frame = 16
	@ frame_needed = 0, uses_anonymous_args = 0
	ldr	r3, .L216
	ldr	r2, .L216+4
	push	{r4, r5, r6, r7, r8, r9, r10, fp, lr}
	.save {r4, r5, r6, r7, r8, r9, r10, fp, lr}
.LPIC36:
	add	r3, pc, r3
	.pad #20
	sub	sp, sp, #20
	mov	r9, r0
	str	r0, [sp, #4]
	ldr	r2, [r3, r2]
	add	r8, r0, #820
	add	r6, sp, #8
	mov	r5, #0
	mov	r10, #56
	add	r2, r2, #8
	str	r2, [r9], #48
.L200:
	ldr	r4, [r8, #-4]!
	cmp	r4, #0
	beq	.L191
	ldr	r1, [r4, #48]
	cmp	r1, #0
	beq	.L196
	str	r1, [sp]
	bl	_ZNSt3_V215system_categoryEv(PLT)
	ldr	r1, [sp]
	mov	fp, r0
.L197:
	ldr	r3, [r1]
	ldr	r7, [r1, #4]
	cmp	r3, #0
	streq	r3, [r4, #52]
	str	r3, [r4, #48]
	mov	r3, #0
	str	r5, [r1]
	mov	r0, r3
	str	r5, [sp, #8]
	str	fp, [sp, #12]
	mov	r2, r6
	blx	r7
	ldr	r1, [r4, #48]
	cmp	r1, #0
	bne	.L197
.L196:
	ldr	r1, [r4, #40]
	cmp	r1, #0
	beq	.L193
	str	r1, [sp]
	bl	_ZNSt3_V215system_categoryEv(PLT)
	ldr	r1, [sp]
	mov	fp, r0
.L199:
	ldr	r3, [r1]
	ldr	r7, [r1, #4]
	cmp	r3, #0
	streq	r3, [r4, #44]
	str	r3, [r4, #40]
	mov	r3, #0
	str	r5, [r1]
	mov	r0, r3
	str	r5, [sp, #8]
	str	fp, [sp, #12]
	mov	r2, r6
	blx	r7
	ldr	r1, [r4, #40]
	cmp	r1, #0
	bne	.L199
.L193:
	add	r0, r4, #12
	bl	pthread_mutex_destroy(PLT)
	mov	r1, r10
	mov	r0, r4
	bl	_ZdlPvj(PLT)
.L191:
	cmp	r9, r8
	bne	.L200
	ldr	r4, [sp, #4]
	add	r0, r4, #24
	bl	pthread_mutex_destroy(PLT)
	mov	r0, r4
	mov	r1, #824
	bl	_ZdlPvj(PLT)
	mov	r0, r4
	add	sp, sp, #20
	@ sp needed
	pop	{r4, r5, r6, r7, r8, r9, r10, fp, pc}
.L217:
	.align	2
.L216:
	.word	_GLOBAL_OFFSET_TABLE_-(.LPIC36+8)
	.word	_ZTVN4asio6detail14strand_serviceE(GOT)
	.personality	__gxx_personality_v0
	.handlerdata
.LLSDA8999:
	.byte	0xff
	.byte	0xff
	.byte	0x1
	.uleb128 .LLSDACSE8999-.LLSDACSB8999
.LLSDACSB8999:
.LLSDACSE8999:
	.section	.text._ZN4asio6detail14strand_serviceD0Ev,"axG",%progbits,_ZN4asio6detail14strand_serviceD5Ev,comdat
	.fnend
	.size	_ZN4asio6detail14strand_serviceD0Ev, .-_ZN4asio6detail14strand_serviceD0Ev
	.global	__tls_get_addr
	.section	.text._ZZSt9call_onceIMNSt13__future_base13_State_baseV2EFvPSt8functionIFSt10unique_ptrINS0_12_Result_baseENS4_8_DeleterEEvEEPbEJPS1_S9_SA_EEvRSt9once_flagOT_DpOT0_ENUlvE0_4_FUNEv,"axG",%progbits,_ZZSt9call_onceIMNSt13__future_base13_State_baseV2EFvPSt8functionIFSt10unique_ptrINS0_12_Result_baseENS4_8_DeleterEEvEEPbEJPS1_S9_SA_EEvRSt9once_flagOT_DpOT0_ENKUlvE0_clEv,comdat
	.align	2
	.weak	_ZZSt9call_onceIMNSt13__future_base13_State_baseV2EFvPSt8functionIFSt10unique_ptrINS0_12_Result_baseENS4_8_DeleterEEvEEPbEJPS1_S9_SA_EEvRSt9once_flagOT_DpOT0_ENUlvE0_4_FUNEv
	.syntax unified
	.arm
	.fpu vfp
	.type	_ZZSt9call_onceIMNSt13__future_base13_State_baseV2EFvPSt8functionIFSt10unique_ptrINS0_12_Result_baseENS4_8_DeleterEEvEEPbEJPS1_S9_SA_EEvRSt9once_flagOT_DpOT0_ENUlvE0_4_FUNEv, %function
_ZZSt9call_onceIMNSt13__future_base13_State_baseV2EFvPSt8functionIFSt10unique_ptrINS0_12_Result_baseENS4_8_DeleterEEvEEPbEJPS1_S9_SA_EEvRSt9once_flagOT_DpOT0_ENUlvE0_4_FUNEv:
	.fnstart
.LFB7350:
	@ args = 0, pretend = 0, frame = 0
	@ frame_needed = 0, uses_anonymous_args = 0
	ldr	r0, .L222
	push	{r4, lr}
.LPIC37:
	add	r0, pc, r0
	bl	__tls_get_addr(PLT)
	ldr	r3, [r0]
	ldr	lr, [r3]
	ldmib	r3, {r1, r2}
	ldr	r3, [r3, #12]
	ldr	ip, [lr, #4]
	ldr	r0, [r1]
	tst	ip, #1
	ldr	r1, [r2]
	ldr	r2, [r3]
	ldr	r3, [lr]
	ldrne	lr, [r0, ip, asr #1]
	addeq	r0, r0, ip, asr #1
	addne	r0, r0, ip, asr #1
	ldrne	r3, [lr, r3]
	pop	{r4, lr}
	bx	r3	@ indirect register sibling call
.L223:
	.align	2
.L222:
	.word	_ZSt15__once_callable(tlsgd) + (. - .LPIC37 - 8)
	.cantunwind
	.fnend
	.size	_ZZSt9call_onceIMNSt13__future_base13_State_baseV2EFvPSt8functionIFSt10unique_ptrINS0_12_Result_baseENS4_8_DeleterEEvEEPbEJPS1_S9_SA_EEvRSt9once_flagOT_DpOT0_ENUlvE0_4_FUNEv, .-_ZZSt9call_onceIMNSt13__future_base13_State_baseV2EFvPSt8functionIFSt10unique_ptrINS0_12_Result_baseENS4_8_DeleterEEvEEPbEJPS1_S9_SA_EEvRSt9once_flagOT_DpOT0_ENUlvE0_4_FUNEv
	.section	.text._ZN4asio6detail14strand_service16shutdown_serviceEv,"axG",%progbits,_ZN4asio6detail14strand_service16shutdown_serviceEv,comdat
	.align	2
	.weak	_ZN4asio6detail14strand_service16shutdown_serviceEv
	.syntax unified
	.arm
	.fpu vfp
	.type	_ZN4asio6detail14strand_service16shutdown_serviceEv, %function
_ZN4asio6detail14strand_service16shutdown_serviceEv:
	.fnstart
.LFB6172:
	@ args = 0, pretend = 0, frame = 16
	@ frame_needed = 0, uses_anonymous_args = 0
	push	{r4, r5, r6, r7, r8, lr}
	.save {r4, r5, r6, r7, r8, lr}
	add	r5, r0, #24
	mov	r4, r0
	.pad #16
	sub	sp, sp, #16
	mov	r0, r5
	bl	pthread_mutex_lock(PLT)
	mov	r2, #0
	add	r0, r4, #44
	mov	r1, r2
	add	r4, r4, #816
	mov	ip, r2
.L229:
	ldr	r3, [r0, #4]!
	cmp	r3, #0
	beq	.L225
	ldr	lr, [r3, #40]
	cmp	lr, #0
	beq	.L226
	cmp	r2, #0
	moveq	r1, lr
	strne	lr, [r2]
	str	ip, [r3, #40]
	ldr	r2, [r3, #44]
	str	ip, [r3, #44]
.L226:
	ldr	lr, [r3, #48]
	cmp	lr, #0
	beq	.L225
	cmp	r2, #0
	moveq	r1, lr
	strne	lr, [r2]
	str	ip, [r3, #48]
	ldr	r2, [r3, #52]
	str	ip, [r3, #52]
.L225:
	cmp	r0, r4
	bne	.L229
	mov	r0, r5
	str	r1, [sp, #4]
	bl	pthread_mutex_unlock(PLT)
	ldr	r1, [sp, #4]
	cmp	r1, #0
	beq	.L224
	bl	_ZNSt3_V215system_categoryEv(PLT)
	ldr	r1, [sp, #4]
	add	r7, sp, #8
	mov	r5, #0
	mov	r8, r0
.L232:
	ldr	r4, [r1]
	mov	r3, #0
	str	r5, [r1]
	ldr	r6, [r1, #4]
	mov	r0, r3
	str	r5, [sp, #8]
	str	r8, [sp, #12]
	mov	r2, r7
	blx	r6
	subs	r1, r4, #0
	bne	.L232
.L224:
	add	sp, sp, #16
	@ sp needed
	pop	{r4, r5, r6, r7, r8, pc}
	.personality	__gxx_personality_v0
	.handlerdata
.LLSDA6172:
	.byte	0xff
	.byte	0xff
	.byte	0x1
	.uleb128 .LLSDACSE6172-.LLSDACSB6172
.LLSDACSB6172:
.LLSDACSE6172:
	.section	.text._ZN4asio6detail14strand_service16shutdown_serviceEv,"axG",%progbits,_ZN4asio6detail14strand_service16shutdown_serviceEv,comdat
	.fnend
	.size	_ZN4asio6detail14strand_service16shutdown_serviceEv, .-_ZN4asio6detail14strand_service16shutdown_serviceEv
	.section	.text._ZN7asiopal8ExecutorD0Ev,"axG",%progbits,_ZN7asiopal8ExecutorD5Ev,comdat
	.align	2
	.weak	_ZN7asiopal8ExecutorD0Ev
	.syntax unified
	.arm
	.fpu vfp
	.type	_ZN7asiopal8ExecutorD0Ev, %function
_ZN7asiopal8ExecutorD0Ev:
	.fnstart
.LFB8987:
	@ args = 0, pretend = 0, frame = 0
	@ frame_needed = 0, uses_anonymous_args = 0
	push	{r4, r5, r6, lr}
	mov	r4, r0
	ldr	r5, .L271
	ldr	r3, .L271+4
.LPIC38:
	add	r5, pc, r5
	ldr	r6, [r0, #16]
	ldr	r3, [r5, r3]
	cmp	r6, #0
	add	r3, r3, #8
	str	r3, [r0]
	beq	.L251
	ldr	r3, .L271+8
	ldr	r3, [r5, r3]
	cmp	r3, #0
	beq	.L252
	add	r3, r6, #28
	mcr	p15, 0, r0, c7, c10, 5
.L265:
	ldrex	r2, [r3]
	sub	r1, r2, #1
	strex	r0, r1, [r3]
	cmp	r0, #0
	bne	.L265
	cmp	r2, #1
	mcr	p15, 0, r0, c7, c10, 5
	beq	.L269
.L251:
	ldr	r0, [r4, #8]
	cmp	r0, #0
	beq	.L257
	ldr	r3, .L271+8
	ldr	r3, [r5, r3]
	cmp	r3, #0
	beq	.L258
	add	r3, r0, #32
	mcr	p15, 0, r0, c7, c10, 5
.L264:
	ldrex	r2, [r3]
	sub	r1, r2, #1
	strex	ip, r1, [r3]
	cmp	ip, #0
	bne	.L264
	cmp	r2, #1
	mcr	p15, 0, r0, c7, c10, 5
	beq	.L270
.L257:
	mov	r0, r4
	mov	r1, #28
	bl	_ZdlPvj(PLT)
	mov	r0, r4
	pop	{r4, r5, r6, pc}
.L252:
	ldr	r3, [r6, #28]
	cmp	r3, #1
	sub	r3, r3, #1
	str	r3, [r6, #28]
	bne	.L251
	ldr	r3, [r6]
	mov	r0, r6
	ldr	r3, [r3, #8]
	blx	r3
	mcr	p15, 0, r0, c7, c10, 5
	ldr	r2, [r6, #32]
	sub	r3, r2, #1
	str	r3, [r6, #32]
	b	.L261
.L258:
	ldr	r2, [r0, #32]
	sub	r3, r2, #1
	cmp	r2, #1
	str	r3, [r0, #32]
	bne	.L257
.L270:
	mcr	p15, 0, r0, c7, c10, 5
	ldr	r3, [r0]
	ldr	r3, [r3, #12]
	blx	r3
	b	.L257
.L269:
	ldr	r3, [r6]
	mov	r0, r6
	ldr	r3, [r3, #8]
	blx	r3
	add	r3, r6, #32
	mcr	p15, 0, r0, c7, c10, 5
	mcr	p15, 0, r0, c7, c10, 5
.L263:
	ldrex	r2, [r3]
	sub	r1, r2, #1
	strex	r0, r1, [r3]
	cmp	r0, #0
	bne	.L263
	mcr	p15, 0, r0, c7, c10, 5
.L261:
	cmp	r2, #1
	bne	.L251
	ldr	r3, [r6]
	mov	r0, r6
	ldr	r3, [r3, #12]
	blx	r3
	b	.L251
.L272:
	.align	2
.L271:
	.word	_GLOBAL_OFFSET_TABLE_-(.LPIC38+8)
	.word	_ZTVN7asiopal8ExecutorE(GOT)
	.word	_ZL28__gthrw___pthread_key_createPjPFvPvE(GOT)
	.cantunwind
	.fnend
	.size	_ZN7asiopal8ExecutorD0Ev, .-_ZN7asiopal8ExecutorD0Ev
	.section	.text._ZN7asiopal8ExecutorD2Ev,"axG",%progbits,_ZN7asiopal8ExecutorD5Ev,comdat
	.align	2
	.weak	_ZN7asiopal8ExecutorD2Ev
	.syntax unified
	.arm
	.fpu vfp
	.type	_ZN7asiopal8ExecutorD2Ev, %function
_ZN7asiopal8ExecutorD2Ev:
	.fnstart
.LFB8985:
	@ args = 0, pretend = 0, frame = 0
	@ frame_needed = 0, uses_anonymous_args = 0
	push	{r4, r5, r6, lr}
	mov	r4, r0
	ldr	r5, .L295
	ldr	r3, .L295+4
.LPIC39:
	add	r5, pc, r5
	ldr	r6, [r0, #16]
	ldr	r3, [r5, r3]
	cmp	r6, #0
	add	r3, r3, #8
	str	r3, [r0]
	beq	.L275
	ldr	r3, .L295+8
	ldr	r3, [r5, r3]
	cmp	r3, #0
	beq	.L276
	add	r3, r6, #28
	mcr	p15, 0, r0, c7, c10, 5
.L289:
	ldrex	r2, [r3]
	sub	r1, r2, #1
	strex	r0, r1, [r3]
	cmp	r0, #0
	bne	.L289
	cmp	r2, #1
	mcr	p15, 0, r0, c7, c10, 5
	beq	.L293
.L275:
	ldr	r0, [r4, #8]
	cmp	r0, #0
	beq	.L286
	ldr	r3, .L295+8
	ldr	r3, [r5, r3]
	cmp	r3, #0
	beq	.L282
	add	r3, r0, #32
	mcr	p15, 0, r0, c7, c10, 5
.L288:
	ldrex	r2, [r3]
	sub	r1, r2, #1
	strex	ip, r1, [r3]
	cmp	ip, #0
	bne	.L288
	cmp	r2, #1
	mcr	p15, 0, r0, c7, c10, 5
	beq	.L294
.L286:
	mov	r0, r4
	pop	{r4, r5, r6, pc}
.L276:
	ldr	r3, [r6, #28]
	cmp	r3, #1
	sub	r3, r3, #1
	str	r3, [r6, #28]
	bne	.L275
	ldr	r3, [r6]
	mov	r0, r6
	ldr	r3, [r3, #8]
	blx	r3
	mcr	p15, 0, r0, c7, c10, 5
	ldr	r2, [r6, #32]
	sub	r3, r2, #1
	str	r3, [r6, #32]
	b	.L285
.L282:
	ldr	r2, [r0, #32]
	sub	r3, r2, #1
	cmp	r2, #1
	str	r3, [r0, #32]
	bne	.L286
.L294:
	mcr	p15, 0, r0, c7, c10, 5
	ldr	r3, [r0]
	ldr	r3, [r3, #12]
	blx	r3
	mov	r0, r4
	pop	{r4, r5, r6, pc}
.L293:
	ldr	r3, [r6]
	mov	r0, r6
	ldr	r3, [r3, #8]
	blx	r3
	add	r3, r6, #32
	mcr	p15, 0, r0, c7, c10, 5
	mcr	p15, 0, r0, c7, c10, 5
.L287:
	ldrex	r2, [r3]
	sub	r1, r2, #1
	strex	r0, r1, [r3]
	cmp	r0, #0
	bne	.L287
	mcr	p15, 0, r0, c7, c10, 5
.L285:
	cmp	r2, #1
	bne	.L275
	ldr	r3, [r6]
	mov	r0, r6
	ldr	r3, [r3, #12]
	blx	r3
	b	.L275
.L296:
	.align	2
.L295:
	.word	_GLOBAL_OFFSET_TABLE_-(.LPIC39+8)
	.word	_ZTVN7asiopal8ExecutorE(GOT)
	.word	_ZL28__gthrw___pthread_key_createPjPFvPvE(GOT)
	.cantunwind
	.fnend
	.size	_ZN7asiopal8ExecutorD2Ev, .-_ZN7asiopal8ExecutorD2Ev
	.weak	_ZN7asiopal8ExecutorD1Ev
	.set	_ZN7asiopal8ExecutorD1Ev,_ZN7asiopal8ExecutorD2Ev
	.section	.text.unlikely,"ax",%progbits
	.align	2
	.syntax unified
	.arm
	.fpu vfp
	.type	_ZZN7asiopal8Executor4PostERKSt8functionIFvvEEENUlvE_D2Ev, %function
_ZZN7asiopal8Executor4PostERKSt8functionIFvvEEENUlvE_D2Ev:
	.fnstart
.LFB6783:
	@ args = 0, pretend = 0, frame = 0
	@ frame_needed = 0, uses_anonymous_args = 0
	push	{r4, r5, r6, lr}
	.save {r4, r5, r6, lr}
	mov	r5, r0
	ldr	r4, [r0, #20]
	ldr	r3, .L315
	cmp	r4, #0
.LPIC40:
	add	r3, pc, r3
	beq	.L299
	ldr	r2, .L315+4
	ldr	r3, [r3, r2]
	cmp	r3, #0
	beq	.L300
	add	r3, r4, #28
	mcr	p15, 0, r0, c7, c10, 5
.L311:
	ldrex	r2, [r3]
	sub	r1, r2, #1
	strex	r0, r1, [r3]
	cmp	r0, #0
	bne	.L311
	cmp	r2, #1
	mcr	p15, 0, r0, c7, c10, 5
	bne	.L299
	b	.L313
.L300:
	ldr	r3, [r4, #28]
	cmp	r3, #1
	sub	r3, r3, #1
	str	r3, [r4, #28]
	bne	.L299
	b	.L314
.L313:
	ldr	r3, [r4]
	mov	r0, r4
	ldr	r3, [r3, #8]
	blx	r3
	add	r2, r4, #32
	mcr	p15, 0, r0, c7, c10, 5
	mcr	p15, 0, r0, c7, c10, 5
.L310:
	ldrex	r3, [r2]
	sub	r1, r3, #1
	strex	r0, r1, [r2]
	cmp	r0, #0
	bne	.L310
	mcr	p15, 0, r0, c7, c10, 5
.L305:
	cmp	r3, #1
	bne	.L299
	ldr	r3, [r4]
	mov	r0, r4
	ldr	r3, [r3, #12]
	blx	r3
.L299:
	ldr	r3, [r5, #8]
	cmp	r3, #0
	beq	.L307
	mov	r2, #3
	mov	r1, r5
	mov	r0, r5
	blx	r3
	b	.L307
.L314:
	ldr	r3, [r4]
	mov	r0, r4
	ldr	r3, [r3, #8]
	blx	r3
	mcr	p15, 0, r0, c7, c10, 5
	ldr	r3, [r4, #32]
	sub	r2, r3, #1
	str	r2, [r4, #32]
	b	.L305
.L307:
	mov	r0, r5
	pop	{r4, r5, r6, pc}
.L316:
	.align	2
.L315:
	.word	_GLOBAL_OFFSET_TABLE_-(.LPIC40+8)
	.word	_ZL28__gthrw___pthread_key_createPjPFvPvE(GOT)
	.personality	__gxx_personality_v0
	.handlerdata
.LLSDA6783:
	.byte	0xff
	.byte	0xff
	.byte	0x1
	.uleb128 .LLSDACSE6783-.LLSDACSB6783
.LLSDACSB6783:
.LLSDACSE6783:
	.section	.text.unlikely
	.fnend
	.size	_ZZN7asiopal8Executor4PostERKSt8functionIFvvEEENUlvE_D2Ev, .-_ZZN7asiopal8Executor4PostERKSt8functionIFvvEEENUlvE_D2Ev
	.set	_ZZN7asiopal8Executor4PostERKSt8functionIFvvEEENUlvE_D1Ev,_ZZN7asiopal8Executor4PostERKSt8functionIFvvEEENUlvE_D2Ev
	.align	2
	.syntax unified
	.arm
	.fpu vfp
	.type	_ZZN7asiopal8Executor5StartERKNSt6chrono10time_pointINS1_3_V212steady_clockENS1_8durationIxSt5ratioILx1ELx1000000000EEEEEERKSt8functionIFvvEEENUlRKSt10error_codeE_D2Ev, %function
_ZZN7asiopal8Executor5StartERKNSt6chrono10time_pointINS1_3_V212steady_clockENS1_8durationIxSt5ratioILx1ELx1000000000EEEEEERKSt8functionIFvvEEENUlRKSt10error_codeE_D2Ev:
	.fnstart
.LFB6763:
	@ args = 0, pretend = 0, frame = 0
	@ frame_needed = 0, uses_anonymous_args = 0
	push	{r4, r5, r6, lr}
	.save {r4, r5, r6, lr}
	mov	r5, r0
	ldr	r4, [r0, #28]
	ldr	r6, .L344
	cmp	r4, #0
.LPIC41:
	add	r6, pc, r6
	beq	.L319
	ldr	r3, .L344+4
	ldr	r3, [r6, r3]
	cmp	r3, #0
	beq	.L320
	add	r3, r4, #28
	mcr	p15, 0, r0, c7, c10, 5
.L340:
	ldrex	r2, [r3]
	sub	r1, r2, #1
	strex	r0, r1, [r3]
	cmp	r0, #0
	bne	.L340
	cmp	r2, #1
	mcr	p15, 0, r0, c7, c10, 5
	bne	.L319
	b	.L342
.L320:
	ldr	r3, [r4, #28]
	cmp	r3, #1
	sub	r3, r3, #1
	str	r3, [r4, #28]
	bne	.L319
	b	.L343
.L342:
	ldr	r3, [r4]
	mov	r0, r4
	ldr	r3, [r3, #8]
	blx	r3
	add	r2, r4, #32
	mcr	p15, 0, r0, c7, c10, 5
	mcr	p15, 0, r0, c7, c10, 5
.L338:
	ldrex	r3, [r2]
	sub	r1, r3, #1
	strex	r0, r1, [r2]
	cmp	r0, #0
	bne	.L338
	mcr	p15, 0, r0, c7, c10, 5
.L331:
	cmp	r3, #1
	bne	.L319
	ldr	r3, [r4]
	mov	r0, r4
	ldr	r3, [r3, #12]
	blx	r3
.L319:
	ldr	r3, [r5, #16]
	cmp	r3, #0
	beq	.L324
	add	r1, r5, #8
	mov	r0, r1
	mov	r2, #3
	blx	r3
.L324:
	ldr	r4, [r5, #4]
	cmp	r4, #0
	beq	.L334
	ldr	r3, .L344+4
	ldr	r3, [r6, r3]
	cmp	r3, #0
	beq	.L327
	add	r3, r4, #28
	mcr	p15, 0, r0, c7, c10, 5
.L339:
	ldrex	r2, [r3]
	sub	r1, r2, #1
	strex	r0, r1, [r3]
	cmp	r0, #0
	bne	.L339
	cmp	r2, #1
	mcr	p15, 0, r0, c7, c10, 5
	bne	.L334
	ldr	r3, [r4]
	mov	r0, r4
	ldr	r3, [r3, #8]
	blx	r3
	mcr	p15, 0, r0, c7, c10, 5
	add	r2, r4, #32
	mcr	p15, 0, r0, c7, c10, 5
	b	.L337
.L327:
	ldr	r3, [r4, #28]
	cmp	r3, #1
	sub	r3, r3, #1
	str	r3, [r4, #28]
	bne	.L334
	ldr	r3, [r4]
	mov	r0, r4
	ldr	r3, [r3, #8]
	blx	r3
	mcr	p15, 0, r0, c7, c10, 5
	ldr	r3, [r4, #32]
	sub	r2, r3, #1
	str	r2, [r4, #32]
.L332:
	cmp	r3, #1
	bne	.L334
	ldr	r3, [r4]
	mov	r0, r4
	ldr	r3, [r3, #12]
	blx	r3
	b	.L334
.L343:
	ldr	r3, [r4]
	mov	r0, r4
	ldr	r3, [r3, #8]
	blx	r3
	mcr	p15, 0, r0, c7, c10, 5
	ldr	r3, [r4, #32]
	sub	r2, r3, #1
	str	r2, [r4, #32]
	b	.L331
.L337:
	ldrex	r3, [r2]
	sub	r1, r3, #1
	strex	r0, r1, [r2]
	cmp	r0, #0
	bne	.L337
	mcr	p15, 0, r0, c7, c10, 5
	b	.L332
.L334:
	mov	r0, r5
	pop	{r4, r5, r6, pc}
.L345:
	.align	2
.L344:
	.word	_GLOBAL_OFFSET_TABLE_-(.LPIC41+8)
	.word	_ZL28__gthrw___pthread_key_createPjPFvPvE(GOT)
	.personality	__gxx_personality_v0
	.handlerdata
.LLSDA6763:
	.byte	0xff
	.byte	0xff
	.byte	0x1
	.uleb128 .LLSDACSE6763-.LLSDACSB6763
.LLSDACSB6763:
.LLSDACSE6763:
	.section	.text.unlikely
	.fnend
	.size	_ZZN7asiopal8Executor5StartERKNSt6chrono10time_pointINS1_3_V212steady_clockENS1_8durationIxSt5ratioILx1ELx1000000000EEEEEERKSt8functionIFvvEEENUlRKSt10error_codeE_D2Ev, .-_ZZN7asiopal8Executor5StartERKNSt6chrono10time_pointINS1_3_V212steady_clockENS1_8durationIxSt5ratioILx1ELx1000000000EEEEEERKSt8functionIFvvEEENUlRKSt10error_codeE_D2Ev
	.set	_ZZN7asiopal8Executor5StartERKNSt6chrono10time_pointINS1_3_V212steady_clockENS1_8durationIxSt5ratioILx1ELx1000000000EEEEEERKSt8functionIFvvEEENUlRKSt10error_codeE_D1Ev,_ZZN7asiopal8Executor5StartERKNSt6chrono10time_pointINS1_3_V212steady_clockENS1_8durationIxSt5ratioILx1ELx1000000000EEEEEERKSt8functionIFvvEEENUlRKSt10error_codeE_D2Ev
	.align	2
	.syntax unified
	.arm
	.fpu vfp
	.type	_ZN4asio6detail18completion_handlerIZN7asiopal8Executor4PostERKSt8functionIFvvEEEUlvE_E3ptr5resetEv, %function
_ZN4asio6detail18completion_handlerIZN7asiopal8Executor4PostERKSt8functionIFvvEEEUlvE_E3ptr5resetEv:
	.fnstart
.LFB8307:
	@ args = 0, pretend = 0, frame = 0
	@ frame_needed = 0, uses_anonymous_args = 0
	push	{r4, r5, r6, r7, r8, lr}
	.save {r4, r5, r6, r7, r8, lr}
	mov	r6, r0
	ldr	r5, [r0, #8]
	ldr	r7, .L379
	cmp	r5, #0
.LPIC42:
	add	r7, pc, r7
	beq	.L347
	ldr	r4, [r5, #32]
	add	r8, r5, #12
	cmp	r4, #0
	beq	.L349
	ldr	r3, .L379+4
	ldr	r3, [r7, r3]
	cmp	r3, #0
	beq	.L350
	add	r3, r4, #28
	mcr	p15, 0, r0, c7, c10, 5
.L375:
	ldrex	r2, [r3]
	sub	r1, r2, #1
	strex	r0, r1, [r3]
	cmp	r0, #0
	bne	.L375
	cmp	r2, #1
	mcr	p15, 0, r0, c7, c10, 5
	bne	.L349
	b	.L377
.L350:
	ldr	r3, [r4, #28]
	cmp	r3, #1
	sub	r3, r3, #1
	str	r3, [r4, #28]
	bne	.L349
	b	.L378
.L377:
	ldr	r3, [r4]
	mov	r0, r4
	ldr	r3, [r3, #8]
	blx	r3
	add	r2, r4, #32
	mcr	p15, 0, r0, c7, c10, 5
	mcr	p15, 0, r0, c7, c10, 5
.L374:
	ldrex	r3, [r2]
	sub	r1, r3, #1
	strex	r0, r1, [r2]
	cmp	r0, #0
	bne	.L374
	mcr	p15, 0, r0, c7, c10, 5
.L358:
	cmp	r3, #1
	bne	.L349
	ldr	r3, [r4]
	mov	r0, r4
	ldr	r3, [r3, #12]
	blx	r3
.L349:
	ldr	r3, [r5, #20]
	cmp	r3, #0
	beq	.L354
	mov	r2, #3
	mov	r1, r8
	mov	r0, r8
	blx	r3
.L354:
	mov	r3, #0
	str	r3, [r6, #8]
.L347:
	ldr	r4, [r6, #4]
	cmp	r4, #0
	popeq	{r4, r5, r6, r7, r8, pc}
	ldr	r3, .L379+8
	ldr	r3, [r7, r3]
	ldr	r0, [r3]
	bl	pthread_getspecific(PLT)
	cmp	r0, #0
	beq	.L356
	ldr	r3, [r0, #4]
	cmp	r3, #0
	beq	.L356
	ldr	r2, [r3]
	cmp	r2, #0
	ldrbeq	r2, [r4, #36]	@ zero_extendqisi2
	strbeq	r2, [r4]
	streq	r4, [r3]
	beq	.L357
.L356:
	mov	r0, r4
	bl	_ZdlPv(PLT)
.L357:
	mov	r3, #0
	str	r3, [r6, #4]
	pop	{r4, r5, r6, r7, r8, pc}
.L378:
	ldr	r3, [r4]
	mov	r0, r4
	ldr	r3, [r3, #8]
	blx	r3
	mcr	p15, 0, r0, c7, c10, 5
	ldr	r3, [r4, #32]
	sub	r2, r3, #1
	str	r2, [r4, #32]
	b	.L358
.L380:
	.align	2
.L379:
	.word	_GLOBAL_OFFSET_TABLE_-(.LPIC42+8)
	.word	_ZL28__gthrw___pthread_key_createPjPFvPvE(GOT)
	.word	_ZN4asio6detail10call_stackINS0_15task_io_serviceENS0_27task_io_service_thread_infoEE4top_E(GOT)
	.personality	__gxx_personality_v0
	.handlerdata
.LLSDA8307:
	.byte	0xff
	.byte	0xff
	.byte	0x1
	.uleb128 .LLSDACSE8307-.LLSDACSB8307
.LLSDACSB8307:
.LLSDACSE8307:
	.section	.text.unlikely
	.fnend
	.size	_ZN4asio6detail18completion_handlerIZN7asiopal8Executor4PostERKSt8functionIFvvEEEUlvE_E3ptr5resetEv, .-_ZN4asio6detail18completion_handlerIZN7asiopal8Executor4PostERKSt8functionIFvvEEEUlvE_E3ptr5resetEv
	.section	.text._ZNK4asio6detail15system_category7messageB5cxx11Ei,"axG",%progbits,_ZNK4asio6detail15system_category7messageB5cxx11Ei,comdat
	.align	2
	.weak	_ZNK4asio6detail15system_category7messageB5cxx11Ei
	.syntax unified
	.arm
	.fpu vfp
	.type	_ZNK4asio6detail15system_category7messageB5cxx11Ei, %function
_ZNK4asio6detail15system_category7messageB5cxx11Ei:
	.fnstart
.LFB2058:
	@ args = 0, pretend = 0, frame = 264
	@ frame_needed = 0, uses_anonymous_args = 0
	cmp	r2, #125
	push	{r4, r5, r6, r7, r8, lr}
	.save {r4, r5, r6, r7, r8, lr}
	mov	r4, r0
	.pad #264
	sub	sp, sp, #264
	beq	.L391
	mov	r7, #0
	mov	r5, r2
	mov	r1, r7
	mov	r2, #252
	add	r0, sp, #12
	str	r7, [sp, #8]
	bl	memset(PLT)
	mov	r0, r5
	mov	r2, #256
	add	r1, sp, #8
	bl	strerror_r(PLT)
	add	r6, r4, #8
	str	r6, [r4]
	subs	r8, r0, #0
	beq	.L384
	bl	strlen(PLT)
	cmp	r0, #15
	mov	r5, r0
	str	r0, [sp, #4]
	bhi	.L392
	cmp	r0, #1
	beq	.L393
	cmp	r0, #0
	bne	.L394
.L388:
	mov	r3, #0
	str	r5, [r4, #4]
	mov	r0, r4
	strb	r3, [r6, r5]
	add	sp, sp, #264
	@ sp needed
	pop	{r4, r5, r6, r7, r8, pc}
.L392:
	mov	r2, r7
	add	r1, sp, #4
	mov	r0, r4
	bl	_ZNSt7__cxx1112basic_stringIcSt11char_traitsIcESaIcEE9_M_createERjj(PLT)
	ldr	r3, [sp, #4]
	str	r3, [r4, #8]
	str	r0, [r4]
.L386:
	mov	r2, r5
	mov	r1, r8
	bl	memcpy(PLT)
	ldr	r5, [sp, #4]
	ldr	r6, [r4]
	b	.L388
.L393:
	ldrb	r3, [r8]	@ zero_extendqisi2
	strb	r3, [r4, #8]
	b	.L388
.L391:
	add	r1, sp, #264
	add	r3, r0, #8
	mov	r2, #18
	str	r2, [r1, #-256]!
	str	r3, [r0]
	mov	r2, #0
	bl	_ZNSt7__cxx1112basic_stringIcSt11char_traitsIcESaIcEE9_M_createERjj(PLT)
	ldr	ip, .L395
	ldr	r6, [sp, #8]
.LPIC43:
	add	ip, pc, ip
	str	r6, [r4, #8]
	mov	r5, #0
	str	r0, [r4]
	mov	lr, r0
	ldmia	ip!, {r0, r1, r2, r3}
	ldrh	ip, [ip]	@ unaligned
	str	r0, [lr]	@ unaligned
	str	r1, [lr, #4]	@ unaligned
	strh	ip, [lr, #16]	@ unaligned
	str	r2, [lr, #8]	@ unaligned
	str	r3, [lr, #12]	@ unaligned
	ldr	r3, [sp, #8]
	ldr	r2, [r4]
	str	r3, [r4, #4]
	mov	r0, r4
	strb	r5, [r2, r3]
	add	sp, sp, #264
	@ sp needed
	pop	{r4, r5, r6, r7, r8, pc}
.L384:
	ldr	r0, .L395+4
.LPIC44:
	add	r0, pc, r0
	bl	_ZSt19__throw_logic_errorPKc(PLT)
.L394:
	mov	r0, r6
	b	.L386
.L396:
	.align	2
.L395:
	.word	.LC6-(.LPIC43+8)
	.word	.LC7-(.LPIC44+8)
	.fnend
	.size	_ZNK4asio6detail15system_category7messageB5cxx11Ei, .-_ZNK4asio6detail15system_category7messageB5cxx11Ei
	.section	.text._ZNK4asio5error6detail17addrinfo_category7messageB5cxx11Ei,"axG",%progbits,_ZNK4asio5error6detail17addrinfo_category7messageB5cxx11Ei,comdat
	.align	2
	.weak	_ZNK4asio5error6detail17addrinfo_category7messageB5cxx11Ei
	.syntax unified
	.arm
	.fpu vfp
	.type	_ZNK4asio5error6detail17addrinfo_category7messageB5cxx11Ei, %function
_ZNK4asio5error6detail17addrinfo_category7messageB5cxx11Ei:
	.fnstart
.LFB2085:
	@ args = 0, pretend = 0, frame = 8
	@ frame_needed = 0, uses_anonymous_args = 0
	push	{r4, r5, r6, lr}
	.save {r4, r5, r6, lr}
	cmn	r2, #8
	.pad #8
	sub	sp, sp, #8
	add	r1, sp, #8
	mov	r4, r0
	beq	.L402
	cmn	r2, #7
	beq	.L403
	add	r3, r0, #8
	mov	r2, #19
	str	r2, [r1, #-4]!
	str	r3, [r0]
	mov	r2, #0
	bl	_ZNSt7__cxx1112basic_stringIcSt11char_traitsIcESaIcEE9_M_createERjj(PLT)
	ldr	ip, .L404
	ldr	r6, [sp, #4]
.LPIC47:
	add	ip, pc, ip
	str	r6, [r4, #8]
	mov	r5, #0
	str	r0, [r4]
	mov	lr, r0
	ldmia	ip!, {r0, r1, r2, r3}
	ldrh	r6, [ip]	@ unaligned
	ldrb	ip, [ip, #2]	@ zero_extendqisi2
	str	r0, [lr]	@ unaligned
	str	r1, [lr, #4]	@ unaligned
	str	r2, [lr, #8]	@ unaligned
	str	r3, [lr, #12]	@ unaligned
	strh	r6, [lr, #16]	@ unaligned
	strb	ip, [lr, #18]
	ldr	r3, [sp, #4]
	ldr	r2, [r4]
	str	r3, [r4, #4]
	strb	r5, [r2, r3]
.L397:
	mov	r0, r4
	add	sp, sp, #8
	@ sp needed
	pop	{r4, r5, r6, pc}
.L403:
	add	r3, r0, #8
	mov	r2, #25
	str	r2, [r1, #-4]!
	str	r3, [r0]
	mov	r2, #0
	bl	_ZNSt7__cxx1112basic_stringIcSt11char_traitsIcESaIcEE9_M_createERjj(PLT)
	ldr	ip, .L404+4
	ldr	r6, [sp, #4]
.LPIC46:
	add	ip, pc, ip
	str	r6, [r4, #8]
	mov	r5, #0
	str	r0, [r4]
	mov	lr, r0
	ldmia	ip!, {r0, r1, r2, r3}
	str	r0, [lr]	@ unaligned
	str	r1, [lr, #4]	@ unaligned
	ldmia	ip!, {r0, r1}
	str	r3, [lr, #12]	@ unaligned
	str	r2, [lr, #8]	@ unaligned
	ldrb	r3, [ip]	@ zero_extendqisi2
	str	r0, [lr, #16]	@ unaligned
	str	r1, [lr, #20]	@ unaligned
	strb	r3, [lr, #24]
	ldr	r3, [sp, #4]
	ldr	r2, [r4]
	str	r3, [r4, #4]
	mov	r0, r4
	strb	r5, [r2, r3]
	add	sp, sp, #8
	@ sp needed
	pop	{r4, r5, r6, pc}
.L402:
	add	r3, r0, #8
	mov	r2, #17
	str	r2, [r1, #-4]!
	str	r3, [r0]
	mov	r2, #0
	bl	_ZNSt7__cxx1112basic_stringIcSt11char_traitsIcESaIcEE9_M_createERjj(PLT)
	ldr	ip, .L404+8
	ldr	r6, [sp, #4]
.LPIC45:
	add	ip, pc, ip
	str	r6, [r4, #8]
	mov	r5, #0
	str	r0, [r4]
	mov	lr, r0
	ldmia	ip!, {r0, r1, r2, r3}
	ldrb	ip, [ip]	@ zero_extendqisi2
	str	r0, [lr]	@ unaligned
	str	r1, [lr, #4]	@ unaligned
	strb	ip, [lr, #16]
	str	r2, [lr, #8]	@ unaligned
	str	r3, [lr, #12]	@ unaligned
	ldr	r3, [sp, #4]
	ldr	r2, [r4]
	str	r3, [r4, #4]
	strb	r5, [r2, r3]
	b	.L397
.L405:
	.align	2
.L404:
	.word	.LC10-(.LPIC47+8)
	.word	.LC9-(.LPIC46+8)
	.word	.LC8-(.LPIC45+8)
	.fnend
	.size	_ZNK4asio5error6detail17addrinfo_category7messageB5cxx11Ei, .-_ZNK4asio5error6detail17addrinfo_category7messageB5cxx11Ei
	.section	.text._ZNK4asio5error6detail13misc_category7messageB5cxx11Ei,"axG",%progbits,_ZNK4asio5error6detail13misc_category7messageB5cxx11Ei,comdat
	.align	2
	.weak	_ZNK4asio5error6detail13misc_category7messageB5cxx11Ei
	.syntax unified
	.arm
	.fpu vfp
	.type	_ZNK4asio5error6detail13misc_category7messageB5cxx11Ei, %function
_ZNK4asio5error6detail13misc_category7messageB5cxx11Ei:
	.fnstart
.LFB2091:
	@ args = 0, pretend = 0, frame = 8
	@ frame_needed = 0, uses_anonymous_args = 0
	cmp	r2, #1
	push	{r4, r5, r6, lr}
	.save {r4, r5, r6, lr}
	mov	r4, r0
	.pad #8
	sub	sp, sp, #8
	beq	.L415
	cmp	r2, #2
	beq	.L416
	cmp	r2, #3
	beq	.L417
	cmp	r2, #4
	beq	.L418
	ldr	ip, .L419
	add	r3, r0, #8
.LPIC52:
	add	ip, pc, ip
	mov	r5, #15
	ldmia	ip!, {r0, r1, r2}
	mov	lr, #0
	str	r3, [r4]
	str	r5, [r4, #4]
	ldrh	r6, [ip]	@ unaligned
	ldrb	ip, [ip, #2]	@ zero_extendqisi2
	str	r0, [r4, #8]	@ unaligned
	str	r1, [r4, #12]	@ unaligned
	str	r2, [r4, #16]	@ unaligned
	strh	r6, [r4, #20]	@ unaligned
	strb	ip, [r4, #22]
	strb	lr, [r4, #23]
.L406:
	mov	r0, r4
	add	sp, sp, #8
	@ sp needed
	pop	{r4, r5, r6, pc}
.L418:
	add	r1, sp, #8
	add	r3, r0, #8
	mov	r2, #57
	str	r2, [r1, #-4]!
	str	r3, [r0]
	mov	r2, #0
	bl	_ZNSt7__cxx1112basic_stringIcSt11char_traitsIcESaIcEE9_M_createERjj(PLT)
	ldr	r5, .L419+4
	ldr	r3, [sp, #4]
.LPIC51:
	add	r5, pc, r5
	add	r6, r5, #48
	str	r3, [r4, #8]
	mov	lr, r0
	str	r0, [r4]
.L412:
	mov	ip, r5
	add	lr, lr, #16
	ldmia	ip!, {r0, r1, r2, r3}
	add	r5, r5, #16
	cmp	ip, r6
	str	r0, [lr, #-16]	@ unaligned
	str	r1, [lr, #-12]	@ unaligned
	str	r2, [lr, #-8]	@ unaligned
	str	r3, [lr, #-4]	@ unaligned
	bne	.L412
	ldmia	r5!, {r0, r1}
	mov	ip, #0
	ldrb	r3, [r5]	@ zero_extendqisi2
	str	r0, [lr]	@ unaligned
	str	r1, [lr, #4]	@ unaligned
	strb	r3, [lr, #8]
	ldr	r3, [sp, #4]
	ldr	r2, [r4]
	str	r3, [r4, #4]
	strb	ip, [r2, r3]
	b	.L406
.L415:
	ldr	ip, .L419+8
	add	r3, r0, #8
.LPIC48:
	add	ip, pc, ip
	mov	lr, #12
	ldmia	ip!, {r0, r1, r2}
	mov	ip, #0
	str	r3, [r4]
	str	lr, [r4, #4]
	str	r0, [r4, #8]	@ unaligned
	str	r1, [r4, #12]	@ unaligned
	str	r2, [r4, #16]	@ unaligned
	strb	ip, [r4, #20]
	b	.L406
.L416:
	ldr	r2, .L419+12
	add	r3, r0, #8
.LPIC49:
	add	r2, pc, r2
	mov	lr, #11
	ldmia	r2!, {r0, r1}
	mov	ip, #0
	str	r3, [r4]
	ldrh	r5, [r2]	@ unaligned
	ldrb	r2, [r2, #2]	@ zero_extendqisi2
	str	r0, [r4, #8]	@ unaligned
	str	r1, [r4, #12]	@ unaligned
	strh	r5, [r4, #16]	@ unaligned
	strb	r2, [r4, #18]
	str	lr, [r4, #4]
	strb	ip, [r4, #19]
	b	.L406
.L417:
	add	r1, sp, #8
	add	r3, r0, #8
	mov	r2, #17
	str	r2, [r1, #-4]!
	str	r3, [r0]
	mov	r2, #0
	bl	_ZNSt7__cxx1112basic_stringIcSt11char_traitsIcESaIcEE9_M_createERjj(PLT)
	ldr	ip, .L419+16
	ldr	r6, [sp, #4]
.LPIC50:
	add	ip, pc, ip
	str	r6, [r4, #8]
	mov	r5, #0
	str	r0, [r4]
	mov	lr, r0
	ldmia	ip!, {r0, r1, r2, r3}
	ldrb	ip, [ip]	@ zero_extendqisi2
	str	r0, [lr]	@ unaligned
	str	r1, [lr, #4]	@ unaligned
	strb	ip, [lr, #16]
	str	r2, [lr, #8]	@ unaligned
	str	r3, [lr, #12]	@ unaligned
	ldr	r3, [sp, #4]
	ldr	r2, [r4]
	str	r3, [r4, #4]
	strb	r5, [r2, r3]
	b	.L406
.L420:
	.align	2
.L419:
	.word	.LC15-(.LPIC52+8)
	.word	.LC14-(.LPIC51+8)
	.word	.LC11-(.LPIC48+8)
	.word	.LC12-(.LPIC49+8)
	.word	.LC13-(.LPIC50+8)
	.fnend
	.size	_ZNK4asio5error6detail13misc_category7messageB5cxx11Ei, .-_ZNK4asio5error6detail13misc_category7messageB5cxx11Ei
	.section	.text._ZNK4asio5error6detail14netdb_category7messageB5cxx11Ei,"axG",%progbits,_ZNK4asio5error6detail14netdb_category7messageB5cxx11Ei,comdat
	.align	2
	.weak	_ZNK4asio5error6detail14netdb_category7messageB5cxx11Ei
	.syntax unified
	.arm
	.fpu vfp
	.type	_ZNK4asio5error6detail14netdb_category7messageB5cxx11Ei, %function
_ZNK4asio5error6detail14netdb_category7messageB5cxx11Ei:
	.fnstart
.LFB2079:
	@ args = 0, pretend = 0, frame = 8
	@ frame_needed = 0, uses_anonymous_args = 0
	push	{r4, r5, r6, lr}
	.save {r4, r5, r6, lr}
	cmp	r2, #1
	.pad #8
	sub	sp, sp, #8
	add	r1, sp, #8
	mov	r4, r0
	beq	.L434
	cmp	r2, #2
	beq	.L435
	cmp	r2, #4
	beq	.L436
	cmp	r2, #3
	beq	.L437
	add	r3, r0, #8
	mov	r2, #16
	str	r2, [r1, #-4]!
	str	r3, [r0]
	mov	r2, #0
	bl	_ZNSt7__cxx1112basic_stringIcSt11char_traitsIcESaIcEE9_M_createERjj(PLT)
	ldr	ip, .L438
	ldr	r5, [sp, #4]
.LPIC57:
	add	ip, pc, ip
	str	r5, [r4, #8]
	str	r0, [r4]
	mov	lr, r0
	ldmia	ip!, {r0, r1, r2, r3}
	mov	ip, #0
	str	r0, [lr]	@ unaligned
	str	r1, [lr, #4]	@ unaligned
	str	r2, [lr, #8]	@ unaligned
	str	r3, [lr, #12]	@ unaligned
	ldr	r3, [sp, #4]
	ldr	r2, [r4]
	str	r3, [r4, #4]
	strb	ip, [r2, r3]
.L421:
	mov	r0, r4
	add	sp, sp, #8
	@ sp needed
	pop	{r4, r5, r6, pc}
.L437:
	add	r3, r0, #8
	mov	r2, #55
	str	r2, [r1, #-4]!
	str	r3, [r0]
	mov	r2, #0
	bl	_ZNSt7__cxx1112basic_stringIcSt11char_traitsIcESaIcEE9_M_createERjj(PLT)
	ldr	r5, .L438+4
	ldr	r3, [sp, #4]
.LPIC56:
	add	r5, pc, r5
	add	r6, r5, #48
	str	r3, [r4, #8]
	mov	lr, r0
	str	r0, [r4]
.L429:
	mov	ip, r5
	add	lr, lr, #16
	ldmia	ip!, {r0, r1, r2, r3}
	add	r5, r5, #16
	cmp	ip, r6
	str	r0, [lr, #-16]	@ unaligned
	str	r1, [lr, #-12]	@ unaligned
	str	r2, [lr, #-8]	@ unaligned
	str	r3, [lr, #-4]	@ unaligned
	bne	.L429
	ldrh	r2, [r5, #4]	@ unaligned
	ldrb	r3, [r5, #6]	@ zero_extendqisi2
	ldr	r0, [r5]
	strh	r2, [lr, #4]	@ unaligned
	strb	r3, [lr, #6]
	str	r0, [lr]	@ unaligned
	ldr	r3, [sp, #4]
	ldr	r2, [r4]
	mov	r1, #0
	str	r3, [r4, #4]
	strb	r1, [r2, r3]
	b	.L421
.L434:
	add	r3, r0, #8
	mov	r2, #30
	str	r2, [r1, #-4]!
	str	r3, [r0]
	mov	r2, #0
	bl	_ZNSt7__cxx1112basic_stringIcSt11char_traitsIcESaIcEE9_M_createERjj(PLT)
	ldr	ip, .L438+8
	ldr	r6, [sp, #4]
.LPIC53:
	add	ip, pc, ip
	str	r6, [r4, #8]
	mov	r5, #0
	str	r0, [r4]
	mov	lr, r0
	ldmia	ip!, {r0, r1, r2, r3}
	str	r0, [lr]	@ unaligned
	str	r1, [lr, #4]	@ unaligned
	str	r2, [lr, #8]	@ unaligned
	ldmia	ip!, {r0, r1, r2}
	str	r3, [lr, #12]	@ unaligned
	ldrh	r3, [ip]	@ unaligned
	str	r0, [lr, #16]	@ unaligned
	str	r1, [lr, #20]	@ unaligned
	strh	r3, [lr, #28]	@ unaligned
	str	r2, [lr, #24]	@ unaligned
	ldr	r3, [sp, #4]
	ldr	r2, [r4]
	str	r3, [r4, #4]
	strb	r5, [r2, r3]
	b	.L421
.L435:
	add	r3, r0, #8
	mov	r2, #51
	str	r2, [r1, #-4]!
	str	r3, [r0]
	mov	r2, #0
	bl	_ZNSt7__cxx1112basic_stringIcSt11char_traitsIcESaIcEE9_M_createERjj(PLT)
	ldr	r5, .L438+12
	ldr	r3, [sp, #4]
.LPIC54:
	add	r5, pc, r5
	add	r6, r5, #48
	str	r3, [r4, #8]
	mov	lr, r0
	str	r0, [r4]
.L425:
	mov	ip, r5
	add	lr, lr, #16
	ldmia	ip!, {r0, r1, r2, r3}
	add	r5, r5, #16
	cmp	ip, r6
	str	r0, [lr, #-16]	@ unaligned
	str	r1, [lr, #-12]	@ unaligned
	str	r2, [lr, #-8]	@ unaligned
	str	r3, [lr, #-4]	@ unaligned
	bne	.L425
	ldrh	r2, [r5]	@ unaligned
	ldrb	r3, [r5, #2]	@ zero_extendqisi2
	mov	r1, #0
	strh	r2, [lr]	@ unaligned
	strb	r3, [lr, #2]
	ldr	r3, [sp, #4]
	ldr	r2, [r4]
	str	r3, [r4, #4]
	strb	r1, [r2, r3]
	b	.L421
.L436:
	add	r3, r0, #8
	mov	r2, #56
	str	r2, [r1, #-4]!
	str	r3, [r0]
	mov	r2, #0
	bl	_ZNSt7__cxx1112basic_stringIcSt11char_traitsIcESaIcEE9_M_createERjj(PLT)
	ldr	r5, .L438+16
	ldr	r3, [sp, #4]
.LPIC55:
	add	r5, pc, r5
	add	r6, r5, #48
	str	r3, [r4, #8]
	mov	lr, r0
	str	r0, [r4]
.L427:
	mov	ip, r5
	add	lr, lr, #16
	ldmia	ip!, {r0, r1, r2, r3}
	add	r5, r5, #16
	cmp	ip, r6
	str	r0, [lr, #-16]	@ unaligned
	str	r1, [lr, #-12]	@ unaligned
	str	r2, [lr, #-8]	@ unaligned
	str	r3, [lr, #-4]	@ unaligned
	bne	.L427
	ldmia	r5!, {r0, r1}
	mov	ip, #0
	str	r0, [lr]	@ unaligned
	str	r1, [lr, #4]	@ unaligned
	ldr	r3, [sp, #4]
	ldr	r2, [r4]
	str	r3, [r4, #4]
	strb	ip, [r2, r3]
	b	.L421
.L439:
	.align	2
.L438:
	.word	.LC20-(.LPIC57+8)
	.word	.LC19-(.LPIC56+8)
	.word	.LC16-(.LPIC53+8)
	.word	.LC17-(.LPIC54+8)
	.word	.LC18-(.LPIC55+8)
	.fnend
	.size	_ZNK4asio5error6detail14netdb_category7messageB5cxx11Ei, .-_ZNK4asio5error6detail14netdb_category7messageB5cxx11Ei
	.text
	.align	2
	.syntax unified
	.arm
	.fpu vfp
	.type	_ZN4asio6detail18completion_handlerIZN7asiopal8Executor4PostERKSt8functionIFvvEEEUlvE_E11do_completeEPNS0_15task_io_serviceEPNS0_25task_io_service_operationERKSt10error_codej, %function
_ZN4asio6detail18completion_handlerIZN7asiopal8Executor4PostERKSt8functionIFvvEEEUlvE_E11do_completeEPNS0_15task_io_serviceEPNS0_25task_io_service_operationERKSt10error_codej:
	.fnstart
.LFB8311:
	@ args = 0, pretend = 0, frame = 40
	@ frame_needed = 0, uses_anonymous_args = 0
	push	{r4, r5, r6, r7, r8, r9, lr}
	.save {r4, r5, r6, r7, r8, r9, lr}
	mov	r4, r1
	.pad #44
	sub	sp, sp, #44
	ldr	r3, [r4, #20]
	mov	r2, #0
	ldr	r5, .L539
	add	r1, r1, #12
	cmp	r3, r2
	str	r4, [sp, #8]
	str	r4, [sp, #12]
	str	r1, [sp, #4]
	str	r2, [sp, #24]
	mov	r8, r0
.LPIC58:
	add	r5, pc, r5
	beq	.L441
	add	r6, sp, #16
	mov	r0, r6
	mov	r2, #2
.LEHB2:
	blx	r3
.LEHE2:
	ldr	r2, [r4, #24]
	ldr	r3, [r4, #20]
	ldr	r7, [sp, #12]
	ldr	r1, [r4, #28]
	str	r2, [sp, #28]
	ldr	r2, [r4, #32]
	str	r3, [sp, #24]
	cmp	r7, #0
	mov	r3, #0
	str	r6, [sp, #4]
	str	r1, [sp, #32]
	str	r2, [sp, #36]
	str	r3, [r4, #32]
	str	r3, [r4, #28]
	beq	.L443
	ldr	r4, [r7, #32]
	add	r9, r7, #12
	cmp	r4, #0
	beq	.L448
.L538:
	ldr	r3, .L539+4
	ldr	r3, [r5, r3]
	cmp	r3, #0
	beq	.L449
	add	r3, r4, #28
	mcr	p15, 0, r0, c7, c10, 5
.L524:
	ldrex	r2, [r3]
	sub	r1, r2, #1
	strex	r0, r1, [r3]
	cmp	r0, #0
	bne	.L524
	cmp	r2, #1
	mcr	p15, 0, r0, c7, c10, 5
	beq	.L532
.L448:
	ldr	r3, [r7, #20]
	cmp	r3, #0
	beq	.L453
	mov	r2, #3
	mov	r1, r9
	mov	r0, r9
	blx	r3
.L453:
	mov	r3, #0
	str	r3, [sp, #12]
.L443:
	ldr	r4, [sp, #8]
	cmp	r4, #0
	beq	.L454
	ldr	r3, .L539+8
	ldr	r3, [r5, r3]
	ldr	r0, [r3]
	bl	pthread_getspecific(PLT)
	cmp	r0, #0
	beq	.L455
	ldr	r3, [r0, #4]
	cmp	r3, #0
	beq	.L455
	ldr	r2, [r3]
	cmp	r2, #0
	beq	.L533
.L455:
	mov	r0, r4
	bl	_ZdlPv(PLT)
.L456:
	mov	r3, #0
	str	r3, [sp, #8]
.L454:
	cmp	r8, #0
	beq	.L457
	add	r3, sp, #40
	mov	r2, #0
	str	r2, [r3, #-40]!
	mov	r2, #1
.L523:
	ldrex	r1, [r3]
	strex	r0, r2, [r3]
	cmp	r0, #0
	bne	.L523
	mcr	p15, 0, r0, c7, c10, 5
	ldr	r3, [sp, #24]
	cmp	r3, #0
	beq	.L534
	ldr	r3, [sp, #28]
	mov	r0, r6
.LEHB3:
	blx	r3
.LEHE3:
	mov	r3, #0
	mcr	p15, 0, r0, c7, c10, 5
	str	r3, [sp]
.L457:
	ldr	r4, [sp, #36]
	cmp	r4, #0
	beq	.L460
	ldr	r3, .L539+4
	ldr	r3, [r5, r3]
	cmp	r3, #0
	beq	.L461
	add	r3, r4, #28
	mcr	p15, 0, r0, c7, c10, 5
.L522:
	ldrex	r2, [r3]
	sub	r1, r2, #1
	strex	r0, r1, [r3]
	cmp	r0, #0
	bne	.L522
	cmp	r2, #1
	mcr	p15, 0, r0, c7, c10, 5
	beq	.L535
.L460:
	ldr	r3, [sp, #24]
	cmp	r3, #0
	beq	.L465
	mov	r2, #3
	mov	r1, r6
	mov	r0, r6
	blx	r3
.L465:
	ldr	r4, [sp, #12]
	cmp	r4, #0
	beq	.L466
	ldr	r6, [r4, #32]
	add	r7, r4, #12
	cmp	r6, #0
	beq	.L468
	ldr	r3, .L539+4
	ldr	r3, [r5, r3]
	cmp	r3, #0
	beq	.L469
	add	r3, r6, #28
	mcr	p15, 0, r0, c7, c10, 5
.L521:
	ldrex	r2, [r3]
	sub	r1, r2, #1
	strex	r0, r1, [r3]
	cmp	r0, #0
	bne	.L521
	cmp	r2, #1
	mcr	p15, 0, r0, c7, c10, 5
	beq	.L536
.L468:
	ldr	r3, [r4, #20]
	cmp	r3, #0
	beq	.L473
	mov	r2, #3
	mov	r1, r7
	mov	r0, r7
	blx	r3
.L473:
	mov	r3, #0
	str	r3, [sp, #12]
.L466:
	ldr	r4, [sp, #8]
	cmp	r4, #0
	beq	.L440
	ldr	r3, .L539+8
	ldr	r3, [r5, r3]
	ldr	r0, [r3]
	bl	pthread_getspecific(PLT)
	cmp	r0, #0
	beq	.L475
	ldr	r3, [r0, #4]
	cmp	r3, #0
	beq	.L475
	ldr	r2, [r3]
	cmp	r2, #0
	beq	.L537
.L475:
	mov	r0, r4
	bl	_ZdlPv(PLT)
.L440:
	add	sp, sp, #44
	@ sp needed
	pop	{r4, r5, r6, r7, r8, r9, pc}
.L461:
	ldr	r3, [r4, #28]
	cmp	r3, #1
	sub	r3, r3, #1
	str	r3, [r4, #28]
	bne	.L460
	ldr	r3, [r4]
	mov	r0, r4
	ldr	r3, [r3, #8]
	blx	r3
	mcr	p15, 0, r0, c7, c10, 5
	ldr	r2, [r4, #32]
	sub	r3, r2, #1
	str	r3, [r4, #32]
	b	.L478
.L441:
	mov	r7, r4
	ldr	r1, [r4, #28]
	ldr	r2, [r4, #32]
	str	r3, [r4, #28]
	str	r3, [r4, #32]
	ldr	r4, [r7, #32]
	add	r6, sp, #16
	cmp	r4, #0
	str	r1, [sp, #32]
	str	r2, [sp, #36]
	str	r6, [sp, #4]
	add	r9, r7, #12
	bne	.L538
	b	.L448
.L535:
	ldr	r3, [r4]
	mov	r0, r4
	ldr	r3, [r3, #8]
	blx	r3
	add	r3, r4, #32
	mcr	p15, 0, r0, c7, c10, 5
	mcr	p15, 0, r0, c7, c10, 5
.L519:
	ldrex	r2, [r3]
	sub	r1, r2, #1
	strex	r0, r1, [r3]
	cmp	r0, #0
	bne	.L519
	mcr	p15, 0, r0, c7, c10, 5
.L478:
	cmp	r2, #1
	bne	.L460
	ldr	r3, [r4]
	mov	r0, r4
	ldr	r3, [r3, #12]
	blx	r3
	b	.L460
.L532:
	ldr	r3, [r4]
	mov	r0, r4
	ldr	r3, [r3, #8]
	blx	r3
	add	r3, r4, #32
	mcr	p15, 0, r0, c7, c10, 5
	mcr	p15, 0, r0, c7, c10, 5
.L520:
	ldrex	r2, [r3]
	sub	r1, r2, #1
	strex	r0, r1, [r3]
	cmp	r0, #0
	bne	.L520
	mcr	p15, 0, r0, c7, c10, 5
.L477:
	cmp	r2, #1
	bne	.L448
	ldr	r3, [r4]
	mov	r0, r4
	ldr	r3, [r3, #12]
	blx	r3
	b	.L448
.L536:
	ldr	r3, [r6]
	mov	r0, r6
	ldr	r3, [r3, #8]
	blx	r3
	add	r3, r6, #32
	mcr	p15, 0, r0, c7, c10, 5
	mcr	p15, 0, r0, c7, c10, 5
.L518:
	ldrex	r2, [r3]
	sub	r1, r2, #1
	strex	r0, r1, [r3]
	cmp	r0, #0
	bne	.L518
	mcr	p15, 0, r0, c7, c10, 5
.L479:
	cmp	r2, #1
	bne	.L468
	ldr	r3, [r6]
	mov	r0, r6
	ldr	r3, [r3, #12]
	blx	r3
	b	.L468
.L449:
	ldr	r3, [r4, #28]
	cmp	r3, #1
	sub	r3, r3, #1
	str	r3, [r4, #28]
	bne	.L448
	ldr	r3, [r4]
	mov	r0, r4
	ldr	r3, [r3, #8]
	blx	r3
	mcr	p15, 0, r0, c7, c10, 5
	ldr	r2, [r4, #32]
	sub	r3, r2, #1
	str	r3, [r4, #32]
	b	.L477
.L469:
	ldr	r3, [r6, #28]
	cmp	r3, #1
	sub	r3, r3, #1
	str	r3, [r6, #28]
	bne	.L468
	ldr	r3, [r6]
	mov	r0, r6
	ldr	r3, [r3, #8]
	blx	r3
	mcr	p15, 0, r0, c7, c10, 5
	ldr	r2, [r6, #32]
	sub	r3, r2, #1
	str	r3, [r6, #32]
	b	.L479
.L537:
	ldrb	r2, [r4, #36]	@ zero_extendqisi2
	strb	r2, [r4]
	str	r4, [r3]
	b	.L440
.L533:
	ldrb	r2, [r4, #36]	@ zero_extendqisi2
	strb	r2, [r4]
	str	r4, [r3]
	b	.L456
.L534:
.LEHB4:
	bl	_ZSt25__throw_bad_function_callv(PLT)
.LEHE4:
.L480:
	mov	r3, #0
	mcr	p15, 0, r0, c7, c10, 5
	mov	r0, r6
	str	r3, [sp]
	bl	_ZZN7asiopal8Executor4PostERKSt8functionIFvvEEENUlvE_D1Ev(PLT)
.L446:
	add	r0, sp, #4
	bl	_ZN4asio6detail18completion_handlerIZN7asiopal8Executor4PostERKSt8functionIFvvEEEUlvE_E3ptr5resetEv(PLT)
.LEHB5:
	bl	__cxa_end_cleanup(PLT)
.LEHE5:
.L481:
	ldr	r3, [sp, #24]
	cmp	r3, #0
	beq	.L446
	mov	r2, #3
	mov	r1, r6
	mov	r0, r6
	blx	r3
	b	.L446
.L540:
	.align	2
.L539:
	.word	_GLOBAL_OFFSET_TABLE_-(.LPIC58+8)
	.word	_ZL28__gthrw___pthread_key_createPjPFvPvE(GOT)
	.word	_ZN4asio6detail10call_stackINS0_15task_io_serviceENS0_27task_io_service_thread_infoEE4top_E(GOT)
	.personality	__gxx_personality_v0
	.handlerdata
.LLSDA8311:
	.byte	0xff
	.byte	0xff
	.byte	0x1
	.uleb128 .LLSDACSE8311-.LLSDACSB8311
.LLSDACSB8311:
	.uleb128 .LEHB2-.LFB8311
	.uleb128 .LEHE2-.LEHB2
	.uleb128 .L481-.LFB8311
	.uleb128 0
	.uleb128 .LEHB3-.LFB8311
	.uleb128 .LEHE3-.LEHB3
	.uleb128 .L480-.LFB8311
	.uleb128 0
	.uleb128 .LEHB4-.LFB8311
	.uleb128 .LEHE4-.LEHB4
	.uleb128 .L480-.LFB8311
	.uleb128 0
	.uleb128 .LEHB5-.LFB8311
	.uleb128 .LEHE5-.LEHB5
	.uleb128 0
	.uleb128 0
.LLSDACSE8311:
	.text
	.fnend
	.size	_ZN4asio6detail18completion_handlerIZN7asiopal8Executor4PostERKSt8functionIFvvEEEUlvE_E11do_completeEPNS0_15task_io_serviceEPNS0_25task_io_service_operationERKSt10error_codej, .-_ZN4asio6detail18completion_handlerIZN7asiopal8Executor4PostERKSt8functionIFvvEEEUlvE_E11do_completeEPNS0_15task_io_serviceEPNS0_25task_io_service_operationERKSt10error_codej
	.align	2
	.syntax unified
	.arm
	.fpu vfp
	.type	_ZN4asio6detail18completion_handlerIZN7asiopal8Executor10BlockUntilERKSt8functionIFvvEEEUlvE_E11do_completeEPNS0_15task_io_serviceEPNS0_25task_io_service_operationERKSt10error_codej, %function
_ZN4asio6detail18completion_handlerIZN7asiopal8Executor10BlockUntilERKSt8functionIFvvEEEUlvE_E11do_completeEPNS0_15task_io_serviceEPNS0_25task_io_service_operationERKSt10error_codej:
	.fnstart
.LFB8328:
	@ args = 0, pretend = 0, frame = 64
	@ frame_needed = 0, uses_anonymous_args = 0
	push	{r4, r5, r6, r7, r8, lr}
	.save {r4, r5, r6, r7, r8, lr}
	mov	r8, r0
	ldr	r4, .L577
	ldr	r3, .L577+4
.LPIC59:
	add	r4, pc, r4
	.pad #64
	sub	sp, sp, #64
	ldr	r3, [r4, r3]
	mov	r5, r1
	ldr	r6, [r1, #12]
	ldr	r0, [r3]
	ldr	r7, [r1, #16]
	bl	pthread_getspecific(PLT)
	cmp	r0, #0
	beq	.L542
	ldr	r3, [r0, #4]
	cmp	r3, #0
	beq	.L542
	ldr	r2, [r3]
	cmp	r2, #0
	beq	.L574
.L542:
	mov	r0, r5
	bl	_ZdlPv(PLT)
.L543:
	cmp	r8, #0
	beq	.L541
	add	r3, sp, #64
	mov	r2, #0
	str	r2, [r3, #-56]!
	mov	r2, #1
.L572:
	ldrex	r1, [r3]
	strex	r0, r2, [r3]
	cmp	r0, #0
	bne	.L572
	mcr	p15, 0, r0, c7, c10, 5
	ldr	r3, [r6, #8]
	cmp	r3, #0
	beq	.L575
	ldr	r3, [r6, #12]
	mov	r0, r6
.LEHB6:
	blx	r3
.LEHE6:
	ldr	r3, .L577+8
	mov	r1, #1
	strb	r1, [sp, #6]
	ldr	r2, .L577+12
	add	r1, sp, #6
	ldr	r5, [r7]
	str	r1, [sp, #36]
	str	r7, [sp, #32]
	ldr	r1, [r4, r3]
	ldr	r3, .L577+16
	str	r1, [sp, #44]
	ldr	r1, [r4, r2]
	mov	r2, #0
	str	r1, [sp, #40]
	strb	r2, [sp, #7]
	ldr	r3, [r4, r3]
	ldr	r0, .L577+20
	str	r3, [sp, #24]
	add	r3, sp, #7
	str	r3, [sp, #12]
	add	r3, sp, #24
	str	r3, [sp, #48]
	add	r3, sp, #20
	str	r3, [sp, #52]
	add	r3, sp, #16
	str	r3, [sp, #56]
.LPIC60:
	add	r0, pc, r0
	add	r3, sp, #12
	add	r6, sp, #32
	str	r2, [sp, #28]
	str	r3, [sp, #60]
	str	r5, [sp, #20]
	str	r6, [sp, #16]
	bl	__tls_get_addr(PLT)
	ldr	r3, .L577+24
	add	r2, sp, #48
	str	r2, [r0]
.LPIC61:
	add	r0, pc, r3
	bl	__tls_get_addr(PLT)
	ldr	r2, .L577+28
	ldr	r3, .L577+32
	ldr	r2, [r4, r2]
	str	r2, [r0]
	ldr	r3, [r4, r3]
	cmp	r3, #0
	beq	.L556
	ldr	r3, .L577+36
	add	r0, r5, #16
	ldr	r1, [r4, r3]
.LEHB7:
	bl	_ZL20__gthrw_pthread_oncePiPFvvE(PLT)
	cmp	r0, #0
	bne	.L546
	ldrb	r3, [sp, #7]	@ zero_extendqisi2
	cmp	r3, #0
	bne	.L576
	mov	r0, #2
	bl	_ZSt20__throw_future_errori(PLT)
.LEHE7:
.L576:
	add	r0, r5, #8
	mov	r2, #1
	mcr	p15, 0, r0, c7, c10, 5
.L571:
	ldrex	r3, [r0]
	strex	r1, r2, [r0]
	cmp	r1, #0
	bne	.L571
	cmp	r3, #0
	blt	.L549
.L552:
	ldr	r3, [sp, #40]
	cmp	r3, #0
	beq	.L551
	mov	r2, #3
	mov	r1, r6
	mov	r0, r6
	blx	r3
.L551:
	mov	r3, #0
	mcr	p15, 0, r0, c7, c10, 5
	str	r3, [sp, #8]
.L541:
	add	sp, sp, #64
	@ sp needed
	pop	{r4, r5, r6, r7, r8, pc}
.L556:
	mvn	r0, #0
.L546:
.LEHB8:
	bl	_ZSt20__throw_system_errori(PLT)
.LEHE8:
.L574:
	ldrb	r2, [r5, #20]	@ zero_extendqisi2
	strb	r2, [r5]
	str	r5, [r3]
	b	.L543
.L558:
	ldr	r3, [sp, #40]
	cmp	r3, #0
	beq	.L555
	mov	r2, #3
	mov	r1, r6
	mov	r0, r6
	blx	r3
.L555:
	mov	r3, #0
	mcr	p15, 0, r0, c7, c10, 5
	str	r3, [sp, #8]
.LEHB9:
	bl	__cxa_end_cleanup(PLT)
.LEHE9:
.L549:
.LEHB10:
	bl	_ZNSt28__atomic_futex_unsigned_base19_M_futex_notify_allEPj(PLT)
.LEHE10:
	b	.L552
.L575:
.LEHB11:
	bl	_ZSt25__throw_bad_function_callv(PLT)
.LEHE11:
.L557:
	b	.L555
.L578:
	.align	2
.L577:
	.word	_GLOBAL_OFFSET_TABLE_-(.LPIC59+8)
	.word	_ZN4asio6detail10call_stackINS0_15task_io_serviceENS0_27task_io_service_thread_infoEE4top_E(GOT)
	.word	_ZNSt17_Function_handlerIFSt10unique_ptrINSt13__future_base12_Result_baseENS2_8_DeleterEEvENS1_13_State_baseV27_SetterIbObEEE9_M_invokeERKSt9_Any_data(GOT)
	.word	_ZNSt14_Function_base13_Base_managerINSt13__future_base13_State_baseV27_SetterIbObEEE10_M_managerERSt9_Any_dataRKS7_St18_Manager_operation(GOT)
	.word	_ZNSt13__future_base13_State_baseV29_M_do_setEPSt8functionIFSt10unique_ptrINS_12_Result_baseENS3_8_DeleterEEvEEPb(GOT)
	.word	_ZSt15__once_callable(tlsgd) + (. - .LPIC60 - 8)
	.word	_ZSt11__once_call(tlsgd) + (. - .LPIC61 - 8)
	.word	_ZZSt9call_onceIMNSt13__future_base13_State_baseV2EFvPSt8functionIFSt10unique_ptrINS0_12_Result_baseENS4_8_DeleterEEvEEPbEJPS1_S9_SA_EEvRSt9once_flagOT_DpOT0_ENUlvE0_4_FUNEv(GOT)
	.word	_ZL28__gthrw___pthread_key_createPjPFvPvE(GOT)
	.word	__once_proxy(GOT)
	.personality	__gxx_personality_v0
	.handlerdata
.LLSDA8328:
	.byte	0xff
	.byte	0xff
	.byte	0x1
	.uleb128 .LLSDACSE8328-.LLSDACSB8328
.LLSDACSB8328:
	.uleb128 .LEHB6-.LFB8328
	.uleb128 .LEHE6-.LEHB6
	.uleb128 .L557-.LFB8328
	.uleb128 0
	.uleb128 .LEHB7-.LFB8328
	.uleb128 .LEHE7-.LEHB7
	.uleb128 .L558-.LFB8328
	.uleb128 0
	.uleb128 .LEHB8-.LFB8328
	.uleb128 .LEHE8-.LEHB8
	.uleb128 .L558-.LFB8328
	.uleb128 0
	.uleb128 .LEHB9-.LFB8328
	.uleb128 .LEHE9-.LEHB9
	.uleb128 0
	.uleb128 0
	.uleb128 .LEHB10-.LFB8328
	.uleb128 .LEHE10-.LEHB10
	.uleb128 .L558-.LFB8328
	.uleb128 0
	.uleb128 .LEHB11-.LFB8328
	.uleb128 .LEHE11-.LEHB11
	.uleb128 .L557-.LFB8328
	.uleb128 0
.LLSDACSE8328:
	.text
	.fnend
	.size	_ZN4asio6detail18completion_handlerIZN7asiopal8Executor10BlockUntilERKSt8functionIFvvEEEUlvE_E11do_completeEPNS0_15task_io_serviceEPNS0_25task_io_service_operationERKSt10error_codej, .-_ZN4asio6detail18completion_handlerIZN7asiopal8Executor10BlockUntilERKSt8functionIFvvEEEUlvE_E11do_completeEPNS0_15task_io_serviceEPNS0_25task_io_service_operationERKSt10error_codej
	.section	.text.unlikely
	.align	2
	.syntax unified
	.arm
	.fpu vfp
	.type	_ZN4asio6detail18completion_handlerINS0_7binder1IZN7asiopal8Executor5StartERKNSt6chrono10time_pointINS5_3_V212steady_clockENS5_8durationIxSt5ratioILx1ELx1000000000EEEEEERKSt8functionIFvvEEEUlRKSt10error_codeE_SL_EEE3ptr5resetEv, %function
_ZN4asio6detail18completion_handlerINS0_7binder1IZN7asiopal8Executor5StartERKNSt6chrono10time_pointINS5_3_V212steady_clockENS5_8durationIxSt5ratioILx1ELx1000000000EEEEEERKSt8functionIFvvEEEUlRKSt10error_codeE_SL_EEE3ptr5resetEv:
	.fnstart
.LFB8971:
	@ args = 0, pretend = 0, frame = 0
	@ frame_needed = 0, uses_anonymous_args = 0
	push	{r4, r5, r6, r7, r8, lr}
	.save {r4, r5, r6, r7, r8, lr}
	mov	r6, r0
	ldr	r5, [r0, #8]
	ldr	r7, .L623
	cmp	r5, #0
.LPIC62:
	add	r7, pc, r7
	beq	.L580
	ldr	r4, [r5, #40]
	cmp	r4, #0
	beq	.L582
	ldr	r3, .L623+4
	ldr	r3, [r7, r3]
	cmp	r3, #0
	beq	.L583
	add	r3, r4, #28
	mcr	p15, 0, r0, c7, c10, 5
.L617:
	ldrex	r2, [r3]
	sub	r1, r2, #1
	strex	r0, r1, [r3]
	cmp	r0, #0
	bne	.L617
	cmp	r2, #1
	mcr	p15, 0, r0, c7, c10, 5
	bne	.L582
	b	.L619
.L583:
	ldr	r3, [r4, #28]
	cmp	r3, #1
	sub	r3, r3, #1
	str	r3, [r4, #28]
	bne	.L582
	b	.L620
.L619:
	ldr	r3, [r4]
	mov	r0, r4
	ldr	r3, [r3, #8]
	blx	r3
	add	r2, r4, #32
	mcr	p15, 0, r0, c7, c10, 5
	mcr	p15, 0, r0, c7, c10, 5
.L615:
	ldrex	r3, [r2]
	sub	r1, r3, #1
	strex	r0, r1, [r2]
	cmp	r0, #0
	bne	.L615
	mcr	p15, 0, r0, c7, c10, 5
.L597:
	cmp	r3, #1
	bne	.L582
	ldr	r3, [r4]
	mov	r0, r4
	ldr	r3, [r3, #12]
	blx	r3
.L582:
	ldr	r3, [r5, #28]
	cmp	r3, #0
	beq	.L587
	add	r1, r5, #20
	mov	r0, r1
	mov	r2, #3
	blx	r3
.L587:
	ldr	r4, [r5, #16]
	cmp	r4, #0
	beq	.L589
	ldr	r3, .L623+4
	ldr	r3, [r7, r3]
	cmp	r3, #0
	beq	.L590
	add	r3, r4, #28
	mcr	p15, 0, r0, c7, c10, 5
.L616:
	ldrex	r2, [r3]
	sub	r1, r2, #1
	strex	r0, r1, [r3]
	cmp	r0, #0
	bne	.L616
	cmp	r2, #1
	mcr	p15, 0, r0, c7, c10, 5
	bne	.L589
	b	.L621
.L590:
	ldr	r3, [r4, #28]
	cmp	r3, #1
	sub	r3, r3, #1
	str	r3, [r4, #28]
	bne	.L589
	b	.L622
.L621:
	ldr	r3, [r4]
	mov	r0, r4
	ldr	r3, [r3, #8]
	blx	r3
	add	r2, r4, #32
	mcr	p15, 0, r0, c7, c10, 5
	mcr	p15, 0, r0, c7, c10, 5
.L614:
	ldrex	r3, [r2]
	sub	r1, r3, #1
	strex	r0, r1, [r2]
	cmp	r0, #0
	bne	.L614
	mcr	p15, 0, r0, c7, c10, 5
.L598:
	cmp	r3, #1
	bne	.L589
	ldr	r3, [r4]
	mov	r0, r4
	ldr	r3, [r3, #12]
	blx	r3
.L589:
	mov	r3, #0
	str	r3, [r6, #8]
.L580:
	ldr	r4, [r6, #4]
	cmp	r4, #0
	popeq	{r4, r5, r6, r7, r8, pc}
	ldr	r3, .L623+8
	ldr	r3, [r7, r3]
	ldr	r0, [r3]
	bl	pthread_getspecific(PLT)
	cmp	r0, #0
	beq	.L595
	ldr	r3, [r0, #4]
	cmp	r3, #0
	beq	.L595
	ldr	r2, [r3]
	cmp	r2, #0
	ldrbeq	r2, [r4, #52]	@ zero_extendqisi2
	strbeq	r2, [r4]
	streq	r4, [r3]
	beq	.L596
.L595:
	mov	r0, r4
	bl	_ZdlPv(PLT)
.L596:
	mov	r3, #0
	str	r3, [r6, #4]
	pop	{r4, r5, r6, r7, r8, pc}
.L620:
	ldr	r3, [r4]
	mov	r0, r4
	ldr	r3, [r3, #8]
	blx	r3
	mcr	p15, 0, r0, c7, c10, 5
	ldr	r3, [r4, #32]
	sub	r2, r3, #1
	str	r2, [r4, #32]
	b	.L597
.L622:
	ldr	r3, [r4]
	mov	r0, r4
	ldr	r3, [r3, #8]
	blx	r3
	mcr	p15, 0, r0, c7, c10, 5
	ldr	r3, [r4, #32]
	sub	r2, r3, #1
	str	r2, [r4, #32]
	b	.L598
.L624:
	.align	2
.L623:
	.word	_GLOBAL_OFFSET_TABLE_-(.LPIC62+8)
	.word	_ZL28__gthrw___pthread_key_createPjPFvPvE(GOT)
	.word	_ZN4asio6detail10call_stackINS0_15task_io_serviceENS0_27task_io_service_thread_infoEE4top_E(GOT)
	.personality	__gxx_personality_v0
	.handlerdata
.LLSDA8971:
	.byte	0xff
	.byte	0xff
	.byte	0x1
	.uleb128 .LLSDACSE8971-.LLSDACSB8971
.LLSDACSB8971:
.LLSDACSE8971:
	.section	.text.unlikely
	.fnend
	.size	_ZN4asio6detail18completion_handlerINS0_7binder1IZN7asiopal8Executor5StartERKNSt6chrono10time_pointINS5_3_V212steady_clockENS5_8durationIxSt5ratioILx1ELx1000000000EEEEEERKSt8functionIFvvEEEUlRKSt10error_codeE_SL_EEE3ptr5resetEv, .-_ZN4asio6detail18completion_handlerINS0_7binder1IZN7asiopal8Executor5StartERKNSt6chrono10time_pointINS5_3_V212steady_clockENS5_8durationIxSt5ratioILx1ELx1000000000EEEEEERKSt8functionIFvvEEEUlRKSt10error_codeE_SL_EEE3ptr5resetEv
	.align	2
	.syntax unified
	.arm
	.fpu vfp
	.type	_ZN4asio6detail12wait_handlerINS0_15wrapped_handlerINS_10io_service6strandEZN7asiopal8Executor5StartERKNSt6chrono10time_pointINS7_3_V212steady_clockENS7_8durationIxSt5ratioILx1ELx1000000000EEEEEERKSt8functionIFvvEEEUlRKSt10error_codeE_NS0_26is_continuation_if_runningEEEE3ptr5resetEv, %function
_ZN4asio6detail12wait_handlerINS0_15wrapped_handlerINS_10io_service6strandEZN7asiopal8Executor5StartERKNSt6chrono10time_pointINS7_3_V212steady_clockENS7_8durationIxSt5ratioILx1ELx1000000000EEEEEERKSt8functionIFvvEEEUlRKSt10error_codeE_NS0_26is_continuation_if_runningEEEE3ptr5resetEv:
	.fnstart
.LFB8426:
	@ args = 0, pretend = 0, frame = 0
	@ frame_needed = 0, uses_anonymous_args = 0
	push	{r4, r5, r6, r7, r8, lr}
	.save {r4, r5, r6, r7, r8, lr}
	mov	r6, r0
	ldr	r5, [r0, #8]
	ldr	r7, .L669
	cmp	r5, #0
.LPIC63:
	add	r7, pc, r7
	beq	.L626
	ldr	r4, [r5, #56]
	cmp	r4, #0
	beq	.L628
	ldr	r3, .L669+4
	ldr	r3, [r7, r3]
	cmp	r3, #0
	beq	.L629
	add	r3, r4, #28
	mcr	p15, 0, r0, c7, c10, 5
.L663:
	ldrex	r2, [r3]
	sub	r1, r2, #1
	strex	r0, r1, [r3]
	cmp	r0, #0
	bne	.L663
	cmp	r2, #1
	mcr	p15, 0, r0, c7, c10, 5
	bne	.L628
	b	.L665
.L629:
	ldr	r3, [r4, #28]
	cmp	r3, #1
	sub	r3, r3, #1
	str	r3, [r4, #28]
	bne	.L628
	b	.L666
.L665:
	ldr	r3, [r4]
	mov	r0, r4
	ldr	r3, [r3, #8]
	blx	r3
	add	r2, r4, #32
	mcr	p15, 0, r0, c7, c10, 5
	mcr	p15, 0, r0, c7, c10, 5
.L661:
	ldrex	r3, [r2]
	sub	r1, r3, #1
	strex	r0, r1, [r2]
	cmp	r0, #0
	bne	.L661
	mcr	p15, 0, r0, c7, c10, 5
.L643:
	cmp	r3, #1
	bne	.L628
	ldr	r3, [r4]
	mov	r0, r4
	ldr	r3, [r3, #12]
	blx	r3
.L628:
	ldr	r3, [r5, #44]
	cmp	r3, #0
	beq	.L633
	add	r1, r5, #36
	mov	r0, r1
	mov	r2, #3
	blx	r3
.L633:
	ldr	r4, [r5, #32]
	cmp	r4, #0
	beq	.L635
	ldr	r3, .L669+4
	ldr	r3, [r7, r3]
	cmp	r3, #0
	beq	.L636
	add	r3, r4, #28
	mcr	p15, 0, r0, c7, c10, 5
.L662:
	ldrex	r2, [r3]
	sub	r1, r2, #1
	strex	r0, r1, [r3]
	cmp	r0, #0
	bne	.L662
	cmp	r2, #1
	mcr	p15, 0, r0, c7, c10, 5
	bne	.L635
	b	.L667
.L636:
	ldr	r3, [r4, #28]
	cmp	r3, #1
	sub	r3, r3, #1
	str	r3, [r4, #28]
	bne	.L635
	b	.L668
.L667:
	ldr	r3, [r4]
	mov	r0, r4
	ldr	r3, [r3, #8]
	blx	r3
	add	r2, r4, #32
	mcr	p15, 0, r0, c7, c10, 5
	mcr	p15, 0, r0, c7, c10, 5
.L660:
	ldrex	r3, [r2]
	sub	r1, r3, #1
	strex	r0, r1, [r2]
	cmp	r0, #0
	bne	.L660
	mcr	p15, 0, r0, c7, c10, 5
.L644:
	cmp	r3, #1
	bne	.L635
	ldr	r3, [r4]
	mov	r0, r4
	ldr	r3, [r3, #12]
	blx	r3
.L635:
	mov	r3, #0
	str	r3, [r6, #8]
.L626:
	ldr	r4, [r6, #4]
	cmp	r4, #0
	popeq	{r4, r5, r6, r7, r8, pc}
	ldr	r3, .L669+8
	ldr	r3, [r7, r3]
	ldr	r0, [r3]
	bl	pthread_getspecific(PLT)
	cmp	r0, #0
	beq	.L641
	ldr	r3, [r0, #4]
	cmp	r3, #0
	beq	.L641
	ldr	r2, [r3]
	cmp	r2, #0
	ldrbeq	r2, [r4, #60]	@ zero_extendqisi2
	strbeq	r2, [r4]
	streq	r4, [r3]
	beq	.L642
.L641:
	mov	r0, r4
	bl	_ZdlPv(PLT)
.L642:
	mov	r3, #0
	str	r3, [r6, #4]
	pop	{r4, r5, r6, r7, r8, pc}
.L666:
	ldr	r3, [r4]
	mov	r0, r4
	ldr	r3, [r3, #8]
	blx	r3
	mcr	p15, 0, r0, c7, c10, 5
	ldr	r3, [r4, #32]
	sub	r2, r3, #1
	str	r2, [r4, #32]
	b	.L643
.L668:
	ldr	r3, [r4]
	mov	r0, r4
	ldr	r3, [r3, #8]
	blx	r3
	mcr	p15, 0, r0, c7, c10, 5
	ldr	r3, [r4, #32]
	sub	r2, r3, #1
	str	r2, [r4, #32]
	b	.L644
.L670:
	.align	2
.L669:
	.word	_GLOBAL_OFFSET_TABLE_-(.LPIC63+8)
	.word	_ZL28__gthrw___pthread_key_createPjPFvPvE(GOT)
	.word	_ZN4asio6detail10call_stackINS0_15task_io_serviceENS0_27task_io_service_thread_infoEE4top_E(GOT)
	.personality	__gxx_personality_v0
	.handlerdata
.LLSDA8426:
	.byte	0xff
	.byte	0xff
	.byte	0x1
	.uleb128 .LLSDACSE8426-.LLSDACSB8426
.LLSDACSB8426:
.LLSDACSE8426:
	.section	.text.unlikely
	.fnend
	.size	_ZN4asio6detail12wait_handlerINS0_15wrapped_handlerINS_10io_service6strandEZN7asiopal8Executor5StartERKNSt6chrono10time_pointINS7_3_V212steady_clockENS7_8durationIxSt5ratioILx1ELx1000000000EEEEEERKSt8functionIFvvEEEUlRKSt10error_codeE_NS0_26is_continuation_if_runningEEEE3ptr5resetEv, .-_ZN4asio6detail12wait_handlerINS0_15wrapped_handlerINS_10io_service6strandEZN7asiopal8Executor5StartERKNSt6chrono10time_pointINS7_3_V212steady_clockENS7_8durationIxSt5ratioILx1ELx1000000000EEEEEERKSt8functionIFvvEEEUlRKSt10error_codeE_NS0_26is_continuation_if_runningEEEE3ptr5resetEv
	.align	2
	.syntax unified
	.arm
	.fpu vfp
	.type	_ZN4asio6detail18completion_handlerINS0_17rewrapped_handlerINS0_7binder1INS0_15wrapped_handlerINS_10io_service6strandEZN7asiopal8Executor5StartERKNSt6chrono10time_pointINS9_3_V212steady_clockENS9_8durationIxSt5ratioILx1ELx1000000000EEEEEERKSt8functionIFvvEEEUlRKSt10error_codeE_NS0_26is_continuation_if_runningEEESP_EESS_EEE3ptr5resetEv, %function
_ZN4asio6detail18completion_handlerINS0_17rewrapped_handlerINS0_7binder1INS0_15wrapped_handlerINS_10io_service6strandEZN7asiopal8Executor5StartERKNSt6chrono10time_pointINS9_3_V212steady_clockENS9_8durationIxSt5ratioILx1ELx1000000000EEEEEERKSt8functionIFvvEEEUlRKSt10error_codeE_NS0_26is_continuation_if_runningEEESP_EESS_EEE3ptr5resetEv:
	.fnstart
.LFB8915:
	@ args = 0, pretend = 0, frame = 0
	@ frame_needed = 0, uses_anonymous_args = 0
	push	{r4, r5, r6, r7, r8, lr}
	.save {r4, r5, r6, r7, r8, lr}
	mov	r7, r0
	ldr	r5, [r0, #8]
	ldr	r6, .L741
	cmp	r5, #0
.LPIC64:
	add	r6, pc, r6
	beq	.L672
	ldr	r4, [r5, #80]
	cmp	r4, #0
	beq	.L674
	ldr	r3, .L741+4
	ldr	r3, [r6, r3]
	cmp	r3, #0
	beq	.L675
	add	r3, r4, #28
	mcr	p15, 0, r0, c7, c10, 5
.L731:
	ldrex	r2, [r3]
	sub	r1, r2, #1
	strex	r0, r1, [r3]
	cmp	r0, #0
	bne	.L731
	cmp	r2, #1
	mcr	p15, 0, r0, c7, c10, 5
	bne	.L674
	b	.L733
.L675:
	ldr	r3, [r4, #28]
	cmp	r3, #1
	sub	r3, r3, #1
	str	r3, [r4, #28]
	bne	.L674
	b	.L734
.L733:
	ldr	r3, [r4]
	mov	r0, r4
	ldr	r3, [r3, #8]
	blx	r3
	add	r2, r4, #32
	mcr	p15, 0, r0, c7, c10, 5
	mcr	p15, 0, r0, c7, c10, 5
.L727:
	ldrex	r3, [r2]
	sub	r1, r3, #1
	strex	r0, r1, [r2]
	cmp	r0, #0
	bne	.L727
	mcr	p15, 0, r0, c7, c10, 5
.L702:
	cmp	r3, #1
	bne	.L674
	ldr	r3, [r4]
	mov	r0, r4
	ldr	r3, [r3, #12]
	blx	r3
.L674:
	ldr	r3, [r5, #68]
	cmp	r3, #0
	beq	.L679
	add	r1, r5, #60
	mov	r0, r1
	mov	r2, #3
	blx	r3
.L679:
	ldr	r4, [r5, #56]
	cmp	r4, #0
	beq	.L681
	ldr	r3, .L741+4
	ldr	r3, [r6, r3]
	cmp	r3, #0
	beq	.L682
	add	r3, r4, #28
	mcr	p15, 0, r0, c7, c10, 5
.L730:
	ldrex	r2, [r3]
	sub	r1, r2, #1
	strex	r0, r1, [r3]
	cmp	r0, #0
	bne	.L730
	cmp	r2, #1
	mcr	p15, 0, r0, c7, c10, 5
	bne	.L681
	b	.L735
.L682:
	ldr	r3, [r4, #28]
	cmp	r3, #1
	sub	r3, r3, #1
	str	r3, [r4, #28]
	bne	.L681
	b	.L736
.L735:
	ldr	r3, [r4]
	mov	r0, r4
	ldr	r3, [r3, #8]
	blx	r3
	add	r2, r4, #32
	mcr	p15, 0, r0, c7, c10, 5
	mcr	p15, 0, r0, c7, c10, 5
.L726:
	ldrex	r3, [r2]
	sub	r1, r3, #1
	strex	r0, r1, [r2]
	cmp	r0, #0
	bne	.L726
	mcr	p15, 0, r0, c7, c10, 5
.L703:
	cmp	r3, #1
	bne	.L681
	ldr	r3, [r4]
	mov	r0, r4
	ldr	r3, [r3, #12]
	blx	r3
.L681:
	ldr	r4, [r5, #40]
	cmp	r4, #0
	beq	.L687
	ldr	r3, .L741+4
	ldr	r3, [r6, r3]
	cmp	r3, #0
	beq	.L688
	add	r3, r4, #28
	mcr	p15, 0, r0, c7, c10, 5
.L729:
	ldrex	r2, [r3]
	sub	r1, r2, #1
	strex	r0, r1, [r3]
	cmp	r0, #0
	bne	.L729
	cmp	r2, #1
	mcr	p15, 0, r0, c7, c10, 5
	bne	.L687
	b	.L737
.L688:
	ldr	r3, [r4, #28]
	cmp	r3, #1
	sub	r3, r3, #1
	str	r3, [r4, #28]
	bne	.L687
	b	.L738
.L737:
	ldr	r3, [r4]
	mov	r0, r4
	ldr	r3, [r3, #8]
	blx	r3
	add	r2, r4, #32
	mcr	p15, 0, r0, c7, c10, 5
	mcr	p15, 0, r0, c7, c10, 5
.L725:
	ldrex	r3, [r2]
	sub	r1, r3, #1
	strex	r0, r1, [r2]
	cmp	r0, #0
	bne	.L725
	mcr	p15, 0, r0, c7, c10, 5
.L704:
	cmp	r3, #1
	bne	.L687
	ldr	r3, [r4]
	mov	r0, r4
	ldr	r3, [r3, #12]
	blx	r3
.L687:
	ldr	r3, [r5, #28]
	cmp	r3, #0
	beq	.L692
	add	r1, r5, #20
	mov	r0, r1
	mov	r2, #3
	blx	r3
.L692:
	ldr	r4, [r5, #16]
	cmp	r4, #0
	beq	.L694
	ldr	r3, .L741+4
	ldr	r3, [r6, r3]
	cmp	r3, #0
	beq	.L695
	add	r3, r4, #28
	mcr	p15, 0, r0, c7, c10, 5
.L728:
	ldrex	r2, [r3]
	sub	r1, r2, #1
	strex	r0, r1, [r3]
	cmp	r0, #0
	bne	.L728
	cmp	r2, #1
	mcr	p15, 0, r0, c7, c10, 5
	bne	.L694
	b	.L739
.L695:
	ldr	r3, [r4, #28]
	cmp	r3, #1
	sub	r3, r3, #1
	str	r3, [r4, #28]
	bne	.L694
	b	.L740
.L739:
	ldr	r3, [r4]
	mov	r0, r4
	ldr	r3, [r3, #8]
	blx	r3
	add	r2, r4, #32
	mcr	p15, 0, r0, c7, c10, 5
	mcr	p15, 0, r0, c7, c10, 5
.L724:
	ldrex	r3, [r2]
	sub	r1, r3, #1
	strex	r0, r1, [r2]
	cmp	r0, #0
	bne	.L724
	mcr	p15, 0, r0, c7, c10, 5
.L705:
	cmp	r3, #1
	bne	.L694
	ldr	r3, [r4]
	mov	r0, r4
	ldr	r3, [r3, #12]
	blx	r3
.L694:
	mov	r3, #0
	str	r3, [r7, #8]
.L672:
	ldr	r4, [r7, #4]
	cmp	r4, #0
	popeq	{r4, r5, r6, r7, r8, pc}
	ldr	r3, .L741+8
	ldr	r3, [r6, r3]
	ldr	r0, [r3]
	bl	pthread_getspecific(PLT)
	cmp	r0, #0
	beq	.L700
	ldr	r3, [r0, #4]
	cmp	r3, #0
	beq	.L700
	ldr	r2, [r3]
	cmp	r2, #0
	ldrbeq	r2, [r4, #92]	@ zero_extendqisi2
	strbeq	r2, [r4]
	streq	r4, [r3]
	beq	.L701
.L700:
	mov	r0, r4
	bl	_ZdlPv(PLT)
.L701:
	mov	r3, #0
	str	r3, [r7, #4]
	pop	{r4, r5, r6, r7, r8, pc}
.L734:
	ldr	r3, [r4]
	mov	r0, r4
	ldr	r3, [r3, #8]
	blx	r3
	mcr	p15, 0, r0, c7, c10, 5
	ldr	r3, [r4, #32]
	sub	r2, r3, #1
	str	r2, [r4, #32]
	b	.L702
.L736:
	ldr	r3, [r4]
	mov	r0, r4
	ldr	r3, [r3, #8]
	blx	r3
	mcr	p15, 0, r0, c7, c10, 5
	ldr	r3, [r4, #32]
	sub	r2, r3, #1
	str	r2, [r4, #32]
	b	.L703
.L738:
	ldr	r3, [r4]
	mov	r0, r4
	ldr	r3, [r3, #8]
	blx	r3
	mcr	p15, 0, r0, c7, c10, 5
	ldr	r3, [r4, #32]
	sub	r2, r3, #1
	str	r2, [r4, #32]
	b	.L704
.L740:
	ldr	r3, [r4]
	mov	r0, r4
	ldr	r3, [r3, #8]
	blx	r3
	mcr	p15, 0, r0, c7, c10, 5
	ldr	r3, [r4, #32]
	sub	r2, r3, #1
	str	r2, [r4, #32]
	b	.L705
.L742:
	.align	2
.L741:
	.word	_GLOBAL_OFFSET_TABLE_-(.LPIC64+8)
	.word	_ZL28__gthrw___pthread_key_createPjPFvPvE(GOT)
	.word	_ZN4asio6detail10call_stackINS0_15task_io_serviceENS0_27task_io_service_thread_infoEE4top_E(GOT)
	.personality	__gxx_personality_v0
	.handlerdata
.LLSDA8915:
	.byte	0xff
	.byte	0xff
	.byte	0x1
	.uleb128 .LLSDACSE8915-.LLSDACSB8915
.LLSDACSB8915:
.LLSDACSE8915:
	.section	.text.unlikely
	.fnend
	.size	_ZN4asio6detail18completion_handlerINS0_17rewrapped_handlerINS0_7binder1INS0_15wrapped_handlerINS_10io_service6strandEZN7asiopal8Executor5StartERKNSt6chrono10time_pointINS9_3_V212steady_clockENS9_8durationIxSt5ratioILx1ELx1000000000EEEEEERKSt8functionIFvvEEEUlRKSt10error_codeE_NS0_26is_continuation_if_runningEEESP_EESS_EEE3ptr5resetEv, .-_ZN4asio6detail18completion_handlerINS0_17rewrapped_handlerINS0_7binder1INS0_15wrapped_handlerINS_10io_service6strandEZN7asiopal8Executor5StartERKNSt6chrono10time_pointINS9_3_V212steady_clockENS9_8durationIxSt5ratioILx1ELx1000000000EEEEEERKSt8functionIFvvEEEUlRKSt10error_codeE_NS0_26is_continuation_if_runningEEESP_EESS_EEE3ptr5resetEv
	.section	.text._ZN9__gnu_cxx13__scoped_lockD2Ev,"axG",%progbits,_ZN9__gnu_cxx13__scoped_lockD5Ev,comdat
	.align	2
	.weak	_ZN9__gnu_cxx13__scoped_lockD2Ev
	.syntax unified
	.arm
	.fpu vfp
	.type	_ZN9__gnu_cxx13__scoped_lockD2Ev, %function
_ZN9__gnu_cxx13__scoped_lockD2Ev:
	.fnstart
.LFB1484:
	@ args = 0, pretend = 0, frame = 0
	@ frame_needed = 0, uses_anonymous_args = 0
	push	{r4, r5, r6, lr}
	.save {r4, r5, r6, lr}
	mov	r5, r0
	ldr	r4, .L757
	ldr	r3, .L757+4
.LPIC65:
	add	r4, pc, r4
	ldr	r3, [r4, r3]
	cmp	r3, #0
	beq	.L750
	ldr	r0, [r0]
	bl	_ZL28__gthrw_pthread_mutex_unlockP15pthread_mutex_t(PLT)
	cmp	r0, #0
	bne	.L756
.L750:
	mov	r0, r5
	pop	{r4, r5, r6, pc}
.L756:
	mov	r0, #4
	bl	__cxa_allocate_exception(PLT)
	ldr	r1, .L757+8
	ldr	r2, .L757+12
	ldr	r3, .L757+16
	ldr	r1, [r4, r1]
	add	r1, r1, #8
	str	r1, [r0]
	ldr	r2, [r4, r2]
	ldr	r1, [r4, r3]
.LEHB12:
	bl	__cxa_throw(PLT)
.LEHE12:
.L747:
	cmn	r1, #1
	beq	.L746
.LEHB13:
	bl	__cxa_end_cleanup(PLT)
.L746:
	bl	__cxa_call_unexpected(PLT)
.LEHE13:
.L758:
	.align	2
.L757:
	.word	_GLOBAL_OFFSET_TABLE_-(.LPIC65+8)
	.word	_ZL28__gthrw___pthread_key_createPjPFvPvE(GOT)
	.word	_ZTVN9__gnu_cxx26__concurrence_unlock_errorE(GOT)
	.word	_ZN9__gnu_cxx26__concurrence_unlock_errorD1Ev(GOT)
	.word	_ZTIN9__gnu_cxx26__concurrence_unlock_errorE(GOT)
	.personality	__gxx_personality_v0
	.handlerdata
	.align	2
.LLSDA1484:
	.byte	0xff
	.byte	0x90
	.uleb128 .LLSDATT1484-.LLSDATTD1484
.LLSDATTD1484:
	.byte	0x1
	.uleb128 .LLSDACSE1484-.LLSDACSB1484
.LLSDACSB1484:
	.uleb128 .LEHB12-.LFB1484
	.uleb128 .LEHE12-.LEHB12
	.uleb128 .L747-.LFB1484
	.uleb128 0x1
	.uleb128 .LEHB13-.LFB1484
	.uleb128 .LEHE13-.LEHB13
	.uleb128 0
	.uleb128 0
.LLSDACSE1484:
	.byte	0x7f
	.byte	0
	.align	2
.LLSDATT1484:
	.word	0
	.section	.text._ZN9__gnu_cxx13__scoped_lockD2Ev,"axG",%progbits,_ZN9__gnu_cxx13__scoped_lockD5Ev,comdat
	.fnend
	.size	_ZN9__gnu_cxx13__scoped_lockD2Ev, .-_ZN9__gnu_cxx13__scoped_lockD2Ev
	.weak	_ZN9__gnu_cxx13__scoped_lockD1Ev
	.set	_ZN9__gnu_cxx13__scoped_lockD1Ev,_ZN9__gnu_cxx13__scoped_lockD2Ev
	.section	.text._ZSt20__throw_bad_weak_ptrv,"axG",%progbits,_ZSt20__throw_bad_weak_ptrv,comdat
	.align	2
	.weak	_ZSt20__throw_bad_weak_ptrv
	.syntax unified
	.arm
	.fpu vfp
	.type	_ZSt20__throw_bad_weak_ptrv, %function
_ZSt20__throw_bad_weak_ptrv:
	.fnstart
.LFB1577:
	@ args = 0, pretend = 0, frame = 0
	@ frame_needed = 0, uses_anonymous_args = 0
	push	{r4, lr}
	.save {r4, lr}
	mov	r0, #4
	bl	__cxa_allocate_exception(PLT)
	ldr	r3, .L761
	ldr	ip, .L761+4
.LPIC66:
	add	r3, pc, r3
	ldr	r2, .L761+8
	ldr	ip, [r3, ip]
	ldr	r1, .L761+12
	add	ip, ip, #8
	str	ip, [r0]
	ldr	r2, [r3, r2]
	ldr	r1, [r3, r1]
	bl	__cxa_throw(PLT)
.L762:
	.align	2
.L761:
	.word	_GLOBAL_OFFSET_TABLE_-(.LPIC66+8)
	.word	_ZTVSt12bad_weak_ptr(GOT)
	.word	_ZNSt12bad_weak_ptrD1Ev(GOT)
	.word	_ZTISt12bad_weak_ptr(GOT)
	.fnend
	.size	_ZSt20__throw_bad_weak_ptrv, .-_ZSt20__throw_bad_weak_ptrv
	.section	.text._ZNSt12system_errorC2ESt10error_codePKc,"axG",%progbits,_ZNSt12system_errorC5ESt10error_codePKc,comdat
	.align	2
	.weak	_ZNSt12system_errorC2ESt10error_codePKc
	.syntax unified
	.arm
	.fpu vfp
	.type	_ZNSt12system_errorC2ESt10error_codePKc, %function
_ZNSt12system_errorC2ESt10error_codePKc:
	.fnstart
.LFB2018:
	@ args = 0, pretend = 0, frame = 80
	@ frame_needed = 0, uses_anonymous_args = 0
	push	{r4, r5, r6, r7, r8, r9, r10, fp, lr}
	.save {r4, r5, r6, r7, r8, r9, r10, fp, lr}
	.pad #92
	sub	sp, sp, #92
	add	r4, sp, #8
	add	r8, sp, #64
	stm	r4, {r1, r2}
	ldr	r2, [sp, #12]
	mov	r5, r0
	mov	r1, r2
	ldr	ip, [r2]
	mov	r0, r8
	ldr	r2, [sp, #8]
	ldr	r6, [ip, #16]
	mov	r7, r3
.LEHB14:
	blx	r6
.LEHE14:
	mov	r3, #2
	str	r3, [sp]
	ldr	r3, .L782
	mov	r2, #0
	ldr	r9, .L782+4
	mov	r0, r8
	mov	r1, r2
.LPIC67:
	add	r3, pc, r3
.LPIC68:
	add	r9, pc, r9
.LEHB15:
	bl	_ZNSt7__cxx1112basic_stringIcSt11char_traitsIcESaIcEE10_M_replaceEjjPKcj(PLT)
.LEHE15:
	mov	lr, r0
	add	r6, sp, #48
	str	r6, [sp, #40]
	ldr	r3, [lr], #8
	mov	ip, r0
	cmp	r3, lr
	moveq	r10, r6
	ldreq	r0, [lr]	@ unaligned
	ldreq	r1, [lr, #4]	@ unaligned
	ldreq	r2, [lr, #8]	@ unaligned
	ldreq	r3, [lr, #12]	@ unaligned
	ldrne	r2, [ip, #8]
	strne	r3, [sp, #40]
	stmiaeq	r10!, {r0, r1, r2, r3}
	mov	fp, #0
	strne	r2, [sp, #48]
	ldr	r3, [ip, #4]
	strb	fp, [ip, #8]
	str	r3, [sp, #44]
	mov	r0, r7
	str	lr, [ip]
	str	fp, [ip, #4]
	bl	strlen(PLT)
	add	r10, sp, #40
	mov	r3, r7
	mov	r2, fp
	mov	r1, fp
	str	r0, [sp]
	mov	r0, r10
.LEHB16:
	bl	_ZNSt7__cxx1112basic_stringIcSt11char_traitsIcESaIcEE10_M_replaceEjjPKcj(PLT)
.LEHE16:
	mov	lr, r0
	add	r7, sp, #24
	str	r7, [sp, #16]
	ldr	r3, [lr], #8
	mov	ip, r0
	cmp	r3, lr
	moveq	fp, r7
	ldreq	r0, [lr]	@ unaligned
	ldreq	r1, [lr, #4]	@ unaligned
	ldreq	r2, [lr, #8]	@ unaligned
	ldreq	r3, [lr, #12]	@ unaligned
	ldrne	r2, [ip, #8]
	strne	r3, [sp, #16]
	stmiaeq	fp!, {r0, r1, r2, r3}
	mov	r3, #0
	strne	r2, [sp, #24]
	ldr	r2, [ip, #4]
	add	fp, sp, #16
	str	r2, [sp, #20]
	strb	r3, [ip, #8]
	str	lr, [ip]
	str	r3, [ip, #4]
	mov	r1, fp
	mov	r0, r5
.LEHB17:
	bl	_ZNSt13runtime_errorC2ERKNSt7__cxx1112basic_stringIcSt11char_traitsIcESaIcEEE(PLT)
.LEHE17:
	ldr	r0, [sp, #16]
	cmp	r0, r7
	beq	.L768
	bl	_ZdlPv(PLT)
.L768:
	ldr	r0, [sp, #40]
	cmp	r0, r6
	beq	.L769
	bl	_ZdlPv(PLT)
.L769:
	ldr	r0, [sp, #64]
	add	r3, sp, #72
	cmp	r0, r3
	beq	.L770
	bl	_ZdlPv(PLT)
.L770:
	ldr	r2, .L782+8
	ldm	r4, {r0, r1}
	mov	r3, r5
	ldr	r2, [r9, r2]
	add	r2, r2, #8
	str	r2, [r3], #8
	stm	r3, {r0, r1}
	mov	r0, r5
	add	sp, sp, #92
	@ sp needed
	pop	{r4, r5, r6, r7, r8, r9, r10, fp, pc}
.L777:
.L775:
	ldr	r0, [sp, #64]
	add	r8, r8, #8
	cmp	r0, r8
	beq	.L776
	bl	_ZdlPv(PLT)
.L776:
.LEHB18:
	bl	__cxa_end_cleanup(PLT)
.LEHE18:
.L779:
	ldr	r0, [sp, #16]
	add	fp, fp, #8
	cmp	r0, fp
	beq	.L773
	bl	_ZdlPv(PLT)
.L773:
	ldr	r0, [sp, #40]
	add	r10, r10, #8
	cmp	r0, r10
	beq	.L775
	bl	_ZdlPv(PLT)
	b	.L775
.L778:
	b	.L773
.L783:
	.align	2
.L782:
	.word	.LC21-(.LPIC67+8)
	.word	_GLOBAL_OFFSET_TABLE_-(.LPIC68+8)
	.word	_ZTVSt12system_error(GOT)
	.personality	__gxx_personality_v0
	.handlerdata
.LLSDA2018:
	.byte	0xff
	.byte	0xff
	.byte	0x1
	.uleb128 .LLSDACSE2018-.LLSDACSB2018
.LLSDACSB2018:
	.uleb128 .LEHB14-.LFB2018
	.uleb128 .LEHE14-.LEHB14
	.uleb128 0
	.uleb128 0
	.uleb128 .LEHB15-.LFB2018
	.uleb128 .LEHE15-.LEHB15
	.uleb128 .L777-.LFB2018
	.uleb128 0
	.uleb128 .LEHB16-.LFB2018
	.uleb128 .LEHE16-.LEHB16
	.uleb128 .L778-.LFB2018
	.uleb128 0
	.uleb128 .LEHB17-.LFB2018
	.uleb128 .LEHE17-.LEHB17
	.uleb128 .L779-.LFB2018
	.uleb128 0
	.uleb128 .LEHB18-.LFB2018
	.uleb128 .LEHE18-.LEHB18
	.uleb128 0
	.uleb128 0
.LLSDACSE2018:
	.section	.text._ZNSt12system_errorC2ESt10error_codePKc,"axG",%progbits,_ZNSt12system_errorC5ESt10error_codePKc,comdat
	.fnend
	.size	_ZNSt12system_errorC2ESt10error_codePKc, .-_ZNSt12system_errorC2ESt10error_codePKc
	.weak	_ZNSt12system_errorC1ESt10error_codePKc
	.set	_ZNSt12system_errorC1ESt10error_codePKc,_ZNSt12system_errorC2ESt10error_codePKc
	.section	.text._ZN4asio6detail14do_throw_errorERKSt10error_codePKc,"axG",%progbits,_ZN4asio6detail14do_throw_errorERKSt10error_codePKc,comdat
	.align	2
	.weak	_ZN4asio6detail14do_throw_errorERKSt10error_codePKc
	.syntax unified
	.arm
	.fpu vfp
	.type	_ZN4asio6detail14do_throw_errorERKSt10error_codePKc, %function
_ZN4asio6detail14do_throw_errorERKSt10error_codePKc:
	.fnstart
.LFB2072:
	@ args = 0, pretend = 0, frame = 16
	@ frame_needed = 0, uses_anonymous_args = 0
	push	{r4, r5, r6, lr}
	.save {r4, r5, r6, lr}
	.pad #16
	sub	sp, sp, #16
	mov	r3, r1
	ldm	r0, {r1, r2}
	mov	r0, sp
.LEHB19:
	bl	_ZNSt12system_errorC1ESt10error_codePKc(PLT)
.LEHE19:
	mov	r0, #16
	bl	__cxa_allocate_exception(PLT)
	mov	r1, sp
	mov	r5, sp
	mov	r6, r0
	bl	_ZNSt13runtime_errorC2ERKS_(PLT)
	ldr	r3, .L788
	ldr	r2, .L788+4
.LPIC69:
	add	r3, pc, r3
	add	r1, sp, #16
	ldr	r4, [r3, r2]
	ldmdb	r1, {r0, r1}
	ldr	lr, .L788+8
	ldr	ip, .L788+12
	mov	r2, r6
	add	r4, r4, #8
	str	r4, [r2], #8
	stm	r2, {r0, r1}
	mov	r0, r6
	ldr	r2, [r3, lr]
	ldr	r1, [r3, ip]
.LEHB20:
	bl	__cxa_throw(PLT)
.LEHE20:
.L786:
	mov	r0, r5
	bl	_ZNSt12system_errorD1Ev(PLT)
.LEHB21:
	bl	__cxa_end_cleanup(PLT)
.LEHE21:
.L789:
	.align	2
.L788:
	.word	_GLOBAL_OFFSET_TABLE_-(.LPIC69+8)
	.word	_ZTVSt12system_error(GOT)
	.word	_ZNSt12system_errorD1Ev(GOT)
	.word	_ZTISt12system_error(GOT)
	.personality	__gxx_personality_v0
	.handlerdata
.LLSDA2072:
	.byte	0xff
	.byte	0xff
	.byte	0x1
	.uleb128 .LLSDACSE2072-.LLSDACSB2072
.LLSDACSB2072:
	.uleb128 .LEHB19-.LFB2072
	.uleb128 .LEHE19-.LEHB19
	.uleb128 0
	.uleb128 0
	.uleb128 .LEHB20-.LFB2072
	.uleb128 .LEHE20-.LEHB20
	.uleb128 .L786-.LFB2072
	.uleb128 0
	.uleb128 .LEHB21-.LFB2072
	.uleb128 .LEHE21-.LEHB21
	.uleb128 0
	.uleb128 0
.LLSDACSE2072:
	.section	.text._ZN4asio6detail14do_throw_errorERKSt10error_codePKc,"axG",%progbits,_ZN4asio6detail14do_throw_errorERKSt10error_codePKc,comdat
	.fnend
	.size	_ZN4asio6detail14do_throw_errorERKSt10error_codePKc, .-_ZN4asio6detail14do_throw_errorERKSt10error_codePKc
	.section	.text._ZN4asio6detail20posix_tss_ptr_createERj,"axG",%progbits,_ZN4asio6detail20posix_tss_ptr_createERj,comdat
	.align	2
	.weak	_ZN4asio6detail20posix_tss_ptr_createERj
	.syntax unified
	.arm
	.fpu vfp
	.type	_ZN4asio6detail20posix_tss_ptr_createERj, %function
_ZN4asio6detail20posix_tss_ptr_createERj:
	.fnstart
.LFB2096:
	@ args = 0, pretend = 0, frame = 8
	@ frame_needed = 0, uses_anonymous_args = 0
	push	{r4, r5, r6, lr}
	.save {r4, r5, r6, lr}
	mov	r1, #0
	.pad #8
	sub	sp, sp, #8
	bl	pthread_key_create(PLT)
	ldr	r4, .L802
	ldr	r3, .L802+4
.LPIC70:
	add	r4, pc, r4
	ldr	r6, [r4, r3]
	ldrb	r3, [r6]	@ zero_extendqisi2
	mcr	p15, 0, r0, c7, c10, 5
	tst	r3, #1
	mov	r5, r0
	beq	.L800
.L799:
	ldr	r3, .L802+8
	ldr	r4, [r4, r3]
.L792:
	cmp	r5, #0
	str	r5, [sp]
	str	r4, [sp, #4]
	bne	.L801
	add	sp, sp, #8
	@ sp needed
	pop	{r4, r5, r6, pc}
.L800:
	mov	r0, r6
	bl	__cxa_guard_acquire(PLT)
	cmp	r0, #0
	beq	.L799
	mov	r0, r6
	bl	__cxa_guard_release(PLT)
	ldr	r3, .L802+8
	ldr	r1, .L802+12
	ldr	r2, .L802+16
	ldr	r1, [r4, r1]
	ldr	r4, [r4, r3]
.LPIC71:
	add	r2, pc, r2
	mov	r0, r4
	bl	__aeabi_atexit(PLT)
	b	.L792
.L801:
	ldr	r1, .L802+20
	mov	r0, sp
.LPIC72:
	add	r1, pc, r1
	bl	_ZN4asio6detail14do_throw_errorERKSt10error_codePKc(PLT)
.L803:
	.align	2
.L802:
	.word	_GLOBAL_OFFSET_TABLE_-(.LPIC70+8)
	.word	_ZGVZN4asio15system_categoryEvE8instance(GOT)
	.word	_ZZN4asio15system_categoryEvE8instance(GOT)
	.word	_ZN4asio6detail15system_categoryD1Ev(GOT)
	.word	__dso_handle-(.LPIC71+8)
	.word	.LC22-(.LPIC72+8)
	.fnend
	.size	_ZN4asio6detail20posix_tss_ptr_createERj, .-_ZN4asio6detail20posix_tss_ptr_createERj
	.section	.text._ZN4asio28asio_handler_is_continuationEz,"axG",%progbits,_ZN4asio28asio_handler_is_continuationEz,comdat
	.align	2
	.weak	_ZN4asio28asio_handler_is_continuationEz
	.syntax unified
	.arm
	.fpu vfp
	.type	_ZN4asio28asio_handler_is_continuationEz, %function
_ZN4asio28asio_handler_is_continuationEz:
	.fnstart
.LFB2128:
	@ args = 0, pretend = 0, frame = 0
	@ frame_needed = 0, uses_anonymous_args = 0
	@ link register save eliminated.
	mov	r0, #0
	bx	lr
	.cantunwind
	.fnend
	.size	_ZN4asio28asio_handler_is_continuationEz, .-_ZN4asio28asio_handler_is_continuationEz
	.text
	.align	2
	.global	_ZN7asiopal8Executor4PostERKSt8functionIFvvEE
	.syntax unified
	.arm
	.fpu vfp
	.type	_ZN7asiopal8Executor4PostERKSt8functionIFvvEE, %function
_ZN7asiopal8Executor4PostERKSt8functionIFvvEE:
	.fnstart
.LFB6780:
	@ args = 0, pretend = 0, frame = 96
	@ frame_needed = 0, uses_anonymous_args = 0
	ldr	r3, [r1, #8]
	push	{r4, r5, r6, r7, r8, r9, r10, fp, lr}
	.save {r4, r5, r6, r7, r8, r9, r10, fp, lr}
	mov	r2, #0
	.pad #100
	sub	sp, sp, #100
	ldr	r4, .L962
	cmp	r3, r2
	str	r2, [sp, #52]
	mov	r5, r0
.LPIC73:
	add	r4, pc, r4
	beq	.L806
	add	r8, sp, #44
	mov	r0, r8
	mov	r2, #2
	mov	r6, r1
.LEHB22:
	blx	r3
.LEHE22:
	ldr	r2, [r6, #12]
	ldr	r3, [r6, #8]
	str	r2, [sp, #56]
	str	r3, [sp, #52]
.L806:
	ldr	r6, [r5, #8]
	cmp	r6, #0
	str	r6, [sp, #64]
	beq	.L955
	ldr	r3, .L962+4
	add	r0, r6, #4
	str	r0, [sp, #68]
	ldr	r7, [r4, r3]
	cmp	r7, #0
	beq	.L811
	bl	_ZL26__gthrw_pthread_mutex_lockP15pthread_mutex_t(PLT)
	cmp	r0, #0
	bne	.L956
	add	r3, r6, #28
	mcr	p15, 0, r0, c7, c10, 5
.L938:
	ldrex	r2, [r3]
	add	r1, r2, #1
	strex	r0, r1, [r3]
	cmp	r0, #0
	bne	.L938
	cmp	r2, #0
	mcr	p15, 0, r0, c7, c10, 5
	beq	.L867
	ldr	r0, [sp, #68]
	bl	_ZL28__gthrw_pthread_mutex_unlockP15pthread_mutex_t(PLT)
	cmp	r0, #0
	bne	.L957
.L868:
	ldr	r3, [sp, #52]
	ldr	r2, [r5, #4]
	cmp	r3, #0
	mov	r1, #0
	str	r2, [sp, #60]
	str	r1, [sp, #76]
	addeq	r6, sp, #68
	beq	.L814
	add	r8, sp, #44
	add	r6, sp, #68
	mov	r1, r8
	mov	r0, r6
	mov	r2, #2
.LEHB23:
	blx	r3
.LEHE23:
	ldr	r2, [sp, #60]
	ldr	r1, [sp, #56]
	ldr	r3, [sp, #52]
	str	r1, [sp, #80]
	str	r3, [sp, #76]
.L814:
	ldr	r3, [sp, #64]
	str	r2, [sp, #84]
	cmp	r3, #0
	str	r3, [sp, #88]
	beq	.L820
	cmp	r7, #0
	beq	.L824
	add	r3, r3, #28
	mcr	p15, 0, r0, c7, c10, 5
.L942:
	ldrex	r2, [r3]
	add	r2, r2, #1
	strex	r1, r2, [r3]
	cmp	r1, #0
	bne	.L942
	mcr	p15, 0, r0, c7, c10, 5
.L820:
	mov	r0, r6
	bl	_ZN4asio28asio_handler_is_continuationEz(PLT)
	ldr	r3, .L962+8
	add	r8, sp, #12
	mov	r10, #0
	str	r6, [sp, #12]
	str	r10, [r8, #4]
	str	r10, [r8, #8]
	ldr	r3, [r4, r3]
	ldr	fp, [r5, #20]
	str	r3, [sp, #4]
	mov	r9, r0
	ldr	r0, [r3]
	bl	pthread_getspecific(PLT)
	cmp	r0, #0
	beq	.L825
	ldr	r3, [r0, #4]
	cmp	r3, r10
	beq	.L825
	ldr	r4, [r3]
	cmp	r4, r10
	beq	.L825
	str	r10, [r3]
	ldrb	r3, [r4]	@ zero_extendqisi2
	cmp	r3, #35
	bls	.L958
.L944:
	mov	r1, #0
	strb	r3, [r4, #36]
	str	r1, [r4, #20]
	ldr	r2, .L962+12
	ldr	r3, [sp, #76]
.LPIC74:
	add	r2, pc, r2
	cmp	r3, r1
	str	r4, [sp, #16]
	str	r1, [r4, #8]
	stm	r4, {r1, r2}
	beq	.L828
	add	r10, r4, #12
	mov	r0, r10
	mov	r2, #2
	mov	r1, r6
.LEHB24:
	blx	r3
.LEHE24:
	ldr	r2, [sp, #80]
	ldr	r3, [sp, #76]
	str	r2, [r4, #24]
	str	r3, [r4, #20]
.L828:
	ldr	r2, [sp, #84]
	ldr	r3, [sp, #88]
	ldr	r0, [r5, #24]
	mov	r8, #0
	str	r2, [r4, #28]
	add	r0, r0, #12
	str	r8, [sp, #88]
	str	r3, [r4, #32]
	str	r4, [sp, #20]
	str	r8, [sp, #84]
	bl	pthread_mutex_lock(PLT)
	ldr	r0, [r5, #24]
	ldrb	r10, [r0, #36]	@ zero_extendqisi2
	cmp	r10, r8
	beq	.L959
	ldr	r3, [r0, #44]
	str	r8, [r4]
	cmp	r3, #0
	strne	r4, [r3]
	streq	r4, [r0, #44]
	strne	r4, [r0, #44]
	streq	r4, [r0, #40]
	add	r0, r0, #12
	bl	pthread_mutex_unlock(PLT)
.L836:
	ldr	r4, [sp, #88]
	cmp	r4, #0
	beq	.L852
	cmp	r7, #0
	beq	.L853
	add	r3, r4, #28
	mcr	p15, 0, r0, c7, c10, 5
.L940:
	ldrex	r2, [r3]
	sub	r1, r2, #1
	strex	r0, r1, [r3]
	cmp	r0, #0
	bne	.L940
	cmp	r2, #1
	mcr	p15, 0, r0, c7, c10, 5
	beq	.L960
.L852:
	ldr	r3, [sp, #76]
	cmp	r3, #0
	beq	.L857
	mov	r2, #3
	mov	r1, r6
	mov	r0, r6
	blx	r3
.L857:
	ldr	r4, [sp, #64]
	cmp	r4, #0
	beq	.L859
	cmp	r7, #0
	beq	.L860
	add	r3, r4, #28
	mcr	p15, 0, r0, c7, c10, 5
.L939:
	ldrex	r2, [r3]
	sub	r1, r2, #1
	strex	r0, r1, [r3]
	cmp	r0, #0
	bne	.L939
	cmp	r2, #1
	mcr	p15, 0, r0, c7, c10, 5
	beq	.L961
.L859:
	ldr	r3, [sp, #52]
	cmp	r3, #0
	beq	.L805
	add	r1, sp, #44
	mov	r0, r1
	mov	r2, #3
	blx	r3
.L805:
	add	sp, sp, #100
	@ sp needed
	pop	{r4, r5, r6, r7, r8, r9, r10, fp, pc}
.L958:
	mov	r0, r4
	bl	_ZdlPv(PLT)
.L825:
	mov	r0, #37
.LEHB25:
	bl	_Znwj(PLT)
.LEHE25:
	mov	r4, r0
	mov	r3, #36
	b	.L944
.L824:
	ldr	r2, [r3, #28]
	add	r2, r2, #1
	str	r2, [r3, #28]
	b	.L820
.L811:
	ldr	r3, [r6, #28]
	cmp	r3, #0
	add	r3, r3, #1
	str	r3, [r6, #28]
	bne	.L868
.L867:
	mov	r3, #0
	str	r3, [r6, #28]
.LEHB26:
	bl	_ZSt20__throw_bad_weak_ptrv(PLT)
.LEHE26:
.L959:
	mov	r3, #1
	strb	r3, [r0, #36]
	add	r0, r0, #12
	bl	pthread_mutex_unlock(PLT)
	ldr	r5, [r5, #24]
	str	r10, [r4]
	ldr	r3, [r5, #52]
	cmp	r3, #0
	strne	r4, [r3]
	streq	r4, [r5, #52]
	strne	r4, [r5, #52]
	streq	r4, [r5, #48]
	ldr	r4, [fp, #20]
	ldrb	r3, [r4, #20]	@ zero_extendqisi2
	orr	r9, r9, r3
	tst	r9, #255
	beq	.L839
	ldr	r3, [sp, #4]
	ldr	r0, [r3]
	bl	pthread_getspecific(PLT)
	cmp	r0, #0
	beq	.L839
	ldr	r3, [r0]
	cmp	r3, r4
	bne	.L842
	b	.L840
.L933:
	ldr	r3, [r0]
	cmp	r4, r3
	beq	.L840
.L842:
	ldr	r0, [r0, #8]
	cmp	r0, #0
	bne	.L933
.L839:
	add	r3, r4, #124
	mcr	p15, 0, r0, c7, c10, 5
.L941:
	ldrex	r2, [r3]
	add	r2, r2, #1
	strex	r1, r2, [r3]
	cmp	r1, #0
	bne	.L941
	add	r8, r4, #24
	mcr	p15, 0, r0, c7, c10, 5
	mov	r0, r8
	bl	pthread_mutex_lock(PLT)
	ldr	r3, [r4, #132]
	mov	r2, #0
	cmp	r3, r2
	str	r2, [r5]
	strne	r5, [r3]
	ldr	r3, [r4, #96]
	strne	r5, [r4, #132]
	orr	r3, r3, #1
	streq	r5, [r4, #132]
	streq	r5, [r4, #128]
	cmp	r3, #1
	add	r5, r4, #48
	str	r3, [r4, #96]
	beq	.L848
	mov	r0, r8
	bl	pthread_mutex_unlock(PLT)
	mov	r0, r5
	bl	pthread_cond_signal(PLT)
	b	.L836
.L860:
	ldr	r3, [r4, #28]
	cmp	r3, #1
	sub	r3, r3, #1
	str	r3, [r4, #28]
	bne	.L859
	ldr	r3, [r4]
	mov	r0, r4
	ldr	r3, [r3, #8]
	blx	r3
	mcr	p15, 0, r0, c7, c10, 5
	ldr	r2, [r4, #32]
	sub	r3, r2, #1
	str	r3, [r4, #32]
	b	.L871
.L853:
	ldr	r3, [r4, #28]
	cmp	r3, #1
	sub	r3, r3, #1
	str	r3, [r4, #28]
	bne	.L852
	ldr	r3, [r4]
	mov	r0, r4
	ldr	r3, [r3, #8]
	blx	r3
	mcr	p15, 0, r0, c7, c10, 5
	ldr	r2, [r4, #32]
	sub	r3, r2, #1
	str	r3, [r4, #32]
	b	.L870
.L848:
	ldrb	r2, [r4, #120]	@ zero_extendqisi2
	cmp	r2, #0
	bne	.L850
	ldr	r0, [r4, #104]
	cmp	r0, #0
	beq	.L850
	add	r1, sp, #24
	add	ip, r0, #48
	strb	r3, [r4, #120]
	mov	lr, #-2147483639
	mov	r3, r1
	str	r2, [sp, #28]
	str	r2, [sp, #36]
	mov	r1, #3
	ldr	r2, [r0, #48]
	ldr	r0, [r0, #56]
	str	lr, [sp, #24]
	str	ip, [sp, #32]
	bl	epoll_ctl(PLT)
.L850:
	mov	r0, r8
	bl	pthread_mutex_unlock(PLT)
	b	.L836
.L840:
	ldr	r3, [r0, #4]
	cmp	r3, #0
	beq	.L839
	ldr	r1, [r3, #8]
	ldr	r2, [r3, #12]
	cmp	r1, #0
	add	r2, r2, #1
	mov	r0, #0
	str	r2, [r3, #12]
	str	r0, [r5]
	strne	r5, [r1]
	streq	r5, [r3, #8]
	strne	r5, [r3, #8]
	streq	r5, [r3, #4]
	b	.L836
.L874:
	add	r0, sp, #68
	bl	_ZN9__gnu_cxx13__scoped_lockD1Ev(PLT)
.L818:
	ldr	r3, [sp, #52]
	cmp	r3, #0
	beq	.L946
	add	r1, sp, #44
	mov	r0, r1
	mov	r2, #3
	blx	r3
.L946:
.LEHB27:
	bl	__cxa_end_cleanup(PLT)
.LEHE27:
.L960:
	ldr	r3, [r4]
	mov	r0, r4
	ldr	r3, [r3, #8]
	blx	r3
	add	r3, r4, #32
	mcr	p15, 0, r0, c7, c10, 5
	mcr	p15, 0, r0, c7, c10, 5
.L937:
	ldrex	r2, [r3]
	sub	r1, r2, #1
	strex	r0, r1, [r3]
	cmp	r0, #0
	bne	.L937
	mcr	p15, 0, r0, c7, c10, 5
.L870:
	cmp	r2, #1
	bne	.L852
	ldr	r3, [r4]
	mov	r0, r4
	ldr	r3, [r3, #12]
	blx	r3
	b	.L852
.L961:
	ldr	r3, [r4]
	mov	r0, r4
	ldr	r3, [r3, #8]
	blx	r3
	add	r3, r4, #32
	mcr	p15, 0, r0, c7, c10, 5
	mcr	p15, 0, r0, c7, c10, 5
.L936:
	ldrex	r2, [r3]
	sub	r1, r2, #1
	strex	r0, r1, [r3]
	cmp	r0, #0
	bne	.L936
	mcr	p15, 0, r0, c7, c10, 5
.L871:
	cmp	r2, #1
	bne	.L859
	ldr	r3, [r4]
	mov	r0, r4
	ldr	r3, [r3, #12]
	blx	r3
	b	.L859
.L955:
.LEHB28:
	bl	_ZSt20__throw_bad_weak_ptrv(PLT)
.L872:
	b	.L818
.L956:
	mov	r0, #4
	bl	__cxa_allocate_exception(PLT)
	ldr	r1, .L962+16
	ldr	r2, .L962+20
	ldr	r3, .L962+24
	ldr	r1, [r4, r1]
	add	r1, r1, #8
	str	r1, [r0]
	ldr	r2, [r4, r2]
	ldr	r1, [r4, r3]
	bl	__cxa_throw(PLT)
.LEHE28:
.L957:
	mov	r0, #4
	bl	__cxa_allocate_exception(PLT)
	ldr	r1, .L962+28
	ldr	r2, .L962+32
	ldr	r3, .L962+36
	ldr	r1, [r4, r1]
	add	r1, r1, #8
	str	r1, [r0]
	ldr	r2, [r4, r2]
	ldr	r1, [r4, r3]
.LEHB29:
	bl	__cxa_throw(PLT)
.LEHE29:
.L875:
	cmn	r1, #1
	bne	.L946
.LEHB30:
	bl	__cxa_call_unexpected(PLT)
.LEHE30:
.L877:
	ldr	r3, [sp, #76]
	cmp	r3, #0
	beq	.L823
	mov	r2, #3
	mov	r1, r6
	mov	r0, r6
	blx	r3
.L823:
	mov	r0, r8
	bl	_ZZN7asiopal8Executor4PostERKSt8functionIFvvEEENUlvE_D1Ev(PLT)
	b	.L946
.L876:
.L833:
	mov	r0, r6
	bl	_ZZN7asiopal8Executor4PostERKSt8functionIFvvEEENUlvE_D1Ev(PLT)
	add	r8, sp, #44
	b	.L823
.L878:
	ldr	r3, [r4, #20]
	cmp	r3, #0
	beq	.L832
	mov	r2, #3
	mov	r1, r10
	mov	r0, r10
	blx	r3
.L832:
	mov	r0, r8
	bl	_ZN4asio6detail18completion_handlerIZN7asiopal8Executor4PostERKSt8functionIFvvEEEUlvE_E3ptr5resetEv(PLT)
	b	.L833
.L873:
	ldr	r3, [sp, #52]
	cmp	r3, #0
	beq	.L946
	mov	r2, #3
	mov	r1, r8
	mov	r0, r8
	blx	r3
	b	.L946
.L963:
	.align	2
.L962:
	.word	_GLOBAL_OFFSET_TABLE_-(.LPIC73+8)
	.word	_ZL28__gthrw___pthread_key_createPjPFvPvE(GOT)
	.word	_ZN4asio6detail10call_stackINS0_15task_io_serviceENS0_27task_io_service_thread_infoEE4top_E(GOT)
	.word	_ZN4asio6detail18completion_handlerIZN7asiopal8Executor4PostERKSt8functionIFvvEEEUlvE_E11do_completeEPNS0_15task_io_serviceEPNS0_25task_io_service_operationERKSt10error_codej-(.LPIC74+8)
	.word	_ZTVN9__gnu_cxx24__concurrence_lock_errorE(GOT)
	.word	_ZN9__gnu_cxx24__concurrence_lock_errorD1Ev(GOT)
	.word	_ZTIN9__gnu_cxx24__concurrence_lock_errorE(GOT)
	.word	_ZTVN9__gnu_cxx26__concurrence_unlock_errorE(GOT)
	.word	_ZN9__gnu_cxx26__concurrence_unlock_errorD1Ev(GOT)
	.word	_ZTIN9__gnu_cxx26__concurrence_unlock_errorE(GOT)
	.personality	__gxx_personality_v0
	.handlerdata
	.align	2
.LLSDA6780:
	.byte	0xff
	.byte	0x90
	.uleb128 .LLSDATT6780-.LLSDATTD6780
.LLSDATTD6780:
	.byte	0x1
	.uleb128 .LLSDACSE6780-.LLSDACSB6780
.LLSDACSB6780:
	.uleb128 .LEHB22-.LFB6780
	.uleb128 .LEHE22-.LEHB22
	.uleb128 .L873-.LFB6780
	.uleb128 0
	.uleb128 .LEHB23-.LFB6780
	.uleb128 .LEHE23-.LEHB23
	.uleb128 .L877-.LFB6780
	.uleb128 0
	.uleb128 .LEHB24-.LFB6780
	.uleb128 .LEHE24-.LEHB24
	.uleb128 .L878-.LFB6780
	.uleb128 0
	.uleb128 .LEHB25-.LFB6780
	.uleb128 .LEHE25-.LEHB25
	.uleb128 .L876-.LFB6780
	.uleb128 0
	.uleb128 .LEHB26-.LFB6780
	.uleb128 .LEHE26-.LEHB26
	.uleb128 .L874-.LFB6780
	.uleb128 0
	.uleb128 .LEHB27-.LFB6780
	.uleb128 .LEHE27-.LEHB27
	.uleb128 0
	.uleb128 0
	.uleb128 .LEHB28-.LFB6780
	.uleb128 .LEHE28-.LEHB28
	.uleb128 .L872-.LFB6780
	.uleb128 0
	.uleb128 .LEHB29-.LFB6780
	.uleb128 .LEHE29-.LEHB29
	.uleb128 .L875-.LFB6780
	.uleb128 0x1
	.uleb128 .LEHB30-.LFB6780
	.uleb128 .LEHE30-.LEHB30
	.uleb128 0
	.uleb128 0
.LLSDACSE6780:
	.byte	0x7f
	.byte	0
	.align	2
.LLSDATT6780:
	.word	0
	.text
	.fnend
	.size	_ZN7asiopal8Executor4PostERKSt8functionIFvvEE, .-_ZN7asiopal8Executor4PostERKSt8functionIFvvEE
	.section	.text._ZN4asio6detail14strand_service16on_dispatch_exitD2Ev,"axG",%progbits,_ZN4asio6detail14strand_service16on_dispatch_exitD5Ev,comdat
	.align	2
	.weak	_ZN4asio6detail14strand_service16on_dispatch_exitD2Ev
	.syntax unified
	.arm
	.fpu vfp
	.type	_ZN4asio6detail14strand_service16on_dispatch_exitD2Ev, %function
_ZN4asio6detail14strand_service16on_dispatch_exitD2Ev:
	.fnstart
.LFB6158:
	@ args = 0, pretend = 0, frame = 16
	@ frame_needed = 0, uses_anonymous_args = 0
	push	{r4, r5, r6, r7, lr}
	mov	r5, r0
	ldr	r0, [r0, #4]
	sub	sp, sp, #20
	add	r0, r0, #12
	bl	pthread_mutex_lock(PLT)
	ldr	r0, [r5, #4]
	ldr	r6, .L1008
	ldr	r4, [r0, #40]
.LPIC75:
	add	r6, pc, r6
	cmp	r4, #0
	ldreq	r4, [r0, #48]
	beq	.L966
	ldr	r3, [r0, #52]
	cmp	r3, #0
	strne	r4, [r3]
	ldrne	r4, [r0, #48]
	ldr	r2, [r0, #44]
	mov	r3, #0
	streq	r4, [r0, #48]
	str	r2, [r0, #52]
	str	r3, [r0, #40]
	str	r3, [r0, #44]
.L966:
	adds	r3, r4, #0
	movne	r3, #1
	strb	r3, [r0, #36]
	add	r0, r0, #12
	bl	pthread_mutex_unlock(PLT)
	cmp	r4, #0
	bne	.L1006
.L988:
	mov	r0, r5
	add	sp, sp, #20
	@ sp needed
	pop	{r4, r5, r6, r7, pc}
.L1006:
	ldm	r5, {r4, r7}
	ldrb	r3, [r4, #20]	@ zero_extendqisi2
	cmp	r3, #0
	bne	.L1007
.L970:
	add	r3, r4, #124
	mcr	p15, 0, r0, c7, c10, 5
.L1002:
	ldrex	r2, [r3]
	add	r2, r2, #1
	strex	r1, r2, [r3]
	cmp	r1, #0
	bne	.L1002
	add	r6, r4, #24
	mcr	p15, 0, r0, c7, c10, 5
	mov	r0, r6
	bl	pthread_mutex_lock(PLT)
	ldr	r3, [r4, #132]
	mov	r2, #0
	cmp	r3, r2
	str	r2, [r7]
	strne	r7, [r3]
	ldr	r3, [r4, #96]
	strne	r7, [r4, #132]
	orr	r3, r3, #1
	streq	r7, [r4, #132]
	streq	r7, [r4, #128]
	cmp	r3, #1
	add	r7, r4, #48
	str	r3, [r4, #96]
	beq	.L979
	mov	r0, r6
	bl	pthread_mutex_unlock(PLT)
	mov	r0, r7
	bl	pthread_cond_signal(PLT)
	mov	r0, r5
	add	sp, sp, #20
	@ sp needed
	pop	{r4, r5, r6, r7, pc}
.L979:
	ldrb	r2, [r4, #120]	@ zero_extendqisi2
	cmp	r2, #0
	bne	.L981
	ldr	r0, [r4, #104]
	cmp	r0, #0
	beq	.L981
	add	ip, r0, #48
	strb	r3, [r4, #120]
	mov	lr, #-2147483639
	str	r2, [sp, #4]
	str	r2, [sp, #12]
	mov	r3, sp
	ldr	r2, [r0, #48]
	mov	r1, #3
	ldr	r0, [r0, #56]
	str	lr, [sp]
	str	ip, [sp, #8]
	bl	epoll_ctl(PLT)
.L981:
	mov	r0, r6
	bl	pthread_mutex_unlock(PLT)
	mov	r0, r5
	add	sp, sp, #20
	@ sp needed
	pop	{r4, r5, r6, r7, pc}
.L1007:
	ldr	r3, .L1008+4
	ldr	r3, [r6, r3]
	ldr	r0, [r3]
	bl	pthread_getspecific(PLT)
	cmp	r0, #0
	bne	.L1000
	b	.L970
.L973:
	ldr	r0, [r0, #8]
	cmp	r0, #0
	beq	.L970
.L1000:
	ldr	r3, [r0]
	cmp	r4, r3
	bne	.L973
	ldr	r3, [r0, #4]
	cmp	r3, #0
	beq	.L970
	ldr	r1, [r3, #8]
	ldr	r2, [r3, #12]
	cmp	r1, #0
	add	r2, r2, #1
	mov	r0, #0
	str	r2, [r3, #12]
	str	r0, [r7]
	strne	r7, [r1]
	streq	r7, [r3, #8]
	strne	r7, [r3, #8]
	streq	r7, [r3, #4]
	b	.L988
.L1009:
	.align	2
.L1008:
	.word	_GLOBAL_OFFSET_TABLE_-(.LPIC75+8)
	.word	_ZN4asio6detail10call_stackINS0_15task_io_serviceENS0_27task_io_service_thread_infoEE4top_E(GOT)
	.cantunwind
	.fnend
	.size	_ZN4asio6detail14strand_service16on_dispatch_exitD2Ev, .-_ZN4asio6detail14strand_service16on_dispatch_exitD2Ev
	.weak	_ZN4asio6detail14strand_service16on_dispatch_exitD1Ev
	.set	_ZN4asio6detail14strand_service16on_dispatch_exitD1Ev,_ZN4asio6detail14strand_service16on_dispatch_exitD2Ev
	.section	.text._ZN4asio6detail14strand_service19on_do_complete_exitD2Ev,"axG",%progbits,_ZN4asio6detail14strand_service19on_do_complete_exitD5Ev,comdat
	.align	2
	.weak	_ZN4asio6detail14strand_service19on_do_complete_exitD2Ev
	.syntax unified
	.arm
	.fpu vfp
	.type	_ZN4asio6detail14strand_service19on_do_complete_exitD2Ev, %function
_ZN4asio6detail14strand_service19on_do_complete_exitD2Ev:
	.fnstart
.LFB6163:
	@ args = 0, pretend = 0, frame = 16
	@ frame_needed = 0, uses_anonymous_args = 0
	push	{r4, r5, r6, r7, lr}
	mov	r5, r0
	ldr	r0, [r0, #4]
	sub	sp, sp, #20
	add	r0, r0, #12
	bl	pthread_mutex_lock(PLT)
	ldr	r0, [r5, #4]
	ldr	r6, .L1050
	ldr	r4, [r0, #40]
.LPIC76:
	add	r6, pc, r6
	cmp	r4, #0
	ldreq	r4, [r0, #48]
	beq	.L1012
	ldr	r3, [r0, #52]
	cmp	r3, #0
	strne	r4, [r3]
	ldrne	r4, [r0, #48]
	ldr	r2, [r0, #44]
	mov	r3, #0
	streq	r4, [r0, #48]
	str	r2, [r0, #52]
	str	r3, [r0, #40]
	str	r3, [r0, #44]
.L1012:
	adds	r3, r4, #0
	movne	r3, #1
	strb	r3, [r0, #36]
	add	r0, r0, #12
	bl	pthread_mutex_unlock(PLT)
	cmp	r4, #0
	bne	.L1049
.L1033:
	mov	r0, r5
	add	sp, sp, #20
	@ sp needed
	pop	{r4, r5, r6, r7, pc}
.L1049:
	ldr	r3, .L1050+4
	ldm	r5, {r4, r7}
	ldr	r3, [r6, r3]
	ldr	r0, [r3]
	bl	pthread_getspecific(PLT)
	cmp	r0, #0
	bne	.L1043
	b	.L1016
.L1019:
	ldr	r0, [r0, #8]
	cmp	r0, #0
	beq	.L1016
.L1043:
	ldr	r3, [r0]
	cmp	r4, r3
	bne	.L1019
	ldr	r3, [r0, #4]
	cmp	r3, #0
	beq	.L1016
	ldr	r1, [r3, #8]
	ldr	r2, [r3, #12]
	cmp	r1, #0
	add	r2, r2, #1
	mov	r0, #0
	str	r2, [r3, #12]
	str	r0, [r7]
	strne	r7, [r1]
	mov	r0, r5
	strne	r7, [r3, #8]
	streq	r7, [r3, #8]
	streq	r7, [r3, #4]
	add	sp, sp, #20
	@ sp needed
	pop	{r4, r5, r6, r7, pc}
.L1016:
	add	r3, r4, #124
	mcr	p15, 0, r0, c7, c10, 5
.L1045:
	ldrex	r2, [r3]
	add	r2, r2, #1
	strex	r1, r2, [r3]
	cmp	r1, #0
	bne	.L1045
	add	r6, r4, #24
	mcr	p15, 0, r0, c7, c10, 5
	mov	r0, r6
	bl	pthread_mutex_lock(PLT)
	ldr	r3, [r4, #132]
	mov	r2, #0
	cmp	r3, r2
	str	r2, [r7]
	strne	r7, [r3]
	ldr	r3, [r4, #96]
	strne	r7, [r4, #132]
	orr	r3, r3, #1
	streq	r7, [r4, #132]
	streq	r7, [r4, #128]
	cmp	r3, #1
	add	r7, r4, #48
	str	r3, [r4, #96]
	beq	.L1025
	mov	r0, r6
	bl	pthread_mutex_unlock(PLT)
	mov	r0, r7
	bl	pthread_cond_signal(PLT)
	b	.L1033
.L1025:
	ldrb	r2, [r4, #120]	@ zero_extendqisi2
	cmp	r2, #0
	bne	.L1027
	ldr	r1, [r4, #104]
	cmp	r1, #0
	beq	.L1027
	add	ip, r1, #48
	strb	r3, [r4, #120]
	mov	lr, #-2147483639
	str	r2, [sp, #4]
	str	r2, [sp, #12]
	ldr	r0, [r1, #56]
	ldr	r2, [r1, #48]
	mov	r3, sp
	mov	r1, #3
	str	lr, [sp]
	str	ip, [sp, #8]
	bl	epoll_ctl(PLT)
.L1027:
	mov	r0, r6
	bl	pthread_mutex_unlock(PLT)
	b	.L1033
.L1051:
	.align	2
.L1050:
	.word	_GLOBAL_OFFSET_TABLE_-(.LPIC76+8)
	.word	_ZN4asio6detail10call_stackINS0_15task_io_serviceENS0_27task_io_service_thread_infoEE4top_E(GOT)
	.cantunwind
	.fnend
	.size	_ZN4asio6detail14strand_service19on_do_complete_exitD2Ev, .-_ZN4asio6detail14strand_service19on_do_complete_exitD2Ev
	.weak	_ZN4asio6detail14strand_service19on_do_complete_exitD1Ev
	.set	_ZN4asio6detail14strand_service19on_do_complete_exitD1Ev,_ZN4asio6detail14strand_service19on_do_complete_exitD2Ev
	.section	.text._ZN4asio6detail14strand_service11do_completeEPNS0_15task_io_serviceEPNS0_25task_io_service_operationERKSt10error_codej,"axG",%progbits,_ZN4asio6detail14strand_service11do_completeEPNS0_15task_io_serviceEPNS0_25task_io_service_operationERKSt10error_codej,comdat
	.align	2
	.weak	_ZN4asio6detail14strand_service11do_completeEPNS0_15task_io_serviceEPNS0_25task_io_service_operationERKSt10error_codej
	.syntax unified
	.arm
	.fpu vfp
	.type	_ZN4asio6detail14strand_service11do_completeEPNS0_15task_io_serviceEPNS0_25task_io_service_operationERKSt10error_codej, %function
_ZN4asio6detail14strand_service11do_completeEPNS0_15task_io_serviceEPNS0_25task_io_service_operationERKSt10error_codej:
	.fnstart
.LFB6177:
	@ args = 0, pretend = 0, frame = 40
	@ frame_needed = 0, uses_anonymous_args = 0
	push	{r4, r5, r6, r7, r8, r9, r10, lr}
	.save {r4, r5, r6, r7, r8, r9, r10, lr}
	subs	r5, r0, #0
	ldr	r9, .L1101
	.pad #40
	sub	sp, sp, #40
.LPIC77:
	add	r9, pc, r9
	beq	.L1052
	ldr	r3, .L1101+4
	str	r1, [sp, #12]
	mov	r4, r1
	ldr	r8, [r9, r3]
	mov	r6, r2
	mov	r7, #0
	ldr	r0, [r8]
	bl	pthread_getspecific(PLT)
	add	r1, sp, #12
	str	r1, [sp, #16]
	str	r0, [sp, #20]
	ldr	r0, [r8]
	bl	pthread_setspecific(PLT)
	str	r5, [sp, #4]
	str	r4, [sp, #8]
	b	.L1056
.L1099:
	ldr	r3, [r1]
	ldr	r10, [r1, #4]
	cmp	r3, #0
	str	r3, [r4, #48]
	streq	r3, [r4, #52]
	mov	r2, r6
	str	r7, [r1]
	mov	r3, #0
	mov	r0, r5
.LEHB31:
	blx	r10
.LEHE31:
.L1056:
	ldr	r1, [r4, #48]
	cmp	r1, #0
	bne	.L1099
	ldr	r0, [sp, #8]
	add	r0, r0, #12
	bl	pthread_mutex_lock(PLT)
	ldr	r0, [sp, #8]
	ldr	r4, [r0, #40]
	cmp	r4, #0
	ldreq	r4, [r0, #48]
	beq	.L1058
	ldr	r3, [r0, #52]
	cmp	r3, #0
	strne	r4, [r3]
	ldrne	r4, [r0, #48]
	ldr	r2, [r0, #44]
	mov	r3, #0
	streq	r4, [r0, #48]
	str	r2, [r0, #52]
	str	r3, [r0, #40]
	str	r3, [r0, #44]
.L1058:
	adds	r3, r4, #0
	movne	r3, #1
	strb	r3, [r0, #36]
	add	r0, r0, #12
	bl	pthread_mutex_unlock(PLT)
	cmp	r4, #0
	bne	.L1100
.L1061:
	ldr	r0, [r8]
	ldr	r1, [sp, #20]
	bl	pthread_setspecific(PLT)
.L1052:
	add	sp, sp, #40
	@ sp needed
	pop	{r4, r5, r6, r7, r8, r9, r10, pc}
.L1100:
	ldr	r3, .L1101+8
	ldmib	sp, {r4, r5}
	ldr	r3, [r9, r3]
	ldr	r0, [r3]
	bl	pthread_getspecific(PLT)
	cmp	r0, #0
	bne	.L1093
	b	.L1062
.L1065:
	ldr	r0, [r0, #8]
	cmp	r0, #0
	beq	.L1062
.L1093:
	ldr	r3, [r0]
	cmp	r4, r3
	bne	.L1065
	ldr	r3, [r0, #4]
	cmp	r3, #0
	beq	.L1062
	ldr	r1, [r3, #8]
	ldr	r2, [r3, #12]
	cmp	r1, #0
	add	r2, r2, #1
	mov	r0, #0
	str	r2, [r3, #12]
	str	r0, [r5]
	strne	r5, [r1]
	streq	r5, [r3, #8]
	strne	r5, [r3, #8]
	streq	r5, [r3, #4]
	b	.L1061
.L1062:
	add	r3, r4, #124
	mcr	p15, 0, r0, c7, c10, 5
.L1095:
	ldrex	r2, [r3]
	add	r2, r2, #1
	strex	r1, r2, [r3]
	cmp	r1, #0
	bne	.L1095
	add	r6, r4, #24
	mcr	p15, 0, r0, c7, c10, 5
	mov	r0, r6
	bl	pthread_mutex_lock(PLT)
	ldr	r3, [r4, #132]
	mov	r2, #0
	cmp	r3, r2
	str	r2, [r5]
	strne	r5, [r3]
	ldr	r3, [r4, #96]
	strne	r5, [r4, #132]
	orr	r3, r3, #1
	streq	r5, [r4, #132]
	streq	r5, [r4, #128]
	cmp	r3, #1
	add	r5, r4, #48
	str	r3, [r4, #96]
	beq	.L1071
	mov	r0, r6
	bl	pthread_mutex_unlock(PLT)
	mov	r0, r5
	bl	pthread_cond_signal(PLT)
	b	.L1061
.L1071:
	ldrb	r0, [r4, #120]	@ zero_extendqisi2
	cmp	r0, #0
	bne	.L1073
	ldr	r1, [r4, #104]
	cmp	r1, #0
	beq	.L1073
	add	r2, sp, #24
	add	ip, r1, #48
	strb	r3, [r4, #120]
	mov	lr, #-2147483639
	mov	r3, r2
	str	r0, [sp, #28]
	str	r0, [sp, #36]
	ldr	r2, [r1, #48]
	ldr	r0, [r1, #56]
	mov	r1, #3
	str	lr, [sp, #24]
	str	ip, [sp, #32]
	bl	epoll_ctl(PLT)
.L1073:
	mov	r0, r6
	bl	pthread_mutex_unlock(PLT)
	b	.L1061
.L1076:
	add	r0, sp, #4
	bl	_ZN4asio6detail14strand_service19on_do_complete_exitD1Ev(PLT)
	ldr	r1, [sp, #20]
	ldr	r0, [r8]
	bl	pthread_setspecific(PLT)
.LEHB32:
	bl	__cxa_end_cleanup(PLT)
.LEHE32:
.L1102:
	.align	2
.L1101:
	.word	_GLOBAL_OFFSET_TABLE_-(.LPIC77+8)
	.word	_ZN4asio6detail10call_stackINS0_14strand_service11strand_implEhE4top_E(GOT)
	.word	_ZN4asio6detail10call_stackINS0_15task_io_serviceENS0_27task_io_service_thread_infoEE4top_E(GOT)
	.personality	__gxx_personality_v0
	.handlerdata
.LLSDA6177:
	.byte	0xff
	.byte	0xff
	.byte	0x1
	.uleb128 .LLSDACSE6177-.LLSDACSB6177
.LLSDACSB6177:
	.uleb128 .LEHB31-.LFB6177
	.uleb128 .LEHE31-.LEHB31
	.uleb128 .L1076-.LFB6177
	.uleb128 0
	.uleb128 .LEHB32-.LFB6177
	.uleb128 .LEHE32-.LEHB32
	.uleb128 0
	.uleb128 0
.LLSDACSE6177:
	.section	.text._ZN4asio6detail14strand_service11do_completeEPNS0_15task_io_serviceEPNS0_25task_io_service_operationERKSt10error_codej,"axG",%progbits,_ZN4asio6detail14strand_service11do_completeEPNS0_15task_io_serviceEPNS0_25task_io_service_operationERKSt10error_codej,comdat
	.fnend
	.size	_ZN4asio6detail14strand_service11do_completeEPNS0_15task_io_serviceEPNS0_25task_io_service_operationERKSt10error_codej, .-_ZN4asio6detail14strand_service11do_completeEPNS0_15task_io_serviceEPNS0_25task_io_service_operationERKSt10error_codej
	.section	.text._ZZSt9call_onceIMNSt13__future_base13_State_baseV2EFvPSt8functionIFSt10unique_ptrINS0_12_Result_baseENS4_8_DeleterEEvEEPbEJPS1_S9_SA_EEvRSt9once_flagOT_DpOT0_ENKUlvE0_clEv,"axG",%progbits,_ZZSt9call_onceIMNSt13__future_base13_State_baseV2EFvPSt8functionIFSt10unique_ptrINS0_12_Result_baseENS4_8_DeleterEEvEEPbEJPS1_S9_SA_EEvRSt9once_flagOT_DpOT0_ENKUlvE0_clEv,comdat
	.align	2
	.weak	_ZZSt9call_onceIMNSt13__future_base13_State_baseV2EFvPSt8functionIFSt10unique_ptrINS0_12_Result_baseENS4_8_DeleterEEvEEPbEJPS1_S9_SA_EEvRSt9once_flagOT_DpOT0_ENKUlvE0_clEv
	.syntax unified
	.arm
	.fpu vfp
	.type	_ZZSt9call_onceIMNSt13__future_base13_State_baseV2EFvPSt8functionIFSt10unique_ptrINS0_12_Result_baseENS4_8_DeleterEEvEEPbEJPS1_S9_SA_EEvRSt9once_flagOT_DpOT0_ENKUlvE0_clEv, %function
_ZZSt9call_onceIMNSt13__future_base13_State_baseV2EFvPSt8functionIFSt10unique_ptrINS0_12_Result_baseENS4_8_DeleterEEvEEPbEJPS1_S9_SA_EEvRSt9once_flagOT_DpOT0_ENKUlvE0_clEv:
	.fnstart
.LFB7349:
	@ args = 0, pretend = 0, frame = 0
	@ frame_needed = 0, uses_anonymous_args = 0
	ldr	r0, .L1107
	push	{r4, lr}
.LPIC78:
	add	r0, pc, r0
	bl	__tls_get_addr(PLT)
	ldr	r3, [r0]
	ldr	lr, [r3]
	ldmib	r3, {r1, r2}
	ldr	r3, [r3, #12]
	ldr	ip, [lr, #4]
	ldr	r0, [r1]
	tst	ip, #1
	ldr	r1, [r2]
	ldr	r2, [r3]
	ldr	r3, [lr]
	ldrne	lr, [r0, ip, asr #1]
	addeq	r0, r0, ip, asr #1
	addne	r0, r0, ip, asr #1
	ldrne	r3, [lr, r3]
	pop	{r4, lr}
	bx	r3	@ indirect register sibling call
.L1108:
	.align	2
.L1107:
	.word	_ZSt15__once_callable(tlsgd) + (. - .LPIC78 - 8)
	.cantunwind
	.fnend
	.size	_ZZSt9call_onceIMNSt13__future_base13_State_baseV2EFvPSt8functionIFSt10unique_ptrINS0_12_Result_baseENS4_8_DeleterEEvEEPbEJPS1_S9_SA_EEvRSt9once_flagOT_DpOT0_ENKUlvE0_clEv, .-_ZZSt9call_onceIMNSt13__future_base13_State_baseV2EFvPSt8functionIFSt10unique_ptrINS0_12_Result_baseENS4_8_DeleterEEvEEPbEJPS1_S9_SA_EEvRSt9once_flagOT_DpOT0_ENKUlvE0_clEv
	.section	.text._ZNSt7promiseIbED2Ev,"axG",%progbits,_ZNSt7promiseIbED5Ev,comdat
	.align	2
	.weak	_ZNSt7promiseIbED2Ev
	.syntax unified
	.arm
	.fpu vfp
	.type	_ZNSt7promiseIbED2Ev, %function
_ZNSt7promiseIbED2Ev:
	.fnstart
.LFB7579:
	@ args = 0, pretend = 0, frame = 72
	@ frame_needed = 0, uses_anonymous_args = 0
	push	{r4, r5, r6, r7, r8, r9, r10, fp, lr}
	.save {r4, r5, r6, r7, r8, r9, r10, fp, lr}
	mov	r4, r0
	ldr	r6, [r0]
	ldr	r5, .L1158
	cmp	r6, #0
.LPIC80:
	add	r5, pc, r5
	.pad #84
	sub	sp, sp, #84
	beq	.L1153
	ldr	r7, [r0, #4]
	cmp	r7, #0
	beq	.L1112
	ldr	r3, [r7, #28]
	cmp	r3, #1
	beq	.L1153
.L1112:
	ldr	fp, [r4, #8]
	mov	r8, #0
	cmp	fp, r8
	str	r8, [r4, #8]
	beq	.L1114
	bl	_ZSt15future_categoryv(PLT)
	add	r9, sp, #32
	mov	r2, #4
	ldr	r3, [r0]
	mov	r1, r0
	mov	r7, r0
	ldr	r3, [r3, #16]
	mov	r0, r9
	blx	r3
	mov	r3, #19
	str	r3, [sp]
	ldr	r3, .L1158+4
	mov	r0, r9
.LPIC79:
	add	r3, pc, r3
	mov	r2, r8
	mov	r1, r8
.LEHB33:
	bl	_ZNSt7__cxx1112basic_stringIcSt11char_traitsIcESaIcEE10_M_replaceEjjPKcj(PLT)
.LEHE33:
	mov	lr, r0
	add	r8, sp, #64
	str	r8, [sp, #56]
	ldr	r3, [lr], #8
	mov	ip, r0
	cmp	r3, lr
	strne	r3, [sp, #56]
	ldreq	r0, [lr]	@ unaligned
	ldreq	r1, [lr, #4]	@ unaligned
	ldreq	r2, [lr, #8]	@ unaligned
	ldreq	r3, [lr, #12]	@ unaligned
	ldrne	r3, [ip, #8]
	moveq	r10, r8
	strne	r3, [sp, #64]
	stmiaeq	r10!, {r0, r1, r2, r3}
	mov	r3, #0
	ldr	r2, [ip, #4]
	add	r10, sp, #16
	str	r2, [sp, #60]
	add	r1, sp, #56
	str	lr, [ip]
	str	r3, [ip, #4]
	strb	r3, [ip, #8]
	mov	r0, r10
	str	r1, [sp, #12]
.LEHB34:
	bl	_ZNSt11logic_errorC2ERKNSt7__cxx1112basic_stringIcSt11char_traitsIcESaIcEEE(PLT)
.LEHE34:
	ldr	r0, [sp, #56]
	cmp	r0, r8
	beq	.L1117
	bl	_ZdlPv(PLT)
.L1117:
	ldr	r0, [sp, #32]
	add	r3, sp, #40
	cmp	r0, r3
	beq	.L1118
	bl	_ZdlPv(PLT)
.L1118:
	ldr	r3, .L1158+8
	mov	r2, #4
	mov	r0, #16
	ldr	r3, [r5, r3]
	str	r7, [sp, #28]
	add	r7, r3, #8
	str	r2, [sp, #24]
	str	r7, [sp, #16]
	bl	__cxa_allocate_exception(PLT)
	mov	r1, r10
	mov	r8, r0
	bl	_ZNSt11logic_errorC2ERKS_(PLT)
	add	r2, sp, #24
	ldr	ip, .L1158+12
	ldm	r2, {r0, r1}
	ldr	lr, .L1158+16
	mov	r3, r8
	str	r7, [r3], #8
	stm	r3, {r0, r1}
	mov	r0, r8
	ldr	r2, [r5, ip]
	ldr	r1, [r5, lr]
.LEHB35:
	bl	__cxa_throw(PLT)
.LEHE35:
.L1136:
	bl	__cxa_begin_catch(PLT)
	ldr	r7, [sp, #12]
	mov	r0, r7
	bl	_ZSt17current_exceptionv(PLT)
	bl	__cxa_end_catch(PLT)
	ldr	r2, [sp, #56]
	mov	r3, #0
	add	r1, fp, #4
	mov	r0, r9
	str	r2, [sp, #32]
	str	r3, [sp, #56]
	bl	_ZNSt15__exception_ptr13exception_ptr4swapERS0_(PLT)
	mov	r0, r9
	bl	_ZNSt15__exception_ptr13exception_ptrD1Ev(PLT)
	mov	r0, r7
	bl	_ZNSt15__exception_ptr13exception_ptrD1Ev(PLT)
	mov	r0, r10
	bl	_ZNSt12future_errorD1Ev(PLT)
	add	r0, r6, #8
	mov	r2, #1
	ldr	r7, [r6, #4]
	str	fp, [r6, #4]
	mcr	p15, 0, r0, c7, c10, 5
.L1151:
	ldrex	r3, [r0]
	strex	r1, r2, [r0]
	cmp	r1, #0
	bne	.L1151
	cmp	r3, #0
	bge	.L1124
	bl	_ZNSt28__atomic_futex_unsigned_base19_M_futex_notify_allEPj(PLT)
.L1124:
	cmp	r7, #0
	beq	.L1153
	ldr	r3, [r7]
	mov	r0, r7
	ldr	r3, [r3]
	blx	r3
.L1153:
	ldr	r6, [r4, #8]
	cmp	r6, #0
	beq	.L1154
	ldr	r2, [r6]
	ldr	r3, .L1158+20
	ldr	r1, [r2]
	ldr	r3, [r5, r3]
	cmp	r1, r3
	bne	.L1127
	ldr	r3, .L1158+24
	ldr	r2, [r2, #8]
	ldr	r3, [r5, r3]
	cmp	r2, r3
	bne	.L1128
	ldr	r3, .L1158+28
	mov	r0, r6
	ldr	r3, [r5, r3]
	add	r3, r3, #8
	str	r3, [r6]
	bl	_ZNSt13__future_base12_Result_baseD2Ev(PLT)
	mov	r0, r6
	mov	r1, #12
	bl	_ZdlPvj(PLT)
	ldr	r7, [r4, #4]
.L1114:
	cmp	r7, #0
	beq	.L1142
	ldr	r3, .L1158+32
	ldr	r3, [r5, r3]
	cmp	r3, #0
	beq	.L1131
	add	r3, r7, #28
	mcr	p15, 0, r0, c7, c10, 5
.L1150:
	ldrex	r2, [r3]
	sub	r1, r2, #1
	strex	r0, r1, [r3]
	cmp	r0, #0
	bne	.L1150
	cmp	r2, #1
	mcr	p15, 0, r0, c7, c10, 5
	beq	.L1157
.L1142:
	mov	r0, r4
	add	sp, sp, #84
	@ sp needed
	pop	{r4, r5, r6, r7, r8, r9, r10, fp, pc}
.L1127:
	mov	r0, r6
	blx	r1
.L1154:
	ldr	r7, [r4, #4]
	b	.L1114
.L1131:
	ldr	r3, [r7, #28]
	cmp	r3, #1
	sub	r3, r3, #1
	str	r3, [r7, #28]
	bne	.L1142
	ldr	r3, [r7]
	mov	r0, r7
	ldr	r3, [r3, #8]
	blx	r3
	mcr	p15, 0, r0, c7, c10, 5
	ldr	r2, [r7, #32]
	sub	r3, r2, #1
	str	r3, [r7, #32]
	b	.L1135
.L1128:
	mov	r0, r6
	blx	r2
	ldr	r7, [r4, #4]
	b	.L1114
.L1157:
	ldr	r3, [r7]
	mov	r0, r7
	ldr	r3, [r3, #8]
	blx	r3
	add	r3, r7, #32
	mcr	p15, 0, r0, c7, c10, 5
	mcr	p15, 0, r0, c7, c10, 5
.L1149:
	ldrex	r2, [r3]
	sub	r1, r2, #1
	strex	r0, r1, [r3]
	cmp	r0, #0
	bne	.L1149
	mcr	p15, 0, r0, c7, c10, 5
.L1135:
	cmp	r2, #1
	bne	.L1142
	ldr	r3, [r7]
	mov	r0, r7
	ldr	r3, [r3, #12]
	blx	r3
	b	.L1142
.L1137:
.L1121:
	ldr	r0, [sp, #32]
	add	r9, r9, #8
	cmp	r0, r9
	beq	.L1122
	bl	_ZdlPv(PLT)
.L1122:
	bl	_ZSt9terminatev(PLT)
.L1138:
	ldr	r3, [sp, #12]
	ldr	r0, [sp, #56]
	add	r3, r3, #8
	cmp	r0, r3
	beq	.L1121
	bl	_ZdlPv(PLT)
	b	.L1121
.L1159:
	.align	2
.L1158:
	.word	_GLOBAL_OFFSET_TABLE_-(.LPIC80+8)
	.word	.LC23-(.LPIC79+8)
	.word	_ZTVSt12future_error(GOT)
	.word	_ZNSt12future_errorD1Ev(GOT)
	.word	_ZTISt12future_error(GOT)
	.word	_ZNSt13__future_base7_ResultIbE10_M_destroyEv(GOT)
	.word	_ZNSt13__future_base7_ResultIbED0Ev(GOT)
	.word	_ZTVNSt13__future_base7_ResultIbEE(GOT)
	.word	_ZL28__gthrw___pthread_key_createPjPFvPvE(GOT)
	.personality	__gxx_personality_v0
	.handlerdata
	.align	2
.LLSDA7579:
	.byte	0xff
	.byte	0x90
	.uleb128 .LLSDATT7579-.LLSDATTD7579
.LLSDATTD7579:
	.byte	0x1
	.uleb128 .LLSDACSE7579-.LLSDACSB7579
.LLSDACSB7579:
	.uleb128 .LEHB33-.LFB7579
	.uleb128 .LEHE33-.LEHB33
	.uleb128 .L1137-.LFB7579
	.uleb128 0
	.uleb128 .LEHB34-.LFB7579
	.uleb128 .LEHE34-.LEHB34
	.uleb128 .L1138-.LFB7579
	.uleb128 0
	.uleb128 .LEHB35-.LFB7579
	.uleb128 .LEHE35-.LEHB35
	.uleb128 .L1136-.LFB7579
	.uleb128 0x1
.LLSDACSE7579:
	.byte	0x1
	.byte	0
	.align	2
	.word	0
.LLSDATT7579:
	.section	.text._ZNSt7promiseIbED2Ev,"axG",%progbits,_ZNSt7promiseIbED5Ev,comdat
	.fnend
	.size	_ZNSt7promiseIbED2Ev, .-_ZNSt7promiseIbED2Ev
	.weak	_ZNSt7promiseIbED1Ev
	.set	_ZNSt7promiseIbED1Ev,_ZNSt7promiseIbED2Ev
	.section	.text._ZNSt16_Sp_counted_baseILN9__gnu_cxx12_Lock_policyE1EE10_M_releaseEv,"axG",%progbits,_ZNSt16_Sp_counted_baseILN9__gnu_cxx12_Lock_policyE1EE10_M_releaseEv,comdat
	.align	2
	.weak	_ZNSt16_Sp_counted_baseILN9__gnu_cxx12_Lock_policyE1EE10_M_releaseEv
	.syntax unified
	.arm
	.fpu vfp
	.type	_ZNSt16_Sp_counted_baseILN9__gnu_cxx12_Lock_policyE1EE10_M_releaseEv, %function
_ZNSt16_Sp_counted_baseILN9__gnu_cxx12_Lock_policyE1EE10_M_releaseEv:
	.fnstart
.LFB7809:
	@ args = 0, pretend = 0, frame = 0
	@ frame_needed = 0, uses_anonymous_args = 0
	ldr	r3, .L1172
	ldr	r2, .L1172+4
.LPIC81:
	add	r3, pc, r3
	push	{r4, r5, r6, lr}
	mov	r4, r0
	ldr	r3, [r3, r2]
	cmp	r3, #0
	beq	.L1161
	add	r3, r0, #28
	mcr	p15, 0, r0, c7, c10, 5
.L1168:
	ldrex	r2, [r3]
	sub	r1, r2, #1
	strex	ip, r1, [r3]
	cmp	ip, #0
	bne	.L1168
	cmp	r2, #1
	mcr	p15, 0, r0, c7, c10, 5
	popne	{r4, r5, r6, pc}
	mov	r5, r4
	ldr	r3, [r5], #32
	ldr	r3, [r3, #8]
	blx	r3
	mcr	p15, 0, r0, c7, c10, 5
	mcr	p15, 0, r0, c7, c10, 5
.L1167:
	ldrex	r3, [r5]
	sub	r2, r3, #1
	strex	r1, r2, [r5]
	cmp	r1, #0
	bne	.L1167
	mcr	p15, 0, r0, c7, c10, 5
.L1166:
	cmp	r3, #1
	popne	{r4, r5, r6, pc}
	ldr	r3, [r4]
	mov	r0, r4
	pop	{r4, r5, r6, lr}
	ldr	r3, [r3, #12]
	bx	r3	@ indirect register sibling call
.L1161:
	ldr	r3, [r0, #28]
	cmp	r3, #1
	sub	r3, r3, #1
	str	r3, [r0, #28]
	popne	{r4, r5, r6, pc}
	ldr	r3, [r0]
	ldr	r3, [r3, #8]
	blx	r3
	mcr	p15, 0, r0, c7, c10, 5
	ldr	r3, [r4, #32]
	sub	r2, r3, #1
	str	r2, [r4, #32]
	b	.L1166
.L1173:
	.align	2
.L1172:
	.word	_GLOBAL_OFFSET_TABLE_-(.LPIC81+8)
	.word	_ZL28__gthrw___pthread_key_createPjPFvPvE(GOT)
	.cantunwind
	.fnend
	.size	_ZNSt16_Sp_counted_baseILN9__gnu_cxx12_Lock_policyE1EE10_M_releaseEv, .-_ZNSt16_Sp_counted_baseILN9__gnu_cxx12_Lock_policyE1EE10_M_releaseEv
	.text
	.align	2
	.global	_ZN7asiopal8ExecutorC2ERKSt10shared_ptrINS_2IOEE
	.syntax unified
	.arm
	.fpu vfp
	.type	_ZN7asiopal8ExecutorC2ERKSt10shared_ptrINS_2IOEE, %function
_ZN7asiopal8ExecutorC2ERKSt10shared_ptrINS_2IOEE:
	.fnstart
.LFB6726:
	@ args = 0, pretend = 0, frame = 24
	@ frame_needed = 0, uses_anonymous_args = 0
	push	{r4, r5, r6, r7, r8, r9, r10, fp, lr}
	.save {r4, r5, r6, r7, r8, r9, r10, fp, lr}
	mov	r3, #0
	ldr	r8, .L1278
	ldr	r2, .L1278+4
.LPIC82:
	add	r8, pc, r8
	str	r3, [r0, #4]
	str	r3, [r0, #8]
	ldr	r3, [r1, #4]
	ldr	r2, [r8, r2]
	mov	r4, r0
	ldr	r0, [r1]
	add	r2, r2, #8
	cmp	r3, #0
	.pad #28
	sub	sp, sp, #28
	str	r2, [r4]
	str	r0, [r4, #12]
	str	r3, [r4, #16]
	beq	.L1175
	ldr	r2, .L1278+8
	ldr	r2, [r8, r2]
	cmp	r2, #0
	beq	.L1176
	add	r3, r3, #28
	mcr	p15, 0, r0, c7, c10, 5
.L1267:
	ldrex	r2, [r3]
	add	r2, r2, #1
	strex	r0, r2, [r3]
	cmp	r0, #0
	bne	.L1267
	mcr	p15, 0, r0, c7, c10, 5
.L1175:
	ldr	r3, [r1]
	ldr	r9, [r3, #4]
	add	r10, r9, #4
	mov	r0, r10
	bl	pthread_mutex_lock(PLT)
	ldr	r5, [r9, #32]
	cmp	r5, #0
	bne	.L1213
	b	.L1177
.L1178:
	ldr	r5, [r5, #16]
	cmp	r5, #0
	beq	.L1177
.L1213:
	ldr	r0, [r5, #4]
	cmp	r0, #0
	beq	.L1178
	ldr	r3, .L1278+12
	ldr	r1, [r8, r3]
	bl	_ZNKSt9type_infoeqERKS_(PLT)
	cmp	r0, #0
	beq	.L1178
	add	r6, r5, #24
.L1179:
	mov	r0, r10
	bl	pthread_mutex_unlock(PLT)
	str	r5, [r4, #20]
	mov	r0, r6
	bl	pthread_mutex_lock(PLT)
	add	r3, r4, #24
	ldr	r2, .L1278+16
	add	r3, r3, r3, lsr #3
	ldr	r0, [r5, #820]
	lsr	r1, r3, #2
	add	r1, r1, r3, lsl #6
	add	r2, r1, r2
	add	r1, r2, r0
	ldr	r2, .L1278+20
	eor	r3, r3, r1
	add	r0, r0, #1
	umull	r1, r2, r2, r3
	str	r0, [r5, #820]
	lsr	r2, r2, #4
	add	r1, r2, r2, lsl #1
	add	r2, r2, r1, lsl #6
	sub	r3, r3, r2
	add	r3, r5, r3, lsl #2
	str	r3, [sp]
	ldr	r3, [r3, #48]
	cmp	r3, #0
	beq	.L1272
.L1191:
	str	r3, [r4, #24]
	mov	r0, r6
	bl	pthread_mutex_unlock(PLT)
	mov	r0, r4
	add	sp, sp, #28
	@ sp needed
	pop	{r4, r5, r6, r7, r8, r9, r10, fp, pc}
.L1177:
	mov	r0, r10
	bl	pthread_mutex_unlock(PLT)
	mov	r0, #824
	ldr	r5, [r9, #28]
.LEHB36:
	bl	_Znwj(PLT)
.LEHE36:
	ldr	r3, .L1278+24
	mov	r1, #0
	str	r5, [r0, #12]
	str	r1, [r0, #4]
	str	r1, [r0, #8]
	str	r1, [r0, #16]
	ldr	r3, [r8, r3]
	ldr	r2, [r5, #4]
	mov	r7, r0
	add	r3, r3, #8
	add	r6, r0, #24
	str	r3, [r7]
	mov	r0, r6
	str	r2, [r7, #20]
	bl	pthread_mutex_init(PLT)
	ldr	r3, .L1278+28
	ldr	r5, [r8, r3]
	ldrb	r3, [r5]	@ zero_extendqisi2
	mcr	p15, 0, r0, c7, c10, 5
	tst	r3, #1
	mov	fp, r0
	beq	.L1273
.L1269:
	ldr	r3, .L1278+32
	ldr	r5, [r8, r3]
.L1181:
	cmp	fp, #0
	str	fp, [sp, #8]
	str	r5, [sp, #12]
	moveq	r2, fp
	addeq	r3, r7, #48
	addeq	r1, r7, #820
	bne	.L1274
.L1184:
	str	r2, [r3], #4
	cmp	r3, r1
	bne	.L1184
	ldr	r3, .L1278+12
	str	r2, [r7, #820]
	mov	r0, r10
	ldr	fp, [r8, r3]
	str	r2, [r7, #8]
	str	fp, [r7, #4]
	bl	pthread_mutex_lock(PLT)
	ldr	r5, [r9, #32]
	cmp	r5, #0
	bne	.L1214
	b	.L1185
.L1189:
	ldr	r5, [r5, #16]
	cmp	r5, #0
	beq	.L1275
.L1214:
	ldr	r0, [r5, #4]
	cmp	r0, #0
	beq	.L1189
	mov	r1, fp
	bl	_ZNKSt9type_infoeqERKS_(PLT)
	cmp	r0, #0
	beq	.L1189
	ldr	r3, [r7]
	mov	r0, r7
	add	r6, r5, #24
	ldr	r3, [r3, #4]
	blx	r3
	b	.L1179
.L1273:
	mov	r0, r5
	bl	__cxa_guard_acquire(PLT)
	cmp	r0, #0
	beq	.L1269
	mov	r0, r5
	bl	__cxa_guard_release(PLT)
	ldr	r3, .L1278+32
	ldr	r1, .L1278+36
	ldr	r2, .L1278+40
	ldr	r5, [r8, r3]
.LPIC83:
	add	r2, pc, r2
	ldr	r1, [r8, r1]
	mov	r0, r5
	bl	__aeabi_atexit(PLT)
	b	.L1181
.L1176:
	ldr	r2, [r3, #28]
	add	r2, r2, #1
	str	r2, [r3, #28]
	b	.L1175
.L1275:
	ldr	r5, [r9, #32]
.L1185:
	str	r5, [r7, #16]
	str	r7, [r9, #32]
	mov	r5, r7
	b	.L1179
.L1272:
	mov	r0, #56
.LEHB37:
	bl	_Znwj(PLT)
.LEHE37:
	ldr	r2, .L1278+44
	mov	r3, #0
	str	r3, [r0]
	ldr	r2, [r8, r2]
	mov	r10, r0
	mov	r1, r3
	stmib	r10, {r2, r3}
	add	r0, r0, #12
	bl	pthread_mutex_init(PLT)
	ldr	r3, .L1278+28
	ldr	r5, [r8, r3]
	ldrb	r3, [r5]	@ zero_extendqisi2
	mcr	p15, 0, r0, c7, c10, 5
	tst	r3, #1
	mov	r7, r0
	beq	.L1276
.L1270:
	ldr	r3, .L1278+32
	ldr	r5, [r8, r3]
.L1193:
	cmp	r7, #0
	str	r7, [sp, #16]
	str	r5, [sp, #20]
	bne	.L1277
	ldr	r3, [sp]
	ldr	r5, [r3, #48]
	strb	r7, [r10, #36]
	cmp	r5, #0
	str	r7, [r10, #40]
	str	r7, [r10, #44]
	str	r7, [r10, #48]
	str	r7, [r10, #52]
	beq	.L1196
	ldr	r1, [r5, #48]
	cmp	r1, #0
	beq	.L1201
	str	r1, [sp, #4]
	bl	_ZNSt3_V215system_categoryEv(PLT)
	ldr	r1, [sp, #4]
	add	r8, sp, #16
	mov	fp, r0
.L1202:
	ldr	r3, [r1]
	ldr	r9, [r1, #4]
	cmp	r3, #0
	streq	r3, [r5, #52]
	str	r3, [r5, #48]
	mov	r3, #0
	str	r7, [r1]
	mov	r0, r3
	str	r7, [sp, #16]
	str	fp, [sp, #20]
	mov	r2, r8
	blx	r9
	ldr	r1, [r5, #48]
	cmp	r1, #0
	bne	.L1202
.L1201:
	ldr	r1, [r5, #40]
	cmp	r1, #0
	beq	.L1198
	str	r1, [sp, #4]
	bl	_ZNSt3_V215system_categoryEv(PLT)
	ldr	r1, [sp, #4]
	add	r8, sp, #16
	mov	r7, #0
	mov	fp, r0
.L1204:
	ldr	r3, [r1]
	ldr	r9, [r1, #4]
	cmp	r3, #0
	streq	r3, [r5, #44]
	str	r3, [r5, #40]
	mov	r3, #0
	str	r7, [r1]
	mov	r0, r3
	str	r7, [sp, #16]
	str	fp, [sp, #20]
	mov	r2, r8
	blx	r9
	ldr	r1, [r5, #40]
	cmp	r1, #0
	bne	.L1204
.L1198:
	add	r0, r5, #12
	bl	pthread_mutex_destroy(PLT)
	mov	r0, r5
	mov	r1, #56
	bl	_ZdlPvj(PLT)
.L1196:
	ldr	r2, [sp]
	mov	r3, r10
	str	r10, [r2, #48]
	b	.L1191
.L1276:
	mov	r0, r5
	bl	__cxa_guard_acquire(PLT)
	cmp	r0, #0
	beq	.L1270
	mov	r0, r5
	bl	__cxa_guard_release(PLT)
	ldr	r3, .L1278+32
	ldr	r1, .L1278+36
	ldr	r2, .L1278+48
	ldr	r5, [r8, r3]
.LPIC85:
	add	r2, pc, r2
	ldr	r1, [r8, r1]
	mov	r0, r5
	bl	__aeabi_atexit(PLT)
	b	.L1193
.L1277:
	ldr	r1, .L1278+52
	add	r0, sp, #16
.LPIC86:
	add	r1, pc, r1
.LEHB38:
	bl	_ZN4asio6detail14do_throw_errorERKSt10error_codePKc(PLT)
.LEHE38:
.L1215:
.L1188:
	ldr	r0, [r4, #16]
	cmp	r0, #0
	beq	.L1207
	bl	_ZNSt16_Sp_counted_baseILN9__gnu_cxx12_Lock_policyE1EE10_M_releaseEv(PLT)
.L1207:
	ldr	r0, [r4, #8]
	cmp	r0, #0
	beq	.L1209
	ldr	r3, .L1278+8
	add	r2, r0, #32
	ldr	r3, [r8, r3]
	cmp	r3, #0
	beq	.L1210
	mcr	p15, 0, r0, c7, c10, 5
.L1266:
	ldrex	r3, [r2]
	sub	r1, r3, #1
	strex	ip, r1, [r2]
	cmp	ip, #0
	bne	.L1266
	mcr	p15, 0, r0, c7, c10, 5
.L1211:
	cmp	r3, #1
	bne	.L1209
	mcr	p15, 0, r0, c7, c10, 5
	ldr	r3, [r0]
	ldr	r3, [r3, #12]
	blx	r3
.L1209:
.LEHB39:
	bl	__cxa_end_cleanup(PLT)
.LEHE39:
.L1210:
	ldr	r3, [r0, #32]
	sub	r2, r3, #1
	str	r2, [r0, #32]
	b	.L1211
.L1218:
	mov	r0, r10
	mov	r1, #56
	bl	_ZdlPvj(PLT)
.L1206:
	mov	r0, r6
	bl	pthread_mutex_unlock(PLT)
	b	.L1188
.L1274:
	ldr	r1, .L1278+56
	add	r0, sp, #8
.LPIC84:
	add	r1, pc, r1
.LEHB40:
	bl	_ZN4asio6detail14do_throw_errorERKSt10error_codePKc(PLT)
.LEHE40:
.L1217:
	b	.L1206
.L1216:
	mov	r0, r7
	mov	r1, #824
	bl	_ZdlPvj(PLT)
	b	.L1188
.L1279:
	.align	2
.L1278:
	.word	_GLOBAL_OFFSET_TABLE_-(.LPIC82+8)
	.word	_ZTVN7asiopal8ExecutorE(GOT)
	.word	_ZL28__gthrw___pthread_key_createPjPFvPvE(GOT)
	.word	_ZTIN4asio6detail14typeid_wrapperINS0_14strand_serviceEEE(GOT)
	.word	-1640531527
	.word	356059465
	.word	_ZTVN4asio6detail14strand_serviceE(GOT)
	.word	_ZGVZN4asio15system_categoryEvE8instance(GOT)
	.word	_ZZN4asio15system_categoryEvE8instance(GOT)
	.word	_ZN4asio6detail15system_categoryD1Ev(GOT)
	.word	__dso_handle-(.LPIC83+8)
	.word	_ZN4asio6detail14strand_service11do_completeEPNS0_15task_io_serviceEPNS0_25task_io_service_operationERKSt10error_codej(GOT)
	.word	__dso_handle-(.LPIC85+8)
	.word	.LC24-(.LPIC86+8)
	.word	.LC24-(.LPIC84+8)
	.personality	__gxx_personality_v0
	.handlerdata
.LLSDA6726:
	.byte	0xff
	.byte	0xff
	.byte	0x1
	.uleb128 .LLSDACSE6726-.LLSDACSB6726
.LLSDACSB6726:
	.uleb128 .LEHB36-.LFB6726
	.uleb128 .LEHE36-.LEHB36
	.uleb128 .L1215-.LFB6726
	.uleb128 0
	.uleb128 .LEHB37-.LFB6726
	.uleb128 .LEHE37-.LEHB37
	.uleb128 .L1217-.LFB6726
	.uleb128 0
	.uleb128 .LEHB38-.LFB6726
	.uleb128 .LEHE38-.LEHB38
	.uleb128 .L1218-.LFB6726
	.uleb128 0
	.uleb128 .LEHB39-.LFB6726
	.uleb128 .LEHE39-.LEHB39
	.uleb128 0
	.uleb128 0
	.uleb128 .LEHB40-.LFB6726
	.uleb128 .LEHE40-.LEHB40
	.uleb128 .L1216-.LFB6726
	.uleb128 0
.LLSDACSE6726:
	.text
	.fnend
	.size	_ZN7asiopal8ExecutorC2ERKSt10shared_ptrINS_2IOEE, .-_ZN7asiopal8ExecutorC2ERKSt10shared_ptrINS_2IOEE
	.global	_ZN7asiopal8ExecutorC1ERKSt10shared_ptrINS_2IOEE
	.set	_ZN7asiopal8ExecutorC1ERKSt10shared_ptrINS_2IOEE,_ZN7asiopal8ExecutorC2ERKSt10shared_ptrINS_2IOEE
	.global	__sync_val_compare_and_swap_1
	.align	2
	.global	_ZN7asiopal8Executor10BlockUntilERKSt8functionIFvvEE
	.syntax unified
	.arm
	.fpu vfp
	.type	_ZN7asiopal8Executor10BlockUntilERKSt8functionIFvvEE, %function
_ZN7asiopal8Executor10BlockUntilERKSt8functionIFvvEE:
	.fnstart
.LFB6788:
	@ args = 0, pretend = 0, frame = 104
	@ frame_needed = 0, uses_anonymous_args = 0
	push	{r4, r5, r6, r7, r8, r9, r10, fp, lr}
	.save {r4, r5, r6, r7, r8, r9, r10, fp, lr}
	mov	r7, r0
	ldr	r4, .L1449
	ldr	r3, .L1449+4
.LPIC87:
	add	r4, pc, r4
	ldr	r5, [r0, #24]
	ldr	r3, [r4, r3]
	.pad #124
	sub	sp, sp, #124
	mov	r8, r1
	ldr	r0, [r3]
	bl	pthread_getspecific(PLT)
	cmp	r0, #0
	bne	.L1414
	b	.L1281
.L1284:
	ldr	r0, [r0, #8]
	cmp	r0, #0
	beq	.L1281
.L1414:
	ldr	r3, [r0]
	cmp	r5, r3
	bne	.L1284
	ldr	r3, [r0, #4]
	cmp	r3, #0
	beq	.L1443
	ldr	r3, [r8, #8]
	cmp	r3, #0
	beq	.L1444
	ldr	r3, [r8, #12]
	mov	r0, r8
.LEHB41:
	blx	r3
.L1280:
	add	sp, sp, #124
	@ sp needed
	pop	{r4, r5, r6, r7, r8, r9, r10, fp, pc}
.L1281:
	mov	r3, #0
	mov	r0, #56
	str	r3, [sp, #44]
	str	r3, [sp, #48]
	bl	_Znwj(PLT)
.LEHE41:
.L1359:
	ldr	ip, .L1449+8
	mov	r3, #0
	mov	r1, #1
	str	r1, [r0, #28]
	str	r1, [r0, #32]
	str	r3, [r0, #4]
	str	r3, [r0, #8]
	str	r3, [r0, #12]
	str	r3, [r0, #16]
	str	r3, [r0, #20]
	str	r3, [r0, #24]
	ldr	r1, .L1449+12
	ldr	ip, [r4, ip]
	ldr	r2, .L1449+16
	add	ip, ip, #8
	str	ip, [r0]
	ldr	r1, [r4, r1]
	str	r3, [r0, #40]
	add	r1, r1, #8
	str	r1, [r0, #36]
	str	r3, [r0, #44]
	strb	r3, [r0, #48]
	str	r3, [r0, #52]
	str	r0, [sp, #48]
	ldr	r1, [r4, r2]
	bl	_ZNSt23_Sp_counted_ptr_inplaceINSt13__future_base13_State_baseV2ESaIS1_ELN9__gnu_cxx12_Lock_policyE1EE14_M_get_deleterERKSt9type_info(PLT)
	str	r0, [sp, #44]
	mov	r0, #12
.LEHB42:
	bl	_Znwj(PLT)
.LEHE42:
	mov	r5, r0
	bl	_ZNSt13__future_base12_Result_baseC2Ev(PLT)
	ldr	r3, .L1449+20
	ldr	r6, [sp, #48]
	mov	r2, #0
	ldr	r3, [r4, r3]
	cmp	r6, r2
	str	r3, [sp, #32]
	add	r3, r3, #8
	str	r5, [sp, #52]
	str	r3, [r5]
	strb	r2, [r5, #9]
	ldr	r5, [sp, #44]
	beq	.L1291
	ldr	r3, .L1449+24
	ldr	r3, [r4, r3]
	cmp	r3, #0
	beq	.L1294
	add	r3, r6, #28
	mcr	p15, 0, r0, c7, c10, 5
.L1428:
	ldrex	r2, [r3]
	add	r2, r2, #1
	strex	r1, r2, [r3]
	cmp	r1, #0
	bne	.L1428
	mcr	p15, 0, r0, c7, c10, 5
.L1291:
	cmp	r5, #0
	beq	.L1445
	mov	r9, r5
	mov	r10, #1
	ldrb	ip, [r9, #12]!	@ zero_extendqisi2
.L1296:
	mov	r2, r10
	sxtb	r1, ip
	mov	r0, r9
	mov	fp, ip
	bl	__sync_val_compare_and_swap_1(PLT)
	uxtb	r3, fp
	uxtb	r2, r0
	cmp	r2, r3
	mov	ip, r0
	bne	.L1296
	cmp	r3, #0
	bne	.L1446
	str	r3, [sp, #24]
	add	r3, sp, #72
	mov	r0, r3
	add	r10, sp, #44
	str	r3, [sp, #20]
	str	r8, [sp, #72]
	str	r10, [sp, #76]
	bl	_ZN4asio28asio_handler_is_continuationEz(PLT)
	ldr	r2, .L1449+28
	ldr	r3, [r7, #20]
	str	r3, [sp, #28]
	ldr	r3, [r4, r2]
	str	r3, [sp, #36]
	mov	r8, r0
	ldr	r0, [r3]
	bl	pthread_getspecific(PLT)
	ldr	r3, [sp, #24]
	cmp	r0, #0
	beq	.L1299
	ldr	r2, [r0, #4]
	cmp	r2, #0
	beq	.L1299
	ldr	fp, [r2]
	cmp	fp, #0
	beq	.L1299
	str	r3, [r2]
	ldrb	r3, [fp]	@ zero_extendqisi2
	cmp	r3, #19
	bls	.L1447
.L1431:
	strb	r3, [fp, #20]
	ldr	r3, [sp, #20]
	ldr	ip, [r7, #24]
	add	r2, fp, #12
	ldm	r3, {r0, r1}
	ldr	r3, .L1449+32
	mov	r9, #0
.LPIC88:
	add	r3, pc, r3
	str	r3, [fp, #4]
	str	r9, [fp]
	str	r9, [fp, #8]
	stm	r2, {r0, r1}
	add	r0, ip, #12
	bl	pthread_mutex_lock(PLT)
	ldr	r0, [r7, #24]
	ldrb	r2, [r0, #36]	@ zero_extendqisi2
	cmp	r2, r9
	beq	.L1305
	ldr	r2, [r0, #44]
	str	r9, [fp]
	cmp	r2, r9
	strne	fp, [r2]
	streq	fp, [r0, #44]
	strne	fp, [r0, #44]
	streq	fp, [r0, #40]
	add	r0, r0, #12
	bl	pthread_mutex_unlock(PLT)
.L1308:
	ldr	r3, [r5]
	mov	r0, r5
	ldr	r3, [r3, #8]
.LEHB43:
	blx	r3
	ldr	r2, [r5, #8]
	add	r5, r5, #8
	bic	r2, r2, #-2147483648
	cmp	r2, #1
	mcr	p15, 0, r0, c7, c10, 5
	beq	.L1326
	mov	r7, #0
	mov	r8, r7
	mov	fp, r7
	mov	r9, r7
	str	r7, [sp, #24]
.L1426:
	ldrex	r3, [r5]
	orr	r3, r3, #-2147483648
	strex	r1, r3, [r5]
	cmp	r1, #0
	bne	.L1426
	ldr	r3, [sp, #24]
	str	fp, [sp, #12]
	str	r3, [sp, #8]
	stm	sp, {r7, r8}
	orr	r2, r2, #-2147483648
	mov	r3, r9
	mov	r1, r5
	mov	r0, r5
	bl	_ZNSt28__atomic_futex_unsigned_base19_M_futex_wait_untilEPjjbNSt6chrono8durationIxSt5ratioILx1ELx1EEEENS2_IxS3_ILx1ELx1000000000EEEE(PLT)
.LEHE43:
	ldr	r2, [r5]
	eor	r3, r0, #1
	bic	r2, r2, #-2147483648
	cmp	r2, #1
	orreq	r3, r3, #1
	tst	r3, #255
	mcr	p15, 0, r0, c7, c10, 5
	beq	.L1426
.L1326:
	cmp	r6, #0
	beq	.L1328
	ldr	r3, .L1449+24
	ldr	r3, [r4, r3]
	cmp	r3, #0
	beq	.L1329
	add	r3, r6, #28
	mcr	p15, 0, r0, c7, c10, 5
.L1425:
	ldrex	r2, [r3]
	sub	r1, r2, #1
	strex	r0, r1, [r3]
	cmp	r0, #0
	bne	.L1425
	cmp	r2, #1
	mcr	p15, 0, r0, c7, c10, 5
	beq	.L1448
.L1328:
	ldr	r5, [sp, #44]
	cmp	r5, #0
	beq	.L1433
	ldr	r6, [sp, #48]
	cmp	r6, #0
	beq	.L1334
	ldr	r3, [r6, #28]
	cmp	r3, #1
	beq	.L1433
.L1334:
	ldr	r7, [sp, #52]
	mov	r8, #0
	cmp	r7, r8
	str	r8, [sp, #52]
	beq	.L1336
	bl	_ZSt15future_categoryv(PLT)
	ldr	r6, [sp, #20]
	mov	r2, #4
	ldr	r3, [r0]
	mov	r1, r0
	mov	r10, r0
	ldr	r3, [r3, #16]
	mov	r0, r6
	blx	r3
	mov	r3, #19
	str	r3, [sp]
	ldr	r3, .L1449+36
	mov	r2, r8
.LPIC89:
	add	r3, pc, r3
	mov	r1, r8
	mov	r0, r6
.LEHB44:
	bl	_ZNSt7__cxx1112basic_stringIcSt11char_traitsIcESaIcEE10_M_replaceEjjPKcj(PLT)
.LEHE44:
	mov	ip, r0
	add	r6, sp, #104
	str	r6, [sp, #96]
	ldr	r3, [ip], #8
	mov	lr, r0
	cmp	r3, ip
	strne	r3, [sp, #96]
	ldreq	r0, [ip]	@ unaligned
	ldreq	r1, [ip, #4]	@ unaligned
	ldreq	r2, [ip, #8]	@ unaligned
	ldreq	r3, [ip, #12]	@ unaligned
	ldrne	r3, [lr, #8]
	moveq	r8, r6
	strne	r3, [sp, #104]
	stmiaeq	r8!, {r0, r1, r2, r3}
	add	r9, sp, #96
	ldr	r2, [lr, #4]
	mov	r3, #0
	add	r8, sp, #56
	str	r2, [sp, #100]
	mov	r1, r9
	str	ip, [lr]
	str	r3, [lr, #4]
	strb	r3, [lr, #8]
	mov	r0, r8
.LEHB45:
	bl	_ZNSt11logic_errorC2ERKNSt7__cxx1112basic_stringIcSt11char_traitsIcESaIcEEE(PLT)
.LEHE45:
	ldr	r0, [sp, #96]
	cmp	r0, r6
	beq	.L1339
	bl	_ZdlPv(PLT)
.L1339:
	ldr	r0, [sp, #72]
	add	r3, sp, #80
	cmp	r0, r3
	beq	.L1340
	bl	_ZdlPv(PLT)
.L1340:
	ldr	r3, .L1449+40
	mov	r2, #4
	mov	r0, #16
	ldr	r6, [r4, r3]
	str	r2, [sp, #64]
	add	r6, r6, #8
	str	r10, [sp, #68]
	str	r6, [sp, #56]
	bl	__cxa_allocate_exception(PLT)
	mov	r1, r8
	mov	r10, r0
	bl	_ZNSt11logic_errorC2ERKS_(PLT)
	add	r2, sp, #64
	ldr	ip, .L1449+44
	ldm	r2, {r0, r1}
	ldr	lr, .L1449+48
	mov	r3, r10
	str	r6, [r3], #8
	stm	r3, {r0, r1}
	mov	r0, r10
	ldr	r2, [r4, ip]
	ldr	r1, [r4, lr]
.LEHB46:
	bl	__cxa_throw(PLT)
.LEHE46:
.L1294:
	ldr	r3, [r6, #28]
	add	r3, r3, #1
	str	r3, [r6, #28]
	b	.L1291
.L1447:
	mov	r0, fp
	bl	_ZdlPv(PLT)
.L1299:
	mov	r0, #21
.LEHB47:
	bl	_Znwj(PLT)
.LEHE47:
	mov	fp, r0
	mov	r3, #20
	b	.L1431
.L1305:
	mov	r3, #1
	strb	r3, [r0, #36]
	add	r0, r0, #12
	str	r2, [sp, #24]
	bl	pthread_mutex_unlock(PLT)
	ldr	r7, [r7, #24]
	ldr	r2, [sp, #24]
	ldr	r3, [r7, #52]
	str	r2, [fp]
	cmp	r3, #0
	strne	fp, [r3]
	ldr	r3, [sp, #28]
	strne	fp, [r7, #52]
	streq	fp, [r7, #52]
	ldr	r9, [r3, #20]
	streq	fp, [r7, #48]
	ldrb	r3, [r9, #20]	@ zero_extendqisi2
	orr	r8, r8, r3
	tst	r8, #255
	beq	.L1311
	ldr	r3, [sp, #36]
	ldr	r0, [r3]
	bl	pthread_getspecific(PLT)
	cmp	r0, #0
	bne	.L1416
	b	.L1311
.L1314:
	ldr	r0, [r0, #8]
	cmp	r0, #0
	beq	.L1311
.L1416:
	ldr	r3, [r0]
	cmp	r9, r3
	bne	.L1314
	ldr	r3, [r0, #4]
	cmp	r3, #0
	beq	.L1311
	ldr	r1, [r3, #8]
	ldr	r2, [r3, #12]
	cmp	r1, #0
	add	r2, r2, #1
	mov	r0, #0
	str	r2, [r3, #12]
	str	r0, [r7]
	strne	r7, [r1]
	streq	r7, [r3, #8]
	strne	r7, [r3, #8]
	streq	r7, [r3, #4]
	b	.L1308
.L1366:
	bl	__cxa_begin_catch(PLT)
	mov	r0, r9
	bl	_ZSt17current_exceptionv(PLT)
	bl	__cxa_end_catch(PLT)
	ldr	r6, [sp, #20]
	ldr	r2, [sp, #96]
	mov	r3, #0
	add	r1, r7, #4
	mov	r0, r6
	str	r2, [sp, #72]
	str	r3, [sp, #96]
	bl	_ZNSt15__exception_ptr13exception_ptr4swapERS0_(PLT)
	mov	r0, r6
	bl	_ZNSt15__exception_ptr13exception_ptrD1Ev(PLT)
	mov	r0, r9
	bl	_ZNSt15__exception_ptr13exception_ptrD1Ev(PLT)
	mov	r0, r8
	bl	_ZNSt12future_errorD1Ev(PLT)
	add	r0, r5, #8
	mov	r2, #1
	ldr	r6, [r5, #4]
	str	r7, [r5, #4]
	mcr	p15, 0, r0, c7, c10, 5
.L1424:
	ldrex	r3, [r0]
	strex	r1, r2, [r0]
	cmp	r1, #0
	bne	.L1424
	cmp	r3, #0
	bge	.L1346
	bl	_ZNSt28__atomic_futex_unsigned_base19_M_futex_notify_allEPj(PLT)
.L1346:
	cmp	r6, #0
	beq	.L1433
	ldr	r3, [r6]
	mov	r0, r6
	ldr	r3, [r3]
	blx	r3
.L1433:
	ldr	r5, [sp, #52]
	cmp	r5, #0
	beq	.L1434
	ldr	r1, [r5]
	ldr	r3, .L1449+52
	ldr	r2, [r1]
	ldr	r3, [r4, r3]
	cmp	r2, r3
	bne	.L1349
	ldr	r3, .L1449+56
	ldr	r2, [r1, #8]
	ldr	r3, [r4, r3]
	cmp	r2, r3
	bne	.L1350
	ldr	r3, [sp, #32]
	mov	r0, r5
	add	r3, r3, #8
	str	r3, [r5]
	bl	_ZNSt13__future_base12_Result_baseD2Ev(PLT)
	mov	r0, r5
	mov	r1, #12
	bl	_ZdlPvj(PLT)
	ldr	r6, [sp, #48]
.L1336:
	cmp	r6, #0
	beq	.L1280
	ldr	r3, .L1449+24
	ldr	r3, [r4, r3]
	cmp	r3, #0
	beq	.L1353
	add	r3, r6, #28
	mcr	p15, 0, r0, c7, c10, 5
.L1423:
	ldrex	r2, [r3]
	sub	r1, r2, #1
	strex	r0, r1, [r3]
	cmp	r0, #0
	bne	.L1423
	cmp	r2, #1
	mcr	p15, 0, r0, c7, c10, 5
	bne	.L1280
	ldr	r3, [r6]
	mov	r0, r6
	ldr	r3, [r3, #8]
	blx	r3
	add	r2, r6, #32
	mcr	p15, 0, r0, c7, c10, 5
	mcr	p15, 0, r0, c7, c10, 5
.L1421:
	ldrex	r3, [r2]
	sub	r1, r3, #1
	strex	r0, r1, [r2]
	cmp	r0, #0
	bne	.L1421
	mcr	p15, 0, r0, c7, c10, 5
.L1362:
	cmp	r3, #1
	bne	.L1280
	ldr	r3, [r6]
	mov	r0, r6
	ldr	r3, [r3, #12]
	blx	r3
	b	.L1280
.L1311:
	add	r3, r9, #124
	mcr	p15, 0, r0, c7, c10, 5
.L1427:
	ldrex	r2, [r3]
	add	r2, r2, #1
	strex	r1, r2, [r3]
	cmp	r1, #0
	bne	.L1427
	add	r8, r9, #24
	mcr	p15, 0, r0, c7, c10, 5
	mov	r0, r8
	bl	pthread_mutex_lock(PLT)
	ldr	r3, [r9, #132]
	mov	r2, #0
	cmp	r3, r2
	str	r2, [r7]
	strne	r7, [r3]
	ldr	r3, [r9, #96]
	strne	r7, [r9, #132]
	orr	r3, r3, #1
	streq	r7, [r9, #132]
	streq	r7, [r9, #128]
	cmp	r3, #1
	add	r7, r9, #48
	str	r3, [r9, #96]
	beq	.L1320
	mov	r0, r8
	bl	pthread_mutex_unlock(PLT)
	mov	r0, r7
	bl	pthread_cond_signal(PLT)
	b	.L1308
.L1320:
	ldrb	r2, [r9, #120]	@ zero_extendqisi2
	cmp	r2, #0
	bne	.L1322
	ldr	r0, [r9, #104]
	cmp	r0, #0
	beq	.L1322
	strb	r3, [r9, #120]
	add	r3, sp, #96
	add	r1, r0, #48
	mov	ip, #-2147483639
	str	r1, [sp, #104]
	str	r2, [r3, #4]
	str	r2, [r3, #12]
	str	ip, [sp, #96]
	mov	r1, #3
	ldr	r2, [r0, #48]
	ldr	r0, [r0, #56]
	bl	epoll_ctl(PLT)
.L1322:
	mov	r0, r8
	bl	pthread_mutex_unlock(PLT)
	b	.L1308
.L1349:
	mov	r0, r5
	blx	r2
.L1434:
	ldr	r6, [sp, #48]
	b	.L1336
.L1329:
	ldr	r3, [r6, #28]
	cmp	r3, #1
	sub	r3, r3, #1
	str	r3, [r6, #28]
	bne	.L1328
	ldr	r3, [r6]
	mov	r0, r6
	ldr	r3, [r3, #8]
	blx	r3
	mcr	p15, 0, r0, c7, c10, 5
	ldr	r3, [r6, #32]
	sub	r2, r3, #1
	str	r2, [r6, #32]
.L1361:
	cmp	r3, #1
	bne	.L1328
	ldr	r3, [r6]
	mov	r0, r6
	ldr	r3, [r3, #12]
	blx	r3
	b	.L1328
.L1353:
	ldr	r3, [r6, #28]
	cmp	r3, #1
	sub	r3, r3, #1
	str	r3, [r6, #28]
	bne	.L1280
	ldr	r3, [r6]
	mov	r0, r6
	ldr	r3, [r3, #8]
	blx	r3
	mcr	p15, 0, r0, c7, c10, 5
	ldr	r3, [r6, #32]
	sub	r2, r3, #1
	str	r2, [r6, #32]
	b	.L1362
.L1350:
	mov	r0, r5
	blx	r2
	ldr	r6, [sp, #48]
	b	.L1336
.L1448:
	ldr	r3, [r6]
	mov	r0, r6
	ldr	r3, [r3, #8]
	blx	r3
	add	r2, r6, #32
	mcr	p15, 0, r0, c7, c10, 5
	mcr	p15, 0, r0, c7, c10, 5
.L1422:
	ldrex	r3, [r2]
	sub	r1, r3, #1
	strex	r0, r1, [r2]
	cmp	r0, #0
	bne	.L1422
	mcr	p15, 0, r0, c7, c10, 5
	b	.L1361
.L1443:
	mov	r0, #56
	str	r3, [sp, #44]
	str	r3, [sp, #48]
.LEHB48:
	bl	_Znwj(PLT)
	b	.L1359
.L1444:
	bl	_ZSt25__throw_bad_function_callv(PLT)
.LEHE48:
.L1446:
	mov	r0, #1
.LEHB49:
	bl	_ZSt20__throw_future_errori(PLT)
.L1445:
	mov	r0, #3
	bl	_ZSt20__throw_future_errori(PLT)
.LEHE49:
.L1364:
	cmp	r6, #0
	beq	.L1435
	mov	r0, r6
	bl	_ZNSt16_Sp_counted_baseILN9__gnu_cxx12_Lock_policyE1EE10_M_releaseEv(PLT)
.L1435:
	add	r10, sp, #44
.L1302:
	mov	r0, r10
	bl	_ZNSt7promiseIbED1Ev(PLT)
.L1436:
.LEHB50:
	bl	__cxa_end_cleanup(PLT)
.LEHE50:
.L1365:
	ldr	r0, [sp, #48]
	cmp	r0, #0
	beq	.L1436
	bl	_ZNSt16_Sp_counted_baseILN9__gnu_cxx12_Lock_policyE1EE10_M_releaseEv(PLT)
	b	.L1436
.L1367:
.L1343:
	ldr	r0, [sp, #72]
	add	r3, sp, #80
	cmp	r0, r3
	beq	.L1344
	bl	_ZdlPv(PLT)
.L1344:
	bl	_ZSt9terminatev(PLT)
.L1368:
	ldr	r0, [sp, #96]
	cmp	r0, r6
	beq	.L1343
	bl	_ZdlPv(PLT)
	b	.L1343
.L1363:
	cmp	r6, #0
	beq	.L1302
	mov	r0, r6
	bl	_ZNSt16_Sp_counted_baseILN9__gnu_cxx12_Lock_policyE1EE10_M_releaseEv(PLT)
	b	.L1302
.L1450:
	.align	2
.L1449:
	.word	_GLOBAL_OFFSET_TABLE_-(.LPIC87+8)
	.word	_ZN4asio6detail10call_stackINS0_14strand_service11strand_implEhE4top_E(GOT)
	.word	_ZTVSt23_Sp_counted_ptr_inplaceINSt13__future_base13_State_baseV2ESaIS1_ELN9__gnu_cxx12_Lock_policyE1EE(GOT)
	.word	_ZTVNSt13__future_base13_State_baseV2E(GOT)
	.word	_ZTISt19_Sp_make_shared_tag(GOT)
	.word	_ZTVNSt13__future_base7_ResultIbEE(GOT)
	.word	_ZL28__gthrw___pthread_key_createPjPFvPvE(GOT)
	.word	_ZN4asio6detail10call_stackINS0_15task_io_serviceENS0_27task_io_service_thread_infoEE4top_E(GOT)
	.word	_ZN4asio6detail18completion_handlerIZN7asiopal8Executor10BlockUntilERKSt8functionIFvvEEEUlvE_E11do_completeEPNS0_15task_io_serviceEPNS0_25task_io_service_operationERKSt10error_codej-(.LPIC88+8)
	.word	.LC23-(.LPIC89+8)
	.word	_ZTVSt12future_error(GOT)
	.word	_ZNSt12future_errorD1Ev(GOT)
	.word	_ZTISt12future_error(GOT)
	.word	_ZNSt13__future_base7_ResultIbE10_M_destroyEv(GOT)
	.word	_ZNSt13__future_base7_ResultIbED0Ev(GOT)
	.personality	__gxx_personality_v0
	.handlerdata
	.align	2
.LLSDA6788:
	.byte	0xff
	.byte	0x90
	.uleb128 .LLSDATT6788-.LLSDATTD6788
.LLSDATTD6788:
	.byte	0x1
	.uleb128 .LLSDACSE6788-.LLSDACSB6788
.LLSDACSB6788:
	.uleb128 .LEHB41-.LFB6788
	.uleb128 .LEHE41-.LEHB41
	.uleb128 0
	.uleb128 0
	.uleb128 .LEHB42-.LFB6788
	.uleb128 .LEHE42-.LEHB42
	.uleb128 .L1365-.LFB6788
	.uleb128 0
	.uleb128 .LEHB43-.LFB6788
	.uleb128 .LEHE43-.LEHB43
	.uleb128 .L1363-.LFB6788
	.uleb128 0
	.uleb128 .LEHB44-.LFB6788
	.uleb128 .LEHE44-.LEHB44
	.uleb128 .L1367-.LFB6788
	.uleb128 0
	.uleb128 .LEHB45-.LFB6788
	.uleb128 .LEHE45-.LEHB45
	.uleb128 .L1368-.LFB6788
	.uleb128 0
	.uleb128 .LEHB46-.LFB6788
	.uleb128 .LEHE46-.LEHB46
	.uleb128 .L1366-.LFB6788
	.uleb128 0x1
	.uleb128 .LEHB47-.LFB6788
	.uleb128 .LEHE47-.LEHB47
	.uleb128 .L1363-.LFB6788
	.uleb128 0
	.uleb128 .LEHB48-.LFB6788
	.uleb128 .LEHE48-.LEHB48
	.uleb128 0
	.uleb128 0
	.uleb128 .LEHB49-.LFB6788
	.uleb128 .LEHE49-.LEHB49
	.uleb128 .L1364-.LFB6788
	.uleb128 0
	.uleb128 .LEHB50-.LFB6788
	.uleb128 .LEHE50-.LEHB50
	.uleb128 0
	.uleb128 0
.LLSDACSE6788:
	.byte	0x1
	.byte	0
	.align	2
	.word	0
.LLSDATT6788:
	.text
	.fnend
	.size	_ZN7asiopal8Executor10BlockUntilERKSt8functionIFvvEE, .-_ZN7asiopal8Executor10BlockUntilERKSt8functionIFvvEE
	.align	2
	.global	_ZN7asiopal8Executor18BlockUntilAndFlushERKSt8functionIFvvEE
	.syntax unified
	.arm
	.fpu vfp
	.type	_ZN7asiopal8Executor18BlockUntilAndFlushERKSt8functionIFvvEE, %function
_ZN7asiopal8Executor18BlockUntilAndFlushERKSt8functionIFvvEE:
	.fnstart
.LFB6796:
	@ args = 0, pretend = 0, frame = 16
	@ frame_needed = 0, uses_anonymous_args = 0
	push	{r4, r5, lr}
	.save {r4, r5, lr}
	.pad #20
	sub	sp, sp, #20
	mov	r5, r0
.LEHB51:
	bl	_ZN7asiopal8Executor10BlockUntilERKSt8functionIFvvEE(PLT)
.LEHE51:
	ldr	r2, .L1463
	ldr	r3, .L1463+4
.LPIC90:
	add	r2, pc, r2
.LPIC91:
	add	r3, pc, r3
	mov	r0, r5
	mov	r1, sp
	mov	r4, sp
	str	r2, [sp, #12]
	str	r3, [sp, #8]
.LEHB52:
	bl	_ZN7asiopal8Executor10BlockUntilERKSt8functionIFvvEE(PLT)
.LEHE52:
	ldr	r3, [sp, #8]
	cmp	r3, #0
	beq	.L1451
	mov	r2, #3
	mov	r1, sp
	mov	r0, r4
	blx	r3
.L1451:
	add	sp, sp, #20
	@ sp needed
	pop	{r4, r5, pc}
.L1455:
	ldr	r3, [sp, #8]
	cmp	r3, #0
	beq	.L1454
	mov	r2, #3
	mov	r1, r4
	mov	r0, r4
	blx	r3
.L1454:
.LEHB53:
	bl	__cxa_end_cleanup(PLT)
.LEHE53:
.L1464:
	.align	2
.L1463:
	.word	_ZNSt17_Function_handlerIFvvEZN7asiopal8Executor18BlockUntilAndFlushERKSt8functionIS0_EEUlvE_E9_M_invokeERKSt9_Any_data-(.LPIC90+8)
	.word	_ZNSt14_Function_base13_Base_managerIZN7asiopal8Executor18BlockUntilAndFlushERKSt8functionIFvvEEEUlvE_E10_M_managerERSt9_Any_dataRKSA_St18_Manager_operation-(.LPIC91+8)
	.personality	__gxx_personality_v0
	.handlerdata
.LLSDA6796:
	.byte	0xff
	.byte	0xff
	.byte	0x1
	.uleb128 .LLSDACSE6796-.LLSDACSB6796
.LLSDACSB6796:
	.uleb128 .LEHB51-.LFB6796
	.uleb128 .LEHE51-.LEHB51
	.uleb128 0
	.uleb128 0
	.uleb128 .LEHB52-.LFB6796
	.uleb128 .LEHE52-.LEHB52
	.uleb128 .L1455-.LFB6796
	.uleb128 0
	.uleb128 .LEHB53-.LFB6796
	.uleb128 .LEHE53-.LEHB53
	.uleb128 0
	.uleb128 0
.LLSDACSE6796:
	.text
	.fnend
	.size	_ZN7asiopal8Executor18BlockUntilAndFlushERKSt8functionIFvvEE, .-_ZN7asiopal8Executor18BlockUntilAndFlushERKSt8functionIFvvEE
	.align	2
	.syntax unified
	.arm
	.fpu vfp
	.type	_ZN4asio6detail18completion_handlerINS0_7binder1IZN7asiopal8Executor5StartERKNSt6chrono10time_pointINS5_3_V212steady_clockENS5_8durationIxSt5ratioILx1ELx1000000000EEEEEERKSt8functionIFvvEEEUlRKSt10error_codeE_SL_EEE11do_completeEPNS0_15task_io_serviceEPNS0_25task_io_service_operationESN_j, %function
_ZN4asio6detail18completion_handlerINS0_7binder1IZN7asiopal8Executor5StartERKNSt6chrono10time_pointINS5_3_V212steady_clockENS5_8durationIxSt5ratioILx1ELx1000000000EEEEEERKSt8functionIFvvEEEUlRKSt10error_codeE_SL_EEE11do_completeEPNS0_15task_io_serviceEPNS0_25task_io_service_operationESN_j:
	.fnstart
.LFB8967:
	@ args = 0, pretend = 0, frame = 56
	@ frame_needed = 0, uses_anonymous_args = 0
	push	{r4, r5, r6, r7, r8, lr}
	.save {r4, r5, r6, r7, r8, lr}
	add	r2, r1, #12
	ldr	r6, [r1, #28]
	.pad #56
	sub	sp, sp, #56
	mov	r4, r1
	ldr	ip, [r1, #12]
	ldr	r5, .L1606
	ldr	r1, [r1, #16]
	mov	r3, #0
	cmp	r6, #0
	str	r4, [sp, #8]
	str	r4, [sp, #12]
	str	ip, [sp, #16]
	str	r1, [sp, #20]
	str	r2, [sp, #4]
	str	r3, [r4, #16]
	str	r3, [r4, #12]
	str	r3, [sp, #32]
	mov	r7, r0
.LPIC92:
	add	r5, pc, r5
	beq	.L1466
	mov	r2, #2
	add	r1, r4, #20
	add	r0, sp, #24
.LEHB54:
	blx	r6
.LEHE54:
	add	r3, r4, #44
	add	r2, sp, #56
	ldm	r3, {r0, r1}
	ldr	r6, [sp, #12]
	ldr	r3, [r4, #32]
	stmdb	r2, {r0, r1}
	ldr	ip, [r4, #28]
	ldr	r1, [r4, #36]
	ldr	r2, [r4, #40]
	str	r3, [sp, #36]
	add	r8, sp, #16
	mov	r3, #0
	cmp	r6, #0
	str	ip, [sp, #32]
	str	r1, [sp, #40]
	str	r2, [sp, #44]
	str	r3, [r4, #40]
	str	r3, [r4, #36]
	str	r8, [sp, #4]
	beq	.L1468
	ldr	r4, [r6, #40]
	cmp	r4, #0
	beq	.L1474
.L1605:
	ldr	r3, .L1606+4
	ldr	r3, [r5, r3]
	cmp	r3, #0
	beq	.L1475
	add	r3, r4, #28
	mcr	p15, 0, r0, c7, c10, 5
.L1582:
	ldrex	r2, [r3]
	sub	r1, r2, #1
	strex	r0, r1, [r3]
	cmp	r0, #0
	bne	.L1582
	cmp	r2, #1
	mcr	p15, 0, r0, c7, c10, 5
	beq	.L1596
.L1474:
	ldr	r3, [r6, #28]
	cmp	r3, #0
	beq	.L1479
	add	r1, r6, #20
	mov	r0, r1
	mov	r2, #3
	blx	r3
.L1479:
	ldr	r4, [r6, #16]
	cmp	r4, #0
	beq	.L1481
	ldr	r3, .L1606+4
	ldr	r3, [r5, r3]
	cmp	r3, #0
	beq	.L1482
	add	r3, r4, #28
	mcr	p15, 0, r0, c7, c10, 5
.L1581:
	ldrex	r2, [r3]
	sub	r1, r2, #1
	strex	r0, r1, [r3]
	cmp	r0, #0
	bne	.L1581
	cmp	r2, #1
	mcr	p15, 0, r0, c7, c10, 5
	beq	.L1597
.L1481:
	mov	r3, #0
	str	r3, [sp, #12]
.L1468:
	ldr	r4, [sp, #8]
	cmp	r4, #0
	beq	.L1486
	ldr	r3, .L1606+8
	ldr	r3, [r5, r3]
	ldr	r0, [r3]
	bl	pthread_getspecific(PLT)
	cmp	r0, #0
	beq	.L1487
	ldr	r3, [r0, #4]
	cmp	r3, #0
	beq	.L1487
	ldr	r2, [r3]
	cmp	r2, #0
	beq	.L1598
.L1487:
	mov	r0, r4
	bl	_ZdlPv(PLT)
.L1488:
	mov	r3, #0
	str	r3, [sp, #8]
.L1486:
	cmp	r7, #0
	beq	.L1489
	add	r3, sp, #56
	mov	r2, #0
	str	r2, [r3, #-56]!
	mov	r2, #1
.L1580:
	ldrex	r1, [r3]
	strex	r0, r2, [r3]
	cmp	r0, #0
	bne	.L1580
	mcr	p15, 0, r0, c7, c10, 5
	ldr	r3, [sp, #48]
	cmp	r3, #0
	bne	.L1492
	ldr	r3, [sp, #32]
	cmp	r3, #0
	beq	.L1599
	ldr	r3, [sp, #36]
	add	r0, sp, #24
.LEHB55:
	blx	r3
.LEHE55:
.L1492:
	mov	r3, #0
	mcr	p15, 0, r0, c7, c10, 5
	str	r3, [sp]
.L1489:
	ldr	r4, [sp, #44]
	cmp	r4, #0
	beq	.L1494
	ldr	r3, .L1606+4
	ldr	r3, [r5, r3]
	cmp	r3, #0
	beq	.L1495
	add	r3, r4, #28
	mcr	p15, 0, r0, c7, c10, 5
.L1579:
	ldrex	r2, [r3]
	sub	r1, r2, #1
	strex	r0, r1, [r3]
	cmp	r0, #0
	bne	.L1579
	cmp	r2, #1
	mcr	p15, 0, r0, c7, c10, 5
	beq	.L1600
.L1494:
	ldr	r3, [sp, #32]
	cmp	r3, #0
	beq	.L1499
	add	r1, sp, #24
	mov	r0, r1
	mov	r2, #3
	blx	r3
.L1499:
	ldr	r4, [sp, #20]
	cmp	r4, #0
	beq	.L1501
	ldr	r3, .L1606+4
	ldr	r3, [r5, r3]
	cmp	r3, #0
	beq	.L1502
	add	r3, r4, #28
	mcr	p15, 0, r0, c7, c10, 5
.L1578:
	ldrex	r2, [r3]
	sub	r1, r2, #1
	strex	r0, r1, [r3]
	cmp	r0, #0
	bne	.L1578
	cmp	r2, #1
	mcr	p15, 0, r0, c7, c10, 5
	beq	.L1601
.L1501:
	ldr	r4, [sp, #12]
	cmp	r4, #0
	beq	.L1506
	ldr	r6, [r4, #40]
	cmp	r6, #0
	beq	.L1508
	ldr	r3, .L1606+4
	ldr	r3, [r5, r3]
	cmp	r3, #0
	beq	.L1509
	add	r3, r6, #28
	mcr	p15, 0, r0, c7, c10, 5
.L1577:
	ldrex	r2, [r3]
	sub	r1, r2, #1
	strex	r0, r1, [r3]
	cmp	r0, #0
	bne	.L1577
	cmp	r2, #1
	mcr	p15, 0, r0, c7, c10, 5
	beq	.L1602
.L1508:
	ldr	r3, [r4, #28]
	cmp	r3, #0
	beq	.L1513
	add	r1, r4, #20
	mov	r0, r1
	mov	r2, #3
	blx	r3
.L1513:
	ldr	r4, [r4, #16]
	cmp	r4, #0
	beq	.L1515
	ldr	r3, .L1606+4
	ldr	r3, [r5, r3]
	cmp	r3, #0
	beq	.L1516
	add	r3, r4, #28
	mcr	p15, 0, r0, c7, c10, 5
.L1576:
	ldrex	r2, [r3]
	sub	r1, r2, #1
	strex	r0, r1, [r3]
	cmp	r0, #0
	bne	.L1576
	cmp	r2, #1
	mcr	p15, 0, r0, c7, c10, 5
	beq	.L1603
.L1515:
	mov	r3, #0
	str	r3, [sp, #12]
.L1506:
	ldr	r4, [sp, #8]
	cmp	r4, #0
	beq	.L1465
	ldr	r3, .L1606+8
	ldr	r3, [r5, r3]
	ldr	r0, [r3]
	bl	pthread_getspecific(PLT)
	cmp	r0, #0
	beq	.L1521
	ldr	r3, [r0, #4]
	cmp	r3, #0
	beq	.L1521
	ldr	r2, [r3]
	cmp	r2, #0
	beq	.L1604
.L1521:
	mov	r0, r4
	bl	_ZdlPv(PLT)
.L1465:
	add	sp, sp, #56
	@ sp needed
	pop	{r4, r5, r6, r7, r8, pc}
.L1495:
	ldr	r3, [r4, #28]
	cmp	r3, #1
	sub	r3, r3, #1
	str	r3, [r4, #28]
	bne	.L1494
	ldr	r3, [r4]
	mov	r0, r4
	ldr	r3, [r3, #8]
	blx	r3
	mcr	p15, 0, r0, c7, c10, 5
	ldr	r2, [r4, #32]
	sub	r3, r2, #1
	str	r3, [r4, #32]
	b	.L1525
.L1502:
	ldr	r3, [r4, #28]
	cmp	r3, #1
	sub	r3, r3, #1
	str	r3, [r4, #28]
	bne	.L1501
	ldr	r3, [r4]
	mov	r0, r4
	ldr	r3, [r3, #8]
	blx	r3
	mcr	p15, 0, r0, c7, c10, 5
	ldr	r2, [r4, #32]
	sub	r3, r2, #1
	str	r3, [r4, #32]
	b	.L1526
.L1466:
	add	r3, r4, #44
	ldr	r2, [r4, #36]
	ldm	r3, {r0, r1}
	ldr	r3, [r4, #40]
	str	r6, [r4, #36]
	str	r6, [r4, #40]
	mov	r6, r4
	str	r2, [sp, #40]
	ldr	r4, [r6, #40]
	add	r2, sp, #56
	add	r8, sp, #16
	cmp	r4, #0
	stmdb	r2, {r0, r1}
	str	r3, [sp, #44]
	str	r8, [sp, #4]
	bne	.L1605
	b	.L1474
.L1482:
	ldr	r3, [r4, #28]
	cmp	r3, #1
	sub	r3, r3, #1
	str	r3, [r4, #28]
	bne	.L1481
	ldr	r3, [r4]
	mov	r0, r4
	ldr	r3, [r3, #8]
	blx	r3
	mcr	p15, 0, r0, c7, c10, 5
	ldr	r2, [r4, #32]
	sub	r3, r2, #1
	str	r3, [r4, #32]
	b	.L1524
.L1516:
	ldr	r3, [r4, #28]
	cmp	r3, #1
	sub	r3, r3, #1
	str	r3, [r4, #28]
	bne	.L1515
	ldr	r3, [r4]
	mov	r0, r4
	ldr	r3, [r3, #8]
	blx	r3
	mcr	p15, 0, r0, c7, c10, 5
	ldr	r2, [r4, #32]
	sub	r3, r2, #1
	str	r3, [r4, #32]
	b	.L1528
.L1601:
	ldr	r3, [r4]
	mov	r0, r4
	ldr	r3, [r3, #8]
	blx	r3
	add	r3, r4, #32
	mcr	p15, 0, r0, c7, c10, 5
	mcr	p15, 0, r0, c7, c10, 5
.L1572:
	ldrex	r2, [r3]
	sub	r1, r2, #1
	strex	r0, r1, [r3]
	cmp	r0, #0
	bne	.L1572
	mcr	p15, 0, r0, c7, c10, 5
.L1526:
	cmp	r2, #1
	bne	.L1501
	ldr	r3, [r4]
	mov	r0, r4
	ldr	r3, [r3, #12]
	blx	r3
	b	.L1501
.L1600:
	ldr	r3, [r4]
	mov	r0, r4
	ldr	r3, [r3, #8]
	blx	r3
	add	r3, r4, #32
	mcr	p15, 0, r0, c7, c10, 5
	mcr	p15, 0, r0, c7, c10, 5
.L1573:
	ldrex	r2, [r3]
	sub	r1, r2, #1
	strex	r0, r1, [r3]
	cmp	r0, #0
	bne	.L1573
	mcr	p15, 0, r0, c7, c10, 5
.L1525:
	cmp	r2, #1
	bne	.L1494
	ldr	r3, [r4]
	mov	r0, r4
	ldr	r3, [r3, #12]
	blx	r3
	b	.L1494
.L1597:
	ldr	r3, [r4]
	mov	r0, r4
	ldr	r3, [r3, #8]
	blx	r3
	add	r3, r4, #32
	mcr	p15, 0, r0, c7, c10, 5
	mcr	p15, 0, r0, c7, c10, 5
.L1574:
	ldrex	r2, [r3]
	sub	r1, r2, #1
	strex	r0, r1, [r3]
	cmp	r0, #0
	bne	.L1574
	mcr	p15, 0, r0, c7, c10, 5
.L1524:
	cmp	r2, #1
	bne	.L1481
	ldr	r3, [r4]
	mov	r0, r4
	ldr	r3, [r3, #12]
	blx	r3
	b	.L1481
.L1603:
	ldr	r3, [r4]
	mov	r0, r4
	ldr	r3, [r3, #8]
	blx	r3
	add	r3, r4, #32
	mcr	p15, 0, r0, c7, c10, 5
	mcr	p15, 0, r0, c7, c10, 5
.L1570:
	ldrex	r2, [r3]
	sub	r1, r2, #1
	strex	r0, r1, [r3]
	cmp	r0, #0
	bne	.L1570
	mcr	p15, 0, r0, c7, c10, 5
.L1528:
	cmp	r2, #1
	bne	.L1515
	ldr	r3, [r4]
	mov	r0, r4
	ldr	r3, [r3, #12]
	blx	r3
	b	.L1515
.L1596:
	ldr	r3, [r4]
	mov	r0, r4
	ldr	r3, [r3, #8]
	blx	r3
	add	r3, r4, #32
	mcr	p15, 0, r0, c7, c10, 5
	mcr	p15, 0, r0, c7, c10, 5
.L1575:
	ldrex	r2, [r3]
	sub	r1, r2, #1
	strex	r0, r1, [r3]
	cmp	r0, #0
	bne	.L1575
	mcr	p15, 0, r0, c7, c10, 5
.L1523:
	cmp	r2, #1
	bne	.L1474
	ldr	r3, [r4]
	mov	r0, r4
	ldr	r3, [r3, #12]
	blx	r3
	b	.L1474
.L1602:
	ldr	r3, [r6]
	mov	r0, r6
	ldr	r3, [r3, #8]
	blx	r3
	add	r3, r6, #32
	mcr	p15, 0, r0, c7, c10, 5
	mcr	p15, 0, r0, c7, c10, 5
.L1571:
	ldrex	r2, [r3]
	sub	r1, r2, #1
	strex	r0, r1, [r3]
	cmp	r0, #0
	bne	.L1571
	mcr	p15, 0, r0, c7, c10, 5
.L1527:
	cmp	r2, #1
	bne	.L1508
	ldr	r3, [r6]
	mov	r0, r6
	ldr	r3, [r3, #12]
	blx	r3
	b	.L1508
.L1475:
	ldr	r3, [r4, #28]
	cmp	r3, #1
	sub	r3, r3, #1
	str	r3, [r4, #28]
	bne	.L1474
	ldr	r3, [r4]
	mov	r0, r4
	ldr	r3, [r3, #8]
	blx	r3
	mcr	p15, 0, r0, c7, c10, 5
	ldr	r2, [r4, #32]
	sub	r3, r2, #1
	str	r3, [r4, #32]
	b	.L1523
.L1509:
	ldr	r3, [r6, #28]
	cmp	r3, #1
	sub	r3, r3, #1
	str	r3, [r6, #28]
	bne	.L1508
	ldr	r3, [r6]
	mov	r0, r6
	ldr	r3, [r3, #8]
	blx	r3
	mcr	p15, 0, r0, c7, c10, 5
	ldr	r2, [r6, #32]
	sub	r3, r2, #1
	str	r3, [r6, #32]
	b	.L1527
.L1604:
	ldrb	r2, [r4, #52]	@ zero_extendqisi2
	strb	r2, [r4]
	str	r4, [r3]
	b	.L1465
.L1598:
	ldrb	r2, [r4, #52]	@ zero_extendqisi2
	strb	r2, [r4]
	str	r4, [r3]
	b	.L1488
.L1599:
.LEHB56:
	bl	_ZSt25__throw_bad_function_callv(PLT)
.LEHE56:
.L1529:
	mov	r3, #0
	mcr	p15, 0, r0, c7, c10, 5
	mov	r0, r8
	str	r3, [sp]
	bl	_ZZN7asiopal8Executor5StartERKNSt6chrono10time_pointINS1_3_V212steady_clockENS1_8durationIxSt5ratioILx1ELx1000000000EEEEEERKSt8functionIFvvEEENUlRKSt10error_codeE_D1Ev(PLT)
.L1472:
	add	r0, sp, #4
	bl	_ZN4asio6detail18completion_handlerINS0_7binder1IZN7asiopal8Executor5StartERKNSt6chrono10time_pointINS5_3_V212steady_clockENS5_8durationIxSt5ratioILx1ELx1000000000EEEEEERKSt8functionIFvvEEEUlRKSt10error_codeE_SL_EEE3ptr5resetEv(PLT)
.LEHB57:
	bl	__cxa_end_cleanup(PLT)
.LEHE57:
.L1530:
	ldr	r3, [sp, #32]
	cmp	r3, #0
	beq	.L1470
	add	r1, sp, #24
	mov	r0, r1
	mov	r2, #3
	blx	r3
.L1470:
	ldr	r0, [sp, #20]
	cmp	r0, #0
	beq	.L1472
	bl	_ZNSt16_Sp_counted_baseILN9__gnu_cxx12_Lock_policyE1EE10_M_releaseEv(PLT)
	b	.L1472
.L1607:
	.align	2
.L1606:
	.word	_GLOBAL_OFFSET_TABLE_-(.LPIC92+8)
	.word	_ZL28__gthrw___pthread_key_createPjPFvPvE(GOT)
	.word	_ZN4asio6detail10call_stackINS0_15task_io_serviceENS0_27task_io_service_thread_infoEE4top_E(GOT)
	.personality	__gxx_personality_v0
	.handlerdata
.LLSDA8967:
	.byte	0xff
	.byte	0xff
	.byte	0x1
	.uleb128 .LLSDACSE8967-.LLSDACSB8967
.LLSDACSB8967:
	.uleb128 .LEHB54-.LFB8967
	.uleb128 .LEHE54-.LEHB54
	.uleb128 .L1530-.LFB8967
	.uleb128 0
	.uleb128 .LEHB55-.LFB8967
	.uleb128 .LEHE55-.LEHB55
	.uleb128 .L1529-.LFB8967
	.uleb128 0
	.uleb128 .LEHB56-.LFB8967
	.uleb128 .LEHE56-.LEHB56
	.uleb128 .L1529-.LFB8967
	.uleb128 0
	.uleb128 .LEHB57-.LFB8967
	.uleb128 .LEHE57-.LEHB57
	.uleb128 0
	.uleb128 0
.LLSDACSE8967:
	.text
	.fnend
	.size	_ZN4asio6detail18completion_handlerINS0_7binder1IZN7asiopal8Executor5StartERKNSt6chrono10time_pointINS5_3_V212steady_clockENS5_8durationIxSt5ratioILx1ELx1000000000EEEEEERKSt8functionIFvvEEEUlRKSt10error_codeE_SL_EEE11do_completeEPNS0_15task_io_serviceEPNS0_25task_io_service_operationESN_j, .-_ZN4asio6detail18completion_handlerINS0_7binder1IZN7asiopal8Executor5StartERKNSt6chrono10time_pointINS5_3_V212steady_clockENS5_8durationIxSt5ratioILx1ELx1000000000EEEEEERKSt8functionIFvvEEEUlRKSt10error_codeE_SL_EEE11do_completeEPNS0_15task_io_serviceEPNS0_25task_io_service_operationESN_j
	.align	2
	.syntax unified
	.arm
	.fpu vfp
	.type	_ZN4asio6detail18completion_handlerINS0_17rewrapped_handlerINS0_7binder1INS0_15wrapped_handlerINS_10io_service6strandEZN7asiopal8Executor5StartERKNSt6chrono10time_pointINS9_3_V212steady_clockENS9_8durationIxSt5ratioILx1ELx1000000000EEEEEERKSt8functionIFvvEEEUlRKSt10error_codeE_NS0_26is_continuation_if_runningEEESP_EESS_EEE11do_completeEPNS0_15task_io_serviceEPNS0_25task_io_service_operationESR_j, %function
_ZN4asio6detail18completion_handlerINS0_17rewrapped_handlerINS0_7binder1INS0_15wrapped_handlerINS_10io_service6strandEZN7asiopal8Executor5StartERKNSt6chrono10time_pointINS9_3_V212steady_clockENS9_8durationIxSt5ratioILx1ELx1000000000EEEEEERKSt8functionIFvvEEEUlRKSt10error_codeE_NS0_26is_continuation_if_runningEEESP_EESS_EEE11do_completeEPNS0_15task_io_serviceEPNS0_25task_io_service_operationESR_j:
	.fnstart
.LFB8902:
	@ args = 0, pretend = 0, frame = 312
	@ frame_needed = 0, uses_anonymous_args = 0
	push	{r4, r5, r6, r7, r8, r9, r10, fp, lr}
	.save {r4, r5, r6, r7, r8, r9, r10, fp, lr}
	add	r2, r1, #12
	ldr	r6, [r1, #28]
	.pad #316
	sub	sp, sp, #316
	mov	r5, r1
	ldr	ip, [r1, #12]
	ldr	r4, .L2313
	ldr	r1, [r1, #16]
	mov	r3, #0
	cmp	r6, #0
	str	r5, [sp, #28]
	str	r5, [sp, #32]
	str	ip, [sp, #232]
	str	r1, [sp, #236]
	str	r2, [sp, #24]
	str	r3, [r5, #16]
	str	r3, [r5, #12]
	str	r3, [sp, #248]
	mov	r9, r0
.LPIC93:
	add	r4, pc, r4
	beq	.L1609
	add	r7, sp, #240
	mov	r0, r7
	mov	r2, #2
	add	r1, r5, #20
.LEHB58:
	blx	r6
.LEHE58:
	ldr	r2, [r5, #32]
	ldr	r3, [r5, #28]
	str	r2, [sp, #252]
	str	r3, [sp, #248]
.L1609:
	add	r3, r5, #44
	ldr	r6, [r5, #68]
	ldm	r3, {r0, r1}
	add	r3, sp, #264
	ldr	ip, [r5, #36]
	stm	r3, {r0, r1}
	ldr	r2, [r5, #56]
	ldr	r0, [r5, #40]
	ldr	r1, [r5, #52]
	mov	r3, #0
	cmp	r6, #0
	str	ip, [sp, #256]
	str	r0, [sp, #260]
	str	r1, [sp, #272]
	str	r2, [sp, #276]
	str	r3, [r5, #40]
	str	r3, [r5, #36]
	str	r3, [r5, #56]
	str	r3, [r5, #52]
	str	r3, [sp, #288]
	beq	.L1611
	add	r7, sp, #280
	mov	r0, r7
	mov	r2, #2
	add	r1, r5, #60
.LEHB59:
	blx	r6
.LEHE59:
	ldr	r2, [r5, #72]
	ldr	r3, [r5, #68]
	str	r2, [sp, #292]
	str	r3, [sp, #288]
.L1611:
	add	r3, r5, #84
	ldr	r6, [sp, #32]
	ldm	r3, {r0, r1}
	ldr	ip, [r5, #76]
	ldr	r2, [r5, #80]
	add	r8, sp, #304
	mov	r3, #0
	add	r7, sp, #232
	cmp	r6, #0
	stm	r8, {r0, r1}
	str	ip, [sp, #296]
	str	r2, [sp, #300]
	str	r3, [r5, #80]
	str	r3, [r5, #76]
	str	r7, [sp, #24]
	beq	.L1617
	ldr	r5, [r6, #80]
	cmp	r5, #0
	beq	.L1622
	ldr	r3, .L2313+16
	ldr	r3, [r4, r3]
	cmp	r3, #0
	beq	.L1623
	add	r3, r5, #28
	mcr	p15, 0, r0, c7, c10, 5
.L2216:
	ldrex	r2, [r3]
	sub	r1, r2, #1
	strex	r0, r1, [r3]
	cmp	r0, #0
	bne	.L2216
	cmp	r2, #1
	mcr	p15, 0, r0, c7, c10, 5
	beq	.L2276
.L1622:
	ldr	r3, [r6, #68]
	cmp	r3, #0
	beq	.L1627
	add	r1, r6, #60
	mov	r0, r1
	mov	r2, #3
	blx	r3
.L1627:
	ldr	r5, [r6, #56]
	cmp	r5, #0
	beq	.L1629
	ldr	r3, .L2313+16
	ldr	r3, [r4, r3]
	cmp	r3, #0
	beq	.L1630
	add	r3, r5, #28
	mcr	p15, 0, r0, c7, c10, 5
.L2215:
	ldrex	r2, [r3]
	sub	r1, r2, #1
	strex	r0, r1, [r3]
	cmp	r0, #0
	bne	.L2215
	cmp	r2, #1
	mcr	p15, 0, r0, c7, c10, 5
	beq	.L2277
.L1629:
	ldr	r5, [r6, #40]
	cmp	r5, #0
	beq	.L1635
	ldr	r3, .L2313+16
	ldr	r3, [r4, r3]
	cmp	r3, #0
	beq	.L1636
	add	r3, r5, #28
	mcr	p15, 0, r0, c7, c10, 5
.L2214:
	ldrex	r2, [r3]
	sub	r1, r2, #1
	strex	r0, r1, [r3]
	cmp	r0, #0
	bne	.L2214
	cmp	r2, #1
	mcr	p15, 0, r0, c7, c10, 5
	beq	.L2278
.L1635:
	ldr	r3, [r6, #28]
	cmp	r3, #0
	beq	.L1640
	add	r1, r6, #20
	mov	r0, r1
	mov	r2, #3
	blx	r3
.L1640:
	ldr	r5, [r6, #16]
	cmp	r5, #0
	beq	.L1642
	ldr	r3, .L2313+16
	ldr	r3, [r4, r3]
	cmp	r3, #0
	beq	.L1643
	add	r3, r5, #28
	mcr	p15, 0, r0, c7, c10, 5
.L2213:
	ldrex	r2, [r3]
	sub	r1, r2, #1
	strex	r0, r1, [r3]
	cmp	r0, #0
	bne	.L2213
	cmp	r2, #1
	mcr	p15, 0, r0, c7, c10, 5
	beq	.L2279
.L1642:
	mov	r3, #0
	str	r3, [sp, #32]
.L1617:
	ldr	r5, [sp, #28]
	cmp	r5, #0
	beq	.L1647
	ldr	r3, .L2313+8
	ldr	r3, [r4, r3]
	ldr	r0, [r3]
	bl	pthread_getspecific(PLT)
	cmp	r0, #0
	beq	.L1648
	ldr	r3, [r0, #4]
	cmp	r3, #0
	beq	.L1648
	ldr	r2, [r3]
	cmp	r2, #0
	beq	.L2280
.L1648:
	mov	r0, r5
	bl	_ZdlPv(PLT)
.L1649:
	mov	r3, #0
	str	r3, [sp, #28]
.L1647:
	cmp	r9, #0
	beq	.L1650
	add	r3, sp, #312
	mov	r2, #0
	str	r2, [r3, #-304]!
	mov	r2, #1
.L2212:
	ldrex	r1, [r3]
	strex	r0, r2, [r3]
	cmp	r0, #0
	bne	.L2212
	mcr	p15, 0, r0, c7, c10, 5
	ldr	r3, [sp, #276]
	ldr	r2, [sp, #272]
	cmp	r3, #0
	str	r2, [sp, #72]
	str	r3, [sp, #76]
	beq	.L1651
	ldr	r2, .L2313+16
	ldr	r2, [r4, r2]
	cmp	r2, #0
	beq	.L1652
	add	r3, r3, #28
	mcr	p15, 0, r0, c7, c10, 5
.L2211:
	ldrex	r2, [r3]
	add	r2, r2, #1
	strex	r1, r2, [r3]
	cmp	r1, #0
	bne	.L2211
	mcr	p15, 0, r0, c7, c10, 5
.L1651:
	ldr	r3, [sp, #288]
	mov	r2, #0
	cmp	r3, r2
	str	r2, [sp, #88]
	beq	.L1653
	add	r5, sp, #80
	mov	r0, r5
	mov	r2, #2
	add	r1, sp, #280
.LEHB60:
	blx	r3
.LEHE60:
	ldr	r2, [sp, #292]
	ldr	r3, [sp, #288]
	str	r2, [sp, #92]
	str	r3, [sp, #88]
.L1653:
	ldr	r2, [sp, #300]
	ldr	r1, [sp, #296]
	cmp	r2, #0
	str	r2, [sp, #100]
	str	r1, [sp, #96]
	beq	.L1655
	ldr	r3, .L2313+16
	ldr	r3, [r4, r3]
	cmp	r3, #0
	beq	.L1660
	add	r2, r2, #28
	mcr	p15, 0, r0, c7, c10, 5
.L2210:
	ldrex	r3, [r2]
	add	r3, r3, #1
	strex	r1, r3, [r2]
	cmp	r1, #0
	bne	.L2210
	mcr	p15, 0, r0, c7, c10, 5
	ldr	r3, [sp, #88]
.L1655:
	ldr	lr, [sp, #72]
	ldr	ip, [sp, #76]
	mov	r2, #0
	cmp	r3, #0
	str	lr, [sp, #104]
	str	ip, [sp, #108]
	str	r2, [sp, #76]
	str	r2, [sp, #72]
	str	r2, [sp, #120]
	beq	.L1662
	add	r5, sp, #112
	mov	r0, r5
	mov	r2, #2
	add	r1, sp, #80
.LEHB61:
	blx	r3
.LEHE61:
	ldr	lr, [sp, #104]
	ldr	ip, [sp, #108]
	ldr	r2, [sp, #92]
	ldr	r3, [sp, #88]
	str	r2, [sp, #124]
	str	r3, [sp, #120]
.L1662:
	ldm	r8, {r0, r1}
	add	r5, sp, #136
	str	lr, [sp, #188]
	str	ip, [sp, #192]
	ldr	lr, [sp, #96]
	ldr	ip, [sp, #100]
	mov	r2, #0
	cmp	r3, #0
	stm	r5, {r0, r1}
	str	lr, [sp, #128]
	str	ip, [sp, #132]
	str	r2, [sp, #100]
	str	r2, [sp, #96]
	str	r2, [sp, #108]
	str	r2, [sp, #104]
	str	r2, [sp, #204]
	beq	.L1665
	add	r6, sp, #196
	mov	r0, r6
	mov	r2, #2
	add	r1, sp, #112
.LEHB62:
	blx	r3
.LEHE62:
	ldr	lr, [sp, #128]
	ldr	ip, [sp, #132]
	ldr	r2, [sp, #124]
	ldr	r3, [sp, #120]
	str	r2, [sp, #208]
	str	r3, [sp, #204]
.L1665:
	ldm	r5, {r0, r1}
	ldr	r3, .L2313+4
	add	r5, sp, #220
	mov	r2, #0
	stm	r5, {r0, r1}
	str	lr, [sp, #212]
	str	ip, [sp, #216]
	str	r2, [sp, #132]
	str	r2, [sp, #128]
	ldr	r3, [r4, r3]
	ldr	r8, [sp, #264]
	str	r3, [sp]
	ldr	r0, [r3]
	ldr	r6, [sp, #268]
	bl	pthread_getspecific(PLT)
	cmp	r0, #0
	bne	.L2146
	b	.L1670
.L1678:
	ldr	r0, [r0, #8]
	cmp	r0, #0
	beq	.L1670
.L2146:
	ldr	r3, [r0]
	cmp	r6, r3
	bne	.L1678
	ldr	r3, [r0, #4]
	cmp	r3, #0
	addne	r3, sp, #312
	movne	r2, #0
	strne	r2, [r3, #-264]!
	movne	r2, #1
	beq	.L1670
.L2209:
	ldrex	r1, [r3]
	strex	r0, r2, [r3]
	cmp	r0, #0
	bne	.L2209
	mcr	p15, 0, r0, c7, c10, 5
	ldr	r3, [sp, #220]
	cmp	r3, #0
	bne	.L1684
	ldr	r3, [sp, #204]
	cmp	r3, #0
	beq	.L2281
	ldr	r3, [sp, #208]
	add	r0, sp, #196
.LEHB63:
	blx	r3
.LEHE63:
.L1684:
	mov	r3, #0
	mcr	p15, 0, r0, c7, c10, 5
	str	r3, [sp, #48]
.L1682:
	ldr	r5, [sp, #216]
	cmp	r5, #0
	beq	.L1815
	ldr	r3, .L2313+16
	ldr	r3, [r4, r3]
	cmp	r3, #0
	beq	.L1816
	add	r3, r5, #28
	mcr	p15, 0, r0, c7, c10, 5
.L2197:
	ldrex	r2, [r3]
	sub	r1, r2, #1
	strex	r0, r1, [r3]
	cmp	r0, #0
	bne	.L2197
	cmp	r2, #1
	mcr	p15, 0, r0, c7, c10, 5
	beq	.L2282
.L1815:
	ldr	r3, [sp, #204]
	cmp	r3, #0
	beq	.L1820
	add	r1, sp, #196
	mov	r0, r1
	mov	r2, #3
	blx	r3
.L1820:
	ldr	r5, [sp, #192]
	cmp	r5, #0
	beq	.L1822
	ldr	r3, .L2313+16
	ldr	r3, [r4, r3]
	cmp	r3, #0
	beq	.L1823
	add	r3, r5, #28
	mcr	p15, 0, r0, c7, c10, 5
.L2196:
	ldrex	r2, [r3]
	sub	r1, r2, #1
	strex	r0, r1, [r3]
	cmp	r0, #0
	bne	.L2196
	cmp	r2, #1
	mcr	p15, 0, r0, c7, c10, 5
	beq	.L2283
.L1822:
	ldr	r5, [sp, #132]
	cmp	r5, #0
	beq	.L1828
	ldr	r3, .L2313+16
	ldr	r3, [r4, r3]
	cmp	r3, #0
	beq	.L1829
	add	r3, r5, #28
	mcr	p15, 0, r0, c7, c10, 5
.L2195:
	ldrex	r2, [r3]
	sub	r1, r2, #1
	strex	r0, r1, [r3]
	cmp	r0, #0
	bne	.L2195
	cmp	r2, #1
	mcr	p15, 0, r0, c7, c10, 5
	beq	.L2284
.L1828:
	ldr	r3, [sp, #120]
	cmp	r3, #0
	beq	.L1833
	add	r1, sp, #112
	mov	r0, r1
	mov	r2, #3
	blx	r3
.L1833:
	ldr	r5, [sp, #108]
	cmp	r5, #0
	beq	.L1835
	ldr	r3, .L2313+16
	ldr	r3, [r4, r3]
	cmp	r3, #0
	beq	.L1836
	add	r3, r5, #28
	mcr	p15, 0, r0, c7, c10, 5
.L2194:
	ldrex	r2, [r3]
	sub	r1, r2, #1
	strex	r0, r1, [r3]
	cmp	r0, #0
	bne	.L2194
	cmp	r2, #1
	mcr	p15, 0, r0, c7, c10, 5
	beq	.L2285
.L1835:
	ldr	r5, [sp, #100]
	cmp	r5, #0
	beq	.L1841
	ldr	r3, .L2313+16
	ldr	r3, [r4, r3]
	cmp	r3, #0
	beq	.L1842
	add	r3, r5, #28
	mcr	p15, 0, r0, c7, c10, 5
.L2193:
	ldrex	r2, [r3]
	sub	r1, r2, #1
	strex	r0, r1, [r3]
	cmp	r0, #0
	bne	.L2193
	cmp	r2, #1
	mcr	p15, 0, r0, c7, c10, 5
	beq	.L2286
.L1841:
	ldr	r3, [sp, #88]
	cmp	r3, #0
	beq	.L1846
	add	r1, sp, #80
	mov	r0, r1
	mov	r2, #3
	blx	r3
.L1846:
	ldr	r5, [sp, #76]
	cmp	r5, #0
	beq	.L1848
	ldr	r3, .L2313+16
	ldr	r3, [r4, r3]
	cmp	r3, #0
	beq	.L1849
	add	r3, r5, #28
	mcr	p15, 0, r0, c7, c10, 5
.L2192:
	ldrex	r2, [r3]
	sub	r1, r2, #1
	strex	r0, r1, [r3]
	cmp	r0, #0
	bne	.L2192
	cmp	r2, #1
	mcr	p15, 0, r0, c7, c10, 5
	beq	.L2287
.L1848:
	mov	r3, #0
	mcr	p15, 0, r0, c7, c10, 5
	str	r3, [sp, #8]
.L1650:
	ldr	r5, [sp, #300]
	cmp	r5, #0
	beq	.L1854
	ldr	r3, .L2313+16
	ldr	r3, [r4, r3]
	cmp	r3, #0
	beq	.L1855
	add	r3, r5, #28
	mcr	p15, 0, r0, c7, c10, 5
.L2191:
	ldrex	r2, [r3]
	sub	r1, r2, #1
	strex	r0, r1, [r3]
	cmp	r0, #0
	bne	.L2191
	cmp	r2, #1
	mcr	p15, 0, r0, c7, c10, 5
	beq	.L2288
.L1854:
	ldr	r3, [sp, #288]
	cmp	r3, #0
	beq	.L1859
	add	r1, sp, #280
	mov	r0, r1
	mov	r2, #3
	blx	r3
.L1859:
	ldr	r5, [sp, #276]
	cmp	r5, #0
	beq	.L1861
	ldr	r3, .L2313+16
	ldr	r3, [r4, r3]
	cmp	r3, #0
	beq	.L1862
	add	r3, r5, #28
	mcr	p15, 0, r0, c7, c10, 5
.L2190:
	ldrex	r2, [r3]
	sub	r1, r2, #1
	strex	r0, r1, [r3]
	cmp	r0, #0
	bne	.L2190
	cmp	r2, #1
	mcr	p15, 0, r0, c7, c10, 5
	beq	.L2289
.L1861:
	ldr	r5, [sp, #260]
	cmp	r5, #0
	beq	.L1867
	ldr	r3, .L2313+16
	ldr	r3, [r4, r3]
	cmp	r3, #0
	beq	.L1868
	add	r3, r5, #28
	mcr	p15, 0, r0, c7, c10, 5
.L2189:
	ldrex	r2, [r3]
	sub	r1, r2, #1
	strex	r0, r1, [r3]
	cmp	r0, #0
	bne	.L2189
	cmp	r2, #1
	mcr	p15, 0, r0, c7, c10, 5
	beq	.L2290
.L1867:
	ldr	r3, [sp, #248]
	cmp	r3, #0
	beq	.L1872
	add	r1, sp, #240
	mov	r0, r1
	mov	r2, #3
	blx	r3
.L1872:
	ldr	r5, [sp, #236]
	cmp	r5, #0
	beq	.L1874
	ldr	r3, .L2313+16
	ldr	r3, [r4, r3]
	cmp	r3, #0
	beq	.L1875
	add	r3, r5, #28
	mcr	p15, 0, r0, c7, c10, 5
.L2188:
	ldrex	r2, [r3]
	sub	r1, r2, #1
	strex	r0, r1, [r3]
	cmp	r0, #0
	bne	.L2188
	cmp	r2, #1
	mcr	p15, 0, r0, c7, c10, 5
	beq	.L2291
.L1874:
	ldr	r5, [sp, #32]
	cmp	r5, #0
	beq	.L1879
	ldr	r6, [r5, #80]
	cmp	r6, #0
	beq	.L1881
	ldr	r3, .L2313+16
	ldr	r3, [r4, r3]
	cmp	r3, #0
	beq	.L1882
	add	r3, r6, #28
	mcr	p15, 0, r0, c7, c10, 5
.L2187:
	ldrex	r2, [r3]
	sub	r1, r2, #1
	strex	r0, r1, [r3]
	cmp	r0, #0
	bne	.L2187
	cmp	r2, #1
	mcr	p15, 0, r0, c7, c10, 5
	beq	.L2292
.L1881:
	ldr	r3, [r5, #68]
	cmp	r3, #0
	beq	.L1886
	add	r1, r5, #60
	mov	r0, r1
	mov	r2, #3
	blx	r3
.L1886:
	ldr	r6, [r5, #56]
	cmp	r6, #0
	beq	.L1888
	ldr	r3, .L2313+16
	ldr	r3, [r4, r3]
	cmp	r3, #0
	beq	.L1889
	add	r3, r6, #28
	mcr	p15, 0, r0, c7, c10, 5
.L2186:
	ldrex	r2, [r3]
	sub	r1, r2, #1
	strex	r0, r1, [r3]
	cmp	r0, #0
	bne	.L2186
	cmp	r2, #1
	mcr	p15, 0, r0, c7, c10, 5
	beq	.L2293
.L1888:
	ldr	r6, [r5, #40]
	cmp	r6, #0
	beq	.L1894
	ldr	r3, .L2313+16
	ldr	r3, [r4, r3]
	cmp	r3, #0
	beq	.L1895
	add	r3, r6, #28
	mcr	p15, 0, r0, c7, c10, 5
.L2185:
	ldrex	r2, [r3]
	sub	r1, r2, #1
	strex	r0, r1, [r3]
	cmp	r0, #0
	bne	.L2185
	cmp	r2, #1
	mcr	p15, 0, r0, c7, c10, 5
	beq	.L2294
.L1894:
	ldr	r3, [r5, #28]
	cmp	r3, #0
	beq	.L1899
	add	r1, r5, #20
	mov	r0, r1
	mov	r2, #3
	blx	r3
.L1899:
	ldr	r5, [r5, #16]
	cmp	r5, #0
	beq	.L1901
	ldr	r3, .L2313+16
	ldr	r3, [r4, r3]
	cmp	r3, #0
	beq	.L1902
	add	r3, r5, #28
	mcr	p15, 0, r0, c7, c10, 5
.L2184:
	ldrex	r2, [r3]
	sub	r1, r2, #1
	strex	r0, r1, [r3]
	cmp	r0, #0
	bne	.L2184
	cmp	r2, #1
	mcr	p15, 0, r0, c7, c10, 5
	beq	.L2295
.L1901:
	mov	r3, #0
	str	r3, [sp, #32]
.L1879:
	ldr	r5, [sp, #28]
	cmp	r5, #0
	beq	.L1608
	ldr	r3, .L2313+8
	ldr	r3, [r4, r3]
	ldr	r0, [r3]
	bl	pthread_getspecific(PLT)
	cmp	r0, #0
	beq	.L1907
	ldr	r3, [r0, #4]
	cmp	r3, #0
	beq	.L1907
	ldr	r2, [r3]
	cmp	r2, #0
	beq	.L2296
.L1907:
	mov	r0, r5
	bl	_ZdlPv(PLT)
.L1608:
	add	sp, sp, #316
	@ sp needed
	pop	{r4, r5, r6, r7, r8, r9, r10, fp, pc}
.L1652:
	ldr	r2, [r3, #28]
	add	r2, r2, #1
	str	r2, [r3, #28]
	b	.L1651
.L1660:
	ldr	r1, [r2, #28]
	ldr	r3, [sp, #88]
	add	r1, r1, #1
	str	r1, [r2, #28]
	b	.L1655
.L1868:
	ldr	r3, [r5, #28]
	cmp	r3, #1
	sub	r3, r3, #1
	str	r3, [r5, #28]
	bne	.L1867
	ldr	r3, [r5]
	mov	r0, r5
	ldr	r3, [r3, #8]
	blx	r3
	mcr	p15, 0, r0, c7, c10, 5
	ldr	r2, [r5, #32]
	sub	r3, r2, #1
	str	r3, [r5, #32]
	b	.L1930
.L1855:
	ldr	r3, [r5, #28]
	cmp	r3, #1
	sub	r3, r3, #1
	str	r3, [r5, #28]
	bne	.L1854
	ldr	r3, [r5]
	mov	r0, r5
	ldr	r3, [r3, #8]
	blx	r3
	mcr	p15, 0, r0, c7, c10, 5
	ldr	r2, [r5, #32]
	sub	r3, r2, #1
	str	r3, [r5, #32]
	b	.L1928
.L1862:
	ldr	r3, [r5, #28]
	cmp	r3, #1
	sub	r3, r3, #1
	str	r3, [r5, #28]
	bne	.L1861
	ldr	r3, [r5]
	mov	r0, r5
	ldr	r3, [r3, #8]
	blx	r3
	mcr	p15, 0, r0, c7, c10, 5
	ldr	r2, [r5, #32]
	sub	r3, r2, #1
	str	r3, [r5, #32]
	b	.L1929
.L1875:
	ldr	r3, [r5, #28]
	cmp	r3, #1
	sub	r3, r3, #1
	str	r3, [r5, #28]
	bne	.L1874
	ldr	r3, [r5]
	mov	r0, r5
	ldr	r3, [r3, #8]
	blx	r3
	mcr	p15, 0, r0, c7, c10, 5
	ldr	r2, [r5, #32]
	sub	r3, r2, #1
	str	r3, [r5, #32]
	b	.L1931
.L1849:
	ldr	r3, [r5, #28]
	cmp	r3, #1
	sub	r3, r3, #1
	str	r3, [r5, #28]
	bne	.L1848
	ldr	r3, [r5]
	mov	r0, r5
	ldr	r3, [r3, #8]
	blx	r3
	mcr	p15, 0, r0, c7, c10, 5
	ldr	r2, [r5, #32]
	sub	r3, r2, #1
	str	r3, [r5, #32]
	b	.L1927
.L1823:
	ldr	r3, [r5, #28]
	cmp	r3, #1
	sub	r3, r3, #1
	str	r3, [r5, #28]
	bne	.L1822
	ldr	r3, [r5]
	mov	r0, r5
	ldr	r3, [r3, #8]
	blx	r3
	mcr	p15, 0, r0, c7, c10, 5
	ldr	r2, [r5, #32]
	sub	r3, r2, #1
	str	r3, [r5, #32]
	b	.L1923
.L1836:
	ldr	r3, [r5, #28]
	cmp	r3, #1
	sub	r3, r3, #1
	str	r3, [r5, #28]
	bne	.L1835
	ldr	r3, [r5]
	mov	r0, r5
	ldr	r3, [r3, #8]
	blx	r3
	mcr	p15, 0, r0, c7, c10, 5
	ldr	r2, [r5, #32]
	sub	r3, r2, #1
	str	r3, [r5, #32]
	b	.L1925
.L1643:
	ldr	r3, [r5, #28]
	cmp	r3, #1
	sub	r3, r3, #1
	str	r3, [r5, #28]
	bne	.L1642
	ldr	r3, [r5]
	mov	r0, r5
	ldr	r3, [r3, #8]
	blx	r3
	mcr	p15, 0, r0, c7, c10, 5
	ldr	r2, [r5, #32]
	sub	r3, r2, #1
	str	r3, [r5, #32]
	b	.L1913
.L1630:
	ldr	r3, [r5, #28]
	cmp	r3, #1
	sub	r3, r3, #1
	str	r3, [r5, #28]
	bne	.L1629
	ldr	r3, [r5]
	mov	r0, r5
	ldr	r3, [r3, #8]
	blx	r3
	mcr	p15, 0, r0, c7, c10, 5
	ldr	r2, [r5, #32]
	sub	r3, r2, #1
	str	r3, [r5, #32]
	b	.L1911
.L1902:
	ldr	r3, [r5, #28]
	cmp	r3, #1
	sub	r3, r3, #1
	str	r3, [r5, #28]
	bne	.L1901
	ldr	r3, [r5]
	mov	r0, r5
	ldr	r3, [r3, #8]
	blx	r3
	mcr	p15, 0, r0, c7, c10, 5
	ldr	r2, [r5, #32]
	sub	r3, r2, #1
	str	r3, [r5, #32]
	b	.L1935
.L1889:
	ldr	r3, [r6, #28]
	cmp	r3, #1
	sub	r3, r3, #1
	str	r3, [r6, #28]
	bne	.L1888
	ldr	r3, [r6]
	mov	r0, r6
	ldr	r3, [r3, #8]
	blx	r3
	mcr	p15, 0, r0, c7, c10, 5
	ldr	r2, [r6, #32]
	sub	r3, r2, #1
	str	r3, [r6, #32]
	b	.L1933
.L2291:
	ldr	r3, [r5]
	mov	r0, r5
	ldr	r3, [r3, #8]
	blx	r3
	add	r3, r5, #32
	mcr	p15, 0, r0, c7, c10, 5
	mcr	p15, 0, r0, c7, c10, 5
.L2162:
	ldrex	r2, [r3]
	sub	r1, r2, #1
	strex	r0, r1, [r3]
	cmp	r0, #0
	bne	.L2162
	mcr	p15, 0, r0, c7, c10, 5
.L1931:
	cmp	r2, #1
	bne	.L1874
	ldr	r3, [r5]
	mov	r0, r5
	ldr	r3, [r3, #12]
	blx	r3
	b	.L1874
.L2289:
	ldr	r3, [r5]
	mov	r0, r5
	ldr	r3, [r3, #8]
	blx	r3
	add	r3, r5, #32
	mcr	p15, 0, r0, c7, c10, 5
	mcr	p15, 0, r0, c7, c10, 5
.L2164:
	ldrex	r2, [r3]
	sub	r1, r2, #1
	strex	r0, r1, [r3]
	cmp	r0, #0
	bne	.L2164
	mcr	p15, 0, r0, c7, c10, 5
.L1929:
	cmp	r2, #1
	bne	.L1861
	ldr	r3, [r5]
	mov	r0, r5
	ldr	r3, [r3, #12]
	blx	r3
	b	.L1861
.L2290:
	ldr	r3, [r5]
	mov	r0, r5
	ldr	r3, [r3, #8]
	blx	r3
	add	r3, r5, #32
	mcr	p15, 0, r0, c7, c10, 5
	mcr	p15, 0, r0, c7, c10, 5
.L2163:
	ldrex	r2, [r3]
	sub	r1, r2, #1
	strex	r0, r1, [r3]
	cmp	r0, #0
	bne	.L2163
	mcr	p15, 0, r0, c7, c10, 5
.L1930:
	cmp	r2, #1
	bne	.L1867
	ldr	r3, [r5]
	mov	r0, r5
	ldr	r3, [r3, #12]
	blx	r3
	b	.L1867
.L2288:
	ldr	r3, [r5]
	mov	r0, r5
	ldr	r3, [r3, #8]
	blx	r3
	add	r3, r5, #32
	mcr	p15, 0, r0, c7, c10, 5
	mcr	p15, 0, r0, c7, c10, 5
.L2165:
	ldrex	r2, [r3]
	sub	r1, r2, #1
	strex	r0, r1, [r3]
	cmp	r0, #0
	bne	.L2165
	mcr	p15, 0, r0, c7, c10, 5
.L1928:
	cmp	r2, #1
	bne	.L1854
	ldr	r3, [r5]
	mov	r0, r5
	ldr	r3, [r3, #12]
	blx	r3
	b	.L1854
.L2293:
	ldr	r3, [r6]
	mov	r0, r6
	ldr	r3, [r3, #8]
	blx	r3
	add	r3, r6, #32
	mcr	p15, 0, r0, c7, c10, 5
	mcr	p15, 0, r0, c7, c10, 5
.L2160:
	ldrex	r2, [r3]
	sub	r1, r2, #1
	strex	r0, r1, [r3]
	cmp	r0, #0
	bne	.L2160
	mcr	p15, 0, r0, c7, c10, 5
.L1933:
	cmp	r2, #1
	bne	.L1888
	ldr	r3, [r6]
	mov	r0, r6
	ldr	r3, [r3, #12]
	blx	r3
	b	.L1888
.L2279:
	ldr	r3, [r5]
	mov	r0, r5
	ldr	r3, [r3, #8]
	blx	r3
	add	r3, r5, #32
	mcr	p15, 0, r0, c7, c10, 5
	mcr	p15, 0, r0, c7, c10, 5
.L2180:
	ldrex	r2, [r3]
	sub	r1, r2, #1
	strex	r0, r1, [r3]
	cmp	r0, #0
	bne	.L2180
	mcr	p15, 0, r0, c7, c10, 5
.L1913:
	cmp	r2, #1
	bne	.L1642
	ldr	r3, [r5]
	mov	r0, r5
	ldr	r3, [r3, #12]
	blx	r3
	b	.L1642
.L2295:
	ldr	r3, [r5]
	mov	r0, r5
	ldr	r3, [r3, #8]
	blx	r3
	add	r3, r5, #32
	mcr	p15, 0, r0, c7, c10, 5
	mcr	p15, 0, r0, c7, c10, 5
.L2158:
	ldrex	r2, [r3]
	sub	r1, r2, #1
	strex	r0, r1, [r3]
	cmp	r0, #0
	bne	.L2158
	mcr	p15, 0, r0, c7, c10, 5
.L1935:
	cmp	r2, #1
	bne	.L1901
	ldr	r3, [r5]
	mov	r0, r5
	ldr	r3, [r3, #12]
	blx	r3
	b	.L1901
.L2277:
	ldr	r3, [r5]
	mov	r0, r5
	ldr	r3, [r3, #8]
	blx	r3
	add	r3, r5, #32
	mcr	p15, 0, r0, c7, c10, 5
	mcr	p15, 0, r0, c7, c10, 5
.L2182:
	ldrex	r2, [r3]
	sub	r1, r2, #1
	strex	r0, r1, [r3]
	cmp	r0, #0
	bne	.L2182
	mcr	p15, 0, r0, c7, c10, 5
.L1911:
	cmp	r2, #1
	bne	.L1629
	ldr	r3, [r5]
	mov	r0, r5
	ldr	r3, [r3, #12]
	blx	r3
	b	.L1629
.L2294:
	ldr	r3, [r6]
	mov	r0, r6
	ldr	r3, [r3, #8]
	blx	r3
	add	r3, r6, #32
	mcr	p15, 0, r0, c7, c10, 5
	mcr	p15, 0, r0, c7, c10, 5
.L2159:
	ldrex	r2, [r3]
	sub	r1, r2, #1
	strex	r0, r1, [r3]
	cmp	r0, #0
	bne	.L2159
	mcr	p15, 0, r0, c7, c10, 5
.L1934:
	cmp	r2, #1
	bne	.L1894
	ldr	r3, [r6]
	mov	r0, r6
	ldr	r3, [r3, #12]
	blx	r3
	b	.L1894
.L2292:
	ldr	r3, [r6]
	mov	r0, r6
	ldr	r3, [r3, #8]
	blx	r3
	add	r3, r6, #32
	mcr	p15, 0, r0, c7, c10, 5
	mcr	p15, 0, r0, c7, c10, 5
.L2161:
	ldrex	r2, [r3]
	sub	r1, r2, #1
	strex	r0, r1, [r3]
	cmp	r0, #0
	bne	.L2161
	mcr	p15, 0, r0, c7, c10, 5
.L1932:
	cmp	r2, #1
	bne	.L1881
	ldr	r3, [r6]
	mov	r0, r6
	ldr	r3, [r3, #12]
	blx	r3
	b	.L1881
.L2314:
	.align	2
.L2313:
	.word	_GLOBAL_OFFSET_TABLE_-(.LPIC93+8)
	.word	_ZN4asio6detail10call_stackINS0_14strand_service11strand_implEhE4top_E(GOT)
	.word	_ZN4asio6detail10call_stackINS0_15task_io_serviceENS0_27task_io_service_thread_infoEE4top_E(GOT)
	.word	_ZN4asio6detail18completion_handlerINS0_7binder1IZN7asiopal8Executor5StartERKNSt6chrono10time_pointINS5_3_V212steady_clockENS5_8durationIxSt5ratioILx1ELx1000000000EEEEEERKSt8functionIFvvEEEUlRKSt10error_codeE_SL_EEE11do_completeEPNS0_15task_io_serviceEPNS0_25task_io_service_operationESN_j-(.LPIC94+8)
	.word	_ZL28__gthrw___pthread_key_createPjPFvPvE(GOT)
.L2276:
	ldr	r3, [r5]
	mov	r0, r5
	ldr	r3, [r3, #8]
	blx	r3
	add	r3, r5, #32
	mcr	p15, 0, r0, c7, c10, 5
	mcr	p15, 0, r0, c7, c10, 5
.L2183:
	ldrex	r2, [r3]
	sub	r1, r2, #1
	strex	r0, r1, [r3]
	cmp	r0, #0
	bne	.L2183
	mcr	p15, 0, r0, c7, c10, 5
.L1910:
	cmp	r2, #1
	bne	.L1622
	ldr	r3, [r5]
	mov	r0, r5
	ldr	r3, [r3, #12]
	blx	r3
	b	.L1622
.L2278:
	ldr	r3, [r5]
	mov	r0, r5
	ldr	r3, [r3, #8]
	blx	r3
	add	r3, r5, #32
	mcr	p15, 0, r0, c7, c10, 5
	mcr	p15, 0, r0, c7, c10, 5
.L2181:
	ldrex	r2, [r3]
	sub	r1, r2, #1
	strex	r0, r1, [r3]
	cmp	r0, #0
	bne	.L2181
	mcr	p15, 0, r0, c7, c10, 5
.L1912:
	cmp	r2, #1
	bne	.L1635
	ldr	r3, [r5]
	mov	r0, r5
	ldr	r3, [r3, #12]
	blx	r3
	b	.L1635
.L1829:
	ldr	r3, [r5, #28]
	cmp	r3, #1
	sub	r3, r3, #1
	str	r3, [r5, #28]
	bne	.L1828
	ldr	r3, [r5]
	mov	r0, r5
	ldr	r3, [r3, #8]
	blx	r3
	mcr	p15, 0, r0, c7, c10, 5
	ldr	r2, [r5, #32]
	sub	r3, r2, #1
	str	r3, [r5, #32]
	b	.L1924
.L1842:
	ldr	r3, [r5, #28]
	cmp	r3, #1
	sub	r3, r3, #1
	str	r3, [r5, #28]
	bne	.L1841
	ldr	r3, [r5]
	mov	r0, r5
	ldr	r3, [r3, #8]
	blx	r3
	mcr	p15, 0, r0, c7, c10, 5
	ldr	r2, [r5, #32]
	sub	r3, r2, #1
	str	r3, [r5, #32]
	b	.L1926
.L1816:
	ldr	r3, [r5, #28]
	cmp	r3, #1
	sub	r3, r3, #1
	str	r3, [r5, #28]
	bne	.L1815
	ldr	r3, [r5]
	mov	r0, r5
	ldr	r3, [r3, #8]
	blx	r3
	mcr	p15, 0, r0, c7, c10, 5
	ldr	r2, [r5, #32]
	sub	r3, r2, #1
	str	r3, [r5, #32]
	b	.L1922
.L1882:
	ldr	r3, [r6, #28]
	cmp	r3, #1
	sub	r3, r3, #1
	str	r3, [r6, #28]
	bne	.L1881
	ldr	r3, [r6]
	mov	r0, r6
	ldr	r3, [r3, #8]
	blx	r3
	mcr	p15, 0, r0, c7, c10, 5
	ldr	r2, [r6, #32]
	sub	r3, r2, #1
	str	r3, [r6, #32]
	b	.L1932
.L1895:
	ldr	r3, [r6, #28]
	cmp	r3, #1
	sub	r3, r3, #1
	str	r3, [r6, #28]
	bne	.L1894
	ldr	r3, [r6]
	mov	r0, r6
	ldr	r3, [r3, #8]
	blx	r3
	mcr	p15, 0, r0, c7, c10, 5
	ldr	r2, [r6, #32]
	sub	r3, r2, #1
	str	r3, [r6, #32]
	b	.L1934
.L1623:
	ldr	r3, [r5, #28]
	cmp	r3, #1
	sub	r3, r3, #1
	str	r3, [r5, #28]
	bne	.L1622
	ldr	r3, [r5]
	mov	r0, r5
	ldr	r3, [r3, #8]
	blx	r3
	mcr	p15, 0, r0, c7, c10, 5
	ldr	r2, [r5, #32]
	sub	r3, r2, #1
	str	r3, [r5, #32]
	b	.L1910
.L1636:
	ldr	r3, [r5, #28]
	cmp	r3, #1
	sub	r3, r3, #1
	str	r3, [r5, #28]
	bne	.L1635
	ldr	r3, [r5]
	mov	r0, r5
	ldr	r3, [r3, #8]
	blx	r3
	mcr	p15, 0, r0, c7, c10, 5
	ldr	r2, [r5, #32]
	sub	r3, r2, #1
	str	r3, [r5, #32]
	b	.L1912
.L1670:
	ldr	r3, .L2313+8
	add	r10, sp, #36
	add	r2, sp, #188
	mov	fp, #0
	str	r2, [sp, #4]
	str	fp, [r10, #4]
	str	fp, [r10, #8]
	str	r2, [sp, #36]
	ldr	r9, [r4, r3]
	ldr	r0, [r9]
	bl	pthread_getspecific(PLT)
	cmp	r0, #0
	beq	.L1685
	ldr	r3, [r0, #4]
	cmp	r3, fp
	beq	.L1685
	ldr	r6, [r3]
	cmp	r6, fp
	beq	.L1685
	str	fp, [r3]
	ldrb	r3, [r6]	@ zero_extendqisi2
	cmp	r3, #51
	bls	.L2297
.L2219:
	strb	r3, [r6, #52]
	ldr	r1, [sp, #192]
	ldr	r2, .L2313+12
	ldr	r3, [sp, #204]
.LPIC94:
	add	r2, pc, r2
	str	r1, [r6, #16]
	ldr	r1, [sp, #188]
	str	r6, [sp, #40]
	cmp	r3, #0
	str	r2, [r6, #4]
	mov	r2, #0
	str	r2, [r6]
	str	r2, [r6, #8]
	str	r2, [r6, #28]
	str	r2, [sp, #192]
	str	r2, [sp, #188]
	str	r1, [r6, #12]
	beq	.L1688
	add	fp, r6, #20
	mov	r0, fp
	mov	r2, #2
	add	r1, sp, #196
.LEHB64:
	blx	r3
.LEHE64:
	ldr	r2, [sp, #208]
	ldr	r3, [sp, #204]
	str	r2, [r6, #32]
	str	r3, [r6, #28]
.L1688:
	ldr	r3, [sp, #212]
	ldm	r5, {r0, r1}
	ldr	r2, [sp, #216]
	str	r3, [r6, #36]
	add	r3, r6, #44
	str	r2, [r6, #40]
	stm	r3, {r0, r1}
	mov	r3, #0
	ldr	r0, [r9]
	str	r3, [sp, #216]
	str	r3, [sp, #212]
	str	r6, [sp, #44]
	ldr	r5, [r8, #20]
	bl	pthread_getspecific(PLT)
	subs	r3, r0, #0
	bne	.L2148
	b	.L1689
.L1697:
	ldr	r3, [r3, #8]
	cmp	r3, #0
	beq	.L1689
.L2148:
	ldr	r2, [r3]
	cmp	r5, r2
	bne	.L1697
	ldr	r0, [sp, #268]
	ldr	r5, [r3, #4]
	add	r0, r0, #12
	bl	pthread_mutex_lock(PLT)
	cmp	r5, #0
	beq	.L1699
	ldr	r0, [sp, #268]
	ldrb	fp, [r0, #36]	@ zero_extendqisi2
	cmp	fp, #0
	beq	.L2298
.L1701:
	ldr	r3, [r0, #44]
	mov	r2, #0
	cmp	r3, r2
	str	r2, [r6]
	add	r0, r0, #12
	strne	r6, [r3]
	streq	r6, [r0, #32]
	strne	r6, [r0, #32]
	streq	r6, [r0, #28]
	bl	pthread_mutex_unlock(PLT)
	b	.L1682
.L2287:
	ldr	r3, [r5]
	mov	r0, r5
	ldr	r3, [r3, #8]
	blx	r3
	add	r3, r5, #32
	mcr	p15, 0, r0, c7, c10, 5
	mcr	p15, 0, r0, c7, c10, 5
.L2166:
	ldrex	r2, [r3]
	sub	r1, r2, #1
	strex	r0, r1, [r3]
	cmp	r0, #0
	bne	.L2166
	mcr	p15, 0, r0, c7, c10, 5
.L1927:
	cmp	r2, #1
	bne	.L1848
	ldr	r3, [r5]
	mov	r0, r5
	ldr	r3, [r3, #12]
	blx	r3
	b	.L1848
.L2285:
	ldr	r3, [r5]
	mov	r0, r5
	ldr	r3, [r3, #8]
	blx	r3
	add	r3, r5, #32
	mcr	p15, 0, r0, c7, c10, 5
	mcr	p15, 0, r0, c7, c10, 5
.L2168:
	ldrex	r2, [r3]
	sub	r1, r2, #1
	strex	r0, r1, [r3]
	cmp	r0, #0
	bne	.L2168
	mcr	p15, 0, r0, c7, c10, 5
.L1925:
	cmp	r2, #1
	bne	.L1835
	ldr	r3, [r5]
	mov	r0, r5
	ldr	r3, [r3, #12]
	blx	r3
	b	.L1835
.L2283:
	ldr	r3, [r5]
	mov	r0, r5
	ldr	r3, [r3, #8]
	blx	r3
	add	r3, r5, #32
	mcr	p15, 0, r0, c7, c10, 5
	mcr	p15, 0, r0, c7, c10, 5
.L2170:
	ldrex	r2, [r3]
	sub	r1, r2, #1
	strex	r0, r1, [r3]
	cmp	r0, #0
	bne	.L2170
	mcr	p15, 0, r0, c7, c10, 5
.L1923:
	cmp	r2, #1
	bne	.L1822
	ldr	r3, [r5]
	mov	r0, r5
	ldr	r3, [r3, #12]
	blx	r3
	b	.L1822
.L2284:
	ldr	r3, [r5]
	mov	r0, r5
	ldr	r3, [r3, #8]
	blx	r3
	add	r3, r5, #32
	mcr	p15, 0, r0, c7, c10, 5
	mcr	p15, 0, r0, c7, c10, 5
.L2169:
	ldrex	r2, [r3]
	sub	r1, r2, #1
	strex	r0, r1, [r3]
	cmp	r0, #0
	bne	.L2169
	mcr	p15, 0, r0, c7, c10, 5
.L1924:
	cmp	r2, #1
	bne	.L1828
	ldr	r3, [r5]
	mov	r0, r5
	ldr	r3, [r3, #12]
	blx	r3
	b	.L1828
.L2286:
	ldr	r3, [r5]
	mov	r0, r5
	ldr	r3, [r3, #8]
	blx	r3
	add	r3, r5, #32
	mcr	p15, 0, r0, c7, c10, 5
	mcr	p15, 0, r0, c7, c10, 5
.L2167:
	ldrex	r2, [r3]
	sub	r1, r2, #1
	strex	r0, r1, [r3]
	cmp	r0, #0
	bne	.L2167
	mcr	p15, 0, r0, c7, c10, 5
.L1926:
	cmp	r2, #1
	bne	.L1841
	ldr	r3, [r5]
	mov	r0, r5
	ldr	r3, [r3, #12]
	blx	r3
	b	.L1841
.L2282:
	ldr	r3, [r5]
	mov	r0, r5
	ldr	r3, [r3, #8]
	blx	r3
	add	r3, r5, #32
	mcr	p15, 0, r0, c7, c10, 5
	mcr	p15, 0, r0, c7, c10, 5
.L2171:
	ldrex	r2, [r3]
	sub	r1, r2, #1
	strex	r0, r1, [r3]
	cmp	r0, #0
	bne	.L2171
	mcr	p15, 0, r0, c7, c10, 5
.L1922:
	cmp	r2, #1
	bne	.L1815
	ldr	r3, [r5]
	mov	r0, r5
	ldr	r3, [r3, #12]
	blx	r3
	b	.L1815
.L2297:
	mov	r0, r6
	bl	_ZdlPv(PLT)
.L1685:
	mov	r0, #53
.LEHB65:
	bl	_Znwj(PLT)
.LEHE65:
	mov	r6, r0
	mov	r3, #52
	b	.L2219
.L1689:
	ldr	r0, [sp, #268]
	add	r0, r0, #12
	bl	pthread_mutex_lock(PLT)
.L1699:
	ldr	r0, [sp, #268]
	ldrb	r5, [r0, #36]	@ zero_extendqisi2
	cmp	r5, #0
	bne	.L1701
	mov	r3, #1
	strb	r3, [r0, #36]
	add	r0, r0, #12
	bl	pthread_mutex_unlock(PLT)
	ldr	r7, [sp, #268]
	str	r5, [r6]
	ldr	r5, [r8, #20]
	ldr	r3, [r7, #52]
	cmp	r3, #0
	strne	r6, [r3]
	ldrb	r3, [r5, #20]	@ zero_extendqisi2
	strne	r6, [r7, #52]
	streq	r6, [r7, #52]
	streq	r6, [r7, #48]
	cmp	r3, #0
	bne	.L2299
.L1710:
	add	r3, r5, #124
	mcr	p15, 0, r0, c7, c10, 5
.L2208:
	ldrex	r2, [r3]
	add	r2, r2, #1
	strex	r1, r2, [r3]
	cmp	r1, #0
	bne	.L2208
	add	r6, r5, #24
	mcr	p15, 0, r0, c7, c10, 5
	mov	r0, r6
	bl	pthread_mutex_lock(PLT)
	ldr	r3, [r5, #132]
	mov	r2, #0
	cmp	r3, r2
	str	r2, [r7]
	strne	r7, [r3]
	ldr	r3, [r5, #96]
	strne	r7, [r5, #132]
	orr	r3, r3, #1
	streq	r7, [r5, #132]
	streq	r7, [r5, #128]
	cmp	r3, #1
	add	r7, r5, #48
	str	r3, [r5, #96]
	beq	.L1719
	mov	r0, r6
	bl	pthread_mutex_unlock(PLT)
	mov	r0, r7
	bl	pthread_cond_signal(PLT)
	b	.L1682
.L2296:
	ldrb	r2, [r5, #92]	@ zero_extendqisi2
	strb	r2, [r5]
	str	r5, [r3]
	b	.L1608
.L2298:
	mov	r3, #1
	strb	r3, [r0, #36]
	add	r0, r0, #12
	bl	pthread_mutex_unlock(PLT)
	ldr	r6, [sp]
	ldr	r3, [sp, #268]
	ldr	r5, [sp, #44]
	ldr	r0, [r6]
	str	r3, [sp, #48]
	str	fp, [sp, #40]
	str	fp, [sp, #44]
	bl	pthread_getspecific(PLT)
	add	r3, sp, #48
	mov	r1, r3
	str	r3, [sp, #52]
	str	r0, [sp, #56]
	ldr	r0, [r6]
	bl	pthread_setspecific(PLT)
	ldr	r2, [r5, #12]
	ldr	r3, [r5, #16]
	ldr	r6, [r8, #20]
	ldr	r1, [sp, #268]
	str	r2, [sp, #144]
	str	fp, [r5, #16]
	str	r3, [sp, #148]
	str	fp, [r5, #12]
	str	fp, [sp, #160]
	ldr	r3, [r5, #28]
	add	r2, r5, #12
	cmp	r3, #0
	str	r6, [sp, #16]
	str	r5, [sp, #64]
	str	r5, [sp, #68]
	str	r1, [sp, #20]
	str	r2, [sp, #60]
	beq	.L2300
	add	r8, sp, #152
	mov	r0, r8
	mov	r2, #2
	add	r1, r5, #20
.LEHB66:
	blx	r3
.LEHE66:
	add	r3, r5, #44
	ldr	r2, [r5, #28]
	ldm	r3, {r0, r1}
	ldr	r3, [r5, #36]
	ldr	ip, [r5, #32]
	ldr	fp, [sp, #68]
	str	r2, [sp, #160]
	ldr	r2, [r5, #40]
	str	r3, [sp, #168]
	mov	r3, #0
	str	ip, [sp, #164]
	cmp	fp, r3
	str	r3, [r5, #40]
	str	r2, [sp, #172]
	str	r3, [r5, #36]
	add	r3, sp, #176
	add	r8, sp, #144
	stm	r3, {r0, r1}
	str	r8, [sp, #60]
	beq	.L1723
.L1722:
	ldr	r5, [fp, #40]
	cmp	r5, #0
	beq	.L1729
	ldr	r3, .L2313+16
	ldr	r3, [r4, r3]
	cmp	r3, #0
	beq	.L1730
	add	r3, r5, #28
	mcr	p15, 0, r0, c7, c10, 5
.L2207:
	ldrex	r2, [r3]
	sub	r1, r2, #1
	strex	r0, r1, [r3]
	cmp	r0, #0
	bne	.L2207
	cmp	r2, #1
	mcr	p15, 0, r0, c7, c10, 5
	beq	.L2301
.L1729:
	ldr	r3, [fp, #28]
	cmp	r3, #0
	beq	.L1734
	add	r1, fp, #20
	mov	r0, r1
	mov	r2, #3
	blx	r3
.L1734:
	ldr	r5, [fp, #16]
	cmp	r5, #0
	beq	.L1736
	ldr	r3, .L2313+16
	ldr	r3, [r4, r3]
	cmp	r3, #0
	beq	.L1737
	add	r3, r5, #28
	mcr	p15, 0, r0, c7, c10, 5
.L2206:
	ldrex	r2, [r3]
	sub	r1, r2, #1
	strex	r0, r1, [r3]
	cmp	r0, #0
	bne	.L2206
	cmp	r2, #1
	mcr	p15, 0, r0, c7, c10, 5
	beq	.L2302
.L1736:
	mov	r3, #0
	str	r3, [sp, #68]
.L1723:
	ldr	r5, [sp, #64]
	cmp	r5, #0
	beq	.L1741
	ldr	r0, [r9]
	bl	pthread_getspecific(PLT)
	cmp	r0, #0
	beq	.L1742
	ldr	r3, [r0, #4]
	cmp	r3, #0
	beq	.L1742
	ldr	r2, [r3]
	cmp	r2, #0
	beq	.L2303
.L1742:
	mov	r0, r5
	bl	_ZdlPv(PLT)
.L1743:
	mov	r3, #0
	str	r3, [sp, #64]
.L1741:
	cmp	r6, #0
	beq	.L1744
	add	r3, sp, #312
	mov	r2, #0
	str	r2, [r3, #-300]!
	mov	r2, #1
.L2205:
	ldrex	r1, [r3]
	strex	r0, r2, [r3]
	cmp	r0, #0
	bne	.L2205
	mcr	p15, 0, r0, c7, c10, 5
	ldr	r3, [sp, #176]
	cmp	r3, #0
	bne	.L1747
	ldr	r3, [sp, #160]
	cmp	r3, #0
	beq	.L2304
	ldr	r3, [sp, #164]
	add	r0, sp, #152
.LEHB67:
	blx	r3
.LEHE67:
.L1747:
	mov	r3, #0
	mcr	p15, 0, r0, c7, c10, 5
	str	r3, [sp, #12]
.L1744:
	ldr	r5, [sp, #172]
	cmp	r5, #0
	beq	.L1749
	ldr	r3, .L2313+16
	ldr	r3, [r4, r3]
	cmp	r3, #0
	beq	.L1750
	add	r3, r5, #28
	mcr	p15, 0, r0, c7, c10, 5
.L2204:
	ldrex	r2, [r3]
	sub	r1, r2, #1
	strex	r0, r1, [r3]
	cmp	r0, #0
	bne	.L2204
	cmp	r2, #1
	mcr	p15, 0, r0, c7, c10, 5
	bne	.L1749
	ldr	r3, [r5]
	mov	r0, r5
	ldr	r3, [r3, #8]
	blx	r3
	add	r2, r5, #32
	mcr	p15, 0, r0, c7, c10, 5
	mcr	p15, 0, r0, c7, c10, 5
.L2177:
	ldrex	r3, [r2]
	sub	r1, r3, #1
	strex	r0, r1, [r2]
	cmp	r0, #0
	bne	.L2177
	mcr	p15, 0, r0, c7, c10, 5
.L1916:
	cmp	r3, #1
	bne	.L1749
	ldr	r3, [r5]
	mov	r0, r5
	ldr	r3, [r3, #12]
	blx	r3
.L1749:
	ldr	r3, [sp, #160]
	cmp	r3, #0
	beq	.L1754
	add	r1, sp, #152
	mov	r0, r1
	mov	r2, #3
	blx	r3
.L1754:
	ldr	r5, [sp, #148]
	cmp	r5, #0
	beq	.L1756
	ldr	r3, .L2313+16
	ldr	r3, [r4, r3]
	cmp	r3, #0
	beq	.L1757
	add	r3, r5, #28
	mcr	p15, 0, r0, c7, c10, 5
.L2203:
	ldrex	r2, [r3]
	sub	r1, r2, #1
	strex	r0, r1, [r3]
	cmp	r0, #0
	bne	.L2203
	cmp	r2, #1
	mcr	p15, 0, r0, c7, c10, 5
	bne	.L1756
	ldr	r3, [r5]
	mov	r0, r5
	ldr	r3, [r3, #8]
	blx	r3
	add	r2, r5, #32
	mcr	p15, 0, r0, c7, c10, 5
	mcr	p15, 0, r0, c7, c10, 5
.L2176:
	ldrex	r3, [r2]
	sub	r1, r3, #1
	strex	r0, r1, [r2]
	cmp	r0, #0
	bne	.L2176
	mcr	p15, 0, r0, c7, c10, 5
.L1917:
	cmp	r3, #1
	bne	.L1756
	ldr	r3, [r5]
	mov	r0, r5
	ldr	r3, [r3, #12]
	blx	r3
.L1756:
	ldr	r5, [sp, #68]
	cmp	r5, #0
	beq	.L1761
	ldr	r6, [r5, #40]
	cmp	r6, #0
	beq	.L1763
	ldr	r3, .L2313+16
	ldr	r3, [r4, r3]
	cmp	r3, #0
	beq	.L1764
	add	r3, r6, #28
	mcr	p15, 0, r0, c7, c10, 5
.L2202:
	ldrex	r2, [r3]
	sub	r1, r2, #1
	strex	r0, r1, [r3]
	cmp	r0, #0
	bne	.L2202
	cmp	r2, #1
	mcr	p15, 0, r0, c7, c10, 5
	beq	.L2305
.L1763:
	ldr	r3, [r5, #28]
	cmp	r3, #0
	beq	.L1768
	add	r1, r5, #20
	mov	r0, r1
	mov	r2, #3
	blx	r3
.L1768:
	ldr	r5, [r5, #16]
	cmp	r5, #0
	beq	.L1770
	ldr	r3, .L2313+16
	ldr	r3, [r4, r3]
	cmp	r3, #0
	beq	.L1771
	add	r3, r5, #28
	mcr	p15, 0, r0, c7, c10, 5
.L2201:
	ldrex	r2, [r3]
	sub	r1, r2, #1
	strex	r0, r1, [r3]
	cmp	r0, #0
	bne	.L2201
	cmp	r2, #1
	mcr	p15, 0, r0, c7, c10, 5
	beq	.L2306
.L1770:
	mov	r3, #0
	str	r3, [sp, #68]
.L1761:
	ldr	r5, [sp, #64]
	cmp	r5, #0
	beq	.L1775
	ldr	r0, [r9]
	bl	pthread_getspecific(PLT)
	cmp	r0, #0
	beq	.L1776
	ldr	r3, [r0, #4]
	cmp	r3, #0
	beq	.L1776
	ldr	r2, [r3]
	cmp	r2, #0
	beq	.L2307
.L1776:
	mov	r0, r5
	bl	_ZdlPv(PLT)
.L1775:
	ldr	r0, [sp, #20]
	add	r0, r0, #12
	bl	pthread_mutex_lock(PLT)
	ldr	r0, [sp, #20]
	ldr	r5, [r0, #40]
	cmp	r5, #0
	ldreq	r5, [r0, #48]
	beq	.L1778
	ldr	r3, [r0, #52]
	cmp	r3, #0
	strne	r5, [r3]
	ldrne	r5, [r0, #48]
	ldr	r2, [r0, #44]
	mov	r3, #0
	streq	r5, [r0, #48]
	str	r2, [r0, #52]
	str	r3, [r0, #40]
	str	r3, [r0, #44]
.L1778:
	adds	r3, r5, #0
	movne	r3, #1
	strb	r3, [r0, #36]
	add	r0, r0, #12
	bl	pthread_mutex_unlock(PLT)
	cmp	r5, #0
	bne	.L2308
.L1782:
	ldr	r3, [sp]
	ldr	r1, [sp, #56]
	ldr	r0, [r3]
	bl	pthread_setspecific(PLT)
	ldr	r5, [sp, #44]
	cmp	r5, #0
	beq	.L2309
	ldr	r6, [r5, #40]
	cmp	r6, #0
	beq	.L1798
	ldr	r3, .L2313+16
	ldr	r3, [r4, r3]
	cmp	r3, #0
	beq	.L1799
	add	r3, r6, #28
	mcr	p15, 0, r0, c7, c10, 5
.L2199:
	ldrex	r2, [r3]
	sub	r1, r2, #1
	strex	r0, r1, [r3]
	cmp	r0, #0
	bne	.L2199
	cmp	r2, #1
	mcr	p15, 0, r0, c7, c10, 5
	bne	.L1798
	ldr	r3, [r6]
	mov	r0, r6
	ldr	r3, [r3, #8]
	blx	r3
	add	r2, r6, #32
	mcr	p15, 0, r0, c7, c10, 5
	mcr	p15, 0, r0, c7, c10, 5
.L2173:
	ldrex	r3, [r2]
	sub	r1, r3, #1
	strex	r0, r1, [r2]
	cmp	r0, #0
	bne	.L2173
	mcr	p15, 0, r0, c7, c10, 5
.L1920:
	cmp	r3, #1
	bne	.L1798
	ldr	r3, [r6]
	mov	r0, r6
	ldr	r3, [r3, #12]
	blx	r3
.L1798:
	ldr	r3, [r5, #28]
	cmp	r3, #0
	beq	.L1803
	add	r1, r5, #20
	mov	r0, r1
	mov	r2, #3
	blx	r3
.L1803:
	ldr	r5, [r5, #16]
	cmp	r5, #0
	beq	.L1805
	ldr	r3, .L2313+16
	ldr	r3, [r4, r3]
	cmp	r3, #0
	beq	.L1806
	add	r3, r5, #28
	mcr	p15, 0, r0, c7, c10, 5
.L2198:
	ldrex	r2, [r3]
	sub	r1, r2, #1
	strex	r0, r1, [r3]
	cmp	r0, #0
	bne	.L2198
	cmp	r2, #1
	mcr	p15, 0, r0, c7, c10, 5
	beq	.L2310
.L1805:
	ldr	r5, [sp, #40]
	mov	r3, #0
	str	r3, [sp, #44]
.L1796:
	cmp	r5, #0
	beq	.L1682
	ldr	r0, [r9]
	bl	pthread_getspecific(PLT)
	cmp	r0, #0
	beq	.L1811
	ldr	r3, [r0, #4]
	cmp	r3, #0
	beq	.L1811
	ldr	r2, [r3]
	cmp	r2, #0
	beq	.L2311
.L1811:
	mov	r0, r5
	bl	_ZdlPv(PLT)
	b	.L1682
.L2280:
	ldrb	r2, [r5, #92]	@ zero_extendqisi2
	strb	r2, [r5]
	str	r5, [r3]
	b	.L1649
.L2308:
	ldr	r5, [sp, #16]
	ldr	r6, [sp, #20]
	ldrb	r3, [r5, #20]	@ zero_extendqisi2
	cmp	r3, #0
	bne	.L2312
.L1783:
	add	r3, r5, #124
	mcr	p15, 0, r0, c7, c10, 5
.L2200:
	ldrex	r2, [r3]
	add	r2, r2, #1
	strex	r1, r2, [r3]
	cmp	r1, #0
	bne	.L2200
	add	r7, r5, #24
	mcr	p15, 0, r0, c7, c10, 5
	mov	r0, r7
	bl	pthread_mutex_lock(PLT)
	ldr	r3, [r5, #132]
	mov	r2, #0
	cmp	r3, r2
	str	r2, [r6]
	strne	r6, [r3]
	ldr	r3, [r5, #96]
	strne	r6, [r5, #132]
	orr	r3, r3, #1
	streq	r6, [r5, #132]
	streq	r6, [r5, #128]
	cmp	r3, #1
	add	r6, r5, #48
	str	r3, [r5, #96]
	beq	.L1792
	mov	r0, r7
	bl	pthread_mutex_unlock(PLT)
	mov	r0, r6
	bl	pthread_cond_signal(PLT)
	b	.L1782
.L1799:
	ldr	r3, [r6, #28]
	cmp	r3, #1
	sub	r3, r3, #1
	str	r3, [r6, #28]
	bne	.L1798
	ldr	r3, [r6]
	mov	r0, r6
	ldr	r3, [r3, #8]
	blx	r3
	mcr	p15, 0, r0, c7, c10, 5
	ldr	r3, [r6, #32]
	sub	r2, r3, #1
	str	r2, [r6, #32]
	b	.L1920
.L1757:
	ldr	r3, [r5, #28]
	cmp	r3, #1
	sub	r3, r3, #1
	str	r3, [r5, #28]
	bne	.L1756
	ldr	r3, [r5]
	mov	r0, r5
	ldr	r3, [r3, #8]
	blx	r3
	mcr	p15, 0, r0, c7, c10, 5
	ldr	r3, [r5, #32]
	sub	r2, r3, #1
	str	r2, [r5, #32]
	b	.L1917
.L2310:
	ldr	r3, [r5]
	mov	r0, r5
	ldr	r3, [r3, #8]
	blx	r3
	add	r2, r5, #32
	mcr	p15, 0, r0, c7, c10, 5
	mcr	p15, 0, r0, c7, c10, 5
.L2172:
	ldrex	r3, [r2]
	sub	r1, r3, #1
	strex	r0, r1, [r2]
	cmp	r0, #0
	bne	.L2172
	mcr	p15, 0, r0, c7, c10, 5
.L1921:
	cmp	r3, #1
	bne	.L1805
	ldr	r3, [r5]
	mov	r0, r5
	ldr	r3, [r3, #12]
	blx	r3
	b	.L1805
.L1806:
	ldr	r3, [r5, #28]
	cmp	r3, #1
	sub	r3, r3, #1
	str	r3, [r5, #28]
	bne	.L1805
	ldr	r3, [r5]
	mov	r0, r5
	ldr	r3, [r3, #8]
	blx	r3
	mcr	p15, 0, r0, c7, c10, 5
	ldr	r3, [r5, #32]
	sub	r2, r3, #1
	str	r2, [r5, #32]
	b	.L1921
.L2300:
	add	r2, r5, #44
	ldr	ip, [r5, #36]
	ldm	r2, {r0, r1}
	ldr	r2, [r5, #40]
	str	ip, [sp, #168]
	str	r3, [r5, #40]
	str	r2, [sp, #172]
	str	r3, [r5, #36]
	add	r3, sp, #176
	add	r8, sp, #144
	mov	fp, r5
	stm	r3, {r0, r1}
	str	r8, [sp, #60]
	b	.L1722
.L1719:
	ldrb	r2, [r5, #120]	@ zero_extendqisi2
	cmp	r2, #0
	bne	.L1721
	ldr	r0, [r5, #104]
	cmp	r0, #0
	beq	.L1721
	strb	r3, [r5, #120]
	add	r3, sp, #144
	add	r1, r0, #48
	mov	ip, #-2147483639
	str	r1, [sp, #152]
	str	r2, [r3, #4]
	str	r2, [r3, #12]
	str	ip, [sp, #144]
	mov	r1, #3
	ldr	r2, [r0, #48]
	ldr	r0, [r0, #56]
	bl	epoll_ctl(PLT)
.L1721:
	mov	r0, r6
	bl	pthread_mutex_unlock(PLT)
	b	.L1682
.L1750:
	ldr	r3, [r5, #28]
	cmp	r3, #1
	sub	r3, r3, #1
	str	r3, [r5, #28]
	bne	.L1749
	ldr	r3, [r5]
	mov	r0, r5
	ldr	r3, [r3, #8]
	blx	r3
	mcr	p15, 0, r0, c7, c10, 5
	ldr	r3, [r5, #32]
	sub	r2, r3, #1
	str	r2, [r5, #32]
	b	.L1916
.L1792:
	ldrb	r2, [r5, #120]	@ zero_extendqisi2
	cmp	r2, #0
	bne	.L1794
	ldr	r0, [r5, #104]
	cmp	r0, #0
	beq	.L1794
	add	r1, r0, #48
	mov	ip, #-2147483639
	strb	r3, [r5, #120]
	str	r2, [r8, #8]
	str	r2, [r8, #4]
	str	r1, [sp, #152]
	str	r2, [r8, #12]
	str	ip, [sp, #144]
	mov	r3, r8
	ldr	r2, [r0, #48]
	mov	r1, #3
	ldr	r0, [r0, #56]
	bl	epoll_ctl(PLT)
.L1794:
	mov	r0, r7
	bl	pthread_mutex_unlock(PLT)
	b	.L1782
.L1737:
	ldr	r3, [r5, #28]
	cmp	r3, #1
	sub	r3, r3, #1
	str	r3, [r5, #28]
	bne	.L1736
	ldr	r3, [r5]
	mov	r0, r5
	ldr	r3, [r3, #8]
	blx	r3
	mcr	p15, 0, r0, c7, c10, 5
	ldr	r3, [r5, #32]
	sub	r2, r3, #1
	str	r2, [r5, #32]
.L1915:
	cmp	r3, #1
	bne	.L1736
	ldr	r3, [r5]
	mov	r0, r5
	ldr	r3, [r3, #12]
	blx	r3
	b	.L1736
.L1771:
	ldr	r3, [r5, #28]
	cmp	r3, #1
	sub	r3, r3, #1
	str	r3, [r5, #28]
	bne	.L1770
	ldr	r3, [r5]
	mov	r0, r5
	ldr	r3, [r3, #8]
	blx	r3
	mcr	p15, 0, r0, c7, c10, 5
	ldr	r3, [r5, #32]
	sub	r2, r3, #1
	str	r2, [r5, #32]
.L1919:
	cmp	r3, #1
	bne	.L1770
	ldr	r3, [r5]
	mov	r0, r5
	ldr	r3, [r3, #12]
	blx	r3
	b	.L1770
.L1730:
	ldr	r3, [r5, #28]
	cmp	r3, #1
	sub	r3, r3, #1
	str	r3, [r5, #28]
	bne	.L1729
	ldr	r3, [r5]
	mov	r0, r5
	ldr	r3, [r3, #8]
	blx	r3
	mcr	p15, 0, r0, c7, c10, 5
	ldr	r3, [r5, #32]
	sub	r2, r3, #1
	str	r2, [r5, #32]
.L1914:
	cmp	r3, #1
	bne	.L1729
	ldr	r3, [r5]
	mov	r0, r5
	ldr	r3, [r3, #12]
	blx	r3
	b	.L1729
.L1764:
	ldr	r3, [r6, #28]
	cmp	r3, #1
	sub	r3, r3, #1
	str	r3, [r6, #28]
	bne	.L1763
	ldr	r3, [r6]
	mov	r0, r6
	ldr	r3, [r3, #8]
	blx	r3
	mcr	p15, 0, r0, c7, c10, 5
	ldr	r3, [r6, #32]
	sub	r2, r3, #1
	str	r2, [r6, #32]
.L1918:
	cmp	r3, #1
	bne	.L1763
	ldr	r3, [r6]
	mov	r0, r6
	ldr	r3, [r3, #12]
	blx	r3
	b	.L1763
.L2311:
	ldrb	r2, [r5, #52]	@ zero_extendqisi2
	strb	r2, [r5]
	str	r5, [r3]
	b	.L1682
.L2299:
	ldr	r0, [r9]
	bl	pthread_getspecific(PLT)
	cmp	r0, #0
	beq	.L1710
	ldr	r3, [r0]
	cmp	r3, r5
	beq	.L1711
.L1713:
	ldr	r0, [r0, #8]
	cmp	r0, #0
	beq	.L1710
	ldr	r3, [r0]
	cmp	r5, r3
	bne	.L1713
.L1711:
	ldr	r3, [r0, #4]
	cmp	r3, #0
	beq	.L1710
	ldr	r1, [r3, #8]
	ldr	r2, [r3, #12]
	cmp	r1, #0
	add	r2, r2, #1
	mov	r0, #0
	str	r2, [r3, #12]
	str	r0, [r7]
	strne	r7, [r1]
	streq	r7, [r3, #8]
	strne	r7, [r3, #8]
	streq	r7, [r3, #4]
	b	.L1682
.L2312:
	ldr	r0, [r9]
	bl	pthread_getspecific(PLT)
	cmp	r0, #0
	beq	.L1783
	ldr	r3, [r0]
	cmp	r3, r5
	beq	.L1784
.L1786:
	ldr	r0, [r0, #8]
	cmp	r0, #0
	beq	.L1783
	ldr	r3, [r0]
	cmp	r5, r3
	bne	.L1786
.L1784:
	ldr	r3, [r0, #4]
	cmp	r3, #0
	beq	.L1783
	ldr	r1, [r3, #8]
	ldr	r2, [r3, #12]
	cmp	r1, #0
	add	r2, r2, #1
	mov	r0, #0
	str	r2, [r3, #12]
	str	r0, [r6]
	strne	r6, [r1]
	streq	r6, [r3, #8]
	strne	r6, [r3, #8]
	streq	r6, [r3, #4]
	b	.L1782
.L2302:
	ldr	r3, [r5]
	mov	r0, r5
	ldr	r3, [r3, #8]
	blx	r3
	add	r2, r5, #32
	mcr	p15, 0, r0, c7, c10, 5
	mcr	p15, 0, r0, c7, c10, 5
.L2178:
	ldrex	r3, [r2]
	sub	r1, r3, #1
	strex	r0, r1, [r2]
	cmp	r0, #0
	bne	.L2178
	mcr	p15, 0, r0, c7, c10, 5
	b	.L1915
.L2306:
	ldr	r3, [r5]
	mov	r0, r5
	ldr	r3, [r3, #8]
	blx	r3
	add	r2, r5, #32
	mcr	p15, 0, r0, c7, c10, 5
	mcr	p15, 0, r0, c7, c10, 5
.L2174:
	ldrex	r3, [r2]
	sub	r1, r3, #1
	strex	r0, r1, [r2]
	cmp	r0, #0
	bne	.L2174
	mcr	p15, 0, r0, c7, c10, 5
	b	.L1919
.L2301:
	ldr	r3, [r5]
	mov	r0, r5
	ldr	r3, [r3, #8]
	blx	r3
	add	r2, r5, #32
	mcr	p15, 0, r0, c7, c10, 5
	mcr	p15, 0, r0, c7, c10, 5
.L2179:
	ldrex	r3, [r2]
	sub	r1, r3, #1
	strex	r0, r1, [r2]
	cmp	r0, #0
	bne	.L2179
	mcr	p15, 0, r0, c7, c10, 5
	b	.L1914
.L2305:
	ldr	r3, [r6]
	mov	r0, r6
	ldr	r3, [r3, #8]
	blx	r3
	add	r2, r6, #32
	mcr	p15, 0, r0, c7, c10, 5
	mcr	p15, 0, r0, c7, c10, 5
.L2175:
	ldrex	r3, [r2]
	sub	r1, r3, #1
	strex	r0, r1, [r2]
	cmp	r0, #0
	bne	.L2175
	mcr	p15, 0, r0, c7, c10, 5
	b	.L1918
.L2303:
	ldrb	r2, [r5, #52]	@ zero_extendqisi2
	strb	r2, [r5]
	str	r5, [r3]
	b	.L1743
.L2307:
	ldrb	r2, [r5, #52]	@ zero_extendqisi2
	strb	r2, [r5]
	str	r5, [r3]
	b	.L1775
.L2309:
	ldr	r5, [sp, #40]
	b	.L1796
.L1944:
	mov	r3, #0
	mcr	p15, 0, r0, c7, c10, 5
	mov	r0, r8
	str	r3, [sp, #12]
	bl	_ZZN7asiopal8Executor5StartERKNSt6chrono10time_pointINS1_3_V212steady_clockENS1_8durationIxSt5ratioILx1ELx1000000000EEEEEERKSt8functionIFvvEEENUlRKSt10error_codeE_D1Ev(PLT)
.L1727:
	add	r0, sp, #60
	bl	_ZN4asio6detail18completion_handlerINS0_7binder1IZN7asiopal8Executor5StartERKNSt6chrono10time_pointINS5_3_V212steady_clockENS5_8durationIxSt5ratioILx1ELx1000000000EEEEEERKSt8functionIFvvEEEUlRKSt10error_codeE_SL_EEE3ptr5resetEv(PLT)
	add	r0, sp, #16
	bl	_ZN4asio6detail14strand_service16on_dispatch_exitD1Ev(PLT)
	ldr	r3, [sp]
	ldr	r1, [sp, #56]
	ldr	r0, [r3]
	bl	pthread_setspecific(PLT)
.L1694:
	mov	r0, r10
	bl	_ZN4asio6detail18completion_handlerINS0_7binder1IZN7asiopal8Executor5StartERKNSt6chrono10time_pointINS5_3_V212steady_clockENS5_8durationIxSt5ratioILx1ELx1000000000EEEEEERKSt8functionIFvvEEEUlRKSt10error_codeE_SL_EEE3ptr5resetEv(PLT)
.L1813:
	ldr	r0, [sp, #4]
	bl	_ZZN7asiopal8Executor5StartERKNSt6chrono10time_pointINS1_3_V212steady_clockENS1_8durationIxSt5ratioILx1ELx1000000000EEEEEERKSt8functionIFvvEEENUlRKSt10error_codeE_D1Ev(PLT)
.L1675:
	add	r0, sp, #104
	bl	_ZZN7asiopal8Executor5StartERKNSt6chrono10time_pointINS1_3_V212steady_clockENS1_8durationIxSt5ratioILx1ELx1000000000EEEEEERKSt8functionIFvvEEENUlRKSt10error_codeE_D1Ev(PLT)
.L1669:
	add	r0, sp, #72
	bl	_ZZN7asiopal8Executor5StartERKNSt6chrono10time_pointINS1_3_V212steady_clockENS1_8durationIxSt5ratioILx1ELx1000000000EEEEEERKSt8functionIFvvEEENUlRKSt10error_codeE_D1Ev(PLT)
.L1663:
	mov	r3, #0
	mcr	p15, 0, r0, c7, c10, 5
	add	r0, sp, #272
	str	r3, [sp, #8]
	bl	_ZZN7asiopal8Executor5StartERKNSt6chrono10time_pointINS1_3_V212steady_clockENS1_8durationIxSt5ratioILx1ELx1000000000EEEEEERKSt8functionIFvvEEENUlRKSt10error_codeE_D1Ev(PLT)
	mov	r0, r7
	bl	_ZZN7asiopal8Executor5StartERKNSt6chrono10time_pointINS1_3_V212steady_clockENS1_8durationIxSt5ratioILx1ELx1000000000EEEEEERKSt8functionIFvvEEENUlRKSt10error_codeE_D1Ev(PLT)
.L1615:
	add	r0, sp, #24
	bl	_ZN4asio6detail18completion_handlerINS0_17rewrapped_handlerINS0_7binder1INS0_15wrapped_handlerINS_10io_service6strandEZN7asiopal8Executor5StartERKNSt6chrono10time_pointINS9_3_V212steady_clockENS9_8durationIxSt5ratioILx1ELx1000000000EEEEEERKSt8functionIFvvEEEUlRKSt10error_codeE_NS0_26is_continuation_if_runningEEESP_EESS_EEE3ptr5resetEv(PLT)
.LEHB68:
	bl	__cxa_end_cleanup(PLT)
.LEHE68:
.L2304:
.LEHB69:
	bl	_ZSt25__throw_bad_function_callv(PLT)
.LEHE69:
.L1940:
	b	.L1813
.L1945:
	ldr	r3, [sp, #160]
	cmp	r3, #0
	beq	.L1725
	mov	r2, #3
	mov	r1, r8
	mov	r0, r8
	blx	r3
.L1725:
	ldr	r0, [sp, #148]
	cmp	r0, #0
	beq	.L1727
	bl	_ZNSt16_Sp_counted_baseILN9__gnu_cxx12_Lock_policyE1EE10_M_releaseEv(PLT)
	b	.L1727
.L1943:
	ldr	r3, [r6, #28]
	cmp	r3, #0
	beq	.L1692
	mov	r2, #3
	mov	r1, fp
	mov	r0, fp
	blx	r3
.L1692:
	ldr	r0, [r6, #16]
	cmp	r0, #0
	beq	.L1694
	bl	_ZNSt16_Sp_counted_baseILN9__gnu_cxx12_Lock_policyE1EE10_M_releaseEv(PLT)
	b	.L1694
.L2281:
.LEHB70:
	bl	_ZSt25__throw_bad_function_callv(PLT)
.LEHE70:
.L1942:
	mov	r3, #0
	add	r2, sp, #188
	mcr	p15, 0, r0, c7, c10, 5
	str	r2, [sp, #4]
	str	r3, [sp, #48]
	b	.L1813
.L1937:
	ldr	r3, [sp, #288]
	cmp	r3, #0
	beq	.L1619
	mov	r2, #3
	mov	r1, r7
	mov	r0, r7
	blx	r3
.L1619:
	ldr	r0, [sp, #276]
	cmp	r0, #0
	beq	.L1620
	bl	_ZNSt16_Sp_counted_baseILN9__gnu_cxx12_Lock_policyE1EE10_M_releaseEv(PLT)
.L1620:
	add	r0, sp, #232
	bl	_ZZN7asiopal8Executor5StartERKNSt6chrono10time_pointINS1_3_V212steady_clockENS1_8durationIxSt5ratioILx1ELx1000000000EEEEEERKSt8functionIFvvEEENUlRKSt10error_codeE_D1Ev(PLT)
	b	.L1615
.L1936:
	ldr	r3, [sp, #248]
	cmp	r3, #0
	beq	.L1613
	mov	r2, #3
	mov	r1, r7
	mov	r0, r7
	blx	r3
.L1613:
	ldr	r0, [sp, #236]
	cmp	r0, #0
	beq	.L1615
	bl	_ZNSt16_Sp_counted_baseILN9__gnu_cxx12_Lock_policyE1EE10_M_releaseEv(PLT)
	b	.L1615
.L1941:
	ldr	r3, [sp, #204]
	cmp	r3, #0
	beq	.L1673
	mov	r2, #3
	mov	r1, r6
	mov	r0, r6
	blx	r3
.L1673:
	ldr	r0, [sp, #192]
	cmp	r0, #0
	beq	.L1675
	bl	_ZNSt16_Sp_counted_baseILN9__gnu_cxx12_Lock_policyE1EE10_M_releaseEv(PLT)
	b	.L1675
.L1938:
	ldr	r3, [sp, #88]
	cmp	r3, #0
	beq	.L1657
	mov	r2, #3
	mov	r1, r5
	mov	r0, r5
	blx	r3
.L1657:
	ldr	r0, [sp, #76]
	cmp	r0, #0
	beq	.L1663
	bl	_ZNSt16_Sp_counted_baseILN9__gnu_cxx12_Lock_policyE1EE10_M_releaseEv(PLT)
	b	.L1663
.L1939:
	ldr	r3, [sp, #120]
	cmp	r3, #0
	beq	.L1667
	mov	r2, #3
	mov	r1, r5
	mov	r0, r5
	blx	r3
.L1667:
	ldr	r0, [sp, #108]
	cmp	r0, #0
	beq	.L1669
	bl	_ZNSt16_Sp_counted_baseILN9__gnu_cxx12_Lock_policyE1EE10_M_releaseEv(PLT)
	b	.L1669
	.personality	__gxx_personality_v0
	.handlerdata
.LLSDA8902:
	.byte	0xff
	.byte	0xff
	.byte	0x1
	.uleb128 .LLSDACSE8902-.LLSDACSB8902
.LLSDACSB8902:
	.uleb128 .LEHB58-.LFB8902
	.uleb128 .LEHE58-.LEHB58
	.uleb128 .L1936-.LFB8902
	.uleb128 0
	.uleb128 .LEHB59-.LFB8902
	.uleb128 .LEHE59-.LEHB59
	.uleb128 .L1937-.LFB8902
	.uleb128 0
	.uleb128 .LEHB60-.LFB8902
	.uleb128 .LEHE60-.LEHB60
	.uleb128 .L1938-.LFB8902
	.uleb128 0
	.uleb128 .LEHB61-.LFB8902
	.uleb128 .LEHE61-.LEHB61
	.uleb128 .L1939-.LFB8902
	.uleb128 0
	.uleb128 .LEHB62-.LFB8902
	.uleb128 .LEHE62-.LEHB62
	.uleb128 .L1941-.LFB8902
	.uleb128 0
	.uleb128 .LEHB63-.LFB8902
	.uleb128 .LEHE63-.LEHB63
	.uleb128 .L1942-.LFB8902
	.uleb128 0
	.uleb128 .LEHB64-.LFB8902
	.uleb128 .LEHE64-.LEHB64
	.uleb128 .L1943-.LFB8902
	.uleb128 0
	.uleb128 .LEHB65-.LFB8902
	.uleb128 .LEHE65-.LEHB65
	.uleb128 .L1940-.LFB8902
	.uleb128 0
	.uleb128 .LEHB66-.LFB8902
	.uleb128 .LEHE66-.LEHB66
	.uleb128 .L1945-.LFB8902
	.uleb128 0
	.uleb128 .LEHB67-.LFB8902
	.uleb128 .LEHE67-.LEHB67
	.uleb128 .L1944-.LFB8902
	.uleb128 0
	.uleb128 .LEHB68-.LFB8902
	.uleb128 .LEHE68-.LEHB68
	.uleb128 0
	.uleb128 0
	.uleb128 .LEHB69-.LFB8902
	.uleb128 .LEHE69-.LEHB69
	.uleb128 .L1944-.LFB8902
	.uleb128 0
	.uleb128 .LEHB70-.LFB8902
	.uleb128 .LEHE70-.LEHB70
	.uleb128 .L1942-.LFB8902
	.uleb128 0
.LLSDACSE8902:
	.text
	.fnend
	.size	_ZN4asio6detail18completion_handlerINS0_17rewrapped_handlerINS0_7binder1INS0_15wrapped_handlerINS_10io_service6strandEZN7asiopal8Executor5StartERKNSt6chrono10time_pointINS9_3_V212steady_clockENS9_8durationIxSt5ratioILx1ELx1000000000EEEEEERKSt8functionIFvvEEEUlRKSt10error_codeE_NS0_26is_continuation_if_runningEEESP_EESS_EEE11do_completeEPNS0_15task_io_serviceEPNS0_25task_io_service_operationESR_j, .-_ZN4asio6detail18completion_handlerINS0_17rewrapped_handlerINS0_7binder1INS0_15wrapped_handlerINS_10io_service6strandEZN7asiopal8Executor5StartERKNSt6chrono10time_pointINS9_3_V212steady_clockENS9_8durationIxSt5ratioILx1ELx1000000000EEEEEERKSt8functionIFvvEEEUlRKSt10error_codeE_NS0_26is_continuation_if_runningEEESP_EESS_EEE11do_completeEPNS0_15task_io_serviceEPNS0_25task_io_service_operationESR_j
	.align	2
	.syntax unified
	.arm
	.fpu vfp
	.type	_ZN4asio6detail12wait_handlerINS0_15wrapped_handlerINS_10io_service6strandEZN7asiopal8Executor5StartERKNSt6chrono10time_pointINS7_3_V212steady_clockENS7_8durationIxSt5ratioILx1ELx1000000000EEEEEERKSt8functionIFvvEEEUlRKSt10error_codeE_NS0_26is_continuation_if_runningEEEE11do_completeEPNS0_15task_io_serviceEPNS0_25task_io_service_operationESP_j, %function
_ZN4asio6detail12wait_handlerINS0_15wrapped_handlerINS_10io_service6strandEZN7asiopal8Executor5StartERKNSt6chrono10time_pointINS7_3_V212steady_clockENS7_8durationIxSt5ratioILx1ELx1000000000EEEEEERKSt8functionIFvvEEEUlRKSt10error_codeE_NS0_26is_continuation_if_runningEEEE11do_completeEPNS0_15task_io_serviceEPNS0_25task_io_service_operationESP_j:
	.fnstart
.LFB8430:
	@ args = 0, pretend = 0, frame = 448
	@ frame_needed = 0, uses_anonymous_args = 0
	add	r3, r1, #20
	push	{r4, r5, r6, r7, r8, r9, r10, fp, lr}
	.save {r4, r5, r6, r7, r8, r9, r10, fp, lr}
	mov	r5, r1
	.pad #452
	sub	sp, sp, #452
	ldr	r8, [r1, #44]
	mov	r9, r0
	ldm	r3, {r0, r1}
	ldr	ip, [r5, #28]
	ldr	r2, [r5, #32]
	add	r6, sp, #236
	ldr	r4, .L3335
	str	r3, [sp, #32]
	cmp	r8, #0
	mov	r3, #0
	stm	r6, {r0, r1}
	str	r5, [sp, #36]
	str	r5, [sp, #40]
	str	ip, [sp, #244]
	str	r2, [sp, #248]
	str	r3, [r5, #32]
	str	r3, [r5, #28]
	str	r3, [sp, #260]
.LPIC95:
	add	r4, pc, r4
	beq	.L2316
	add	r7, sp, #252
	mov	r0, r7
	mov	r2, #2
	add	r1, r5, #36
.LEHB71:
	blx	r8
.LEHE71:
	add	r3, r5, #12
	ldr	r2, [r5, #44]
	ldm	r3, {r0, r1}
	ldr	r3, [r5, #48]
	ldr	r8, [sp, #40]
	str	r3, [sp, #264]
	ldr	r3, [r5, #52]
	add	r7, sp, #276
	str	r2, [sp, #260]
	ldr	r2, [r5, #56]
	str	r3, [sp, #268]
	cmp	r8, #0
	mov	r3, #0
	str	r6, [sp, #32]
	stm	r7, {r0, r1}
	str	r2, [sp, #272]
	str	r3, [r5, #56]
	str	r3, [r5, #52]
	beq	.L2318
	ldr	r5, [r8, #56]
	cmp	r5, #0
	beq	.L2324
.L3306:
	ldr	r3, .L3335+20
	ldr	r3, [r4, r3]
	cmp	r3, #0
	beq	.L2325
	add	r3, r5, #28
	mcr	p15, 0, r0, c7, c10, 5
.L3204:
	ldrex	r2, [r3]
	sub	r1, r2, #1
	strex	r0, r1, [r3]
	cmp	r0, #0
	bne	.L3204
	cmp	r2, #1
	mcr	p15, 0, r0, c7, c10, 5
	beq	.L3283
.L2324:
	ldr	r3, [r8, #44]
	cmp	r3, #0
	beq	.L2329
	add	r1, r8, #36
	mov	r0, r1
	mov	r2, #3
	blx	r3
.L2329:
	ldr	r5, [r8, #32]
	cmp	r5, #0
	beq	.L2331
	ldr	r3, .L3335+20
	ldr	r3, [r4, r3]
	cmp	r3, #0
	beq	.L2332
	add	r3, r5, #28
	mcr	p15, 0, r0, c7, c10, 5
.L3203:
	ldrex	r2, [r3]
	sub	r1, r2, #1
	strex	r0, r1, [r3]
	cmp	r0, #0
	bne	.L3203
	cmp	r2, #1
	mcr	p15, 0, r0, c7, c10, 5
	beq	.L3284
.L2331:
	mov	r3, #0
	str	r3, [sp, #40]
.L2318:
	ldr	r5, [sp, #36]
	cmp	r5, #0
	beq	.L2336
	ldr	r3, .L3335+12
	ldr	r3, [r4, r3]
	ldr	r0, [r3]
	bl	pthread_getspecific(PLT)
	cmp	r0, #0
	beq	.L2337
	ldr	r3, [r0, #4]
	cmp	r3, #0
	beq	.L2337
	ldr	r2, [r3]
	cmp	r2, #0
	beq	.L3285
.L2337:
	mov	r0, r5
	bl	_ZdlPv(PLT)
.L2338:
	mov	r3, #0
	str	r3, [sp, #36]
.L2336:
	cmp	r9, #0
	beq	.L2339
	add	r3, sp, #448
	mov	r2, #0
	str	r2, [r3, #-436]!
	mov	r2, #1
.L3202:
	ldrex	r1, [r3]
	strex	r0, r2, [r3]
	cmp	r0, #0
	bne	.L3202
	mcr	p15, 0, r0, c7, c10, 5
	ldr	r3, [sp, #248]
	ldr	r2, [sp, #244]
	cmp	r3, #0
	str	r2, [sp, #284]
	str	r3, [sp, #288]
	beq	.L2340
	ldr	r2, .L3335+20
	ldr	r2, [r4, r2]
	cmp	r2, #0
	beq	.L2341
	add	r3, r3, #28
	mcr	p15, 0, r0, c7, c10, 5
.L3201:
	ldrex	r2, [r3]
	add	r2, r2, #1
	strex	r1, r2, [r3]
	cmp	r1, #0
	bne	.L3201
	mcr	p15, 0, r0, c7, c10, 5
.L2340:
	ldr	r3, [sp, #260]
	mov	r2, #0
	cmp	r3, r2
	str	r2, [sp, #300]
	beq	.L2342
	add	r5, sp, #292
	mov	r0, r5
	mov	r2, #2
	add	r1, sp, #252
.LEHB72:
	blx	r3
.LEHE72:
	ldr	r2, [sp, #264]
	ldr	r3, [sp, #260]
	str	r2, [sp, #304]
	str	r3, [sp, #300]
.L2342:
	ldr	r2, [sp, #272]
	ldr	r1, [sp, #268]
	cmp	r2, #0
	str	r2, [sp, #312]
	str	r1, [sp, #308]
	beq	.L2344
	ldr	r3, .L3335+20
	ldr	r3, [r4, r3]
	cmp	r3, #0
	beq	.L2349
	add	r2, r2, #28
	mcr	p15, 0, r0, c7, c10, 5
.L3200:
	ldrex	r3, [r2]
	add	r3, r3, #1
	strex	r1, r3, [r2]
	cmp	r1, #0
	bne	.L3200
	mcr	p15, 0, r0, c7, c10, 5
	ldr	r3, [sp, #260]
.L2344:
	ldm	r6, {r0, r1}
	ldr	lr, [sp, #244]
	ldr	ip, [sp, #248]
	add	r6, sp, #316
	mov	r2, #0
	cmp	r3, #0
	stm	r6, {r0, r1}
	str	ip, [sp, #328]
	str	lr, [sp, #324]
	str	r2, [sp, #248]
	str	r2, [sp, #244]
	str	r2, [sp, #340]
	beq	.L2351
	add	r5, sp, #332
	mov	r0, r5
	mov	r2, #2
	add	r1, sp, #252
.LEHB73:
	blx	r3
.LEHE73:
	ldr	r2, [sp, #264]
	ldr	r3, [sp, #260]
	str	r2, [sp, #344]
	str	r3, [sp, #340]
.L2351:
	ldm	r7, {r0, r1}
	add	r5, sp, #356
	ldr	r2, [sp, #272]
	ldr	r7, [sp, #300]
	ldr	ip, [sp, #268]
	stm	r5, {r0, r1}
	ldr	r0, [sp, #284]
	ldr	r1, [sp, #288]
	str	r2, [sp, #352]
	cmp	r7, #0
	mov	r2, #0
	str	ip, [sp, #348]
	str	r0, [sp, #364]
	str	r1, [sp, #368]
	str	r2, [sp, #272]
	str	r2, [sp, #268]
	str	r2, [sp, #288]
	str	r2, [sp, #284]
	str	r2, [sp, #380]
	beq	.L2354
	add	r8, sp, #372
	mov	r0, r8
	mov	r2, #2
	add	r1, sp, #292
.LEHB74:
	blx	r7
.LEHE74:
	ldr	r3, [sp, #340]
	ldr	r1, [sp, #304]
	ldr	r2, [sp, #300]
	str	r1, [sp, #384]
	str	r2, [sp, #380]
.L2354:
	ldm	r6, {r0, r1}
	add	r9, sp, #396
	ldr	r2, [sp, #308]
	stm	r9, {r0, r1}
	ldr	ip, [sp, #312]
	ldr	r0, [sp, #324]
	ldr	r1, [sp, #328]
	str	r2, [sp, #388]
	cmp	r3, #0
	mov	r2, #0
	str	ip, [sp, #392]
	str	r0, [sp, #404]
	str	r1, [sp, #408]
	str	r2, [sp, #312]
	str	r2, [sp, #308]
	str	r2, [sp, #328]
	str	r2, [sp, #324]
	str	r2, [sp, #420]
	beq	.L2359
	add	r6, sp, #412
	mov	r0, r6
	mov	r2, #2
	add	r1, sp, #332
.LEHB75:
	blx	r3
.LEHE75:
	ldr	r2, [sp, #344]
	ldr	r3, [sp, #340]
	str	r2, [sp, #424]
	str	r3, [sp, #420]
.L2359:
	ldm	r5, {r0, r1}
	ldr	r3, .L3335+4
	ldr	lr, [sp, #348]
	ldr	ip, [sp, #352]
	add	r6, sp, #436
	mov	r2, #0
	stm	r6, {r0, r1}
	str	lr, [sp, #428]
	str	ip, [sp, #432]
	str	r2, [sp, #352]
	str	r2, [sp, #348]
	ldr	r5, [r4, r3]
	ldr	fp, [sp, #236]
	ldr	r7, [sp, #240]
	ldr	r0, [r5]
	bl	pthread_getspecific(PLT)
	cmp	r0, #0
	bne	.L3104
	b	.L2364
.L2371:
	ldr	r0, [r0, #8]
	cmp	r0, #0
	beq	.L2364
.L3104:
	ldr	r3, [r0]
	cmp	r7, r3
	bne	.L2371
	ldr	r3, [r0, #4]
	cmp	r3, #0
	addne	r3, sp, #448
	movne	r2, #0
	strne	r2, [r3, #-432]!
	movne	r2, #1
	beq	.L2364
.L3199:
	ldrex	r1, [r3]
	strex	r0, r2, [r3]
	cmp	r0, #0
	bne	.L3199
	mcr	p15, 0, r0, c7, c10, 5
	ldr	r3, [sp, #408]
	ldr	r2, [sp, #404]
	cmp	r3, #0
	str	r2, [sp, #80]
	str	r3, [sp, #84]
	beq	.L2374
	ldr	r2, .L3335+20
	ldr	r2, [r4, r2]
	cmp	r2, #0
	beq	.L2375
	add	r3, r3, #28
	mcr	p15, 0, r0, c7, c10, 5
.L3198:
	ldrex	r2, [r3]
	add	r2, r2, #1
	strex	r1, r2, [r3]
	cmp	r1, #0
	bne	.L3198
	mcr	p15, 0, r0, c7, c10, 5
.L2374:
	ldr	r3, [sp, #420]
	mov	r2, #0
	cmp	r3, r2
	str	r2, [sp, #96]
	beq	.L2376
	add	r7, sp, #88
	mov	r0, r7
	mov	r2, #2
	add	r1, sp, #412
.LEHB76:
	blx	r3
.LEHE76:
	ldr	r2, [sp, #424]
	ldr	r3, [sp, #420]
	str	r2, [sp, #100]
	str	r3, [sp, #96]
.L2376:
	ldr	r2, [sp, #432]
	ldr	r1, [sp, #428]
	cmp	r2, #0
	str	r2, [sp, #108]
	str	r1, [sp, #104]
	beq	.L2378
	ldr	r3, .L3335+20
	ldr	r3, [r4, r3]
	cmp	r3, #0
	beq	.L2383
	add	r2, r2, #28
	mcr	p15, 0, r0, c7, c10, 5
.L3197:
	ldrex	r3, [r2]
	add	r3, r3, #1
	strex	r1, r3, [r2]
	cmp	r1, #0
	bne	.L3197
	mcr	p15, 0, r0, c7, c10, 5
	ldr	r3, [sp, #96]
.L2378:
	ldr	lr, [sp, #80]
	ldr	ip, [sp, #84]
	mov	r2, #0
	cmp	r3, #0
	str	lr, [sp, #112]
	str	ip, [sp, #116]
	str	r2, [sp, #84]
	str	r2, [sp, #80]
	str	r2, [sp, #128]
	beq	.L2385
	add	r7, sp, #120
	mov	r0, r7
	mov	r2, #2
	add	r1, sp, #88
.LEHB77:
	blx	r3
.LEHE77:
	ldr	lr, [sp, #112]
	ldr	ip, [sp, #116]
	ldr	r2, [sp, #100]
	ldr	r3, [sp, #96]
	str	r2, [sp, #132]
	str	r3, [sp, #128]
.L2385:
	ldm	r6, {r0, r1}
	str	lr, [sp, #192]
	add	r6, sp, #144
	ldr	lr, [sp, #104]
	str	ip, [sp, #196]
	ldr	ip, [sp, #108]
	mov	r2, #0
	cmp	r3, #0
	stm	r6, {r0, r1}
	str	r2, [sp, #108]
	str	lr, [sp, #136]
	str	ip, [sp, #140]
	str	r2, [sp, #104]
	str	r2, [sp, #116]
	str	r2, [sp, #112]
	str	r2, [sp, #208]
	beq	.L2388
	add	r7, sp, #200
	mov	r0, r7
	mov	r2, #2
	add	r1, sp, #120
.LEHB78:
	blx	r3
.LEHE78:
	ldr	lr, [sp, #136]
	ldr	ip, [sp, #140]
	ldr	r2, [sp, #132]
	ldr	r3, [sp, #128]
	str	r2, [sp, #212]
	str	r3, [sp, #208]
.L2388:
	ldm	r6, {r0, r1}
	add	r6, sp, #224
	mov	r3, #0
	stm	r6, {r0, r1}
	ldr	r0, [r5]
	str	lr, [sp, #216]
	str	ip, [sp, #220]
	str	r3, [sp, #140]
	str	r3, [sp, #136]
	ldr	r9, [sp, #396]
	ldr	r7, [sp, #400]
	bl	pthread_getspecific(PLT)
	cmp	r0, #0
	bne	.L3106
	b	.L2393
.L2401:
	ldr	r0, [r0, #8]
	cmp	r0, #0
	beq	.L2393
.L3106:
	ldr	r3, [r0]
	cmp	r7, r3
	bne	.L2401
	ldr	r3, [r0, #4]
	cmp	r3, #0
	addne	r3, sp, #448
	movne	r2, #0
	strne	r2, [r3, #-424]!
	movne	r2, #1
	beq	.L2393
.L3196:
	ldrex	r1, [r3]
	strex	r0, r2, [r3]
	cmp	r0, #0
	bne	.L3196
	mcr	p15, 0, r0, c7, c10, 5
	ldr	r3, [sp, #224]
	cmp	r3, #0
	bne	.L2407
	ldr	r3, [sp, #208]
	cmp	r3, #0
	beq	.L3286
	ldr	r3, [sp, #212]
	add	r0, sp, #200
.LEHB79:
	blx	r3
.LEHE79:
.L2407:
	mov	r3, #0
	mcr	p15, 0, r0, c7, c10, 5
	str	r3, [sp, #24]
.L2405:
	ldr	r5, [sp, #220]
	cmp	r5, #0
	beq	.L2538
	ldr	r3, .L3335+20
	ldr	r3, [r4, r3]
	cmp	r3, #0
	beq	.L2539
	add	r3, r5, #28
	mcr	p15, 0, r0, c7, c10, 5
.L3184:
	ldrex	r2, [r3]
	sub	r1, r2, #1
	strex	r0, r1, [r3]
	cmp	r0, #0
	bne	.L3184
	cmp	r2, #1
	mcr	p15, 0, r0, c7, c10, 5
	beq	.L3287
.L2538:
	ldr	r3, [sp, #208]
	cmp	r3, #0
	beq	.L2543
	add	r1, sp, #200
	mov	r0, r1
	mov	r2, #3
	blx	r3
.L2543:
	ldr	r5, [sp, #196]
	cmp	r5, #0
	beq	.L2545
	ldr	r3, .L3335+20
	ldr	r3, [r4, r3]
	cmp	r3, #0
	beq	.L2546
	add	r3, r5, #28
	mcr	p15, 0, r0, c7, c10, 5
.L3183:
	ldrex	r2, [r3]
	sub	r1, r2, #1
	strex	r0, r1, [r3]
	cmp	r0, #0
	bne	.L3183
	cmp	r2, #1
	mcr	p15, 0, r0, c7, c10, 5
	beq	.L3288
.L2545:
	ldr	r5, [sp, #140]
	cmp	r5, #0
	beq	.L2551
	ldr	r3, .L3335+20
	ldr	r3, [r4, r3]
	cmp	r3, #0
	beq	.L2552
	add	r3, r5, #28
	mcr	p15, 0, r0, c7, c10, 5
.L3182:
	ldrex	r2, [r3]
	sub	r1, r2, #1
	strex	r0, r1, [r3]
	cmp	r0, #0
	bne	.L3182
	cmp	r2, #1
	mcr	p15, 0, r0, c7, c10, 5
	beq	.L3289
.L2551:
	ldr	r3, [sp, #128]
	cmp	r3, #0
	beq	.L2556
	add	r1, sp, #120
	mov	r0, r1
	mov	r2, #3
	blx	r3
.L2556:
	ldr	r5, [sp, #116]
	cmp	r5, #0
	beq	.L2558
	ldr	r3, .L3335+20
	ldr	r3, [r4, r3]
	cmp	r3, #0
	beq	.L2559
	add	r3, r5, #28
	mcr	p15, 0, r0, c7, c10, 5
.L3181:
	ldrex	r2, [r3]
	sub	r1, r2, #1
	strex	r0, r1, [r3]
	cmp	r0, #0
	bne	.L3181
	cmp	r2, #1
	mcr	p15, 0, r0, c7, c10, 5
	beq	.L3290
.L2558:
	ldr	r5, [sp, #108]
	cmp	r5, #0
	beq	.L2564
	ldr	r3, .L3335+20
	ldr	r3, [r4, r3]
	cmp	r3, #0
	beq	.L2565
	add	r3, r5, #28
	mcr	p15, 0, r0, c7, c10, 5
.L3180:
	ldrex	r2, [r3]
	sub	r1, r2, #1
	strex	r0, r1, [r3]
	cmp	r0, #0
	bne	.L3180
	cmp	r2, #1
	mcr	p15, 0, r0, c7, c10, 5
	beq	.L3291
.L2564:
	ldr	r3, [sp, #96]
	cmp	r3, #0
	beq	.L2569
	add	r1, sp, #88
	mov	r0, r1
	mov	r2, #3
	blx	r3
.L2569:
	ldr	r5, [sp, #84]
	cmp	r5, #0
	beq	.L2571
	ldr	r3, .L3335+20
	ldr	r3, [r4, r3]
	cmp	r3, #0
	beq	.L2572
	add	r3, r5, #28
	mcr	p15, 0, r0, c7, c10, 5
.L3179:
	ldrex	r2, [r3]
	sub	r1, r2, #1
	strex	r0, r1, [r3]
	cmp	r0, #0
	bne	.L3179
	cmp	r2, #1
	mcr	p15, 0, r0, c7, c10, 5
	beq	.L3292
.L2571:
	mov	r3, #0
	mcr	p15, 0, r0, c7, c10, 5
	str	r3, [sp, #16]
.L2576:
	ldr	r5, [sp, #432]
	cmp	r5, #0
	beq	.L2668
	ldr	r3, .L3335+20
	ldr	r3, [r4, r3]
	cmp	r3, #0
	beq	.L2669
	add	r3, r5, #28
	mcr	p15, 0, r0, c7, c10, 5
.L3172:
	ldrex	r2, [r3]
	sub	r1, r2, #1
	strex	r0, r1, [r3]
	cmp	r0, #0
	bne	.L3172
	cmp	r2, #1
	mcr	p15, 0, r0, c7, c10, 5
	beq	.L3293
.L2668:
	ldr	r3, [sp, #420]
	cmp	r3, #0
	beq	.L2673
	add	r1, sp, #412
	mov	r0, r1
	mov	r2, #3
	blx	r3
.L2673:
	ldr	r5, [sp, #408]
	cmp	r5, #0
	beq	.L2675
	ldr	r3, .L3335+20
	ldr	r3, [r4, r3]
	cmp	r3, #0
	beq	.L2676
	add	r3, r5, #28
	mcr	p15, 0, r0, c7, c10, 5
.L3171:
	ldrex	r2, [r3]
	sub	r1, r2, #1
	strex	r0, r1, [r3]
	cmp	r0, #0
	bne	.L3171
	cmp	r2, #1
	mcr	p15, 0, r0, c7, c10, 5
	beq	.L3294
.L2675:
	ldr	r5, [sp, #392]
	cmp	r5, #0
	beq	.L2681
	ldr	r3, .L3335+20
	ldr	r3, [r4, r3]
	cmp	r3, #0
	beq	.L2682
	add	r3, r5, #28
	mcr	p15, 0, r0, c7, c10, 5
.L3170:
	ldrex	r2, [r3]
	sub	r1, r2, #1
	strex	r0, r1, [r3]
	cmp	r0, #0
	bne	.L3170
	cmp	r2, #1
	mcr	p15, 0, r0, c7, c10, 5
	beq	.L3295
.L2681:
	ldr	r3, [sp, #380]
	cmp	r3, #0
	beq	.L2686
	add	r1, sp, #372
	mov	r0, r1
	mov	r2, #3
	blx	r3
.L2686:
	ldr	r5, [sp, #368]
	cmp	r5, #0
	beq	.L2688
	ldr	r3, .L3335+20
	ldr	r3, [r4, r3]
	cmp	r3, #0
	beq	.L2689
	add	r3, r5, #28
	mcr	p15, 0, r0, c7, c10, 5
.L3169:
	ldrex	r2, [r3]
	sub	r1, r2, #1
	strex	r0, r1, [r3]
	cmp	r0, #0
	bne	.L3169
	cmp	r2, #1
	mcr	p15, 0, r0, c7, c10, 5
	beq	.L3296
.L2688:
	ldr	r5, [sp, #352]
	cmp	r5, #0
	beq	.L2694
	ldr	r3, .L3335+20
	ldr	r3, [r4, r3]
	cmp	r3, #0
	beq	.L2695
	add	r3, r5, #28
	mcr	p15, 0, r0, c7, c10, 5
.L3168:
	ldrex	r2, [r3]
	sub	r1, r2, #1
	strex	r0, r1, [r3]
	cmp	r0, #0
	bne	.L3168
	cmp	r2, #1
	mcr	p15, 0, r0, c7, c10, 5
	beq	.L3297
.L2694:
	ldr	r3, [sp, #340]
	cmp	r3, #0
	beq	.L2699
	add	r1, sp, #332
	mov	r0, r1
	mov	r2, #3
	blx	r3
.L2699:
	ldr	r5, [sp, #328]
	cmp	r5, #0
	beq	.L2701
	ldr	r3, .L3335+20
	ldr	r3, [r4, r3]
	cmp	r3, #0
	beq	.L2702
	add	r3, r5, #28
	mcr	p15, 0, r0, c7, c10, 5
.L3167:
	ldrex	r2, [r3]
	sub	r1, r2, #1
	strex	r0, r1, [r3]
	cmp	r0, #0
	bne	.L3167
	cmp	r2, #1
	mcr	p15, 0, r0, c7, c10, 5
	beq	.L3298
.L2701:
	ldr	r5, [sp, #312]
	cmp	r5, #0
	beq	.L2707
	ldr	r3, .L3335+20
	ldr	r3, [r4, r3]
	cmp	r3, #0
	beq	.L2708
	add	r3, r5, #28
	mcr	p15, 0, r0, c7, c10, 5
.L3166:
	ldrex	r2, [r3]
	sub	r1, r2, #1
	strex	r0, r1, [r3]
	cmp	r0, #0
	bne	.L3166
	cmp	r2, #1
	mcr	p15, 0, r0, c7, c10, 5
	beq	.L3299
.L2707:
	ldr	r3, [sp, #300]
	cmp	r3, #0
	beq	.L2712
	add	r1, sp, #292
	mov	r0, r1
	mov	r2, #3
	blx	r3
.L2712:
	ldr	r5, [sp, #288]
	cmp	r5, #0
	beq	.L2714
	ldr	r3, .L3335+20
	ldr	r3, [r4, r3]
	cmp	r3, #0
	beq	.L2715
	add	r3, r5, #28
	mcr	p15, 0, r0, c7, c10, 5
.L3165:
	ldrex	r2, [r3]
	sub	r1, r2, #1
	strex	r0, r1, [r3]
	cmp	r0, #0
	bne	.L3165
	cmp	r2, #1
	mcr	p15, 0, r0, c7, c10, 5
	beq	.L3300
.L2714:
	mov	r3, #0
	mcr	p15, 0, r0, c7, c10, 5
	str	r3, [sp, #12]
.L2339:
	ldr	r5, [sp, #272]
	cmp	r5, #0
	beq	.L2720
	ldr	r3, .L3335+20
	ldr	r3, [r4, r3]
	cmp	r3, #0
	beq	.L2721
	add	r3, r5, #28
	mcr	p15, 0, r0, c7, c10, 5
.L3164:
	ldrex	r2, [r3]
	sub	r1, r2, #1
	strex	r0, r1, [r3]
	cmp	r0, #0
	bne	.L3164
	cmp	r2, #1
	mcr	p15, 0, r0, c7, c10, 5
	beq	.L3301
.L2720:
	ldr	r3, [sp, #260]
	cmp	r3, #0
	beq	.L2725
	add	r1, sp, #252
	mov	r0, r1
	mov	r2, #3
	blx	r3
.L2725:
	ldr	r5, [sp, #248]
	cmp	r5, #0
	beq	.L2727
	ldr	r3, .L3335+20
	ldr	r3, [r4, r3]
	cmp	r3, #0
	beq	.L2728
	add	r3, r5, #28
	mcr	p15, 0, r0, c7, c10, 5
.L3163:
	ldrex	r2, [r3]
	sub	r1, r2, #1
	strex	r0, r1, [r3]
	cmp	r0, #0
	bne	.L3163
	cmp	r2, #1
	mcr	p15, 0, r0, c7, c10, 5
	beq	.L3302
.L2727:
	ldr	r5, [sp, #40]
	cmp	r5, #0
	beq	.L2732
	ldr	r6, [r5, #56]
	cmp	r6, #0
	beq	.L2734
	ldr	r3, .L3335+20
	ldr	r3, [r4, r3]
	cmp	r3, #0
	beq	.L2735
	add	r3, r6, #28
	mcr	p15, 0, r0, c7, c10, 5
.L3162:
	ldrex	r2, [r3]
	sub	r1, r2, #1
	strex	r0, r1, [r3]
	cmp	r0, #0
	bne	.L3162
	cmp	r2, #1
	mcr	p15, 0, r0, c7, c10, 5
	beq	.L3303
.L2734:
	ldr	r3, [r5, #44]
	cmp	r3, #0
	beq	.L2739
	add	r1, r5, #36
	mov	r0, r1
	mov	r2, #3
	blx	r3
.L2739:
	ldr	r5, [r5, #32]
	cmp	r5, #0
	beq	.L2741
	ldr	r3, .L3335+20
	ldr	r3, [r4, r3]
	cmp	r3, #0
	beq	.L2742
	add	r3, r5, #28
	mcr	p15, 0, r0, c7, c10, 5
.L3161:
	ldrex	r2, [r3]
	sub	r1, r2, #1
	strex	r0, r1, [r3]
	cmp	r0, #0
	bne	.L3161
	cmp	r2, #1
	mcr	p15, 0, r0, c7, c10, 5
	beq	.L3304
.L2741:
	mov	r3, #0
	str	r3, [sp, #40]
.L2732:
	ldr	r5, [sp, #36]
	cmp	r5, #0
	beq	.L2315
	ldr	r3, .L3335+12
	ldr	r3, [r4, r3]
	ldr	r0, [r3]
	bl	pthread_getspecific(PLT)
	cmp	r0, #0
	beq	.L2747
	ldr	r3, [r0, #4]
	cmp	r3, #0
	beq	.L2747
	ldr	r2, [r3]
	cmp	r2, #0
	beq	.L3305
.L2747:
	mov	r0, r5
	bl	_ZdlPv(PLT)
.L2315:
	add	sp, sp, #452
	@ sp needed
	pop	{r4, r5, r6, r7, r8, r9, r10, fp, pc}
.L2349:
	ldr	r1, [r2, #28]
	ldr	r3, [sp, #260]
	add	r1, r1, #1
	str	r1, [r2, #28]
	b	.L2344
.L2341:
	ldr	r2, [r3, #28]
	add	r2, r2, #1
	str	r2, [r3, #28]
	b	.L2340
.L2721:
	ldr	r3, [r5, #28]
	cmp	r3, #1
	sub	r3, r3, #1
	str	r3, [r5, #28]
	bne	.L2720
	ldr	r3, [r5]
	mov	r0, r5
	ldr	r3, [r3, #8]
	blx	r3
	mcr	p15, 0, r0, c7, c10, 5
	ldr	r2, [r5, #32]
	sub	r3, r2, #1
	str	r3, [r5, #32]
	b	.L2780
.L2375:
	ldr	r2, [r3, #28]
	add	r2, r2, #1
	str	r2, [r3, #28]
	b	.L2374
.L2383:
	ldr	r1, [r2, #28]
	ldr	r3, [sp, #96]
	add	r1, r1, #1
	str	r1, [r2, #28]
	b	.L2378
.L2728:
	ldr	r3, [r5, #28]
	cmp	r3, #1
	sub	r3, r3, #1
	str	r3, [r5, #28]
	bne	.L2727
	ldr	r3, [r5]
	mov	r0, r5
	ldr	r3, [r3, #8]
	blx	r3
	mcr	p15, 0, r0, c7, c10, 5
	ldr	r2, [r5, #32]
	sub	r3, r2, #1
	str	r3, [r5, #32]
	b	.L2781
.L2316:
	add	r3, r5, #12
	ldr	r2, [r5, #52]
	ldm	r3, {r0, r1}
	ldr	r3, [r5, #56]
	str	r8, [r5, #52]
	str	r8, [r5, #56]
	mov	r8, r5
	add	r7, sp, #276
	ldr	r5, [r8, #56]
	str	r6, [sp, #32]
	cmp	r5, #0
	stm	r7, {r0, r1}
	str	r2, [sp, #268]
	str	r3, [sp, #272]
	bne	.L3306
	b	.L2324
.L2676:
	ldr	r3, [r5, #28]
	cmp	r3, #1
	sub	r3, r3, #1
	str	r3, [r5, #28]
	bne	.L2675
	ldr	r3, [r5]
	mov	r0, r5
	ldr	r3, [r3, #8]
	blx	r3
	mcr	p15, 0, r0, c7, c10, 5
	ldr	r2, [r5, #32]
	sub	r3, r2, #1
	str	r3, [r5, #32]
	b	.L2773
.L2689:
	ldr	r3, [r5, #28]
	cmp	r3, #1
	sub	r3, r3, #1
	str	r3, [r5, #28]
	bne	.L2688
	ldr	r3, [r5]
	mov	r0, r5
	ldr	r3, [r3, #8]
	blx	r3
	mcr	p15, 0, r0, c7, c10, 5
	ldr	r2, [r5, #32]
	sub	r3, r2, #1
	str	r3, [r5, #32]
	b	.L2775
.L2702:
	ldr	r3, [r5, #28]
	cmp	r3, #1
	sub	r3, r3, #1
	str	r3, [r5, #28]
	bne	.L2701
	ldr	r3, [r5]
	mov	r0, r5
	ldr	r3, [r3, #8]
	blx	r3
	mcr	p15, 0, r0, c7, c10, 5
	ldr	r2, [r5, #32]
	sub	r3, r2, #1
	str	r3, [r5, #32]
	b	.L2777
.L2715:
	ldr	r3, [r5, #28]
	cmp	r3, #1
	sub	r3, r3, #1
	str	r3, [r5, #28]
	bne	.L2714
	ldr	r3, [r5]
	mov	r0, r5
	ldr	r3, [r3, #8]
	blx	r3
	mcr	p15, 0, r0, c7, c10, 5
	ldr	r2, [r5, #32]
	sub	r3, r2, #1
	str	r3, [r5, #32]
	b	.L2779
.L2332:
	ldr	r3, [r5, #28]
	cmp	r3, #1
	sub	r3, r3, #1
	str	r3, [r5, #28]
	bne	.L2331
	ldr	r3, [r5]
	mov	r0, r5
	ldr	r3, [r3, #8]
	blx	r3
	mcr	p15, 0, r0, c7, c10, 5
	ldr	r2, [r5, #32]
	sub	r3, r2, #1
	str	r3, [r5, #32]
	b	.L2753
.L2742:
	ldr	r3, [r5, #28]
	cmp	r3, #1
	sub	r3, r3, #1
	str	r3, [r5, #28]
	bne	.L2741
	ldr	r3, [r5]
	mov	r0, r5
	ldr	r3, [r3, #8]
	blx	r3
	mcr	p15, 0, r0, c7, c10, 5
	ldr	r2, [r5, #32]
	sub	r3, r2, #1
	str	r3, [r5, #32]
	b	.L2783
.L3302:
	ldr	r3, [r5]
	mov	r0, r5
	ldr	r3, [r3, #8]
	blx	r3
	add	r3, r5, #32
	mcr	p15, 0, r0, c7, c10, 5
	mcr	p15, 0, r0, c7, c10, 5
.L3131:
	ldrex	r2, [r3]
	sub	r1, r2, #1
	strex	r0, r1, [r3]
	cmp	r0, #0
	bne	.L3131
	mcr	p15, 0, r0, c7, c10, 5
.L2781:
	cmp	r2, #1
	bne	.L2727
	ldr	r3, [r5]
	mov	r0, r5
	ldr	r3, [r3, #12]
	blx	r3
	b	.L2727
.L3301:
	ldr	r3, [r5]
	mov	r0, r5
	ldr	r3, [r3, #8]
	blx	r3
	add	r3, r5, #32
	mcr	p15, 0, r0, c7, c10, 5
	mcr	p15, 0, r0, c7, c10, 5
.L3132:
	ldrex	r2, [r3]
	sub	r1, r2, #1
	strex	r0, r1, [r3]
	cmp	r0, #0
	bne	.L3132
	mcr	p15, 0, r0, c7, c10, 5
.L2780:
	cmp	r2, #1
	bne	.L2720
	ldr	r3, [r5]
	mov	r0, r5
	ldr	r3, [r3, #12]
	blx	r3
	b	.L2720
.L3336:
	.align	2
.L3335:
	.word	_GLOBAL_OFFSET_TABLE_-(.LPIC95+8)
	.word	_ZN4asio6detail10call_stackINS0_14strand_service11strand_implEhE4top_E(GOT)
	.word	_ZN4asio6detail18completion_handlerINS0_17rewrapped_handlerINS0_7binder1INS0_15wrapped_handlerINS_10io_service6strandEZN7asiopal8Executor5StartERKNSt6chrono10time_pointINS9_3_V212steady_clockENS9_8durationIxSt5ratioILx1ELx1000000000EEEEEERKSt8functionIFvvEEEUlRKSt10error_codeE_NS0_26is_continuation_if_runningEEESP_EESS_EEE11do_completeEPNS0_15task_io_serviceEPNS0_25task_io_service_operationESR_j-(.LPIC97+8)
