	.arch armv6
	.eabi_attribute 28, 1
	.eabi_attribute 20, 1
	.eabi_attribute 21, 1
	.eabi_attribute 23, 3
	.eabi_attribute 24, 1
	.eabi_attribute 25, 1
	.eabi_attribute 26, 2
	.eabi_attribute 30, 2
	.eabi_attribute 34, 1
	.eabi_attribute 18, 4
	.file	"Group51.cpp"
	.text
	.align	2
	.global	_ZN8opendnp311Group51Var1C2Ev
	.syntax unified
	.arm
	.fpu vfp
	.type	_ZN8opendnp311Group51Var1C2Ev, %function
_ZN8opendnp311Group51Var1C2Ev:
	.fnstart
.LFB35:
	@ args = 0, pretend = 0, frame = 0
	@ frame_needed = 0, uses_anonymous_args = 0
	@ link register save eliminated.
	push	{r4, r5}
	mov	r4, #0
	mov	r5, #0
	strd	r4, [r0]
	pop	{r4, r5}
	bx	lr
	.cantunwind
	.fnend
	.size	_ZN8opendnp311Group51Var1C2Ev, .-_ZN8opendnp311Group51Var1C2Ev
	.global	_ZN8opendnp311Group51Var1C1Ev
	.set	_ZN8opendnp311Group51Var1C1Ev,_ZN8opendnp311Group51Var1C2Ev
	.align	2
	.global	_ZN8opendnp311Group51Var14ReadERN7openpal6RSliceERS0_
	.syntax unified
	.arm
	.fpu vfp
	.type	_ZN8opendnp311Group51Var14ReadERN7openpal6RSliceERS0_, %function
_ZN8opendnp311Group51Var14ReadERN7openpal6RSliceERS0_:
	.fnstart
.LFB37:
	@ args = 0, pretend = 0, frame = 0
	@ frame_needed = 0, uses_anonymous_args = 0
	@ link register save eliminated.
	b	_ZN7openpal5Parse4ReadERNS_6RSliceERNS_10UInt48TypeE(PLT)
	.cantunwind
	.fnend
	.size	_ZN8opendnp311Group51Var14ReadERN7openpal6RSliceERS0_, .-_ZN8opendnp311Group51Var14ReadERN7openpal6RSliceERS0_
	.align	2
	.global	_ZN8opendnp311Group51Var15WriteERKS0_RN7openpal6WSliceE
	.syntax unified
	.arm
	.fpu vfp
	.type	_ZN8opendnp311Group51Var15WriteERKS0_RN7openpal6WSliceE, %function
_ZN8opendnp311Group51Var15WriteERKS0_RN7openpal6WSliceE:
	.fnstart
.LFB38:
	@ args = 0, pretend = 0, frame = 0
	@ frame_needed = 0, uses_anonymous_args = 0
	@ link register save eliminated.
	mov	r3, r1
	mov	r1, r0
	mov	r0, r3
	b	_ZN7openpal6Format5WriteERNS_6WSliceERKNS_10UInt48TypeE(PLT)
	.cantunwind
	.fnend
	.size	_ZN8opendnp311Group51Var15WriteERKS0_RN7openpal6WSliceE, .-_ZN8opendnp311Group51Var15WriteERKS0_RN7openpal6WSliceE
	.align	2
	.global	_ZN8opendnp311Group51Var2C2Ev
	.syntax unified
	.arm
	.fpu vfp
	.type	_ZN8opendnp311Group51Var2C2Ev, %function
_ZN8opendnp311Group51Var2C2Ev:
	.fnstart
.LFB40:
	@ args = 0, pretend = 0, frame = 0
	@ frame_needed = 0, uses_anonymous_args = 0
	@ link register save eliminated.
	push	{r4, r5}
	mov	r4, #0
	mov	r5, #0
	strd	r4, [r0]
	pop	{r4, r5}
	bx	lr
	.cantunwind
	.fnend
	.size	_ZN8opendnp311Group51Var2C2Ev, .-_ZN8opendnp311Group51Var2C2Ev
	.global	_ZN8opendnp311Group51Var2C1Ev
	.set	_ZN8opendnp311Group51Var2C1Ev,_ZN8opendnp311Group51Var2C2Ev
	.align	2
	.global	_ZN8opendnp311Group51Var24ReadERN7openpal6RSliceERS0_
	.syntax unified
	.arm
	.fpu vfp
	.type	_ZN8opendnp311Group51Var24ReadERN7openpal6RSliceERS0_, %function
_ZN8opendnp311Group51Var24ReadERN7openpal6RSliceERS0_:
	.fnstart
.LFB42:
	@ args = 0, pretend = 0, frame = 0
	@ frame_needed = 0, uses_anonymous_args = 0
	@ link register save eliminated.
	b	_ZN7openpal5Parse4ReadERNS_6RSliceERNS_10UInt48TypeE(PLT)
	.cantunwind
	.fnend
	.size	_ZN8opendnp311Group51Var24ReadERN7openpal6RSliceERS0_, .-_ZN8opendnp311Group51Var24ReadERN7openpal6RSliceERS0_
	.align	2
	.global	_ZN8opendnp311Group51Var25WriteERKS0_RN7openpal6WSliceE
	.syntax unified
	.arm
	.fpu vfp
	.type	_ZN8opendnp311Group51Var25WriteERKS0_RN7openpal6WSliceE, %function
_ZN8opendnp311Group51Var25WriteERKS0_RN7openpal6WSliceE:
	.fnstart
.LFB43:
	@ args = 0, pretend = 0, frame = 0
	@ frame_needed = 0, uses_anonymous_args = 0
	@ link register save eliminated.
	mov	r3, r1
	mov	r1, r0
	mov	r0, r3
	b	_ZN7openpal6Format5WriteERNS_6WSliceERKNS_10UInt48TypeE(PLT)
	.cantunwind
	.fnend
	.size	_ZN8opendnp311Group51Var25WriteERKS0_RN7openpal6WSliceE, .-_ZN8opendnp311Group51Var25WriteERKS0_RN7openpal6WSliceE
	.ident	"GCC: (Raspbian 6.3.0-18+rpi1+deb9u1) 6.3.0 20170516"
	.section	.note.GNU-stack,"",%progbits
