	.arch armv6
	.eabi_attribute 28, 1
	.eabi_attribute 20, 1
	.eabi_attribute 21, 1
	.eabi_attribute 23, 3
	.eabi_attribute 24, 1
	.eabi_attribute 25, 1
	.eabi_attribute 26, 2
	.eabi_attribute 30, 2
	.eabi_attribute 34, 1
	.eabi_attribute 18, 4
	.file	"Group120.cpp"
	.section	.text._ZNK8opendnp312Group120Var110InstanceIDEv,"axG",%progbits,_ZNK8opendnp312Group120Var110InstanceIDEv,comdat
	.align	2
	.weak	_ZNK8opendnp312Group120Var110InstanceIDEv
	.syntax unified
	.arm
	.fpu vfp
	.type	_ZNK8opendnp312Group120Var110InstanceIDEv, %function
_ZNK8opendnp312Group120Var110InstanceIDEv:
	.fnstart
.LFB25:
	@ args = 0, pretend = 0, frame = 8
	@ frame_needed = 0, uses_anonymous_args = 0
	@ link register save eliminated.
	mov	r0, #376	@ movhi
	sub	sp, sp, #8
	add	sp, sp, #8
	@ sp needed
	bx	lr
	.cantunwind
	.fnend
	.size	_ZNK8opendnp312Group120Var110InstanceIDEv, .-_ZNK8opendnp312Group120Var110InstanceIDEv
	.section	.text._ZNK8opendnp312Group120Var210InstanceIDEv,"axG",%progbits,_ZNK8opendnp312Group120Var210InstanceIDEv,comdat
	.align	2
	.weak	_ZNK8opendnp312Group120Var210InstanceIDEv
	.syntax unified
	.arm
	.fpu vfp
	.type	_ZNK8opendnp312Group120Var210InstanceIDEv, %function
_ZNK8opendnp312Group120Var210InstanceIDEv:
	.fnstart
.LFB27:
	@ args = 0, pretend = 0, frame = 8
	@ frame_needed = 0, uses_anonymous_args = 0
	@ link register save eliminated.
	mov	r0, #632	@ movhi
	sub	sp, sp, #8
	add	sp, sp, #8
	@ sp needed
	bx	lr
	.cantunwind
	.fnend
	.size	_ZNK8opendnp312Group120Var210InstanceIDEv, .-_ZNK8opendnp312Group120Var210InstanceIDEv
	.section	.text._ZNK8opendnp312Group120Var510InstanceIDEv,"axG",%progbits,_ZNK8opendnp312Group120Var510InstanceIDEv,comdat
	.align	2
	.weak	_ZNK8opendnp312Group120Var510InstanceIDEv
	.syntax unified
	.arm
	.fpu vfp
	.type	_ZNK8opendnp312Group120Var510InstanceIDEv, %function
_ZNK8opendnp312Group120Var510InstanceIDEv:
	.fnstart
.LFB33:
	@ args = 0, pretend = 0, frame = 8
	@ frame_needed = 0, uses_anonymous_args = 0
	@ link register save eliminated.
	ldrh	r0, .L7	@ movhi
	sub	sp, sp, #8
	add	sp, sp, #8
	@ sp needed
	bx	lr
.L8:
	.align	2
.L7:
	.short	1400
	.space	2
	.cantunwind
	.fnend
	.size	_ZNK8opendnp312Group120Var510InstanceIDEv, .-_ZNK8opendnp312Group120Var510InstanceIDEv
	.section	.text._ZNK8opendnp312Group120Var610InstanceIDEv,"axG",%progbits,_ZNK8opendnp312Group120Var610InstanceIDEv,comdat
	.align	2
	.weak	_ZNK8opendnp312Group120Var610InstanceIDEv
	.syntax unified
	.arm
	.fpu vfp
	.type	_ZNK8opendnp312Group120Var610InstanceIDEv, %function
_ZNK8opendnp312Group120Var610InstanceIDEv:
	.fnstart
.LFB35:
	@ args = 0, pretend = 0, frame = 8
	@ frame_needed = 0, uses_anonymous_args = 0
	@ link register save eliminated.
	ldrh	r0, .L11	@ movhi
	sub	sp, sp, #8
	add	sp, sp, #8
	@ sp needed
	bx	lr
.L12:
	.align	2
.L11:
	.short	1656
	.space	2
	.cantunwind
	.fnend
	.size	_ZNK8opendnp312Group120Var610InstanceIDEv, .-_ZNK8opendnp312Group120Var610InstanceIDEv
	.section	.text._ZNK8opendnp312Group120Var710InstanceIDEv,"axG",%progbits,_ZNK8opendnp312Group120Var710InstanceIDEv,comdat
	.align	2
	.weak	_ZNK8opendnp312Group120Var710InstanceIDEv
	.syntax unified
	.arm
	.fpu vfp
	.type	_ZNK8opendnp312Group120Var710InstanceIDEv, %function
_ZNK8opendnp312Group120Var710InstanceIDEv:
	.fnstart
.LFB37:
	@ args = 0, pretend = 0, frame = 8
	@ frame_needed = 0, uses_anonymous_args = 0
	@ link register save eliminated.
	ldrh	r0, .L15	@ movhi
	sub	sp, sp, #8
	add	sp, sp, #8
	@ sp needed
	bx	lr
.L16:
	.align	2
.L15:
	.short	1912
	.space	2
	.cantunwind
	.fnend
	.size	_ZNK8opendnp312Group120Var710InstanceIDEv, .-_ZNK8opendnp312Group120Var710InstanceIDEv
	.section	.text._ZNK8opendnp312Group120Var810InstanceIDEv,"axG",%progbits,_ZNK8opendnp312Group120Var810InstanceIDEv,comdat
	.align	2
	.weak	_ZNK8opendnp312Group120Var810InstanceIDEv
	.syntax unified
	.arm
	.fpu vfp
	.type	_ZNK8opendnp312Group120Var810InstanceIDEv, %function
_ZNK8opendnp312Group120Var810InstanceIDEv:
	.fnstart
.LFB39:
	@ args = 0, pretend = 0, frame = 8
	@ frame_needed = 0, uses_anonymous_args = 0
	@ link register save eliminated.
	ldrh	r0, .L19	@ movhi
	sub	sp, sp, #8
	add	sp, sp, #8
	@ sp needed
	bx	lr
.L20:
	.align	2
.L19:
	.short	2168
	.space	2
	.cantunwind
	.fnend
	.size	_ZNK8opendnp312Group120Var810InstanceIDEv, .-_ZNK8opendnp312Group120Var810InstanceIDEv
	.section	.text._ZNK8opendnp312Group120Var910InstanceIDEv,"axG",%progbits,_ZNK8opendnp312Group120Var910InstanceIDEv,comdat
	.align	2
	.weak	_ZNK8opendnp312Group120Var910InstanceIDEv
	.syntax unified
	.arm
	.fpu vfp
	.type	_ZNK8opendnp312Group120Var910InstanceIDEv, %function
_ZNK8opendnp312Group120Var910InstanceIDEv:
	.fnstart
.LFB41:
	@ args = 0, pretend = 0, frame = 8
	@ frame_needed = 0, uses_anonymous_args = 0
	@ link register save eliminated.
	ldrh	r0, .L23	@ movhi
	sub	sp, sp, #8
	add	sp, sp, #8
	@ sp needed
	bx	lr
.L24:
	.align	2
.L23:
	.short	2424
	.space	2
	.cantunwind
	.fnend
	.size	_ZNK8opendnp312Group120Var910InstanceIDEv, .-_ZNK8opendnp312Group120Var910InstanceIDEv
	.section	.text._ZNK8opendnp313Group120Var1010InstanceIDEv,"axG",%progbits,_ZNK8opendnp313Group120Var1010InstanceIDEv,comdat
	.align	2
	.weak	_ZNK8opendnp313Group120Var1010InstanceIDEv
	.syntax unified
	.arm
	.fpu vfp
	.type	_ZNK8opendnp313Group120Var1010InstanceIDEv, %function
_ZNK8opendnp313Group120Var1010InstanceIDEv:
	.fnstart
.LFB43:
	@ args = 0, pretend = 0, frame = 8
	@ frame_needed = 0, uses_anonymous_args = 0
	@ link register save eliminated.
	ldrh	r0, .L27	@ movhi
	sub	sp, sp, #8
	add	sp, sp, #8
	@ sp needed
	bx	lr
.L28:
	.align	2
.L27:
	.short	2680
	.space	2
	.cantunwind
	.fnend
	.size	_ZNK8opendnp313Group120Var1010InstanceIDEv, .-_ZNK8opendnp313Group120Var1010InstanceIDEv
	.section	.text._ZNK8opendnp313Group120Var1110InstanceIDEv,"axG",%progbits,_ZNK8opendnp313Group120Var1110InstanceIDEv,comdat
	.align	2
	.weak	_ZNK8opendnp313Group120Var1110InstanceIDEv
	.syntax unified
	.arm
	.fpu vfp
	.type	_ZNK8opendnp313Group120Var1110InstanceIDEv, %function
_ZNK8opendnp313Group120Var1110InstanceIDEv:
	.fnstart
.LFB45:
	@ args = 0, pretend = 0, frame = 8
	@ frame_needed = 0, uses_anonymous_args = 0
	@ link register save eliminated.
	ldrh	r0, .L31	@ movhi
	sub	sp, sp, #8
	add	sp, sp, #8
	@ sp needed
	bx	lr
.L32:
	.align	2
.L31:
	.short	2936
	.space	2
	.cantunwind
	.fnend
	.size	_ZNK8opendnp313Group120Var1110InstanceIDEv, .-_ZNK8opendnp313Group120Var1110InstanceIDEv
	.section	.text._ZNK8opendnp313Group120Var1210InstanceIDEv,"axG",%progbits,_ZNK8opendnp313Group120Var1210InstanceIDEv,comdat
	.align	2
	.weak	_ZNK8opendnp313Group120Var1210InstanceIDEv
	.syntax unified
	.arm
	.fpu vfp
	.type	_ZNK8opendnp313Group120Var1210InstanceIDEv, %function
_ZNK8opendnp313Group120Var1210InstanceIDEv:
	.fnstart
.LFB47:
	@ args = 0, pretend = 0, frame = 8
	@ frame_needed = 0, uses_anonymous_args = 0
	@ link register save eliminated.
	ldrh	r0, .L35	@ movhi
	sub	sp, sp, #8
	add	sp, sp, #8
	@ sp needed
	bx	lr
.L36:
	.align	2
.L35:
	.short	3192
	.space	2
	.cantunwind
	.fnend
	.size	_ZNK8opendnp313Group120Var1210InstanceIDEv, .-_ZNK8opendnp313Group120Var1210InstanceIDEv
	.section	.text._ZNK8opendnp313Group120Var1310InstanceIDEv,"axG",%progbits,_ZNK8opendnp313Group120Var1310InstanceIDEv,comdat
	.align	2
	.weak	_ZNK8opendnp313Group120Var1310InstanceIDEv
	.syntax unified
	.arm
	.fpu vfp
	.type	_ZNK8opendnp313Group120Var1310InstanceIDEv, %function
_ZNK8opendnp313Group120Var1310InstanceIDEv:
	.fnstart
.LFB49:
	@ args = 0, pretend = 0, frame = 8
	@ frame_needed = 0, uses_anonymous_args = 0
	@ link register save eliminated.
	ldrh	r0, .L39	@ movhi
	sub	sp, sp, #8
	add	sp, sp, #8
	@ sp needed
	bx	lr
.L40:
	.align	2
.L39:
	.short	3448
	.space	2
	.cantunwind
	.fnend
	.size	_ZNK8opendnp313Group120Var1310InstanceIDEv, .-_ZNK8opendnp313Group120Var1310InstanceIDEv
	.section	.text._ZNK8opendnp313Group120Var1410InstanceIDEv,"axG",%progbits,_ZNK8opendnp313Group120Var1410InstanceIDEv,comdat
	.align	2
	.weak	_ZNK8opendnp313Group120Var1410InstanceIDEv
	.syntax unified
	.arm
	.fpu vfp
	.type	_ZNK8opendnp313Group120Var1410InstanceIDEv, %function
_ZNK8opendnp313Group120Var1410InstanceIDEv:
	.fnstart
.LFB51:
	@ args = 0, pretend = 0, frame = 8
	@ frame_needed = 0, uses_anonymous_args = 0
	@ link register save eliminated.
	ldrh	r0, .L43	@ movhi
	sub	sp, sp, #8
	add	sp, sp, #8
	@ sp needed
	bx	lr
.L44:
	.align	2
.L43:
	.short	3704
	.space	2
	.cantunwind
	.fnend
	.size	_ZNK8opendnp313Group120Var1410InstanceIDEv, .-_ZNK8opendnp313Group120Var1410InstanceIDEv
	.section	.text._ZNK8opendnp313Group120Var1510InstanceIDEv,"axG",%progbits,_ZNK8opendnp313Group120Var1510InstanceIDEv,comdat
	.align	2
	.weak	_ZNK8opendnp313Group120Var1510InstanceIDEv
	.syntax unified
	.arm
	.fpu vfp
	.type	_ZNK8opendnp313Group120Var1510InstanceIDEv, %function
_ZNK8opendnp313Group120Var1510InstanceIDEv:
	.fnstart
.LFB53:
	@ args = 0, pretend = 0, frame = 8
	@ frame_needed = 0, uses_anonymous_args = 0
	@ link register save eliminated.
	ldrh	r0, .L47	@ movhi
	sub	sp, sp, #8
	add	sp, sp, #8
	@ sp needed
	bx	lr
.L48:
	.align	2
.L47:
	.short	3960
	.space	2
	.cantunwind
	.fnend
	.size	_ZNK8opendnp313Group120Var1510InstanceIDEv, .-_ZNK8opendnp313Group120Var1510InstanceIDEv
	.text
	.align	2
	.global	_ZNK8opendnp312Group120Var14SizeEv
	.syntax unified
	.arm
	.fpu vfp
	.type	_ZNK8opendnp312Group120Var14SizeEv, %function
_ZNK8opendnp312Group120Var14SizeEv:
	.fnstart
.LFB114:
	@ args = 0, pretend = 0, frame = 0
	@ frame_needed = 0, uses_anonymous_args = 0
	@ link register save eliminated.
	ldr	r0, [r0, #12]
	add	r0, r0, #8
	bx	lr
	.cantunwind
	.fnend
	.size	_ZNK8opendnp312Group120Var14SizeEv, .-_ZNK8opendnp312Group120Var14SizeEv
	.align	2
	.global	_ZNK8opendnp312Group120Var24SizeEv
	.syntax unified
	.arm
	.fpu vfp
	.type	_ZNK8opendnp312Group120Var24SizeEv, %function
_ZNK8opendnp312Group120Var24SizeEv:
	.fnstart
.LFB123:
	@ args = 0, pretend = 0, frame = 0
	@ frame_needed = 0, uses_anonymous_args = 0
	@ link register save eliminated.
	ldr	r0, [r0, #12]
	add	r0, r0, #6
	bx	lr
	.cantunwind
	.fnend
	.size	_ZNK8opendnp312Group120Var24SizeEv, .-_ZNK8opendnp312Group120Var24SizeEv
	.align	2
	.global	_ZNK8opendnp312Group120Var54SizeEv
	.syntax unified
	.arm
	.fpu vfp
	.type	_ZNK8opendnp312Group120Var54SizeEv, %function
_ZNK8opendnp312Group120Var54SizeEv:
	.fnstart
.LFB142:
	@ args = 0, pretend = 0, frame = 0
	@ frame_needed = 0, uses_anonymous_args = 0
	@ link register save eliminated.
	ldr	r3, [r0, #16]
	ldr	r0, [r0, #24]
	add	r0, r3, r0
	add	r0, r0, #11
	bx	lr
	.cantunwind
	.fnend
	.size	_ZNK8opendnp312Group120Var54SizeEv, .-_ZNK8opendnp312Group120Var54SizeEv
	.align	2
	.global	_ZNK8opendnp312Group120Var64SizeEv
	.syntax unified
	.arm
	.fpu vfp
	.type	_ZNK8opendnp312Group120Var64SizeEv, %function
_ZNK8opendnp312Group120Var64SizeEv:
	.fnstart
.LFB151:
	@ args = 0, pretend = 0, frame = 0
	@ frame_needed = 0, uses_anonymous_args = 0
	@ link register save eliminated.
	ldr	r0, [r0, #12]
	add	r0, r0, #6
	bx	lr
	.cantunwind
	.fnend
	.size	_ZNK8opendnp312Group120Var64SizeEv, .-_ZNK8opendnp312Group120Var64SizeEv
	.align	2
	.global	_ZNK8opendnp312Group120Var74SizeEv
	.syntax unified
	.arm
	.fpu vfp
	.type	_ZNK8opendnp312Group120Var74SizeEv, %function
_ZNK8opendnp312Group120Var74SizeEv:
	.fnstart
.LFB160:
	@ args = 0, pretend = 0, frame = 0
	@ frame_needed = 0, uses_anonymous_args = 0
	@ link register save eliminated.
	ldr	r0, [r0, #24]
	add	r0, r0, #15
	bx	lr
	.cantunwind
	.fnend
	.size	_ZNK8opendnp312Group120Var74SizeEv, .-_ZNK8opendnp312Group120Var74SizeEv
	.align	2
	.global	_ZNK8opendnp312Group120Var84SizeEv
	.syntax unified
	.arm
	.fpu vfp
	.type	_ZNK8opendnp312Group120Var84SizeEv, %function
_ZNK8opendnp312Group120Var84SizeEv:
	.fnstart
.LFB169:
	@ args = 0, pretend = 0, frame = 0
	@ frame_needed = 0, uses_anonymous_args = 0
	@ link register save eliminated.
	ldr	r0, [r0, #8]
	add	r0, r0, #2
	bx	lr
	.cantunwind
	.fnend
	.size	_ZNK8opendnp312Group120Var84SizeEv, .-_ZNK8opendnp312Group120Var84SizeEv
	.align	2
	.global	_ZNK8opendnp312Group120Var94SizeEv
	.syntax unified
	.arm
	.fpu vfp
	.type	_ZNK8opendnp312Group120Var94SizeEv, %function
_ZNK8opendnp312Group120Var94SizeEv:
	.fnstart
.LFB178:
	@ args = 0, pretend = 0, frame = 0
	@ frame_needed = 0, uses_anonymous_args = 0
	@ link register save eliminated.
	ldr	r0, [r0, #4]
	bx	lr
	.cantunwind
	.fnend
	.size	_ZNK8opendnp312Group120Var94SizeEv, .-_ZNK8opendnp312Group120Var94SizeEv
	.align	2
	.global	_ZN8opendnp312Group120Var94ReadERKN7openpal6RSliceE
	.syntax unified
	.arm
	.fpu vfp
	.type	_ZN8opendnp312Group120Var94ReadERKN7openpal6RSliceE, %function
_ZN8opendnp312Group120Var94ReadERKN7openpal6RSliceE:
	.fnstart
.LFB179:
	@ args = 0, pretend = 0, frame = 0
	@ frame_needed = 0, uses_anonymous_args = 0
	@ link register save eliminated.
	add	r3, r0, #4
	ldm	r1, {r0, r1}
	stm	r3, {r0, r1}
	mov	r0, #1
	bx	lr
	.cantunwind
	.fnend
	.size	_ZN8opendnp312Group120Var94ReadERKN7openpal6RSliceE, .-_ZN8opendnp312Group120Var94ReadERKN7openpal6RSliceE
	.align	2
	.global	_ZNK8opendnp313Group120Var104SizeEv
	.syntax unified
	.arm
	.fpu vfp
	.type	_ZNK8opendnp313Group120Var104SizeEv, %function
_ZNK8opendnp313Group120Var104SizeEv:
	.fnstart
.LFB187:
	@ args = 0, pretend = 0, frame = 0
	@ frame_needed = 0, uses_anonymous_args = 0
	@ link register save eliminated.
	ldr	r3, [r0, #16]
	ldr	r2, [r0, #24]
	ldr	r0, [r0, #32]
	add	r3, r3, r2
	add	r3, r3, #16
	add	r0, r3, r0
	bx	lr
	.cantunwind
	.fnend
	.size	_ZNK8opendnp313Group120Var104SizeEv, .-_ZNK8opendnp313Group120Var104SizeEv
	.align	2
	.global	_ZNK8opendnp313Group120Var114SizeEv
	.syntax unified
	.arm
	.fpu vfp
	.type	_ZNK8opendnp313Group120Var114SizeEv, %function
_ZNK8opendnp313Group120Var114SizeEv:
	.fnstart
.LFB196:
	@ args = 0, pretend = 0, frame = 0
	@ frame_needed = 0, uses_anonymous_args = 0
	@ link register save eliminated.
	ldr	r3, [r0, #8]
	ldr	r0, [r0, #16]
	add	r0, r3, r0
	add	r0, r0, #5
	bx	lr
	.cantunwind
	.fnend
	.size	_ZNK8opendnp313Group120Var114SizeEv, .-_ZNK8opendnp313Group120Var114SizeEv
	.align	2
	.global	_ZNK8opendnp313Group120Var124SizeEv
	.syntax unified
	.arm
	.fpu vfp
	.type	_ZNK8opendnp313Group120Var124SizeEv, %function
_ZNK8opendnp313Group120Var124SizeEv:
	.fnstart
.LFB205:
	@ args = 0, pretend = 0, frame = 0
	@ frame_needed = 0, uses_anonymous_args = 0
	@ link register save eliminated.
	ldr	r0, [r0, #12]
	add	r0, r0, #8
	bx	lr
	.cantunwind
	.fnend
	.size	_ZNK8opendnp313Group120Var124SizeEv, .-_ZNK8opendnp313Group120Var124SizeEv
	.align	2
	.global	_ZNK8opendnp313Group120Var134SizeEv
	.syntax unified
	.arm
	.fpu vfp
	.type	_ZNK8opendnp313Group120Var134SizeEv, %function
_ZNK8opendnp313Group120Var134SizeEv:
	.fnstart
.LFB214:
	@ args = 0, pretend = 0, frame = 0
	@ frame_needed = 0, uses_anonymous_args = 0
	@ link register save eliminated.
	ldr	r0, [r0, #12]
	add	r0, r0, #8
	bx	lr
	.cantunwind
	.fnend
	.size	_ZNK8opendnp313Group120Var134SizeEv, .-_ZNK8opendnp313Group120Var134SizeEv
	.align	2
	.global	_ZNK8opendnp313Group120Var144SizeEv
	.syntax unified
	.arm
	.fpu vfp
	.type	_ZNK8opendnp313Group120Var144SizeEv, %function
_ZNK8opendnp313Group120Var144SizeEv:
	.fnstart
.LFB223:
	@ args = 0, pretend = 0, frame = 0
	@ frame_needed = 0, uses_anonymous_args = 0
	@ link register save eliminated.
	ldr	r0, [r0, #4]
	bx	lr
	.cantunwind
	.fnend
	.size	_ZNK8opendnp313Group120Var144SizeEv, .-_ZNK8opendnp313Group120Var144SizeEv
	.align	2
	.global	_ZN8opendnp313Group120Var144ReadERKN7openpal6RSliceE
	.syntax unified
	.arm
	.fpu vfp
	.type	_ZN8opendnp313Group120Var144ReadERKN7openpal6RSliceE, %function
_ZN8opendnp313Group120Var144ReadERKN7openpal6RSliceE:
	.fnstart
.LFB224:
	@ args = 0, pretend = 0, frame = 0
	@ frame_needed = 0, uses_anonymous_args = 0
	@ link register save eliminated.
	add	r3, r0, #4
	ldm	r1, {r0, r1}
	stm	r3, {r0, r1}
	mov	r0, #1
	bx	lr
	.cantunwind
	.fnend
	.size	_ZN8opendnp313Group120Var144ReadERKN7openpal6RSliceE, .-_ZN8opendnp313Group120Var144ReadERKN7openpal6RSliceE
	.align	2
	.global	_ZNK8opendnp313Group120Var154SizeEv
	.syntax unified
	.arm
	.fpu vfp
	.type	_ZNK8opendnp313Group120Var154SizeEv, %function
_ZNK8opendnp313Group120Var154SizeEv:
	.fnstart
.LFB232:
	@ args = 0, pretend = 0, frame = 0
	@ frame_needed = 0, uses_anonymous_args = 0
	@ link register save eliminated.
	ldr	r0, [r0, #4]
	bx	lr
	.cantunwind
	.fnend
	.size	_ZNK8opendnp313Group120Var154SizeEv, .-_ZNK8opendnp313Group120Var154SizeEv
	.align	2
	.global	_ZN8opendnp313Group120Var154ReadERKN7openpal6RSliceE
	.syntax unified
	.arm
	.fpu vfp
	.type	_ZN8opendnp313Group120Var154ReadERKN7openpal6RSliceE, %function
_ZN8opendnp313Group120Var154ReadERKN7openpal6RSliceE:
	.fnstart
.LFB233:
	@ args = 0, pretend = 0, frame = 0
	@ frame_needed = 0, uses_anonymous_args = 0
	@ link register save eliminated.
	add	r3, r0, #4
	ldm	r1, {r0, r1}
	stm	r3, {r0, r1}
	mov	r0, #1
	bx	lr
	.cantunwind
	.fnend
	.size	_ZN8opendnp313Group120Var154ReadERKN7openpal6RSliceE, .-_ZN8opendnp313Group120Var154ReadERKN7openpal6RSliceE
	.section	.text._ZN8opendnp313Group120Var15D2Ev,"axG",%progbits,_ZN8opendnp313Group120Var15D5Ev,comdat
	.align	2
	.weak	_ZN8opendnp313Group120Var15D2Ev
	.syntax unified
	.arm
	.fpu vfp
	.type	_ZN8opendnp313Group120Var15D2Ev, %function
_ZN8opendnp313Group120Var15D2Ev:
	.fnstart
.LFB271:
	@ args = 0, pretend = 0, frame = 0
	@ frame_needed = 0, uses_anonymous_args = 0
	@ link register save eliminated.
	bx	lr
	.cantunwind
	.fnend
	.size	_ZN8opendnp313Group120Var15D2Ev, .-_ZN8opendnp313Group120Var15D2Ev
	.weak	_ZN8opendnp313Group120Var15D1Ev
	.set	_ZN8opendnp313Group120Var15D1Ev,_ZN8opendnp313Group120Var15D2Ev
	.section	.text._ZN8opendnp313Group120Var14D2Ev,"axG",%progbits,_ZN8opendnp313Group120Var14D5Ev,comdat
	.align	2
	.weak	_ZN8opendnp313Group120Var14D2Ev
	.syntax unified
	.arm
	.fpu vfp
	.type	_ZN8opendnp313Group120Var14D2Ev, %function
_ZN8opendnp313Group120Var14D2Ev:
	.fnstart
.LFB275:
	@ args = 0, pretend = 0, frame = 0
	@ frame_needed = 0, uses_anonymous_args = 0
	@ link register save eliminated.
	bx	lr
	.cantunwind
	.fnend
	.size	_ZN8opendnp313Group120Var14D2Ev, .-_ZN8opendnp313Group120Var14D2Ev
	.weak	_ZN8opendnp313Group120Var14D1Ev
	.set	_ZN8opendnp313Group120Var14D1Ev,_ZN8opendnp313Group120Var14D2Ev
	.section	.text._ZN8opendnp313Group120Var13D2Ev,"axG",%progbits,_ZN8opendnp313Group120Var13D5Ev,comdat
	.align	2
	.weak	_ZN8opendnp313Group120Var13D2Ev
	.syntax unified
	.arm
	.fpu vfp
	.type	_ZN8opendnp313Group120Var13D2Ev, %function
_ZN8opendnp313Group120Var13D2Ev:
	.fnstart
.LFB279:
	@ args = 0, pretend = 0, frame = 0
	@ frame_needed = 0, uses_anonymous_args = 0
	@ link register save eliminated.
	bx	lr
	.cantunwind
	.fnend
	.size	_ZN8opendnp313Group120Var13D2Ev, .-_ZN8opendnp313Group120Var13D2Ev
	.weak	_ZN8opendnp313Group120Var13D1Ev
	.set	_ZN8opendnp313Group120Var13D1Ev,_ZN8opendnp313Group120Var13D2Ev
	.section	.text._ZN8opendnp313Group120Var12D2Ev,"axG",%progbits,_ZN8opendnp313Group120Var12D5Ev,comdat
	.align	2
	.weak	_ZN8opendnp313Group120Var12D2Ev
	.syntax unified
	.arm
	.fpu vfp
	.type	_ZN8opendnp313Group120Var12D2Ev, %function
_ZN8opendnp313Group120Var12D2Ev:
	.fnstart
.LFB283:
	@ args = 0, pretend = 0, frame = 0
	@ frame_needed = 0, uses_anonymous_args = 0
	@ link register save eliminated.
	bx	lr
	.cantunwind
	.fnend
	.size	_ZN8opendnp313Group120Var12D2Ev, .-_ZN8opendnp313Group120Var12D2Ev
	.weak	_ZN8opendnp313Group120Var12D1Ev
	.set	_ZN8opendnp313Group120Var12D1Ev,_ZN8opendnp313Group120Var12D2Ev
	.section	.text._ZN8opendnp313Group120Var11D2Ev,"axG",%progbits,_ZN8opendnp313Group120Var11D5Ev,comdat
	.align	2
	.weak	_ZN8opendnp313Group120Var11D2Ev
	.syntax unified
	.arm
	.fpu vfp
	.type	_ZN8opendnp313Group120Var11D2Ev, %function
_ZN8opendnp313Group120Var11D2Ev:
	.fnstart
.LFB287:
	@ args = 0, pretend = 0, frame = 0
	@ frame_needed = 0, uses_anonymous_args = 0
	@ link register save eliminated.
	bx	lr
	.cantunwind
	.fnend
	.size	_ZN8opendnp313Group120Var11D2Ev, .-_ZN8opendnp313Group120Var11D2Ev
	.weak	_ZN8opendnp313Group120Var11D1Ev
	.set	_ZN8opendnp313Group120Var11D1Ev,_ZN8opendnp313Group120Var11D2Ev
	.section	.text._ZN8opendnp313Group120Var10D2Ev,"axG",%progbits,_ZN8opendnp313Group120Var10D5Ev,comdat
	.align	2
	.weak	_ZN8opendnp313Group120Var10D2Ev
	.syntax unified
	.arm
	.fpu vfp
	.type	_ZN8opendnp313Group120Var10D2Ev, %function
_ZN8opendnp313Group120Var10D2Ev:
	.fnstart
.LFB291:
	@ args = 0, pretend = 0, frame = 0
	@ frame_needed = 0, uses_anonymous_args = 0
	@ link register save eliminated.
	bx	lr
	.cantunwind
	.fnend
	.size	_ZN8opendnp313Group120Var10D2Ev, .-_ZN8opendnp313Group120Var10D2Ev
	.weak	_ZN8opendnp313Group120Var10D1Ev
	.set	_ZN8opendnp313Group120Var10D1Ev,_ZN8opendnp313Group120Var10D2Ev
	.section	.text._ZN8opendnp312Group120Var9D2Ev,"axG",%progbits,_ZN8opendnp312Group120Var9D5Ev,comdat
	.align	2
	.weak	_ZN8opendnp312Group120Var9D2Ev
	.syntax unified
	.arm
	.fpu vfp
	.type	_ZN8opendnp312Group120Var9D2Ev, %function
_ZN8opendnp312Group120Var9D2Ev:
	.fnstart
.LFB295:
	@ args = 0, pretend = 0, frame = 0
	@ frame_needed = 0, uses_anonymous_args = 0
	@ link register save eliminated.
	bx	lr
	.cantunwind
	.fnend
	.size	_ZN8opendnp312Group120Var9D2Ev, .-_ZN8opendnp312Group120Var9D2Ev
	.weak	_ZN8opendnp312Group120Var9D1Ev
	.set	_ZN8opendnp312Group120Var9D1Ev,_ZN8opendnp312Group120Var9D2Ev
	.section	.text._ZN8opendnp312Group120Var8D2Ev,"axG",%progbits,_ZN8opendnp312Group120Var8D5Ev,comdat
	.align	2
	.weak	_ZN8opendnp312Group120Var8D2Ev
	.syntax unified
	.arm
	.fpu vfp
	.type	_ZN8opendnp312Group120Var8D2Ev, %function
_ZN8opendnp312Group120Var8D2Ev:
	.fnstart
.LFB299:
	@ args = 0, pretend = 0, frame = 0
	@ frame_needed = 0, uses_anonymous_args = 0
	@ link register save eliminated.
	bx	lr
	.cantunwind
	.fnend
	.size	_ZN8opendnp312Group120Var8D2Ev, .-_ZN8opendnp312Group120Var8D2Ev
	.weak	_ZN8opendnp312Group120Var8D1Ev
	.set	_ZN8opendnp312Group120Var8D1Ev,_ZN8opendnp312Group120Var8D2Ev
	.section	.text._ZN8opendnp312Group120Var7D2Ev,"axG",%progbits,_ZN8opendnp312Group120Var7D5Ev,comdat
	.align	2
	.weak	_ZN8opendnp312Group120Var7D2Ev
	.syntax unified
	.arm
	.fpu vfp
	.type	_ZN8opendnp312Group120Var7D2Ev, %function
_ZN8opendnp312Group120Var7D2Ev:
	.fnstart
.LFB303:
	@ args = 0, pretend = 0, frame = 0
	@ frame_needed = 0, uses_anonymous_args = 0
	@ link register save eliminated.
	bx	lr
	.cantunwind
	.fnend
	.size	_ZN8opendnp312Group120Var7D2Ev, .-_ZN8opendnp312Group120Var7D2Ev
	.weak	_ZN8opendnp312Group120Var7D1Ev
	.set	_ZN8opendnp312Group120Var7D1Ev,_ZN8opendnp312Group120Var7D2Ev
	.section	.text._ZN8opendnp312Group120Var6D2Ev,"axG",%progbits,_ZN8opendnp312Group120Var6D5Ev,comdat
	.align	2
	.weak	_ZN8opendnp312Group120Var6D2Ev
	.syntax unified
	.arm
	.fpu vfp
	.type	_ZN8opendnp312Group120Var6D2Ev, %function
_ZN8opendnp312Group120Var6D2Ev:
	.fnstart
.LFB307:
	@ args = 0, pretend = 0, frame = 0
	@ frame_needed = 0, uses_anonymous_args = 0
	@ link register save eliminated.
	bx	lr
	.cantunwind
	.fnend
	.size	_ZN8opendnp312Group120Var6D2Ev, .-_ZN8opendnp312Group120Var6D2Ev
	.weak	_ZN8opendnp312Group120Var6D1Ev
	.set	_ZN8opendnp312Group120Var6D1Ev,_ZN8opendnp312Group120Var6D2Ev
	.section	.text._ZN8opendnp312Group120Var5D2Ev,"axG",%progbits,_ZN8opendnp312Group120Var5D5Ev,comdat
	.align	2
	.weak	_ZN8opendnp312Group120Var5D2Ev
	.syntax unified
	.arm
	.fpu vfp
	.type	_ZN8opendnp312Group120Var5D2Ev, %function
_ZN8opendnp312Group120Var5D2Ev:
	.fnstart
.LFB311:
	@ args = 0, pretend = 0, frame = 0
	@ frame_needed = 0, uses_anonymous_args = 0
	@ link register save eliminated.
	bx	lr
	.cantunwind
	.fnend
	.size	_ZN8opendnp312Group120Var5D2Ev, .-_ZN8opendnp312Group120Var5D2Ev
	.weak	_ZN8opendnp312Group120Var5D1Ev
	.set	_ZN8opendnp312Group120Var5D1Ev,_ZN8opendnp312Group120Var5D2Ev
	.section	.text._ZN8opendnp312Group120Var2D2Ev,"axG",%progbits,_ZN8opendnp312Group120Var2D5Ev,comdat
	.align	2
	.weak	_ZN8opendnp312Group120Var2D2Ev
	.syntax unified
	.arm
	.fpu vfp
	.type	_ZN8opendnp312Group120Var2D2Ev, %function
_ZN8opendnp312Group120Var2D2Ev:
	.fnstart
.LFB315:
	@ args = 0, pretend = 0, frame = 0
	@ frame_needed = 0, uses_anonymous_args = 0
	@ link register save eliminated.
	bx	lr
	.cantunwind
	.fnend
	.size	_ZN8opendnp312Group120Var2D2Ev, .-_ZN8opendnp312Group120Var2D2Ev
	.weak	_ZN8opendnp312Group120Var2D1Ev
	.set	_ZN8opendnp312Group120Var2D1Ev,_ZN8opendnp312Group120Var2D2Ev
	.section	.text._ZN8opendnp312Group120Var1D2Ev,"axG",%progbits,_ZN8opendnp312Group120Var1D5Ev,comdat
	.align	2
	.weak	_ZN8opendnp312Group120Var1D2Ev
	.syntax unified
	.arm
	.fpu vfp
	.type	_ZN8opendnp312Group120Var1D2Ev, %function
_ZN8opendnp312Group120Var1D2Ev:
	.fnstart
.LFB319:
	@ args = 0, pretend = 0, frame = 0
	@ frame_needed = 0, uses_anonymous_args = 0
	@ link register save eliminated.
	bx	lr
	.cantunwind
	.fnend
	.size	_ZN8opendnp312Group120Var1D2Ev, .-_ZN8opendnp312Group120Var1D2Ev
	.weak	_ZN8opendnp312Group120Var1D1Ev
	.set	_ZN8opendnp312Group120Var1D1Ev,_ZN8opendnp312Group120Var1D2Ev
	.section	.text._ZN8opendnp313Group120Var15D0Ev,"axG",%progbits,_ZN8opendnp313Group120Var15D5Ev,comdat
	.align	2
	.weak	_ZN8opendnp313Group120Var15D0Ev
	.syntax unified
	.arm
	.fpu vfp
	.type	_ZN8opendnp313Group120Var15D0Ev, %function
_ZN8opendnp313Group120Var15D0Ev:
	.fnstart
.LFB273:
	@ args = 0, pretend = 0, frame = 0
	@ frame_needed = 0, uses_anonymous_args = 0
	push	{r4, lr}
	mov	r1, #12
	mov	r4, r0
	bl	_ZdlPvj(PLT)
	mov	r0, r4
	pop	{r4, pc}
	.cantunwind
	.fnend
	.size	_ZN8opendnp313Group120Var15D0Ev, .-_ZN8opendnp313Group120Var15D0Ev
	.section	.text._ZN8opendnp313Group120Var14D0Ev,"axG",%progbits,_ZN8opendnp313Group120Var14D5Ev,comdat
	.align	2
	.weak	_ZN8opendnp313Group120Var14D0Ev
	.syntax unified
	.arm
	.fpu vfp
	.type	_ZN8opendnp313Group120Var14D0Ev, %function
_ZN8opendnp313Group120Var14D0Ev:
	.fnstart
.LFB277:
	@ args = 0, pretend = 0, frame = 0
	@ frame_needed = 0, uses_anonymous_args = 0
	push	{r4, lr}
	mov	r1, #12
	mov	r4, r0
	bl	_ZdlPvj(PLT)
	mov	r0, r4
	pop	{r4, pc}
	.cantunwind
	.fnend
	.size	_ZN8opendnp313Group120Var14D0Ev, .-_ZN8opendnp313Group120Var14D0Ev
	.section	.text._ZN8opendnp313Group120Var13D0Ev,"axG",%progbits,_ZN8opendnp313Group120Var13D5Ev,comdat
	.align	2
	.weak	_ZN8opendnp313Group120Var13D0Ev
	.syntax unified
	.arm
	.fpu vfp
	.type	_ZN8opendnp313Group120Var13D0Ev, %function
_ZN8opendnp313Group120Var13D0Ev:
	.fnstart
.LFB281:
	@ args = 0, pretend = 0, frame = 0
	@ frame_needed = 0, uses_anonymous_args = 0
	push	{r4, lr}
	mov	r1, #20
	mov	r4, r0
	bl	_ZdlPvj(PLT)
	mov	r0, r4
	pop	{r4, pc}
	.cantunwind
	.fnend
	.size	_ZN8opendnp313Group120Var13D0Ev, .-_ZN8opendnp313Group120Var13D0Ev
	.section	.text._ZN8opendnp313Group120Var12D0Ev,"axG",%progbits,_ZN8opendnp313Group120Var12D5Ev,comdat
	.align	2
	.weak	_ZN8opendnp313Group120Var12D0Ev
	.syntax unified
	.arm
	.fpu vfp
	.type	_ZN8opendnp313Group120Var12D0Ev, %function
_ZN8opendnp313Group120Var12D0Ev:
	.fnstart
.LFB285:
	@ args = 0, pretend = 0, frame = 0
	@ frame_needed = 0, uses_anonymous_args = 0
	push	{r4, lr}
	mov	r1, #20
	mov	r4, r0
	bl	_ZdlPvj(PLT)
	mov	r0, r4
	pop	{r4, pc}
	.cantunwind
	.fnend
	.size	_ZN8opendnp313Group120Var12D0Ev, .-_ZN8opendnp313Group120Var12D0Ev
	.section	.text._ZN8opendnp313Group120Var11D0Ev,"axG",%progbits,_ZN8opendnp313Group120Var11D5Ev,comdat
	.align	2
	.weak	_ZN8opendnp313Group120Var11D0Ev
	.syntax unified
	.arm
	.fpu vfp
	.type	_ZN8opendnp313Group120Var11D0Ev, %function
_ZN8opendnp313Group120Var11D0Ev:
	.fnstart
.LFB289:
	@ args = 0, pretend = 0, frame = 0
	@ frame_needed = 0, uses_anonymous_args = 0
	push	{r4, lr}
	mov	r1, #24
	mov	r4, r0
	bl	_ZdlPvj(PLT)
	mov	r0, r4
	pop	{r4, pc}
	.cantunwind
	.fnend
	.size	_ZN8opendnp313Group120Var11D0Ev, .-_ZN8opendnp313Group120Var11D0Ev
	.section	.text._ZN8opendnp313Group120Var10D0Ev,"axG",%progbits,_ZN8opendnp313Group120Var10D5Ev,comdat
	.align	2
	.weak	_ZN8opendnp313Group120Var10D0Ev
	.syntax unified
	.arm
	.fpu vfp
	.type	_ZN8opendnp313Group120Var10D0Ev, %function
_ZN8opendnp313Group120Var10D0Ev:
	.fnstart
.LFB293:
	@ args = 0, pretend = 0, frame = 0
	@ frame_needed = 0, uses_anonymous_args = 0
	push	{r4, lr}
	mov	r1, #40
	mov	r4, r0
	bl	_ZdlPvj(PLT)
	mov	r0, r4
	pop	{r4, pc}
	.cantunwind
	.fnend
	.size	_ZN8opendnp313Group120Var10D0Ev, .-_ZN8opendnp313Group120Var10D0Ev
	.section	.text._ZN8opendnp312Group120Var9D0Ev,"axG",%progbits,_ZN8opendnp312Group120Var9D5Ev,comdat
	.align	2
	.weak	_ZN8opendnp312Group120Var9D0Ev
	.syntax unified
	.arm
	.fpu vfp
	.type	_ZN8opendnp312Group120Var9D0Ev, %function
_ZN8opendnp312Group120Var9D0Ev:
	.fnstart
.LFB297:
	@ args = 0, pretend = 0, frame = 0
	@ frame_needed = 0, uses_anonymous_args = 0
	push	{r4, lr}
	mov	r1, #12
	mov	r4, r0
	bl	_ZdlPvj(PLT)
	mov	r0, r4
	pop	{r4, pc}
	.cantunwind
	.fnend
	.size	_ZN8opendnp312Group120Var9D0Ev, .-_ZN8opendnp312Group120Var9D0Ev
	.section	.text._ZN8opendnp312Group120Var8D0Ev,"axG",%progbits,_ZN8opendnp312Group120Var8D5Ev,comdat
	.align	2
	.weak	_ZN8opendnp312Group120Var8D0Ev
	.syntax unified
	.arm
	.fpu vfp
	.type	_ZN8opendnp312Group120Var8D0Ev, %function
_ZN8opendnp312Group120Var8D0Ev:
	.fnstart
.LFB301:
	@ args = 0, pretend = 0, frame = 0
	@ frame_needed = 0, uses_anonymous_args = 0
	push	{r4, lr}
	mov	r1, #16
	mov	r4, r0
	bl	_ZdlPvj(PLT)
	mov	r0, r4
	pop	{r4, pc}
	.cantunwind
	.fnend
	.size	_ZN8opendnp312Group120Var8D0Ev, .-_ZN8opendnp312Group120Var8D0Ev
	.section	.text._ZN8opendnp312Group120Var7D0Ev,"axG",%progbits,_ZN8opendnp312Group120Var7D5Ev,comdat
	.align	2
	.weak	_ZN8opendnp312Group120Var7D0Ev
	.syntax unified
	.arm
	.fpu vfp
	.type	_ZN8opendnp312Group120Var7D0Ev, %function
_ZN8opendnp312Group120Var7D0Ev:
	.fnstart
.LFB305:
	@ args = 0, pretend = 0, frame = 0
	@ frame_needed = 0, uses_anonymous_args = 0
	push	{r4, lr}
	mov	r1, #32
	mov	r4, r0
	bl	_ZdlPvj(PLT)
	mov	r0, r4
	pop	{r4, pc}
	.cantunwind
	.fnend
	.size	_ZN8opendnp312Group120Var7D0Ev, .-_ZN8opendnp312Group120Var7D0Ev
	.section	.text._ZN8opendnp312Group120Var6D0Ev,"axG",%progbits,_ZN8opendnp312Group120Var6D5Ev,comdat
	.align	2
	.weak	_ZN8opendnp312Group120Var6D0Ev
	.syntax unified
	.arm
	.fpu vfp
	.type	_ZN8opendnp312Group120Var6D0Ev, %function
_ZN8opendnp312Group120Var6D0Ev:
	.fnstart
.LFB309:
	@ args = 0, pretend = 0, frame = 0
	@ frame_needed = 0, uses_anonymous_args = 0
	push	{r4, lr}
	mov	r1, #20
	mov	r4, r0
	bl	_ZdlPvj(PLT)
	mov	r0, r4
	pop	{r4, pc}
	.cantunwind
	.fnend
	.size	_ZN8opendnp312Group120Var6D0Ev, .-_ZN8opendnp312Group120Var6D0Ev
	.section	.text._ZN8opendnp312Group120Var5D0Ev,"axG",%progbits,_ZN8opendnp312Group120Var5D5Ev,comdat
	.align	2
	.weak	_ZN8opendnp312Group120Var5D0Ev
	.syntax unified
	.arm
	.fpu vfp
	.type	_ZN8opendnp312Group120Var5D0Ev, %function
_ZN8opendnp312Group120Var5D0Ev:
	.fnstart
.LFB313:
	@ args = 0, pretend = 0, frame = 0
	@ frame_needed = 0, uses_anonymous_args = 0
	push	{r4, lr}
	mov	r1, #32
	mov	r4, r0
	bl	_ZdlPvj(PLT)
	mov	r0, r4
	pop	{r4, pc}
	.cantunwind
	.fnend
	.size	_ZN8opendnp312Group120Var5D0Ev, .-_ZN8opendnp312Group120Var5D0Ev
	.section	.text._ZN8opendnp312Group120Var2D0Ev,"axG",%progbits,_ZN8opendnp312Group120Var2D5Ev,comdat
	.align	2
	.weak	_ZN8opendnp312Group120Var2D0Ev
	.syntax unified
	.arm
	.fpu vfp
	.type	_ZN8opendnp312Group120Var2D0Ev, %function
_ZN8opendnp312Group120Var2D0Ev:
	.fnstart
.LFB317:
	@ args = 0, pretend = 0, frame = 0
	@ frame_needed = 0, uses_anonymous_args = 0
	push	{r4, lr}
	mov	r1, #20
	mov	r4, r0
	bl	_ZdlPvj(PLT)
	mov	r0, r4
	pop	{r4, pc}
	.cantunwind
	.fnend
	.size	_ZN8opendnp312Group120Var2D0Ev, .-_ZN8opendnp312Group120Var2D0Ev
	.section	.text._ZN8opendnp312Group120Var1D0Ev,"axG",%progbits,_ZN8opendnp312Group120Var1D5Ev,comdat
	.align	2
	.weak	_ZN8opendnp312Group120Var1D0Ev
	.syntax unified
	.arm
	.fpu vfp
	.type	_ZN8opendnp312Group120Var1D0Ev, %function
_ZN8opendnp312Group120Var1D0Ev:
	.fnstart
.LFB321:
	@ args = 0, pretend = 0, frame = 0
	@ frame_needed = 0, uses_anonymous_args = 0
	push	{r4, lr}
	mov	r1, #20
	mov	r4, r0
	bl	_ZdlPvj(PLT)
	mov	r0, r4
	pop	{r4, pc}
	.cantunwind
	.fnend
	.size	_ZN8opendnp312Group120Var1D0Ev, .-_ZN8opendnp312Group120Var1D0Ev
	.text
	.align	2
	.global	_ZN8opendnp312Group120Var84ReadERKN7openpal6RSliceE
	.syntax unified
	.arm
	.fpu vfp
	.type	_ZN8opendnp312Group120Var84ReadERKN7openpal6RSliceE, %function
_ZN8opendnp312Group120Var84ReadERKN7openpal6RSliceE:
	.fnstart
.LFB170:
	@ args = 0, pretend = 0, frame = 8
	@ frame_needed = 0, uses_anonymous_args = 0
	ldr	r3, [r1]
	cmp	r3, #1
	bls	.L106
	push	{r4, r5, r6, lr}
	.save {r4, r5, r6, lr}
	mov	r5, r0
	ldm	r1, {r0, r1}
	.pad #8
	sub	sp, sp, #8
	mov	r3, r1
	stm	sp, {r0, r1}
	ldrb	r6, [r3]	@ zero_extendqisi2
	mov	r0, sp
	mov	r1, #1
	bl	_ZN7openpal6RSlice7AdvanceEj(PLT)
	mov	r0, r6
	bl	_ZN8opendnp323KeyChangeMethodFromTypeEh(PLT)
	ldr	r3, [sp, #4]
	mov	r1, #1
	strb	r0, [r5, #4]
	ldrb	r6, [r3]	@ zero_extendqisi2
	mov	r0, sp
	bl	_ZN7openpal6RSlice7AdvanceEj(PLT)
	mov	r0, r6
	bl	_ZN8opendnp323CertificateTypeFromTypeEh(PLT)
	add	r2, r5, #8
	mov	r3, #1
	strb	r0, [r5, #5]
	ldm	sp, {r0, r1}
	stm	r2, {r0, r1}
	mov	r0, r3
	add	sp, sp, #8
	@ sp needed
	pop	{r4, r5, r6, pc}
.L106:
	mov	r3, #0
	mov	r0, r3
	bx	lr
	.fnend
	.size	_ZN8opendnp312Group120Var84ReadERKN7openpal6RSliceE, .-_ZN8opendnp312Group120Var84ReadERKN7openpal6RSliceE
	.align	2
	.global	_ZNK8opendnp312Group120Var85WriteERN7openpal6WSliceE
	.syntax unified
	.arm
	.fpu vfp
	.type	_ZNK8opendnp312Group120Var85WriteERN7openpal6WSliceE, %function
_ZNK8opendnp312Group120Var85WriteERN7openpal6WSliceE:
	.fnstart
.LFB171:
	@ args = 0, pretend = 0, frame = 8
	@ frame_needed = 0, uses_anonymous_args = 0
	push	{r4, r5, lr}
	.save {r4, r5, lr}
	.pad #12
	sub	sp, sp, #12
	mov	r4, r1
	mov	r5, r0
	bl	_ZNK8opendnp312Group120Var84SizeEv(PLT)
	ldr	r3, [r4]
	cmp	r0, r3
	movhi	r0, #0
	bhi	.L113
	ldrb	r0, [r5, #4]	@ zero_extendqisi2
	bl	_ZN8opendnp321KeyChangeMethodToTypeENS_15KeyChangeMethodE(PLT)
	ldr	r3, [r4, #4]
	mov	r1, #1
	strb	r0, [r3]
	mov	r0, r4
	bl	_ZN7openpal6WSlice7AdvanceEj(PLT)
	ldrb	r0, [r5, #5]	@ zero_extendqisi2
	bl	_ZN8opendnp321CertificateTypeToTypeENS_15CertificateTypeE(PLT)
	ldr	r3, [r4, #4]
	mov	r1, #1
	strb	r0, [r3]
	mov	r0, r4
	bl	_ZN7openpal6WSlice7AdvanceEj(PLT)
	mov	r0, sp
	mov	r2, r4
	add	r1, r5, #8
	bl	_ZNK7openpal6RSlice6CopyToERNS_6WSliceE(PLT)
	mov	r0, #1
.L113:
	add	sp, sp, #12
	@ sp needed
	pop	{r4, r5, pc}
	.fnend
	.size	_ZNK8opendnp312Group120Var85WriteERN7openpal6WSliceE, .-_ZNK8opendnp312Group120Var85WriteERN7openpal6WSliceE
	.align	2
	.global	_ZNK8opendnp312Group120Var95WriteERN7openpal6WSliceE
	.syntax unified
	.arm
	.fpu vfp
	.type	_ZNK8opendnp312Group120Var95WriteERN7openpal6WSliceE, %function
_ZNK8opendnp312Group120Var95WriteERN7openpal6WSliceE:
	.fnstart
.LFB180:
	@ args = 0, pretend = 0, frame = 8
	@ frame_needed = 0, uses_anonymous_args = 0
	push	{r4, r5, lr}
	.save {r4, r5, lr}
	.pad #12
	sub	sp, sp, #12
	mov	r4, r1
	mov	r5, r0
	bl	_ZNK8opendnp312Group120Var94SizeEv(PLT)
	ldr	r3, [r4]
	cmp	r0, r3
	movhi	r0, #0
	bhi	.L117
	mov	r0, sp
	mov	r2, r4
	add	r1, r5, #4
	bl	_ZNK7openpal6RSlice6CopyToERNS_6WSliceE(PLT)
	mov	r0, #1
.L117:
	add	sp, sp, #12
	@ sp needed
	pop	{r4, r5, pc}
	.fnend
	.size	_ZNK8opendnp312Group120Var95WriteERN7openpal6WSliceE, .-_ZNK8opendnp312Group120Var95WriteERN7openpal6WSliceE
	.align	2
	.global	_ZNK8opendnp313Group120Var145WriteERN7openpal6WSliceE
	.syntax unified
	.arm
	.fpu vfp
	.type	_ZNK8opendnp313Group120Var145WriteERN7openpal6WSliceE, %function
_ZNK8opendnp313Group120Var145WriteERN7openpal6WSliceE:
	.fnstart
.LFB225:
	@ args = 0, pretend = 0, frame = 8
	@ frame_needed = 0, uses_anonymous_args = 0
	push	{r4, r5, lr}
	.save {r4, r5, lr}
	.pad #12
	sub	sp, sp, #12
	mov	r4, r1
	mov	r5, r0
	bl	_ZNK8opendnp313Group120Var144SizeEv(PLT)
	ldr	r3, [r4]
	cmp	r0, r3
	movhi	r0, #0
	bhi	.L121
	mov	r0, sp
	mov	r2, r4
	add	r1, r5, #4
	bl	_ZNK7openpal6RSlice6CopyToERNS_6WSliceE(PLT)
	mov	r0, #1
.L121:
	add	sp, sp, #12
	@ sp needed
	pop	{r4, r5, pc}
	.fnend
	.size	_ZNK8opendnp313Group120Var145WriteERN7openpal6WSliceE, .-_ZNK8opendnp313Group120Var145WriteERN7openpal6WSliceE
	.align	2
	.global	_ZNK8opendnp313Group120Var155WriteERN7openpal6WSliceE
	.syntax unified
	.arm
	.fpu vfp
	.type	_ZNK8opendnp313Group120Var155WriteERN7openpal6WSliceE, %function
_ZNK8opendnp313Group120Var155WriteERN7openpal6WSliceE:
	.fnstart
.LFB234:
	@ args = 0, pretend = 0, frame = 8
	@ frame_needed = 0, uses_anonymous_args = 0
	push	{r4, r5, lr}
	.save {r4, r5, lr}
	.pad #12
	sub	sp, sp, #12
	mov	r4, r1
	mov	r5, r0
	bl	_ZNK8opendnp313Group120Var154SizeEv(PLT)
	ldr	r3, [r4]
	cmp	r0, r3
	movhi	r0, #0
	bhi	.L125
	mov	r0, sp
	mov	r2, r4
	add	r1, r5, #4
	bl	_ZNK7openpal6RSlice6CopyToERNS_6WSliceE(PLT)
	mov	r0, #1
.L125:
	add	sp, sp, #12
	@ sp needed
	pop	{r4, r5, pc}
	.fnend
	.size	_ZNK8opendnp313Group120Var155WriteERN7openpal6WSliceE, .-_ZNK8opendnp313Group120Var155WriteERN7openpal6WSliceE
	.align	2
	.global	_ZNK8opendnp313Group120Var125WriteERN7openpal6WSliceE
	.syntax unified
	.arm
	.fpu vfp
	.type	_ZNK8opendnp313Group120Var125WriteERN7openpal6WSliceE, %function
_ZNK8opendnp313Group120Var125WriteERN7openpal6WSliceE:
	.fnstart
.LFB207:
	@ args = 0, pretend = 0, frame = 8
	@ frame_needed = 0, uses_anonymous_args = 0
	push	{r4, r5, r6, lr}
	.save {r4, r5, r6, lr}
	.pad #8
	sub	sp, sp, #8
	mov	r4, r1
	mov	r5, r0
	bl	_ZNK8opendnp313Group120Var124SizeEv(PLT)
	ldr	r3, [r4]
	cmp	r0, r3
	bls	.L129
.L132:
	mov	r0, #0
.L134:
	add	sp, sp, #8
	@ sp needed
	pop	{r4, r5, r6, pc}
.L129:
	ldr	r6, [r5, #12]
	bl	_ZN7openpal8MaxValueItEET_v(PLT)
	cmp	r6, r0
	bhi	.L132
	ldr	r3, [r4, #4]
	ldr	r2, [r5, #4]
	mov	r1, #4
	str	r2, [r3]	@ unaligned
	mov	r0, r4
	bl	_ZN7openpal6WSlice7AdvanceEj(PLT)
	ldrh	r2, [r5, #8]
	ldr	r3, [r4, #4]
	mov	r1, #2
	mov	r0, r4
	lsr	ip, r2, #8
	strb	r2, [r3]
	strb	ip, [r3, #1]
	bl	_ZN7openpal6WSlice7AdvanceEj(PLT)
	ldr	r3, [r5, #12]
	ldr	r2, [r4]
	add	r1, r3, #2
	cmp	r1, r2
	bhi	.L132
	ldr	r2, [r4, #4]
	lsr	r0, r3, #8
	mov	r1, #2
	strb	r3, [r2]
	strb	r0, [r2, #1]
	mov	r0, r4
	bl	_ZN7openpal6WSlice7AdvanceEj(PLT)
	mov	r0, sp
	mov	r2, r4
	add	r1, r5, #12
	bl	_ZNK7openpal6RSlice6CopyToERNS_6WSliceE(PLT)
	mov	r0, #1
	b	.L134
	.fnend
	.size	_ZNK8opendnp313Group120Var125WriteERN7openpal6WSliceE, .-_ZNK8opendnp313Group120Var125WriteERN7openpal6WSliceE
	.align	2
	.global	_ZN8opendnp313Group120Var114ReadERKN7openpal6RSliceE
	.syntax unified
	.arm
	.fpu vfp
	.type	_ZN8opendnp313Group120Var114ReadERKN7openpal6RSliceE, %function
_ZN8opendnp313Group120Var114ReadERKN7openpal6RSliceE:
	.fnstart
.LFB197:
	@ args = 0, pretend = 0, frame = 16
	@ frame_needed = 0, uses_anonymous_args = 0
	ldr	r3, [r1]
	cmp	r3, #4
	bhi	.L149
	mov	r0, #0
	bx	lr
.L149:
	push	{r4, r5, r6, r7, r8, lr}
	.save {r4, r5, r6, r7, r8, lr}
	mov	r6, r0
	.pad #16
	sub	sp, sp, #16
	ldm	r1, {r0, r1}
	add	r4, sp, #8
	stm	r4, {r0, r1}
	ldr	r3, [sp, #12]
	mov	r0, r4
	mov	r1, #1
	ldrb	r5, [r3]	@ zero_extendqisi2
	bl	_ZN7openpal6RSlice7AdvanceEj(PLT)
	mov	r0, r5
	bl	_ZN8opendnp323KeyChangeMethodFromTypeEh(PLT)
	ldr	r3, [sp, #8]
	cmp	r3, #3
	strb	r0, [r6, #4]
	bhi	.L150
.L141:
	mov	r0, #0
	add	sp, sp, #16
	@ sp needed
	pop	{r4, r5, r6, r7, r8, pc}
.L150:
	ldr	r3, [sp, #12]
	mov	r1, #2
	mov	r0, r4
	ldrb	r2, [r3, #1]	@ zero_extendqisi2
	ldrb	r8, [r3]	@ zero_extendqisi2
	orr	r8, r8, r2, lsl #8
	bl	_ZN7openpal6RSlice7AdvanceEj(PLT)
	ldr	r3, [sp, #12]
	mov	r1, #2
	mov	r0, r4
	ldrb	r2, [r3, #1]	@ zero_extendqisi2
	ldrb	r7, [r3]	@ zero_extendqisi2
	orr	r7, r7, r2, lsl #8
	bl	_ZN7openpal6RSlice7AdvanceEj(PLT)
	ldr	r2, [sp, #8]
	add	r3, r8, r7
	cmp	r2, r3
	bcc	.L141
	mov	r2, r8
	mov	r0, sp
	mov	r1, r4
	bl	_ZNK7openpal6RSlice4TakeEj(PLT)
	ldm	sp, {r0, r1}
	add	r3, r6, #8
	stm	r3, {r0, r1}
	mov	r1, r8
	mov	r0, r4
	bl	_ZN7openpal6RSlice7AdvanceEj(PLT)
	mov	r2, r7
	mov	r1, r4
	mov	r0, sp
	bl	_ZNK7openpal6RSlice4TakeEj(PLT)
	ldm	sp, {r0, r1}
	add	r3, r6, #16
	stm	r3, {r0, r1}
	mov	r0, r4
	mov	r1, r7
	bl	_ZN7openpal6RSlice7AdvanceEj(PLT)
	ldr	r0, [sp, #8]
	clz	r0, r0
	lsr	r0, r0, #5
	add	sp, sp, #16
	@ sp needed
	pop	{r4, r5, r6, r7, r8, pc}
	.fnend
	.size	_ZN8opendnp313Group120Var114ReadERKN7openpal6RSliceE, .-_ZN8opendnp313Group120Var114ReadERKN7openpal6RSliceE
	.align	2
	.global	_ZNK8opendnp313Group120Var115WriteERN7openpal6WSliceE
	.syntax unified
	.arm
	.fpu vfp
	.type	_ZNK8opendnp313Group120Var115WriteERN7openpal6WSliceE, %function
_ZNK8opendnp313Group120Var115WriteERN7openpal6WSliceE:
	.fnstart
.LFB198:
	@ args = 0, pretend = 0, frame = 8
	@ frame_needed = 0, uses_anonymous_args = 0
	push	{r4, r5, r6, lr}
	.save {r4, r5, r6, lr}
	.pad #8
	sub	sp, sp, #8
	mov	r4, r1
	mov	r5, r0
	bl	_ZNK8opendnp313Group120Var114SizeEv(PLT)
	ldr	r3, [r4]
	cmp	r0, r3
	bls	.L152
.L154:
	mov	r0, #0
.L153:
	add	sp, sp, #8
	@ sp needed
	pop	{r4, r5, r6, pc}
.L152:
	ldr	r6, [r5, #8]
	bl	_ZN7openpal8MaxValueItEET_v(PLT)
	cmp	r6, r0
	bhi	.L154
	ldr	r6, [r5, #16]
	bl	_ZN7openpal8MaxValueItEET_v(PLT)
	cmp	r6, r0
	bhi	.L154
	ldrb	r0, [r5, #4]	@ zero_extendqisi2
	bl	_ZN8opendnp321KeyChangeMethodToTypeENS_15KeyChangeMethodE(PLT)
	ldr	r3, [r4, #4]
	mov	r1, #1
	strb	r0, [r3]
	mov	r0, r4
	bl	_ZN7openpal6WSlice7AdvanceEj(PLT)
	ldr	r2, [r5, #8]
	ldr	r3, [r5, #16]
	ldr	r1, [r4]
	add	r3, r2, r3
	add	r3, r3, #4
	cmp	r3, r1
	bhi	.L154
	ldr	r3, [r4, #4]
	lsr	r0, r2, #8
	mov	r1, #2
	strb	r2, [r3]
	strb	r0, [r3, #1]
	mov	r0, r4
	bl	_ZN7openpal6WSlice7AdvanceEj(PLT)
	ldr	r2, [r5, #16]
	ldr	r3, [r4, #4]
	mov	r1, #2
	lsr	r0, r2, #8
	strb	r0, [r3, #1]
	strb	r2, [r3]
	mov	r0, r4
	bl	_ZN7openpal6WSlice7AdvanceEj(PLT)
	mov	r0, sp
	mov	r2, r4
	add	r1, r5, #8
	bl	_ZNK7openpal6RSlice6CopyToERNS_6WSliceE(PLT)
	mov	r0, sp
	mov	r2, r4
	add	r1, r5, #16
	bl	_ZNK7openpal6RSlice6CopyToERNS_6WSliceE(PLT)
	mov	r0, #1
	b	.L153
	.fnend
	.size	_ZNK8opendnp313Group120Var115WriteERN7openpal6WSliceE, .-_ZNK8opendnp313Group120Var115WriteERN7openpal6WSliceE
	.align	2
	.global	_ZNK8opendnp312Group120Var75WriteERN7openpal6WSliceE
	.syntax unified
	.arm
	.fpu vfp
	.type	_ZNK8opendnp312Group120Var75WriteERN7openpal6WSliceE, %function
_ZNK8opendnp312Group120Var75WriteERN7openpal6WSliceE:
	.fnstart
.LFB162:
	@ args = 0, pretend = 0, frame = 8
	@ frame_needed = 0, uses_anonymous_args = 0
	push	{r4, r5, lr}
	.save {r4, r5, lr}
	.pad #12
	sub	sp, sp, #12
	mov	r4, r1
	mov	r5, r0
	bl	_ZNK8opendnp312Group120Var74SizeEv(PLT)
	ldr	r3, [r4]
	cmp	r0, r3
	movhi	r0, #0
	bhi	.L157
	ldr	r3, [r4, #4]
	ldr	r2, [r5, #4]
	mov	r1, #4
	str	r2, [r3]	@ unaligned
	mov	r0, r4
	bl	_ZN7openpal6WSlice7AdvanceEj(PLT)
	ldrh	r2, [r5, #8]
	ldr	r3, [r4, #4]
	mov	r1, #2
	mov	r0, r4
	lsr	ip, r2, #8
	strb	ip, [r3, #1]
	strb	r2, [r3]
	bl	_ZN7openpal6WSlice7AdvanceEj(PLT)
	ldrh	r2, [r5, #10]
	ldr	r3, [r4, #4]
	mov	r1, #2
	mov	r0, r4
	lsr	ip, r2, #8
	strb	ip, [r3, #1]
	strb	r2, [r3]
	bl	_ZN7openpal6WSlice7AdvanceEj(PLT)
	ldrb	r0, [r5, #12]	@ zero_extendqisi2
	bl	_ZN8opendnp319AuthErrorCodeToTypeENS_13AuthErrorCodeE(PLT)
	ldr	r3, [r4, #4]
	mov	r1, #1
	strb	r0, [r3]
	mov	r0, r4
	bl	_ZN7openpal6WSlice7AdvanceEj(PLT)
	ldrd	r2, [r5, #16]
	ldr	r0, [r4, #4]
	bl	_ZN7openpal8UInt48LE5WriteEPhNS_10UInt48TypeE(PLT)
	mov	r1, #6
	mov	r0, r4
	bl	_ZN7openpal6WSlice7AdvanceEj(PLT)
	mov	r0, sp
	mov	r2, r4
	add	r1, r5, #24
	bl	_ZNK7openpal6RSlice6CopyToERNS_6WSliceE(PLT)
	mov	r0, #1
.L157:
	add	sp, sp, #12
	@ sp needed
	pop	{r4, r5, pc}
	.fnend
	.size	_ZNK8opendnp312Group120Var75WriteERN7openpal6WSliceE, .-_ZNK8opendnp312Group120Var75WriteERN7openpal6WSliceE
	.align	2
	.global	_ZNK8opendnp312Group120Var65WriteERN7openpal6WSliceE
	.syntax unified
	.arm
	.fpu vfp
	.type	_ZNK8opendnp312Group120Var65WriteERN7openpal6WSliceE, %function
_ZNK8opendnp312Group120Var65WriteERN7openpal6WSliceE:
	.fnstart
.LFB153:
	@ args = 0, pretend = 0, frame = 8
	@ frame_needed = 0, uses_anonymous_args = 0
	push	{r4, r5, lr}
	.save {r4, r5, lr}
	.pad #12
	sub	sp, sp, #12
	mov	r4, r1
	mov	r5, r0
	bl	_ZNK8opendnp312Group120Var64SizeEv(PLT)
	ldr	r3, [r4]
	cmp	r0, r3
	movhi	r0, #0
	bhi	.L161
	ldr	r3, [r4, #4]
	ldr	r2, [r5, #4]
	mov	r1, #4
	str	r2, [r3]	@ unaligned
	mov	r0, r4
	bl	_ZN7openpal6WSlice7AdvanceEj(PLT)
	ldrh	r2, [r5, #8]
	ldr	r3, [r4, #4]
	mov	r1, #2
	mov	r0, r4
	lsr	ip, r2, #8
	strb	r2, [r3]
	strb	ip, [r3, #1]
	bl	_ZN7openpal6WSlice7AdvanceEj(PLT)
	mov	r0, sp
	mov	r2, r4
	add	r1, r5, #12
	bl	_ZNK7openpal6RSlice6CopyToERNS_6WSliceE(PLT)
	mov	r0, #1
.L161:
	add	sp, sp, #12
	@ sp needed
	pop	{r4, r5, pc}
	.fnend
	.size	_ZNK8opendnp312Group120Var65WriteERN7openpal6WSliceE, .-_ZNK8opendnp312Group120Var65WriteERN7openpal6WSliceE
	.align	2
	.global	_ZNK8opendnp312Group120Var25WriteERN7openpal6WSliceE
	.syntax unified
	.arm
	.fpu vfp
	.type	_ZNK8opendnp312Group120Var25WriteERN7openpal6WSliceE, %function
_ZNK8opendnp312Group120Var25WriteERN7openpal6WSliceE:
	.fnstart
.LFB125:
	@ args = 0, pretend = 0, frame = 8
	@ frame_needed = 0, uses_anonymous_args = 0
	push	{r4, r5, lr}
	.save {r4, r5, lr}
	.pad #12
	sub	sp, sp, #12
	mov	r4, r1
	mov	r5, r0
	bl	_ZNK8opendnp312Group120Var24SizeEv(PLT)
	ldr	r3, [r4]
	cmp	r0, r3
	movhi	r0, #0
	bhi	.L165
	ldr	r3, [r4, #4]
	ldr	r2, [r5, #4]
	mov	r1, #4
	str	r2, [r3]	@ unaligned
	mov	r0, r4
	bl	_ZN7openpal6WSlice7AdvanceEj(PLT)
	ldrh	r2, [r5, #8]
	ldr	r3, [r4, #4]
	mov	r1, #2
	mov	r0, r4
	lsr	ip, r2, #8
	strb	r2, [r3]
	strb	ip, [r3, #1]
	bl	_ZN7openpal6WSlice7AdvanceEj(PLT)
	mov	r0, sp
	mov	r2, r4
	add	r1, r5, #12
	bl	_ZNK7openpal6RSlice6CopyToERNS_6WSliceE(PLT)
	mov	r0, #1
.L165:
	add	sp, sp, #12
	@ sp needed
	pop	{r4, r5, pc}
	.fnend
	.size	_ZNK8opendnp312Group120Var25WriteERN7openpal6WSliceE, .-_ZNK8opendnp312Group120Var25WriteERN7openpal6WSliceE
	.align	2
	.global	_ZNK8opendnp312Group120Var15WriteERN7openpal6WSliceE
	.syntax unified
	.arm
	.fpu vfp
	.type	_ZNK8opendnp312Group120Var15WriteERN7openpal6WSliceE, %function
_ZNK8opendnp312Group120Var15WriteERN7openpal6WSliceE:
	.fnstart
.LFB116:
	@ args = 0, pretend = 0, frame = 8
	@ frame_needed = 0, uses_anonymous_args = 0
	push	{r4, r5, lr}
	.save {r4, r5, lr}
	.pad #12
	sub	sp, sp, #12
	mov	r4, r1
	mov	r5, r0
	bl	_ZNK8opendnp312Group120Var14SizeEv(PLT)
	ldr	r3, [r4]
	cmp	r0, r3
	movhi	r0, #0
	bhi	.L169
	ldr	r3, [r4, #4]
	ldr	r2, [r5, #4]
	mov	r1, #4
	str	r2, [r3]	@ unaligned
	mov	r0, r4
	bl	_ZN7openpal6WSlice7AdvanceEj(PLT)
	ldrh	r2, [r5, #8]
	ldr	r3, [r4, #4]
	mov	r1, #2
	mov	r0, r4
	lsr	ip, r2, #8
	strb	ip, [r3, #1]
	strb	r2, [r3]
	bl	_ZN7openpal6WSlice7AdvanceEj(PLT)
	ldrb	r0, [r5, #10]	@ zero_extendqisi2
	bl	_ZN8opendnp314HMACTypeToTypeENS_8HMACTypeE(PLT)
	ldr	r3, [r4, #4]
	mov	r1, #1
	strb	r0, [r3]
	mov	r0, r4
	bl	_ZN7openpal6WSlice7AdvanceEj(PLT)
	ldrb	r0, [r5, #11]	@ zero_extendqisi2
	bl	_ZN8opendnp321ChallengeReasonToTypeENS_15ChallengeReasonE(PLT)
	ldr	r3, [r4, #4]
	mov	r1, #1
	strb	r0, [r3]
	mov	r0, r4
	bl	_ZN7openpal6WSlice7AdvanceEj(PLT)
	mov	r0, sp
	mov	r2, r4
	add	r1, r5, #12
	bl	_ZNK7openpal6RSlice6CopyToERNS_6WSliceE(PLT)
	mov	r0, #1
.L169:
	add	sp, sp, #12
	@ sp needed
	pop	{r4, r5, pc}
	.fnend
	.size	_ZNK8opendnp312Group120Var15WriteERN7openpal6WSliceE, .-_ZNK8opendnp312Group120Var15WriteERN7openpal6WSliceE
	.align	2
	.global	_ZNK8opendnp313Group120Var105WriteERN7openpal6WSliceE
	.syntax unified
	.arm
	.fpu vfp
	.type	_ZNK8opendnp313Group120Var105WriteERN7openpal6WSliceE, %function
_ZNK8opendnp313Group120Var105WriteERN7openpal6WSliceE:
	.fnstart
.LFB189:
	@ args = 0, pretend = 0, frame = 8
	@ frame_needed = 0, uses_anonymous_args = 0
	push	{r4, r5, r6, lr}
	.save {r4, r5, r6, lr}
	.pad #8
	sub	sp, sp, #8
	mov	r4, r1
	mov	r5, r0
	bl	_ZNK8opendnp313Group120Var104SizeEv(PLT)
	ldr	r3, [r4]
	cmp	r0, r3
	bls	.L173
.L175:
	mov	r0, #0
.L174:
	add	sp, sp, #8
	@ sp needed
	pop	{r4, r5, r6, pc}
.L173:
	ldr	r6, [r5, #16]
	bl	_ZN7openpal8MaxValueItEET_v(PLT)
	cmp	r6, r0
	bhi	.L175
	ldr	r6, [r5, #24]
	bl	_ZN7openpal8MaxValueItEET_v(PLT)
	cmp	r6, r0
	bhi	.L175
	ldr	r6, [r5, #32]
	bl	_ZN7openpal8MaxValueItEET_v(PLT)
	cmp	r6, r0
	bhi	.L175
	ldrb	r0, [r5, #4]	@ zero_extendqisi2
	bl	_ZN8opendnp321KeyChangeMethodToTypeENS_15KeyChangeMethodE(PLT)
	ldr	r3, [r4, #4]
	mov	r1, #1
	strb	r0, [r3]
	mov	r0, r4
	bl	_ZN7openpal6WSlice7AdvanceEj(PLT)
	ldrb	r0, [r5, #5]	@ zero_extendqisi2
	bl	_ZN8opendnp319UserOperationToTypeENS_13UserOperationE(PLT)
	ldr	r3, [r4, #4]
	mov	r1, #1
	strb	r0, [r3]
	mov	r0, r4
	bl	_ZN7openpal6WSlice7AdvanceEj(PLT)
	ldr	r3, [r4, #4]
	ldr	r2, [r5, #8]
	mov	r1, #4
	str	r2, [r3]	@ unaligned
	mov	r0, r4
	bl	_ZN7openpal6WSlice7AdvanceEj(PLT)
	ldrh	r2, [r5, #12]
	ldr	r3, [r4, #4]
	mov	r1, #2
	mov	r0, r4
	lsr	ip, r2, #8
	strb	ip, [r3, #1]
	strb	r2, [r3]
	bl	_ZN7openpal6WSlice7AdvanceEj(PLT)
	ldrh	r2, [r5, #14]
	ldr	r3, [r4, #4]
	mov	r1, #2
	mov	r0, r4
	lsr	ip, r2, #8
	strb	r2, [r3]
	strb	ip, [r3, #1]
	bl	_ZN7openpal6WSlice7AdvanceEj(PLT)
	ldr	r2, [r5, #16]
	ldr	r3, [r5, #24]
	ldr	r0, [r5, #32]
	add	r3, r2, r3
	add	r3, r3, #6
	ldr	r1, [r4]
	add	r3, r3, r0
	cmp	r3, r1
	bhi	.L175
	ldr	r3, [r4, #4]
	lsr	r0, r2, #8
	mov	r1, #2
	strb	r2, [r3]
	strb	r0, [r3, #1]
	mov	r0, r4
	bl	_ZN7openpal6WSlice7AdvanceEj(PLT)
	ldr	r2, [r5, #24]
	ldr	r3, [r4, #4]
	mov	r1, #2
	lsr	r0, r2, #8
	strb	r0, [r3, #1]
	strb	r2, [r3]
	mov	r0, r4
	bl	_ZN7openpal6WSlice7AdvanceEj(PLT)
	ldr	r2, [r5, #32]
	ldr	r3, [r4, #4]
	mov	r1, #2
	lsr	r0, r2, #8
	strb	r0, [r3, #1]
	strb	r2, [r3]
	mov	r0, r4
	bl	_ZN7openpal6WSlice7AdvanceEj(PLT)
	mov	r0, sp
	mov	r2, r4
	add	r1, r5, #16
	bl	_ZNK7openpal6RSlice6CopyToERNS_6WSliceE(PLT)
	mov	r2, r4
	mov	r0, sp
	add	r1, r5, #24
	bl	_ZNK7openpal6RSlice6CopyToERNS_6WSliceE(PLT)
	mov	r0, sp
	mov	r2, r4
	add	r1, r5, #32
	bl	_ZNK7openpal6RSlice6CopyToERNS_6WSliceE(PLT)
	mov	r0, #1
	b	.L174
	.fnend
	.size	_ZNK8opendnp313Group120Var105WriteERN7openpal6WSliceE, .-_ZNK8opendnp313Group120Var105WriteERN7openpal6WSliceE
	.align	2
	.global	_ZN8opendnp313Group120Var104ReadERKN7openpal6RSliceE
	.syntax unified
	.arm
	.fpu vfp
	.type	_ZN8opendnp313Group120Var104ReadERKN7openpal6RSliceE, %function
_ZN8opendnp313Group120Var104ReadERKN7openpal6RSliceE:
	.fnstart
.LFB188:
	@ args = 0, pretend = 0, frame = 24
	@ frame_needed = 0, uses_anonymous_args = 0
	ldr	r3, [r1]
	cmp	r3, #15
	bhi	.L197
	mov	r0, #0
	bx	lr
.L197:
	push	{r4, r5, r6, r7, r8, r9, lr}
	.save {r4, r5, r6, r7, r8, r9, lr}
	mov	r4, r0
	.pad #28
	sub	sp, sp, #28
	ldm	r1, {r0, r1}
	add	r5, sp, #16
	stm	r5, {r0, r1}
	ldr	r3, [sp, #20]
	mov	r1, #1
	mov	r0, r5
	ldrb	r6, [r3]	@ zero_extendqisi2
	bl	_ZN7openpal6RSlice7AdvanceEj(PLT)
	mov	r0, r6
	bl	_ZN8opendnp323KeyChangeMethodFromTypeEh(PLT)
	ldr	r3, [sp, #20]
	mov	r1, #1
	strb	r0, [r4, #4]
	ldrb	r6, [r3]	@ zero_extendqisi2
	mov	r0, r5
	bl	_ZN7openpal6RSlice7AdvanceEj(PLT)
	mov	r0, r6
	bl	_ZN8opendnp321UserOperationFromTypeEh(PLT)
	ldr	r3, [sp, #20]
	mov	r1, #4
	strb	r0, [r4, #5]
	mov	r0, r5
	ldr	r6, [r3]	@ unaligned
	bl	_ZN7openpal6RSlice7AdvanceEj(PLT)
	ldr	r3, [sp, #20]
	str	r6, [r4, #8]
	mov	r0, r5
	ldrb	r2, [r3, #1]	@ zero_extendqisi2
	ldrb	r6, [r3]	@ zero_extendqisi2
	mov	r1, #2
	orr	r6, r6, r2, lsl #8
	bl	_ZN7openpal6RSlice7AdvanceEj(PLT)
	ldr	r3, [sp, #20]
	strh	r6, [r4, #12]	@ movhi
	mov	r0, r5
	ldrb	r2, [r3, #1]	@ zero_extendqisi2
	ldrb	r6, [r3]	@ zero_extendqisi2
	mov	r1, #2
	orr	r6, r6, r2, lsl #8
	bl	_ZN7openpal6RSlice7AdvanceEj(PLT)
	ldr	r3, [sp, #16]
	strh	r6, [r4, #14]	@ movhi
	cmp	r3, #5
	bhi	.L198
.L181:
	mov	r0, #0
	add	sp, sp, #28
	@ sp needed
	pop	{r4, r5, r6, r7, r8, r9, pc}
.L198:
	add	r7, sp, #8
	add	r9, sp, #14
	mov	r8, #2
.L184:
	ldr	r3, [sp, #20]
	mov	r1, r8
	mov	r0, r5
	ldrb	r2, [r3, #1]	@ zero_extendqisi2
	ldrb	r6, [r3]	@ zero_extendqisi2
	orr	r6, r6, r2, lsl #8
	bl	_ZN7openpal6RSlice7AdvanceEj(PLT)
	strh	r6, [r7], #2	@ movhi
	cmp	r7, r9
	bne	.L184
	ldrh	r9, [sp, #8]
	ldrh	r8, [sp, #10]
	ldrh	r7, [sp, #12]
	ldr	r2, [sp, #16]
	add	r3, r9, r8
	add	r3, r3, r7
	cmp	r2, r3
	bcc	.L181
	mov	r2, r9
	mov	r0, sp
	mov	r1, r5
	bl	_ZNK7openpal6RSlice4TakeEj(PLT)
	ldm	sp, {r0, r1}
	add	r3, r4, #16
	stm	r3, {r0, r1}
	mov	r1, r9
	mov	r0, r5
	bl	_ZN7openpal6RSlice7AdvanceEj(PLT)
	mov	r2, r8
	mov	r1, r5
	mov	r0, sp
	bl	_ZNK7openpal6RSlice4TakeEj(PLT)
	ldm	sp, {r0, r1}
	add	r3, r4, #24
	add	r4, r4, #32
	stm	r3, {r0, r1}
	mov	r1, r8
	mov	r0, r5
	bl	_ZN7openpal6RSlice7AdvanceEj(PLT)
	mov	r2, r7
	mov	r1, r5
	mov	r0, sp
	bl	_ZNK7openpal6RSlice4TakeEj(PLT)
	ldm	sp, {r0, r1}
	stm	r4, {r0, r1}
	mov	r0, r5
	mov	r1, r7
	bl	_ZN7openpal6RSlice7AdvanceEj(PLT)
	ldr	r0, [sp, #16]
	clz	r0, r0
	lsr	r0, r0, #5
	add	sp, sp, #28
	@ sp needed
	pop	{r4, r5, r6, r7, r8, r9, pc}
	.fnend
	.size	_ZN8opendnp313Group120Var104ReadERKN7openpal6RSliceE, .-_ZN8opendnp313Group120Var104ReadERKN7openpal6RSliceE
	.align	2
	.global	_ZN8opendnp312Group120Var54ReadERKN7openpal6RSliceE
	.syntax unified
	.arm
	.fpu vfp
	.type	_ZN8opendnp312Group120Var54ReadERKN7openpal6RSliceE, %function
_ZN8opendnp312Group120Var54ReadERKN7openpal6RSliceE:
	.fnstart
.LFB143:
	@ args = 0, pretend = 0, frame = 16
	@ frame_needed = 0, uses_anonymous_args = 0
	ldr	r3, [r1]
	cmp	r3, #10
	bhi	.L209
	mov	r3, #0
	mov	r0, r3
	bx	lr
.L209:
	push	{r4, r5, r6, r7, lr}
	.save {r4, r5, r6, r7, lr}
	mov	r4, r0
	.pad #20
	sub	sp, sp, #20
	ldm	r1, {r0, r1}
	add	r5, sp, #8
	stm	r5, {r0, r1}
	ldr	r3, [sp, #12]
	mov	r0, r5
	mov	r1, #4
	ldr	r6, [r3]	@ unaligned
	bl	_ZN7openpal6RSlice7AdvanceEj(PLT)
	ldr	r3, [sp, #12]
	str	r6, [r4, #4]
	mov	r0, r5
	ldrb	r2, [r3, #1]	@ zero_extendqisi2
	ldrb	r6, [r3]	@ zero_extendqisi2
	mov	r1, #2
	orr	r6, r6, r2, lsl #8
	bl	_ZN7openpal6RSlice7AdvanceEj(PLT)
	ldr	r3, [sp, #12]
	strh	r6, [r4, #8]	@ movhi
	mov	r1, #1
	ldrb	r6, [r3]	@ zero_extendqisi2
	mov	r0, r5
	bl	_ZN7openpal6RSlice7AdvanceEj(PLT)
	mov	r0, r6
	bl	_ZN8opendnp324KeyWrapAlgorithmFromTypeEh(PLT)
	ldr	r3, [sp, #12]
	mov	r1, #1
	strb	r0, [r4, #10]
	ldrb	r6, [r3]	@ zero_extendqisi2
	mov	r0, r5
	bl	_ZN7openpal6RSlice7AdvanceEj(PLT)
	mov	r0, r6
	bl	_ZN8opendnp317KeyStatusFromTypeEh(PLT)
	ldr	r3, [sp, #12]
	mov	r1, #1
	strb	r0, [r4, #11]
	ldrb	r6, [r3]	@ zero_extendqisi2
	mov	r0, r5
	bl	_ZN7openpal6RSlice7AdvanceEj(PLT)
	mov	r0, r6
	bl	_ZN8opendnp316HMACTypeFromTypeEh(PLT)
	ldr	r3, [sp, #8]
	cmp	r3, #1
	strb	r0, [r4, #12]
	bls	.L201
	ldr	r3, [sp, #12]
	mov	r1, #2
	mov	r0, r5
	ldrb	r2, [r3, #1]	@ zero_extendqisi2
	ldrb	r6, [r3]	@ zero_extendqisi2
	orr	r6, r6, r2, lsl #8
	bl	_ZN7openpal6RSlice7AdvanceEj(PLT)
	ldr	r3, [sp, #8]
	cmp	r3, r6
	bcs	.L210
.L201:
	mov	r3, #0
	mov	r0, r3
	add	sp, sp, #20
	@ sp needed
	pop	{r4, r5, r6, r7, pc}
.L210:
	mov	r0, sp
	mov	r2, r6
	mov	r1, r5
	bl	_ZNK7openpal6RSlice4TakeEj(PLT)
	ldm	sp, {r0, r1}
	add	r3, r4, #16
	add	r4, r4, #24
	stm	r3, {r0, r1}
	mov	r1, r6
	mov	r0, r5
	bl	_ZN7openpal6RSlice7AdvanceEj(PLT)
	ldm	r5, {r0, r1}
	mov	r3, #1
	stm	r4, {r0, r1}
	mov	r0, r3
	add	sp, sp, #20
	@ sp needed
	pop	{r4, r5, r6, r7, pc}
	.fnend
	.size	_ZN8opendnp312Group120Var54ReadERKN7openpal6RSliceE, .-_ZN8opendnp312Group120Var54ReadERKN7openpal6RSliceE
	.align	2
	.global	_ZN8opendnp312Group120Var64ReadERKN7openpal6RSliceE
	.syntax unified
	.arm
	.fpu vfp
	.type	_ZN8opendnp312Group120Var64ReadERKN7openpal6RSliceE, %function
_ZN8opendnp312Group120Var64ReadERKN7openpal6RSliceE:
	.fnstart
.LFB152:
	@ args = 0, pretend = 0, frame = 8
	@ frame_needed = 0, uses_anonymous_args = 0
	ldr	r3, [r1]
	cmp	r3, #5
	bhi	.L218
	mov	r3, #0
	mov	r0, r3
	bx	lr
.L218:
	push	{r4, r5, r6, lr}
	.save {r4, r5, r6, lr}
	mov	r4, r0
	ldm	r1, {r0, r1}
	.pad #8
	sub	sp, sp, #8
	mov	r3, r1
	stm	sp, {r0, r1}
	mov	r0, sp
	mov	r1, #4
	ldr	r6, [r3]	@ unaligned
	bl	_ZN7openpal6RSlice7AdvanceEj(PLT)
	ldr	r3, [sp, #4]
	str	r6, [r4, #4]
	mov	r0, sp
	ldrb	r2, [r3, #1]	@ zero_extendqisi2
	ldrb	r6, [r3]	@ zero_extendqisi2
	mov	r1, #2
	orr	r6, r6, r2, lsl #8
	bl	_ZN7openpal6RSlice7AdvanceEj(PLT)
	ldm	sp, {r0, r1}
	add	r2, r4, #12
	mov	r3, #1
	strh	r6, [r4, #8]	@ movhi
	stm	r2, {r0, r1}
	mov	r0, r3
	add	sp, sp, #8
	@ sp needed
	pop	{r4, r5, r6, pc}
	.fnend
	.size	_ZN8opendnp312Group120Var64ReadERKN7openpal6RSliceE, .-_ZN8opendnp312Group120Var64ReadERKN7openpal6RSliceE
	.align	2
	.global	_ZN8opendnp312Group120Var14ReadERKN7openpal6RSliceE
	.syntax unified
	.arm
	.fpu vfp
	.type	_ZN8opendnp312Group120Var14ReadERKN7openpal6RSliceE, %function
_ZN8opendnp312Group120Var14ReadERKN7openpal6RSliceE:
	.fnstart
.LFB115:
	@ args = 0, pretend = 0, frame = 8
	@ frame_needed = 0, uses_anonymous_args = 0
	ldr	r3, [r1]
	cmp	r3, #7
	bhi	.L226
	mov	r3, #0
	mov	r0, r3
	bx	lr
.L226:
	push	{r4, r5, r6, lr}
	.save {r4, r5, r6, lr}
	mov	r4, r0
	ldm	r1, {r0, r1}
	.pad #8
	sub	sp, sp, #8
	mov	r3, r1
	stm	sp, {r0, r1}
	mov	r0, sp
	mov	r1, #4
	ldr	r6, [r3]	@ unaligned
	bl	_ZN7openpal6RSlice7AdvanceEj(PLT)
	ldr	r3, [sp, #4]
	str	r6, [r4, #4]
	mov	r0, sp
	ldrb	r2, [r3, #1]	@ zero_extendqisi2
	ldrb	r6, [r3]	@ zero_extendqisi2
	mov	r1, #2
	orr	r6, r6, r2, lsl #8
	bl	_ZN7openpal6RSlice7AdvanceEj(PLT)
	ldr	r3, [sp, #4]
	strh	r6, [r4, #8]	@ movhi
	mov	r0, sp
	ldrb	r6, [r3]	@ zero_extendqisi2
	mov	r1, #1
	bl	_ZN7openpal6RSlice7AdvanceEj(PLT)
	mov	r0, r6
	bl	_ZN8opendnp316HMACTypeFromTypeEh(PLT)
	ldr	r3, [sp, #4]
	mov	r1, #1
	strb	r0, [r4, #10]
	ldrb	r6, [r3]	@ zero_extendqisi2
	mov	r0, sp
	bl	_ZN7openpal6RSlice7AdvanceEj(PLT)
	mov	r0, r6
	bl	_ZN8opendnp323ChallengeReasonFromTypeEh(PLT)
	add	r2, r4, #12
	mov	r3, #1
	strb	r0, [r4, #11]
	ldm	sp, {r0, r1}
	stm	r2, {r0, r1}
	mov	r0, r3
	add	sp, sp, #8
	@ sp needed
	pop	{r4, r5, r6, pc}
	.fnend
	.size	_ZN8opendnp312Group120Var14ReadERKN7openpal6RSliceE, .-_ZN8opendnp312Group120Var14ReadERKN7openpal6RSliceE
	.align	2
	.global	_ZN8opendnp312Group120Var24ReadERKN7openpal6RSliceE
	.syntax unified
	.arm
	.fpu vfp
	.type	_ZN8opendnp312Group120Var24ReadERKN7openpal6RSliceE, %function
_ZN8opendnp312Group120Var24ReadERKN7openpal6RSliceE:
	.fnstart
.LFB124:
	@ args = 0, pretend = 0, frame = 8
	@ frame_needed = 0, uses_anonymous_args = 0
	ldr	r3, [r1]
	cmp	r3, #5
	bhi	.L234
	mov	r3, #0
	mov	r0, r3
	bx	lr
.L234:
	push	{r4, r5, r6, lr}
	.save {r4, r5, r6, lr}
	mov	r4, r0
	ldm	r1, {r0, r1}
	.pad #8
	sub	sp, sp, #8
	mov	r3, r1
	stm	sp, {r0, r1}
	mov	r0, sp
	mov	r1, #4
	ldr	r6, [r3]	@ unaligned
	bl	_ZN7openpal6RSlice7AdvanceEj(PLT)
	ldr	r3, [sp, #4]
	str	r6, [r4, #4]
	mov	r0, sp
	ldrb	r2, [r3, #1]	@ zero_extendqisi2
	ldrb	r6, [r3]	@ zero_extendqisi2
	mov	r1, #2
	orr	r6, r6, r2, lsl #8
	bl	_ZN7openpal6RSlice7AdvanceEj(PLT)
	ldm	sp, {r0, r1}
	add	r2, r4, #12
	mov	r3, #1
	strh	r6, [r4, #8]	@ movhi
	stm	r2, {r0, r1}
	mov	r0, r3
	add	sp, sp, #8
	@ sp needed
	pop	{r4, r5, r6, pc}
	.fnend
	.size	_ZN8opendnp312Group120Var24ReadERKN7openpal6RSliceE, .-_ZN8opendnp312Group120Var24ReadERKN7openpal6RSliceE
	.align	2
	.global	_ZN8opendnp312Group120Var74ReadERKN7openpal6RSliceE
	.syntax unified
	.arm
	.fpu vfp
	.type	_ZN8opendnp312Group120Var74ReadERKN7openpal6RSliceE, %function
_ZN8opendnp312Group120Var74ReadERKN7openpal6RSliceE:
	.fnstart
.LFB161:
	@ args = 0, pretend = 0, frame = 16
	@ frame_needed = 0, uses_anonymous_args = 0
	ldr	r3, [r1]
	cmp	r3, #14
	bhi	.L242
	mov	r3, #0
	mov	r0, r3
	bx	lr
.L242:
	push	{r4, r5, r6, r7, lr}
	.save {r4, r5, r6, r7, lr}
	mov	r4, r0
	.pad #20
	sub	sp, sp, #20
	ldm	r1, {r0, r1}
	add	r5, sp, #8
	stm	r5, {r0, r1}
	ldr	r3, [sp, #12]
	mov	r0, r5
	mov	r1, #4
	ldr	r6, [r3]	@ unaligned
	bl	_ZN7openpal6RSlice7AdvanceEj(PLT)
	ldr	r3, [sp, #12]
	str	r6, [r4, #4]
	mov	r0, r5
	ldrb	r2, [r3, #1]	@ zero_extendqisi2
	ldrb	r6, [r3]	@ zero_extendqisi2
	mov	r1, #2
	orr	r6, r6, r2, lsl #8
	bl	_ZN7openpal6RSlice7AdvanceEj(PLT)
	ldr	r3, [sp, #12]
	strh	r6, [r4, #8]	@ movhi
	mov	r0, r5
	ldrb	r2, [r3, #1]	@ zero_extendqisi2
	ldrb	r6, [r3]	@ zero_extendqisi2
	mov	r1, #2
	orr	r6, r6, r2, lsl #8
	bl	_ZN7openpal6RSlice7AdvanceEj(PLT)
	ldr	r3, [sp, #12]
	strh	r6, [r4, #10]	@ movhi
	mov	r0, r5
	ldrb	r6, [r3]	@ zero_extendqisi2
	mov	r1, #1
	bl	_ZN7openpal6RSlice7AdvanceEj(PLT)
	mov	r0, r6
	bl	_ZN8opendnp321AuthErrorCodeFromTypeEh(PLT)
	ldr	r1, [sp, #12]
	strb	r0, [r4, #12]
	mov	r0, sp
	bl	_ZN7openpal8UInt48LE4ReadEPKh(PLT)
	mov	r0, r5
	mov	r1, #6
	ldrd	r6, [sp]
	bl	_ZN7openpal6RSlice7AdvanceEj(PLT)
	ldm	r5, {r0, r1}
	add	r2, r4, #24
	mov	r3, #1
	strd	r6, [r4, #16]
	stm	r2, {r0, r1}
	mov	r0, r3
	add	sp, sp, #20
	@ sp needed
	pop	{r4, r5, r6, r7, pc}
	.fnend
	.size	_ZN8opendnp312Group120Var74ReadERKN7openpal6RSliceE, .-_ZN8opendnp312Group120Var74ReadERKN7openpal6RSliceE
	.align	2
	.global	_ZN8opendnp313Group120Var134ReadERKN7openpal6RSliceE
	.syntax unified
	.arm
	.fpu vfp
	.type	_ZN8opendnp313Group120Var134ReadERKN7openpal6RSliceE, %function
_ZN8opendnp313Group120Var134ReadERKN7openpal6RSliceE:
	.fnstart
.LFB215:
	@ args = 0, pretend = 0, frame = 16
	@ frame_needed = 0, uses_anonymous_args = 0
	ldr	r3, [r1]
	cmp	r3, #7
	bhi	.L253
	mov	r0, #0
	bx	lr
.L253:
	push	{r4, r5, r6, r7, lr}
	.save {r4, r5, r6, r7, lr}
	mov	r4, r0
	.pad #20
	sub	sp, sp, #20
	ldm	r1, {r0, r1}
	add	r5, sp, #8
	stm	r5, {r0, r1}
	ldr	r3, [sp, #12]
	mov	r0, r5
	mov	r1, #4
	ldr	r6, [r3]	@ unaligned
	bl	_ZN7openpal6RSlice7AdvanceEj(PLT)
	ldr	r3, [sp, #12]
	str	r6, [r4, #4]
	mov	r0, r5
	ldrb	r2, [r3, #1]	@ zero_extendqisi2
	ldrb	r6, [r3]	@ zero_extendqisi2
	mov	r1, #2
	orr	r6, r6, r2, lsl #8
	bl	_ZN7openpal6RSlice7AdvanceEj(PLT)
	ldr	r3, [sp, #8]
	strh	r6, [r4, #8]	@ movhi
	cmp	r3, #1
	bls	.L245
	ldr	r3, [sp, #12]
	mov	r1, #2
	mov	r0, r5
	ldrb	r2, [r3, #1]	@ zero_extendqisi2
	ldrb	r6, [r3]	@ zero_extendqisi2
	orr	r6, r6, r2, lsl #8
	bl	_ZN7openpal6RSlice7AdvanceEj(PLT)
	ldr	r3, [sp, #8]
	cmp	r3, r6
	bcs	.L254
.L245:
	mov	r0, #0
	add	sp, sp, #20
	@ sp needed
	pop	{r4, r5, r6, r7, pc}
.L254:
	mov	r0, sp
	mov	r2, r6
	mov	r1, r5
	bl	_ZNK7openpal6RSlice4TakeEj(PLT)
	ldm	sp, {r0, r1}
	add	r4, r4, #12
	stm	r4, {r0, r1}
	mov	r0, r5
	mov	r1, r6
	bl	_ZN7openpal6RSlice7AdvanceEj(PLT)
	ldr	r0, [sp, #8]
	clz	r0, r0
	lsr	r0, r0, #5
	add	sp, sp, #20
	@ sp needed
	pop	{r4, r5, r6, r7, pc}
	.fnend
	.size	_ZN8opendnp313Group120Var134ReadERKN7openpal6RSliceE, .-_ZN8opendnp313Group120Var134ReadERKN7openpal6RSliceE
	.align	2
	.global	_ZN8opendnp313Group120Var124ReadERKN7openpal6RSliceE
	.syntax unified
	.arm
	.fpu vfp
	.type	_ZN8opendnp313Group120Var124ReadERKN7openpal6RSliceE, %function
_ZN8opendnp313Group120Var124ReadERKN7openpal6RSliceE:
	.fnstart
.LFB206:
	@ args = 0, pretend = 0, frame = 16
	@ frame_needed = 0, uses_anonymous_args = 0
	ldr	r3, [r1]
	cmp	r3, #7
	bhi	.L265
	mov	r0, #0
	bx	lr
.L265:
	push	{r4, r5, r6, r7, lr}
	.save {r4, r5, r6, r7, lr}
	mov	r4, r0
	.pad #20
	sub	sp, sp, #20
	ldm	r1, {r0, r1}
	add	r5, sp, #8
	stm	r5, {r0, r1}
	ldr	r3, [sp, #12]
	mov	r0, r5
	mov	r1, #4
	ldr	r6, [r3]	@ unaligned
	bl	_ZN7openpal6RSlice7AdvanceEj(PLT)
	ldr	r3, [sp, #12]
	str	r6, [r4, #4]
	mov	r0, r5
	ldrb	r2, [r3, #1]	@ zero_extendqisi2
	ldrb	r6, [r3]	@ zero_extendqisi2
	mov	r1, #2
	orr	r6, r6, r2, lsl #8
	bl	_ZN7openpal6RSlice7AdvanceEj(PLT)
	ldr	r3, [sp, #8]
	strh	r6, [r4, #8]	@ movhi
	cmp	r3, #1
	bls	.L257
	ldr	r3, [sp, #12]
	mov	r1, #2
	mov	r0, r5
	ldrb	r2, [r3, #1]	@ zero_extendqisi2
	ldrb	r6, [r3]	@ zero_extendqisi2
	orr	r6, r6, r2, lsl #8
	bl	_ZN7openpal6RSlice7AdvanceEj(PLT)
	ldr	r3, [sp, #8]
	cmp	r3, r6
	bcs	.L266
.L257:
	mov	r0, #0
	add	sp, sp, #20
	@ sp needed
	pop	{r4, r5, r6, r7, pc}
.L266:
	mov	r0, sp
	mov	r2, r6
	mov	r1, r5
	bl	_ZNK7openpal6RSlice4TakeEj(PLT)
	ldm	sp, {r0, r1}
	add	r4, r4, #12
	stm	r4, {r0, r1}
	mov	r0, r5
	mov	r1, r6
	bl	_ZN7openpal6RSlice7AdvanceEj(PLT)
	ldr	r0, [sp, #8]
	clz	r0, r0
	lsr	r0, r0, #5
	add	sp, sp, #20
	@ sp needed
	pop	{r4, r5, r6, r7, pc}
	.fnend
	.size	_ZN8opendnp313Group120Var124ReadERKN7openpal6RSliceE, .-_ZN8opendnp313Group120Var124ReadERKN7openpal6RSliceE
	.align	2
	.global	_ZNK8opendnp312Group120Var55WriteERN7openpal6WSliceE
	.syntax unified
	.arm
	.fpu vfp
	.type	_ZNK8opendnp312Group120Var55WriteERN7openpal6WSliceE, %function
_ZNK8opendnp312Group120Var55WriteERN7openpal6WSliceE:
	.fnstart
.LFB144:
	@ args = 0, pretend = 0, frame = 8
	@ frame_needed = 0, uses_anonymous_args = 0
	push	{r4, r5, r6, lr}
	.save {r4, r5, r6, lr}
	.pad #8
	sub	sp, sp, #8
	mov	r4, r1
	mov	r5, r0
	bl	_ZNK8opendnp312Group120Var54SizeEv(PLT)
	ldr	r3, [r4]
	cmp	r0, r3
	bls	.L268
.L271:
	mov	r0, #0
.L273:
	add	sp, sp, #8
	@ sp needed
	pop	{r4, r5, r6, pc}
.L268:
	ldr	r6, [r5, #16]
	bl	_ZN7openpal8MaxValueItEET_v(PLT)
	cmp	r6, r0
	bhi	.L271
	ldr	r3, [r4, #4]
	ldr	r2, [r5, #4]
	mov	r1, #4
	str	r2, [r3]	@ unaligned
	mov	r0, r4
	bl	_ZN7openpal6WSlice7AdvanceEj(PLT)
	ldrh	r2, [r5, #8]
	ldr	r3, [r4, #4]
	mov	r1, #2
	mov	r0, r4
	lsr	ip, r2, #8
	strb	r2, [r3]
	strb	ip, [r3, #1]
	bl	_ZN7openpal6WSlice7AdvanceEj(PLT)
	ldrb	r0, [r5, #10]	@ zero_extendqisi2
	bl	_ZN8opendnp322KeyWrapAlgorithmToTypeENS_16KeyWrapAlgorithmE(PLT)
	ldr	r3, [r4, #4]
	mov	r1, #1
	strb	r0, [r3]
	mov	r0, r4
	bl	_ZN7openpal6WSlice7AdvanceEj(PLT)
	ldrb	r0, [r5, #11]	@ zero_extendqisi2
	bl	_ZN8opendnp315KeyStatusToTypeENS_9KeyStatusE(PLT)
	ldr	r3, [r4, #4]
	mov	r1, #1
	strb	r0, [r3]
	mov	r0, r4
	bl	_ZN7openpal6WSlice7AdvanceEj(PLT)
	ldrb	r0, [r5, #12]	@ zero_extendqisi2
	bl	_ZN8opendnp314HMACTypeToTypeENS_8HMACTypeE(PLT)
	ldr	r3, [r4, #4]
	mov	r1, #1
	strb	r0, [r3]
	mov	r0, r4
	bl	_ZN7openpal6WSlice7AdvanceEj(PLT)
	ldr	r3, [r5, #16]
	ldr	r2, [r4]
	add	r1, r3, #2
	cmp	r1, r2
	bhi	.L271
	ldr	r2, [r4, #4]
	lsr	r0, r3, #8
	mov	r1, #2
	strb	r3, [r2]
	strb	r0, [r2, #1]
	mov	r0, r4
	bl	_ZN7openpal6WSlice7AdvanceEj(PLT)
	mov	r0, sp
	mov	r2, r4
	add	r1, r5, #16
	bl	_ZNK7openpal6RSlice6CopyToERNS_6WSliceE(PLT)
	mov	r0, sp
	mov	r2, r4
	add	r1, r5, #24
	bl	_ZNK7openpal6RSlice6CopyToERNS_6WSliceE(PLT)
	mov	r0, #1
	b	.L273
	.fnend
	.size	_ZNK8opendnp312Group120Var55WriteERN7openpal6WSliceE, .-_ZNK8opendnp312Group120Var55WriteERN7openpal6WSliceE
	.align	2
	.global	_ZNK8opendnp313Group120Var135WriteERN7openpal6WSliceE
	.syntax unified
	.arm
	.fpu vfp
	.type	_ZNK8opendnp313Group120Var135WriteERN7openpal6WSliceE, %function
_ZNK8opendnp313Group120Var135WriteERN7openpal6WSliceE:
	.fnstart
.LFB216:
	@ args = 0, pretend = 0, frame = 8
	@ frame_needed = 0, uses_anonymous_args = 0
	push	{r4, r5, r6, lr}
	.save {r4, r5, r6, lr}
	.pad #8
	sub	sp, sp, #8
	mov	r4, r1
	mov	r5, r0
	bl	_ZNK8opendnp313Group120Var134SizeEv(PLT)
	ldr	r3, [r4]
	cmp	r0, r3
	bls	.L278
.L281:
	mov	r0, #0
.L283:
	add	sp, sp, #8
	@ sp needed
	pop	{r4, r5, r6, pc}
.L278:
	ldr	r6, [r5, #12]
	bl	_ZN7openpal8MaxValueItEET_v(PLT)
	cmp	r6, r0
	bhi	.L281
	ldr	r3, [r4, #4]
	ldr	r2, [r5, #4]
	mov	r1, #4
	str	r2, [r3]	@ unaligned
	mov	r0, r4
	bl	_ZN7openpal6WSlice7AdvanceEj(PLT)
	ldrh	r2, [r5, #8]
	ldr	r3, [r4, #4]
	mov	r1, #2
	mov	r0, r4
	lsr	ip, r2, #8
	strb	r2, [r3]
	strb	ip, [r3, #1]
	bl	_ZN7openpal6WSlice7AdvanceEj(PLT)
	ldr	r3, [r5, #12]
	ldr	r2, [r4]
	add	r1, r3, #2
	cmp	r1, r2
	bhi	.L281
	ldr	r2, [r4, #4]
	lsr	r0, r3, #8
	mov	r1, #2
	strb	r3, [r2]
	strb	r0, [r2, #1]
	mov	r0, r4
	bl	_ZN7openpal6WSlice7AdvanceEj(PLT)
	mov	r0, sp
	mov	r2, r4
	add	r1, r5, #12
	bl	_ZNK7openpal6RSlice6CopyToERNS_6WSliceE(PLT)
	mov	r0, #1
	b	.L283
	.fnend
	.size	_ZNK8opendnp313Group120Var135WriteERN7openpal6WSliceE, .-_ZNK8opendnp313Group120Var135WriteERN7openpal6WSliceE
	.align	2
	.global	_ZN8opendnp312Group120Var1C2Ev
	.syntax unified
	.arm
	.fpu vfp
	.type	_ZN8opendnp312Group120Var1C2Ev, %function
_ZN8opendnp312Group120Var1C2Ev:
	.fnstart
.LFB109:
	@ args = 0, pretend = 0, frame = 0
	@ frame_needed = 0, uses_anonymous_args = 0
	ldr	r3, .L289
	ldr	r2, .L289+4
.LPIC8:
	add	r3, pc, r3
	push	{r4, lr}
	.save {r4, lr}
	mov	r4, r0
	ldr	r2, [r3, r2]
	mvn	r1, #0
	mov	r0, #0
	add	r2, r2, #8
	str	r0, [r4, #4]
	strh	r0, [r4, #8]	@ movhi
	str	r2, [r4]
	strb	r1, [r4, #10]
	strb	r1, [r4, #11]
	add	r0, r4, #12
	bl	_ZN7openpal6RSliceC1Ev(PLT)
	mov	r0, r4
	pop	{r4, pc}
.L290:
	.align	2
.L289:
	.word	_GLOBAL_OFFSET_TABLE_-(.LPIC8+8)
	.word	_ZTVN8opendnp312Group120Var1E(GOT)
	.fnend
	.size	_ZN8opendnp312Group120Var1C2Ev, .-_ZN8opendnp312Group120Var1C2Ev
	.global	_ZN8opendnp312Group120Var1C1Ev
	.set	_ZN8opendnp312Group120Var1C1Ev,_ZN8opendnp312Group120Var1C2Ev
	.align	2
	.global	_ZN8opendnp312Group120Var1C2EjtNS_8HMACTypeENS_15ChallengeReasonERKN7openpal6RSliceE
	.syntax unified
	.arm
	.fpu vfp
	.type	_ZN8opendnp312Group120Var1C2EjtNS_8HMACTypeENS_15ChallengeReasonERKN7openpal6RSliceE, %function
_ZN8opendnp312Group120Var1C2EjtNS_8HMACTypeENS_15ChallengeReasonERKN7openpal6RSliceE:
	.fnstart
.LFB112:
	@ args = 8, pretend = 0, frame = 0
	@ frame_needed = 0, uses_anonymous_args = 0
	push	{r4, r5, r6, lr}
	mov	ip, r0
	ldr	lr, .L293
	ldr	r5, [sp, #20]
	ldr	r4, .L293+4
.LPIC9:
	add	lr, pc, lr
	ldrb	r6, [sp, #16]	@ zero_extendqisi2
	ldr	r4, [lr, r4]
	str	r1, [r0, #4]
	ldm	r5, {r0, r1}
	add	lr, ip, #12
	add	r4, r4, #8
	str	r4, [ip]
	strh	r2, [ip, #8]	@ movhi
	strb	r3, [ip, #10]
	strb	r6, [ip, #11]
	stm	lr, {r0, r1}
	mov	r0, ip
	pop	{r4, r5, r6, pc}
.L294:
	.align	2
.L293:
	.word	_GLOBAL_OFFSET_TABLE_-(.LPIC9+8)
	.word	_ZTVN8opendnp312Group120Var1E(GOT)
	.cantunwind
	.fnend
	.size	_ZN8opendnp312Group120Var1C2EjtNS_8HMACTypeENS_15ChallengeReasonERKN7openpal6RSliceE, .-_ZN8opendnp312Group120Var1C2EjtNS_8HMACTypeENS_15ChallengeReasonERKN7openpal6RSliceE
	.global	_ZN8opendnp312Group120Var1C1EjtNS_8HMACTypeENS_15ChallengeReasonERKN7openpal6RSliceE
	.set	_ZN8opendnp312Group120Var1C1EjtNS_8HMACTypeENS_15ChallengeReasonERKN7openpal6RSliceE,_ZN8opendnp312Group120Var1C2EjtNS_8HMACTypeENS_15ChallengeReasonERKN7openpal6RSliceE
	.align	2
	.global	_ZN8opendnp312Group120Var2C2Ev
	.syntax unified
	.arm
	.fpu vfp
	.type	_ZN8opendnp312Group120Var2C2Ev, %function
_ZN8opendnp312Group120Var2C2Ev:
	.fnstart
.LFB118:
	@ args = 0, pretend = 0, frame = 0
	@ frame_needed = 0, uses_anonymous_args = 0
	ldr	r3, .L297
	ldr	r2, .L297+4
.LPIC10:
	add	r3, pc, r3
	push	{r4, lr}
	.save {r4, lr}
	mov	r4, r0
	ldr	r2, [r3, r2]
	mov	r1, #0
	add	r2, r2, #8
	str	r2, [r4]
	str	r1, [r4, #4]
	strh	r1, [r4, #8]	@ movhi
	add	r0, r0, #12
	bl	_ZN7openpal6RSliceC1Ev(PLT)
	mov	r0, r4
	pop	{r4, pc}
.L298:
	.align	2
.L297:
	.word	_GLOBAL_OFFSET_TABLE_-(.LPIC10+8)
	.word	_ZTVN8opendnp312Group120Var2E(GOT)
	.fnend
	.size	_ZN8opendnp312Group120Var2C2Ev, .-_ZN8opendnp312Group120Var2C2Ev
	.global	_ZN8opendnp312Group120Var2C1Ev
	.set	_ZN8opendnp312Group120Var2C1Ev,_ZN8opendnp312Group120Var2C2Ev
	.align	2
	.global	_ZN8opendnp312Group120Var2C2EjtRKN7openpal6RSliceE
	.syntax unified
	.arm
	.fpu vfp
	.type	_ZN8opendnp312Group120Var2C2EjtRKN7openpal6RSliceE, %function
_ZN8opendnp312Group120Var2C2EjtRKN7openpal6RSliceE:
	.fnstart
.LFB121:
	@ args = 0, pretend = 0, frame = 0
	@ frame_needed = 0, uses_anonymous_args = 0
	push	{r4, r5, lr}
	mov	ip, r0
	ldr	lr, .L301
	ldr	r4, .L301+4
.LPIC11:
	add	lr, pc, lr
	add	r5, r0, #12
	ldr	r4, [lr, r4]
	str	r1, [r0, #4]
	ldm	r3, {r0, r1}
	add	r4, r4, #8
	str	r4, [ip]
	strh	r2, [ip, #8]	@ movhi
	stm	r5, {r0, r1}
	mov	r0, ip
	pop	{r4, r5, pc}
.L302:
	.align	2
.L301:
	.word	_GLOBAL_OFFSET_TABLE_-(.LPIC11+8)
	.word	_ZTVN8opendnp312Group120Var2E(GOT)
	.cantunwind
	.fnend
	.size	_ZN8opendnp312Group120Var2C2EjtRKN7openpal6RSliceE, .-_ZN8opendnp312Group120Var2C2EjtRKN7openpal6RSliceE
	.global	_ZN8opendnp312Group120Var2C1EjtRKN7openpal6RSliceE
	.set	_ZN8opendnp312Group120Var2C1EjtRKN7openpal6RSliceE,_ZN8opendnp312Group120Var2C2EjtRKN7openpal6RSliceE
	.align	2
	.global	_ZN8opendnp312Group120Var3C2Ev
	.syntax unified
	.arm
	.fpu vfp
	.type	_ZN8opendnp312Group120Var3C2Ev, %function
_ZN8opendnp312Group120Var3C2Ev:
	.fnstart
.LFB127:
	@ args = 0, pretend = 0, frame = 0
	@ frame_needed = 0, uses_anonymous_args = 0
	@ link register save eliminated.
	mov	r2, #0
	str	r2, [r0]
	strh	r2, [r0, #4]	@ movhi
	bx	lr
	.cantunwind
	.fnend
	.size	_ZN8opendnp312Group120Var3C2Ev, .-_ZN8opendnp312Group120Var3C2Ev
	.global	_ZN8opendnp312Group120Var3C1Ev
	.set	_ZN8opendnp312Group120Var3C1Ev,_ZN8opendnp312Group120Var3C2Ev
	.align	2
	.global	_ZN8opendnp312Group120Var34ReadERN7openpal6RSliceERS0_
	.syntax unified
	.arm
	.fpu vfp
	.type	_ZN8opendnp312Group120Var34ReadERN7openpal6RSliceERS0_, %function
_ZN8opendnp312Group120Var34ReadERN7openpal6RSliceERS0_:
	.fnstart
.LFB129:
	@ args = 0, pretend = 0, frame = 0
	@ frame_needed = 0, uses_anonymous_args = 0
	push	{r4, r5, r6, lr}
	.save {r4, r5, r6, lr}
	mov	r4, r0
	mov	r5, r1
	bl	_ZN7openpal5Parse4ReadERNS_6RSliceERj(PLT)
	cmp	r0, #0
	popeq	{r4, r5, r6, pc}
	add	r1, r5, #4
	mov	r0, r4
	pop	{r4, r5, r6, lr}
	b	_ZN7openpal5Parse4ReadERNS_6RSliceERt(PLT)
	.fnend
	.size	_ZN8opendnp312Group120Var34ReadERN7openpal6RSliceERS0_, .-_ZN8opendnp312Group120Var34ReadERN7openpal6RSliceERS0_
	.align	2
	.global	_ZN8opendnp312Group120Var35WriteERKS0_RN7openpal6WSliceE
	.syntax unified
	.arm
	.fpu vfp
	.type	_ZN8opendnp312Group120Var35WriteERKS0_RN7openpal6WSliceE, %function
_ZN8opendnp312Group120Var35WriteERKS0_RN7openpal6WSliceE:
	.fnstart
.LFB130:
	@ args = 0, pretend = 0, frame = 0
	@ frame_needed = 0, uses_anonymous_args = 0
	push	{r4, r5, r6, lr}
	.save {r4, r5, r6, lr}
	mov	r5, r0
	mov	r4, r1
	mov	r0, r1
	mov	r1, r5
	bl	_ZN7openpal6Format5WriteERNS_6WSliceERKj(PLT)
	cmp	r0, #0
	popeq	{r4, r5, r6, pc}
	add	r1, r5, #4
	mov	r0, r4
	pop	{r4, r5, r6, lr}
	b	_ZN7openpal6Format5WriteERNS_6WSliceERKt(PLT)
	.fnend
	.size	_ZN8opendnp312Group120Var35WriteERKS0_RN7openpal6WSliceE, .-_ZN8opendnp312Group120Var35WriteERKS0_RN7openpal6WSliceE
	.align	2
	.global	_ZN8opendnp312Group120Var4C2Ev
	.syntax unified
	.arm
	.fpu vfp
	.type	_ZN8opendnp312Group120Var4C2Ev, %function
_ZN8opendnp312Group120Var4C2Ev:
	.fnstart
.LFB132:
	@ args = 0, pretend = 0, frame = 0
	@ frame_needed = 0, uses_anonymous_args = 0
	@ link register save eliminated.
	mov	r2, #0
	strh	r2, [r0]	@ movhi
	bx	lr
	.cantunwind
	.fnend
	.size	_ZN8opendnp312Group120Var4C2Ev, .-_ZN8opendnp312Group120Var4C2Ev
	.global	_ZN8opendnp312Group120Var4C1Ev
	.set	_ZN8opendnp312Group120Var4C1Ev,_ZN8opendnp312Group120Var4C2Ev
	.align	2
	.global	_ZN8opendnp312Group120Var44ReadERN7openpal6RSliceERS0_
	.syntax unified
	.arm
	.fpu vfp
	.type	_ZN8opendnp312Group120Var44ReadERN7openpal6RSliceERS0_, %function
_ZN8opendnp312Group120Var44ReadERN7openpal6RSliceERS0_:
	.fnstart
.LFB134:
	@ args = 0, pretend = 0, frame = 0
	@ frame_needed = 0, uses_anonymous_args = 0
	@ link register save eliminated.
	b	_ZN7openpal5Parse4ReadERNS_6RSliceERt(PLT)
	.cantunwind
	.fnend
	.size	_ZN8opendnp312Group120Var44ReadERN7openpal6RSliceERS0_, .-_ZN8opendnp312Group120Var44ReadERN7openpal6RSliceERS0_
	.align	2
	.global	_ZN8opendnp312Group120Var45WriteERKS0_RN7openpal6WSliceE
	.syntax unified
	.arm
	.fpu vfp
	.type	_ZN8opendnp312Group120Var45WriteERKS0_RN7openpal6WSliceE, %function
_ZN8opendnp312Group120Var45WriteERKS0_RN7openpal6WSliceE:
	.fnstart
.LFB135:
	@ args = 0, pretend = 0, frame = 0
	@ frame_needed = 0, uses_anonymous_args = 0
	@ link register save eliminated.
	mov	r3, r1
	mov	r1, r0
	mov	r0, r3
	b	_ZN7openpal6Format5WriteERNS_6WSliceERKt(PLT)
	.cantunwind
	.fnend
	.size	_ZN8opendnp312Group120Var45WriteERKS0_RN7openpal6WSliceE, .-_ZN8opendnp312Group120Var45WriteERKS0_RN7openpal6WSliceE
	.align	2
	.global	_ZN8opendnp312Group120Var5C2Ev
	.syntax unified
	.arm
	.fpu vfp
	.type	_ZN8opendnp312Group120Var5C2Ev, %function
_ZN8opendnp312Group120Var5C2Ev:
	.fnstart
.LFB137:
	@ args = 0, pretend = 0, frame = 0
	@ frame_needed = 0, uses_anonymous_args = 0
	ldr	r3, .L315
	ldr	r2, .L315+4
.LPIC12:
	add	r3, pc, r3
	push	{r4, lr}
	.save {r4, lr}
	mov	r4, r0
	ldr	r1, [r3, r2]
	mvn	r0, #0
	mov	r2, #0
	add	r1, r1, #8
	str	r1, [r4]
	strb	r0, [r4, #12]
	str	r2, [r4, #4]
	strh	r2, [r4, #8]	@ movhi
	strb	r2, [r4, #10]
	strb	r2, [r4, #11]
	add	r0, r4, #16
	bl	_ZN7openpal6RSliceC1Ev(PLT)
	add	r0, r4, #24
	bl	_ZN7openpal6RSliceC1Ev(PLT)
	mov	r0, r4
	pop	{r4, pc}
.L316:
	.align	2
.L315:
	.word	_GLOBAL_OFFSET_TABLE_-(.LPIC12+8)
	.word	_ZTVN8opendnp312Group120Var5E(GOT)
	.fnend
	.size	_ZN8opendnp312Group120Var5C2Ev, .-_ZN8opendnp312Group120Var5C2Ev
	.global	_ZN8opendnp312Group120Var5C1Ev
	.set	_ZN8opendnp312Group120Var5C1Ev,_ZN8opendnp312Group120Var5C2Ev
	.align	2
	.global	_ZN8opendnp312Group120Var5C2EjtNS_16KeyWrapAlgorithmENS_9KeyStatusENS_8HMACTypeERKN7openpal6RSliceES7_
	.syntax unified
	.arm
	.fpu vfp
	.type	_ZN8opendnp312Group120Var5C2EjtNS_16KeyWrapAlgorithmENS_9KeyStatusENS_8HMACTypeERKN7openpal6RSliceES7_, %function
_ZN8opendnp312Group120Var5C2EjtNS_16KeyWrapAlgorithmENS_9KeyStatusENS_8HMACTypeERKN7openpal6RSliceES7_:
	.fnstart
.LFB140:
	@ args = 16, pretend = 0, frame = 0
	@ frame_needed = 0, uses_anonymous_args = 0
	push	{r4, r5, r6, r7, lr}
	mov	ip, r0
	ldr	lr, .L319
	ldr	r4, .L319+4
.LPIC13:
	add	lr, pc, lr
	ldr	r5, [sp, #28]
	ldr	r4, [lr, r4]
	ldrb	r7, [sp, #20]	@ zero_extendqisi2
	add	r4, r4, #8
	str	r1, [r0, #4]
	ldrb	r6, [sp, #24]	@ zero_extendqisi2
	ldm	r5, {r0, r1}
	str	r4, [ip]
	ldr	r4, [sp, #32]
	strb	r3, [ip, #10]
	add	r3, ip, #16
	strh	r2, [ip, #8]	@ movhi
	strb	r7, [ip, #11]
	strb	r6, [ip, #12]
	stm	r3, {r0, r1}
	ldm	r4, {r0, r1}
	add	r3, ip, #24
	stm	r3, {r0, r1}
	mov	r0, ip
	pop	{r4, r5, r6, r7, pc}
.L320:
	.align	2
.L319:
	.word	_GLOBAL_OFFSET_TABLE_-(.LPIC13+8)
	.word	_ZTVN8opendnp312Group120Var5E(GOT)
	.cantunwind
	.fnend
	.size	_ZN8opendnp312Group120Var5C2EjtNS_16KeyWrapAlgorithmENS_9KeyStatusENS_8HMACTypeERKN7openpal6RSliceES7_, .-_ZN8opendnp312Group120Var5C2EjtNS_16KeyWrapAlgorithmENS_9KeyStatusENS_8HMACTypeERKN7openpal6RSliceES7_
	.global	_ZN8opendnp312Group120Var5C1EjtNS_16KeyWrapAlgorithmENS_9KeyStatusENS_8HMACTypeERKN7openpal6RSliceES7_
	.set	_ZN8opendnp312Group120Var5C1EjtNS_16KeyWrapAlgorithmENS_9KeyStatusENS_8HMACTypeERKN7openpal6RSliceES7_,_ZN8opendnp312Group120Var5C2EjtNS_16KeyWrapAlgorithmENS_9KeyStatusENS_8HMACTypeERKN7openpal6RSliceES7_
	.align	2
	.global	_ZN8opendnp312Group120Var6C2Ev
	.syntax unified
	.arm
	.fpu vfp
	.type	_ZN8opendnp312Group120Var6C2Ev, %function
_ZN8opendnp312Group120Var6C2Ev:
	.fnstart
.LFB146:
	@ args = 0, pretend = 0, frame = 0
	@ frame_needed = 0, uses_anonymous_args = 0
	ldr	r3, .L323
	ldr	r2, .L323+4
.LPIC14:
	add	r3, pc, r3
	push	{r4, lr}
	.save {r4, lr}
	mov	r4, r0
	ldr	r2, [r3, r2]
	mov	r1, #0
	add	r2, r2, #8
	str	r2, [r4]
	str	r1, [r4, #4]
	strh	r1, [r4, #8]	@ movhi
	add	r0, r0, #12
	bl	_ZN7openpal6RSliceC1Ev(PLT)
	mov	r0, r4
	pop	{r4, pc}
.L324:
	.align	2
.L323:
	.word	_GLOBAL_OFFSET_TABLE_-(.LPIC14+8)
	.word	_ZTVN8opendnp312Group120Var6E(GOT)
	.fnend
	.size	_ZN8opendnp312Group120Var6C2Ev, .-_ZN8opendnp312Group120Var6C2Ev
	.global	_ZN8opendnp312Group120Var6C1Ev
	.set	_ZN8opendnp312Group120Var6C1Ev,_ZN8opendnp312Group120Var6C2Ev
	.align	2
	.global	_ZN8opendnp312Group120Var6C2EjtRKN7openpal6RSliceE
	.syntax unified
	.arm
	.fpu vfp
	.type	_ZN8opendnp312Group120Var6C2EjtRKN7openpal6RSliceE, %function
_ZN8opendnp312Group120Var6C2EjtRKN7openpal6RSliceE:
	.fnstart
.LFB149:
	@ args = 0, pretend = 0, frame = 0
	@ frame_needed = 0, uses_anonymous_args = 0
	push	{r4, r5, lr}
	mov	ip, r0
	ldr	lr, .L327
	ldr	r4, .L327+4
.LPIC15:
	add	lr, pc, lr
	add	r5, r0, #12
	ldr	r4, [lr, r4]
	str	r1, [r0, #4]
	ldm	r3, {r0, r1}
	add	r4, r4, #8
	str	r4, [ip]
	strh	r2, [ip, #8]	@ movhi
	stm	r5, {r0, r1}
	mov	r0, ip
	pop	{r4, r5, pc}
.L328:
	.align	2
.L327:
	.word	_GLOBAL_OFFSET_TABLE_-(.LPIC15+8)
	.word	_ZTVN8opendnp312Group120Var6E(GOT)
	.cantunwind
	.fnend
	.size	_ZN8opendnp312Group120Var6C2EjtRKN7openpal6RSliceE, .-_ZN8opendnp312Group120Var6C2EjtRKN7openpal6RSliceE
	.global	_ZN8opendnp312Group120Var6C1EjtRKN7openpal6RSliceE
	.set	_ZN8opendnp312Group120Var6C1EjtRKN7openpal6RSliceE,_ZN8opendnp312Group120Var6C2EjtRKN7openpal6RSliceE
	.align	2
	.global	_ZN8opendnp312Group120Var7C2Ev
	.syntax unified
	.arm
	.fpu vfp
	.type	_ZN8opendnp312Group120Var7C2Ev, %function
_ZN8opendnp312Group120Var7C2Ev:
	.fnstart
.LFB155:
	@ args = 0, pretend = 0, frame = 0
	@ frame_needed = 0, uses_anonymous_args = 0
	ldr	r3, .L331
	ldr	r2, .L331+4
.LPIC16:
	add	r3, pc, r3
	push	{r4, r6, r7, lr}
	.save {r4, r6, r7, lr}
	mov	r6, #0
	ldr	r1, [r3, r2]
	mov	r7, #0
	mov	r2, #0
	add	r1, r1, #8
	mov	r4, r0
	str	r1, [r0]
	strd	r6, [r0, #16]
	str	r2, [r0, #4]
	str	r2, [r0, #8]
	strb	r2, [r0, #12]
	add	r0, r0, #24
	bl	_ZN7openpal6RSliceC1Ev(PLT)
	mov	r0, r4
	pop	{r4, r6, r7, pc}
.L332:
	.align	2
.L331:
	.word	_GLOBAL_OFFSET_TABLE_-(.LPIC16+8)
	.word	_ZTVN8opendnp312Group120Var7E(GOT)
	.fnend
	.size	_ZN8opendnp312Group120Var7C2Ev, .-_ZN8opendnp312Group120Var7C2Ev
	.global	_ZN8opendnp312Group120Var7C1Ev
	.set	_ZN8opendnp312Group120Var7C1Ev,_ZN8opendnp312Group120Var7C2Ev
	.align	2
	.global	_ZN8opendnp312Group120Var7C2EjttNS_13AuthErrorCodeEN7openpal10UInt48TypeERKNS2_6RSliceE
	.syntax unified
	.arm
	.fpu vfp
	.type	_ZN8opendnp312Group120Var7C2EjttNS_13AuthErrorCodeEN7openpal10UInt48TypeERKNS2_6RSliceE, %function
_ZN8opendnp312Group120Var7C2EjttNS_13AuthErrorCodeEN7openpal10UInt48TypeERKNS2_6RSliceE:
	.fnstart
.LFB158:
	@ args = 20, pretend = 0, frame = 0
	@ frame_needed = 0, uses_anonymous_args = 0
	push	{r4, r5, r6, r7, lr}
	mov	ip, r0
	ldr	lr, .L335
	ldr	r4, .L335+4
	ldr	r6, [sp, #36]
.LPIC17:
	add	lr, pc, lr
	mov	r0, lr
	ldrb	r7, [sp, #20]	@ zero_extendqisi2
	ldr	lr, [lr, r4]
	str	r1, [ip, #4]
	ldrd	r4, [sp, #28]
	ldm	r6, {r0, r1}
	strh	r2, [ip, #8]	@ movhi
	add	r2, ip, #24
	add	lr, lr, #8
	str	lr, [ip]
	strh	r3, [ip, #10]	@ movhi
	strb	r7, [ip, #12]
	strd	r4, [ip, #16]
	stm	r2, {r0, r1}
	mov	r0, ip
	pop	{r4, r5, r6, r7, pc}
.L336:
	.align	2
.L335:
	.word	_GLOBAL_OFFSET_TABLE_-(.LPIC17+8)
	.word	_ZTVN8opendnp312Group120Var7E(GOT)
	.cantunwind
	.fnend
	.size	_ZN8opendnp312Group120Var7C2EjttNS_13AuthErrorCodeEN7openpal10UInt48TypeERKNS2_6RSliceE, .-_ZN8opendnp312Group120Var7C2EjttNS_13AuthErrorCodeEN7openpal10UInt48TypeERKNS2_6RSliceE
	.global	_ZN8opendnp312Group120Var7C1EjttNS_13AuthErrorCodeEN7openpal10UInt48TypeERKNS2_6RSliceE
	.set	_ZN8opendnp312Group120Var7C1EjttNS_13AuthErrorCodeEN7openpal10UInt48TypeERKNS2_6RSliceE,_ZN8opendnp312Group120Var7C2EjttNS_13AuthErrorCodeEN7openpal10UInt48TypeERKNS2_6RSliceE
	.align	2
	.global	_ZN8opendnp312Group120Var8C2Ev
	.syntax unified
	.arm
	.fpu vfp
	.type	_ZN8opendnp312Group120Var8C2Ev, %function
_ZN8opendnp312Group120Var8C2Ev:
	.fnstart
.LFB164:
	@ args = 0, pretend = 0, frame = 0
	@ frame_needed = 0, uses_anonymous_args = 0
	ldr	r3, .L339
	ldr	r2, .L339+4
.LPIC18:
	add	r3, pc, r3
	push	{r4, lr}
	.save {r4, lr}
	mov	r4, r0
	ldr	r2, [r3, r2]
	mov	r1, #0
	add	r2, r2, #8
	str	r2, [r4]
	strb	r1, [r4, #4]
	strb	r1, [r4, #5]
	add	r0, r0, #8
	bl	_ZN7openpal6RSliceC1Ev(PLT)
	mov	r0, r4
	pop	{r4, pc}
.L340:
	.align	2
.L339:
	.word	_GLOBAL_OFFSET_TABLE_-(.LPIC18+8)
	.word	_ZTVN8opendnp312Group120Var8E(GOT)
	.fnend
	.size	_ZN8opendnp312Group120Var8C2Ev, .-_ZN8opendnp312Group120Var8C2Ev
	.global	_ZN8opendnp312Group120Var8C1Ev
	.set	_ZN8opendnp312Group120Var8C1Ev,_ZN8opendnp312Group120Var8C2Ev
	.align	2
	.global	_ZN8opendnp312Group120Var8C2ENS_15KeyChangeMethodENS_15CertificateTypeERKN7openpal6RSliceE
	.syntax unified
	.arm
	.fpu vfp
	.type	_ZN8opendnp312Group120Var8C2ENS_15KeyChangeMethodENS_15CertificateTypeERKN7openpal6RSliceE, %function
_ZN8opendnp312Group120Var8C2ENS_15KeyChangeMethodENS_15CertificateTypeERKN7openpal6RSliceE:
	.fnstart
.LFB167:
	@ args = 0, pretend = 0, frame = 0
	@ frame_needed = 0, uses_anonymous_args = 0
	push	{r4, r5, lr}
	mov	ip, r0
	ldr	lr, .L343
	ldr	r4, .L343+4
.LPIC19:
	add	lr, pc, lr
	add	r5, r0, #8
	ldr	r4, [lr, r4]
	strb	r1, [r0, #4]
	ldm	r3, {r0, r1}
	add	r4, r4, #8
	str	r4, [ip]
	strb	r2, [ip, #5]
	stm	r5, {r0, r1}
	mov	r0, ip
	pop	{r4, r5, pc}
.L344:
	.align	2
.L343:
	.word	_GLOBAL_OFFSET_TABLE_-(.LPIC19+8)
	.word	_ZTVN8opendnp312Group120Var8E(GOT)
	.cantunwind
	.fnend
	.size	_ZN8opendnp312Group120Var8C2ENS_15KeyChangeMethodENS_15CertificateTypeERKN7openpal6RSliceE, .-_ZN8opendnp312Group120Var8C2ENS_15KeyChangeMethodENS_15CertificateTypeERKN7openpal6RSliceE
	.global	_ZN8opendnp312Group120Var8C1ENS_15KeyChangeMethodENS_15CertificateTypeERKN7openpal6RSliceE
	.set	_ZN8opendnp312Group120Var8C1ENS_15KeyChangeMethodENS_15CertificateTypeERKN7openpal6RSliceE,_ZN8opendnp312Group120Var8C2ENS_15KeyChangeMethodENS_15CertificateTypeERKN7openpal6RSliceE
	.align	2
	.global	_ZN8opendnp312Group120Var9C2Ev
	.syntax unified
	.arm
	.fpu vfp
	.type	_ZN8opendnp312Group120Var9C2Ev, %function
_ZN8opendnp312Group120Var9C2Ev:
	.fnstart
.LFB173:
	@ args = 0, pretend = 0, frame = 0
	@ frame_needed = 0, uses_anonymous_args = 0
	ldr	r3, .L347
	ldr	r2, .L347+4
.LPIC20:
	add	r3, pc, r3
	push	{r4, lr}
	.save {r4, lr}
	mov	r4, r0
	ldr	r2, [r3, r2]
	add	r3, r2, #8
	str	r3, [r0], #4
	bl	_ZN7openpal6RSliceC1Ev(PLT)
	mov	r0, r4
	pop	{r4, pc}
.L348:
	.align	2
.L347:
	.word	_GLOBAL_OFFSET_TABLE_-(.LPIC20+8)
	.word	_ZTVN8opendnp312Group120Var9E(GOT)
	.fnend
	.size	_ZN8opendnp312Group120Var9C2Ev, .-_ZN8opendnp312Group120Var9C2Ev
	.global	_ZN8opendnp312Group120Var9C1Ev
	.set	_ZN8opendnp312Group120Var9C1Ev,_ZN8opendnp312Group120Var9C2Ev
	.align	2
	.global	_ZN8opendnp312Group120Var9C2ERKN7openpal6RSliceE
	.syntax unified
	.arm
	.fpu vfp
	.type	_ZN8opendnp312Group120Var9C2ERKN7openpal6RSliceE, %function
_ZN8opendnp312Group120Var9C2ERKN7openpal6RSliceE:
	.fnstart
.LFB176:
	@ args = 0, pretend = 0, frame = 0
	@ frame_needed = 0, uses_anonymous_args = 0
	ldr	r2, .L351
	ldr	r3, .L351+4
.LPIC21:
	add	r2, pc, r2
	str	lr, [sp, #-4]!
	mov	lr, r0
	ldr	ip, [r2, r3]
	ldm	r1, {r0, r1}
	mov	r3, lr
	add	ip, ip, #8
	str	ip, [r3], #4
	stm	r3, {r0, r1}
	mov	r0, lr
	ldr	pc, [sp], #4
.L352:
	.align	2
.L351:
	.word	_GLOBAL_OFFSET_TABLE_-(.LPIC21+8)
	.word	_ZTVN8opendnp312Group120Var9E(GOT)
	.cantunwind
	.fnend
	.size	_ZN8opendnp312Group120Var9C2ERKN7openpal6RSliceE, .-_ZN8opendnp312Group120Var9C2ERKN7openpal6RSliceE
	.global	_ZN8opendnp312Group120Var9C1ERKN7openpal6RSliceE
	.set	_ZN8opendnp312Group120Var9C1ERKN7openpal6RSliceE,_ZN8opendnp312Group120Var9C2ERKN7openpal6RSliceE
	.align	2
	.global	_ZN8opendnp313Group120Var10C2Ev
	.syntax unified
	.arm
	.fpu vfp
	.type	_ZN8opendnp313Group120Var10C2Ev, %function
_ZN8opendnp313Group120Var10C2Ev:
	.fnstart
.LFB182:
	@ args = 0, pretend = 0, frame = 0
	@ frame_needed = 0, uses_anonymous_args = 0
	ldr	r3, .L355
	ldr	r2, .L355+4
.LPIC22:
	add	r3, pc, r3
	push	{r4, lr}
	.save {r4, lr}
	mov	r4, r0
	ldr	r1, [r3, r2]
	mvn	r0, #0
	mov	r2, #0
	add	r1, r1, #8
	str	r1, [r4]
	strb	r2, [r4, #4]
	str	r2, [r4, #8]
	str	r2, [r4, #12]
	strb	r0, [r4, #5]
	add	r0, r4, #16
	bl	_ZN7openpal6RSliceC1Ev(PLT)
	add	r0, r4, #24
	bl	_ZN7openpal6RSliceC1Ev(PLT)
	add	r0, r4, #32
	bl	_ZN7openpal6RSliceC1Ev(PLT)
	mov	r0, r4
	pop	{r4, pc}
.L356:
	.align	2
.L355:
	.word	_GLOBAL_OFFSET_TABLE_-(.LPIC22+8)
	.word	_ZTVN8opendnp313Group120Var10E(GOT)
	.fnend
	.size	_ZN8opendnp313Group120Var10C2Ev, .-_ZN8opendnp313Group120Var10C2Ev
	.global	_ZN8opendnp313Group120Var10C1Ev
	.set	_ZN8opendnp313Group120Var10C1Ev,_ZN8opendnp313Group120Var10C2Ev
	.align	2
	.global	_ZN8opendnp313Group120Var10C2ENS_15KeyChangeMethodENS_13UserOperationEjttRKN7openpal6RSliceES6_S6_
	.syntax unified
	.arm
	.fpu vfp
	.type	_ZN8opendnp313Group120Var10C2ENS_15KeyChangeMethodENS_13UserOperationEjttRKN7openpal6RSliceES6_S6_, %function
_ZN8opendnp313Group120Var10C2ENS_15KeyChangeMethodENS_13UserOperationEjttRKN7openpal6RSliceES6_S6_:
	.fnstart
.LFB185:
	@ args = 20, pretend = 0, frame = 0
	@ frame_needed = 0, uses_anonymous_args = 0
	push	{r4, r5, r6, r7, lr}
	mov	ip, r0
	ldr	lr, .L359
	ldr	r4, .L359+4
.LPIC23:
	add	lr, pc, lr
	ldr	r5, [sp, #28]
	ldr	r4, [lr, r4]
	ldrh	r7, [sp, #20]
	add	r4, r4, #8
	strb	r1, [r0, #4]
	ldrh	r6, [sp, #24]
	ldm	r5, {r0, r1}
	str	r4, [ip]
	ldr	r4, [sp, #32]
	str	r3, [ip, #8]
	add	r3, ip, #16
	strb	r2, [ip, #5]
	strh	r7, [ip, #12]	@ movhi
	strh	r6, [ip, #14]	@ movhi
	ldr	r2, [sp, #36]
	stm	r3, {r0, r1}
	ldm	r4, {r0, r1}
	add	r4, ip, #24
	add	r3, ip, #32
	stm	r4, {r0, r1}
	ldm	r2, {r0, r1}
	stm	r3, {r0, r1}
	mov	r0, ip
	pop	{r4, r5, r6, r7, pc}
.L360:
	.align	2
.L359:
	.word	_GLOBAL_OFFSET_TABLE_-(.LPIC23+8)
	.word	_ZTVN8opendnp313Group120Var10E(GOT)
	.cantunwind
	.fnend
	.size	_ZN8opendnp313Group120Var10C2ENS_15KeyChangeMethodENS_13UserOperationEjttRKN7openpal6RSliceES6_S6_, .-_ZN8opendnp313Group120Var10C2ENS_15KeyChangeMethodENS_13UserOperationEjttRKN7openpal6RSliceES6_S6_
	.global	_ZN8opendnp313Group120Var10C1ENS_15KeyChangeMethodENS_13UserOperationEjttRKN7openpal6RSliceES6_S6_
	.set	_ZN8opendnp313Group120Var10C1ENS_15KeyChangeMethodENS_13UserOperationEjttRKN7openpal6RSliceES6_S6_,_ZN8opendnp313Group120Var10C2ENS_15KeyChangeMethodENS_13UserOperationEjttRKN7openpal6RSliceES6_S6_
	.align	2
	.global	_ZN8opendnp313Group120Var11C2Ev
	.syntax unified
	.arm
	.fpu vfp
	.type	_ZN8opendnp313Group120Var11C2Ev, %function
_ZN8opendnp313Group120Var11C2Ev:
	.fnstart
.LFB191:
	@ args = 0, pretend = 0, frame = 0
	@ frame_needed = 0, uses_anonymous_args = 0
	ldr	r3, .L363
	ldr	r2, .L363+4
.LPIC24:
	add	r3, pc, r3
	push	{r4, lr}
	.save {r4, lr}
	mov	r4, r0
	ldr	r2, [r3, r2]
	mov	r1, #0
	add	r2, r2, #8
	str	r2, [r4]
	strb	r1, [r4, #4]
	add	r0, r0, #8
	bl	_ZN7openpal6RSliceC1Ev(PLT)
	add	r0, r4, #16
	bl	_ZN7openpal6RSliceC1Ev(PLT)
	mov	r0, r4
	pop	{r4, pc}
.L364:
	.align	2
.L363:
	.word	_GLOBAL_OFFSET_TABLE_-(.LPIC24+8)
	.word	_ZTVN8opendnp313Group120Var11E(GOT)
	.fnend
	.size	_ZN8opendnp313Group120Var11C2Ev, .-_ZN8opendnp313Group120Var11C2Ev
	.global	_ZN8opendnp313Group120Var11C1Ev
	.set	_ZN8opendnp313Group120Var11C1Ev,_ZN8opendnp313Group120Var11C2Ev
	.align	2
	.global	_ZN8opendnp313Group120Var11C2ENS_15KeyChangeMethodERKN7openpal6RSliceES5_
	.syntax unified
	.arm
	.fpu vfp
	.type	_ZN8opendnp313Group120Var11C2ENS_15KeyChangeMethodERKN7openpal6RSliceES5_, %function
_ZN8opendnp313Group120Var11C2ENS_15KeyChangeMethodERKN7openpal6RSliceES5_:
	.fnstart
.LFB194:
	@ args = 0, pretend = 0, frame = 0
	@ frame_needed = 0, uses_anonymous_args = 0
	push	{r4, r5, lr}
	mov	ip, r0
	ldr	lr, .L367
	ldr	r4, .L367+4
.LPIC25:
	add	lr, pc, lr
	add	r5, r0, #8
	ldr	r4, [lr, r4]
	strb	r1, [r0, #4]
	ldm	r2, {r0, r1}
	add	r4, r4, #8
	str	r4, [ip]
	stm	r5, {r0, r1}
	ldm	r3, {r0, r1}
	add	r3, ip, #16
	stm	r3, {r0, r1}
	mov	r0, ip
	pop	{r4, r5, pc}
.L368:
	.align	2
.L367:
	.word	_GLOBAL_OFFSET_TABLE_-(.LPIC25+8)
	.word	_ZTVN8opendnp313Group120Var11E(GOT)
	.cantunwind
	.fnend
	.size	_ZN8opendnp313Group120Var11C2ENS_15KeyChangeMethodERKN7openpal6RSliceES5_, .-_ZN8opendnp313Group120Var11C2ENS_15KeyChangeMethodERKN7openpal6RSliceES5_
	.global	_ZN8opendnp313Group120Var11C1ENS_15KeyChangeMethodERKN7openpal6RSliceES5_
	.set	_ZN8opendnp313Group120Var11C1ENS_15KeyChangeMethodERKN7openpal6RSliceES5_,_ZN8opendnp313Group120Var11C2ENS_15KeyChangeMethodERKN7openpal6RSliceES5_
	.align	2
	.global	_ZN8opendnp313Group120Var12C2Ev
	.syntax unified
	.arm
	.fpu vfp
	.type	_ZN8opendnp313Group120Var12C2Ev, %function
_ZN8opendnp313Group120Var12C2Ev:
	.fnstart
.LFB200:
	@ args = 0, pretend = 0, frame = 0
	@ frame_needed = 0, uses_anonymous_args = 0
	ldr	r3, .L371
	ldr	r2, .L371+4
.LPIC26:
	add	r3, pc, r3
	push	{r4, lr}
	.save {r4, lr}
	mov	r4, r0
	ldr	r2, [r3, r2]
	mov	r1, #0
	add	r2, r2, #8
	str	r2, [r4]
	str	r1, [r4, #4]
	strh	r1, [r4, #8]	@ movhi
	add	r0, r0, #12
	bl	_ZN7openpal6RSliceC1Ev(PLT)
	mov	r0, r4
	pop	{r4, pc}
.L372:
	.align	2
.L371:
	.word	_GLOBAL_OFFSET_TABLE_-(.LPIC26+8)
	.word	_ZTVN8opendnp313Group120Var12E(GOT)
	.fnend
	.size	_ZN8opendnp313Group120Var12C2Ev, .-_ZN8opendnp313Group120Var12C2Ev
	.global	_ZN8opendnp313Group120Var12C1Ev
	.set	_ZN8opendnp313Group120Var12C1Ev,_ZN8opendnp313Group120Var12C2Ev
	.align	2
	.global	_ZN8opendnp313Group120Var12C2EjtRKN7openpal6RSliceE
	.syntax unified
	.arm
	.fpu vfp
	.type	_ZN8opendnp313Group120Var12C2EjtRKN7openpal6RSliceE, %function
_ZN8opendnp313Group120Var12C2EjtRKN7openpal6RSliceE:
	.fnstart
.LFB203:
	@ args = 0, pretend = 0, frame = 0
	@ frame_needed = 0, uses_anonymous_args = 0
	push	{r4, r5, lr}
	mov	ip, r0
	ldr	lr, .L375
	ldr	r4, .L375+4
.LPIC27:
	add	lr, pc, lr
	add	r5, r0, #12
	ldr	r4, [lr, r4]
	str	r1, [r0, #4]
	ldm	r3, {r0, r1}
	add	r4, r4, #8
	str	r4, [ip]
	strh	r2, [ip, #8]	@ movhi
	stm	r5, {r0, r1}
	mov	r0, ip
	pop	{r4, r5, pc}
.L376:
	.align	2
.L375:
	.word	_GLOBAL_OFFSET_TABLE_-(.LPIC27+8)
	.word	_ZTVN8opendnp313Group120Var12E(GOT)
	.cantunwind
	.fnend
	.size	_ZN8opendnp313Group120Var12C2EjtRKN7openpal6RSliceE, .-_ZN8opendnp313Group120Var12C2EjtRKN7openpal6RSliceE
	.global	_ZN8opendnp313Group120Var12C1EjtRKN7openpal6RSliceE
	.set	_ZN8opendnp313Group120Var12C1EjtRKN7openpal6RSliceE,_ZN8opendnp313Group120Var12C2EjtRKN7openpal6RSliceE
	.align	2
	.global	_ZN8opendnp313Group120Var13C2Ev
	.syntax unified
	.arm
	.fpu vfp
	.type	_ZN8opendnp313Group120Var13C2Ev, %function
_ZN8opendnp313Group120Var13C2Ev:
	.fnstart
.LFB209:
	@ args = 0, pretend = 0, frame = 0
	@ frame_needed = 0, uses_anonymous_args = 0
	ldr	r3, .L379
	ldr	r2, .L379+4
.LPIC28:
	add	r3, pc, r3
	push	{r4, lr}
	.save {r4, lr}
	mov	r4, r0
	ldr	r2, [r3, r2]
	mov	r1, #0
	add	r2, r2, #8
	str	r2, [r4]
	str	r1, [r4, #4]
	strh	r1, [r4, #8]	@ movhi
	add	r0, r0, #12
	bl	_ZN7openpal6RSliceC1Ev(PLT)
	mov	r0, r4
	pop	{r4, pc}
.L380:
	.align	2
.L379:
	.word	_GLOBAL_OFFSET_TABLE_-(.LPIC28+8)
	.word	_ZTVN8opendnp313Group120Var13E(GOT)
	.fnend
	.size	_ZN8opendnp313Group120Var13C2Ev, .-_ZN8opendnp313Group120Var13C2Ev
	.global	_ZN8opendnp313Group120Var13C1Ev
	.set	_ZN8opendnp313Group120Var13C1Ev,_ZN8opendnp313Group120Var13C2Ev
	.align	2
	.global	_ZN8opendnp313Group120Var13C2EjtRKN7openpal6RSliceE
	.syntax unified
	.arm
	.fpu vfp
	.type	_ZN8opendnp313Group120Var13C2EjtRKN7openpal6RSliceE, %function
_ZN8opendnp313Group120Var13C2EjtRKN7openpal6RSliceE:
	.fnstart
.LFB212:
	@ args = 0, pretend = 0, frame = 0
	@ frame_needed = 0, uses_anonymous_args = 0
	push	{r4, r5, lr}
	mov	ip, r0
	ldr	lr, .L383
	ldr	r4, .L383+4
.LPIC29:
	add	lr, pc, lr
	add	r5, r0, #12
	ldr	r4, [lr, r4]
	str	r1, [r0, #4]
	ldm	r3, {r0, r1}
	add	r4, r4, #8
	str	r4, [ip]
	strh	r2, [ip, #8]	@ movhi
	stm	r5, {r0, r1}
	mov	r0, ip
	pop	{r4, r5, pc}
.L384:
	.align	2
.L383:
	.word	_GLOBAL_OFFSET_TABLE_-(.LPIC29+8)
	.word	_ZTVN8opendnp313Group120Var13E(GOT)
	.cantunwind
	.fnend
	.size	_ZN8opendnp313Group120Var13C2EjtRKN7openpal6RSliceE, .-_ZN8opendnp313Group120Var13C2EjtRKN7openpal6RSliceE
	.global	_ZN8opendnp313Group120Var13C1EjtRKN7openpal6RSliceE
	.set	_ZN8opendnp313Group120Var13C1EjtRKN7openpal6RSliceE,_ZN8opendnp313Group120Var13C2EjtRKN7openpal6RSliceE
	.align	2
	.global	_ZN8opendnp313Group120Var14C2Ev
	.syntax unified
	.arm
	.fpu vfp
	.type	_ZN8opendnp313Group120Var14C2Ev, %function
_ZN8opendnp313Group120Var14C2Ev:
	.fnstart
.LFB218:
	@ args = 0, pretend = 0, frame = 0
	@ frame_needed = 0, uses_anonymous_args = 0
	ldr	r3, .L387
	ldr	r2, .L387+4
.LPIC30:
	add	r3, pc, r3
	push	{r4, lr}
	.save {r4, lr}
	mov	r4, r0
	ldr	r2, [r3, r2]
	add	r3, r2, #8
	str	r3, [r0], #4
	bl	_ZN7openpal6RSliceC1Ev(PLT)
	mov	r0, r4
	pop	{r4, pc}
.L388:
	.align	2
.L387:
	.word	_GLOBAL_OFFSET_TABLE_-(.LPIC30+8)
	.word	_ZTVN8opendnp313Group120Var14E(GOT)
	.fnend
	.size	_ZN8opendnp313Group120Var14C2Ev, .-_ZN8opendnp313Group120Var14C2Ev
	.global	_ZN8opendnp313Group120Var14C1Ev
	.set	_ZN8opendnp313Group120Var14C1Ev,_ZN8opendnp313Group120Var14C2Ev
	.align	2
	.global	_ZN8opendnp313Group120Var14C2ERKN7openpal6RSliceE
	.syntax unified
	.arm
	.fpu vfp
	.type	_ZN8opendnp313Group120Var14C2ERKN7openpal6RSliceE, %function
_ZN8opendnp313Group120Var14C2ERKN7openpal6RSliceE:
	.fnstart
.LFB221:
	@ args = 0, pretend = 0, frame = 0
	@ frame_needed = 0, uses_anonymous_args = 0
	ldr	r2, .L391
	ldr	r3, .L391+4
.LPIC31:
	add	r2, pc, r2
	str	lr, [sp, #-4]!
	mov	lr, r0
	ldr	ip, [r2, r3]
	ldm	r1, {r0, r1}
	mov	r3, lr
	add	ip, ip, #8
	str	ip, [r3], #4
	stm	r3, {r0, r1}
	mov	r0, lr
	ldr	pc, [sp], #4
.L392:
	.align	2
.L391:
	.word	_GLOBAL_OFFSET_TABLE_-(.LPIC31+8)
	.word	_ZTVN8opendnp313Group120Var14E(GOT)
	.cantunwind
	.fnend
	.size	_ZN8opendnp313Group120Var14C2ERKN7openpal6RSliceE, .-_ZN8opendnp313Group120Var14C2ERKN7openpal6RSliceE
	.global	_ZN8opendnp313Group120Var14C1ERKN7openpal6RSliceE
	.set	_ZN8opendnp313Group120Var14C1ERKN7openpal6RSliceE,_ZN8opendnp313Group120Var14C2ERKN7openpal6RSliceE
	.align	2
	.global	_ZN8opendnp313Group120Var15C2Ev
	.syntax unified
	.arm
	.fpu vfp
	.type	_ZN8opendnp313Group120Var15C2Ev, %function
_ZN8opendnp313Group120Var15C2Ev:
	.fnstart
.LFB227:
	@ args = 0, pretend = 0, frame = 0
	@ frame_needed = 0, uses_anonymous_args = 0
	ldr	r3, .L395
	ldr	r2, .L395+4
.LPIC32:
	add	r3, pc, r3
	push	{r4, lr}
	.save {r4, lr}
	mov	r4, r0
	ldr	r2, [r3, r2]
	add	r3, r2, #8
	str	r3, [r0], #4
	bl	_ZN7openpal6RSliceC1Ev(PLT)
	mov	r0, r4
	pop	{r4, pc}
.L396:
	.align	2
.L395:
	.word	_GLOBAL_OFFSET_TABLE_-(.LPIC32+8)
	.word	_ZTVN8opendnp313Group120Var15E(GOT)
	.fnend
	.size	_ZN8opendnp313Group120Var15C2Ev, .-_ZN8opendnp313Group120Var15C2Ev
	.global	_ZN8opendnp313Group120Var15C1Ev
	.set	_ZN8opendnp313Group120Var15C1Ev,_ZN8opendnp313Group120Var15C2Ev
	.align	2
	.global	_ZN8opendnp313Group120Var15C2ERKN7openpal6RSliceE
	.syntax unified
	.arm
	.fpu vfp
	.type	_ZN8opendnp313Group120Var15C2ERKN7openpal6RSliceE, %function
_ZN8opendnp313Group120Var15C2ERKN7openpal6RSliceE:
	.fnstart
.LFB230:
	@ args = 0, pretend = 0, frame = 0
	@ frame_needed = 0, uses_anonymous_args = 0
	ldr	r2, .L399
	ldr	r3, .L399+4
.LPIC33:
	add	r2, pc, r2
	str	lr, [sp, #-4]!
	mov	lr, r0
	ldr	ip, [r2, r3]
	ldm	r1, {r0, r1}
	mov	r3, lr
	add	ip, ip, #8
	str	ip, [r3], #4
	stm	r3, {r0, r1}
	mov	r0, lr
	ldr	pc, [sp], #4
.L400:
	.align	2
.L399:
	.word	_GLOBAL_OFFSET_TABLE_-(.LPIC33+8)
	.word	_ZTVN8opendnp313Group120Var15E(GOT)
	.cantunwind
	.fnend
	.size	_ZN8opendnp313Group120Var15C2ERKN7openpal6RSliceE, .-_ZN8opendnp313Group120Var15C2ERKN7openpal6RSliceE
	.global	_ZN8opendnp313Group120Var15C1ERKN7openpal6RSliceE
	.set	_ZN8opendnp313Group120Var15C1ERKN7openpal6RSliceE,_ZN8opendnp313Group120Var15C2ERKN7openpal6RSliceE
	.weak	_ZTSN8opendnp315IVariableLengthE
	.section	.rodata._ZTSN8opendnp315IVariableLengthE,"aG",%progbits,_ZTSN8opendnp315IVariableLengthE,comdat
	.align	2
	.type	_ZTSN8opendnp315IVariableLengthE, %object
	.size	_ZTSN8opendnp315IVariableLengthE, 29
_ZTSN8opendnp315IVariableLengthE:
	.ascii	"N8opendnp315IVariableLengthE\000"
	.weak	_ZTIN8opendnp315IVariableLengthE
	.section	.data.rel.ro._ZTIN8opendnp315IVariableLengthE,"awG",%progbits,_ZTIN8opendnp315IVariableLengthE,comdat
	.align	2
	.type	_ZTIN8opendnp315IVariableLengthE, %object
	.size	_ZTIN8opendnp315IVariableLengthE, 8
_ZTIN8opendnp315IVariableLengthE:
	.word	_ZTVN10__cxxabiv117__class_type_infoE+8
	.word	_ZTSN8opendnp315IVariableLengthE
	.global	_ZTSN8opendnp312Group120Var1E
	.global	_ZTIN8opendnp312Group120Var1E
	.global	_ZTSN8opendnp312Group120Var2E
	.global	_ZTIN8opendnp312Group120Var2E
	.global	_ZTSN8opendnp312Group120Var5E
	.global	_ZTIN8opendnp312Group120Var5E
	.global	_ZTSN8opendnp312Group120Var6E
	.global	_ZTIN8opendnp312Group120Var6E
	.global	_ZTSN8opendnp312Group120Var7E
	.global	_ZTIN8opendnp312Group120Var7E
	.global	_ZTSN8opendnp312Group120Var8E
	.global	_ZTIN8opendnp312Group120Var8E
	.global	_ZTSN8opendnp312Group120Var9E
	.global	_ZTIN8opendnp312Group120Var9E
	.global	_ZTSN8opendnp313Group120Var10E
	.global	_ZTIN8opendnp313Group120Var10E
	.global	_ZTSN8opendnp313Group120Var11E
	.global	_ZTIN8opendnp313Group120Var11E
	.global	_ZTSN8opendnp313Group120Var12E
	.global	_ZTIN8opendnp313Group120Var12E
	.global	_ZTSN8opendnp313Group120Var13E
	.global	_ZTIN8opendnp313Group120Var13E
	.global	_ZTSN8opendnp313Group120Var14E
	.global	_ZTIN8opendnp313Group120Var14E
	.global	_ZTSN8opendnp313Group120Var15E
	.global	_ZTIN8opendnp313Group120Var15E
	.global	_ZTVN8opendnp312Group120Var1E
	.global	_ZTVN8opendnp312Group120Var2E
	.global	_ZTVN8opendnp312Group120Var5E
	.global	_ZTVN8opendnp312Group120Var6E
	.global	_ZTVN8opendnp312Group120Var7E
	.global	_ZTVN8opendnp312Group120Var8E
	.global	_ZTVN8opendnp312Group120Var9E
	.global	_ZTVN8opendnp313Group120Var10E
	.global	_ZTVN8opendnp313Group120Var11E
	.global	_ZTVN8opendnp313Group120Var12E
	.global	_ZTVN8opendnp313Group120Var13E
	.global	_ZTVN8opendnp313Group120Var14E
	.global	_ZTVN8opendnp313Group120Var15E
	.section	.rodata
	.align	2
	.type	_ZTSN8opendnp312Group120Var1E, %object
	.size	_ZTSN8opendnp312Group120Var1E, 26
_ZTSN8opendnp312Group120Var1E:
	.ascii	"N8opendnp312Group120Var1E\000"
	.space	2
	.type	_ZTSN8opendnp312Group120Var2E, %object
	.size	_ZTSN8opendnp312Group120Var2E, 26
_ZTSN8opendnp312Group120Var2E:
	.ascii	"N8opendnp312Group120Var2E\000"
	.space	2
	.type	_ZTSN8opendnp312Group120Var5E, %object
	.size	_ZTSN8opendnp312Group120Var5E, 26
_ZTSN8opendnp312Group120Var5E:
	.ascii	"N8opendnp312Group120Var5E\000"
	.space	2
	.type	_ZTSN8opendnp312Group120Var6E, %object
	.size	_ZTSN8opendnp312Group120Var6E, 26
_ZTSN8opendnp312Group120Var6E:
	.ascii	"N8opendnp312Group120Var6E\000"
	.space	2
	.type	_ZTSN8opendnp312Group120Var7E, %object
	.size	_ZTSN8opendnp312Group120Var7E, 26
_ZTSN8opendnp312Group120Var7E:
	.ascii	"N8opendnp312Group120Var7E\000"
	.space	2
	.type	_ZTSN8opendnp312Group120Var8E, %object
	.size	_ZTSN8opendnp312Group120Var8E, 26
_ZTSN8opendnp312Group120Var8E:
	.ascii	"N8opendnp312Group120Var8E\000"
	.space	2
	.type	_ZTSN8opendnp312Group120Var9E, %object
	.size	_ZTSN8opendnp312Group120Var9E, 26
_ZTSN8opendnp312Group120Var9E:
	.ascii	"N8opendnp312Group120Var9E\000"
	.space	2
	.type	_ZTSN8opendnp313Group120Var10E, %object
	.size	_ZTSN8opendnp313Group120Var10E, 27
_ZTSN8opendnp313Group120Var10E:
	.ascii	"N8opendnp313Group120Var10E\000"
	.space	1
	.type	_ZTSN8opendnp313Group120Var11E, %object
	.size	_ZTSN8opendnp313Group120Var11E, 27
_ZTSN8opendnp313Group120Var11E:
	.ascii	"N8opendnp313Group120Var11E\000"
	.space	1
	.type	_ZTSN8opendnp313Group120Var12E, %object
	.size	_ZTSN8opendnp313Group120Var12E, 27
_ZTSN8opendnp313Group120Var12E:
	.ascii	"N8opendnp313Group120Var12E\000"
	.space	1
	.type	_ZTSN8opendnp313Group120Var13E, %object
	.size	_ZTSN8opendnp313Group120Var13E, 27
_ZTSN8opendnp313Group120Var13E:
	.ascii	"N8opendnp313Group120Var13E\000"
	.space	1
	.type	_ZTSN8opendnp313Group120Var14E, %object
	.size	_ZTSN8opendnp313Group120Var14E, 27
_ZTSN8opendnp313Group120Var14E:
	.ascii	"N8opendnp313Group120Var14E\000"
	.space	1
	.type	_ZTSN8opendnp313Group120Var15E, %object
	.size	_ZTSN8opendnp313Group120Var15E, 27
_ZTSN8opendnp313Group120Var15E:
	.ascii	"N8opendnp313Group120Var15E\000"
	.section	.data.rel.ro,"aw",%progbits
	.align	2
	.type	_ZTIN8opendnp312Group120Var1E, %object
	.size	_ZTIN8opendnp312Group120Var1E, 12
_ZTIN8opendnp312Group120Var1E:
	.word	_ZTVN10__cxxabiv120__si_class_type_infoE+8
	.word	_ZTSN8opendnp312Group120Var1E
	.word	_ZTIN8opendnp315IVariableLengthE
	.type	_ZTIN8opendnp312Group120Var2E, %object
	.size	_ZTIN8opendnp312Group120Var2E, 12
_ZTIN8opendnp312Group120Var2E:
	.word	_ZTVN10__cxxabiv120__si_class_type_infoE+8
	.word	_ZTSN8opendnp312Group120Var2E
	.word	_ZTIN8opendnp315IVariableLengthE
	.type	_ZTIN8opendnp312Group120Var5E, %object
	.size	_ZTIN8opendnp312Group120Var5E, 12
_ZTIN8opendnp312Group120Var5E:
	.word	_ZTVN10__cxxabiv120__si_class_type_infoE+8
	.word	_ZTSN8opendnp312Group120Var5E
	.word	_ZTIN8opendnp315IVariableLengthE
	.type	_ZTIN8opendnp312Group120Var6E, %object
	.size	_ZTIN8opendnp312Group120Var6E, 12
_ZTIN8opendnp312Group120Var6E:
	.word	_ZTVN10__cxxabiv120__si_class_type_infoE+8
	.word	_ZTSN8opendnp312Group120Var6E
	.word	_ZTIN8opendnp315IVariableLengthE
	.type	_ZTIN8opendnp312Group120Var7E, %object
	.size	_ZTIN8opendnp312Group120Var7E, 12
_ZTIN8opendnp312Group120Var7E:
	.word	_ZTVN10__cxxabiv120__si_class_type_infoE+8
	.word	_ZTSN8opendnp312Group120Var7E
	.word	_ZTIN8opendnp315IVariableLengthE
	.type	_ZTIN8opendnp312Group120Var8E, %object
	.size	_ZTIN8opendnp312Group120Var8E, 12
_ZTIN8opendnp312Group120Var8E:
	.word	_ZTVN10__cxxabiv120__si_class_type_infoE+8
	.word	_ZTSN8opendnp312Group120Var8E
	.word	_ZTIN8opendnp315IVariableLengthE
	.type	_ZTIN8opendnp312Group120Var9E, %object
	.size	_ZTIN8opendnp312Group120Var9E, 12
_ZTIN8opendnp312Group120Var9E:
	.word	_ZTVN10__cxxabiv120__si_class_type_infoE+8
	.word	_ZTSN8opendnp312Group120Var9E
	.word	_ZTIN8opendnp315IVariableLengthE
	.type	_ZTIN8opendnp313Group120Var10E, %object
	.size	_ZTIN8opendnp313Group120Var10E, 12
_ZTIN8opendnp313Group120Var10E:
	.word	_ZTVN10__cxxabiv120__si_class_type_infoE+8
	.word	_ZTSN8opendnp313Group120Var10E
	.word	_ZTIN8opendnp315IVariableLengthE
	.type	_ZTIN8opendnp313Group120Var11E, %object
	.size	_ZTIN8opendnp313Group120Var11E, 12
_ZTIN8opendnp313Group120Var11E:
	.word	_ZTVN10__cxxabiv120__si_class_type_infoE+8
	.word	_ZTSN8opendnp313Group120Var11E
	.word	_ZTIN8opendnp315IVariableLengthE
	.type	_ZTIN8opendnp313Group120Var12E, %object
	.size	_ZTIN8opendnp313Group120Var12E, 12
_ZTIN8opendnp313Group120Var12E:
	.word	_ZTVN10__cxxabiv120__si_class_type_infoE+8
	.word	_ZTSN8opendnp313Group120Var12E
	.word	_ZTIN8opendnp315IVariableLengthE
	.type	_ZTIN8opendnp313Group120Var13E, %object
	.size	_ZTIN8opendnp313Group120Var13E, 12
_ZTIN8opendnp313Group120Var13E:
	.word	_ZTVN10__cxxabiv120__si_class_type_infoE+8
	.word	_ZTSN8opendnp313Group120Var13E
	.word	_ZTIN8opendnp315IVariableLengthE
	.type	_ZTIN8opendnp313Group120Var14E, %object
	.size	_ZTIN8opendnp313Group120Var14E, 12
_ZTIN8opendnp313Group120Var14E:
	.word	_ZTVN10__cxxabiv120__si_class_type_infoE+8
	.word	_ZTSN8opendnp313Group120Var14E
	.word	_ZTIN8opendnp315IVariableLengthE
	.type	_ZTIN8opendnp313Group120Var15E, %object
	.size	_ZTIN8opendnp313Group120Var15E, 12
_ZTIN8opendnp313Group120Var15E:
	.word	_ZTVN10__cxxabiv120__si_class_type_infoE+8
	.word	_ZTSN8opendnp313Group120Var15E
	.word	_ZTIN8opendnp315IVariableLengthE
	.type	_ZTVN8opendnp312Group120Var1E, %object
	.size	_ZTVN8opendnp312Group120Var1E, 32
_ZTVN8opendnp312Group120Var1E:
	.word	0
	.word	_ZTIN8opendnp312Group120Var1E
	.word	_ZN8opendnp312Group120Var1D1Ev
	.word	_ZN8opendnp312Group120Var1D0Ev
	.word	_ZNK8opendnp312Group120Var110InstanceIDEv
	.word	_ZNK8opendnp312Group120Var14SizeEv
	.word	_ZNK8opendnp312Group120Var15WriteERN7openpal6WSliceE
	.word	_ZN8opendnp312Group120Var14ReadERKN7openpal6RSliceE
	.type	_ZTVN8opendnp312Group120Var2E, %object
	.size	_ZTVN8opendnp312Group120Var2E, 32
_ZTVN8opendnp312Group120Var2E:
	.word	0
	.word	_ZTIN8opendnp312Group120Var2E
	.word	_ZN8opendnp312Group120Var2D1Ev
	.word	_ZN8opendnp312Group120Var2D0Ev
	.word	_ZNK8opendnp312Group120Var210InstanceIDEv
	.word	_ZNK8opendnp312Group120Var24SizeEv
	.word	_ZNK8opendnp312Group120Var25WriteERN7openpal6WSliceE
	.word	_ZN8opendnp312Group120Var24ReadERKN7openpal6RSliceE
	.type	_ZTVN8opendnp312Group120Var5E, %object
	.size	_ZTVN8opendnp312Group120Var5E, 32
_ZTVN8opendnp312Group120Var5E:
	.word	0
	.word	_ZTIN8opendnp312Group120Var5E
	.word	_ZN8opendnp312Group120Var5D1Ev
	.word	_ZN8opendnp312Group120Var5D0Ev
	.word	_ZNK8opendnp312Group120Var510InstanceIDEv
	.word	_ZNK8opendnp312Group120Var54SizeEv
	.word	_ZNK8opendnp312Group120Var55WriteERN7openpal6WSliceE
	.word	_ZN8opendnp312Group120Var54ReadERKN7openpal6RSliceE
	.type	_ZTVN8opendnp312Group120Var6E, %object
	.size	_ZTVN8opendnp312Group120Var6E, 32
_ZTVN8opendnp312Group120Var6E:
	.word	0
	.word	_ZTIN8opendnp312Group120Var6E
	.word	_ZN8opendnp312Group120Var6D1Ev
	.word	_ZN8opendnp312Group120Var6D0Ev
	.word	_ZNK8opendnp312Group120Var610InstanceIDEv
	.word	_ZNK8opendnp312Group120Var64SizeEv
	.word	_ZNK8opendnp312Group120Var65WriteERN7openpal6WSliceE
	.word	_ZN8opendnp312Group120Var64ReadERKN7openpal6RSliceE
	.type	_ZTVN8opendnp312Group120Var7E, %object
	.size	_ZTVN8opendnp312Group120Var7E, 32
_ZTVN8opendnp312Group120Var7E:
	.word	0
	.word	_ZTIN8opendnp312Group120Var7E
	.word	_ZN8opendnp312Group120Var7D1Ev
	.word	_ZN8opendnp312Group120Var7D0Ev
	.word	_ZNK8opendnp312Group120Var710InstanceIDEv
	.word	_ZNK8opendnp312Group120Var74SizeEv
	.word	_ZNK8opendnp312Group120Var75WriteERN7openpal6WSliceE
	.word	_ZN8opendnp312Group120Var74ReadERKN7openpal6RSliceE
	.type	_ZTVN8opendnp312Group120Var8E, %object
	.size	_ZTVN8opendnp312Group120Var8E, 32
_ZTVN8opendnp312Group120Var8E:
	.word	0
	.word	_ZTIN8opendnp312Group120Var8E
	.word	_ZN8opendnp312Group120Var8D1Ev
	.word	_ZN8opendnp312Group120Var8D0Ev
	.word	_ZNK8opendnp312Group120Var810InstanceIDEv
	.word	_ZNK8opendnp312Group120Var84SizeEv
	.word	_ZNK8opendnp312Group120Var85WriteERN7openpal6WSliceE
	.word	_ZN8opendnp312Group120Var84ReadERKN7openpal6RSliceE
	.type	_ZTVN8opendnp312Group120Var9E, %object
	.size	_ZTVN8opendnp312Group120Var9E, 32
_ZTVN8opendnp312Group120Var9E:
	.word	0
	.word	_ZTIN8opendnp312Group120Var9E
	.word	_ZN8opendnp312Group120Var9D1Ev
	.word	_ZN8opendnp312Group120Var9D0Ev
	.word	_ZNK8opendnp312Group120Var910InstanceIDEv
	.word	_ZNK8opendnp312Group120Var94SizeEv
	.word	_ZNK8opendnp312Group120Var95WriteERN7openpal6WSliceE
	.word	_ZN8opendnp312Group120Var94ReadERKN7openpal6RSliceE
	.type	_ZTVN8opendnp313Group120Var10E, %object
	.size	_ZTVN8opendnp313Group120Var10E, 32
_ZTVN8opendnp313Group120Var10E:
	.word	0
	.word	_ZTIN8opendnp313Group120Var10E
	.word	_ZN8opendnp313Group120Var10D1Ev
	.word	_ZN8opendnp313Group120Var10D0Ev
	.word	_ZNK8opendnp313Group120Var1010InstanceIDEv
	.word	_ZNK8opendnp313Group120Var104SizeEv
	.word	_ZNK8opendnp313Group120Var105WriteERN7openpal6WSliceE
	.word	_ZN8opendnp313Group120Var104ReadERKN7openpal6RSliceE
	.type	_ZTVN8opendnp313Group120Var11E, %object
	.size	_ZTVN8opendnp313Group120Var11E, 32
_ZTVN8opendnp313Group120Var11E:
	.word	0
	.word	_ZTIN8opendnp313Group120Var11E
	.word	_ZN8opendnp313Group120Var11D1Ev
	.word	_ZN8opendnp313Group120Var11D0Ev
	.word	_ZNK8opendnp313Group120Var1110InstanceIDEv
	.word	_ZNK8opendnp313Group120Var114SizeEv
	.word	_ZNK8opendnp313Group120Var115WriteERN7openpal6WSliceE
	.word	_ZN8opendnp313Group120Var114ReadERKN7openpal6RSliceE
	.type	_ZTVN8opendnp313Group120Var12E, %object
	.size	_ZTVN8opendnp313Group120Var12E, 32
_ZTVN8opendnp313Group120Var12E:
	.word	0
	.word	_ZTIN8opendnp313Group120Var12E
	.word	_ZN8opendnp313Group120Var12D1Ev
	.word	_ZN8opendnp313Group120Var12D0Ev
	.word	_ZNK8opendnp313Group120Var1210InstanceIDEv
	.word	_ZNK8opendnp313Group120Var124SizeEv
	.word	_ZNK8opendnp313Group120Var125WriteERN7openpal6WSliceE
	.word	_ZN8opendnp313Group120Var124ReadERKN7openpal6RSliceE
	.type	_ZTVN8opendnp313Group120Var13E, %object
	.size	_ZTVN8opendnp313Group120Var13E, 32
_ZTVN8opendnp313Group120Var13E:
	.word	0
	.word	_ZTIN8opendnp313Group120Var13E
	.word	_ZN8opendnp313Group120Var13D1Ev
	.word	_ZN8opendnp313Group120Var13D0Ev
	.word	_ZNK8opendnp313Group120Var1310InstanceIDEv
	.word	_ZNK8opendnp313Group120Var134SizeEv
	.word	_ZNK8opendnp313Group120Var135WriteERN7openpal6WSliceE
	.word	_ZN8opendnp313Group120Var134ReadERKN7openpal6RSliceE
	.type	_ZTVN8opendnp313Group120Var14E, %object
	.size	_ZTVN8opendnp313Group120Var14E, 32
_ZTVN8opendnp313Group120Var14E:
	.word	0
	.word	_ZTIN8opendnp313Group120Var14E
	.word	_ZN8opendnp313Group120Var14D1Ev
	.word	_ZN8opendnp313Group120Var14D0Ev
	.word	_ZNK8opendnp313Group120Var1410InstanceIDEv
	.word	_ZNK8opendnp313Group120Var144SizeEv
	.word	_ZNK8opendnp313Group120Var145WriteERN7openpal6WSliceE
	.word	_ZN8opendnp313Group120Var144ReadERKN7openpal6RSliceE
	.type	_ZTVN8opendnp313Group120Var15E, %object
	.size	_ZTVN8opendnp313Group120Var15E, 32
_ZTVN8opendnp313Group120Var15E:
	.word	0
	.word	_ZTIN8opendnp313Group120Var15E
	.word	_ZN8opendnp313Group120Var15D1Ev
	.word	_ZN8opendnp313Group120Var15D0Ev
	.word	_ZNK8opendnp313Group120Var1510InstanceIDEv
	.word	_ZNK8opendnp313Group120Var154SizeEv
	.word	_ZNK8opendnp313Group120Var155WriteERN7openpal6WSliceE
	.word	_ZN8opendnp313Group120Var154ReadERKN7openpal6RSliceE
	.ident	"GCC: (Raspbian 6.3.0-18+rpi1+deb9u1) 6.3.0 20170516"
	.section	.note.GNU-stack,"",%progbits
