	.arch armv6
	.eabi_attribute 28, 1
	.eabi_attribute 20, 1
	.eabi_attribute 21, 1
	.eabi_attribute 23, 3
	.eabi_attribute 24, 1
	.eabi_attribute 25, 1
	.eabi_attribute 26, 2
	.eabi_attribute 30, 2
	.eabi_attribute 34, 1
	.eabi_attribute 18, 4
	.file	"IOHandler.cpp"
	.section	.text._ZNK9__gnu_cxx24__concurrence_lock_error4whatEv,"axG",%progbits,_ZNK9__gnu_cxx24__concurrence_lock_error4whatEv,comdat
	.align	2
	.weak	_ZNK9__gnu_cxx24__concurrence_lock_error4whatEv
	.syntax unified
	.arm
	.fpu vfp
	.type	_ZNK9__gnu_cxx24__concurrence_lock_error4whatEv, %function
_ZNK9__gnu_cxx24__concurrence_lock_error4whatEv:
	.fnstart
.LFB589:
	@ args = 0, pretend = 0, frame = 0
	@ frame_needed = 0, uses_anonymous_args = 0
	@ link register save eliminated.
	ldr	r0, .L2
.LPIC0:
	add	r0, pc, r0
	bx	lr
.L3:
	.align	2
.L2:
	.word	.LC0-(.LPIC0+8)
	.cantunwind
	.fnend
	.size	_ZNK9__gnu_cxx24__concurrence_lock_error4whatEv, .-_ZNK9__gnu_cxx24__concurrence_lock_error4whatEv
	.section	.text._ZNK9__gnu_cxx26__concurrence_unlock_error4whatEv,"axG",%progbits,_ZNK9__gnu_cxx26__concurrence_unlock_error4whatEv,comdat
	.align	2
	.weak	_ZNK9__gnu_cxx26__concurrence_unlock_error4whatEv
	.syntax unified
	.arm
	.fpu vfp
	.type	_ZNK9__gnu_cxx26__concurrence_unlock_error4whatEv, %function
_ZNK9__gnu_cxx26__concurrence_unlock_error4whatEv:
	.fnstart
.LFB590:
	@ args = 0, pretend = 0, frame = 0
	@ frame_needed = 0, uses_anonymous_args = 0
	@ link register save eliminated.
	ldr	r0, .L5
.LPIC1:
	add	r0, pc, r0
	bx	lr
.L6:
	.align	2
.L5:
	.word	.LC1-(.LPIC1+8)
	.cantunwind
	.fnend
	.size	_ZNK9__gnu_cxx26__concurrence_unlock_error4whatEv, .-_ZNK9__gnu_cxx26__concurrence_unlock_error4whatEv
	.section	.text._ZNK4asio6detail15system_category4nameEv,"axG",%progbits,_ZNK4asio6detail15system_category4nameEv,comdat
	.align	2
	.weak	_ZNK4asio6detail15system_category4nameEv
	.syntax unified
	.arm
	.fpu vfp
	.type	_ZNK4asio6detail15system_category4nameEv, %function
_ZNK4asio6detail15system_category4nameEv:
	.fnstart
.LFB2669:
	@ args = 0, pretend = 0, frame = 0
	@ frame_needed = 0, uses_anonymous_args = 0
	@ link register save eliminated.
	ldr	r0, .L8
.LPIC2:
	add	r0, pc, r0
	bx	lr
.L9:
	.align	2
.L8:
	.word	.LC2-(.LPIC2+8)
	.cantunwind
	.fnend
	.size	_ZNK4asio6detail15system_category4nameEv, .-_ZNK4asio6detail15system_category4nameEv
	.section	.text._ZNK4asio5error6detail14netdb_category4nameEv,"axG",%progbits,_ZNK4asio5error6detail14netdb_category4nameEv,comdat
	.align	2
	.weak	_ZNK4asio5error6detail14netdb_category4nameEv
	.syntax unified
	.arm
	.fpu vfp
	.type	_ZNK4asio5error6detail14netdb_category4nameEv, %function
_ZNK4asio5error6detail14netdb_category4nameEv:
	.fnstart
.LFB2690:
	@ args = 0, pretend = 0, frame = 0
	@ frame_needed = 0, uses_anonymous_args = 0
	@ link register save eliminated.
	ldr	r0, .L11
.LPIC3:
	add	r0, pc, r0
	bx	lr
.L12:
	.align	2
.L11:
	.word	.LC3-(.LPIC3+8)
	.cantunwind
	.fnend
	.size	_ZNK4asio5error6detail14netdb_category4nameEv, .-_ZNK4asio5error6detail14netdb_category4nameEv
	.section	.text._ZNK4asio5error6detail17addrinfo_category4nameEv,"axG",%progbits,_ZNK4asio5error6detail17addrinfo_category4nameEv,comdat
	.align	2
	.weak	_ZNK4asio5error6detail17addrinfo_category4nameEv
	.syntax unified
	.arm
	.fpu vfp
	.type	_ZNK4asio5error6detail17addrinfo_category4nameEv, %function
_ZNK4asio5error6detail17addrinfo_category4nameEv:
	.fnstart
.LFB2696:
	@ args = 0, pretend = 0, frame = 0
	@ frame_needed = 0, uses_anonymous_args = 0
	@ link register save eliminated.
	ldr	r0, .L14
.LPIC4:
	add	r0, pc, r0
	bx	lr
.L15:
	.align	2
.L14:
	.word	.LC4-(.LPIC4+8)
	.cantunwind
	.fnend
	.size	_ZNK4asio5error6detail17addrinfo_category4nameEv, .-_ZNK4asio5error6detail17addrinfo_category4nameEv
	.section	.text._ZNK4asio5error6detail13misc_category4nameEv,"axG",%progbits,_ZNK4asio5error6detail13misc_category4nameEv,comdat
	.align	2
	.weak	_ZNK4asio5error6detail13misc_category4nameEv
	.syntax unified
	.arm
	.fpu vfp
	.type	_ZNK4asio5error6detail13misc_category4nameEv, %function
_ZNK4asio5error6detail13misc_category4nameEv:
	.fnstart
.LFB2702:
	@ args = 0, pretend = 0, frame = 0
	@ frame_needed = 0, uses_anonymous_args = 0
	@ link register save eliminated.
	ldr	r0, .L17
.LPIC5:
	add	r0, pc, r0
	bx	lr
.L18:
	.align	2
.L17:
	.word	.LC5-(.LPIC5+8)
	.cantunwind
	.fnend
	.size	_ZNK4asio5error6detail13misc_category4nameEv, .-_ZNK4asio5error6detail13misc_category4nameEv
	.section	.text._ZN4asio6detail10service_idINS0_13epoll_reactorEED2Ev,"axG",%progbits,_ZN4asio6detail10service_idINS0_13epoll_reactorEED5Ev,comdat
	.align	2
	.weak	_ZN4asio6detail10service_idINS0_13epoll_reactorEED2Ev
	.syntax unified
	.arm
	.fpu vfp
	.type	_ZN4asio6detail10service_idINS0_13epoll_reactorEED2Ev, %function
_ZN4asio6detail10service_idINS0_13epoll_reactorEED2Ev:
	.fnstart
.LFB9849:
	@ args = 0, pretend = 0, frame = 0
	@ frame_needed = 0, uses_anonymous_args = 0
	@ link register save eliminated.
	bx	lr
	.cantunwind
	.fnend
	.size	_ZN4asio6detail10service_idINS0_13epoll_reactorEED2Ev, .-_ZN4asio6detail10service_idINS0_13epoll_reactorEED2Ev
	.weak	_ZN4asio6detail10service_idINS0_13epoll_reactorEED1Ev
	.set	_ZN4asio6detail10service_idINS0_13epoll_reactorEED1Ev,_ZN4asio6detail10service_idINS0_13epoll_reactorEED2Ev
	.section	.text._ZN4asio6detail10service_idINS0_15task_io_serviceEED2Ev,"axG",%progbits,_ZN4asio6detail10service_idINS0_15task_io_serviceEED5Ev,comdat
	.align	2
	.weak	_ZN4asio6detail10service_idINS0_15task_io_serviceEED2Ev
	.syntax unified
	.arm
	.fpu vfp
	.type	_ZN4asio6detail10service_idINS0_15task_io_serviceEED2Ev, %function
_ZN4asio6detail10service_idINS0_15task_io_serviceEED2Ev:
	.fnstart
.LFB9852:
	@ args = 0, pretend = 0, frame = 0
	@ frame_needed = 0, uses_anonymous_args = 0
	@ link register save eliminated.
	bx	lr
	.cantunwind
	.fnend
	.size	_ZN4asio6detail10service_idINS0_15task_io_serviceEED2Ev, .-_ZN4asio6detail10service_idINS0_15task_io_serviceEED2Ev
	.weak	_ZN4asio6detail10service_idINS0_15task_io_serviceEED1Ev
	.set	_ZN4asio6detail10service_idINS0_15task_io_serviceEED1Ev,_ZN4asio6detail10service_idINS0_15task_io_serviceEED2Ev
	.section	.text._ZN4asio6detail10service_idINS0_14strand_serviceEED2Ev,"axG",%progbits,_ZN4asio6detail10service_idINS0_14strand_serviceEED5Ev,comdat
	.align	2
	.weak	_ZN4asio6detail10service_idINS0_14strand_serviceEED2Ev
	.syntax unified
	.arm
	.fpu vfp
	.type	_ZN4asio6detail10service_idINS0_14strand_serviceEED2Ev, %function
_ZN4asio6detail10service_idINS0_14strand_serviceEED2Ev:
	.fnstart
.LFB9858:
	@ args = 0, pretend = 0, frame = 0
	@ frame_needed = 0, uses_anonymous_args = 0
	@ link register save eliminated.
	bx	lr
	.cantunwind
	.fnend
	.size	_ZN4asio6detail10service_idINS0_14strand_serviceEED2Ev, .-_ZN4asio6detail10service_idINS0_14strand_serviceEED2Ev
	.weak	_ZN4asio6detail10service_idINS0_14strand_serviceEED1Ev
	.set	_ZN4asio6detail10service_idINS0_14strand_serviceEED1Ev,_ZN4asio6detail10service_idINS0_14strand_serviceEED2Ev
	.section	.text._ZN9__gnu_cxx24__concurrence_lock_errorD2Ev,"axG",%progbits,_ZN9__gnu_cxx24__concurrence_lock_errorD5Ev,comdat
	.align	2
	.weak	_ZN9__gnu_cxx24__concurrence_lock_errorD2Ev
	.syntax unified
	.arm
	.fpu vfp
	.type	_ZN9__gnu_cxx24__concurrence_lock_errorD2Ev, %function
_ZN9__gnu_cxx24__concurrence_lock_errorD2Ev:
	.fnstart
.LFB9841:
	@ args = 0, pretend = 0, frame = 0
	@ frame_needed = 0, uses_anonymous_args = 0
	ldr	r3, .L24
	ldr	r2, .L24+4
.LPIC6:
	add	r3, pc, r3
	push	{r4, lr}
	mov	r4, r0
	ldr	r3, [r3, r2]
	add	r3, r3, #8
	str	r3, [r0]
	bl	_ZNSt9exceptionD2Ev(PLT)
	mov	r0, r4
	pop	{r4, pc}
.L25:
	.align	2
.L24:
	.word	_GLOBAL_OFFSET_TABLE_-(.LPIC6+8)
	.word	_ZTVN9__gnu_cxx24__concurrence_lock_errorE(GOT)
	.cantunwind
	.fnend
	.size	_ZN9__gnu_cxx24__concurrence_lock_errorD2Ev, .-_ZN9__gnu_cxx24__concurrence_lock_errorD2Ev
	.weak	_ZN9__gnu_cxx24__concurrence_lock_errorD1Ev
	.set	_ZN9__gnu_cxx24__concurrence_lock_errorD1Ev,_ZN9__gnu_cxx24__concurrence_lock_errorD2Ev
	.section	.text._ZN9__gnu_cxx24__concurrence_lock_errorD0Ev,"axG",%progbits,_ZN9__gnu_cxx24__concurrence_lock_errorD5Ev,comdat
	.align	2
	.weak	_ZN9__gnu_cxx24__concurrence_lock_errorD0Ev
	.syntax unified
	.arm
	.fpu vfp
	.type	_ZN9__gnu_cxx24__concurrence_lock_errorD0Ev, %function
_ZN9__gnu_cxx24__concurrence_lock_errorD0Ev:
	.fnstart
.LFB9843:
	@ args = 0, pretend = 0, frame = 0
	@ frame_needed = 0, uses_anonymous_args = 0
	ldr	r3, .L28
	ldr	r2, .L28+4
.LPIC7:
	add	r3, pc, r3
	push	{r4, lr}
	mov	r4, r0
	ldr	r3, [r3, r2]
	add	r3, r3, #8
	str	r3, [r0]
	bl	_ZNSt9exceptionD2Ev(PLT)
	mov	r0, r4
	mov	r1, #4
	bl	_ZdlPvj(PLT)
	mov	r0, r4
	pop	{r4, pc}
.L29:
	.align	2
.L28:
	.word	_GLOBAL_OFFSET_TABLE_-(.LPIC7+8)
	.word	_ZTVN9__gnu_cxx24__concurrence_lock_errorE(GOT)
	.cantunwind
	.fnend
	.size	_ZN9__gnu_cxx24__concurrence_lock_errorD0Ev, .-_ZN9__gnu_cxx24__concurrence_lock_errorD0Ev
	.section	.text._ZN9__gnu_cxx26__concurrence_unlock_errorD2Ev,"axG",%progbits,_ZN9__gnu_cxx26__concurrence_unlock_errorD5Ev,comdat
	.align	2
	.weak	_ZN9__gnu_cxx26__concurrence_unlock_errorD2Ev
	.syntax unified
	.arm
	.fpu vfp
	.type	_ZN9__gnu_cxx26__concurrence_unlock_errorD2Ev, %function
_ZN9__gnu_cxx26__concurrence_unlock_errorD2Ev:
	.fnstart
.LFB9837:
	@ args = 0, pretend = 0, frame = 0
	@ frame_needed = 0, uses_anonymous_args = 0
	ldr	r3, .L32
	ldr	r2, .L32+4
.LPIC8:
	add	r3, pc, r3
	push	{r4, lr}
	mov	r4, r0
	ldr	r3, [r3, r2]
	add	r3, r3, #8
	str	r3, [r0]
	bl	_ZNSt9exceptionD2Ev(PLT)
	mov	r0, r4
	pop	{r4, pc}
.L33:
	.align	2
.L32:
	.word	_GLOBAL_OFFSET_TABLE_-(.LPIC8+8)
	.word	_ZTVN9__gnu_cxx26__concurrence_unlock_errorE(GOT)
	.cantunwind
	.fnend
	.size	_ZN9__gnu_cxx26__concurrence_unlock_errorD2Ev, .-_ZN9__gnu_cxx26__concurrence_unlock_errorD2Ev
	.weak	_ZN9__gnu_cxx26__concurrence_unlock_errorD1Ev
	.set	_ZN9__gnu_cxx26__concurrence_unlock_errorD1Ev,_ZN9__gnu_cxx26__concurrence_unlock_errorD2Ev
	.section	.text._ZN9__gnu_cxx26__concurrence_unlock_errorD0Ev,"axG",%progbits,_ZN9__gnu_cxx26__concurrence_unlock_errorD5Ev,comdat
	.align	2
	.weak	_ZN9__gnu_cxx26__concurrence_unlock_errorD0Ev
	.syntax unified
	.arm
	.fpu vfp
	.type	_ZN9__gnu_cxx26__concurrence_unlock_errorD0Ev, %function
_ZN9__gnu_cxx26__concurrence_unlock_errorD0Ev:
	.fnstart
.LFB9839:
	@ args = 0, pretend = 0, frame = 0
	@ frame_needed = 0, uses_anonymous_args = 0
	ldr	r3, .L36
	ldr	r2, .L36+4
.LPIC9:
	add	r3, pc, r3
	push	{r4, lr}
	mov	r4, r0
	ldr	r3, [r3, r2]
	add	r3, r3, #8
	str	r3, [r0]
	bl	_ZNSt9exceptionD2Ev(PLT)
	mov	r0, r4
	mov	r1, #4
	bl	_ZdlPvj(PLT)
	mov	r0, r4
	pop	{r4, pc}
.L37:
	.align	2
.L36:
	.word	_GLOBAL_OFFSET_TABLE_-(.LPIC9+8)
	.word	_ZTVN9__gnu_cxx26__concurrence_unlock_errorE(GOT)
	.cantunwind
	.fnend
	.size	_ZN9__gnu_cxx26__concurrence_unlock_errorD0Ev, .-_ZN9__gnu_cxx26__concurrence_unlock_errorD0Ev
	.section	.text._ZN4asio6detail7tss_ptrINS0_10call_stackINS0_15task_io_serviceENS0_27task_io_service_thread_infoEE7contextEED2Ev,"axG",%progbits,_ZN4asio6detail7tss_ptrINS0_10call_stackINS0_15task_io_serviceENS0_27task_io_service_thread_infoEE7contextEED5Ev,comdat
	.align	2
	.weak	_ZN4asio6detail7tss_ptrINS0_10call_stackINS0_15task_io_serviceENS0_27task_io_service_thread_infoEE7contextEED2Ev
	.syntax unified
	.arm
	.fpu vfp
	.type	_ZN4asio6detail7tss_ptrINS0_10call_stackINS0_15task_io_serviceENS0_27task_io_service_thread_infoEE7contextEED2Ev, %function
_ZN4asio6detail7tss_ptrINS0_10call_stackINS0_15task_io_serviceENS0_27task_io_service_thread_infoEE7contextEED2Ev:
	.fnstart
.LFB9846:
	@ args = 0, pretend = 0, frame = 0
	@ frame_needed = 0, uses_anonymous_args = 0
	push	{r4, lr}
	mov	r4, r0
	ldr	r0, [r0]
	bl	pthread_key_delete(PLT)
	mov	r0, r4
	pop	{r4, pc}
	.cantunwind
	.fnend
	.size	_ZN4asio6detail7tss_ptrINS0_10call_stackINS0_15task_io_serviceENS0_27task_io_service_thread_infoEE7contextEED2Ev, .-_ZN4asio6detail7tss_ptrINS0_10call_stackINS0_15task_io_serviceENS0_27task_io_service_thread_infoEE7contextEED2Ev
	.weak	_ZN4asio6detail7tss_ptrINS0_10call_stackINS0_15task_io_serviceENS0_27task_io_service_thread_infoEE7contextEED1Ev
	.set	_ZN4asio6detail7tss_ptrINS0_10call_stackINS0_15task_io_serviceENS0_27task_io_service_thread_infoEE7contextEED1Ev,_ZN4asio6detail7tss_ptrINS0_10call_stackINS0_15task_io_serviceENS0_27task_io_service_thread_infoEE7contextEED2Ev
	.section	.text._ZN4asio6detail7tss_ptrINS0_10call_stackINS0_14strand_service11strand_implEhE7contextEED2Ev,"axG",%progbits,_ZN4asio6detail7tss_ptrINS0_10call_stackINS0_14strand_service11strand_implEhE7contextEED5Ev,comdat
	.align	2
	.weak	_ZN4asio6detail7tss_ptrINS0_10call_stackINS0_14strand_service11strand_implEhE7contextEED2Ev
	.syntax unified
	.arm
	.fpu vfp
	.type	_ZN4asio6detail7tss_ptrINS0_10call_stackINS0_14strand_service11strand_implEhE7contextEED2Ev, %function
_ZN4asio6detail7tss_ptrINS0_10call_stackINS0_14strand_service11strand_implEhE7contextEED2Ev:
	.fnstart
.LFB9855:
	@ args = 0, pretend = 0, frame = 0
	@ frame_needed = 0, uses_anonymous_args = 0
	push	{r4, lr}
	mov	r4, r0
	ldr	r0, [r0]
	bl	pthread_key_delete(PLT)
	mov	r0, r4
	pop	{r4, pc}
	.cantunwind
	.fnend
	.size	_ZN4asio6detail7tss_ptrINS0_10call_stackINS0_14strand_service11strand_implEhE7contextEED2Ev, .-_ZN4asio6detail7tss_ptrINS0_10call_stackINS0_14strand_service11strand_implEhE7contextEED2Ev
	.weak	_ZN4asio6detail7tss_ptrINS0_10call_stackINS0_14strand_service11strand_implEhE7contextEED1Ev
	.set	_ZN4asio6detail7tss_ptrINS0_10call_stackINS0_14strand_service11strand_implEhE7contextEED1Ev,_ZN4asio6detail7tss_ptrINS0_10call_stackINS0_14strand_service11strand_implEhE7contextEED2Ev
	.section	.text._ZN4asio6detail15system_categoryD2Ev,"axG",%progbits,_ZN4asio6detail15system_categoryD5Ev,comdat
	.align	2
	.weak	_ZN4asio6detail15system_categoryD2Ev
	.syntax unified
	.arm
	.fpu vfp
	.type	_ZN4asio6detail15system_categoryD2Ev, %function
_ZN4asio6detail15system_categoryD2Ev:
	.fnstart
.LFB9825:
	@ args = 0, pretend = 0, frame = 0
	@ frame_needed = 0, uses_anonymous_args = 0
	ldr	r3, .L44
	ldr	r2, .L44+4
.LPIC10:
	add	r3, pc, r3
	push	{r4, lr}
	mov	r4, r0
	ldr	r3, [r3, r2]
	add	r3, r3, #8
	str	r3, [r0]
	bl	_ZNSt3_V214error_categoryD2Ev(PLT)
	mov	r0, r4
	pop	{r4, pc}
.L45:
	.align	2
.L44:
	.word	_GLOBAL_OFFSET_TABLE_-(.LPIC10+8)
	.word	_ZTVN4asio6detail15system_categoryE(GOT)
	.cantunwind
	.fnend
	.size	_ZN4asio6detail15system_categoryD2Ev, .-_ZN4asio6detail15system_categoryD2Ev
	.weak	_ZN4asio6detail15system_categoryD1Ev
	.set	_ZN4asio6detail15system_categoryD1Ev,_ZN4asio6detail15system_categoryD2Ev
	.section	.text._ZN4asio6detail15system_categoryD0Ev,"axG",%progbits,_ZN4asio6detail15system_categoryD5Ev,comdat
	.align	2
	.weak	_ZN4asio6detail15system_categoryD0Ev
	.syntax unified
	.arm
	.fpu vfp
	.type	_ZN4asio6detail15system_categoryD0Ev, %function
_ZN4asio6detail15system_categoryD0Ev:
	.fnstart
.LFB9827:
	@ args = 0, pretend = 0, frame = 0
	@ frame_needed = 0, uses_anonymous_args = 0
	ldr	r3, .L48
	ldr	r2, .L48+4
.LPIC11:
	add	r3, pc, r3
	push	{r4, lr}
	mov	r4, r0
	ldr	r3, [r3, r2]
	add	r3, r3, #8
	str	r3, [r0]
	bl	_ZNSt3_V214error_categoryD2Ev(PLT)
	mov	r0, r4
	mov	r1, #4
	bl	_ZdlPvj(PLT)
	mov	r0, r4
	pop	{r4, pc}
.L49:
	.align	2
.L48:
	.word	_GLOBAL_OFFSET_TABLE_-(.LPIC11+8)
	.word	_ZTVN4asio6detail15system_categoryE(GOT)
	.cantunwind
	.fnend
	.size	_ZN4asio6detail15system_categoryD0Ev, .-_ZN4asio6detail15system_categoryD0Ev
	.section	.text._ZN4asio5error6detail14netdb_categoryD2Ev,"axG",%progbits,_ZN4asio5error6detail14netdb_categoryD5Ev,comdat
	.align	2
	.weak	_ZN4asio5error6detail14netdb_categoryD2Ev
	.syntax unified
	.arm
	.fpu vfp
	.type	_ZN4asio5error6detail14netdb_categoryD2Ev, %function
_ZN4asio5error6detail14netdb_categoryD2Ev:
	.fnstart
.LFB9821:
	@ args = 0, pretend = 0, frame = 0
	@ frame_needed = 0, uses_anonymous_args = 0
	ldr	r3, .L52
	ldr	r2, .L52+4
.LPIC12:
	add	r3, pc, r3
	push	{r4, lr}
	mov	r4, r0
	ldr	r3, [r3, r2]
	add	r3, r3, #8
	str	r3, [r0]
	bl	_ZNSt3_V214error_categoryD2Ev(PLT)
	mov	r0, r4
	pop	{r4, pc}
.L53:
	.align	2
.L52:
	.word	_GLOBAL_OFFSET_TABLE_-(.LPIC12+8)
	.word	_ZTVN4asio5error6detail14netdb_categoryE(GOT)
	.cantunwind
	.fnend
	.size	_ZN4asio5error6detail14netdb_categoryD2Ev, .-_ZN4asio5error6detail14netdb_categoryD2Ev
	.weak	_ZN4asio5error6detail14netdb_categoryD1Ev
	.set	_ZN4asio5error6detail14netdb_categoryD1Ev,_ZN4asio5error6detail14netdb_categoryD2Ev
	.section	.text._ZN4asio5error6detail14netdb_categoryD0Ev,"axG",%progbits,_ZN4asio5error6detail14netdb_categoryD5Ev,comdat
	.align	2
	.weak	_ZN4asio5error6detail14netdb_categoryD0Ev
	.syntax unified
	.arm
	.fpu vfp
	.type	_ZN4asio5error6detail14netdb_categoryD0Ev, %function
_ZN4asio5error6detail14netdb_categoryD0Ev:
	.fnstart
.LFB9823:
	@ args = 0, pretend = 0, frame = 0
	@ frame_needed = 0, uses_anonymous_args = 0
	ldr	r3, .L56
	ldr	r2, .L56+4
.LPIC13:
	add	r3, pc, r3
	push	{r4, lr}
	mov	r4, r0
	ldr	r3, [r3, r2]
	add	r3, r3, #8
	str	r3, [r0]
	bl	_ZNSt3_V214error_categoryD2Ev(PLT)
	mov	r0, r4
	mov	r1, #4
	bl	_ZdlPvj(PLT)
	mov	r0, r4
	pop	{r4, pc}
.L57:
	.align	2
.L56:
	.word	_GLOBAL_OFFSET_TABLE_-(.LPIC13+8)
	.word	_ZTVN4asio5error6detail14netdb_categoryE(GOT)
	.cantunwind
	.fnend
	.size	_ZN4asio5error6detail14netdb_categoryD0Ev, .-_ZN4asio5error6detail14netdb_categoryD0Ev
	.section	.text._ZN4asio5error6detail17addrinfo_categoryD2Ev,"axG",%progbits,_ZN4asio5error6detail17addrinfo_categoryD5Ev,comdat
	.align	2
	.weak	_ZN4asio5error6detail17addrinfo_categoryD2Ev
	.syntax unified
	.arm
	.fpu vfp
	.type	_ZN4asio5error6detail17addrinfo_categoryD2Ev, %function
_ZN4asio5error6detail17addrinfo_categoryD2Ev:
	.fnstart
.LFB9817:
	@ args = 0, pretend = 0, frame = 0
	@ frame_needed = 0, uses_anonymous_args = 0
	ldr	r3, .L60
	ldr	r2, .L60+4
.LPIC14:
	add	r3, pc, r3
	push	{r4, lr}
	mov	r4, r0
	ldr	r3, [r3, r2]
	add	r3, r3, #8
	str	r3, [r0]
	bl	_ZNSt3_V214error_categoryD2Ev(PLT)
	mov	r0, r4
	pop	{r4, pc}
.L61:
	.align	2
.L60:
	.word	_GLOBAL_OFFSET_TABLE_-(.LPIC14+8)
	.word	_ZTVN4asio5error6detail17addrinfo_categoryE(GOT)
	.cantunwind
	.fnend
	.size	_ZN4asio5error6detail17addrinfo_categoryD2Ev, .-_ZN4asio5error6detail17addrinfo_categoryD2Ev
	.weak	_ZN4asio5error6detail17addrinfo_categoryD1Ev
	.set	_ZN4asio5error6detail17addrinfo_categoryD1Ev,_ZN4asio5error6detail17addrinfo_categoryD2Ev
	.section	.text._ZN4asio5error6detail17addrinfo_categoryD0Ev,"axG",%progbits,_ZN4asio5error6detail17addrinfo_categoryD5Ev,comdat
	.align	2
	.weak	_ZN4asio5error6detail17addrinfo_categoryD0Ev
	.syntax unified
	.arm
	.fpu vfp
	.type	_ZN4asio5error6detail17addrinfo_categoryD0Ev, %function
_ZN4asio5error6detail17addrinfo_categoryD0Ev:
	.fnstart
.LFB9819:
	@ args = 0, pretend = 0, frame = 0
	@ frame_needed = 0, uses_anonymous_args = 0
	ldr	r3, .L64
	ldr	r2, .L64+4
.LPIC15:
	add	r3, pc, r3
	push	{r4, lr}
	mov	r4, r0
	ldr	r3, [r3, r2]
	add	r3, r3, #8
	str	r3, [r0]
	bl	_ZNSt3_V214error_categoryD2Ev(PLT)
	mov	r0, r4
	mov	r1, #4
	bl	_ZdlPvj(PLT)
	mov	r0, r4
	pop	{r4, pc}
.L65:
	.align	2
.L64:
	.word	_GLOBAL_OFFSET_TABLE_-(.LPIC15+8)
	.word	_ZTVN4asio5error6detail17addrinfo_categoryE(GOT)
	.cantunwind
	.fnend
	.size	_ZN4asio5error6detail17addrinfo_categoryD0Ev, .-_ZN4asio5error6detail17addrinfo_categoryD0Ev
	.section	.text._ZN4asio5error6detail13misc_categoryD2Ev,"axG",%progbits,_ZN4asio5error6detail13misc_categoryD5Ev,comdat
	.align	2
	.weak	_ZN4asio5error6detail13misc_categoryD2Ev
	.syntax unified
	.arm
	.fpu vfp
	.type	_ZN4asio5error6detail13misc_categoryD2Ev, %function
_ZN4asio5error6detail13misc_categoryD2Ev:
	.fnstart
.LFB9813:
	@ args = 0, pretend = 0, frame = 0
	@ frame_needed = 0, uses_anonymous_args = 0
	ldr	r3, .L68
	ldr	r2, .L68+4
.LPIC16:
	add	r3, pc, r3
	push	{r4, lr}
	mov	r4, r0
	ldr	r3, [r3, r2]
	add	r3, r3, #8
	str	r3, [r0]
	bl	_ZNSt3_V214error_categoryD2Ev(PLT)
	mov	r0, r4
	pop	{r4, pc}
.L69:
	.align	2
.L68:
	.word	_GLOBAL_OFFSET_TABLE_-(.LPIC16+8)
	.word	_ZTVN4asio5error6detail13misc_categoryE(GOT)
	.cantunwind
	.fnend
	.size	_ZN4asio5error6detail13misc_categoryD2Ev, .-_ZN4asio5error6detail13misc_categoryD2Ev
	.weak	_ZN4asio5error6detail13misc_categoryD1Ev
	.set	_ZN4asio5error6detail13misc_categoryD1Ev,_ZN4asio5error6detail13misc_categoryD2Ev
	.section	.text._ZN4asio5error6detail13misc_categoryD0Ev,"axG",%progbits,_ZN4asio5error6detail13misc_categoryD5Ev,comdat
	.align	2
	.weak	_ZN4asio5error6detail13misc_categoryD0Ev
	.syntax unified
	.arm
	.fpu vfp
	.type	_ZN4asio5error6detail13misc_categoryD0Ev, %function
_ZN4asio5error6detail13misc_categoryD0Ev:
	.fnstart
.LFB9815:
	@ args = 0, pretend = 0, frame = 0
	@ frame_needed = 0, uses_anonymous_args = 0
	ldr	r3, .L72
	ldr	r2, .L72+4
.LPIC17:
	add	r3, pc, r3
	push	{r4, lr}
	mov	r4, r0
	ldr	r3, [r3, r2]
	add	r3, r3, #8
	str	r3, [r0]
	bl	_ZNSt3_V214error_categoryD2Ev(PLT)
	mov	r0, r4
	mov	r1, #4
	bl	_ZdlPvj(PLT)
	mov	r0, r4
	pop	{r4, pc}
.L73:
	.align	2
.L72:
	.word	_GLOBAL_OFFSET_TABLE_-(.LPIC17+8)
	.word	_ZTVN4asio5error6detail13misc_categoryE(GOT)
	.cantunwind
	.fnend
	.size	_ZN4asio5error6detail13misc_categoryD0Ev, .-_ZN4asio5error6detail13misc_categoryD0Ev
	.section	.text._ZNK4asio6detail15system_category7messageB5cxx11Ei,"axG",%progbits,_ZNK4asio6detail15system_category7messageB5cxx11Ei,comdat
	.align	2
	.weak	_ZNK4asio6detail15system_category7messageB5cxx11Ei
	.syntax unified
	.arm
	.fpu vfp
	.type	_ZNK4asio6detail15system_category7messageB5cxx11Ei, %function
_ZNK4asio6detail15system_category7messageB5cxx11Ei:
	.fnstart
.LFB2670:
	@ args = 0, pretend = 0, frame = 264
	@ frame_needed = 0, uses_anonymous_args = 0
	cmp	r2, #125
	push	{r4, r5, r6, r7, r8, lr}
	.save {r4, r5, r6, r7, r8, lr}
	mov	r4, r0
	.pad #264
	sub	sp, sp, #264
	beq	.L85
	mov	r7, #0
	mov	r5, r2
	mov	r1, r7
	mov	r2, #252
	add	r0, sp, #12
	str	r7, [sp, #8]
	bl	memset(PLT)
	mov	r0, r5
	mov	r2, #256
	add	r1, sp, #8
	bl	strerror_r(PLT)
	add	r6, r4, #8
	str	r6, [r4]
	subs	r8, r0, #0
	beq	.L77
	bl	strlen(PLT)
	cmp	r0, #15
	mov	r5, r0
	str	r0, [sp, #4]
	bhi	.L86
	cmp	r0, #1
	beq	.L87
	cmp	r0, #0
	bne	.L88
.L81:
	mov	r3, #0
	str	r5, [r4, #4]
	mov	r0, r4
	strb	r3, [r6, r5]
	add	sp, sp, #264
	@ sp needed
	pop	{r4, r5, r6, r7, r8, pc}
.L86:
	mov	r2, r7
	add	r1, sp, #4
	mov	r0, r4
	bl	_ZNSt7__cxx1112basic_stringIcSt11char_traitsIcESaIcEE9_M_createERjj(PLT)
	ldr	r3, [sp, #4]
	str	r3, [r4, #8]
	str	r0, [r4]
.L79:
	mov	r2, r5
	mov	r1, r8
	bl	memcpy(PLT)
	ldr	r5, [sp, #4]
	ldr	r6, [r4]
	b	.L81
.L87:
	ldrb	r3, [r8]	@ zero_extendqisi2
	strb	r3, [r4, #8]
	b	.L81
.L85:
	add	r1, sp, #264
	add	r3, r0, #8
	mov	r2, #18
	str	r2, [r1, #-256]!
	str	r3, [r0]
	mov	r2, #0
	bl	_ZNSt7__cxx1112basic_stringIcSt11char_traitsIcESaIcEE9_M_createERjj(PLT)
	ldr	ip, .L89
	ldr	r6, [sp, #8]
.LPIC18:
	add	ip, pc, ip
	str	r6, [r4, #8]
	mov	r5, #0
	str	r0, [r4]
	mov	lr, r0
	ldmia	ip!, {r0, r1, r2, r3}
	ldrh	ip, [ip]	@ unaligned
	str	r0, [lr]	@ unaligned
	str	r1, [lr, #4]	@ unaligned
	strh	ip, [lr, #16]	@ unaligned
	str	r2, [lr, #8]	@ unaligned
	str	r3, [lr, #12]	@ unaligned
	ldr	r3, [sp, #8]
	ldr	r2, [r4]
	str	r3, [r4, #4]
	mov	r0, r4
	strb	r5, [r2, r3]
	add	sp, sp, #264
	@ sp needed
	pop	{r4, r5, r6, r7, r8, pc}
.L77:
	ldr	r0, .L89+4
.LPIC19:
	add	r0, pc, r0
	bl	_ZSt19__throw_logic_errorPKc(PLT)
.L88:
	mov	r0, r6
	b	.L79
.L90:
	.align	2
.L89:
	.word	.LC6-(.LPIC18+8)
	.word	.LC7-(.LPIC19+8)
	.fnend
	.size	_ZNK4asio6detail15system_category7messageB5cxx11Ei, .-_ZNK4asio6detail15system_category7messageB5cxx11Ei
	.section	.text._ZNK4asio5error6detail17addrinfo_category7messageB5cxx11Ei,"axG",%progbits,_ZNK4asio5error6detail17addrinfo_category7messageB5cxx11Ei,comdat
	.align	2
	.weak	_ZNK4asio5error6detail17addrinfo_category7messageB5cxx11Ei
	.syntax unified
	.arm
	.fpu vfp
	.type	_ZNK4asio5error6detail17addrinfo_category7messageB5cxx11Ei, %function
_ZNK4asio5error6detail17addrinfo_category7messageB5cxx11Ei:
	.fnstart
.LFB2697:
	@ args = 0, pretend = 0, frame = 8
	@ frame_needed = 0, uses_anonymous_args = 0
	push	{r4, r5, r6, lr}
	.save {r4, r5, r6, lr}
	cmn	r2, #8
	.pad #8
	sub	sp, sp, #8
	add	r1, sp, #8
	mov	r4, r0
	beq	.L96
	cmn	r2, #7
	beq	.L97
	add	r3, r0, #8
	mov	r2, #19
	str	r2, [r1, #-4]!
	str	r3, [r0]
	mov	r2, #0
	bl	_ZNSt7__cxx1112basic_stringIcSt11char_traitsIcESaIcEE9_M_createERjj(PLT)
	ldr	ip, .L98
	ldr	r6, [sp, #4]
.LPIC22:
	add	ip, pc, ip
	str	r6, [r4, #8]
	mov	r5, #0
	str	r0, [r4]
	mov	lr, r0
	ldmia	ip!, {r0, r1, r2, r3}
	ldrh	r6, [ip]	@ unaligned
	ldrb	ip, [ip, #2]	@ zero_extendqisi2
	str	r0, [lr]	@ unaligned
	str	r1, [lr, #4]	@ unaligned
	str	r2, [lr, #8]	@ unaligned
	str	r3, [lr, #12]	@ unaligned
	strh	r6, [lr, #16]	@ unaligned
	strb	ip, [lr, #18]
	ldr	r3, [sp, #4]
	ldr	r2, [r4]
	str	r3, [r4, #4]
	strb	r5, [r2, r3]
.L91:
	mov	r0, r4
	add	sp, sp, #8
	@ sp needed
	pop	{r4, r5, r6, pc}
.L97:
	add	r3, r0, #8
	mov	r2, #25
	str	r2, [r1, #-4]!
	str	r3, [r0]
	mov	r2, #0
	bl	_ZNSt7__cxx1112basic_stringIcSt11char_traitsIcESaIcEE9_M_createERjj(PLT)
	ldr	ip, .L98+4
	ldr	r6, [sp, #4]
.LPIC21:
	add	ip, pc, ip
	str	r6, [r4, #8]
	mov	r5, #0
	str	r0, [r4]
	mov	lr, r0
	ldmia	ip!, {r0, r1, r2, r3}
	str	r0, [lr]	@ unaligned
	str	r1, [lr, #4]	@ unaligned
	ldmia	ip!, {r0, r1}
	str	r3, [lr, #12]	@ unaligned
	str	r2, [lr, #8]	@ unaligned
	ldrb	r3, [ip]	@ zero_extendqisi2
	str	r0, [lr, #16]	@ unaligned
	str	r1, [lr, #20]	@ unaligned
	strb	r3, [lr, #24]
	ldr	r3, [sp, #4]
	ldr	r2, [r4]
	str	r3, [r4, #4]
	mov	r0, r4
	strb	r5, [r2, r3]
	add	sp, sp, #8
	@ sp needed
	pop	{r4, r5, r6, pc}
.L96:
	add	r3, r0, #8
	mov	r2, #17
	str	r2, [r1, #-4]!
	str	r3, [r0]
	mov	r2, #0
	bl	_ZNSt7__cxx1112basic_stringIcSt11char_traitsIcESaIcEE9_M_createERjj(PLT)
	ldr	ip, .L98+8
	ldr	r6, [sp, #4]
.LPIC20:
	add	ip, pc, ip
	str	r6, [r4, #8]
	mov	r5, #0
	str	r0, [r4]
	mov	lr, r0
	ldmia	ip!, {r0, r1, r2, r3}
	ldrb	ip, [ip]	@ zero_extendqisi2
	str	r0, [lr]	@ unaligned
	str	r1, [lr, #4]	@ unaligned
	strb	ip, [lr, #16]
	str	r2, [lr, #8]	@ unaligned
	str	r3, [lr, #12]	@ unaligned
	ldr	r3, [sp, #4]
	ldr	r2, [r4]
	str	r3, [r4, #4]
	strb	r5, [r2, r3]
	b	.L91
.L99:
	.align	2
.L98:
	.word	.LC10-(.LPIC22+8)
	.word	.LC9-(.LPIC21+8)
	.word	.LC8-(.LPIC20+8)
	.fnend
	.size	_ZNK4asio5error6detail17addrinfo_category7messageB5cxx11Ei, .-_ZNK4asio5error6detail17addrinfo_category7messageB5cxx11Ei
	.section	.text._ZNK4asio5error6detail13misc_category7messageB5cxx11Ei,"axG",%progbits,_ZNK4asio5error6detail13misc_category7messageB5cxx11Ei,comdat
	.align	2
	.weak	_ZNK4asio5error6detail13misc_category7messageB5cxx11Ei
	.syntax unified
	.arm
	.fpu vfp
	.type	_ZNK4asio5error6detail13misc_category7messageB5cxx11Ei, %function
_ZNK4asio5error6detail13misc_category7messageB5cxx11Ei:
	.fnstart
.LFB2703:
	@ args = 0, pretend = 0, frame = 8
	@ frame_needed = 0, uses_anonymous_args = 0
	cmp	r2, #1
	push	{r4, r5, r6, lr}
	.save {r4, r5, r6, lr}
	mov	r4, r0
	.pad #8
	sub	sp, sp, #8
	beq	.L109
	cmp	r2, #2
	beq	.L110
	cmp	r2, #3
	beq	.L111
	cmp	r2, #4
	beq	.L112
	ldr	ip, .L113
	add	r3, r0, #8
.LPIC27:
	add	ip, pc, ip
	mov	r5, #15
	ldmia	ip!, {r0, r1, r2}
	mov	lr, #0
	str	r3, [r4]
	str	r5, [r4, #4]
	ldrh	r6, [ip]	@ unaligned
	ldrb	ip, [ip, #2]	@ zero_extendqisi2
	str	r0, [r4, #8]	@ unaligned
	str	r1, [r4, #12]	@ unaligned
	str	r2, [r4, #16]	@ unaligned
	strh	r6, [r4, #20]	@ unaligned
	strb	ip, [r4, #22]
	strb	lr, [r4, #23]
.L100:
	mov	r0, r4
	add	sp, sp, #8
	@ sp needed
	pop	{r4, r5, r6, pc}
.L112:
	add	r1, sp, #8
	add	r3, r0, #8
	mov	r2, #57
	str	r2, [r1, #-4]!
	str	r3, [r0]
	mov	r2, #0
	bl	_ZNSt7__cxx1112basic_stringIcSt11char_traitsIcESaIcEE9_M_createERjj(PLT)
	ldr	r5, .L113+4
	ldr	r3, [sp, #4]
.LPIC26:
	add	r5, pc, r5
	add	r6, r5, #48
	str	r3, [r4, #8]
	mov	lr, r0
	str	r0, [r4]
.L106:
	mov	ip, r5
	add	lr, lr, #16
	ldmia	ip!, {r0, r1, r2, r3}
	add	r5, r5, #16
	cmp	ip, r6
	str	r0, [lr, #-16]	@ unaligned
	str	r1, [lr, #-12]	@ unaligned
	str	r2, [lr, #-8]	@ unaligned
	str	r3, [lr, #-4]	@ unaligned
	bne	.L106
	ldmia	r5!, {r0, r1}
	mov	ip, #0
	ldrb	r3, [r5]	@ zero_extendqisi2
	str	r0, [lr]	@ unaligned
	str	r1, [lr, #4]	@ unaligned
	strb	r3, [lr, #8]
	ldr	r3, [sp, #4]
	ldr	r2, [r4]
	str	r3, [r4, #4]
	strb	ip, [r2, r3]
	b	.L100
.L109:
	ldr	ip, .L113+8
	add	r3, r0, #8
.LPIC23:
	add	ip, pc, ip
	mov	lr, #12
	ldmia	ip!, {r0, r1, r2}
	mov	ip, #0
	str	r3, [r4]
	str	lr, [r4, #4]
	str	r0, [r4, #8]	@ unaligned
	str	r1, [r4, #12]	@ unaligned
	str	r2, [r4, #16]	@ unaligned
	strb	ip, [r4, #20]
	b	.L100
.L110:
	ldr	r2, .L113+12
	add	r3, r0, #8
.LPIC24:
	add	r2, pc, r2
	mov	lr, #11
	ldmia	r2!, {r0, r1}
	mov	ip, #0
	str	r3, [r4]
	ldrh	r5, [r2]	@ unaligned
	ldrb	r2, [r2, #2]	@ zero_extendqisi2
	str	r0, [r4, #8]	@ unaligned
	str	r1, [r4, #12]	@ unaligned
	strh	r5, [r4, #16]	@ unaligned
	strb	r2, [r4, #18]
	str	lr, [r4, #4]
	strb	ip, [r4, #19]
	b	.L100
.L111:
	add	r1, sp, #8
	add	r3, r0, #8
	mov	r2, #17
	str	r2, [r1, #-4]!
	str	r3, [r0]
	mov	r2, #0
	bl	_ZNSt7__cxx1112basic_stringIcSt11char_traitsIcESaIcEE9_M_createERjj(PLT)
	ldr	ip, .L113+16
	ldr	r6, [sp, #4]
.LPIC25:
	add	ip, pc, ip
	str	r6, [r4, #8]
	mov	r5, #0
	str	r0, [r4]
	mov	lr, r0
	ldmia	ip!, {r0, r1, r2, r3}
	ldrb	ip, [ip]	@ zero_extendqisi2
	str	r0, [lr]	@ unaligned
	str	r1, [lr, #4]	@ unaligned
	strb	ip, [lr, #16]
	str	r2, [lr, #8]	@ unaligned
	str	r3, [lr, #12]	@ unaligned
	ldr	r3, [sp, #4]
	ldr	r2, [r4]
	str	r3, [r4, #4]
	strb	r5, [r2, r3]
	b	.L100
.L114:
	.align	2
.L113:
	.word	.LC15-(.LPIC27+8)
	.word	.LC14-(.LPIC26+8)
	.word	.LC11-(.LPIC23+8)
	.word	.LC12-(.LPIC24+8)
	.word	.LC13-(.LPIC25+8)
	.fnend
	.size	_ZNK4asio5error6detail13misc_category7messageB5cxx11Ei, .-_ZNK4asio5error6detail13misc_category7messageB5cxx11Ei
	.section	.text._ZNK4asio5error6detail14netdb_category7messageB5cxx11Ei,"axG",%progbits,_ZNK4asio5error6detail14netdb_category7messageB5cxx11Ei,comdat
	.align	2
	.weak	_ZNK4asio5error6detail14netdb_category7messageB5cxx11Ei
	.syntax unified
	.arm
	.fpu vfp
	.type	_ZNK4asio5error6detail14netdb_category7messageB5cxx11Ei, %function
_ZNK4asio5error6detail14netdb_category7messageB5cxx11Ei:
	.fnstart
.LFB2691:
	@ args = 0, pretend = 0, frame = 8
	@ frame_needed = 0, uses_anonymous_args = 0
	push	{r4, r5, r6, lr}
	.save {r4, r5, r6, lr}
	cmp	r2, #1
	.pad #8
	sub	sp, sp, #8
	add	r1, sp, #8
	mov	r4, r0
	beq	.L128
	cmp	r2, #2
	beq	.L129
	cmp	r2, #4
	beq	.L130
	cmp	r2, #3
	beq	.L131
	add	r3, r0, #8
	mov	r2, #16
	str	r2, [r1, #-4]!
	str	r3, [r0]
	mov	r2, #0
	bl	_ZNSt7__cxx1112basic_stringIcSt11char_traitsIcESaIcEE9_M_createERjj(PLT)
	ldr	ip, .L132
	ldr	r5, [sp, #4]
.LPIC32:
	add	ip, pc, ip
	str	r5, [r4, #8]
	str	r0, [r4]
	mov	lr, r0
	ldmia	ip!, {r0, r1, r2, r3}
	mov	ip, #0
	str	r0, [lr]	@ unaligned
	str	r1, [lr, #4]	@ unaligned
	str	r2, [lr, #8]	@ unaligned
	str	r3, [lr, #12]	@ unaligned
	ldr	r3, [sp, #4]
	ldr	r2, [r4]
	str	r3, [r4, #4]
	strb	ip, [r2, r3]
.L115:
	mov	r0, r4
	add	sp, sp, #8
	@ sp needed
	pop	{r4, r5, r6, pc}
.L131:
	add	r3, r0, #8
	mov	r2, #55
	str	r2, [r1, #-4]!
	str	r3, [r0]
	mov	r2, #0
	bl	_ZNSt7__cxx1112basic_stringIcSt11char_traitsIcESaIcEE9_M_createERjj(PLT)
	ldr	r5, .L132+4
	ldr	r3, [sp, #4]
.LPIC31:
	add	r5, pc, r5
	add	r6, r5, #48
	str	r3, [r4, #8]
	mov	lr, r0
	str	r0, [r4]
.L123:
	mov	ip, r5
	add	lr, lr, #16
	ldmia	ip!, {r0, r1, r2, r3}
	add	r5, r5, #16
	cmp	ip, r6
	str	r0, [lr, #-16]	@ unaligned
	str	r1, [lr, #-12]	@ unaligned
	str	r2, [lr, #-8]	@ unaligned
	str	r3, [lr, #-4]	@ unaligned
	bne	.L123
	ldrh	r2, [r5, #4]	@ unaligned
	ldrb	r3, [r5, #6]	@ zero_extendqisi2
	ldr	r0, [r5]
	strh	r2, [lr, #4]	@ unaligned
	strb	r3, [lr, #6]
	str	r0, [lr]	@ unaligned
	ldr	r3, [sp, #4]
	ldr	r2, [r4]
	mov	r1, #0
	str	r3, [r4, #4]
	strb	r1, [r2, r3]
	b	.L115
.L128:
	add	r3, r0, #8
	mov	r2, #30
	str	r2, [r1, #-4]!
	str	r3, [r0]
	mov	r2, #0
	bl	_ZNSt7__cxx1112basic_stringIcSt11char_traitsIcESaIcEE9_M_createERjj(PLT)
	ldr	ip, .L132+8
	ldr	r6, [sp, #4]
.LPIC28:
	add	ip, pc, ip
	str	r6, [r4, #8]
	mov	r5, #0
	str	r0, [r4]
	mov	lr, r0
	ldmia	ip!, {r0, r1, r2, r3}
	str	r0, [lr]	@ unaligned
	str	r1, [lr, #4]	@ unaligned
	str	r2, [lr, #8]	@ unaligned
	ldmia	ip!, {r0, r1, r2}
	str	r3, [lr, #12]	@ unaligned
	ldrh	r3, [ip]	@ unaligned
	str	r0, [lr, #16]	@ unaligned
	str	r1, [lr, #20]	@ unaligned
	strh	r3, [lr, #28]	@ unaligned
	str	r2, [lr, #24]	@ unaligned
	ldr	r3, [sp, #4]
	ldr	r2, [r4]
	str	r3, [r4, #4]
	strb	r5, [r2, r3]
	b	.L115
.L129:
	add	r3, r0, #8
	mov	r2, #51
	str	r2, [r1, #-4]!
	str	r3, [r0]
	mov	r2, #0
	bl	_ZNSt7__cxx1112basic_stringIcSt11char_traitsIcESaIcEE9_M_createERjj(PLT)
	ldr	r5, .L132+12
	ldr	r3, [sp, #4]
.LPIC29:
	add	r5, pc, r5
	add	r6, r5, #48
	str	r3, [r4, #8]
	mov	lr, r0
	str	r0, [r4]
.L119:
	mov	ip, r5
	add	lr, lr, #16
	ldmia	ip!, {r0, r1, r2, r3}
	add	r5, r5, #16
	cmp	ip, r6
	str	r0, [lr, #-16]	@ unaligned
	str	r1, [lr, #-12]	@ unaligned
	str	r2, [lr, #-8]	@ unaligned
	str	r3, [lr, #-4]	@ unaligned
	bne	.L119
	ldrh	r2, [r5]	@ unaligned
	ldrb	r3, [r5, #2]	@ zero_extendqisi2
	mov	r1, #0
	strh	r2, [lr]	@ unaligned
	strb	r3, [lr, #2]
	ldr	r3, [sp, #4]
	ldr	r2, [r4]
	str	r3, [r4, #4]
	strb	r1, [r2, r3]
	b	.L115
.L130:
	add	r3, r0, #8
	mov	r2, #56
	str	r2, [r1, #-4]!
	str	r3, [r0]
	mov	r2, #0
	bl	_ZNSt7__cxx1112basic_stringIcSt11char_traitsIcESaIcEE9_M_createERjj(PLT)
	ldr	r5, .L132+16
	ldr	r3, [sp, #4]
.LPIC30:
	add	r5, pc, r5
	add	r6, r5, #48
	str	r3, [r4, #8]
	mov	lr, r0
	str	r0, [r4]
.L121:
	mov	ip, r5
	add	lr, lr, #16
	ldmia	ip!, {r0, r1, r2, r3}
	add	r5, r5, #16
	cmp	ip, r6
	str	r0, [lr, #-16]	@ unaligned
	str	r1, [lr, #-12]	@ unaligned
	str	r2, [lr, #-8]	@ unaligned
	str	r3, [lr, #-4]	@ unaligned
	bne	.L121
	ldmia	r5!, {r0, r1}
	mov	ip, #0
	str	r0, [lr]	@ unaligned
	str	r1, [lr, #4]	@ unaligned
	ldr	r3, [sp, #4]
	ldr	r2, [r4]
	str	r3, [r4, #4]
	strb	ip, [r2, r3]
	b	.L115
.L133:
	.align	2
.L132:
	.word	.LC20-(.LPIC32+8)
	.word	.LC19-(.LPIC31+8)
	.word	.LC16-(.LPIC28+8)
	.word	.LC17-(.LPIC29+8)
	.word	.LC18-(.LPIC30+8)
	.fnend
	.size	_ZNK4asio5error6detail14netdb_category7messageB5cxx11Ei, .-_ZNK4asio5error6detail14netdb_category7messageB5cxx11Ei
	.section	.text._ZN9__gnu_cxx13__scoped_lockD2Ev,"axG",%progbits,_ZN9__gnu_cxx13__scoped_lockD5Ev,comdat
	.align	2
	.weak	_ZN9__gnu_cxx13__scoped_lockD2Ev
	.syntax unified
	.arm
	.fpu vfp
	.type	_ZN9__gnu_cxx13__scoped_lockD2Ev, %function
_ZN9__gnu_cxx13__scoped_lockD2Ev:
	.fnstart
.LFB640:
	@ args = 0, pretend = 0, frame = 0
	@ frame_needed = 0, uses_anonymous_args = 0
	push	{r4, r5, r6, lr}
	.save {r4, r5, r6, lr}
	mov	r5, r0
	ldr	r4, .L148
	ldr	r3, .L148+4
.LPIC33:
	add	r4, pc, r4
	ldr	r3, [r4, r3]
	cmp	r3, #0
	beq	.L141
	ldr	r0, [r0]
	bl	_ZL28__gthrw_pthread_mutex_unlockP15pthread_mutex_t(PLT)
	cmp	r0, #0
	bne	.L147
.L141:
	mov	r0, r5
	pop	{r4, r5, r6, pc}
.L147:
	mov	r0, #4
	bl	__cxa_allocate_exception(PLT)
	ldr	r1, .L148+8
	ldr	r2, .L148+12
	ldr	r3, .L148+16
	ldr	r1, [r4, r1]
	add	r1, r1, #8
	str	r1, [r0]
	ldr	r2, [r4, r2]
	ldr	r1, [r4, r3]
.LEHB0:
	bl	__cxa_throw(PLT)
.LEHE0:
.L138:
	cmn	r1, #1
	beq	.L137
.LEHB1:
	bl	__cxa_end_cleanup(PLT)
.L137:
	bl	__cxa_call_unexpected(PLT)
.LEHE1:
.L149:
	.align	2
.L148:
	.word	_GLOBAL_OFFSET_TABLE_-(.LPIC33+8)
	.word	_ZL28__gthrw___pthread_key_createPjPFvPvE(GOT)
	.word	_ZTVN9__gnu_cxx26__concurrence_unlock_errorE(GOT)
	.word	_ZN9__gnu_cxx26__concurrence_unlock_errorD1Ev(GOT)
	.word	_ZTIN9__gnu_cxx26__concurrence_unlock_errorE(GOT)
	.global	__gxx_personality_v0
	.personality	__gxx_personality_v0
	.handlerdata
	.align	2
.LLSDA640:
	.byte	0xff
	.byte	0x90
	.uleb128 .LLSDATT640-.LLSDATTD640
.LLSDATTD640:
	.byte	0x1
	.uleb128 .LLSDACSE640-.LLSDACSB640
.LLSDACSB640:
	.uleb128 .LEHB0-.LFB640
	.uleb128 .LEHE0-.LEHB0
	.uleb128 .L138-.LFB640
	.uleb128 0x1
	.uleb128 .LEHB1-.LFB640
	.uleb128 .LEHE1-.LEHB1
	.uleb128 0
	.uleb128 0
.LLSDACSE640:
	.byte	0x7f
	.byte	0
	.align	2
.LLSDATT640:
	.word	0
	.section	.text._ZN9__gnu_cxx13__scoped_lockD2Ev,"axG",%progbits,_ZN9__gnu_cxx13__scoped_lockD5Ev,comdat
	.fnend
	.size	_ZN9__gnu_cxx13__scoped_lockD2Ev, .-_ZN9__gnu_cxx13__scoped_lockD2Ev
	.weak	_ZN9__gnu_cxx13__scoped_lockD1Ev
	.set	_ZN9__gnu_cxx13__scoped_lockD1Ev,_ZN9__gnu_cxx13__scoped_lockD2Ev
	.section	.text._ZSt20__throw_bad_weak_ptrv,"axG",%progbits,_ZSt20__throw_bad_weak_ptrv,comdat
	.align	2
	.weak	_ZSt20__throw_bad_weak_ptrv
	.syntax unified
	.arm
	.fpu vfp
	.type	_ZSt20__throw_bad_weak_ptrv, %function
_ZSt20__throw_bad_weak_ptrv:
	.fnstart
.LFB1592:
	@ args = 0, pretend = 0, frame = 0
	@ frame_needed = 0, uses_anonymous_args = 0
	push	{r4, lr}
	.save {r4, lr}
	mov	r0, #4
	bl	__cxa_allocate_exception(PLT)
	ldr	r3, .L152
	ldr	ip, .L152+4
.LPIC34:
	add	r3, pc, r3
	ldr	r2, .L152+8
	ldr	ip, [r3, ip]
	ldr	r1, .L152+12
	add	ip, ip, #8
	str	ip, [r0]
	ldr	r2, [r3, r2]
	ldr	r1, [r3, r1]
	bl	__cxa_throw(PLT)
.L153:
	.align	2
.L152:
	.word	_GLOBAL_OFFSET_TABLE_-(.LPIC34+8)
	.word	_ZTVSt12bad_weak_ptr(GOT)
	.word	_ZNSt12bad_weak_ptrD1Ev(GOT)
	.word	_ZTISt12bad_weak_ptr(GOT)
	.fnend
	.size	_ZSt20__throw_bad_weak_ptrv, .-_ZSt20__throw_bad_weak_ptrv
	.section	.text._ZN7openpal6LoggerD2Ev,"axG",%progbits,_ZN7openpal6LoggerD5Ev,comdat
	.align	2
	.weak	_ZN7openpal6LoggerD2Ev
	.syntax unified
	.arm
	.fpu vfp
	.type	_ZN7openpal6LoggerD2Ev, %function
_ZN7openpal6LoggerD2Ev:
	.fnstart
.LFB2006:
	@ args = 0, pretend = 0, frame = 0
	@ frame_needed = 0, uses_anonymous_args = 0
	push	{r4, r5, r6, lr}
	mov	r4, r0
	ldr	r5, [r0, #12]
	ldr	r6, .L181
	cmp	r5, #0
.LPIC35:
	add	r6, pc, r6
	beq	.L156
	ldr	r3, .L181+4
	ldr	r3, [r6, r3]
	cmp	r3, #0
	beq	.L157
	add	r3, r5, #28
	mcr	p15, 0, r0, c7, c10, 5
.L173:
	ldrex	r2, [r3]
	sub	r1, r2, #1
	strex	r0, r1, [r3]
	cmp	r0, #0
	bne	.L173
	cmp	r2, #1
	mcr	p15, 0, r0, c7, c10, 5
	beq	.L179
.L156:
	ldr	r5, [r4, #4]
	cmp	r5, #0
	beq	.L169
	ldr	r3, .L181+4
	ldr	r3, [r6, r3]
	cmp	r3, #0
	beq	.L163
	add	r3, r5, #28
	mcr	p15, 0, r0, c7, c10, 5
.L172:
	ldrex	r2, [r3]
	sub	r1, r2, #1
	strex	r0, r1, [r3]
	cmp	r0, #0
	bne	.L172
	cmp	r2, #1
	mcr	p15, 0, r0, c7, c10, 5
	beq	.L180
.L169:
	mov	r0, r4
	pop	{r4, r5, r6, pc}
.L157:
	ldr	r3, [r5, #28]
	cmp	r3, #1
	sub	r3, r3, #1
	str	r3, [r5, #28]
	bne	.L156
	ldr	r3, [r5]
	mov	r0, r5
	ldr	r3, [r3, #8]
	blx	r3
	mcr	p15, 0, r0, c7, c10, 5
	ldr	r2, [r5, #32]
	sub	r3, r2, #1
	str	r3, [r5, #32]
	b	.L167
.L163:
	ldr	r3, [r5, #28]
	cmp	r3, #1
	sub	r3, r3, #1
	str	r3, [r5, #28]
	bne	.L169
	ldr	r3, [r5]
	mov	r0, r5
	ldr	r3, [r3, #8]
	blx	r3
	mcr	p15, 0, r0, c7, c10, 5
	ldr	r2, [r5, #32]
	sub	r3, r2, #1
	str	r3, [r5, #32]
	b	.L168
.L180:
	ldr	r3, [r5]
	mov	r0, r5
	ldr	r3, [r3, #8]
	blx	r3
	add	r3, r5, #32
	mcr	p15, 0, r0, c7, c10, 5
	mcr	p15, 0, r0, c7, c10, 5
.L170:
	ldrex	r2, [r3]
	sub	r1, r2, #1
	strex	r0, r1, [r3]
	cmp	r0, #0
	bne	.L170
	mcr	p15, 0, r0, c7, c10, 5
.L168:
	cmp	r2, #1
	bne	.L169
	ldr	r3, [r5]
	mov	r0, r5
	ldr	r3, [r3, #12]
	blx	r3
	b	.L169
.L179:
	ldr	r3, [r5]
	mov	r0, r5
	ldr	r3, [r3, #8]
	blx	r3
	add	r3, r5, #32
	mcr	p15, 0, r0, c7, c10, 5
	mcr	p15, 0, r0, c7, c10, 5
.L171:
	ldrex	r2, [r3]
	sub	r1, r2, #1
	strex	r0, r1, [r3]
	cmp	r0, #0
	bne	.L171
	mcr	p15, 0, r0, c7, c10, 5
.L167:
	cmp	r2, #1
	bne	.L156
	ldr	r3, [r5]
	mov	r0, r5
	ldr	r3, [r3, #12]
	blx	r3
	b	.L156
.L182:
	.align	2
.L181:
	.word	_GLOBAL_OFFSET_TABLE_-(.LPIC35+8)
	.word	_ZL28__gthrw___pthread_key_createPjPFvPvE(GOT)
	.cantunwind
	.fnend
	.size	_ZN7openpal6LoggerD2Ev, .-_ZN7openpal6LoggerD2Ev
	.weak	_ZN7openpal6LoggerD1Ev
	.set	_ZN7openpal6LoggerD1Ev,_ZN7openpal6LoggerD2Ev
	.section	.text._ZNSt12system_errorC2ESt10error_codePKc,"axG",%progbits,_ZNSt12system_errorC5ESt10error_codePKc,comdat
	.align	2
	.weak	_ZNSt12system_errorC2ESt10error_codePKc
	.syntax unified
	.arm
	.fpu vfp
	.type	_ZNSt12system_errorC2ESt10error_codePKc, %function
_ZNSt12system_errorC2ESt10error_codePKc:
	.fnstart
.LFB2630:
	@ args = 0, pretend = 0, frame = 80
	@ frame_needed = 0, uses_anonymous_args = 0
	push	{r4, r5, r6, r7, r8, r9, r10, fp, lr}
	.save {r4, r5, r6, r7, r8, r9, r10, fp, lr}
	.pad #92
	sub	sp, sp, #92
	add	r4, sp, #8
	add	r8, sp, #64
	stm	r4, {r1, r2}
	ldr	r2, [sp, #12]
	mov	r5, r0
	mov	r1, r2
	ldr	ip, [r2]
	mov	r0, r8
	ldr	r2, [sp, #8]
	ldr	r6, [ip, #16]
	mov	r7, r3
.LEHB2:
	blx	r6
.LEHE2:
	mov	r3, #2
	str	r3, [sp]
	ldr	r3, .L202
	mov	r2, #0
	ldr	r9, .L202+4
	mov	r0, r8
	mov	r1, r2
.LPIC36:
	add	r3, pc, r3
.LPIC37:
	add	r9, pc, r9
.LEHB3:
	bl	_ZNSt7__cxx1112basic_stringIcSt11char_traitsIcESaIcEE10_M_replaceEjjPKcj(PLT)
.LEHE3:
	mov	lr, r0
	add	r6, sp, #48
	str	r6, [sp, #40]
	ldr	r3, [lr], #8
	mov	ip, r0
	cmp	r3, lr
	moveq	r10, r6
	ldreq	r0, [lr]	@ unaligned
	ldreq	r1, [lr, #4]	@ unaligned
	ldreq	r2, [lr, #8]	@ unaligned
	ldreq	r3, [lr, #12]	@ unaligned
	ldrne	r2, [ip, #8]
	strne	r3, [sp, #40]
	stmiaeq	r10!, {r0, r1, r2, r3}
	mov	fp, #0
	strne	r2, [sp, #48]
	ldr	r3, [ip, #4]
	strb	fp, [ip, #8]
	str	r3, [sp, #44]
	mov	r0, r7
	str	lr, [ip]
	str	fp, [ip, #4]
	bl	strlen(PLT)
	add	r10, sp, #40
	mov	r3, r7
	mov	r2, fp
	mov	r1, fp
	str	r0, [sp]
	mov	r0, r10
.LEHB4:
	bl	_ZNSt7__cxx1112basic_stringIcSt11char_traitsIcESaIcEE10_M_replaceEjjPKcj(PLT)
.LEHE4:
	mov	lr, r0
	add	r7, sp, #24
	str	r7, [sp, #16]
	ldr	r3, [lr], #8
	mov	ip, r0
	cmp	r3, lr
	moveq	fp, r7
	ldreq	r0, [lr]	@ unaligned
	ldreq	r1, [lr, #4]	@ unaligned
	ldreq	r2, [lr, #8]	@ unaligned
	ldreq	r3, [lr, #12]	@ unaligned
	ldrne	r2, [ip, #8]
	strne	r3, [sp, #16]
	stmiaeq	fp!, {r0, r1, r2, r3}
	mov	r3, #0
	strne	r2, [sp, #24]
	ldr	r2, [ip, #4]
	add	fp, sp, #16
	str	r2, [sp, #20]
	strb	r3, [ip, #8]
	str	lr, [ip]
	str	r3, [ip, #4]
	mov	r1, fp
	mov	r0, r5
.LEHB5:
	bl	_ZNSt13runtime_errorC2ERKNSt7__cxx1112basic_stringIcSt11char_traitsIcESaIcEEE(PLT)
.LEHE5:
	ldr	r0, [sp, #16]
	cmp	r0, r7
	beq	.L188
	bl	_ZdlPv(PLT)
.L188:
	ldr	r0, [sp, #40]
	cmp	r0, r6
	beq	.L189
	bl	_ZdlPv(PLT)
.L189:
	ldr	r0, [sp, #64]
	add	r3, sp, #72
	cmp	r0, r3
	beq	.L190
	bl	_ZdlPv(PLT)
.L190:
	ldr	r2, .L202+8
	ldm	r4, {r0, r1}
	mov	r3, r5
	ldr	r2, [r9, r2]
	add	r2, r2, #8
	str	r2, [r3], #8
	stm	r3, {r0, r1}
	mov	r0, r5
	add	sp, sp, #92
	@ sp needed
	pop	{r4, r5, r6, r7, r8, r9, r10, fp, pc}
.L197:
.L195:
	ldr	r0, [sp, #64]
	add	r8, r8, #8
	cmp	r0, r8
	beq	.L196
	bl	_ZdlPv(PLT)
.L196:
.LEHB6:
	bl	__cxa_end_cleanup(PLT)
.LEHE6:
.L199:
	ldr	r0, [sp, #16]
	add	fp, fp, #8
	cmp	r0, fp
	beq	.L193
	bl	_ZdlPv(PLT)
.L193:
	ldr	r0, [sp, #40]
	add	r10, r10, #8
	cmp	r0, r10
	beq	.L195
	bl	_ZdlPv(PLT)
	b	.L195
.L198:
	b	.L193
.L203:
	.align	2
.L202:
	.word	.LC21-(.LPIC36+8)
	.word	_GLOBAL_OFFSET_TABLE_-(.LPIC37+8)
	.word	_ZTVSt12system_error(GOT)
	.personality	__gxx_personality_v0
	.handlerdata
.LLSDA2630:
	.byte	0xff
	.byte	0xff
	.byte	0x1
	.uleb128 .LLSDACSE2630-.LLSDACSB2630
.LLSDACSB2630:
	.uleb128 .LEHB2-.LFB2630
	.uleb128 .LEHE2-.LEHB2
	.uleb128 0
	.uleb128 0
	.uleb128 .LEHB3-.LFB2630
	.uleb128 .LEHE3-.LEHB3
	.uleb128 .L197-.LFB2630
	.uleb128 0
	.uleb128 .LEHB4-.LFB2630
	.uleb128 .LEHE4-.LEHB4
	.uleb128 .L198-.LFB2630
	.uleb128 0
	.uleb128 .LEHB5-.LFB2630
	.uleb128 .LEHE5-.LEHB5
	.uleb128 .L199-.LFB2630
	.uleb128 0
	.uleb128 .LEHB6-.LFB2630
	.uleb128 .LEHE6-.LEHB6
	.uleb128 0
	.uleb128 0
.LLSDACSE2630:
	.section	.text._ZNSt12system_errorC2ESt10error_codePKc,"axG",%progbits,_ZNSt12system_errorC5ESt10error_codePKc,comdat
	.fnend
	.size	_ZNSt12system_errorC2ESt10error_codePKc, .-_ZNSt12system_errorC2ESt10error_codePKc
	.weak	_ZNSt12system_errorC1ESt10error_codePKc
	.set	_ZNSt12system_errorC1ESt10error_codePKc,_ZNSt12system_errorC2ESt10error_codePKc
	.section	.text._ZN4asio6detail20posix_tss_ptr_createERj,"axG",%progbits,_ZN4asio6detail20posix_tss_ptr_createERj,comdat
	.align	2
	.weak	_ZN4asio6detail20posix_tss_ptr_createERj
	.syntax unified
	.arm
	.fpu vfp
	.type	_ZN4asio6detail20posix_tss_ptr_createERj, %function
_ZN4asio6detail20posix_tss_ptr_createERj:
	.fnstart
.LFB2708:
	@ args = 0, pretend = 0, frame = 24
	@ frame_needed = 0, uses_anonymous_args = 0
	push	{r4, r5, r6, lr}
	.save {r4, r5, r6, lr}
	mov	r1, #0
	.pad #24
	sub	sp, sp, #24
	bl	pthread_key_create(PLT)
	ldr	r4, .L218
	ldr	r3, .L218+4
.LPIC38:
	add	r4, pc, r4
	ldr	r6, [r4, r3]
	ldrb	r3, [r6]	@ zero_extendqisi2
	mcr	p15, 0, r0, c7, c10, 5
	tst	r3, #1
	mov	r5, r0
	beq	.L216
.L215:
	ldr	r3, .L218+8
	ldr	r6, [r4, r3]
.L206:
	cmp	r5, #0
	stm	sp, {r5, r6}
	bne	.L217
	add	sp, sp, #24
	@ sp needed
	pop	{r4, r5, r6, pc}
.L216:
	mov	r0, r6
	bl	__cxa_guard_acquire(PLT)
	cmp	r0, #0
	beq	.L215
	mov	r0, r6
	bl	__cxa_guard_release(PLT)
	ldr	r3, .L218+8
	ldr	r1, .L218+12
	ldr	r2, .L218+16
	ldr	r6, [r4, r3]
.LPIC39:
	add	r2, pc, r2
	ldr	r1, [r4, r1]
	mov	r0, r6
	bl	__aeabi_atexit(PLT)
	b	.L206
.L217:
	ldr	r3, .L218+20
	add	r5, sp, #8
	ldm	sp, {r1, r2}
.LPIC40:
	add	r3, pc, r3
	mov	r0, r5
.LEHB7:
	bl	_ZNSt12system_errorC1ESt10error_codePKc(PLT)
.LEHE7:
	mov	r0, #16
	bl	__cxa_allocate_exception(PLT)
	mov	r1, r5
	mov	r6, r0
	bl	_ZNSt13runtime_errorC2ERKS_(PLT)
	ldr	r3, .L218+24
	add	r2, sp, #24
	ldr	ip, .L218+28
	ldmdb	r2, {r0, r1}
	ldr	lr, [r4, r3]
	ldr	r2, .L218+32
	mov	r3, r6
	add	lr, lr, #8
	str	lr, [r3], #8
	stm	r3, {r0, r1}
	mov	r0, r6
	ldr	r2, [r4, r2]
	ldr	r1, [r4, ip]
.LEHB8:
	bl	__cxa_throw(PLT)
.LEHE8:
.L210:
	mov	r0, r5
	bl	_ZNSt12system_errorD1Ev(PLT)
.LEHB9:
	bl	__cxa_end_cleanup(PLT)
.LEHE9:
.L219:
	.align	2
.L218:
	.word	_GLOBAL_OFFSET_TABLE_-(.LPIC38+8)
	.word	_ZGVZN4asio15system_categoryEvE8instance(GOT)
	.word	_ZZN4asio15system_categoryEvE8instance(GOT)
	.word	_ZN4asio6detail15system_categoryD1Ev(GOT)
	.word	__dso_handle-(.LPIC39+8)
	.word	.LC22-(.LPIC40+8)
	.word	_ZTVSt12system_error(GOT)
	.word	_ZTISt12system_error(GOT)
	.word	_ZNSt12system_errorD1Ev(GOT)
	.personality	__gxx_personality_v0
	.handlerdata
.LLSDA2708:
	.byte	0xff
	.byte	0xff
	.byte	0x1
	.uleb128 .LLSDACSE2708-.LLSDACSB2708
.LLSDACSB2708:
	.uleb128 .LEHB7-.LFB2708
	.uleb128 .LEHE7-.LEHB7
	.uleb128 0
	.uleb128 0
	.uleb128 .LEHB8-.LFB2708
	.uleb128 .LEHE8-.LEHB8
	.uleb128 .L210-.LFB2708
	.uleb128 0
	.uleb128 .LEHB9-.LFB2708
	.uleb128 .LEHE9-.LEHB9
	.uleb128 0
	.uleb128 0
.LLSDACSE2708:
	.section	.text._ZN4asio6detail20posix_tss_ptr_createERj,"axG",%progbits,_ZN4asio6detail20posix_tss_ptr_createERj,comdat
	.fnend
	.size	_ZN4asio6detail20posix_tss_ptr_createERj, .-_ZN4asio6detail20posix_tss_ptr_createERj
	.section	.text._ZN4asio28asio_handler_is_continuationEz,"axG",%progbits,_ZN4asio28asio_handler_is_continuationEz,comdat
	.align	2
	.weak	_ZN4asio28asio_handler_is_continuationEz
	.syntax unified
	.arm
	.fpu vfp
	.type	_ZN4asio28asio_handler_is_continuationEz, %function
_ZN4asio28asio_handler_is_continuationEz:
	.fnstart
.LFB2740:
	@ args = 0, pretend = 0, frame = 0
	@ frame_needed = 0, uses_anonymous_args = 0
	@ link register save eliminated.
	mov	r0, #0
	bx	lr
	.cantunwind
	.fnend
	.size	_ZN4asio28asio_handler_is_continuationEz, .-_ZN4asio28asio_handler_is_continuationEz
	.text
	.align	2
	.global	_ZN8asiodnp39IOHandler6EnableERKSt10shared_ptrIN8opendnp312ILinkSessionEE
	.syntax unified
	.arm
	.fpu vfp
	.type	_ZN8asiodnp39IOHandler6EnableERKSt10shared_ptrIN8opendnp312ILinkSessionEE, %function
_ZN8asiodnp39IOHandler6EnableERKSt10shared_ptrIN8opendnp312ILinkSessionEE:
	.fnstart
.LFB7469:
	@ args = 0, pretend = 0, frame = 0
	@ frame_needed = 0, uses_anonymous_args = 0
	push	{r4, r5, r6, lr}
	.save {r4, r5, r6, lr}
	ldr	ip, [r0, #68]
	ldr	r5, [r0, #72]
	sub	r3, r5, ip
	asr	r4, r3, #6
	cmp	r4, #0
	ble	.L247
	ldr	r2, [r1]
	ldr	r3, [ip, #8]
	cmp	r2, r3
	beq	.L248
	ldr	r3, [ip, #24]
	cmp	r3, r2
	addeq	r3, ip, #16
	beq	.L231
	ldr	r3, [ip, #40]
	cmp	r3, r2
	addeq	r3, ip, #32
	beq	.L231
	ldr	r3, [ip, #56]
	cmp	r2, r3
	addne	r4, ip, r4, lsl #6
	bne	.L234
	b	.L264
.L236:
	ldr	lr, [r3, #8]
	cmp	r2, lr
	beq	.L231
	ldr	lr, [r3, #24]
	cmp	r2, lr
	beq	.L265
	ldr	lr, [r3, #40]
	cmp	r2, lr
	beq	.L266
	ldr	lr, [r3, #56]
	cmp	r2, lr
	beq	.L267
	mov	ip, r3
.L234:
	add	r3, ip, #64
	cmp	r4, r3
	bne	.L236
	sub	r3, r5, r4
	asr	r3, r3, #4
.L222:
	cmp	r3, #2
	beq	.L238
	cmp	r3, #3
	beq	.L239
	cmp	r3, #1
	beq	.L268
.L254:
	mov	r0, #0
	pop	{r4, r5, r6, pc}
.L248:
	mov	r3, ip
.L231:
	cmp	r5, r3
	beq	.L254
	ldrb	r2, [r3]	@ zero_extendqisi2
	cmp	r2, #0
	bne	.L261
	ldr	r2, [r0, #496]
	mov	r5, #1
	cmp	r2, #0
	mov	r4, r0
	strb	r5, [r3]
	beq	.L244
	ldrb	r2, [r3, #6]	@ zero_extendqisi2
	cmp	r2, #0
	beq	.L269
.L261:
	mov	r0, #1
	pop	{r4, r5, r6, pc}
.L269:
	ldr	r2, [r3, #8]
	strb	r5, [r3, #6]
	mov	r0, r2
	ldr	r3, [r2]
	ldr	r3, [r3, #16]
	blx	r3
	mov	r0, r5
	pop	{r4, r5, r6, pc}
.L244:
	ldr	r0, [r0, #32]
	cmp	r0, #0
	beq	.L246
	ldr	r3, [r0]
	mov	r1, r5
	ldr	r3, [r3, #8]
	blx	r3
.L246:
	ldr	r3, [r4]
	mov	r0, r4
	ldr	r3, [r3, #20]
	blx	r3
	b	.L261
.L265:
	add	r3, ip, #80
	b	.L231
.L266:
	add	r3, ip, #96
	b	.L231
.L267:
	add	r3, ip, #112
	b	.L231
.L239:
	ldr	r3, [r1]
	ldr	r2, [r4, #8]
	cmp	r2, r3
	beq	.L252
	add	r4, r4, #16
	b	.L241
.L238:
	ldr	r3, [r1]
.L241:
	ldr	r2, [r4, #8]
	cmp	r2, r3
	beq	.L252
	add	r4, r4, #16
.L242:
	ldr	r2, [r4, #8]
	cmp	r2, r3
	bne	.L254
.L252:
	mov	r3, r4
	b	.L231
.L268:
	ldr	r3, [r1]
	b	.L242
.L247:
	asr	r3, r3, #4
	mov	r4, ip
	b	.L222
.L264:
	add	r3, ip, #48
	b	.L231
	.fnend
	.size	_ZN8asiodnp39IOHandler6EnableERKSt10shared_ptrIN8opendnp312ILinkSessionEE, .-_ZN8asiodnp39IOHandler6EnableERKSt10shared_ptrIN8opendnp312ILinkSessionEE
	.align	2
	.global	_ZN8asiodnp39IOHandler9BeginReadEv
	.syntax unified
	.arm
	.fpu vfp
	.type	_ZN8asiodnp39IOHandler9BeginReadEv, %function
_ZN8asiodnp39IOHandler9BeginReadEv:
	.fnstart
.LFB7485:
	@ args = 0, pretend = 0, frame = 8
	@ frame_needed = 0, uses_anonymous_args = 0
	push	{r4, r5, lr}
	.save {r4, r5, lr}
	.pad #12
	sub	sp, sp, #12
	ldr	r4, [r0, #496]
	add	r1, r0, #120
	mov	r0, sp
	bl	_ZNK8opendnp315LinkLayerParser9WriteBuffEv(PLT)
	ldr	r3, [r4, #20]
	cmp	r3, #0
	beq	.L270
	ldrb	r3, [r4, #28]	@ zero_extendqisi2
	cmp	r3, #0
	bne	.L270
	ldrb	r3, [r4, #29]	@ zero_extendqisi2
	cmp	r3, #0
	bne	.L270
	ldr	r3, [r4]
	mov	r2, #1
	strb	r2, [r4, #29]
	ldr	r3, [r3, #8]
	mov	r0, r4
	ldm	sp, {r1, r2}
	blx	r3
.L270:
	add	sp, sp, #12
	@ sp needed
	pop	{r4, r5, pc}
	.fnend
	.size	_ZN8asiodnp39IOHandler9BeginReadEv, .-_ZN8asiodnp39IOHandler9BeginReadEv
	.align	2
	.global	_ZN8asiodnp39IOHandler12CheckForSendEv
	.syntax unified
	.arm
	.fpu vfp
	.type	_ZN8asiodnp39IOHandler12CheckForSendEv, %function
_ZN8asiodnp39IOHandler12CheckForSendEv:
	.fnstart
.LFB7486:
	@ args = 0, pretend = 0, frame = 0
	@ frame_needed = 0, uses_anonymous_args = 0
	ldr	r1, [r0, #88]
	ldr	r3, [r0, #104]
	cmp	r1, r3
	bxeq	lr
	ldr	r3, [r0, #496]
	cmp	r3, #0
	bxeq	lr
	ldr	r2, [r3, #20]
	cmp	r2, #0
	bxeq	lr
	ldrb	r2, [r3, #28]	@ zero_extendqisi2
	cmp	r2, #0
	bxne	lr
	ldrb	r2, [r3, #30]	@ zero_extendqisi2
	cmp	r2, #0
	bxne	lr
	str	lr, [sp, #-4]!
	mov	ip, #1
	ldr	r2, [r0, #60]
	ldr	lr, [r3]
	add	r2, r2, #1
	str	r2, [r0, #60]
	ldr	r2, [lr, #12]
	mov	r0, r3
	strb	ip, [r3, #30]
	ldr	lr, [sp], #4
	bx	r2	@ indirect register sibling call
	.cantunwind
	.fnend
	.size	_ZN8asiodnp39IOHandler12CheckForSendEv, .-_ZN8asiodnp39IOHandler12CheckForSendEv
	.align	2
	.global	_ZN8asiodnp39IOHandler13SendToSessionERKN8opendnp35RouteERKNS1_16LinkHeaderFieldsERKN7openpal6RSliceE
	.syntax unified
	.arm
	.fpu vfp
	.type	_ZN8asiodnp39IOHandler13SendToSessionERKN8opendnp35RouteERKNS1_16LinkHeaderFieldsERKN7openpal6RSliceE, %function
_ZN8asiodnp39IOHandler13SendToSessionERKN8opendnp35RouteERKNS1_16LinkHeaderFieldsERKN7openpal6RSliceE:
	.fnstart
.LFB7487:
	@ args = 0, pretend = 0, frame = 0
	@ frame_needed = 0, uses_anonymous_args = 0
	push	{r4, r5, r6, lr}
	mov	r6, r2
	ldr	ip, [r0, #68]
	ldr	r5, [r0, #72]
	ldrh	lr, [r1]
	sub	r2, r5, ip
	ldrh	r1, [r1, #2]
	asr	r4, r2, #6
	cmp	r4, #0
	ble	.L303
	add	r4, ip, r4, lsl #6
	b	.L296
.L291:
	ldrb	r0, [ip, #16]	@ zero_extendqisi2
	cmp	r0, #0
	beq	.L293
	ldrh	r0, [ip, #18]
	cmp	r0, lr
	beq	.L340
.L293:
	ldrb	r0, [ip, #32]	@ zero_extendqisi2
	cmp	r0, #0
	beq	.L294
	ldrh	r0, [ip, #34]
	cmp	r0, lr
	beq	.L341
.L294:
	ldrb	r0, [ip, #48]	@ zero_extendqisi2
	cmp	r0, #0
	beq	.L295
	ldrh	r2, [ip, #50]
	cmp	r2, lr
	beq	.L342
.L295:
	add	ip, ip, #64
	cmp	r4, ip
	beq	.L343
.L296:
	ldrb	r0, [ip]	@ zero_extendqisi2
	cmp	r0, #0
	beq	.L291
	ldrh	r0, [ip, #2]
	cmp	r0, lr
	bne	.L291
	ldrh	r2, [ip, #4]
	cmp	r2, r1
	bne	.L291
.L292:
	cmp	r5, ip
	beq	.L309
	ldr	r0, [ip, #8]
	mov	r2, r3
	mov	r1, r6
	ldr	r3, [r0]
	pop	{r4, r5, r6, lr}
	ldr	r3, [r3, #8]
	bx	r3
.L340:
	ldrh	r2, [ip, #20]
	cmp	r2, r1
	bne	.L293
	add	ip, ip, #16
	b	.L292
.L341:
	ldrh	r2, [ip, #36]
	cmp	r2, r1
	bne	.L294
	add	ip, ip, #32
	b	.L292
.L342:
	ldrh	r2, [ip, #52]
	cmp	r2, r1
	bne	.L295
	add	ip, ip, #48
	b	.L292
.L299:
	ldrb	r2, [r4]	@ zero_extendqisi2
	cmp	r2, #0
	bne	.L344
.L301:
	add	r4, r4, #16
.L298:
	ldrb	r2, [r4]	@ zero_extendqisi2
	cmp	r2, #0
	bne	.L345
.L302:
	add	r4, r4, #16
.L300:
	ldrb	r0, [r4]	@ zero_extendqisi2
	cmp	r0, #0
	popeq	{r4, r5, r6, pc}
	ldrh	r2, [r4, #2]
	cmp	r2, lr
	beq	.L346
.L309:
	mov	r0, #0
	pop	{r4, r5, r6, pc}
.L343:
	sub	r2, r5, r4
	asr	r2, r2, #4
.L290:
	cmp	r2, #2
	beq	.L298
	cmp	r2, #3
	beq	.L299
	cmp	r2, #1
	bne	.L309
	b	.L300
.L345:
	ldrh	r2, [r4, #2]
	cmp	r2, lr
	bne	.L302
	ldrh	r2, [r4, #4]
	cmp	r2, r1
	bne	.L302
.L306:
	mov	ip, r4
	b	.L292
.L344:
	ldrh	r2, [r4, #2]
	cmp	r2, lr
	bne	.L301
	ldrh	r2, [r4, #4]
	cmp	r2, r1
	beq	.L306
	b	.L301
.L346:
	ldrh	r2, [r4, #4]
	cmp	r2, r1
	beq	.L306
	b	.L309
.L303:
	asr	r2, r2, #4
	mov	r4, ip
	b	.L290
	.cantunwind
	.fnend
	.size	_ZN8asiodnp39IOHandler13SendToSessionERKN8opendnp35RouteERKNS1_16LinkHeaderFieldsERKN7openpal6RSliceE, .-_ZN8asiodnp39IOHandler13SendToSessionERKN8opendnp35RouteERKNS1_16LinkHeaderFieldsERKN7openpal6RSliceE
	.align	2
	.global	_ZN8asiodnp39IOHandler7OnFrameERKN8opendnp316LinkHeaderFieldsERKN7openpal6RSliceE
	.syntax unified
	.arm
	.fpu vfp
	.type	_ZN8asiodnp39IOHandler7OnFrameERKN8opendnp316LinkHeaderFieldsERKN7openpal6RSliceE, %function
_ZN8asiodnp39IOHandler7OnFrameERKN8opendnp316LinkHeaderFieldsERKN7openpal6RSliceE:
	.fnstart
.LFB7484:
	@ args = 0, pretend = 0, frame = 128
	@ frame_needed = 0, uses_anonymous_args = 0
	push	{r4, r5, r6, r7, r8, lr}
	.save {r4, r5, r6, r7, r8, lr}
	.pad #136
	sub	sp, sp, #136
	ldrh	lr, [r1, #6]
	ldrh	ip, [r1, #4]
	mov	r4, r1
	add	r5, sp, #16
	mov	r3, r2
	mov	r1, r5
	mov	r2, r4
	strh	lr, [sp, #16]	@ movhi
	strh	ip, [sp, #18]	@ movhi
	mov	r6, r0
	bl	_ZN8asiodnp39IOHandler13SendToSessionERKN8opendnp35RouteERKNS1_16LinkHeaderFieldsERKN7openpal6RSliceE(PLT)
	subs	r7, r0, #0
	beq	.L352
.L348:
	mov	r0, r7
	add	sp, sp, #136
	@ sp needed
	pop	{r4, r5, r6, r7, r8, pc}
.L352:
	add	r6, r6, #16
	mov	r0, r6
	mov	r8, #4
	mov	r1, r5
	str	r8, [sp, #16]
	bl	_ZNK7openpal6Logger9IsEnabledERKNS_10LogFiltersE(PLT)
	cmp	r0, #0
	beq	.L348
	ldrh	r1, [r4, #4]
	ldr	r2, .L353
	ldrh	r3, [r4, #6]
.LPIC65:
	add	r2, pc, r2
	str	r1, [sp]
	mov	r0, r5
	mov	r1, #120
	bl	snprintf(PLT)
	add	r1, sp, #136
	ldr	r2, .L353+4
	mov	r0, r6
	mov	r3, r5
	str	r8, [r1, #-124]!
.LPIC66:
	add	r2, pc, r2
	bl	_ZN7openpal6Logger3LogERKNS_10LogFiltersEPKcS5_(PLT)
	mov	r0, r7
	add	sp, sp, #136
	@ sp needed
	pop	{r4, r5, r6, r7, r8, pc}
.L354:
	.align	2
.L353:
	.word	.LC23-(.LPIC65+8)
	.word	.LC24-(.LPIC66+8)
	.fnend
	.size	_ZN8asiodnp39IOHandler7OnFrameERKN8opendnp316LinkHeaderFieldsERKN7openpal6RSliceE, .-_ZN8asiodnp39IOHandler7OnFrameERKN8opendnp316LinkHeaderFieldsERKN7openpal6RSliceE
	.align	2
	.global	_ZNK8asiodnp39IOHandler12IsRouteInUseERKN8opendnp35RouteE
	.syntax unified
	.arm
	.fpu vfp
	.type	_ZNK8asiodnp39IOHandler12IsRouteInUseERKN8opendnp35RouteE, %function
_ZNK8asiodnp39IOHandler12IsRouteInUseERKN8opendnp35RouteE:
	.fnstart
.LFB7489:
	@ args = 0, pretend = 0, frame = 0
	@ frame_needed = 0, uses_anonymous_args = 0
	ldr	r3, [r0, #68]
	ldr	r0, [r0, #72]
	push	{r4, r5, r6, lr}
	sub	r4, r0, r3
	ldrh	lr, [r1]
	asr	r5, r4, #6
	cmp	r5, #0
	ldrh	r6, [r1, #2]
	ble	.L372
	add	r5, r3, r5, lsl #6
	b	.L371
.L357:
	ldrh	r4, [r3, #18]
	cmp	r4, lr
	beq	.L368
.L359:
	ldrh	r4, [r3, #34]
	cmp	r4, lr
	beq	.L369
.L360:
	ldrh	r4, [r3, #50]
	cmp	r4, lr
	beq	.L370
.L361:
	add	r3, r3, #64
	cmp	r5, r3
	beq	.L385
.L371:
	ldrh	r4, [r3, #2]
	cmp	r4, lr
	bne	.L357
	ldrh	r2, [r3, #4]
	cmp	r2, r6
	bne	.L357
	subs	r0, r0, r3
	movne	r0, #1
	pop	{r4, r5, r6, pc}
.L368:
	ldrh	r2, [r3, #20]
	cmp	r2, r6
	bne	.L359
	add	r2, r3, #16
	subs	r0, r0, r2
	movne	r0, #1
	pop	{r4, r5, r6, pc}
.L369:
	ldrh	r2, [r3, #36]
	cmp	r2, r6
	bne	.L360
	add	ip, r3, #32
	subs	r0, r0, ip
	movne	r0, #1
	pop	{r4, r5, r6, pc}
.L370:
	ldrh	r2, [r3, #52]
	cmp	r2, r6
	bne	.L361
	add	r1, r3, #48
	subs	r0, r0, r1
	movne	r0, #1
	pop	{r4, r5, r6, pc}
.L385:
	sub	r4, r0, r5
	asr	r4, r4, #4
.L356:
	cmp	r4, #2
	beq	.L362
	cmp	r4, #3
	beq	.L363
	cmp	r4, #1
	beq	.L364
.L374:
	mov	r0, #0
	pop	{r4, r5, r6, pc}
.L363:
	ldrh	r3, [r5, #2]
	cmp	r3, lr
	bne	.L365
	ldrh	r3, [r5, #4]
	cmp	r3, r6
	beq	.L367
.L365:
	add	r5, r5, #16
.L362:
	ldrh	r3, [r5, #2]
	cmp	r3, lr
	beq	.L386
.L366:
	add	r5, r5, #16
.L364:
	ldrh	r3, [r5, #2]
	cmp	r3, lr
	bne	.L374
	ldrh	r3, [r5, #4]
	cmp	r3, r6
	bne	.L374
.L367:
	subs	r0, r0, r5
	movne	r0, #1
	pop	{r4, r5, r6, pc}
.L386:
	ldrh	r3, [r5, #4]
	cmp	r3, r6
	bne	.L366
	b	.L367
.L372:
	asr	r4, r4, #4
	mov	r5, r3
	b	.L356
	.cantunwind
	.fnend
	.size	_ZNK8asiodnp39IOHandler12IsRouteInUseERKN8opendnp35RouteE, .-_ZNK8asiodnp39IOHandler12IsRouteInUseERKN8opendnp35RouteE
	.align	2
	.global	_ZNK8asiodnp39IOHandler14IsSessionInUseERKSt10shared_ptrIN8opendnp312ILinkSessionEE
	.syntax unified
	.arm
	.fpu vfp
	.type	_ZNK8asiodnp39IOHandler14IsSessionInUseERKSt10shared_ptrIN8opendnp312ILinkSessionEE, %function
_ZNK8asiodnp39IOHandler14IsSessionInUseERKSt10shared_ptrIN8opendnp312ILinkSessionEE:
	.fnstart
.LFB7491:
	@ args = 0, pretend = 0, frame = 0
	@ frame_needed = 0, uses_anonymous_args = 0
	ldr	ip, [r0, #68]
	ldr	r0, [r0, #72]
	push	{r4, lr}
	sub	r3, r0, ip
	asr	r4, r3, #6
	cmp	r4, #0
	ble	.L410
	ldr	r2, [r1]
	ldr	r3, [ip, #8]
	cmp	r2, r3
	beq	.L411
	ldr	r3, [ip, #24]
	cmp	r3, r2
	addeq	ip, ip, #16
	beq	.L391
	ldr	r3, [ip, #40]
	cmp	r3, r2
	addeq	r3, ip, #32
	beq	.L418
	ldr	r3, [ip, #56]
	cmp	r2, r3
	addne	r4, ip, r4, lsl #6
	bne	.L400
	b	.L422
.L402:
	ldr	lr, [r3, #8]
	cmp	r2, lr
	beq	.L418
	ldr	lr, [r3, #24]
	cmp	r2, lr
	beq	.L423
	ldr	lr, [r3, #40]
	cmp	r2, lr
	beq	.L424
	ldr	lr, [r3, #56]
	cmp	r2, lr
	beq	.L425
	mov	ip, r3
.L400:
	add	r3, ip, #64
	cmp	r3, r4
	bne	.L402
	sub	r4, r0, r4
	asr	r2, r4, #4
.L388:
	cmp	r2, #2
	beq	.L403
	cmp	r2, #3
	beq	.L404
	cmp	r2, #1
	beq	.L426
	mov	r0, #0
	pop	{r4, pc}
.L411:
	mov	r3, ip
.L418:
	subs	r0, r0, r3
	movne	r0, #1
	pop	{r4, pc}
.L423:
	add	ip, ip, #80
.L391:
	subs	r0, r0, ip
	movne	r0, #1
	pop	{r4, pc}
.L424:
	add	r3, ip, #96
	b	.L418
.L425:
	add	r2, ip, #112
.L401:
	subs	r0, r0, r2
	movne	r0, #1
	pop	{r4, pc}
.L404:
	ldr	r2, [r1]
	ldr	r1, [r3, #8]
	cmp	r1, r2
	beq	.L418
	add	r3, r3, #16
	b	.L406
.L403:
	ldr	r2, [r1]
.L406:
	ldr	r1, [r3, #8]
	cmp	r1, r2
	beq	.L418
	add	r3, r3, #16
.L407:
	ldr	r1, [r3, #8]
	cmp	r1, r2
	beq	.L418
	mov	r0, #0
	pop	{r4, pc}
.L426:
	ldr	r2, [r1]
	b	.L407
.L410:
	asr	r2, r3, #4
	mov	r3, ip
	b	.L388
.L422:
	add	r2, ip, #48
	b	.L401
	.cantunwind
	.fnend
	.size	_ZNK8asiodnp39IOHandler14IsSessionInUseERKSt10shared_ptrIN8opendnp312ILinkSessionEE, .-_ZNK8asiodnp39IOHandler14IsSessionInUseERKSt10shared_ptrIN8opendnp312ILinkSessionEE
	.align	2
	.global	_ZNK8asiodnp39IOHandler19IsAnySessionEnabledEv
	.syntax unified
	.arm
	.fpu vfp
	.type	_ZNK8asiodnp39IOHandler19IsAnySessionEnabledEv, %function
_ZNK8asiodnp39IOHandler19IsAnySessionEnabledEv:
	.fnstart
.LFB7493:
	@ args = 0, pretend = 0, frame = 0
	@ frame_needed = 0, uses_anonymous_args = 0
	@ link register save eliminated.
	ldr	r2, [r0, #68]
	ldr	ip, [r0, #72]
	sub	r3, ip, r2
	asr	r0, r3, #6
	cmp	r0, #0
	asr	r1, r3, #4
	ble	.L448
	ldrb	r3, [r2]	@ zero_extendqisi2
	cmp	r3, #0
	bne	.L449
	ldrb	r3, [r2, #16]	@ zero_extendqisi2
	cmp	r3, #0
	addne	r2, r2, #16
	bne	.L441
	ldrb	r3, [r2, #32]	@ zero_extendqisi2
	cmp	r3, #0
	addne	r2, r2, #32
	bne	.L441
	ldrb	r3, [r2, #48]	@ zero_extendqisi2
	cmp	r3, #0
	addeq	r0, r2, r0, lsl #6
	beq	.L440
	b	.L465
.L442:
	ldrb	r1, [r2, #64]	@ zero_extendqisi2
	cmp	r1, #0
	bne	.L463
	ldrb	r1, [r3, #16]	@ zero_extendqisi2
	cmp	r1, #0
	bne	.L466
	ldrb	r1, [r3, #32]	@ zero_extendqisi2
	cmp	r1, #0
	bne	.L467
	ldrb	r1, [r3, #48]	@ zero_extendqisi2
	cmp	r1, #0
	bne	.L468
	mov	r2, r3
.L440:
	add	r3, r2, #64
	cmp	r3, r0
	bne	.L442
	sub	r0, ip, r0
	asr	r1, r0, #4
.L428:
	cmp	r1, #2
	beq	.L443
	cmp	r1, #3
	beq	.L444
	cmp	r1, #1
	beq	.L445
	mov	r0, #0
	bx	lr
.L465:
	add	r2, r2, #48
.L441:
	subs	r0, ip, r2
	movne	r0, #1
	bx	lr
.L449:
	mov	r3, r2
.L463:
	subs	r0, ip, r3
	movne	r0, #1
	bx	lr
.L466:
	add	r2, r2, #80
	b	.L441
.L467:
	add	r2, r2, #96
	b	.L441
.L468:
	add	r2, r2, #112
	b	.L441
.L444:
	ldrb	r2, [r3]	@ zero_extendqisi2
	cmp	r2, #0
	bne	.L463
	add	r3, r3, #16
.L443:
	ldrb	r2, [r3]	@ zero_extendqisi2
	cmp	r2, #0
	bne	.L463
	add	r3, r3, #16
.L445:
	ldrb	r0, [r3]	@ zero_extendqisi2
	cmp	r0, #0
	bxeq	lr
	b	.L463
.L448:
	mov	r3, r2
	b	.L428
	.cantunwind
	.fnend
	.size	_ZNK8asiodnp39IOHandler19IsAnySessionEnabledEv, .-_ZNK8asiodnp39IOHandler19IsAnySessionEnabledEv
	.align	2
	.global	_ZN8asiodnp39IOHandler6RemoveERKSt10shared_ptrIN8opendnp312ILinkSessionEE
	.syntax unified
	.arm
	.fpu vfp
	.type	_ZN8asiodnp39IOHandler6RemoveERKSt10shared_ptrIN8opendnp312ILinkSessionEE, %function
_ZN8asiodnp39IOHandler6RemoveERKSt10shared_ptrIN8opendnp312ILinkSessionEE:
	.fnstart
.LFB7473:
	@ args = 0, pretend = 0, frame = 0
	@ frame_needed = 0, uses_anonymous_args = 0
	push	{r4, r5, r6, r7, r8, r9, r10, lr}
	.save {r4, r5, r6, r7, r8, r9, r10, lr}
	ldr	r2, [r0, #68]
	ldr	r6, [r0, #72]
	ldr	r7, .L547
	sub	r3, r6, r2
.LPIC75:
	add	r7, pc, r7
	asr	lr, r3, #6
	cmp	lr, #0
	ble	.L508
	ldr	r3, [r1]
	ldr	ip, [r2, #8]
	cmp	ip, r3
	beq	.L509
	ldr	ip, [r2, #24]
	cmp	r3, ip
	addeq	r5, r2, #16
	beq	.L479
	ldr	ip, [r2, #40]
	cmp	ip, r3
	addeq	r5, r2, #32
	beq	.L479
	ldr	ip, [r2, #56]
	cmp	r3, ip
	addne	lr, r2, lr, lsl #6
	bne	.L482
	b	.L536
.L484:
	ldr	ip, [r5, #8]
	cmp	r3, ip
	beq	.L479
	ldr	ip, [r5, #24]
	cmp	r3, ip
	beq	.L537
	ldr	ip, [r5, #40]
	cmp	r3, ip
	beq	.L538
	ldr	ip, [r5, #56]
	cmp	r3, ip
	beq	.L539
	mov	r2, r5
.L482:
	add	r5, r2, #64
	cmp	r5, lr
	bne	.L484
	sub	lr, r6, lr
	asr	r3, lr, #4
.L470:
	cmp	r3, #2
	beq	.L486
	cmp	r3, #3
	beq	.L487
	cmp	r3, #1
	beq	.L540
.L513:
	mov	r0, #0
	pop	{r4, r5, r6, r7, r8, r9, r10, pc}
.L509:
	mov	r5, r2
.L479:
	cmp	r6, r5
	beq	.L513
	ldr	r3, [r0, #496]
	mov	r9, r0
	cmp	r3, #0
	beq	.L491
	ldrb	r3, [r5, #6]	@ zero_extendqisi2
	cmp	r3, #0
	bne	.L541
.L491:
	add	r4, r5, #16
	cmp	r4, r6
	beq	.L492
	sub	r3, r6, r4
	asr	r3, r3, #4
	cmp	r3, #0
	ble	.L492
	add	r3, r3, #1
	mov	r8, #0
	add	r5, r5, r3, lsl #4
	b	.L499
.L544:
	add	r3, r6, #28
	mcr	p15, 0, r0, c7, c10, 5
.L527:
	ldrex	r2, [r3]
	sub	r1, r2, #1
	strex	r0, r1, [r3]
	cmp	r0, #0
	bne	.L527
	cmp	r2, #1
	mcr	p15, 0, r0, c7, c10, 5
	beq	.L542
.L494:
	add	r4, r4, #16
	cmp	r4, r5
	beq	.L543
.L499:
	ldr	r6, [r4, #-4]
	ldrb	ip, [r4]	@ zero_extendqisi2
	ldrb	r0, [r4, #6]	@ zero_extendqisi2
	ldr	r2, [r4, #8]
	ldr	r3, [r4, #12]
	ldr	r1, [r4, #2]	@ unaligned
	cmp	r6, #0
	strb	ip, [r4, #-16]
	strb	r0, [r4, #-10]
	str	r1, [r4, #-14]	@ unaligned
	str	r2, [r4, #-8]
	str	r8, [r4, #8]
	str	r3, [r4, #-4]
	str	r8, [r4, #12]
	beq	.L494
	ldr	r3, .L547+4
	ldr	r3, [r7, r3]
	cmp	r3, #0
	bne	.L544
	ldr	r3, [r6, #28]
	cmp	r3, #1
	sub	r3, r3, #1
	str	r3, [r6, #28]
	bne	.L494
	ldr	r3, [r6]
	mov	r0, r6
	ldr	r3, [r3, #8]
	blx	r3
	mcr	p15, 0, r0, c7, c10, 5
	ldr	r2, [r6, #32]
	sub	r3, r2, #1
	cmp	r2, #1
	str	r3, [r6, #32]
	bne	.L494
	ldr	r3, [r6]
	mov	r0, r6
	ldr	r3, [r3, #12]
	blx	r3
.L546:
	add	r4, r4, #16
	cmp	r4, r5
	bne	.L499
.L543:
	ldr	r6, [r9, #72]
.L492:
	ldr	r4, [r6, #-4]
	sub	r6, r6, #16
	cmp	r4, #0
	str	r6, [r9, #72]
	beq	.L501
	ldr	r3, .L547+4
	ldr	r3, [r7, r3]
	cmp	r3, #0
	beq	.L502
	add	r3, r4, #28
	mcr	p15, 0, r0, c7, c10, 5
.L526:
	ldrex	r2, [r3]
	sub	r1, r2, #1
	strex	r0, r1, [r3]
	cmp	r0, #0
	bne	.L526
	cmp	r2, #1
	mcr	p15, 0, r0, c7, c10, 5
	beq	.L545
.L501:
	mov	r0, r9
	bl	_ZNK8asiodnp39IOHandler19IsAnySessionEnabledEv(PLT)
	cmp	r0, #0
	popne	{r4, r5, r6, r7, r8, r9, r10, pc}
	ldr	r3, [r9]
	mov	r0, r9
	ldr	r3, [r3, #24]
	blx	r3
	mov	r0, #1
	pop	{r4, r5, r6, r7, r8, r9, r10, pc}
.L542:
	ldr	r3, [r6]
	mov	r0, r6
	ldr	r3, [r3, #8]
	blx	r3
	add	r3, r6, #32
	mcr	p15, 0, r0, c7, c10, 5
	mcr	p15, 0, r0, c7, c10, 5
.L525:
	ldrex	r2, [r3]
	sub	r1, r2, #1
	strex	r0, r1, [r3]
	cmp	r0, #0
	bne	.L525
	cmp	r2, #1
	mcr	p15, 0, r0, c7, c10, 5
	bne	.L494
	ldr	r3, [r6]
	mov	r0, r6
	ldr	r3, [r3, #12]
	blx	r3
	b	.L546
.L502:
	ldr	r3, [r4, #28]
	cmp	r3, #1
	sub	r3, r3, #1
	str	r3, [r4, #28]
	bne	.L501
	ldr	r3, [r4]
	mov	r0, r4
	ldr	r3, [r3, #8]
	blx	r3
	mcr	p15, 0, r0, c7, c10, 5
	ldr	r2, [r4, #32]
	sub	r3, r2, #1
	str	r3, [r4, #32]
	b	.L507
.L541:
	ldr	r3, [r5, #8]
	mov	r2, #0
	mov	r0, r3
	ldr	r3, [r3]
	strb	r2, [r5, #6]
	ldr	r3, [r3, #20]
	blx	r3
	ldr	r6, [r9, #72]
	b	.L491
.L545:
	ldr	r3, [r4]
	mov	r0, r4
	ldr	r3, [r3, #8]
	blx	r3
	add	r3, r4, #32
	mcr	p15, 0, r0, c7, c10, 5
	mcr	p15, 0, r0, c7, c10, 5
.L524:
	ldrex	r2, [r3]
	sub	r1, r2, #1
	strex	r0, r1, [r3]
	cmp	r0, #0
	bne	.L524
	mcr	p15, 0, r0, c7, c10, 5
.L507:
	cmp	r2, #1
	bne	.L501
	ldr	r3, [r4]
	mov	r0, r4
	ldr	r3, [r3, #12]
	blx	r3
	b	.L501
.L537:
	add	r5, r2, #80
	b	.L479
.L538:
	add	r5, r2, #96
	b	.L479
.L539:
	add	r5, r2, #112
	b	.L479
.L486:
	ldr	r3, [r1]
.L489:
	ldr	r2, [r5, #8]
	cmp	r2, r3
	beq	.L479
	add	r5, r5, #16
.L490:
	ldr	r2, [r5, #8]
	cmp	r2, r3
	beq	.L479
	mov	r0, #0
	pop	{r4, r5, r6, r7, r8, r9, r10, pc}
.L540:
	ldr	r3, [r1]
	b	.L490
.L487:
	ldr	r3, [r1]
	ldr	r2, [r5, #8]
	cmp	r2, r3
	beq	.L479
	add	r5, r5, #16
	b	.L489
.L508:
	asr	r3, r3, #4
	mov	r5, r2
	b	.L470
.L536:
	add	r5, r2, #48
	b	.L479
.L548:
	.align	2
.L547:
	.word	_GLOBAL_OFFSET_TABLE_-(.LPIC75+8)
	.word	_ZL28__gthrw___pthread_key_createPjPFvPvE(GOT)
	.fnend
	.size	_ZN8asiodnp39IOHandler6RemoveERKSt10shared_ptrIN8opendnp312ILinkSessionEE, .-_ZN8asiodnp39IOHandler6RemoveERKSt10shared_ptrIN8opendnp312ILinkSessionEE
	.section	.text._ZNSt16_Sp_counted_baseILN9__gnu_cxx12_Lock_policyE1EE10_M_releaseEv,"axG",%progbits,_ZNSt16_Sp_counted_baseILN9__gnu_cxx12_Lock_policyE1EE10_M_releaseEv,comdat
	.align	2
	.weak	_ZNSt16_Sp_counted_baseILN9__gnu_cxx12_Lock_policyE1EE10_M_releaseEv
	.syntax unified
	.arm
	.fpu vfp
	.type	_ZNSt16_Sp_counted_baseILN9__gnu_cxx12_Lock_policyE1EE10_M_releaseEv, %function
_ZNSt16_Sp_counted_baseILN9__gnu_cxx12_Lock_policyE1EE10_M_releaseEv:
	.fnstart
.LFB8430:
	@ args = 0, pretend = 0, frame = 0
	@ frame_needed = 0, uses_anonymous_args = 0
	ldr	r3, .L561
	ldr	r2, .L561+4
.LPIC76:
	add	r3, pc, r3
	push	{r4, r5, r6, lr}
	mov	r4, r0
	ldr	r3, [r3, r2]
	cmp	r3, #0
	beq	.L550
	add	r3, r0, #28
	mcr	p15, 0, r0, c7, c10, 5
.L557:
	ldrex	r2, [r3]
	sub	r1, r2, #1
	strex	ip, r1, [r3]
	cmp	ip, #0
	bne	.L557
	cmp	r2, #1
	mcr	p15, 0, r0, c7, c10, 5
	popne	{r4, r5, r6, pc}
	mov	r5, r4
	ldr	r3, [r5], #32
	ldr	r3, [r3, #8]
	blx	r3
	mcr	p15, 0, r0, c7, c10, 5
	mcr	p15, 0, r0, c7, c10, 5
.L556:
	ldrex	r3, [r5]
	sub	r2, r3, #1
	strex	r1, r2, [r5]
	cmp	r1, #0
	bne	.L556
	mcr	p15, 0, r0, c7, c10, 5
.L555:
	cmp	r3, #1
	popne	{r4, r5, r6, pc}
	ldr	r3, [r4]
	mov	r0, r4
	pop	{r4, r5, r6, lr}
	ldr	r3, [r3, #12]
	bx	r3	@ indirect register sibling call
.L550:
	ldr	r3, [r0, #28]
	cmp	r3, #1
	sub	r3, r3, #1
	str	r3, [r0, #28]
	popne	{r4, r5, r6, pc}
	ldr	r3, [r0]
	ldr	r3, [r3, #8]
	blx	r3
	mcr	p15, 0, r0, c7, c10, 5
	ldr	r3, [r4, #32]
	sub	r2, r3, #1
	str	r2, [r4, #32]
	b	.L555
.L562:
	.align	2
.L561:
	.word	_GLOBAL_OFFSET_TABLE_-(.LPIC76+8)
	.word	_ZL28__gthrw___pthread_key_createPjPFvPvE(GOT)
	.cantunwind
	.fnend
	.size	_ZNSt16_Sp_counted_baseILN9__gnu_cxx12_Lock_policyE1EE10_M_releaseEv, .-_ZNSt16_Sp_counted_baseILN9__gnu_cxx12_Lock_policyE1EE10_M_releaseEv
	.section	.text._ZN4asio6detail14strand_service4postIZN7asiopal13IAsyncChannel8ShutdownEvEUlvE_EEvRPNS1_11strand_implERT_,"axG",%progbits,_ZN4asio6detail14strand_service4postIZN7asiopal13IAsyncChannel8ShutdownEvEUlvE_EEvRPNS1_11strand_implERT_,comdat
	.align	2
	.weak	_ZN4asio6detail14strand_service4postIZN7asiopal13IAsyncChannel8ShutdownEvEUlvE_EEvRPNS1_11strand_implERT_
	.syntax unified
	.arm
	.fpu vfp
	.type	_ZN4asio6detail14strand_service4postIZN7asiopal13IAsyncChannel8ShutdownEvEUlvE_EEvRPNS1_11strand_implERT_, %function
_ZN4asio6detail14strand_service4postIZN7asiopal13IAsyncChannel8ShutdownEvEUlvE_EEvRPNS1_11strand_implERT_:
	.fnstart
.LFB8675:
	@ args = 0, pretend = 0, frame = 16
	@ frame_needed = 0, uses_anonymous_args = 0
	push	{r4, r5, r6, r7, r8, r9, r10, fp, lr}
	.save {r4, r5, r6, r7, r8, r9, r10, fp, lr}
	mov	r10, r0
	.pad #20
	sub	sp, sp, #20
	mov	r0, r2
	mov	r6, r2
	mov	r7, r1
	bl	_ZN4asio28asio_handler_is_continuationEz(PLT)
	ldr	fp, .L615
	ldr	r3, .L615+4
.LPIC77:
	add	fp, pc, fp
	ldr	r8, [fp, r3]
	mov	r9, r0
	ldr	r0, [r8]
	bl	pthread_getspecific(PLT)
	cmp	r0, #0
	beq	.L564
	ldr	r3, [r0, #4]
	cmp	r3, #0
	beq	.L564
	ldr	r4, [r3]
	cmp	r4, #0
	beq	.L564
	mov	r2, #0
	str	r2, [r3]
	ldrb	r3, [r4]	@ zero_extendqisi2
	cmp	r3, #19
	bls	.L614
.L612:
	strb	r3, [r4, #20]
	ldr	r3, .L615+8
	mov	r5, #0
	str	r5, [r4]
	ldr	r3, [fp, r3]
	ldr	r2, [r6]
	ldr	r0, [r7]
	str	r5, [r4, #16]
	str	r3, [r4, #4]
	ldr	r3, [r6, #4]
	add	r0, r0, #12
	str	r5, [r4, #8]
	str	r2, [r4, #12]
	str	r5, [r6, #4]
	str	r3, [r4, #16]
	str	r5, [r6]
	bl	pthread_mutex_lock(PLT)
	ldr	r0, [r7]
	ldrb	r6, [r0, #36]	@ zero_extendqisi2
	cmp	r6, r5
	beq	.L567
	ldr	r3, [r0, #44]
	str	r5, [r4]
	cmp	r3, r5
	strne	r4, [r3]
	streq	r4, [r0, #44]
	strne	r4, [r0, #44]
	streq	r4, [r0, #40]
	add	r0, r0, #12
	bl	pthread_mutex_unlock(PLT)
.L563:
	add	sp, sp, #20
	@ sp needed
	pop	{r4, r5, r6, r7, r8, r9, r10, fp, pc}
.L614:
	mov	r0, r4
	bl	_ZdlPv(PLT)
.L564:
	mov	r0, #21
	bl	_Znwj(PLT)
	mov	r3, #20
	mov	r4, r0
	b	.L612
.L567:
	mov	r3, #1
	strb	r3, [r0, #36]
	add	r0, r0, #12
	bl	pthread_mutex_unlock(PLT)
	ldr	r5, [r7]
	str	r6, [r4]
	ldr	r3, [r5, #52]
	cmp	r3, #0
	strne	r4, [r3]
	streq	r4, [r5, #52]
	strne	r4, [r5, #52]
	streq	r4, [r5, #48]
	ldr	r4, [r10, #20]
	ldrb	r3, [r4, #20]	@ zero_extendqisi2
	orr	r9, r9, r3
	tst	r9, #255
	beq	.L573
	ldr	r0, [r8]
	bl	pthread_getspecific(PLT)
	cmp	r0, #0
	beq	.L573
	ldr	r3, [r0]
	cmp	r3, r4
	bne	.L576
	b	.L574
.L608:
	ldr	r3, [r0]
	cmp	r4, r3
	beq	.L574
.L576:
	ldr	r0, [r0, #8]
	cmp	r0, #0
	bne	.L608
.L573:
	add	r3, r4, #124
	mcr	p15, 0, r0, c7, c10, 5
.L610:
	ldrex	r2, [r3]
	add	r2, r2, #1
	strex	r1, r2, [r3]
	cmp	r1, #0
	bne	.L610
	add	r6, r4, #24
	mcr	p15, 0, r0, c7, c10, 5
	mov	r0, r6
	bl	pthread_mutex_lock(PLT)
	ldr	r3, [r4, #132]
	mov	r2, #0
	cmp	r3, r2
	str	r2, [r5]
	strne	r5, [r3]
	ldr	r3, [r4, #96]
	strne	r5, [r4, #132]
	orr	r3, r3, #1
	streq	r5, [r4, #132]
	streq	r5, [r4, #128]
	cmp	r3, #1
	add	r5, r4, #48
	str	r3, [r4, #96]
	beq	.L582
	mov	r0, r6
	bl	pthread_mutex_unlock(PLT)
	mov	r0, r5
	bl	pthread_cond_signal(PLT)
	add	sp, sp, #20
	@ sp needed
	pop	{r4, r5, r6, r7, r8, r9, r10, fp, pc}
.L582:
	ldrb	r1, [r4, #120]	@ zero_extendqisi2
	cmp	r1, #0
	bne	.L584
	ldr	r0, [r4, #104]
	cmp	r0, #0
	beq	.L584
	strb	r3, [r4, #120]
	add	lr, r0, #48
	mov	r4, #-2147483639
	ldr	r2, [r0, #48]
	str	r1, [sp, #4]
	str	r1, [sp, #12]
	mov	r3, sp
	ldr	r0, [r0, #56]
	mov	r1, #3
	str	r4, [sp]
	str	lr, [sp, #8]
	bl	epoll_ctl(PLT)
.L584:
	mov	r0, r6
	bl	pthread_mutex_unlock(PLT)
	b	.L563
.L574:
	ldr	r3, [r0, #4]
	cmp	r3, #0
	beq	.L573
	ldr	r1, [r3, #8]
	ldr	r2, [r3, #12]
	cmp	r1, #0
	add	r2, r2, #1
	mov	r0, #0
	str	r2, [r3, #12]
	str	r0, [r5]
	strne	r5, [r1]
	streq	r5, [r3, #8]
	strne	r5, [r3, #8]
	streq	r5, [r3, #4]
	add	sp, sp, #20
	@ sp needed
	pop	{r4, r5, r6, r7, r8, r9, r10, fp, pc}
.L616:
	.align	2
.L615:
	.word	_GLOBAL_OFFSET_TABLE_-(.LPIC77+8)
	.word	_ZN4asio6detail10call_stackINS0_15task_io_serviceENS0_27task_io_service_thread_infoEE4top_E(GOT)
	.word	_ZN4asio6detail18completion_handlerIZN7asiopal13IAsyncChannel8ShutdownEvEUlvE_E11do_completeEPNS0_15task_io_serviceEPNS0_25task_io_service_operationERKSt10error_codej(GOT)
	.fnend
	.size	_ZN4asio6detail14strand_service4postIZN7asiopal13IAsyncChannel8ShutdownEvEUlvE_EEvRPNS1_11strand_implERT_, .-_ZN4asio6detail14strand_service4postIZN7asiopal13IAsyncChannel8ShutdownEvEUlvE_EEvRPNS1_11strand_implERT_
	.section	.text._ZN4asio6detail14strand_service4postIZN7asiopal13IAsyncChannel16CheckForShutdownESt10shared_ptrIS4_EEUlvE_EEvRPNS1_11strand_implERT_,"axG",%progbits,_ZN4asio6detail14strand_service4postIZN7asiopal13IAsyncChannel16CheckForShutdownESt10shared_ptrIS4_EEUlvE_EEvRPNS1_11strand_implERT_,comdat
	.align	2
	.weak	_ZN4asio6detail14strand_service4postIZN7asiopal13IAsyncChannel16CheckForShutdownESt10shared_ptrIS4_EEUlvE_EEvRPNS1_11strand_implERT_
	.syntax unified
	.arm
	.fpu vfp
	.type	_ZN4asio6detail14strand_service4postIZN7asiopal13IAsyncChannel16CheckForShutdownESt10shared_ptrIS4_EEUlvE_EEvRPNS1_11strand_implERT_, %function
_ZN4asio6detail14strand_service4postIZN7asiopal13IAsyncChannel16CheckForShutdownESt10shared_ptrIS4_EEUlvE_EEvRPNS1_11strand_implERT_:
	.fnstart
.LFB8683:
	@ args = 0, pretend = 0, frame = 16
	@ frame_needed = 0, uses_anonymous_args = 0
	push	{r4, r5, r6, r7, r8, r9, r10, fp, lr}
	.save {r4, r5, r6, r7, r8, r9, r10, fp, lr}
	mov	r10, r0
	.pad #20
	sub	sp, sp, #20
	mov	r0, r2
	mov	r6, r2
	mov	r7, r1
	bl	_ZN4asio28asio_handler_is_continuationEz(PLT)
	ldr	fp, .L669
	ldr	r3, .L669+4
.LPIC78:
	add	fp, pc, fp
	ldr	r8, [fp, r3]
	mov	r9, r0
	ldr	r0, [r8]
	bl	pthread_getspecific(PLT)
	cmp	r0, #0
	beq	.L618
	ldr	r3, [r0, #4]
	cmp	r3, #0
	beq	.L618
	ldr	r4, [r3]
	cmp	r4, #0
	beq	.L618
	mov	r2, #0
	str	r2, [r3]
	ldrb	r3, [r4]	@ zero_extendqisi2
	cmp	r3, #19
	bls	.L668
.L666:
	strb	r3, [r4, #20]
	ldr	r3, .L669+8
	mov	r5, #0
	str	r5, [r4]
	ldr	r3, [fp, r3]
	ldr	r2, [r6]
	ldr	r0, [r7]
	str	r5, [r4, #16]
	str	r3, [r4, #4]
	ldr	r3, [r6, #4]
	add	r0, r0, #12
	str	r5, [r4, #8]
	str	r2, [r4, #12]
	str	r5, [r6, #4]
	str	r3, [r4, #16]
	str	r5, [r6]
	bl	pthread_mutex_lock(PLT)
	ldr	r0, [r7]
	ldrb	r6, [r0, #36]	@ zero_extendqisi2
	cmp	r6, r5
	beq	.L621
	ldr	r3, [r0, #44]
	str	r5, [r4]
	cmp	r3, r5
	strne	r4, [r3]
	streq	r4, [r0, #44]
	strne	r4, [r0, #44]
	streq	r4, [r0, #40]
	add	r0, r0, #12
	bl	pthread_mutex_unlock(PLT)
.L617:
	add	sp, sp, #20
	@ sp needed
	pop	{r4, r5, r6, r7, r8, r9, r10, fp, pc}
.L668:
	mov	r0, r4
	bl	_ZdlPv(PLT)
.L618:
	mov	r0, #21
	bl	_Znwj(PLT)
	mov	r3, #20
	mov	r4, r0
	b	.L666
.L621:
	mov	r3, #1
	strb	r3, [r0, #36]
	add	r0, r0, #12
	bl	pthread_mutex_unlock(PLT)
	ldr	r5, [r7]
	str	r6, [r4]
	ldr	r3, [r5, #52]
	cmp	r3, #0
	strne	r4, [r3]
	streq	r4, [r5, #52]
	strne	r4, [r5, #52]
	streq	r4, [r5, #48]
	ldr	r4, [r10, #20]
	ldrb	r3, [r4, #20]	@ zero_extendqisi2
	orr	r9, r9, r3
	tst	r9, #255
	beq	.L627
	ldr	r0, [r8]
	bl	pthread_getspecific(PLT)
	cmp	r0, #0
	beq	.L627
	ldr	r3, [r0]
	cmp	r3, r4
	bne	.L630
	b	.L628
.L662:
	ldr	r3, [r0]
	cmp	r4, r3
	beq	.L628
.L630:
	ldr	r0, [r0, #8]
	cmp	r0, #0
	bne	.L662
.L627:
	add	r3, r4, #124
	mcr	p15, 0, r0, c7, c10, 5
.L664:
	ldrex	r2, [r3]
	add	r2, r2, #1
	strex	r1, r2, [r3]
	cmp	r1, #0
	bne	.L664
	add	r6, r4, #24
	mcr	p15, 0, r0, c7, c10, 5
	mov	r0, r6
	bl	pthread_mutex_lock(PLT)
	ldr	r3, [r4, #132]
	mov	r2, #0
	cmp	r3, r2
	str	r2, [r5]
	strne	r5, [r3]
	ldr	r3, [r4, #96]
	strne	r5, [r4, #132]
	orr	r3, r3, #1
	streq	r5, [r4, #132]
	streq	r5, [r4, #128]
	cmp	r3, #1
	add	r5, r4, #48
	str	r3, [r4, #96]
	beq	.L636
	mov	r0, r6
	bl	pthread_mutex_unlock(PLT)
	mov	r0, r5
	bl	pthread_cond_signal(PLT)
	add	sp, sp, #20
	@ sp needed
	pop	{r4, r5, r6, r7, r8, r9, r10, fp, pc}
.L636:
	ldrb	r1, [r4, #120]	@ zero_extendqisi2
	cmp	r1, #0
	bne	.L638
	ldr	r0, [r4, #104]
	cmp	r0, #0
	beq	.L638
	strb	r3, [r4, #120]
	add	lr, r0, #48
	mov	r4, #-2147483639
	ldr	r2, [r0, #48]
	str	r1, [sp, #4]
	str	r1, [sp, #12]
	mov	r3, sp
	ldr	r0, [r0, #56]
	mov	r1, #3
	str	r4, [sp]
	str	lr, [sp, #8]
	bl	epoll_ctl(PLT)
.L638:
	mov	r0, r6
	bl	pthread_mutex_unlock(PLT)
	b	.L617
.L628:
	ldr	r3, [r0, #4]
	cmp	r3, #0
	beq	.L627
	ldr	r1, [r3, #8]
	ldr	r2, [r3, #12]
	cmp	r1, #0
	add	r2, r2, #1
	mov	r0, #0
	str	r2, [r3, #12]
	str	r0, [r5]
	strne	r5, [r1]
	streq	r5, [r3, #8]
	strne	r5, [r3, #8]
	streq	r5, [r3, #4]
	add	sp, sp, #20
	@ sp needed
	pop	{r4, r5, r6, r7, r8, r9, r10, fp, pc}
.L670:
	.align	2
.L669:
	.word	_GLOBAL_OFFSET_TABLE_-(.LPIC78+8)
	.word	_ZN4asio6detail10call_stackINS0_15task_io_serviceENS0_27task_io_service_thread_infoEE4top_E(GOT)
	.word	_ZN4asio6detail18completion_handlerIZN7asiopal13IAsyncChannel16CheckForShutdownESt10shared_ptrIS3_EEUlvE_E11do_completeEPNS0_15task_io_serviceEPNS0_25task_io_service_operationERKSt10error_codej(GOT)
	.fnend
	.size	_ZN4asio6detail14strand_service4postIZN7asiopal13IAsyncChannel16CheckForShutdownESt10shared_ptrIS4_EEUlvE_EEvRPNS1_11strand_implERT_, .-_ZN4asio6detail14strand_service4postIZN7asiopal13IAsyncChannel16CheckForShutdownESt10shared_ptrIS4_EEUlvE_EEvRPNS1_11strand_implERT_
	.section	.text._ZNSt5dequeIN8asiodnp39IOHandler12TransmissionESaIS2_EE19_M_destroy_data_auxESt15_Deque_iteratorIS2_RS2_PS2_ES8_,"axG",%progbits,_ZNSt5dequeIN8asiodnp39IOHandler12TransmissionESaIS2_EE19_M_destroy_data_auxESt15_Deque_iteratorIS2_RS2_PS2_ES8_,comdat
	.align	2
	.weak	_ZNSt5dequeIN8asiodnp39IOHandler12TransmissionESaIS2_EE19_M_destroy_data_auxESt15_Deque_iteratorIS2_RS2_PS2_ES8_
	.syntax unified
	.arm
	.fpu vfp
	.type	_ZNSt5dequeIN8asiodnp39IOHandler12TransmissionESaIS2_EE19_M_destroy_data_auxESt15_Deque_iteratorIS2_RS2_PS2_ES8_, %function
_ZNSt5dequeIN8asiodnp39IOHandler12TransmissionESaIS2_EE19_M_destroy_data_auxESt15_Deque_iteratorIS2_RS2_PS2_ES8_:
	.fnstart
.LFB8974:
	@ args = 0, pretend = 0, frame = 0
	@ frame_needed = 0, uses_anonymous_args = 0
	push	{r4, r5, r6, r7, r8, r9, r10, lr}
	mov	r7, r2
	ldr	r2, [r1, #12]
	ldr	r3, [r7, #12]
	add	r6, r2, #4
	ldr	r10, .L744
	cmp	r6, r3
	mov	r8, r1
.LPIC79:
	add	r10, pc, r10
	bcs	.L672
.L680:
	ldr	r4, [r6], #4
	add	r9, r4, #512
	b	.L679
.L732:
	add	r3, r5, #28
	mcr	p15, 0, r0, c7, c10, 5
.L720:
	ldrex	r2, [r3]
	sub	r1, r2, #1
	strex	r0, r1, [r3]
	cmp	r0, #0
	bne	.L720
	cmp	r2, #1
	mcr	p15, 0, r0, c7, c10, 5
	beq	.L730
.L674:
	add	r4, r4, #16
	cmp	r9, r4
	beq	.L731
.L679:
	ldr	r5, [r4, #12]
	cmp	r5, #0
	beq	.L674
	ldr	r3, .L744+4
	ldr	r3, [r10, r3]
	cmp	r3, #0
	bne	.L732
	ldr	r3, [r5, #28]
	cmp	r3, #1
	sub	r3, r3, #1
	str	r3, [r5, #28]
	bne	.L674
	ldr	r3, [r5]
	mov	r0, r5
	ldr	r3, [r3, #8]
	blx	r3
	mcr	p15, 0, r0, c7, c10, 5
	ldr	r2, [r5, #32]
	sub	r3, r2, #1
	str	r3, [r5, #32]
.L707:
	cmp	r2, #1
	bne	.L674
	ldr	r3, [r5]
	mov	r0, r5
	add	r4, r4, #16
	ldr	r3, [r3, #12]
	blx	r3
	cmp	r9, r4
	bne	.L679
.L731:
	ldr	r3, [r7, #12]
	cmp	r3, r6
	bhi	.L680
	ldr	r2, [r8, #12]
.L672:
	cmp	r3, r2
	beq	.L681
	ldr	r4, [r8]
	ldr	r6, [r8, #8]
	cmp	r4, r6
	bne	.L692
	b	.L691
.L734:
	add	r3, r5, #28
	mcr	p15, 0, r0, c7, c10, 5
.L719:
	ldrex	r2, [r3]
	sub	r1, r2, #1
	strex	r0, r1, [r3]
	cmp	r0, #0
	bne	.L719
	cmp	r2, #1
	mcr	p15, 0, r0, c7, c10, 5
	beq	.L733
.L686:
	add	r4, r4, #16
	cmp	r6, r4
	beq	.L691
.L692:
	ldr	r5, [r4, #12]
	cmp	r5, #0
	beq	.L686
	ldr	r3, .L744+4
	ldr	r3, [r10, r3]
	cmp	r3, #0
	bne	.L734
	ldr	r3, [r5, #28]
	cmp	r3, #1
	sub	r3, r3, #1
	str	r3, [r5, #28]
	bne	.L686
	ldr	r3, [r5]
	mov	r0, r5
	ldr	r3, [r3, #8]
	blx	r3
	mcr	p15, 0, r0, c7, c10, 5
	ldr	r2, [r5, #32]
	sub	r3, r2, #1
	cmp	r2, #1
	str	r3, [r5, #32]
	bne	.L686
	ldr	r3, [r5]
	mov	r0, r5
	ldr	r3, [r3, #12]
	blx	r3
.L739:
	add	r4, r4, #16
	cmp	r6, r4
	bne	.L692
.L691:
	ldr	r4, [r7, #4]
	ldr	r6, [r7]
	cmp	r4, r6
	bne	.L699
	b	.L735
.L738:
	add	r3, r5, #28
	mcr	p15, 0, r0, c7, c10, 5
.L718:
	ldrex	r2, [r3]
	sub	r1, r2, #1
	strex	r0, r1, [r3]
	cmp	r0, #0
	bne	.L718
	cmp	r2, #1
	mcr	p15, 0, r0, c7, c10, 5
	beq	.L736
.L694:
	add	r4, r4, #16
	cmp	r6, r4
	beq	.L737
.L699:
	ldr	r5, [r4, #12]
	cmp	r5, #0
	beq	.L694
	ldr	r3, .L744+4
	ldr	r3, [r10, r3]
	cmp	r3, #0
	bne	.L738
	ldr	r3, [r5, #28]
	cmp	r3, #1
	sub	r3, r3, #1
	str	r3, [r5, #28]
	bne	.L694
	ldr	r3, [r5]
	mov	r0, r5
	ldr	r3, [r3, #8]
	blx	r3
	mcr	p15, 0, r0, c7, c10, 5
	ldr	r2, [r5, #32]
	sub	r3, r2, #1
	cmp	r2, #1
	str	r3, [r5, #32]
	bne	.L694
	ldr	r3, [r5]
	mov	r0, r5
	ldr	r3, [r3, #12]
	blx	r3
.L740:
	add	r4, r4, #16
	cmp	r6, r4
	bne	.L699
.L737:
	pop	{r4, r5, r6, r7, r8, r9, r10, pc}
.L730:
	ldr	r3, [r5]
	mov	r0, r5
	ldr	r3, [r3, #8]
	blx	r3
	add	r3, r5, #32
	mcr	p15, 0, r0, c7, c10, 5
	mcr	p15, 0, r0, c7, c10, 5
.L716:
	ldrex	r2, [r3]
	sub	r1, r2, #1
	strex	r0, r1, [r3]
	cmp	r0, #0
	bne	.L716
	mcr	p15, 0, r0, c7, c10, 5
	b	.L707
.L733:
	ldr	r3, [r5]
	mov	r0, r5
	ldr	r3, [r3, #8]
	blx	r3
	add	r3, r5, #32
	mcr	p15, 0, r0, c7, c10, 5
	mcr	p15, 0, r0, c7, c10, 5
.L715:
	ldrex	r2, [r3]
	sub	r1, r2, #1
	strex	r0, r1, [r3]
	cmp	r0, #0
	bne	.L715
	cmp	r2, #1
	mcr	p15, 0, r0, c7, c10, 5
	bne	.L686
	ldr	r3, [r5]
	mov	r0, r5
	ldr	r3, [r3, #12]
	blx	r3
	b	.L739
.L736:
	ldr	r3, [r5]
	mov	r0, r5
	ldr	r3, [r3, #8]
	blx	r3
	add	r3, r5, #32
	mcr	p15, 0, r0, c7, c10, 5
	mcr	p15, 0, r0, c7, c10, 5
.L714:
	ldrex	r2, [r3]
	sub	r1, r2, #1
	strex	r0, r1, [r3]
	cmp	r0, #0
	bne	.L714
	cmp	r2, #1
	mcr	p15, 0, r0, c7, c10, 5
	bne	.L694
	ldr	r3, [r5]
	mov	r0, r5
	ldr	r3, [r3, #12]
	blx	r3
	b	.L740
.L681:
	ldr	r5, [r8]
	ldr	r6, [r7]
	cmp	r5, r6
	bne	.L706
	pop	{r4, r5, r6, r7, r8, r9, r10, pc}
.L743:
	add	r3, r4, #28
	mcr	p15, 0, r0, c7, c10, 5
.L717:
	ldrex	r2, [r3]
	sub	r1, r2, #1
	strex	r0, r1, [r3]
	cmp	r0, #0
	bne	.L717
	cmp	r2, #1
	mcr	p15, 0, r0, c7, c10, 5
	beq	.L741
.L701:
	add	r5, r5, #16
	cmp	r6, r5
	beq	.L742
.L706:
	ldr	r4, [r5, #12]
	cmp	r4, #0
	beq	.L701
	ldr	r3, .L744+4
	ldr	r3, [r10, r3]
	cmp	r3, #0
	bne	.L743
	ldr	r3, [r4, #28]
	cmp	r3, #1
	sub	r3, r3, #1
	str	r3, [r4, #28]
	bne	.L701
	ldr	r3, [r4]
	mov	r0, r4
	ldr	r3, [r3, #8]
	blx	r3
	mcr	p15, 0, r0, c7, c10, 5
	ldr	r3, [r4, #32]
	sub	r2, r3, #1
	str	r2, [r4, #32]
.L710:
	cmp	r3, #1
	bne	.L701
	ldr	r3, [r4]
	mov	r0, r4
	ldr	r3, [r3, #12]
	blx	r3
	b	.L701
.L741:
	ldr	r3, [r4]
	mov	r0, r4
	ldr	r3, [r3, #8]
	blx	r3
	add	r2, r4, #32
	mcr	p15, 0, r0, c7, c10, 5
	mcr	p15, 0, r0, c7, c10, 5
.L713:
	ldrex	r3, [r2]
	sub	r1, r3, #1
	strex	r0, r1, [r2]
	cmp	r0, #0
	bne	.L713
	mcr	p15, 0, r0, c7, c10, 5
	b	.L710
.L742:
	pop	{r4, r5, r6, r7, r8, r9, r10, pc}
.L735:
	pop	{r4, r5, r6, r7, r8, r9, r10, pc}
.L745:
	.align	2
.L744:
	.word	_GLOBAL_OFFSET_TABLE_-(.LPIC79+8)
	.word	_ZL28__gthrw___pthread_key_createPjPFvPvE(GOT)
	.cantunwind
	.fnend
	.size	_ZNSt5dequeIN8asiodnp39IOHandler12TransmissionESaIS2_EE19_M_destroy_data_auxESt15_Deque_iteratorIS2_RS2_PS2_ES8_, .-_ZNSt5dequeIN8asiodnp39IOHandler12TransmissionESaIS2_EE19_M_destroy_data_auxESt15_Deque_iteratorIS2_RS2_PS2_ES8_
	.text
	.align	2
	.global	_ZN8asiodnp39IOHandler5ResetEv
	.syntax unified
	.arm
	.fpu vfp
	.type	_ZN8asiodnp39IOHandler5ResetEv, %function
_ZN8asiodnp39IOHandler5ResetEv:
	.fnstart
.LFB7495:
	@ args = 0, pretend = 0, frame = 32
	@ frame_needed = 0, uses_anonymous_args = 0
	push	{r4, r5, r6, r7, r8, r9, r10, lr}
	.save {r4, r5, r6, r7, r8, r9, r10, lr}
	mov	r5, r0
	ldr	r4, [r0, #496]
	ldr	r7, .L845
	cmp	r4, #0
.LPIC80:
	add	r7, pc, r7
	.pad #32
	sub	sp, sp, #32
	beq	.L839
	ldrb	r3, [r4, #28]	@ zero_extendqisi2
	cmp	r3, #0
	addne	r6, sp, #16
	beq	.L840
.L751:
	ldr	r4, [r5, #500]
	mov	r3, #0
	cmp	r4, r3
	str	r3, [r5, #496]
	str	r3, [r5, #500]
	beq	.L772
	ldr	r3, .L845+4
	ldr	r3, [r7, r3]
	cmp	r3, #0
	beq	.L773
	add	r3, r4, #28
	mcr	p15, 0, r0, c7, c10, 5
.L828:
	ldrex	r2, [r3]
	sub	r1, r2, #1
	strex	r0, r1, [r3]
	cmp	r0, #0
	bne	.L828
	cmp	r2, #1
	mcr	p15, 0, r0, c7, c10, 5
	beq	.L841
.L772:
	ldr	r3, [r5, #48]
	ldr	r0, [r5, #32]
	add	r3, r3, #1
	cmp	r0, #0
	str	r3, [r5, #48]
	beq	.L777
	ldr	r3, [r0]
	mov	r1, #0
	ldr	r3, [r3, #8]
.LEHB10:
	blx	r3
.L777:
	ldr	r4, [r5, #68]
	ldr	r7, [r5, #72]
	cmp	r4, r7
	beq	.L778
	mov	r8, #0
	b	.L780
.L779:
	add	r4, r4, #16
	cmp	r7, r4
	beq	.L778
.L780:
	ldrb	r3, [r4, #6]	@ zero_extendqisi2
	cmp	r3, #0
	beq	.L779
	ldr	r3, [r4, #8]
	strb	r8, [r4, #6]
	mov	r0, r3
	ldr	r3, [r3]
	add	r4, r4, #16
	ldr	r3, [r3, #20]
	blx	r3
	cmp	r7, r4
	bne	.L780
.L778:
	mov	r3, #0
	add	r8, r5, #88
	strb	r3, [r5, #508]
	add	r0, r5, #120
	bl	_ZN8opendnp315LinkLayerParser5ResetEv(PLT)
	ldr	r3, [r5, #104]
	ldm	r8, {r8, r9, r10}
	mov	r2, r6
	ldr	r1, [r5, #108]
	ldr	r0, [r5, #112]
	ldr	r7, [r5, #100]
	str	r3, [sp, #16]
	ldr	r3, [r5, #116]
	str	r1, [sp, #20]
	str	r0, [sp, #24]
	mov	r1, sp
	add	r0, r5, #80
	stm	sp, {r8, r9, r10}
	add	r4, r7, #4
	str	r7, [sp, #12]
	str	r3, [sp, #28]
	bl	_ZNSt5dequeIN8asiodnp39IOHandler12TransmissionESaIS2_EE19_M_destroy_data_auxESt15_Deque_iteratorIS2_RS2_PS2_ES8_(PLT)
	ldr	r6, [r5, #116]
	add	r6, r6, #4
	cmp	r4, r6
	bcs	.L748
.L781:
	ldr	r0, [r4], #4
	bl	_ZdlPv(PLT)
	cmp	r6, r4
	bhi	.L781
.L748:
	str	r8, [r5, #104]
	str	r9, [r5, #108]
	str	r10, [r5, #112]
	str	r7, [r5, #116]
	add	sp, sp, #32
	@ sp needed
	pop	{r4, r5, r6, r7, r8, r9, r10, pc}
.L840:
	ldr	r3, [r4]
	mov	r2, #1
	strb	r2, [r4, #28]
	ldr	r3, [r3, #16]
	mov	r0, r4
	blx	r3
.LEHE10:
	ldr	r8, [r4, #8]
	cmp	r8, #0
	beq	.L752
	ldr	r3, .L845+4
	add	r0, r8, #4
	str	r0, [sp, #16]
	ldr	r10, [r7, r3]
	cmp	r10, #0
	beq	.L753
	bl	_ZL26__gthrw_pthread_mutex_lockP15pthread_mutex_t(PLT)
	cmp	r0, #0
	bne	.L842
	add	r9, r8, #28
	mcr	p15, 0, r0, c7, c10, 5
.L827:
	ldrex	r3, [r9]
	add	r2, r3, #1
	strex	r1, r2, [r9]
	cmp	r1, #0
	bne	.L827
	cmp	r3, #0
	mcr	p15, 0, r0, c7, c10, 5
	beq	.L782
	ldr	r0, [sp, #16]
	bl	_ZL28__gthrw_pthread_mutex_unlockP15pthread_mutex_t(PLT)
	cmp	r0, #0
	bne	.L785
	ldr	r2, [r4, #4]
	ldr	r3, [r4, #12]
	str	r2, [sp, #16]
	str	r8, [sp, #20]
	mcr	p15, 0, r0, c7, c10, 5
.L826:
	ldrex	r2, [r9]
	add	r2, r2, #1
	strex	r1, r2, [r9]
	cmp	r1, #0
	bne	.L826
	mcr	p15, 0, r0, c7, c10, 5
.L786:
	add	r6, sp, #16
	mov	r2, r6
	add	r1, r3, #24
	ldr	r0, [r3, #20]
.LEHB11:
	bl	_ZN4asio6detail14strand_service4postIZN7asiopal13IAsyncChannel8ShutdownEvEUlvE_EEvRPNS1_11strand_implERT_(PLT)
.LEHE11:
	ldr	r4, [sp, #20]
	cmp	r4, #0
	beq	.L758
	cmp	r10, #0
	beq	.L759
	add	r3, r4, #28
	mcr	p15, 0, r0, c7, c10, 5
.L830:
	ldrex	r2, [r3]
	sub	r1, r2, #1
	strex	r0, r1, [r3]
	cmp	r0, #0
	bne	.L830
	cmp	r2, #1
	mcr	p15, 0, r0, c7, c10, 5
	beq	.L843
.L764:
	mcr	p15, 0, r0, c7, c10, 5
.L829:
	ldrex	r3, [r9]
	sub	r2, r3, #1
	strex	r1, r2, [r9]
	cmp	r1, #0
	bne	.L829
	cmp	r3, #1
	mcr	p15, 0, r0, c7, c10, 5
	bne	.L751
	ldr	r3, [r8]
	mov	r0, r8
	ldr	r3, [r3, #8]
	blx	r3
	add	r3, r8, #32
	mcr	p15, 0, r0, c7, c10, 5
	mcr	p15, 0, r0, c7, c10, 5
.L824:
	ldrex	r2, [r3]
	sub	r1, r2, #1
	strex	r0, r1, [r3]
	cmp	r0, #0
	bne	.L824
	mcr	p15, 0, r0, c7, c10, 5
.L790:
	cmp	r2, #1
	bne	.L751
	ldr	r3, [r8]
	mov	r0, r8
	ldr	r3, [r3, #12]
	blx	r3
	b	.L751
.L839:
	add	r6, sp, #16
	b	.L778
.L773:
	ldr	r3, [r4, #28]
	cmp	r3, #1
	sub	r3, r3, #1
	str	r3, [r4, #28]
	bne	.L772
	ldr	r3, [r4]
	mov	r0, r4
	ldr	r3, [r3, #8]
	blx	r3
	mcr	p15, 0, r0, c7, c10, 5
	ldr	r2, [r4, #32]
	sub	r3, r2, #1
	str	r3, [r4, #32]
	b	.L791
.L841:
	ldr	r3, [r4]
	mov	r0, r4
	ldr	r3, [r3, #8]
	blx	r3
	add	r3, r4, #32
	mcr	p15, 0, r0, c7, c10, 5
	mcr	p15, 0, r0, c7, c10, 5
.L823:
	ldrex	r2, [r3]
	sub	r1, r2, #1
	strex	r0, r1, [r3]
	cmp	r0, #0
	bne	.L823
	mcr	p15, 0, r0, c7, c10, 5
.L791:
	cmp	r2, #1
	bne	.L772
	ldr	r3, [r4]
	mov	r0, r4
	ldr	r3, [r3, #12]
	blx	r3
	b	.L772
.L759:
	ldr	r3, [r4, #28]
	cmp	r3, #1
	sub	r3, r3, #1
	str	r3, [r4, #28]
	beq	.L844
.L765:
	ldr	r3, [r8, #28]
	cmp	r3, #1
	sub	r3, r3, #1
	str	r3, [r8, #28]
	bne	.L751
	ldr	r3, [r8]
	mov	r0, r8
	ldr	r3, [r3, #8]
	blx	r3
	mcr	p15, 0, r0, c7, c10, 5
	ldr	r2, [r8, #32]
	sub	r3, r2, #1
	str	r3, [r8, #32]
	b	.L790
.L753:
	ldr	r3, [r8, #28]
	add	r9, r8, #28
	add	r2, r3, #1
	cmp	r3, #0
	str	r2, [r8, #28]
	beq	.L782
	ldr	r1, [r4, #4]
	add	r2, r3, #2
	ldr	r3, [r4, #12]
	str	r1, [sp, #16]
	str	r8, [sp, #20]
	str	r2, [r8, #28]
	b	.L786
.L843:
	ldr	r3, [r4]
	mov	r0, r4
	ldr	r3, [r3, #8]
	blx	r3
	add	r3, r4, #32
	mcr	p15, 0, r0, c7, c10, 5
	mcr	p15, 0, r0, c7, c10, 5
.L825:
	ldrex	r2, [r3]
	sub	r1, r2, #1
	strex	r0, r1, [r3]
	cmp	r0, #0
	bne	.L825
	cmp	r2, #1
	mcr	p15, 0, r0, c7, c10, 5
	bne	.L764
.L787:
	ldr	r3, [r4]
	mov	r0, r4
	ldr	r3, [r3, #12]
	blx	r3
.L758:
	cmp	r10, #0
	bne	.L764
	b	.L765
.L844:
	ldr	r3, [r4]
	mov	r0, r4
	ldr	r3, [r3, #8]
	blx	r3
	mcr	p15, 0, r0, c7, c10, 5
	ldr	r3, [r4, #32]
	cmp	r3, #1
	sub	r3, r3, #1
	str	r3, [r4, #32]
	bne	.L765
	b	.L787
.L792:
	ldr	r0, [sp, #20]
	cmp	r0, #0
	beq	.L767
	bl	_ZNSt16_Sp_counted_baseILN9__gnu_cxx12_Lock_policyE1EE10_M_releaseEv(PLT)
.L767:
	mov	r0, r8
	bl	_ZNSt16_Sp_counted_baseILN9__gnu_cxx12_Lock_policyE1EE10_M_releaseEv(PLT)
.LEHB12:
	bl	__cxa_end_cleanup(PLT)
.LEHE12:
.L782:
	mov	r3, #0
	str	r3, [r8, #28]
.LEHB13:
	bl	_ZSt20__throw_bad_weak_ptrv(PLT)
.LEHE13:
.L785:
	mov	r0, #4
	bl	__cxa_allocate_exception(PLT)
	ldr	r1, .L845+8
	ldr	r2, .L845+12
	ldr	r3, .L845+16
	ldr	r1, [r7, r1]
	add	r1, r1, #8
	str	r1, [r0]
	ldr	r2, [r7, r2]
	ldr	r1, [r7, r3]
.LEHB14:
	bl	__cxa_throw(PLT)
.LEHE14:
.L793:
	add	r0, sp, #16
	bl	_ZN9__gnu_cxx13__scoped_lockD1Ev(PLT)
.L832:
.LEHB15:
	bl	__cxa_end_cleanup(PLT)
.L794:
	cmn	r1, #1
	bne	.L832
	bl	__cxa_call_unexpected(PLT)
.L842:
	mov	r0, #4
	bl	__cxa_allocate_exception(PLT)
	ldr	r1, .L845+20
	ldr	r2, .L845+24
	ldr	r3, .L845+28
	ldr	r1, [r7, r1]
	add	r1, r1, #8
	str	r1, [r0]
	ldr	r2, [r7, r2]
	ldr	r1, [r7, r3]
	bl	__cxa_throw(PLT)
.L752:
	bl	_ZSt20__throw_bad_weak_ptrv(PLT)
.LEHE15:
.L846:
	.align	2
.L845:
	.word	_GLOBAL_OFFSET_TABLE_-(.LPIC80+8)
	.word	_ZL28__gthrw___pthread_key_createPjPFvPvE(GOT)
	.word	_ZTVN9__gnu_cxx26__concurrence_unlock_errorE(GOT)
	.word	_ZN9__gnu_cxx26__concurrence_unlock_errorD1Ev(GOT)
	.word	_ZTIN9__gnu_cxx26__concurrence_unlock_errorE(GOT)
	.word	_ZTVN9__gnu_cxx24__concurrence_lock_errorE(GOT)
	.word	_ZN9__gnu_cxx24__concurrence_lock_errorD1Ev(GOT)
	.word	_ZTIN9__gnu_cxx24__concurrence_lock_errorE(GOT)
	.personality	__gxx_personality_v0
	.handlerdata
	.align	2
.LLSDA7495:
	.byte	0xff
	.byte	0x90
	.uleb128 .LLSDATT7495-.LLSDATTD7495
.LLSDATTD7495:
	.byte	0x1
	.uleb128 .LLSDACSE7495-.LLSDACSB7495
.LLSDACSB7495:
	.uleb128 .LEHB10-.LFB7495
	.uleb128 .LEHE10-.LEHB10
	.uleb128 0
	.uleb128 0
	.uleb128 .LEHB11-.LFB7495
	.uleb128 .LEHE11-.LEHB11
	.uleb128 .L792-.LFB7495
	.uleb128 0
	.uleb128 .LEHB12-.LFB7495
	.uleb128 .LEHE12-.LEHB12
	.uleb128 0
	.uleb128 0
	.uleb128 .LEHB13-.LFB7495
	.uleb128 .LEHE13-.LEHB13
	.uleb128 .L793-.LFB7495
	.uleb128 0
	.uleb128 .LEHB14-.LFB7495
	.uleb128 .LEHE14-.LEHB14
	.uleb128 .L794-.LFB7495
	.uleb128 0x1
	.uleb128 .LEHB15-.LFB7495
	.uleb128 .LEHE15-.LEHB15
	.uleb128 0
	.uleb128 0
.LLSDACSE7495:
	.byte	0x7f
	.byte	0
	.align	2
.LLSDATT7495:
	.word	0
	.text
	.fnend
	.size	_ZN8asiodnp39IOHandler5ResetEv, .-_ZN8asiodnp39IOHandler5ResetEv
	.align	2
	.global	_ZN8asiodnp39IOHandler8ShutdownEv
	.syntax unified
	.arm
	.fpu vfp
	.type	_ZN8asiodnp39IOHandler8ShutdownEv, %function
_ZN8asiodnp39IOHandler8ShutdownEv:
	.fnstart
.LFB7458:
	@ args = 0, pretend = 0, frame = 0
	@ frame_needed = 0, uses_anonymous_args = 0
	ldrb	r2, [r0, #64]	@ zero_extendqisi2
	cmp	r2, #0
	bxne	lr
	push	{r4, lr}
	.save {r4, lr}
	mov	r3, #1
	mov	r4, r0
	strb	r3, [r0, #64]
	bl	_ZN8asiodnp39IOHandler5ResetEv(PLT)
	ldr	r3, [r4]
	mov	r0, r4
	ldr	r3, [r3, #28]
	blx	r3
	ldr	r0, [r4, #32]
	cmp	r0, #0
	popeq	{r4, pc}
	ldr	r3, [r0]
	mov	r1, #3
	pop	{r4, lr}
	ldr	r3, [r3, #8]
	bx	r3	@ indirect register sibling call
	.fnend
	.size	_ZN8asiodnp39IOHandler8ShutdownEv, .-_ZN8asiodnp39IOHandler8ShutdownEv
	.align	2
	.global	_ZN8asiodnp39IOHandler14OnReadCompleteERKSt10error_codej
	.syntax unified
	.arm
	.fpu vfp
	.type	_ZN8asiodnp39IOHandler14OnReadCompleteERKSt10error_codej, %function
_ZN8asiodnp39IOHandler14OnReadCompleteERKSt10error_codej:
	.fnstart
.LFB7459:
	@ args = 0, pretend = 0, frame = 32
	@ frame_needed = 0, uses_anonymous_args = 0
	ldr	r3, [r1]
	push	{r4, r5, r6, r7, r8, lr}
	.save {r4, r5, r6, r7, r8, lr}
	cmp	r3, #0
	.pad #32
	sub	sp, sp, #32
	mov	r4, r0
	beq	.L859
	add	r6, sp, #32
	mov	r8, #4
	add	r7, r0, #16
	str	r8, [r6, #-24]!
	mov	r5, r1
	mov	r0, r7
	mov	r1, r6
.LEHB16:
	bl	_ZNK7openpal6Logger9IsEnabledERKNS_10LogFiltersE(PLT)
	cmp	r0, #0
	beq	.L860
	ldr	r1, [r5, #4]
	ldr	r2, [r5]
	mov	r0, r6
	ldr	r3, [r1]
	str	r8, [sp, #4]
	ldr	r3, [r3, #16]
	blx	r3
.LEHE16:
	ldr	r2, .L874
	mov	r0, r7
	ldr	r3, [sp, #8]
.LPIC81:
	add	r2, pc, r2
	add	r1, sp, r8
.LEHB17:
	bl	_ZN7openpal6Logger3LogERKNS_10LogFiltersEPKcS5_(PLT)
.LEHE17:
	ldr	r0, [sp, #8]
	add	r3, sp, #16
	cmp	r0, r3
	beq	.L860
	bl	_ZdlPv(PLT)
.L860:
	mov	r0, r4
.LEHB18:
	bl	_ZN8asiodnp39IOHandler5ResetEv(PLT)
	ldr	r0, [r4, #32]
	cmp	r0, #0
	beq	.L862
	ldr	r3, [r0]
	mov	r1, #1
	ldr	r3, [r3, #8]
	blx	r3
.L862:
	ldr	r3, [r4]
	mov	r0, r4
	ldr	r3, [r3, #32]
	blx	r3
	add	sp, sp, #32
	@ sp needed
	pop	{r4, r5, r6, r7, r8, pc}
.L859:
	ldr	r3, [r0, #52]
	mov	r1, r2
	add	r2, r3, r2
	str	r2, [r0, #52]
	mov	r2, r0
	add	r0, r0, #120
	bl	_ZN8opendnp315LinkLayerParser6OnReadEjRNS_10IFrameSinkE(PLT)
	mov	r0, r4
	bl	_ZN8asiodnp39IOHandler9BeginReadEv(PLT)
	add	sp, sp, #32
	@ sp needed
	pop	{r4, r5, r6, r7, r8, pc}
.L866:
	ldr	r0, [sp, #8]
	add	r6, r6, #8
	cmp	r0, r6
	beq	.L865
	bl	_ZdlPv(PLT)
.L865:
	bl	__cxa_end_cleanup(PLT)
.LEHE18:
.L875:
	.align	2
.L874:
	.word	.LC25-(.LPIC81+8)
	.personality	__gxx_personality_v0
	.handlerdata
.LLSDA7459:
	.byte	0xff
	.byte	0xff
	.byte	0x1
	.uleb128 .LLSDACSE7459-.LLSDACSB7459
.LLSDACSB7459:
	.uleb128 .LEHB16-.LFB7459
	.uleb128 .LEHE16-.LEHB16
	.uleb128 0
	.uleb128 0
	.uleb128 .LEHB17-.LFB7459
	.uleb128 .LEHE17-.LEHB17
	.uleb128 .L866-.LFB7459
	.uleb128 0
	.uleb128 .LEHB18-.LFB7459
	.uleb128 .LEHE18-.LEHB18
	.uleb128 0
	.uleb128 0
.LLSDACSE7459:
	.text
	.fnend
	.size	_ZN8asiodnp39IOHandler14OnReadCompleteERKSt10error_codej, .-_ZN8asiodnp39IOHandler14OnReadCompleteERKSt10error_codej
	.set	.LTHUNK2,_ZN8asiodnp39IOHandler14OnReadCompleteERKSt10error_codej
	.align	2
	.global	_ZThn4_N8asiodnp39IOHandler14OnReadCompleteERKSt10error_codej
	.syntax unified
	.arm
	.fpu vfp
	.type	_ZThn4_N8asiodnp39IOHandler14OnReadCompleteERKSt10error_codej, %function
_ZThn4_N8asiodnp39IOHandler14OnReadCompleteERKSt10error_codej:
	.fnstart
.LFB10078:
	@ args = 0, pretend = 0, frame = 0
	@ frame_needed = 0, uses_anonymous_args = 0
	sub	r0, r0, #4
	b	.LTHUNK2(PLT)
	.fnend
	.size	_ZThn4_N8asiodnp39IOHandler14OnReadCompleteERKSt10error_codej, .-_ZThn4_N8asiodnp39IOHandler14OnReadCompleteERKSt10error_codej
	.align	2
	.global	_ZN8asiodnp39IOHandler15OnWriteCompleteERKSt10error_codej
	.syntax unified
	.arm
	.fpu vfp
	.type	_ZN8asiodnp39IOHandler15OnWriteCompleteERKSt10error_codej, %function
_ZN8asiodnp39IOHandler15OnWriteCompleteERKSt10error_codej:
	.fnstart
.LFB7460:
	@ args = 0, pretend = 0, frame = 32
	@ frame_needed = 0, uses_anonymous_args = 0
	ldr	r3, [r1]
	push	{r4, r5, r6, r7, r8, lr}
	.save {r4, r5, r6, r7, r8, lr}
	cmp	r3, #0
	ldr	r6, .L951
	.pad #32
	sub	sp, sp, #32
	mov	r4, r0
.LPIC83:
	add	r6, pc, r6
	bne	.L946
	ldr	r1, [r0, #56]
	ldr	r3, [r0, #88]
	ldr	r0, [r0, #104]
	add	r2, r1, r2
	cmp	r0, r3
	str	r2, [r4, #56]
	beq	.L882
	ldr	r5, [r3, #12]
	ldr	r8, [r3, #8]
	cmp	r5, #0
	beq	.L883
	ldr	r2, .L951+4
	ldr	r2, [r6, r2]
	cmp	r2, #0
	beq	.L884
	add	r3, r5, #28
	mcr	p15, 0, r0, c7, c10, 5
.L937:
	ldrex	r1, [r3]
	add	r1, r1, #1
	strex	r0, r1, [r3]
	cmp	r0, #0
	bne	.L937
	mcr	p15, 0, r0, c7, c10, 5
	ldr	r1, [r4, #96]
	ldr	r3, [r4, #88]
	sub	r1, r1, #16
	cmp	r3, r1
	ldr	r7, [r3, #12]
	beq	.L947
	cmp	r7, #0
	beq	.L889
	cmp	r2, #0
	beq	.L887
	add	r3, r7, #28
	mcr	p15, 0, r0, c7, c10, 5
.L936:
	ldrex	r2, [r3]
	sub	r1, r2, #1
	strex	r0, r1, [r3]
	cmp	r0, #0
	bne	.L936
	cmp	r2, #1
	mcr	p15, 0, r0, c7, c10, 5
	beq	.L948
.L939:
	ldr	r3, [r4, #88]
.L889:
	add	r3, r3, #16
	str	r3, [r4, #88]
.L893:
	ldr	r3, [r8]
	mov	r0, r8
	mov	r1, #1
	ldr	r3, [r3, #12]
.LEHB19:
	blx	r3
.LEHE19:
	cmp	r5, #0
	beq	.L882
	ldr	r3, .L951+4
	ldr	r3, [r6, r3]
	cmp	r3, #0
	beq	.L901
	add	r3, r5, #28
	mcr	p15, 0, r0, c7, c10, 5
.L934:
	ldrex	r2, [r3]
	sub	r1, r2, #1
	strex	r0, r1, [r3]
	cmp	r0, #0
	bne	.L934
	cmp	r2, #1
	mcr	p15, 0, r0, c7, c10, 5
	beq	.L949
.L882:
	mov	r0, r4
.LEHB20:
	bl	_ZN8asiodnp39IOHandler12CheckForSendEv(PLT)
	add	sp, sp, #32
	@ sp needed
	pop	{r4, r5, r6, r7, r8, pc}
.L884:
	ldr	r0, [r4, #96]
	ldr	r1, [r5, #28]
	sub	r0, r0, #16
	add	r1, r1, #1
	cmp	r3, r0
	mov	r7, r5
	str	r1, [r5, #28]
	beq	.L888
.L887:
	ldr	r2, [r7, #28]
	cmp	r2, #1
	sub	r2, r2, #1
	str	r2, [r7, #28]
	bne	.L889
	ldr	r3, [r7]
	mov	r0, r7
	ldr	r3, [r3, #8]
	blx	r3
	mcr	p15, 0, r0, c7, c10, 5
	ldr	r2, [r7, #32]
	sub	r3, r2, #1
	str	r3, [r7, #32]
	b	.L909
.L946:
	add	r6, sp, #32
	mov	r8, #4
	add	r7, r0, #16
	str	r8, [r6, #-24]!
	mov	r5, r1
	mov	r0, r7
	mov	r1, r6
	bl	_ZNK7openpal6Logger9IsEnabledERKNS_10LogFiltersE(PLT)
	cmp	r0, #0
	beq	.L878
	ldr	r1, [r5, #4]
	ldr	r2, [r5]
	mov	r0, r6
	ldr	r3, [r1]
	str	r8, [sp, #4]
	ldr	r3, [r3, #16]
	blx	r3
.LEHE20:
	ldr	r2, .L951+8
	mov	r0, r7
	ldr	r3, [sp, #8]
.LPIC82:
	add	r2, pc, r2
	add	r1, sp, r8
.LEHB21:
	bl	_ZN7openpal6Logger3LogERKNS_10LogFiltersEPKcS5_(PLT)
.LEHE21:
	ldr	r0, [sp, #8]
	add	r3, sp, #16
	cmp	r0, r3
	beq	.L878
	bl	_ZdlPv(PLT)
.L878:
	mov	r0, r4
.LEHB22:
	bl	_ZN8asiodnp39IOHandler5ResetEv(PLT)
	ldr	r0, [r4, #32]
	cmp	r0, #0
	beq	.L880
	ldr	r3, [r0]
	mov	r1, #1
	ldr	r3, [r3, #8]
	blx	r3
.L880:
	ldr	r3, [r4]
	mov	r0, r4
	ldr	r3, [r3, #32]
	blx	r3
	add	sp, sp, #32
	@ sp needed
	pop	{r4, r5, r6, r7, r8, pc}
.L949:
	ldr	r3, [r5]
	mov	r0, r5
	ldr	r3, [r3, #8]
	blx	r3
	add	r3, r5, #32
	mcr	p15, 0, r0, c7, c10, 5
	mcr	p15, 0, r0, c7, c10, 5
.L931:
	ldrex	r2, [r3]
	sub	r1, r2, #1
	strex	r0, r1, [r3]
	cmp	r0, #0
	bne	.L931
	mcr	p15, 0, r0, c7, c10, 5
.L911:
	cmp	r2, #1
	bne	.L882
	ldr	r3, [r5]
	mov	r0, r5
	ldr	r3, [r3, #12]
	blx	r3
	b	.L882
.L901:
	ldr	r3, [r5, #28]
	cmp	r3, #1
	sub	r3, r3, #1
	str	r3, [r5, #28]
	bne	.L882
	ldr	r3, [r5]
	mov	r0, r5
	ldr	r3, [r3, #8]
	blx	r3
	mcr	p15, 0, r0, c7, c10, 5
	ldr	r2, [r5, #32]
	sub	r3, r2, #1
	str	r3, [r5, #32]
	b	.L911
.L948:
	ldr	r3, [r7]
	mov	r0, r7
	ldr	r3, [r3, #8]
	blx	r3
	add	r3, r7, #32
	mcr	p15, 0, r0, c7, c10, 5
	mcr	p15, 0, r0, c7, c10, 5
.L933:
	ldrex	r2, [r3]
	sub	r1, r2, #1
	strex	r0, r1, [r3]
	cmp	r0, #0
	bne	.L933
	mcr	p15, 0, r0, c7, c10, 5
.L909:
	cmp	r2, #1
	bne	.L939
	ldr	r3, [r7]
	mov	r0, r7
	ldr	r3, [r3, #12]
	blx	r3
	b	.L939
.L883:
	ldr	r2, [r4, #96]
	sub	r2, r2, #16
	cmp	r3, r2
	bne	.L889
	b	.L894
.L947:
	cmp	r7, #0
	beq	.L894
.L888:
	cmp	r2, #0
	beq	.L895
	add	r3, r7, #28
	mcr	p15, 0, r0, c7, c10, 5
.L935:
	ldrex	r2, [r3]
	sub	r1, r2, #1
	strex	r0, r1, [r3]
	cmp	r0, #0
	bne	.L935
	cmp	r2, #1
	mcr	p15, 0, r0, c7, c10, 5
	beq	.L950
.L894:
	ldr	r0, [r4, #92]
	bl	_ZdlPv(PLT)
	ldr	r3, [r4, #100]
	add	r2, r3, #4
	ldr	r3, [r3, #4]
	str	r2, [r4, #100]
	add	r2, r3, #512
	str	r3, [r4, #92]
	str	r3, [r4, #88]
	str	r2, [r4, #96]
	b	.L893
.L895:
	ldr	r3, [r7, #28]
	cmp	r3, #1
	sub	r3, r3, #1
	str	r3, [r7, #28]
	bne	.L894
	ldr	r3, [r7]
	mov	r0, r7
	ldr	r3, [r3, #8]
	blx	r3
	mcr	p15, 0, r0, c7, c10, 5
	ldr	r2, [r7, #32]
	sub	r3, r2, #1
	str	r3, [r7, #32]
.L910:
	cmp	r2, #1
	bne	.L894
	ldr	r3, [r7]
	mov	r0, r7
	ldr	r3, [r3, #12]
	blx	r3
	b	.L894
.L950:
	ldr	r3, [r7]
	mov	r0, r7
	ldr	r3, [r3, #8]
	blx	r3
	add	r3, r7, #32
	mcr	p15, 0, r0, c7, c10, 5
	mcr	p15, 0, r0, c7, c10, 5
.L932:
	ldrex	r2, [r3]
	sub	r1, r2, #1
	strex	r0, r1, [r3]
	cmp	r0, #0
	bne	.L932
	mcr	p15, 0, r0, c7, c10, 5
	b	.L910
.L913:
	ldr	r0, [sp, #8]
	add	r6, r6, #8
	cmp	r0, r6
	beq	.L908
	bl	_ZdlPv(PLT)
.L908:
	bl	__cxa_end_cleanup(PLT)
.LEHE22:
.L914:
	cmp	r5, #0
	beq	.L908
	mov	r0, r5
	bl	_ZNSt16_Sp_counted_baseILN9__gnu_cxx12_Lock_policyE1EE10_M_releaseEv(PLT)
	b	.L908
.L952:
	.align	2
.L951:
	.word	_GLOBAL_OFFSET_TABLE_-(.LPIC83+8)
	.word	_ZL28__gthrw___pthread_key_createPjPFvPvE(GOT)
	.word	.LC26-(.LPIC82+8)
	.personality	__gxx_personality_v0
	.handlerdata
.LLSDA7460:
	.byte	0xff
	.byte	0xff
	.byte	0x1
	.uleb128 .LLSDACSE7460-.LLSDACSB7460
.LLSDACSB7460:
	.uleb128 .LEHB19-.LFB7460
	.uleb128 .LEHE19-.LEHB19
	.uleb128 .L914-.LFB7460
	.uleb128 0
	.uleb128 .LEHB20-.LFB7460
	.uleb128 .LEHE20-.LEHB20
	.uleb128 0
	.uleb128 0
	.uleb128 .LEHB21-.LFB7460
	.uleb128 .LEHE21-.LEHB21
	.uleb128 .L913-.LFB7460
	.uleb128 0
	.uleb128 .LEHB22-.LFB7460
	.uleb128 .LEHE22-.LEHB22
	.uleb128 0
	.uleb128 0
.LLSDACSE7460:
	.text
	.fnend
	.size	_ZN8asiodnp39IOHandler15OnWriteCompleteERKSt10error_codej, .-_ZN8asiodnp39IOHandler15OnWriteCompleteERKSt10error_codej
	.set	.LTHUNK3,_ZN8asiodnp39IOHandler15OnWriteCompleteERKSt10error_codej
	.align	2
	.global	_ZThn4_N8asiodnp39IOHandler15OnWriteCompleteERKSt10error_codej
	.syntax unified
	.arm
	.fpu vfp
	.type	_ZThn4_N8asiodnp39IOHandler15OnWriteCompleteERKSt10error_codej, %function
_ZThn4_N8asiodnp39IOHandler15OnWriteCompleteERKSt10error_codej:
	.fnstart
.LFB10079:
	@ args = 0, pretend = 0, frame = 0
	@ frame_needed = 0, uses_anonymous_args = 0
	sub	r0, r0, #4
	b	.LTHUNK3(PLT)
	.fnend
	.size	_ZThn4_N8asiodnp39IOHandler15OnWriteCompleteERKSt10error_codej, .-_ZThn4_N8asiodnp39IOHandler15OnWriteCompleteERKSt10error_codej
	.align	2
	.global	_ZN8asiodnp39IOHandler7DisableERKSt10shared_ptrIN8opendnp312ILinkSessionEE
	.syntax unified
	.arm
	.fpu vfp
	.type	_ZN8asiodnp39IOHandler7DisableERKSt10shared_ptrIN8opendnp312ILinkSessionEE, %function
_ZN8asiodnp39IOHandler7DisableERKSt10shared_ptrIN8opendnp312ILinkSessionEE:
	.fnstart
.LFB7471:
	@ args = 0, pretend = 0, frame = 0
	@ frame_needed = 0, uses_anonymous_args = 0
	push	{r4, r5, r6, lr}
	.save {r4, r5, r6, lr}
	ldr	ip, [r0, #68]
	ldr	r5, [r0, #72]
	sub	r3, r5, ip
	asr	r4, r3, #6
	cmp	r4, #0
	ble	.L978
	ldr	r2, [r1]
	ldr	r3, [ip, #8]
	cmp	r2, r3
	beq	.L979
	ldr	r3, [ip, #24]
	cmp	r3, r2
	addeq	r3, ip, #16
	beq	.L963
	ldr	r3, [ip, #40]
	cmp	r3, r2
	addeq	r3, ip, #32
	beq	.L963
	ldr	r3, [ip, #56]
	cmp	r2, r3
	addne	r4, ip, r4, lsl #6
	bne	.L966
	b	.L997
.L968:
	ldr	lr, [r3, #8]
	cmp	r2, lr
	beq	.L963
	ldr	lr, [r3, #24]
	cmp	r2, lr
	beq	.L998
	ldr	lr, [r3, #40]
	cmp	r2, lr
	beq	.L999
	ldr	lr, [r3, #56]
	cmp	r2, lr
	beq	.L1000
	mov	ip, r3
.L966:
	add	r3, ip, #64
	cmp	r4, r3
	bne	.L968
	sub	r3, r5, r4
	asr	r3, r3, #4
.L954:
	cmp	r3, #2
	beq	.L970
	cmp	r3, #3
	beq	.L971
	cmp	r3, #1
	beq	.L1001
.L985:
	mov	r5, #0
	mov	r0, r5
	pop	{r4, r5, r6, pc}
.L979:
	mov	r3, ip
.L963:
	cmp	r5, r3
	beq	.L985
	ldrb	r5, [r3]	@ zero_extendqisi2
	cmp	r5, #0
	beq	.L977
	ldr	r1, [r0, #496]
	mov	r2, #0
	cmp	r1, r2
	mov	r4, r0
	strb	r2, [r3]
	beq	.L976
	ldrb	r1, [r3, #6]	@ zero_extendqisi2
	cmp	r1, r2
	bne	.L1002
.L976:
	mov	r0, r4
	bl	_ZNK8asiodnp39IOHandler19IsAnySessionEnabledEv(PLT)
	cmp	r0, #0
	beq	.L1003
.L977:
	mov	r5, #1
	mov	r0, r5
	pop	{r4, r5, r6, pc}
.L1003:
	mov	r0, r4
	bl	_ZN8asiodnp39IOHandler5ResetEv(PLT)
	ldr	r3, [r4]
	mov	r0, r4
	ldr	r3, [r3, #24]
	blx	r3
	mov	r0, r5
	pop	{r4, r5, r6, pc}
.L1002:
	ldr	r1, [r3, #8]
	strb	r2, [r3, #6]
	mov	r0, r1
	ldr	r3, [r1]
	ldr	r3, [r3, #20]
	blx	r3
	mov	r0, r4
	bl	_ZNK8asiodnp39IOHandler19IsAnySessionEnabledEv(PLT)
	cmp	r0, #0
	bne	.L977
	b	.L1003
.L998:
	add	r3, ip, #80
	b	.L963
.L999:
	add	r3, ip, #96
	b	.L963
.L1000:
	add	r3, ip, #112
	b	.L963
.L971:
	ldr	r3, [r1]
	ldr	r2, [r4, #8]
	cmp	r2, r3
	beq	.L983
	add	r4, r4, #16
	b	.L973
.L970:
	ldr	r3, [r1]
.L973:
	ldr	r2, [r4, #8]
	cmp	r2, r3
	beq	.L983
	add	r4, r4, #16
.L974:
	ldr	r2, [r4, #8]
	cmp	r2, r3
	bne	.L985
.L983:
	mov	r3, r4
	b	.L963
.L1001:
	ldr	r3, [r1]
	b	.L974
.L978:
	asr	r3, r3, #4
	mov	r4, ip
	b	.L954
.L997:
	add	r3, ip, #48
	b	.L963
	.fnend
	.size	_ZN8asiodnp39IOHandler7DisableERKSt10shared_ptrIN8opendnp312ILinkSessionEE, .-_ZN8asiodnp39IOHandler7DisableERKSt10shared_ptrIN8opendnp312ILinkSessionEE
	.align	2
	.global	_ZN8asiodnp39IOHandler12OnNewChannelERKSt10shared_ptrIN7asiopal13IAsyncChannelEE
	.syntax unified
	.arm
	.fpu vfp
	.type	_ZN8asiodnp39IOHandler12OnNewChannelERKSt10shared_ptrIN7asiopal13IAsyncChannelEE, %function
_ZN8asiodnp39IOHandler12OnNewChannelERKSt10shared_ptrIN7asiopal13IAsyncChannelEE:
	.fnstart
.LFB7475:
	@ args = 0, pretend = 0, frame = 8
	@ frame_needed = 0, uses_anonymous_args = 0
	push	{r4, r5, r6, r7, r8, r9, lr}
	.save {r4, r5, r6, r7, r8, r9, lr}
	mov	r5, r0
	mov	r6, r1
	.pad #12
	sub	sp, sp, #12
.LEHB23:
	bl	_ZN8asiodnp39IOHandler5ResetEv(PLT)
	ldr	r4, [r6, #4]
	ldr	r3, [r5, #40]
	ldr	r7, [r5, #500]
	ldr	r6, [r6]
	ldr	r8, .L1096
	add	r3, r3, #1
	cmp	r4, r7
	str	r3, [r5, #40]
	str	r6, [r5, #496]
.LPIC84:
	add	r8, pc, r8
	beq	.L1005
	cmp	r4, #0
	beq	.L1006
	ldr	r3, .L1096+4
	ldr	r3, [r8, r3]
	cmp	r3, #0
	beq	.L1007
	add	r3, r4, #28
	mcr	p15, 0, r0, c7, c10, 5
.L1080:
	ldrex	r2, [r3]
	add	r2, r2, #1
	strex	r1, r2, [r3]
	cmp	r1, #0
	bne	.L1080
	mcr	p15, 0, r0, c7, c10, 5
	ldr	r7, [r5, #500]
	cmp	r7, #0
	beq	.L1083
.L1082:
	add	r3, r7, #28
	mcr	p15, 0, r0, c7, c10, 5
.L1079:
	ldrex	r2, [r3]
	sub	r1, r2, #1
	strex	r0, r1, [r3]
	cmp	r0, #0
	bne	.L1079
	cmp	r2, #1
	mcr	p15, 0, r0, c7, c10, 5
	beq	.L1091
.L1083:
	ldr	r6, [r5, #496]
.L1009:
	str	r4, [r5, #500]
.L1005:
	ldr	r4, [r5, #12]
	cmp	r4, #0
	beq	.L1014
	ldr	r3, .L1096+4
	add	r0, r4, #4
	str	r0, [sp, #4]
	ldr	r9, [r8, r3]
	cmp	r9, #0
	beq	.L1015
	bl	_ZL26__gthrw_pthread_mutex_lockP15pthread_mutex_t(PLT)
	cmp	r0, #0
	bne	.L1092
	add	r7, r4, #28
	mcr	p15, 0, r0, c7, c10, 5
.L1075:
	ldrex	r3, [r7]
	add	r2, r3, #1
	strex	r1, r2, [r7]
	cmp	r1, #0
	bne	.L1075
	cmp	r3, #0
	mcr	p15, 0, r0, c7, c10, 5
	beq	.L1040
	ldr	r0, [sp, #4]
	bl	_ZL28__gthrw_pthread_mutex_unlockP15pthread_mutex_t(PLT)
	cmp	r0, #0
	bne	.L1093
.L1044:
	ldr	r3, [r5, #8]
	ldr	r8, [r6, #24]
	cmp	r3, #0
	addne	r3, r3, #4
	cmp	r4, r8
	str	r3, [r6, #20]
	beq	.L1022
	cmp	r9, #0
	beq	.L1023
	mcr	p15, 0, r0, c7, c10, 5
.L1078:
	ldrex	r3, [r7]
	add	r3, r3, #1
	strex	r2, r3, [r7]
	cmp	r2, #0
	bne	.L1078
	mcr	p15, 0, r0, c7, c10, 5
	ldr	r8, [r6, #24]
	cmp	r8, #0
	beq	.L1025
	add	r3, r8, #28
	mcr	p15, 0, r0, c7, c10, 5
.L1074:
	ldrex	r2, [r3]
	sub	r1, r2, #1
	strex	r0, r1, [r3]
	cmp	r0, #0
	bne	.L1074
	cmp	r2, #1
	mcr	p15, 0, r0, c7, c10, 5
	beq	.L1094
.L1025:
	str	r4, [r6, #24]
.L1022:
	cmp	r9, #0
	beq	.L1028
	mcr	p15, 0, r0, c7, c10, 5
.L1077:
	ldrex	r3, [r7]
	sub	r2, r3, #1
	strex	r1, r2, [r7]
	cmp	r1, #0
	bne	.L1077
	cmp	r3, #1
	mcr	p15, 0, r0, c7, c10, 5
	beq	.L1095
.L1030:
	ldr	r0, [r5, #32]
	cmp	r0, #0
	beq	.L1033
	ldr	r3, [r0]
	mov	r1, #2
	ldr	r3, [r3, #8]
	blx	r3
.L1033:
	mov	r0, r5
	bl	_ZN8asiodnp39IOHandler9BeginReadEv(PLT)
	ldr	r4, [r5, #68]
	ldr	r6, [r5, #72]
	mov	r3, #1
	cmp	r4, r6
	strb	r3, [r5, #508]
	beq	.L1004
	mov	r5, r3
	b	.L1036
.L1035:
	add	r4, r4, #16
	cmp	r6, r4
	beq	.L1004
.L1036:
	ldrb	r3, [r4]	@ zero_extendqisi2
	cmp	r3, #0
	beq	.L1035
	ldrb	r3, [r4, #6]	@ zero_extendqisi2
	cmp	r3, #0
	bne	.L1035
	ldr	r3, [r4, #8]
	strb	r5, [r4, #6]
	mov	r0, r3
	ldr	r3, [r3]
	add	r4, r4, #16
	ldr	r3, [r3, #16]
	blx	r3
.LEHE23:
	cmp	r6, r4
	bne	.L1036
.L1004:
	add	sp, sp, #12
	@ sp needed
	pop	{r4, r5, r6, r7, r8, r9, pc}
.L1015:
	ldr	r3, [r4, #28]
	cmp	r3, #0
	add	r3, r3, #1
	str	r3, [r4, #28]
	addne	r7, r4, #28
	bne	.L1044
.L1040:
	mov	r3, #0
	str	r3, [r4, #28]
.LEHB24:
	bl	_ZSt20__throw_bad_weak_ptrv(PLT)
.LEHE24:
.L1007:
	ldr	r3, [r4, #28]
	cmp	r7, #0
	add	r3, r3, #1
	str	r3, [r4, #28]
	beq	.L1009
.L1010:
	ldr	r3, [r7, #28]
	cmp	r3, #1
	sub	r3, r3, #1
	str	r3, [r7, #28]
	bne	.L1009
	ldr	r3, [r7]
	mov	r0, r7
	ldr	r3, [r3, #8]
	blx	r3
	mcr	p15, 0, r0, c7, c10, 5
	ldr	r2, [r7, #32]
	sub	r3, r2, #1
	str	r3, [r7, #32]
	b	.L1039
.L1023:
	ldr	r3, [r4, #28]
	cmp	r8, #0
	add	r3, r3, #1
	str	r3, [r4, #28]
	beq	.L1025
	ldr	r3, [r8, #28]
	cmp	r3, #1
	sub	r3, r3, #1
	str	r3, [r8, #28]
	bne	.L1025
	ldr	r3, [r8]
	mov	r0, r8
	ldr	r3, [r3, #8]
	blx	r3
	mcr	p15, 0, r0, c7, c10, 5
	ldr	r2, [r8, #32]
	sub	r3, r2, #1
	str	r3, [r8, #32]
	b	.L1047
.L1028:
	ldr	r3, [r4, #28]
	cmp	r3, #1
	sub	r3, r3, #1
	str	r3, [r4, #28]
	bne	.L1030
	ldr	r3, [r4]
	mov	r0, r4
	ldr	r3, [r3, #8]
	blx	r3
	mcr	p15, 0, r0, c7, c10, 5
	ldr	r2, [r4, #32]
	sub	r3, r2, #1
	str	r3, [r4, #32]
	b	.L1048
.L1091:
	ldr	r3, [r7]
	mov	r0, r7
	ldr	r3, [r3, #8]
	blx	r3
	add	r3, r7, #32
	mcr	p15, 0, r0, c7, c10, 5
	mcr	p15, 0, r0, c7, c10, 5
.L1076:
	ldrex	r2, [r3]
	sub	r1, r2, #1
	strex	r0, r1, [r3]
	cmp	r0, #0
	bne	.L1076
	mcr	p15, 0, r0, c7, c10, 5
.L1039:
	cmp	r2, #1
	bne	.L1083
	ldr	r3, [r7]
	mov	r0, r7
	ldr	r3, [r3, #12]
	blx	r3
	b	.L1083
.L1094:
	ldr	r3, [r8]
	mov	r0, r8
	ldr	r3, [r3, #8]
	blx	r3
	add	r3, r8, #32
	mcr	p15, 0, r0, c7, c10, 5
	mcr	p15, 0, r0, c7, c10, 5
.L1073:
	ldrex	r2, [r3]
	sub	r1, r2, #1
	strex	r0, r1, [r3]
	cmp	r0, #0
	bne	.L1073
	mcr	p15, 0, r0, c7, c10, 5
.L1047:
	cmp	r2, #1
	bne	.L1025
	ldr	r3, [r8]
	mov	r0, r8
	ldr	r3, [r3, #12]
	blx	r3
	b	.L1025
.L1006:
	cmp	r7, #0
	beq	.L1009
	ldr	r3, .L1096+4
	ldr	r3, [r8, r3]
	cmp	r3, #0
	bne	.L1082
	b	.L1010
.L1095:
	ldr	r3, [r4]
	mov	r0, r4
	ldr	r3, [r3, #8]
	blx	r3
	add	r3, r4, #32
	mcr	p15, 0, r0, c7, c10, 5
	mcr	p15, 0, r0, c7, c10, 5
.L1072:
	ldrex	r2, [r3]
	sub	r1, r2, #1
	strex	r0, r1, [r3]
	cmp	r0, #0
	bne	.L1072
	mcr	p15, 0, r0, c7, c10, 5
.L1048:
	cmp	r2, #1
	bne	.L1030
	ldr	r3, [r4]
	mov	r0, r4
	ldr	r3, [r3, #12]
	blx	r3
	b	.L1030
.L1049:
	add	r0, sp, #4
	bl	_ZN9__gnu_cxx13__scoped_lockD1Ev(PLT)
.L1084:
.LEHB25:
	bl	__cxa_end_cleanup(PLT)
.LEHE25:
.L1093:
	mov	r0, #4
	bl	__cxa_allocate_exception(PLT)
	ldr	r1, .L1096+8
	ldr	r2, .L1096+12
	ldr	r3, .L1096+16
	ldr	r1, [r8, r1]
	add	r1, r1, #8
	str	r1, [r0]
	ldr	r2, [r8, r2]
	ldr	r1, [r8, r3]
.LEHB26:
	bl	__cxa_throw(PLT)
.LEHE26:
.L1014:
.LEHB27:
	bl	_ZSt20__throw_bad_weak_ptrv(PLT)
.L1092:
	mov	r0, #4
	bl	__cxa_allocate_exception(PLT)
	ldr	r1, .L1096+20
	ldr	r2, .L1096+24
	ldr	r3, .L1096+28
	ldr	r1, [r8, r1]
	add	r1, r1, #8
	str	r1, [r0]
	ldr	r2, [r8, r2]
	ldr	r1, [r8, r3]
	bl	__cxa_throw(PLT)
.L1050:
	cmn	r1, #1
	bne	.L1084
	bl	__cxa_call_unexpected(PLT)
.LEHE27:
.L1097:
	.align	2
.L1096:
	.word	_GLOBAL_OFFSET_TABLE_-(.LPIC84+8)
	.word	_ZL28__gthrw___pthread_key_createPjPFvPvE(GOT)
	.word	_ZTVN9__gnu_cxx26__concurrence_unlock_errorE(GOT)
	.word	_ZN9__gnu_cxx26__concurrence_unlock_errorD1Ev(GOT)
	.word	_ZTIN9__gnu_cxx26__concurrence_unlock_errorE(GOT)
	.word	_ZTVN9__gnu_cxx24__concurrence_lock_errorE(GOT)
	.word	_ZN9__gnu_cxx24__concurrence_lock_errorD1Ev(GOT)
	.word	_ZTIN9__gnu_cxx24__concurrence_lock_errorE(GOT)
	.personality	__gxx_personality_v0
	.handlerdata
	.align	2
.LLSDA7475:
	.byte	0xff
	.byte	0x90
	.uleb128 .LLSDATT7475-.LLSDATTD7475
.LLSDATTD7475:
	.byte	0x1
	.uleb128 .LLSDACSE7475-.LLSDACSB7475
.LLSDACSB7475:
	.uleb128 .LEHB23-.LFB7475
	.uleb128 .LEHE23-.LEHB23
	.uleb128 0
	.uleb128 0
	.uleb128 .LEHB24-.LFB7475
	.uleb128 .LEHE24-.LEHB24
	.uleb128 .L1049-.LFB7475
	.uleb128 0
	.uleb128 .LEHB25-.LFB7475
	.uleb128 .LEHE25-.LEHB25
	.uleb128 0
	.uleb128 0
	.uleb128 .LEHB26-.LFB7475
	.uleb128 .LEHE26-.LEHB26
	.uleb128 .L1050-.LFB7475
	.uleb128 0x1
	.uleb128 .LEHB27-.LFB7475
	.uleb128 .LEHE27-.LEHB27
	.uleb128 0
	.uleb128 0
.LLSDACSE7475:
	.byte	0x7f
	.byte	0
	.align	2
.LLSDATT7475:
	.word	0
	.text
	.fnend
	.size	_ZN8asiodnp39IOHandler12OnNewChannelERKSt10shared_ptrIN7asiopal13IAsyncChannelEE, .-_ZN8asiodnp39IOHandler12OnNewChannelERKSt10shared_ptrIN7asiopal13IAsyncChannelEE
	.section	.text._ZNSt5dequeIN8asiodnp39IOHandler12TransmissionESaIS2_EED2Ev,"axG",%progbits,_ZNSt5dequeIN8asiodnp39IOHandler12TransmissionESaIS2_EED5Ev,comdat
	.align	2
	.weak	_ZNSt5dequeIN8asiodnp39IOHandler12TransmissionESaIS2_EED2Ev
	.syntax unified
	.arm
	.fpu vfp
	.type	_ZNSt5dequeIN8asiodnp39IOHandler12TransmissionESaIS2_EED2Ev, %function
_ZNSt5dequeIN8asiodnp39IOHandler12TransmissionESaIS2_EED2Ev:
	.fnstart
.LFB8284:
	@ args = 0, pretend = 0, frame = 32
	@ frame_needed = 0, uses_anonymous_args = 0
	push	{r4, r5, r6, lr}
	sub	sp, sp, #32
	ldr	lr, [r0, #8]
	ldr	ip, [r0, #12]
	ldr	r3, [r0, #16]
	ldr	r1, [r0, #20]
	ldr	r4, [r0, #24]
	mov	r5, r0
	str	lr, [sp]
	str	ip, [sp, #4]
	ldr	lr, [r0, #28]
	ldr	ip, [r0, #32]
	str	r3, [sp, #8]
	ldr	r3, [r0, #36]
	str	r1, [sp, #12]
	add	r2, sp, #16
	mov	r1, sp
	str	r4, [sp, #16]
	str	lr, [sp, #20]
	str	ip, [sp, #24]
	str	r3, [sp, #28]
	bl	_ZNSt5dequeIN8asiodnp39IOHandler12TransmissionESaIS2_EE19_M_destroy_data_auxESt15_Deque_iteratorIS2_RS2_PS2_ES8_(PLT)
	ldr	r0, [r5]
	cmp	r0, #0
	beq	.L1099
	ldr	r6, [r5, #36]
	ldr	r4, [r5, #20]
	add	r6, r6, #4
	cmp	r4, r6
	bcs	.L1100
.L1101:
	ldr	r0, [r4], #4
	bl	_ZdlPv(PLT)
	cmp	r6, r4
	bhi	.L1101
	ldr	r0, [r5]
.L1100:
	bl	_ZdlPv(PLT)
.L1099:
	mov	r0, r5
	add	sp, sp, #32
	@ sp needed
	pop	{r4, r5, r6, pc}
	.cantunwind
	.fnend
	.size	_ZNSt5dequeIN8asiodnp39IOHandler12TransmissionESaIS2_EED2Ev, .-_ZNSt5dequeIN8asiodnp39IOHandler12TransmissionESaIS2_EED2Ev
	.weak	_ZNSt5dequeIN8asiodnp39IOHandler12TransmissionESaIS2_EED1Ev
	.set	_ZNSt5dequeIN8asiodnp39IOHandler12TransmissionESaIS2_EED1Ev,_ZNSt5dequeIN8asiodnp39IOHandler12TransmissionESaIS2_EED2Ev
	.text
	.align	2
	.global	_ZN8asiodnp39IOHandlerC2ERKN7openpal6LoggerERKSt10shared_ptrINS_16IChannelListenerEE
	.syntax unified
	.arm
	.fpu vfp
	.type	_ZN8asiodnp39IOHandlerC2ERKN7openpal6LoggerERKSt10shared_ptrINS_16IChannelListenerEE, %function
_ZN8asiodnp39IOHandlerC2ERKN7openpal6LoggerERKSt10shared_ptrINS_16IChannelListenerEE:
	.fnstart
.LFB7456:
	@ args = 0, pretend = 0, frame = 0
	@ frame_needed = 0, uses_anonymous_args = 0
	push	{r4, r5, r6, r7, r8, r9, r10, lr}
	.save {r4, r5, r6, r7, r8, r9, r10, lr}
	mov	r3, #0
	ldr	r7, .L1189
	ldr	ip, .L1189+4
.LPIC85:
	add	r7, pc, r7
	mov	r6, r1
	str	r3, [r0, #8]
	str	r3, [r0, #12]
	ldr	r3, [r1, #4]
	ldr	r1, [r7, ip]
	mov	r4, r0
	ldr	r0, [r6]
	add	ip, r1, #8
	cmp	r3, #0
	add	r1, r1, #52
	str	ip, [r4]
	str	r1, [r4, #4]
	str	r0, [r4, #16]
	str	r3, [r4, #20]
	beq	.L1108
	ldr	r1, .L1189+8
	ldr	r1, [r7, r1]
	cmp	r1, #0
	beq	.L1109
	add	r3, r3, #28
	mcr	p15, 0, r0, c7, c10, 5
.L1180:
	ldrex	r1, [r3]
	add	r1, r1, #1
	strex	r0, r1, [r3]
	cmp	r0, #0
	bne	.L1180
	mcr	p15, 0, r0, c7, c10, 5
	ldr	r3, [r6, #12]
	ldr	r1, [r6, #8]
	cmp	r3, #0
	str	r3, [r4, #28]
	str	r1, [r4, #24]
	addne	r3, r3, #28
	beq	.L1171
.L1142:
	mcr	p15, 0, r0, c7, c10, 5
.L1179:
	ldrex	r1, [r3]
	add	r1, r1, #1
	strex	r0, r1, [r3]
	cmp	r0, #0
	bne	.L1179
	mcr	p15, 0, r0, c7, c10, 5
.L1171:
	ldm	r2, {r2, r3}
	cmp	r3, #0
	str	r2, [r4, #32]
	str	r3, [r4, #36]
	beq	.L1116
.L1145:
	add	r3, r3, #28
	mcr	p15, 0, r0, c7, c10, 5
.L1178:
	ldrex	r2, [r3]
	add	r2, r2, #1
	strex	r1, r2, [r3]
	cmp	r1, #0
	bne	.L1178
	mcr	p15, 0, r0, c7, c10, 5
.L1116:
	mov	r3, #0
	mov	r2, #8
	str	r3, [r4, #40]
	str	r3, [r4, #44]
	str	r3, [r4, #48]
	str	r3, [r4, #52]
	str	r3, [r4, #56]
	str	r3, [r4, #60]
	strb	r3, [r4, #64]
	str	r3, [r4, #68]
	str	r3, [r4, #72]
	str	r3, [r4, #76]
	str	r3, [r4, #80]
	str	r3, [r4, #88]
	str	r3, [r4, #92]
	str	r3, [r4, #96]
	str	r3, [r4, #100]
	str	r3, [r4, #104]
	str	r3, [r4, #108]
	str	r3, [r4, #112]
	str	r3, [r4, #116]
	str	r2, [r4, #84]
	mov	r0, #32
.LEHB28:
	bl	_Znwj(PLT)
.LEHE28:
	ldr	r5, [r4, #84]
	mov	r8, r0
	sub	r5, r5, #1
	str	r0, [r4, #80]
	lsr	r5, r5, #1
	mov	r0, #512
	add	r10, r8, r5, lsl #2
.LEHB29:
	bl	_Znwj(PLT)
.LEHE29:
	add	r2, r0, #512
	mov	r3, r0
	add	r9, r4, #120
	str	r0, [r4, #92]
	str	r0, [r4, #108]
	str	r0, [r4, #88]
	str	r0, [r4, #104]
	str	r2, [r4, #96]
	str	r2, [r4, #112]
	str	r10, [r4, #100]
	str	r10, [r4, #116]
	mov	r1, r6
	mov	r0, r9
	str	r3, [r8, r5, lsl #2]
.LEHB30:
	bl	_ZN8opendnp315LinkLayerParserC1ERKN7openpal6LoggerE(PLT)
.LEHE30:
	mov	r3, #0
	str	r3, [r4, #496]
	str	r3, [r4, #500]
	add	r0, r4, #504
.LEHB31:
	bl	_ZN8opendnp317MultidropTaskLockC1Ev(PLT)
.LEHE31:
	mov	r0, r4
	pop	{r4, r5, r6, r7, r8, r9, r10, pc}
.L1109:
	ldr	r0, [r3, #28]
	ldr	r1, [r6, #12]
	ldr	ip, [r6, #8]
	add	r0, r0, #1
	cmp	r1, #0
	str	r0, [r3, #28]
	str	r1, [r4, #28]
	str	ip, [r4, #24]
	beq	.L1187
.L1112:
	ldr	r3, [r2, #4]
	ldr	r0, [r1, #28]
	ldr	ip, [r2]
	cmp	r3, #0
	add	r2, r0, #1
	str	r2, [r1, #28]
	str	ip, [r4, #32]
	str	r3, [r4, #36]
	beq	.L1116
.L1117:
	ldr	r2, [r3, #28]
	add	r2, r2, #1
	str	r2, [r3, #28]
	b	.L1116
.L1108:
	ldr	r1, [r6, #12]
	ldr	r3, [r6, #8]
	cmp	r1, #0
	str	r1, [r4, #28]
	str	r3, [r4, #24]
	beq	.L1114
	ldr	r3, .L1189+8
	ldr	r3, [r7, r3]
	cmp	r3, #0
	beq	.L1112
	add	r3, r1, #28
	b	.L1142
.L1187:
	ldm	r2, {r2, r3}
	cmp	r3, #0
	str	r2, [r4, #32]
	str	r3, [r4, #36]
	bne	.L1117
	b	.L1116
.L1114:
	ldm	r2, {r2, r3}
	cmp	r3, #0
	str	r2, [r4, #32]
	str	r3, [r4, #36]
	beq	.L1116
	ldr	r2, .L1189+8
	ldr	r2, [r7, r2]
	cmp	r2, #0
	bne	.L1145
	b	.L1117
.L1148:
	ldr	r0, [r4, #500]
	cmp	r0, #0
	beq	.L1125
	bl	_ZNSt16_Sp_counted_baseILN9__gnu_cxx12_Lock_policyE1EE10_M_releaseEv(PLT)
.L1125:
	mov	r0, r9
	bl	_ZN7openpal6LoggerD1Ev(PLT)
.L1126:
	add	r0, r4, #80
	bl	_ZNSt5dequeIN8asiodnp39IOHandler12TransmissionESaIS2_EED1Ev(PLT)
.L1123:
	ldr	r8, [r4, #68]
	ldr	r6, [r4, #72]
	cmp	r8, r6
	beq	.L1127
.L1134:
	ldr	r5, [r8, #12]
	cmp	r5, #0
	beq	.L1129
	ldr	r2, .L1189+8
	add	r3, r5, #28
	ldr	r2, [r7, r2]
	cmp	r2, #0
	beq	.L1130
	mcr	p15, 0, r0, c7, c10, 5
.L1177:
	ldrex	r2, [r3]
	sub	r1, r2, #1
	strex	r0, r1, [r3]
	cmp	r0, #0
	bne	.L1177
	cmp	r2, #1
	mcr	p15, 0, r0, c7, c10, 5
	beq	.L1188
.L1129:
	add	r8, r8, #16
	cmp	r6, r8
	bne	.L1134
	ldr	r6, [r4, #68]
.L1127:
	cmp	r6, #0
	beq	.L1135
	mov	r0, r6
	bl	_ZdlPv(PLT)
.L1135:
	ldr	r0, [r4, #36]
	cmp	r0, #0
	beq	.L1136
	bl	_ZNSt16_Sp_counted_baseILN9__gnu_cxx12_Lock_policyE1EE10_M_releaseEv(PLT)
.L1136:
	add	r0, r4, #16
	bl	_ZN7openpal6LoggerD1Ev(PLT)
	ldr	r0, [r4, #12]
	cmp	r0, #0
	beq	.L1138
	ldr	r3, .L1189+8
	add	r2, r0, #32
	ldr	r3, [r7, r3]
	cmp	r3, #0
	beq	.L1139
	mcr	p15, 0, r0, c7, c10, 5
.L1176:
	ldrex	r3, [r2]
	sub	r1, r3, #1
	strex	ip, r1, [r2]
	cmp	ip, #0
	bne	.L1176
	mcr	p15, 0, r0, c7, c10, 5
.L1140:
	cmp	r3, #1
	bne	.L1138
	mcr	p15, 0, r0, c7, c10, 5
	ldr	r3, [r0]
	ldr	r3, [r3, #12]
	blx	r3
.L1138:
.LEHB32:
	bl	__cxa_end_cleanup(PLT)
.LEHE32:
.L1139:
	ldr	r3, [r0, #32]
	sub	r2, r3, #1
	str	r2, [r0, #32]
	b	.L1140
.L1147:
	b	.L1126
.L1150:
	bl	__cxa_begin_catch(PLT)
.LEHB33:
	bl	__cxa_rethrow(PLT)
.LEHE33:
.L1146:
	b	.L1123
.L1151:
	mov	r5, r0
	bl	__cxa_end_catch(PLT)
	mov	r0, r5
	bl	__cxa_begin_catch(PLT)
	ldr	r0, [r4, #80]
	bl	_ZdlPv(PLT)
	mov	r3, #0
	str	r3, [r4, #80]
	str	r3, [r4, #84]
.LEHB34:
	bl	__cxa_rethrow(PLT)
.LEHE34:
.L1188:
	ldr	r3, [r5]
	mov	r0, r5
	ldr	r3, [r3, #8]
	blx	r3
	add	r2, r5, #32
	mcr	p15, 0, r0, c7, c10, 5
	mcr	p15, 0, r0, c7, c10, 5
.L1175:
	ldrex	r3, [r2]
	sub	r1, r3, #1
	strex	r0, r1, [r2]
	cmp	r0, #0
	bne	.L1175
	mcr	p15, 0, r0, c7, c10, 5
.L1144:
	cmp	r3, #1
	bne	.L1129
	ldr	r3, [r5]
	mov	r0, r5
	ldr	r3, [r3, #12]
	blx	r3
	b	.L1129
.L1130:
	ldr	r3, [r5, #28]
	cmp	r3, #1
	sub	r3, r3, #1
	str	r3, [r5, #28]
	bne	.L1129
	ldr	r3, [r5]
	mov	r0, r5
	ldr	r3, [r3, #8]
	blx	r3
	mcr	p15, 0, r0, c7, c10, 5
	ldr	r3, [r5, #32]
	sub	r2, r3, #1
	str	r2, [r5, #32]
	b	.L1144
.L1149:
	bl	__cxa_end_catch(PLT)
	b	.L1123
.L1190:
	.align	2
.L1189:
	.word	_GLOBAL_OFFSET_TABLE_-(.LPIC85+8)
	.word	_ZTVN8asiodnp39IOHandlerE(GOT)
	.word	_ZL28__gthrw___pthread_key_createPjPFvPvE(GOT)
	.personality	__gxx_personality_v0
	.handlerdata
	.align	2
.LLSDA7456:
	.byte	0xff
	.byte	0x90
	.uleb128 .LLSDATT7456-.LLSDATTD7456
.LLSDATTD7456:
	.byte	0x1
	.uleb128 .LLSDACSE7456-.LLSDACSB7456
.LLSDACSB7456:
	.uleb128 .LEHB28-.LFB7456
	.uleb128 .LEHE28-.LEHB28
	.uleb128 .L1146-.LFB7456
	.uleb128 0
	.uleb128 .LEHB29-.LFB7456
	.uleb128 .LEHE29-.LEHB29
	.uleb128 .L1150-.LFB7456
	.uleb128 0x1
	.uleb128 .LEHB30-.LFB7456
	.uleb128 .LEHE30-.LEHB30
	.uleb128 .L1147-.LFB7456
	.uleb128 0
	.uleb128 .LEHB31-.LFB7456
	.uleb128 .LEHE31-.LEHB31
	.uleb128 .L1148-.LFB7456
	.uleb128 0
	.uleb128 .LEHB32-.LFB7456
	.uleb128 .LEHE32-.LEHB32
	.uleb128 0
	.uleb128 0
	.uleb128 .LEHB33-.LFB7456
	.uleb128 .LEHE33-.LEHB33
	.uleb128 .L1151-.LFB7456
	.uleb128 0x1
	.uleb128 .LEHB34-.LFB7456
	.uleb128 .LEHE34-.LEHB34
	.uleb128 .L1149-.LFB7456
	.uleb128 0
.LLSDACSE7456:
	.byte	0x1
	.byte	0
	.align	2
	.word	0
.LLSDATT7456:
	.text
	.fnend
	.size	_ZN8asiodnp39IOHandlerC2ERKN7openpal6LoggerERKSt10shared_ptrINS_16IChannelListenerEE, .-_ZN8asiodnp39IOHandlerC2ERKN7openpal6LoggerERKSt10shared_ptrINS_16IChannelListenerEE
	.global	_ZN8asiodnp39IOHandlerC1ERKN7openpal6LoggerERKSt10shared_ptrINS_16IChannelListenerEE
	.set	_ZN8asiodnp39IOHandlerC1ERKN7openpal6LoggerERKSt10shared_ptrINS_16IChannelListenerEE,_ZN8asiodnp39IOHandlerC2ERKN7openpal6LoggerERKSt10shared_ptrINS_16IChannelListenerEE
	.section	.text._ZNSt5dequeIN8asiodnp39IOHandler12TransmissionESaIS2_EE16_M_push_back_auxIJS2_EEEvDpOT_,"axG",%progbits,_ZNSt5dequeIN8asiodnp39IOHandler12TransmissionESaIS2_EE16_M_push_back_auxIJS2_EEEvDpOT_,comdat
	.align	2
	.weak	_ZNSt5dequeIN8asiodnp39IOHandler12TransmissionESaIS2_EE16_M_push_back_auxIJS2_EEEvDpOT_
	.syntax unified
	.arm
	.fpu vfp
	.type	_ZNSt5dequeIN8asiodnp39IOHandler12TransmissionESaIS2_EE16_M_push_back_auxIJS2_EEEvDpOT_, %function
_ZNSt5dequeIN8asiodnp39IOHandler12TransmissionESaIS2_EE16_M_push_back_auxIJS2_EEEvDpOT_:
	.fnstart
.LFB8998:
	@ args = 0, pretend = 0, frame = 0
	@ frame_needed = 0, uses_anonymous_args = 0
	push	{r4, r5, r6, r7, r8, r9, r10, lr}
	.save {r4, r5, r6, r7, r8, r9, r10, lr}
	mov	r4, r0
	ldr	r6, [r0, #36]
	ldr	r0, [r0]
	ldr	r2, [r4, #4]
	sub	r3, r6, r0
	mov	r5, r1
	sub	r3, r2, r3, asr #2
	cmp	r3, #1
	bls	.L1213
.L1192:
	mov	r0, #512
	bl	_Znwj(PLT)
	str	r0, [r6, #4]
	ldr	r3, [r4, #24]
	cmp	r3, #0
	beq	.L1198
	ldm	r5, {r0, r1}
	mov	r2, #0
	ldr	lr, [r5, #8]
	str	r2, [r3, #12]
	ldr	ip, [r5, #12]
	stm	r3, {r0, r1}
	str	lr, [r3, #8]
	str	r2, [r5, #12]
	str	ip, [r3, #12]
	str	r2, [r5, #8]
.L1198:
	ldr	r3, [r4, #36]
	add	r2, r3, #4
	ldr	r3, [r3, #4]
	str	r2, [r4, #36]
	add	r2, r3, #512
	str	r3, [r4, #28]
	str	r3, [r4, #24]
	str	r2, [r4, #32]
	pop	{r4, r5, r6, r7, r8, r9, r10, pc}
.L1213:
	ldr	r1, [r4, #20]
	sub	r9, r6, r1
	asr	r9, r9, #2
	add	r9, r9, #1
	add	r7, r9, #1
	cmp	r2, r7, lsl #1
	bhi	.L1214
	cmp	r2, #0
	beq	.L1199
	lsl	r8, r2, #1
	add	r8, r8, #2
	cmn	r8, #-1073741823
	bhi	.L1215
.L1196:
	lsl	r0, r8, #2
	bl	_Znwj(PLT)
	ldr	r2, [r4, #36]
	sub	r7, r8, r7
	ldr	r1, [r4, #20]
	add	r2, r2, #4
	lsr	r7, r7, #1
	sub	r2, r2, r1
	lsrs	r3, r2, #2
	mov	r6, r0
	add	r7, r0, r7, lsl #2
	bne	.L1216
.L1197:
	ldr	r0, [r4]
	bl	_ZdlPv(PLT)
	stm	r4, {r6, r8}
.L1195:
	ldr	r3, [r7]
	sub	r6, r9, #-1073741823
	add	r2, r3, #512
	str	r2, [r4, #16]
	str	r3, [r4, #12]
	ldr	r3, [r7, r6, lsl #2]
	add	r6, r7, r6, lsl #2
	add	r2, r3, #512
	str	r7, [r4, #20]
	str	r3, [r4, #28]
	str	r2, [r4, #32]
	str	r6, [r4, #36]
	b	.L1192
.L1214:
	sub	r7, r2, r7
	add	r2, r6, #4
	lsr	r7, r7, #1
	sub	r2, r2, r1
	add	r7, r0, r7, lsl #2
	cmp	r1, r7
	bls	.L1194
	lsrs	r3, r2, #2
	beq	.L1195
	mov	r0, r7
	bl	memmove(PLT)
	b	.L1195
.L1199:
	mov	r8, #3
	b	.L1196
.L1216:
	mov	r0, r7
	bl	memmove(PLT)
	b	.L1197
.L1194:
	lsrs	r3, r2, #2
	lsl	r3, r9, #2
	beq	.L1195
	sub	r3, r3, r2
	add	r0, r7, r3
	bl	memmove(PLT)
	b	.L1195
.L1215:
	bl	_ZSt17__throw_bad_allocv(PLT)
	.fnend
	.size	_ZNSt5dequeIN8asiodnp39IOHandler12TransmissionESaIS2_EE16_M_push_back_auxIJS2_EEEvDpOT_, .-_ZNSt5dequeIN8asiodnp39IOHandler12TransmissionESaIS2_EE16_M_push_back_auxIJS2_EEEvDpOT_
	.text
	.align	2
	.global	_ZN8asiodnp39IOHandler13BeginTransmitERKSt10shared_ptrIN8opendnp312ILinkSessionEERKN7openpal6RSliceE
	.syntax unified
	.arm
	.fpu vfp
	.type	_ZN8asiodnp39IOHandler13BeginTransmitERKSt10shared_ptrIN8opendnp312ILinkSessionEERKN7openpal6RSliceE, %function
_ZN8asiodnp39IOHandler13BeginTransmitERKSt10shared_ptrIN8opendnp312ILinkSessionEERKN7openpal6RSliceE:
	.fnstart
.LFB7461:
	@ args = 0, pretend = 0, frame = 16
	@ frame_needed = 0, uses_anonymous_args = 0
	ldr	r3, [r0, #496]
	push	{r4, r5, r6, lr}
	.save {r4, r5, r6, lr}
	cmp	r3, #0
	ldr	r5, .L1254
	.pad #16
	sub	sp, sp, #16
	mov	r4, r0
.LPIC86:
	add	r5, pc, r5
	beq	.L1218
	mov	ip, r1
	ldm	r2, {r0, r1}
	ldr	r3, [ip, #4]
	ldr	ip, [ip]
	cmp	r3, #0
	mov	r2, sp
	stm	sp, {r0, r1}
	str	r3, [sp, #12]
	str	ip, [sp, #8]
	beq	.L1219
	ldr	r1, .L1254+4
	ldr	r1, [r5, r1]
	cmp	r1, #0
	beq	.L1220
	add	r3, r3, #28
	mcr	p15, 0, r0, c7, c10, 5
.L1249:
	ldrex	r1, [r3]
	add	r1, r1, #1
	strex	r0, r1, [r3]
	cmp	r0, #0
	bne	.L1249
	mcr	p15, 0, r0, c7, c10, 5
.L1219:
	ldr	r1, [r4, #112]
	ldr	r3, [r4, #104]
	sub	r1, r1, #16
	cmp	r3, r1
	beq	.L1221
	cmp	r3, #0
	beq	.L1222
	mov	ip, #0
	ldm	r2, {r0, r1}
	ldr	lr, [sp, #8]
	str	ip, [r3, #12]
	ldr	r2, [sp, #12]
	stm	r3, {r0, r1}
	str	lr, [r3, #8]
	str	ip, [sp, #12]
	str	r2, [r3, #12]
	str	ip, [sp, #8]
.L1222:
	add	r3, r3, #16
	str	r3, [r4, #104]
.L1223:
	ldr	r6, [sp, #12]
	cmp	r6, #0
	beq	.L1225
	ldr	r3, .L1254+4
	ldr	r3, [r5, r3]
	cmp	r3, #0
	beq	.L1226
	add	r3, r6, #28
	mcr	p15, 0, r0, c7, c10, 5
.L1248:
	ldrex	r2, [r3]
	sub	r1, r2, #1
	strex	r0, r1, [r3]
	cmp	r0, #0
	bne	.L1248
	cmp	r2, #1
	mcr	p15, 0, r0, c7, c10, 5
	beq	.L1253
.L1225:
	mov	r0, r4
.LEHB35:
	bl	_ZN8asiodnp39IOHandler12CheckForSendEv(PLT)
.L1217:
	add	sp, sp, #16
	@ sp needed
	pop	{r4, r5, r6, pc}
.L1220:
	ldr	r1, [r3, #28]
	add	r1, r1, #1
	str	r1, [r3, #28]
	b	.L1219
.L1226:
	ldr	r3, [r6, #28]
	cmp	r3, #1
	sub	r3, r3, #1
	str	r3, [r6, #28]
	bne	.L1225
	ldr	r3, [r6]
	mov	r0, r6
	ldr	r3, [r3, #8]
	blx	r3
	mcr	p15, 0, r0, c7, c10, 5
	ldr	r2, [r6, #32]
	sub	r3, r2, #1
	str	r3, [r6, #32]
	b	.L1233
.L1253:
	ldr	r3, [r6]
	mov	r0, r6
	ldr	r3, [r3, #8]
	blx	r3
	add	r3, r6, #32
	mcr	p15, 0, r0, c7, c10, 5
	mcr	p15, 0, r0, c7, c10, 5
.L1247:
	ldrex	r2, [r3]
	sub	r1, r2, #1
	strex	r0, r1, [r3]
	cmp	r0, #0
	bne	.L1247
	mcr	p15, 0, r0, c7, c10, 5
.L1233:
	cmp	r2, #1
	bne	.L1225
	ldr	r3, [r6]
	mov	r0, r6
	ldr	r3, [r3, #12]
	blx	r3
	b	.L1225
.L1218:
	add	r5, sp, #16
	add	r4, r0, #16
	mov	r6, #2
	str	r6, [r5, #-16]!
	mov	r0, r4
	mov	r1, r5
	bl	_ZNK7openpal6Logger9IsEnabledERKNS_10LogFiltersE(PLT)
	cmp	r0, #0
	beq	.L1217
	ldr	r3, .L1254+8
	ldr	r2, .L1254+12
	mov	r1, r5
	mov	r0, r4
.LPIC87:
	add	r3, pc, r3
.LPIC88:
	add	r2, pc, r2
	str	r6, [sp]
	bl	_ZN7openpal6Logger3LogERKNS_10LogFiltersEPKcS5_(PLT)
.LEHE35:
	b	.L1217
.L1221:
	mov	r1, r2
	add	r0, r4, #80
.LEHB36:
	bl	_ZNSt5dequeIN8asiodnp39IOHandler12TransmissionESaIS2_EE16_M_push_back_auxIJS2_EEEvDpOT_(PLT)
.LEHE36:
	b	.L1223
.L1234:
	ldr	r0, [sp, #12]
	cmp	r0, #0
	beq	.L1232
	bl	_ZNSt16_Sp_counted_baseILN9__gnu_cxx12_Lock_policyE1EE10_M_releaseEv(PLT)
.L1232:
.LEHB37:
	bl	__cxa_end_cleanup(PLT)
.LEHE37:
.L1255:
	.align	2
.L1254:
	.word	_GLOBAL_OFFSET_TABLE_-(.LPIC86+8)
	.word	_ZL28__gthrw___pthread_key_createPjPFvPvE(GOT)
	.word	.LC27-(.LPIC87+8)
	.word	.LC28-(.LPIC88+8)
	.personality	__gxx_personality_v0
	.handlerdata
.LLSDA7461:
	.byte	0xff
	.byte	0xff
	.byte	0x1
	.uleb128 .LLSDACSE7461-.LLSDACSB7461
.LLSDACSB7461:
	.uleb128 .LEHB35-.LFB7461
	.uleb128 .LEHE35-.LEHB35
	.uleb128 0
	.uleb128 0
	.uleb128 .LEHB36-.LFB7461
	.uleb128 .LEHE36-.LEHB36
	.uleb128 .L1234-.LFB7461
	.uleb128 0
	.uleb128 .LEHB37-.LFB7461
	.uleb128 .LEHE37-.LEHB37
	.uleb128 0
	.uleb128 0
.LLSDACSE7461:
	.text
	.fnend
	.size	_ZN8asiodnp39IOHandler13BeginTransmitERKSt10shared_ptrIN8opendnp312ILinkSessionEERKN7openpal6RSliceE, .-_ZN8asiodnp39IOHandler13BeginTransmitERKSt10shared_ptrIN8opendnp312ILinkSessionEERKN7openpal6RSliceE
	.section	.text._ZNSt6vectorIN8asiodnp39IOHandler7SessionESaIS2_EE19_M_emplace_back_auxIJS2_EEEvDpOT_,"axG",%progbits,_ZNSt6vectorIN8asiodnp39IOHandler7SessionESaIS2_EE19_M_emplace_back_auxIJS2_EEEvDpOT_,comdat
	.align	2
	.weak	_ZNSt6vectorIN8asiodnp39IOHandler7SessionESaIS2_EE19_M_emplace_back_auxIJS2_EEEvDpOT_
	.syntax unified
	.arm
	.fpu vfp
	.type	_ZNSt6vectorIN8asiodnp39IOHandler7SessionESaIS2_EE19_M_emplace_back_auxIJS2_EEEvDpOT_, %function
_ZNSt6vectorIN8asiodnp39IOHandler7SessionESaIS2_EE19_M_emplace_back_auxIJS2_EEEvDpOT_:
	.fnstart
.LFB9000:
	@ args = 0, pretend = 0, frame = 0
	@ frame_needed = 0, uses_anonymous_args = 0
	push	{r3, r4, r5, r6, r7, r8, r9, r10, fp, lr}
	.save {r3, r4, r5, r6, r7, r8, r9, r10, fp, lr}
	mov	r9, r0
	ldr	ip, [r0]
	ldr	r0, [r0, #4]
	ldr	r7, .L1302
	sub	r3, r0, ip
.LPIC89:
	add	r7, pc, r7
	asrs	r8, r3, #4
	mov	r4, r1
	beq	.L1274
	lsl	r2, r8, #1
	cmp	r8, r2
	bls	.L1297
.L1275:
	mvn	r8, #15
.L1257:
	mov	r0, r8
	bl	_Znwj(PLT)
	ldr	ip, [r9]
	mov	r10, r0
	ldr	r0, [r9, #4]
	add	r8, r10, r8
	add	fp, r10, #16
	sub	r3, r0, ip
.L1272:
	adds	r2, r10, r3
	beq	.L1259
	mov	r1, r4
	ldrb	r5, [r4, #6]	@ zero_extendqisi2
	ldrb	r6, [r1], #2	@ zero_extendqisi2
	ldr	lr, [r4, #8]
	strb	r6, [r10, r3]
	ldr	r3, [r1]	@ unaligned
	ldr	r1, [r4, #12]
	str	r3, [r2, #2]	@ unaligned
	mov	r3, #0
	strb	r5, [r2, #6]
	str	lr, [r2, #8]
	str	r1, [r2, #12]
	str	r3, [r4, #12]
	str	r3, [r4, #8]
.L1259:
	cmp	ip, r0
	beq	.L1260
	mov	r3, r10
	mov	r4, ip
	mov	r1, #0
.L1262:
	cmp	r3, #0
	mov	r2, r4
	beq	.L1261
	ldrb	r5, [r2], #2	@ zero_extendqisi2
	ldr	lr, [r4, #8]
	strb	r5, [r3]
	ldrb	r5, [r4, #6]	@ zero_extendqisi2
	ldr	r6, [r2]	@ unaligned
	str	r1, [r3, #12]
	ldr	r2, [r4, #12]
	str	r6, [r3, #2]	@ unaligned
	strb	r5, [r3, #6]
	str	lr, [r3, #8]
	str	r1, [r4, #12]
	str	r2, [r3, #12]
	str	r1, [r4, #8]
.L1261:
	add	r4, r4, #16
	cmp	r4, r0
	add	r3, r3, #16
	bne	.L1262
	add	r5, ip, #16
	sub	fp, r4, r5
	add	fp, fp, #32
	add	fp, r10, fp
	b	.L1270
.L1299:
	add	r3, r6, #28
	mcr	p15, 0, r0, c7, c10, 5
.L1292:
	ldrex	r2, [r3]
	sub	r1, r2, #1
	strex	r0, r1, [r3]
	cmp	r0, #0
	bne	.L1292
	cmp	r2, #1
	mcr	p15, 0, r0, c7, c10, 5
	beq	.L1298
.L1265:
	cmp	r5, r4
	mov	ip, r5
	beq	.L1289
.L1300:
	add	r5, r5, #16
.L1270:
	ldr	r6, [ip, #12]
	cmp	r6, #0
	beq	.L1265
	ldr	r3, .L1302+4
	ldr	r3, [r7, r3]
	cmp	r3, #0
	bne	.L1299
	ldr	r3, [r6, #28]
	cmp	r3, #1
	sub	r3, r3, #1
	str	r3, [r6, #28]
	bne	.L1265
	ldr	r3, [r6]
	mov	r0, r6
	ldr	r3, [r3, #8]
	blx	r3
	mcr	p15, 0, r0, c7, c10, 5
	ldr	r2, [r6, #32]
	sub	r3, r2, #1
	cmp	r2, #1
	str	r3, [r6, #32]
	bne	.L1265
	ldr	r3, [r6]
	mov	r0, r6
	ldr	r3, [r3, #12]
	blx	r3
.L1301:
	cmp	r5, r4
	mov	ip, r5
	bne	.L1300
.L1289:
	ldr	r0, [r9]
.L1260:
	cmp	r0, #0
	beq	.L1271
	bl	_ZdlPv(PLT)
.L1271:
	stm	r9, {r10, fp}
	str	r8, [r9, #8]
	pop	{r3, r4, r5, r6, r7, r8, r9, r10, fp, pc}
.L1298:
	ldr	r3, [r6]
	mov	r0, r6
	ldr	r3, [r3, #8]
	blx	r3
	add	r3, r6, #32
	mcr	p15, 0, r0, c7, c10, 5
	mcr	p15, 0, r0, c7, c10, 5
.L1291:
	ldrex	r2, [r3]
	sub	r1, r2, #1
	strex	r0, r1, [r3]
	cmp	r0, #0
	bne	.L1291
	cmp	r2, #1
	mcr	p15, 0, r0, c7, c10, 5
	bne	.L1265
	ldr	r3, [r6]
	mov	r0, r6
	ldr	r3, [r3, #12]
	blx	r3
	b	.L1301
.L1274:
	mov	r8, #16
	b	.L1257
.L1297:
	cmn	r2, #-268435455
	bhi	.L1275
	cmp	r2, #0
	lslne	r8, r8, #5
	bne	.L1257
	mov	r8, r2
	mov	r10, r2
	mov	fp, #16
	b	.L1272
.L1303:
	.align	2
.L1302:
	.word	_GLOBAL_OFFSET_TABLE_-(.LPIC89+8)
	.word	_ZL28__gthrw___pthread_key_createPjPFvPvE(GOT)
	.fnend
	.size	_ZNSt6vectorIN8asiodnp39IOHandler7SessionESaIS2_EE19_M_emplace_back_auxIJS2_EEEvDpOT_, .-_ZNSt6vectorIN8asiodnp39IOHandler7SessionESaIS2_EE19_M_emplace_back_auxIJS2_EEEvDpOT_
	.text
	.align	2
	.global	_ZN8asiodnp39IOHandler10AddContextERKSt10shared_ptrIN8opendnp312ILinkSessionEERKNS2_5RouteE
	.syntax unified
	.arm
	.fpu vfp
	.type	_ZN8asiodnp39IOHandler10AddContextERKSt10shared_ptrIN8opendnp312ILinkSessionEERKNS2_5RouteE, %function
_ZN8asiodnp39IOHandler10AddContextERKSt10shared_ptrIN8opendnp312ILinkSessionEERKNS2_5RouteE:
	.fnstart
.LFB7465:
	@ args = 0, pretend = 0, frame = 128
	@ frame_needed = 0, uses_anonymous_args = 0
	push	{r4, r5, r6, r7, r8, lr}
	.save {r4, r5, r6, r7, r8, lr}
	mov	r8, r1
	.pad #136
	sub	sp, sp, #136
	mov	r1, r2
	mov	r6, r2
	mov	r4, r0
.LEHB38:
	bl	_ZNK8asiodnp39IOHandler12IsRouteInUseERKN8opendnp35RouteE(PLT)
	ldr	r7, .L1348
.LPIC94:
	add	r7, pc, r7
	subs	r5, r0, #0
	beq	.L1305
	add	r5, sp, #136
	add	r4, r4, #16
	mov	r7, #2
	str	r7, [r5, #-120]!
	mov	r0, r4
	mov	r1, r5
	bl	_ZNK7openpal6Logger9IsEnabledERKNS_10LogFiltersE(PLT)
	cmp	r0, #0
	bne	.L1345
.L1342:
	mov	r5, #0
.L1337:
	mov	r0, r5
	add	sp, sp, #136
	@ sp needed
	pop	{r4, r5, r6, r7, r8, pc}
.L1305:
	mov	r1, r8
	mov	r0, r4
	bl	_ZNK8asiodnp39IOHandler14IsSessionInUseERKSt10shared_ptrIN8opendnp312ILinkSessionEE(PLT)
	cmp	r0, #0
	bne	.L1346
	ldr	r3, [r8, #4]
	ldr	r1, [r6]	@ unaligned
	ldr	r2, [r8]
	cmp	r3, #0
	str	r1, [sp, #18]	@ unaligned
	strb	r0, [sp, #16]
	strb	r0, [sp, #22]
	str	r3, [sp, #28]
	str	r2, [sp, #24]
	beq	.L1310
	ldr	r2, .L1348+4
	ldr	r2, [r7, r2]
	cmp	r2, #0
	beq	.L1311
	add	r3, r3, #28
	mcr	p15, 0, r0, c7, c10, 5
.L1340:
	ldrex	r2, [r3]
	add	r2, r2, #1
	strex	r1, r2, [r3]
	cmp	r1, #0
	bne	.L1340
	mcr	p15, 0, r0, c7, c10, 5
.L1310:
	ldr	r3, [r4, #72]
	ldr	r2, [r4, #76]
	cmp	r3, r2
	beq	.L1312
	cmp	r3, #0
	beq	.L1313
	ldrb	r1, [sp, #16]	@ zero_extendqisi2
	mov	r2, #0
	ldr	r0, [sp, #24]
	ldr	lr, [sp, #18]	@ unaligned
	ldrb	ip, [sp, #22]	@ zero_extendqisi2
	str	r2, [r3, #12]
	strb	r1, [r3]
	ldr	r1, [sp, #28]
	str	lr, [r3, #2]	@ unaligned
	strb	ip, [r3, #6]
	str	r0, [r3, #8]
	str	r2, [sp, #28]
	str	r1, [r3, #12]
	str	r2, [sp, #24]
.L1313:
	add	r3, r3, #16
	str	r3, [r4, #72]
.L1314:
	ldr	r4, [sp, #28]
	cmp	r4, #0
	beq	.L1316
	ldr	r3, .L1348+4
	ldr	r3, [r7, r3]
	cmp	r3, #0
	beq	.L1317
	add	r3, r4, #28
	mcr	p15, 0, r0, c7, c10, 5
.L1339:
	ldrex	r2, [r3]
	sub	r1, r2, #1
	strex	r0, r1, [r3]
	cmp	r0, #0
	bne	.L1339
	cmp	r2, #1
	mcr	p15, 0, r0, c7, c10, 5
	beq	.L1347
.L1316:
	mov	r5, #1
	mov	r0, r5
	add	sp, sp, #136
	@ sp needed
	pop	{r4, r5, r6, r7, r8, pc}
.L1346:
	add	r6, sp, #136
	add	r4, r4, #16
	mov	r7, #2
	str	r7, [r6, #-120]!
	mov	r0, r4
	mov	r1, r6
	bl	_ZNK7openpal6Logger9IsEnabledERKNS_10LogFiltersE(PLT)
	cmp	r0, #0
	beq	.L1342
	ldr	r3, .L1348+8
	ldr	r2, .L1348+12
	mov	r1, r6
	mov	r0, r4
.LPIC92:
	add	r3, pc, r3
.LPIC93:
	add	r2, pc, r2
	str	r7, [sp, #16]
	bl	_ZN7openpal6Logger3LogERKNS_10LogFiltersEPKcS5_(PLT)
	b	.L1337
.L1345:
	ldrh	r1, [r6]
	ldr	r2, .L1348+16
	ldrh	r3, [r6, #2]
.LPIC90:
	add	r2, pc, r2
	str	r1, [sp]
	mov	r0, r5
	mov	r1, #120
	bl	snprintf(PLT)
	add	r1, sp, #136
	ldr	r2, .L1348+20
	mov	r3, r5
	mov	r0, r4
	str	r7, [r1, #-124]!
.LPIC91:
	add	r2, pc, r2
	bl	_ZN7openpal6Logger3LogERKNS_10LogFiltersEPKcS5_(PLT)
.LEHE38:
	b	.L1342
.L1311:
	ldr	r2, [r3, #28]
	add	r2, r2, #1
	str	r2, [r3, #28]
	b	.L1310
.L1317:
	ldr	r3, [r4, #28]
	cmp	r3, #1
	sub	r3, r3, #1
	str	r3, [r4, #28]
	bne	.L1316
	ldr	r3, [r4]
	mov	r0, r4
	ldr	r3, [r3, #8]
	blx	r3
	mcr	p15, 0, r0, c7, c10, 5
	ldr	r2, [r4, #32]
	sub	r3, r2, #1
	str	r3, [r4, #32]
	b	.L1323
.L1347:
	ldr	r3, [r4]
	mov	r0, r4
	ldr	r3, [r3, #8]
	blx	r3
	add	r3, r4, #32
	mcr	p15, 0, r0, c7, c10, 5
	mcr	p15, 0, r0, c7, c10, 5
.L1338:
	ldrex	r2, [r3]
	sub	r1, r2, #1
	strex	r0, r1, [r3]
	cmp	r0, #0
	bne	.L1338
	mcr	p15, 0, r0, c7, c10, 5
.L1323:
	cmp	r2, #1
	bne	.L1316
	ldr	r3, [r4]
	mov	r0, r4
	ldr	r3, [r3, #12]
	blx	r3
	b	.L1316
.L1312:
	add	r0, r4, #68
	add	r1, sp, #16
.LEHB39:
	bl	_ZNSt6vectorIN8asiodnp39IOHandler7SessionESaIS2_EE19_M_emplace_back_auxIJS2_EEEvDpOT_(PLT)
.LEHE39:
	b	.L1314
.L1324:
	ldr	r0, [sp, #28]
	cmp	r0, #0
	beq	.L1322
	bl	_ZNSt16_Sp_counted_baseILN9__gnu_cxx12_Lock_policyE1EE10_M_releaseEv(PLT)
.L1322:
.LEHB40:
	bl	__cxa_end_cleanup(PLT)
.LEHE40:
.L1349:
	.align	2
.L1348:
	.word	_GLOBAL_OFFSET_TABLE_-(.LPIC94+8)
	.word	_ZL28__gthrw___pthread_key_createPjPFvPvE(GOT)
	.word	.LC31-(.LPIC92+8)
	.word	.LC32-(.LPIC93+8)
	.word	.LC29-(.LPIC90+8)
	.word	.LC30-(.LPIC91+8)
	.personality	__gxx_personality_v0
	.handlerdata
.LLSDA7465:
	.byte	0xff
	.byte	0xff
	.byte	0x1
	.uleb128 .LLSDACSE7465-.LLSDACSB7465
.LLSDACSB7465:
	.uleb128 .LEHB38-.LFB7465
	.uleb128 .LEHE38-.LEHB38
	.uleb128 0
	.uleb128 0
	.uleb128 .LEHB39-.LFB7465
	.uleb128 .LEHE39-.LEHB39
	.uleb128 .L1324-.LFB7465
	.uleb128 0
	.uleb128 .LEHB40-.LFB7465
	.uleb128 .LEHE40-.LEHB40
	.uleb128 0
	.uleb128 0
.LLSDACSE7465:
	.text
	.fnend
	.size	_ZN8asiodnp39IOHandler10AddContextERKSt10shared_ptrIN8opendnp312ILinkSessionEERKNS2_5RouteE, .-_ZN8asiodnp39IOHandler10AddContextERKSt10shared_ptrIN8opendnp312ILinkSessionEERKNS2_5RouteE
	.section	.text._ZN4asio6detail18completion_handlerIZN7asiopal13IAsyncChannel8ShutdownEvEUlvE_E3ptr5resetEv,"axG",%progbits,_ZN4asio6detail18completion_handlerIZN7asiopal13IAsyncChannel8ShutdownEvEUlvE_E3ptr5resetEv,comdat
	.align	2
	.weak	_ZN4asio6detail18completion_handlerIZN7asiopal13IAsyncChannel8ShutdownEvEUlvE_E3ptr5resetEv
	.syntax unified
	.arm
	.fpu vfp
	.type	_ZN4asio6detail18completion_handlerIZN7asiopal13IAsyncChannel8ShutdownEvEUlvE_E3ptr5resetEv, %function
_ZN4asio6detail18completion_handlerIZN7asiopal13IAsyncChannel8ShutdownEvEUlvE_E3ptr5resetEv:
	.fnstart
.LFB9134:
	@ args = 0, pretend = 0, frame = 0
	@ frame_needed = 0, uses_anonymous_args = 0
	ldr	r3, [r0, #8]
	push	{r4, r5, r6, lr}
	cmp	r3, #0
	ldr	r5, .L1381
	mov	r4, r0
.LPIC95:
	add	r5, pc, r5
	beq	.L1351
	ldr	r6, [r3, #16]
	cmp	r6, #0
	beq	.L1353
	ldr	r3, .L1381+4
	ldr	r3, [r5, r3]
	cmp	r3, #0
	beq	.L1354
	add	r3, r6, #28
	mcr	p15, 0, r0, c7, c10, 5
.L1375:
	ldrex	r2, [r3]
	sub	r1, r2, #1
	strex	r0, r1, [r3]
	cmp	r0, #0
	bne	.L1375
	cmp	r2, #1
	mcr	p15, 0, r0, c7, c10, 5
	beq	.L1379
.L1353:
	mov	r3, #0
	str	r3, [r4, #8]
.L1351:
	ldr	r6, [r4, #4]
	cmp	r6, #0
	popeq	{r4, r5, r6, pc}
	ldr	r3, .L1381+8
	ldr	r3, [r5, r3]
	ldr	r0, [r3]
	bl	pthread_getspecific(PLT)
	cmp	r0, #0
	beq	.L1359
	ldr	r3, [r0, #4]
	cmp	r3, #0
	beq	.L1359
	ldr	r2, [r3]
	cmp	r2, #0
	beq	.L1380
.L1359:
	mov	r0, r6
	bl	_ZdlPv(PLT)
.L1360:
	mov	r3, #0
	str	r3, [r4, #4]
	pop	{r4, r5, r6, pc}
.L1354:
	ldr	r3, [r6, #28]
	cmp	r3, #1
	sub	r3, r3, #1
	str	r3, [r6, #28]
	bne	.L1353
	ldr	r3, [r6]
	mov	r0, r6
	ldr	r3, [r3, #8]
	blx	r3
	mcr	p15, 0, r0, c7, c10, 5
	ldr	r2, [r6, #32]
	sub	r3, r2, #1
	str	r3, [r6, #32]
	b	.L1361
.L1379:
	ldr	r3, [r6]
	mov	r0, r6
	ldr	r3, [r3, #8]
	blx	r3
	add	r3, r6, #32
	mcr	p15, 0, r0, c7, c10, 5
	mcr	p15, 0, r0, c7, c10, 5
.L1374:
	ldrex	r2, [r3]
	sub	r1, r2, #1
	strex	r0, r1, [r3]
	cmp	r0, #0
	bne	.L1374
	mcr	p15, 0, r0, c7, c10, 5
.L1361:
	cmp	r2, #1
	bne	.L1353
	ldr	r3, [r6]
	mov	r0, r6
	ldr	r3, [r3, #12]
	blx	r3
	b	.L1353
.L1380:
	ldrb	r2, [r6, #20]	@ zero_extendqisi2
	strb	r2, [r6]
	str	r6, [r3]
	b	.L1360
.L1382:
	.align	2
.L1381:
	.word	_GLOBAL_OFFSET_TABLE_-(.LPIC95+8)
	.word	_ZL28__gthrw___pthread_key_createPjPFvPvE(GOT)
	.word	_ZN4asio6detail10call_stackINS0_15task_io_serviceENS0_27task_io_service_thread_infoEE4top_E(GOT)
	.cantunwind
	.fnend
	.size	_ZN4asio6detail18completion_handlerIZN7asiopal13IAsyncChannel8ShutdownEvEUlvE_E3ptr5resetEv, .-_ZN4asio6detail18completion_handlerIZN7asiopal13IAsyncChannel8ShutdownEvEUlvE_E3ptr5resetEv
	.section	.text._ZN4asio6detail18completion_handlerIZN7asiopal13IAsyncChannel8ShutdownEvEUlvE_E11do_completeEPNS0_15task_io_serviceEPNS0_25task_io_service_operationERKSt10error_codej,"axG",%progbits,_ZN4asio6detail18completion_handlerIZN7asiopal13IAsyncChannel8ShutdownEvEUlvE_E11do_completeEPNS0_15task_io_serviceEPNS0_25task_io_service_operationERKSt10error_codej,comdat
	.align	2
	.weak	_ZN4asio6detail18completion_handlerIZN7asiopal13IAsyncChannel8ShutdownEvEUlvE_E11do_completeEPNS0_15task_io_serviceEPNS0_25task_io_service_operationERKSt10error_codej
	.syntax unified
	.arm
	.fpu vfp
	.type	_ZN4asio6detail18completion_handlerIZN7asiopal13IAsyncChannel8ShutdownEvEUlvE_E11do_completeEPNS0_15task_io_serviceEPNS0_25task_io_service_operationERKSt10error_codej, %function
_ZN4asio6detail18completion_handlerIZN7asiopal13IAsyncChannel8ShutdownEvEUlvE_E11do_completeEPNS0_15task_io_serviceEPNS0_25task_io_service_operationERKSt10error_codej:
	.fnstart
.LFB9138:
	@ args = 0, pretend = 0, frame = 40
	@ frame_needed = 0, uses_anonymous_args = 0
	push	{r4, r5, r6, r7, lr}
	.save {r4, r5, r6, r7, lr}
	.pad #44
	sub	sp, sp, #44
	ldr	r4, .L1519
	ldr	r2, [r1, #16]
	ldr	r3, .L1519+4
	ldr	ip, [r1, #12]
.LPIC96:
	add	r4, pc, r4
	str	r2, [sp, #12]
	mov	r5, r1
	add	r2, sp, #8
	mov	r1, #0
	str	r5, [sp, #20]
	str	ip, [sp, #8]
	str	r2, [sp, #16]
	str	r1, [sp, #24]
	ldr	r6, [r4, r3]
	mov	r7, r0
	ldr	r0, [r6]
	bl	pthread_getspecific(PLT)
	cmp	r0, #0
	beq	.L1384
	ldr	r3, [r0, #4]
	cmp	r3, #0
	beq	.L1384
	ldr	r2, [r3]
	cmp	r2, #0
	beq	.L1511
.L1384:
	mov	r0, r5
	bl	_ZdlPv(PLT)
.L1385:
	mov	r2, #0
	cmp	r7, #0
	str	r2, [sp, #20]
	beq	.L1386
	add	r3, sp, #40
	mov	r1, #1
	str	r2, [r3, #-36]!
.L1496:
	ldrex	r2, [r3]
	strex	r0, r1, [r3]
	cmp	r0, #0
	bne	.L1496
	mcr	p15, 0, r0, c7, c10, 5
	ldr	r5, [sp, #12]
	ldr	r3, [sp, #8]
	cmp	r5, #0
	beq	.L1387
	ldr	r2, .L1519+8
	add	r1, r5, #28
	ldr	r2, [r4, r2]
	cmp	r2, #0
	beq	.L1388
	mcr	p15, 0, r0, c7, c10, 5
.L1495:
	ldrex	r0, [r1]
	add	r0, r0, #1
	strex	ip, r0, [r1]
	cmp	ip, #0
	bne	.L1495
	mcr	p15, 0, r0, c7, c10, 5
.L1389:
	ldrb	r0, [r3, #29]	@ zero_extendqisi2
	cmp	r0, #0
	bne	.L1439
	ldrb	r0, [r3, #30]	@ zero_extendqisi2
	cmp	r0, #0
	beq	.L1452
.L1439:
	cmp	r2, #0
	beq	.L1390
	mcr	p15, 0, r0, c7, c10, 5
.L1493:
	ldrex	r2, [r1]
	add	r2, r2, #1
	strex	r0, r2, [r1]
	cmp	r0, #0
	bne	.L1493
	mcr	p15, 0, r0, c7, c10, 5
	str	r3, [sp, #28]
	str	r5, [sp, #32]
	ldr	r3, [r3, #12]
	mcr	p15, 0, r0, c7, c10, 5
.L1494:
	ldrex	r2, [r1]
	add	r2, r2, #1
	strex	r0, r2, [r1]
	cmp	r0, #0
	bne	.L1494
	mcr	p15, 0, r0, c7, c10, 5
.L1391:
	add	r2, sp, #28
	add	r1, r3, #24
	ldr	r0, [r3, #20]
.LEHB41:
	bl	_ZN4asio6detail14strand_service4postIZN7asiopal13IAsyncChannel16CheckForShutdownESt10shared_ptrIS4_EEUlvE_EEvRPNS1_11strand_implERT_(PLT)
.LEHE41:
	ldr	r7, [sp, #32]
	cmp	r7, #0
	beq	.L1393
	ldr	r3, .L1519+8
	ldr	r3, [r4, r3]
	cmp	r3, #0
	beq	.L1394
	add	r3, r7, #28
	mcr	p15, 0, r0, c7, c10, 5
.L1492:
	ldrex	r2, [r3]
	sub	r1, r2, #1
	strex	r0, r1, [r3]
	cmp	r0, #0
	bne	.L1492
	cmp	r2, #1
	mcr	p15, 0, r0, c7, c10, 5
	beq	.L1512
.L1393:
	cmp	r5, #0
	beq	.L1416
	ldr	r3, .L1519+8
	ldr	r3, [r4, r3]
	cmp	r3, #0
	beq	.L1404
	add	r3, r5, #28
	mcr	p15, 0, r0, c7, c10, 5
.L1491:
	ldrex	r2, [r3]
	sub	r1, r2, #1
	strex	r0, r1, [r3]
	cmp	r0, #0
	bne	.L1491
	cmp	r2, #1
	mcr	p15, 0, r0, c7, c10, 5
	bne	.L1408
	ldr	r3, [r5]
	mov	r0, r5
	ldr	r3, [r3, #8]
	blx	r3
	add	r3, r5, #32
	mcr	p15, 0, r0, c7, c10, 5
	mcr	p15, 0, r0, c7, c10, 5
.L1485:
	ldrex	r2, [r3]
	sub	r1, r2, #1
	strex	r0, r1, [r3]
	cmp	r0, #0
	bne	.L1485
	mcr	p15, 0, r0, c7, c10, 5
.L1446:
	cmp	r2, #1
	bne	.L1408
	ldr	r3, [r5]
	mov	r0, r5
	ldr	r3, [r3, #12]
	blx	r3
	b	.L1408
.L1518:
	ldrb	r2, [r3, #30]	@ zero_extendqisi2
	cmp	r2, #0
	bne	.L1442
.L1452:
	ldr	r7, [r3, #24]
	mov	r2, #0
	cmp	r7, r2
	str	r2, [r3, #20]
	str	r2, [r3, #24]
	beq	.L1408
	ldr	r3, .L1519+8
	ldr	r3, [r4, r3]
	cmp	r3, #0
	beq	.L1409
	add	r3, r7, #28
	mcr	p15, 0, r0, c7, c10, 5
.L1490:
	ldrex	r2, [r3]
	sub	r1, r2, #1
	strex	r0, r1, [r3]
	cmp	r0, #0
	bne	.L1490
	cmp	r2, #1
	mcr	p15, 0, r0, c7, c10, 5
	beq	.L1513
.L1408:
	cmp	r5, #0
	beq	.L1416
	ldr	r3, .L1519+8
	ldr	r3, [r4, r3]
	cmp	r3, #0
	beq	.L1417
	add	r3, r5, #28
	mcr	p15, 0, r0, c7, c10, 5
.L1489:
	ldrex	r2, [r3]
	sub	r1, r2, #1
	strex	r0, r1, [r3]
	cmp	r0, #0
	bne	.L1489
	cmp	r2, #1
	mcr	p15, 0, r0, c7, c10, 5
	beq	.L1514
.L1416:
	mov	r3, #0
	mcr	p15, 0, r0, c7, c10, 5
	str	r3, [sp, #4]
.L1386:
	ldr	r5, [sp, #12]
	cmp	r5, #0
	beq	.L1424
	ldr	r3, .L1519+8
	ldr	r3, [r4, r3]
	cmp	r3, #0
	beq	.L1425
	add	r3, r5, #28
	mcr	p15, 0, r0, c7, c10, 5
.L1488:
	ldrex	r2, [r3]
	sub	r1, r2, #1
	strex	r0, r1, [r3]
	cmp	r0, #0
	bne	.L1488
	cmp	r2, #1
	mcr	p15, 0, r0, c7, c10, 5
	beq	.L1515
.L1424:
	ldr	r3, [sp, #24]
	cmp	r3, #0
	beq	.L1429
	ldr	r5, [r3, #16]
	cmp	r5, #0
	beq	.L1431
	ldr	r3, .L1519+8
	ldr	r3, [r4, r3]
	cmp	r3, #0
	beq	.L1432
	add	r3, r5, #28
	mcr	p15, 0, r0, c7, c10, 5
.L1487:
	ldrex	r2, [r3]
	sub	r1, r2, #1
	strex	r0, r1, [r3]
	cmp	r0, #0
	bne	.L1487
	cmp	r2, #1
	mcr	p15, 0, r0, c7, c10, 5
	beq	.L1516
.L1431:
	mov	r3, #0
	str	r3, [sp, #24]
.L1429:
	ldr	r4, [sp, #20]
	cmp	r4, #0
	beq	.L1383
	ldr	r0, [r6]
	bl	pthread_getspecific(PLT)
	cmp	r0, #0
	beq	.L1437
	ldr	r3, [r0, #4]
	cmp	r3, #0
	beq	.L1437
	ldr	r2, [r3]
	cmp	r2, #0
	beq	.L1517
.L1437:
	mov	r0, r4
	bl	_ZdlPv(PLT)
.L1383:
	add	sp, sp, #44
	@ sp needed
	pop	{r4, r5, r6, r7, pc}
.L1388:
	ldr	r0, [r5, #28]
	add	r0, r0, #1
	str	r0, [r5, #28]
	b	.L1389
.L1425:
	ldr	r3, [r5, #28]
	cmp	r3, #1
	sub	r3, r3, #1
	str	r3, [r5, #28]
	bne	.L1424
	ldr	r3, [r5]
	mov	r0, r5
	ldr	r3, [r3, #8]
	blx	r3
	mcr	p15, 0, r0, c7, c10, 5
	ldr	r2, [r5, #32]
	sub	r3, r2, #1
	str	r3, [r5, #32]
	b	.L1449
.L1432:
	ldr	r3, [r5, #28]
	cmp	r3, #1
	sub	r3, r3, #1
	str	r3, [r5, #28]
	bne	.L1431
	ldr	r3, [r5]
	mov	r0, r5
	ldr	r3, [r3, #8]
	blx	r3
	mcr	p15, 0, r0, c7, c10, 5
	ldr	r2, [r5, #32]
	sub	r3, r2, #1
	str	r3, [r5, #32]
	b	.L1450
.L1515:
	ldr	r3, [r5]
	mov	r0, r5
	ldr	r3, [r3, #8]
	blx	r3
	add	r3, r5, #32
	mcr	p15, 0, r0, c7, c10, 5
	mcr	p15, 0, r0, c7, c10, 5
.L1482:
	ldrex	r2, [r3]
	sub	r1, r2, #1
	strex	r0, r1, [r3]
	cmp	r0, #0
	bne	.L1482
	mcr	p15, 0, r0, c7, c10, 5
.L1449:
	cmp	r2, #1
	bne	.L1424
	ldr	r3, [r5]
	mov	r0, r5
	ldr	r3, [r3, #12]
	blx	r3
	b	.L1424
.L1516:
	ldr	r3, [r5]
	mov	r0, r5
	ldr	r3, [r3, #8]
	blx	r3
	add	r3, r5, #32
	mcr	p15, 0, r0, c7, c10, 5
	mcr	p15, 0, r0, c7, c10, 5
.L1481:
	ldrex	r2, [r3]
	sub	r1, r2, #1
	strex	r0, r1, [r3]
	cmp	r0, #0
	bne	.L1481
	mcr	p15, 0, r0, c7, c10, 5
.L1450:
	cmp	r2, #1
	bne	.L1431
	ldr	r3, [r5]
	mov	r0, r5
	ldr	r3, [r3, #12]
	blx	r3
	b	.L1431
.L1417:
	ldr	r3, [r5, #28]
	cmp	r3, #1
	sub	r3, r3, #1
	str	r3, [r5, #28]
	bne	.L1416
	ldr	r3, [r5]
	mov	r0, r5
	ldr	r3, [r3, #8]
	blx	r3
	mcr	p15, 0, r0, c7, c10, 5
	ldr	r2, [r5, #32]
	sub	r3, r2, #1
	str	r3, [r5, #32]
	b	.L1448
.L1409:
	ldr	r3, [r7, #28]
	cmp	r3, #1
	sub	r3, r3, #1
	str	r3, [r7, #28]
	bne	.L1408
	ldr	r3, [r7]
	mov	r0, r7
	ldr	r3, [r3, #8]
	blx	r3
	mcr	p15, 0, r0, c7, c10, 5
	ldr	r2, [r7, #32]
	sub	r3, r2, #1
	str	r3, [r7, #32]
	b	.L1447
.L1514:
	ldr	r3, [r5]
	mov	r0, r5
	ldr	r3, [r3, #8]
	blx	r3
	add	r3, r5, #32
	mcr	p15, 0, r0, c7, c10, 5
	mcr	p15, 0, r0, c7, c10, 5
.L1483:
	ldrex	r2, [r3]
	sub	r1, r2, #1
	strex	r0, r1, [r3]
	cmp	r0, #0
	bne	.L1483
	mcr	p15, 0, r0, c7, c10, 5
.L1448:
	cmp	r2, #1
	bne	.L1416
	ldr	r3, [r5]
	mov	r0, r5
	ldr	r3, [r3, #12]
	blx	r3
	b	.L1416
.L1390:
	ldr	r2, [r5, #28]
	str	r3, [sp, #28]
	add	r2, r2, #2
	ldr	r3, [r3, #12]
	str	r5, [sp, #32]
	str	r2, [r5, #28]
	b	.L1391
.L1387:
	ldrb	r2, [r3, #29]	@ zero_extendqisi2
	cmp	r2, #0
	beq	.L1518
.L1442:
	mov	r2, #0
	str	r3, [sp, #28]
	str	r2, [sp, #32]
	ldr	r3, [r3, #12]
	b	.L1391
.L1511:
	ldrb	r2, [r5, #20]	@ zero_extendqisi2
	strb	r2, [r5]
	str	r5, [r3]
	b	.L1385
.L1517:
	ldrb	r2, [r4, #20]	@ zero_extendqisi2
	strb	r2, [r4]
	str	r4, [r3]
	b	.L1383
.L1513:
	ldr	r3, [r7]
	mov	r0, r7
	ldr	r3, [r3, #8]
	blx	r3
	add	r3, r7, #32
	mcr	p15, 0, r0, c7, c10, 5
	mcr	p15, 0, r0, c7, c10, 5
.L1484:
	ldrex	r2, [r3]
	sub	r1, r2, #1
	strex	r0, r1, [r3]
	cmp	r0, #0
	bne	.L1484
	mcr	p15, 0, r0, c7, c10, 5
.L1447:
	cmp	r2, #1
	bne	.L1408
	ldr	r3, [r7]
	mov	r0, r7
	ldr	r3, [r3, #12]
	blx	r3
	b	.L1408
.L1404:
	ldr	r3, [r5, #28]
	cmp	r3, #1
	sub	r3, r3, #1
	str	r3, [r5, #28]
	bne	.L1408
	ldr	r3, [r5]
	mov	r0, r5
	ldr	r3, [r3, #8]
	blx	r3
	mcr	p15, 0, r0, c7, c10, 5
	ldr	r2, [r5, #32]
	sub	r3, r2, #1
	str	r3, [r5, #32]
	b	.L1446
.L1394:
	ldr	r3, [r7, #28]
	cmp	r3, #1
	sub	r3, r3, #1
	str	r3, [r7, #28]
	bne	.L1393
	ldr	r3, [r7]
	mov	r0, r7
	ldr	r3, [r3, #8]
	blx	r3
	mcr	p15, 0, r0, c7, c10, 5
	ldr	r2, [r7, #32]
	sub	r3, r2, #1
	str	r3, [r7, #32]
.L1445:
	cmp	r2, #1
	bne	.L1393
	ldr	r3, [r7]
	mov	r0, r7
	ldr	r3, [r3, #12]
	blx	r3
	b	.L1393
.L1512:
	ldr	r3, [r7]
	mov	r0, r7
	ldr	r3, [r3, #8]
	blx	r3
	add	r3, r7, #32
	mcr	p15, 0, r0, c7, c10, 5
	mcr	p15, 0, r0, c7, c10, 5
.L1486:
	ldrex	r2, [r3]
	sub	r1, r2, #1
	strex	r0, r1, [r3]
	cmp	r0, #0
	bne	.L1486
	mcr	p15, 0, r0, c7, c10, 5
	b	.L1445
.L1454:
	ldr	r0, [sp, #32]
	cmp	r0, #0
	beq	.L1401
	bl	_ZNSt16_Sp_counted_baseILN9__gnu_cxx12_Lock_policyE1EE10_M_releaseEv(PLT)
.L1401:
	cmp	r5, #0
	beq	.L1414
	mov	r0, r5
	bl	_ZNSt16_Sp_counted_baseILN9__gnu_cxx12_Lock_policyE1EE10_M_releaseEv(PLT)
	mov	r0, r5
	bl	_ZNSt16_Sp_counted_baseILN9__gnu_cxx12_Lock_policyE1EE10_M_releaseEv(PLT)
.L1414:
	mov	r3, #0
	mcr	p15, 0, r0, c7, c10, 5
	str	r3, [sp, #4]
	ldr	r0, [sp, #12]
	cmp	r0, r3
	beq	.L1422
	bl	_ZNSt16_Sp_counted_baseILN9__gnu_cxx12_Lock_policyE1EE10_M_releaseEv(PLT)
.L1422:
	add	r0, sp, #16
	bl	_ZN4asio6detail18completion_handlerIZN7asiopal13IAsyncChannel8ShutdownEvEUlvE_E3ptr5resetEv(PLT)
.LEHB42:
	bl	__cxa_end_cleanup(PLT)
.LEHE42:
.L1520:
	.align	2
.L1519:
	.word	_GLOBAL_OFFSET_TABLE_-(.LPIC96+8)
	.word	_ZN4asio6detail10call_stackINS0_15task_io_serviceENS0_27task_io_service_thread_infoEE4top_E(GOT)
	.word	_ZL28__gthrw___pthread_key_createPjPFvPvE(GOT)
	.personality	__gxx_personality_v0
	.handlerdata
.LLSDA9138:
	.byte	0xff
	.byte	0xff
	.byte	0x1
	.uleb128 .LLSDACSE9138-.LLSDACSB9138
.LLSDACSB9138:
	.uleb128 .LEHB41-.LFB9138
	.uleb128 .LEHE41-.LEHB41
	.uleb128 .L1454-.LFB9138
	.uleb128 0
	.uleb128 .LEHB42-.LFB9138
	.uleb128 .LEHE42-.LEHB42
	.uleb128 0
	.uleb128 0
.LLSDACSE9138:
	.section	.text._ZN4asio6detail18completion_handlerIZN7asiopal13IAsyncChannel8ShutdownEvEUlvE_E11do_completeEPNS0_15task_io_serviceEPNS0_25task_io_service_operationERKSt10error_codej,"axG",%progbits,_ZN4asio6detail18completion_handlerIZN7asiopal13IAsyncChannel8ShutdownEvEUlvE_E11do_completeEPNS0_15task_io_serviceEPNS0_25task_io_service_operationERKSt10error_codej,comdat
	.fnend
	.size	_ZN4asio6detail18completion_handlerIZN7asiopal13IAsyncChannel8ShutdownEvEUlvE_E11do_completeEPNS0_15task_io_serviceEPNS0_25task_io_service_operationERKSt10error_codej, .-_ZN4asio6detail18completion_handlerIZN7asiopal13IAsyncChannel8ShutdownEvEUlvE_E11do_completeEPNS0_15task_io_serviceEPNS0_25task_io_service_operationERKSt10error_codej
	.section	.text._ZN4asio6detail18completion_handlerIZN7asiopal13IAsyncChannel16CheckForShutdownESt10shared_ptrIS3_EEUlvE_E3ptr5resetEv,"axG",%progbits,_ZN4asio6detail18completion_handlerIZN7asiopal13IAsyncChannel16CheckForShutdownESt10shared_ptrIS3_EEUlvE_E3ptr5resetEv,comdat
	.align	2
	.weak	_ZN4asio6detail18completion_handlerIZN7asiopal13IAsyncChannel16CheckForShutdownESt10shared_ptrIS3_EEUlvE_E3ptr5resetEv
	.syntax unified
	.arm
	.fpu vfp
	.type	_ZN4asio6detail18completion_handlerIZN7asiopal13IAsyncChannel16CheckForShutdownESt10shared_ptrIS3_EEUlvE_E3ptr5resetEv, %function
_ZN4asio6detail18completion_handlerIZN7asiopal13IAsyncChannel16CheckForShutdownESt10shared_ptrIS3_EEUlvE_E3ptr5resetEv:
	.fnstart
.LFB9140:
	@ args = 0, pretend = 0, frame = 0
	@ frame_needed = 0, uses_anonymous_args = 0
	ldr	r3, [r0, #8]
	push	{r4, r5, r6, lr}
	cmp	r3, #0
	ldr	r5, .L1552
	mov	r4, r0
.LPIC97:
	add	r5, pc, r5
	beq	.L1522
	ldr	r6, [r3, #16]
	cmp	r6, #0
	beq	.L1524
	ldr	r3, .L1552+4
	ldr	r3, [r5, r3]
	cmp	r3, #0
	beq	.L1525
	add	r3, r6, #28
	mcr	p15, 0, r0, c7, c10, 5
.L1546:
	ldrex	r2, [r3]
	sub	r1, r2, #1
	strex	r0, r1, [r3]
	cmp	r0, #0
	bne	.L1546
	cmp	r2, #1
	mcr	p15, 0, r0, c7, c10, 5
	beq	.L1550
.L1524:
	mov	r3, #0
	str	r3, [r4, #8]
.L1522:
	ldr	r6, [r4, #4]
	cmp	r6, #0
	popeq	{r4, r5, r6, pc}
	ldr	r3, .L1552+8
	ldr	r3, [r5, r3]
	ldr	r0, [r3]
	bl	pthread_getspecific(PLT)
	cmp	r0, #0
	beq	.L1530
	ldr	r3, [r0, #4]
	cmp	r3, #0
	beq	.L1530
	ldr	r2, [r3]
	cmp	r2, #0
	beq	.L1551
.L1530:
	mov	r0, r6
	bl	_ZdlPv(PLT)
.L1531:
	mov	r3, #0
	str	r3, [r4, #4]
	pop	{r4, r5, r6, pc}
.L1525:
	ldr	r3, [r6, #28]
	cmp	r3, #1
	sub	r3, r3, #1
	str	r3, [r6, #28]
	bne	.L1524
	ldr	r3, [r6]
	mov	r0, r6
	ldr	r3, [r3, #8]
	blx	r3
	mcr	p15, 0, r0, c7, c10, 5
	ldr	r2, [r6, #32]
	sub	r3, r2, #1
	str	r3, [r6, #32]
	b	.L1532
.L1550:
	ldr	r3, [r6]
	mov	r0, r6
	ldr	r3, [r3, #8]
	blx	r3
	add	r3, r6, #32
	mcr	p15, 0, r0, c7, c10, 5
	mcr	p15, 0, r0, c7, c10, 5
.L1545:
	ldrex	r2, [r3]
	sub	r1, r2, #1
	strex	r0, r1, [r3]
	cmp	r0, #0
	bne	.L1545
	mcr	p15, 0, r0, c7, c10, 5
.L1532:
	cmp	r2, #1
	bne	.L1524
	ldr	r3, [r6]
	mov	r0, r6
	ldr	r3, [r3, #12]
	blx	r3
	b	.L1524
.L1551:
	ldrb	r2, [r6, #20]	@ zero_extendqisi2
	strb	r2, [r6]
	str	r6, [r3]
	b	.L1531
.L1553:
	.align	2
.L1552:
	.word	_GLOBAL_OFFSET_TABLE_-(.LPIC97+8)
	.word	_ZL28__gthrw___pthread_key_createPjPFvPvE(GOT)
	.word	_ZN4asio6detail10call_stackINS0_15task_io_serviceENS0_27task_io_service_thread_infoEE4top_E(GOT)
	.cantunwind
	.fnend
	.size	_ZN4asio6detail18completion_handlerIZN7asiopal13IAsyncChannel16CheckForShutdownESt10shared_ptrIS3_EEUlvE_E3ptr5resetEv, .-_ZN4asio6detail18completion_handlerIZN7asiopal13IAsyncChannel16CheckForShutdownESt10shared_ptrIS3_EEUlvE_E3ptr5resetEv
	.section	.text._ZN4asio6detail18completion_handlerIZN7asiopal13IAsyncChannel16CheckForShutdownESt10shared_ptrIS3_EEUlvE_E11do_completeEPNS0_15task_io_serviceEPNS0_25task_io_service_operationERKSt10error_codej,"axG",%progbits,_ZN4asio6detail18completion_handlerIZN7asiopal13IAsyncChannel16CheckForShutdownESt10shared_ptrIS3_EEUlvE_E11do_completeEPNS0_15task_io_serviceEPNS0_25task_io_service_operationERKSt10error_codej,comdat
	.align	2
	.weak	_ZN4asio6detail18completion_handlerIZN7asiopal13IAsyncChannel16CheckForShutdownESt10shared_ptrIS3_EEUlvE_E11do_completeEPNS0_15task_io_serviceEPNS0_25task_io_service_operationERKSt10error_codej
	.syntax unified
	.arm
	.fpu vfp
	.type	_ZN4asio6detail18completion_handlerIZN7asiopal13IAsyncChannel16CheckForShutdownESt10shared_ptrIS3_EEUlvE_E11do_completeEPNS0_15task_io_serviceEPNS0_25task_io_service_operationERKSt10error_codej, %function
_ZN4asio6detail18completion_handlerIZN7asiopal13IAsyncChannel16CheckForShutdownESt10shared_ptrIS3_EEUlvE_E11do_completeEPNS0_15task_io_serviceEPNS0_25task_io_service_operationERKSt10error_codej:
	.fnstart
.LFB9144:
	@ args = 0, pretend = 0, frame = 40
	@ frame_needed = 0, uses_anonymous_args = 0
	push	{r4, r5, r6, r7, lr}
	.save {r4, r5, r6, r7, lr}
	.pad #44
	sub	sp, sp, #44
	ldr	r4, .L1690
	ldr	r2, [r1, #16]
	ldr	r3, .L1690+4
	ldr	ip, [r1, #12]
.LPIC98:
	add	r4, pc, r4
	str	r2, [sp, #12]
	mov	r5, r1
	add	r2, sp, #8
	mov	r1, #0
	str	r5, [sp, #20]
	str	ip, [sp, #8]
	str	r2, [sp, #16]
	str	r1, [sp, #24]
	ldr	r6, [r4, r3]
	mov	r7, r0
	ldr	r0, [r6]
	bl	pthread_getspecific(PLT)
	cmp	r0, #0
	beq	.L1555
	ldr	r3, [r0, #4]
	cmp	r3, #0
	beq	.L1555
	ldr	r2, [r3]
	cmp	r2, #0
	beq	.L1682
.L1555:
	mov	r0, r5
	bl	_ZdlPv(PLT)
.L1556:
	mov	r2, #0
	cmp	r7, #0
	str	r2, [sp, #20]
	beq	.L1557
	add	r3, sp, #40
	mov	r1, #1
	str	r2, [r3, #-36]!
.L1667:
	ldrex	r2, [r3]
	strex	r0, r1, [r3]
	cmp	r0, #0
	bne	.L1667
	mcr	p15, 0, r0, c7, c10, 5
	ldr	r5, [sp, #12]
	ldr	r3, [sp, #8]
	cmp	r5, #0
	beq	.L1558
	ldr	r2, .L1690+8
	add	r1, r5, #28
	ldr	r2, [r4, r2]
	cmp	r2, #0
	beq	.L1559
	mcr	p15, 0, r0, c7, c10, 5
.L1666:
	ldrex	r0, [r1]
	add	r0, r0, #1
	strex	ip, r0, [r1]
	cmp	ip, #0
	bne	.L1666
	mcr	p15, 0, r0, c7, c10, 5
.L1560:
	ldrb	r0, [r3, #29]	@ zero_extendqisi2
	cmp	r0, #0
	bne	.L1610
	ldrb	r0, [r3, #30]	@ zero_extendqisi2
	cmp	r0, #0
	beq	.L1623
.L1610:
	cmp	r2, #0
	beq	.L1561
	mcr	p15, 0, r0, c7, c10, 5
.L1664:
	ldrex	r2, [r1]
	add	r2, r2, #1
	strex	r0, r2, [r1]
	cmp	r0, #0
	bne	.L1664
	mcr	p15, 0, r0, c7, c10, 5
	str	r3, [sp, #28]
	str	r5, [sp, #32]
	ldr	r3, [r3, #12]
	mcr	p15, 0, r0, c7, c10, 5
.L1665:
	ldrex	r2, [r1]
	add	r2, r2, #1
	strex	r0, r2, [r1]
	cmp	r0, #0
	bne	.L1665
	mcr	p15, 0, r0, c7, c10, 5
.L1562:
	add	r2, sp, #28
	add	r1, r3, #24
	ldr	r0, [r3, #20]
.LEHB43:
	bl	_ZN4asio6detail14strand_service4postIZN7asiopal13IAsyncChannel16CheckForShutdownESt10shared_ptrIS4_EEUlvE_EEvRPNS1_11strand_implERT_(PLT)
.LEHE43:
	ldr	r7, [sp, #32]
	cmp	r7, #0
	beq	.L1564
	ldr	r3, .L1690+8
	ldr	r3, [r4, r3]
	cmp	r3, #0
	beq	.L1565
	add	r3, r7, #28
	mcr	p15, 0, r0, c7, c10, 5
.L1663:
	ldrex	r2, [r3]
	sub	r1, r2, #1
	strex	r0, r1, [r3]
	cmp	r0, #0
	bne	.L1663
	cmp	r2, #1
	mcr	p15, 0, r0, c7, c10, 5
	beq	.L1683
.L1564:
	cmp	r5, #0
	beq	.L1587
	ldr	r3, .L1690+8
	ldr	r3, [r4, r3]
	cmp	r3, #0
	beq	.L1575
	add	r3, r5, #28
	mcr	p15, 0, r0, c7, c10, 5
.L1662:
	ldrex	r2, [r3]
	sub	r1, r2, #1
	strex	r0, r1, [r3]
	cmp	r0, #0
	bne	.L1662
	cmp	r2, #1
	mcr	p15, 0, r0, c7, c10, 5
	bne	.L1579
	ldr	r3, [r5]
	mov	r0, r5
	ldr	r3, [r3, #8]
	blx	r3
	add	r3, r5, #32
	mcr	p15, 0, r0, c7, c10, 5
	mcr	p15, 0, r0, c7, c10, 5
.L1656:
	ldrex	r2, [r3]
	sub	r1, r2, #1
	strex	r0, r1, [r3]
	cmp	r0, #0
	bne	.L1656
	mcr	p15, 0, r0, c7, c10, 5
.L1617:
	cmp	r2, #1
	bne	.L1579
	ldr	r3, [r5]
	mov	r0, r5
	ldr	r3, [r3, #12]
	blx	r3
	b	.L1579
.L1689:
	ldrb	r2, [r3, #30]	@ zero_extendqisi2
	cmp	r2, #0
	bne	.L1613
.L1623:
	ldr	r7, [r3, #24]
	mov	r2, #0
	cmp	r7, r2
	str	r2, [r3, #20]
	str	r2, [r3, #24]
	beq	.L1579
	ldr	r3, .L1690+8
	ldr	r3, [r4, r3]
	cmp	r3, #0
	beq	.L1580
	add	r3, r7, #28
	mcr	p15, 0, r0, c7, c10, 5
.L1661:
	ldrex	r2, [r3]
	sub	r1, r2, #1
	strex	r0, r1, [r3]
	cmp	r0, #0
	bne	.L1661
	cmp	r2, #1
	mcr	p15, 0, r0, c7, c10, 5
	beq	.L1684
.L1579:
	cmp	r5, #0
	beq	.L1587
	ldr	r3, .L1690+8
	ldr	r3, [r4, r3]
	cmp	r3, #0
	beq	.L1588
	add	r3, r5, #28
	mcr	p15, 0, r0, c7, c10, 5
.L1660:
	ldrex	r2, [r3]
	sub	r1, r2, #1
	strex	r0, r1, [r3]
	cmp	r0, #0
	bne	.L1660
	cmp	r2, #1
	mcr	p15, 0, r0, c7, c10, 5
	beq	.L1685
.L1587:
	mov	r3, #0
	mcr	p15, 0, r0, c7, c10, 5
	str	r3, [sp, #4]
.L1557:
	ldr	r5, [sp, #12]
	cmp	r5, #0
	beq	.L1595
	ldr	r3, .L1690+8
	ldr	r3, [r4, r3]
	cmp	r3, #0
	beq	.L1596
	add	r3, r5, #28
	mcr	p15, 0, r0, c7, c10, 5
.L1659:
	ldrex	r2, [r3]
	sub	r1, r2, #1
	strex	r0, r1, [r3]
	cmp	r0, #0
	bne	.L1659
	cmp	r2, #1
	mcr	p15, 0, r0, c7, c10, 5
	beq	.L1686
.L1595:
	ldr	r3, [sp, #24]
	cmp	r3, #0
	beq	.L1600
	ldr	r5, [r3, #16]
	cmp	r5, #0
	beq	.L1602
	ldr	r3, .L1690+8
	ldr	r3, [r4, r3]
	cmp	r3, #0
	beq	.L1603
	add	r3, r5, #28
	mcr	p15, 0, r0, c7, c10, 5
.L1658:
	ldrex	r2, [r3]
	sub	r1, r2, #1
	strex	r0, r1, [r3]
	cmp	r0, #0
	bne	.L1658
	cmp	r2, #1
	mcr	p15, 0, r0, c7, c10, 5
	beq	.L1687
.L1602:
	mov	r3, #0
	str	r3, [sp, #24]
.L1600:
	ldr	r4, [sp, #20]
	cmp	r4, #0
	beq	.L1554
	ldr	r0, [r6]
	bl	pthread_getspecific(PLT)
	cmp	r0, #0
	beq	.L1608
	ldr	r3, [r0, #4]
	cmp	r3, #0
	beq	.L1608
	ldr	r2, [r3]
	cmp	r2, #0
	beq	.L1688
.L1608:
	mov	r0, r4
	bl	_ZdlPv(PLT)
.L1554:
	add	sp, sp, #44
	@ sp needed
	pop	{r4, r5, r6, r7, pc}
.L1559:
	ldr	r0, [r5, #28]
	add	r0, r0, #1
	str	r0, [r5, #28]
	b	.L1560
.L1596:
	ldr	r3, [r5, #28]
	cmp	r3, #1
	sub	r3, r3, #1
	str	r3, [r5, #28]
	bne	.L1595
	ldr	r3, [r5]
	mov	r0, r5
	ldr	r3, [r3, #8]
	blx	r3
	mcr	p15, 0, r0, c7, c10, 5
	ldr	r2, [r5, #32]
	sub	r3, r2, #1
	str	r3, [r5, #32]
	b	.L1620
.L1603:
	ldr	r3, [r5, #28]
	cmp	r3, #1
	sub	r3, r3, #1
	str	r3, [r5, #28]
	bne	.L1602
	ldr	r3, [r5]
	mov	r0, r5
	ldr	r3, [r3, #8]
	blx	r3
	mcr	p15, 0, r0, c7, c10, 5
	ldr	r2, [r5, #32]
	sub	r3, r2, #1
	str	r3, [r5, #32]
	b	.L1621
.L1686:
	ldr	r3, [r5]
	mov	r0, r5
	ldr	r3, [r3, #8]
	blx	r3
	add	r3, r5, #32
	mcr	p15, 0, r0, c7, c10, 5
	mcr	p15, 0, r0, c7, c10, 5
.L1653:
	ldrex	r2, [r3]
	sub	r1, r2, #1
	strex	r0, r1, [r3]
	cmp	r0, #0
	bne	.L1653
	mcr	p15, 0, r0, c7, c10, 5
.L1620:
	cmp	r2, #1
	bne	.L1595
	ldr	r3, [r5]
	mov	r0, r5
	ldr	r3, [r3, #12]
	blx	r3
	b	.L1595
.L1687:
	ldr	r3, [r5]
	mov	r0, r5
	ldr	r3, [r3, #8]
	blx	r3
	add	r3, r5, #32
	mcr	p15, 0, r0, c7, c10, 5
	mcr	p15, 0, r0, c7, c10, 5
.L1652:
	ldrex	r2, [r3]
	sub	r1, r2, #1
	strex	r0, r1, [r3]
	cmp	r0, #0
	bne	.L1652
	mcr	p15, 0, r0, c7, c10, 5
.L1621:
	cmp	r2, #1
	bne	.L1602
	ldr	r3, [r5]
	mov	r0, r5
	ldr	r3, [r3, #12]
	blx	r3
	b	.L1602
.L1588:
	ldr	r3, [r5, #28]
	cmp	r3, #1
	sub	r3, r3, #1
	str	r3, [r5, #28]
	bne	.L1587
	ldr	r3, [r5]
	mov	r0, r5
	ldr	r3, [r3, #8]
	blx	r3
	mcr	p15, 0, r0, c7, c10, 5
	ldr	r2, [r5, #32]
	sub	r3, r2, #1
	str	r3, [r5, #32]
	b	.L1619
.L1580:
	ldr	r3, [r7, #28]
	cmp	r3, #1
	sub	r3, r3, #1
	str	r3, [r7, #28]
	bne	.L1579
	ldr	r3, [r7]
	mov	r0, r7
	ldr	r3, [r3, #8]
	blx	r3
	mcr	p15, 0, r0, c7, c10, 5
	ldr	r2, [r7, #32]
	sub	r3, r2, #1
	str	r3, [r7, #32]
	b	.L1618
.L1685:
	ldr	r3, [r5]
	mov	r0, r5
	ldr	r3, [r3, #8]
	blx	r3
	add	r3, r5, #32
	mcr	p15, 0, r0, c7, c10, 5
	mcr	p15, 0, r0, c7, c10, 5
.L1654:
	ldrex	r2, [r3]
	sub	r1, r2, #1
	strex	r0, r1, [r3]
	cmp	r0, #0
	bne	.L1654
	mcr	p15, 0, r0, c7, c10, 5
.L1619:
	cmp	r2, #1
	bne	.L1587
	ldr	r3, [r5]
	mov	r0, r5
	ldr	r3, [r3, #12]
	blx	r3
	b	.L1587
.L1561:
	ldr	r2, [r5, #28]
	str	r3, [sp, #28]
	add	r2, r2, #2
	ldr	r3, [r3, #12]
	str	r5, [sp, #32]
	str	r2, [r5, #28]
	b	.L1562
.L1558:
	ldrb	r2, [r3, #29]	@ zero_extendqisi2
	cmp	r2, #0
	beq	.L1689
.L1613:
	mov	r2, #0
	str	r3, [sp, #28]
	str	r2, [sp, #32]
	ldr	r3, [r3, #12]
	b	.L1562
.L1682:
	ldrb	r2, [r5, #20]	@ zero_extendqisi2
	strb	r2, [r5]
	str	r5, [r3]
	b	.L1556
.L1688:
	ldrb	r2, [r4, #20]	@ zero_extendqisi2
	strb	r2, [r4]
	str	r4, [r3]
	b	.L1554
.L1684:
	ldr	r3, [r7]
	mov	r0, r7
	ldr	r3, [r3, #8]
	blx	r3
	add	r3, r7, #32
	mcr	p15, 0, r0, c7, c10, 5
	mcr	p15, 0, r0, c7, c10, 5
.L1655:
	ldrex	r2, [r3]
	sub	r1, r2, #1
	strex	r0, r1, [r3]
	cmp	r0, #0
	bne	.L1655
	mcr	p15, 0, r0, c7, c10, 5
.L1618:
	cmp	r2, #1
	bne	.L1579
	ldr	r3, [r7]
	mov	r0, r7
	ldr	r3, [r3, #12]
	blx	r3
	b	.L1579
.L1575:
	ldr	r3, [r5, #28]
	cmp	r3, #1
	sub	r3, r3, #1
	str	r3, [r5, #28]
	bne	.L1579
	ldr	r3, [r5]
	mov	r0, r5
	ldr	r3, [r3, #8]
	blx	r3
	mcr	p15, 0, r0, c7, c10, 5
	ldr	r2, [r5, #32]
	sub	r3, r2, #1
	str	r3, [r5, #32]
	b	.L1617
.L1565:
	ldr	r3, [r7, #28]
	cmp	r3, #1
	sub	r3, r3, #1
	str	r3, [r7, #28]
	bne	.L1564
	ldr	r3, [r7]
	mov	r0, r7
	ldr	r3, [r3, #8]
	blx	r3
	mcr	p15, 0, r0, c7, c10, 5
	ldr	r2, [r7, #32]
	sub	r3, r2, #1
	str	r3, [r7, #32]
.L1616:
	cmp	r2, #1
	bne	.L1564
	ldr	r3, [r7]
	mov	r0, r7
	ldr	r3, [r3, #12]
	blx	r3
	b	.L1564
.L1683:
	ldr	r3, [r7]
	mov	r0, r7
	ldr	r3, [r3, #8]
	blx	r3
	add	r3, r7, #32
	mcr	p15, 0, r0, c7, c10, 5
	mcr	p15, 0, r0, c7, c10, 5
.L1657:
	ldrex	r2, [r3]
	sub	r1, r2, #1
	strex	r0, r1, [r3]
	cmp	r0, #0
	bne	.L1657
	mcr	p15, 0, r0, c7, c10, 5
	b	.L1616
.L1625:
	ldr	r0, [sp, #32]
	cmp	r0, #0
	beq	.L1572
	bl	_ZNSt16_Sp_counted_baseILN9__gnu_cxx12_Lock_policyE1EE10_M_releaseEv(PLT)
.L1572:
	cmp	r5, #0
	beq	.L1585
	mov	r0, r5
	bl	_ZNSt16_Sp_counted_baseILN9__gnu_cxx12_Lock_policyE1EE10_M_releaseEv(PLT)
	mov	r0, r5
	bl	_ZNSt16_Sp_counted_baseILN9__gnu_cxx12_Lock_policyE1EE10_M_releaseEv(PLT)
.L1585:
	mov	r3, #0
	mcr	p15, 0, r0, c7, c10, 5
	str	r3, [sp, #4]
	ldr	r0, [sp, #12]
	cmp	r0, r3
	beq	.L1593
	bl	_ZNSt16_Sp_counted_baseILN9__gnu_cxx12_Lock_policyE1EE10_M_releaseEv(PLT)
.L1593:
	add	r0, sp, #16
	bl	_ZN4asio6detail18completion_handlerIZN7asiopal13IAsyncChannel16CheckForShutdownESt10shared_ptrIS3_EEUlvE_E3ptr5resetEv(PLT)
.LEHB44:
	bl	__cxa_end_cleanup(PLT)
.LEHE44:
.L1691:
	.align	2
.L1690:
	.word	_GLOBAL_OFFSET_TABLE_-(.LPIC98+8)
	.word	_ZN4asio6detail10call_stackINS0_15task_io_serviceENS0_27task_io_service_thread_infoEE4top_E(GOT)
	.word	_ZL28__gthrw___pthread_key_createPjPFvPvE(GOT)
	.personality	__gxx_personality_v0
	.handlerdata
.LLSDA9144:
	.byte	0xff
	.byte	0xff
	.byte	0x1
	.uleb128 .LLSDACSE9144-.LLSDACSB9144
.LLSDACSB9144:
	.uleb128 .LEHB43-.LFB9144
	.uleb128 .LEHE43-.LEHB43
	.uleb128 .L1625-.LFB9144
	.uleb128 0
	.uleb128 .LEHB44-.LFB9144
	.uleb128 .LEHE44-.LEHB44
	.uleb128 0
	.uleb128 0
.LLSDACSE9144:
	.section	.text._ZN4asio6detail18completion_handlerIZN7asiopal13IAsyncChannel16CheckForShutdownESt10shared_ptrIS3_EEUlvE_E11do_completeEPNS0_15task_io_serviceEPNS0_25task_io_service_operationERKSt10error_codej,"axG",%progbits,_ZN4asio6detail18completion_handlerIZN7asiopal13IAsyncChannel16CheckForShutdownESt10shared_ptrIS3_EEUlvE_E11do_completeEPNS0_15task_io_serviceEPNS0_25task_io_service_operationERKSt10error_codej,comdat
	.fnend
	.size	_ZN4asio6detail18completion_handlerIZN7asiopal13IAsyncChannel16CheckForShutdownESt10shared_ptrIS3_EEUlvE_E11do_completeEPNS0_15task_io_serviceEPNS0_25task_io_service_operationERKSt10error_codej, .-_ZN4asio6detail18completion_handlerIZN7asiopal13IAsyncChannel16CheckForShutdownESt10shared_ptrIS3_EEUlvE_E11do_completeEPNS0_15task_io_serviceEPNS0_25task_io_service_operationERKSt10error_codej
	.section	.text.startup,"ax",%progbits
	.align	2
	.syntax unified
	.arm
	.fpu vfp
	.type	_GLOBAL__sub_I_IOHandler.cpp, %function
_GLOBAL__sub_I_IOHandler.cpp:
	.fnstart
.LFB9939:
	@ args = 0, pretend = 0, frame = 0
	@ frame_needed = 0, uses_anonymous_args = 0
	push	{r4, r5, r6, lr}
	ldr	r4, .L1731
	ldr	r3, .L1731+4
.LPIC99:
	add	r4, pc, r4
	ldr	r5, [r4, r3]
	ldrb	r3, [r5]	@ zero_extendqisi2
	mcr	p15, 0, r0, c7, c10, 5
	tst	r3, #1
	beq	.L1723
.L1694:
	ldr	r3, .L1731+8
	ldr	r5, [r4, r3]
	ldrb	r3, [r5]	@ zero_extendqisi2
	mcr	p15, 0, r0, c7, c10, 5
	tst	r3, #1
	beq	.L1724
.L1697:
	ldr	r3, .L1731+12
	ldr	r5, [r4, r3]
	ldrb	r3, [r5]	@ zero_extendqisi2
	mcr	p15, 0, r0, c7, c10, 5
	tst	r3, #1
	beq	.L1725
.L1700:
	ldr	r3, .L1731+16
	ldr	r5, [r4, r3]
	ldrb	r3, [r5]	@ zero_extendqisi2
	mcr	p15, 0, r0, c7, c10, 5
	tst	r3, #1
	beq	.L1726
.L1703:
	ldr	r3, .L1731+20
	ldr	r3, [r4, r3]
	ldr	r2, [r3]
	tst	r2, #1
	beq	.L1727
.L1705:
	ldr	r3, .L1731+24
	ldr	r3, [r4, r3]
	ldr	r2, [r3]
	tst	r2, #1
	beq	.L1728
.L1706:
	ldr	r3, .L1731+28
	ldr	r3, [r4, r3]
	ldr	r2, [r3]
	tst	r2, #1
	beq	.L1729
.L1707:
	ldr	r3, .L1731+32
	ldr	r3, [r4, r3]
	ldr	r2, [r3]
	tst	r2, #1
	beq	.L1730
.L1708:
	ldr	r3, .L1731+36
	ldr	r3, [r4, r3]
	ldr	r2, [r3]
	tst	r2, #1
	popne	{r4, r5, r6, pc}
	ldr	r2, .L1731+40
	mov	r0, #1
	ldr	r1, .L1731+44
	str	r0, [r3]
	ldr	r0, [r4, r2]
	ldr	r2, .L1731+48
	ldr	r1, [r4, r1]
.LPIC108:
	add	r2, pc, r2
	pop	{r4, r5, r6, lr}
	b	__aeabi_atexit(PLT)
.L1726:
	mov	r0, r5
	bl	__cxa_guard_acquire(PLT)
	cmp	r0, #0
	beq	.L1703
	mov	r0, r5
	bl	__cxa_guard_release(PLT)
	ldr	r3, .L1731+52
	ldr	r1, .L1731+56
	ldr	r2, .L1731+60
	ldr	r0, [r4, r3]
.LPIC103:
	add	r2, pc, r2
	ldr	r1, [r4, r1]
	bl	__aeabi_atexit(PLT)
	b	.L1703
.L1725:
	mov	r0, r5
	bl	__cxa_guard_acquire(PLT)
	cmp	r0, #0
	beq	.L1700
	mov	r0, r5
	bl	__cxa_guard_release(PLT)
	ldr	r3, .L1731+64
	ldr	r1, .L1731+68
	ldr	r2, .L1731+72
	ldr	r0, [r4, r3]
.LPIC102:
	add	r2, pc, r2
	ldr	r1, [r4, r1]
	bl	__aeabi_atexit(PLT)
	b	.L1700
.L1724:
	mov	r0, r5
	bl	__cxa_guard_acquire(PLT)
	cmp	r0, #0
	beq	.L1697
	mov	r0, r5
	bl	__cxa_guard_release(PLT)
	ldr	r3, .L1731+76
	ldr	r1, .L1731+80
	ldr	r2, .L1731+84
	ldr	r0, [r4, r3]
.LPIC101:
	add	r2, pc, r2
	ldr	r1, [r4, r1]
	bl	__aeabi_atexit(PLT)
	b	.L1697
.L1723:
	mov	r0, r5
	bl	__cxa_guard_acquire(PLT)
	cmp	r0, #0
	beq	.L1694
	mov	r0, r5
	bl	__cxa_guard_release(PLT)
	ldr	r3, .L1731+88
	ldr	r1, .L1731+92
	ldr	r2, .L1731+96
	ldr	r0, [r4, r3]
.LPIC100:
	add	r2, pc, r2
	ldr	r1, [r4, r1]
	bl	__aeabi_atexit(PLT)
	b	.L1694
.L1730:
	ldr	r2, .L1731+100
	mov	r1, #1
	str	r1, [r3]
	ldr	r5, [r4, r2]
	mov	r0, r5
	bl	_ZN4asio6detail20posix_tss_ptr_createERj(PLT)
	ldr	r3, .L1731+104
	ldr	r2, .L1731+108
	mov	r0, r5
.LPIC107:
	add	r2, pc, r2
	ldr	r1, [r4, r3]
	bl	__aeabi_atexit(PLT)
	b	.L1708
.L1729:
	ldr	r2, .L1731+112
	mov	r0, #1
	ldr	r1, .L1731+116
	str	r0, [r3]
	ldr	r0, [r4, r2]
	ldr	r2, .L1731+120
	ldr	r1, [r4, r1]
.LPIC106:
	add	r2, pc, r2
	bl	__aeabi_atexit(PLT)
	b	.L1707
.L1728:
	ldr	r2, .L1731+124
	mov	r0, #1
	ldr	r1, .L1731+128
	str	r0, [r3]
	ldr	r0, [r4, r2]
	ldr	r2, .L1731+132
	ldr	r1, [r4, r1]
.LPIC105:
	add	r2, pc, r2
	bl	__aeabi_atexit(PLT)
	b	.L1706
.L1727:
	ldr	r2, .L1731+136
	mov	r1, #1
	str	r1, [r3]
	ldr	r5, [r4, r2]
	mov	r0, r5
	bl	_ZN4asio6detail20posix_tss_ptr_createERj(PLT)
	ldr	r3, .L1731+140
	ldr	r2, .L1731+144
	mov	r0, r5
.LPIC104:
	add	r2, pc, r2
	ldr	r1, [r4, r3]
	bl	__aeabi_atexit(PLT)
	b	.L1705
.L1732:
	.align	2
.L1731:
	.word	_GLOBAL_OFFSET_TABLE_-(.LPIC99+8)
	.word	_ZGVZN4asio15system_categoryEvE8instance(GOT)
	.word	_ZGVZN4asio5error18get_netdb_categoryEvE8instance(GOT)
	.word	_ZGVZN4asio5error21get_addrinfo_categoryEvE8instance(GOT)
	.word	_ZGVZN4asio5error17get_misc_categoryEvE8instance(GOT)
	.word	_ZGVN4asio6detail10call_stackINS0_15task_io_serviceENS0_27task_io_service_thread_infoEE4top_E(GOT)
	.word	_ZGVN4asio6detail12service_baseINS0_13epoll_reactorEE2idE(GOT)
	.word	_ZGVN4asio6detail12service_baseINS0_15task_io_serviceEE2idE(GOT)
	.word	_ZGVN4asio6detail10call_stackINS0_14strand_service11strand_implEhE4top_E(GOT)
	.word	_ZGVN4asio6detail12service_baseINS0_14strand_serviceEE2idE(GOT)
	.word	_ZN4asio6detail12service_baseINS0_14strand_serviceEE2idE(GOT)
	.word	_ZN4asio6detail10service_idINS0_14strand_serviceEED1Ev(GOT)
	.word	__dso_handle-(.LPIC108+8)
	.word	_ZZN4asio5error17get_misc_categoryEvE8instance(GOT)
	.word	_ZN4asio5error6detail13misc_categoryD1Ev(GOT)
	.word	__dso_handle-(.LPIC103+8)
	.word	_ZZN4asio5error21get_addrinfo_categoryEvE8instance(GOT)
	.word	_ZN4asio5error6detail17addrinfo_categoryD1Ev(GOT)
	.word	__dso_handle-(.LPIC102+8)
	.word	_ZZN4asio5error18get_netdb_categoryEvE8instance(GOT)
	.word	_ZN4asio5error6detail14netdb_categoryD1Ev(GOT)
	.word	__dso_handle-(.LPIC101+8)
	.word	_ZZN4asio15system_categoryEvE8instance(GOT)
	.word	_ZN4asio6detail15system_categoryD1Ev(GOT)
	.word	__dso_handle-(.LPIC100+8)
	.word	_ZN4asio6detail10call_stackINS0_14strand_service11strand_implEhE4top_E(GOT)
	.word	_ZN4asio6detail7tss_ptrINS0_10call_stackINS0_14strand_service11strand_implEhE7contextEED1Ev(GOT)
	.word	__dso_handle-(.LPIC107+8)
	.word	_ZN4asio6detail12service_baseINS0_15task_io_serviceEE2idE(GOT)
	.word	_ZN4asio6detail10service_idINS0_15task_io_serviceEED1Ev(GOT)
	.word	__dso_handle-(.LPIC106+8)
	.word	_ZN4asio6detail12service_baseINS0_13epoll_reactorEE2idE(GOT)
	.word	_ZN4asio6detail10service_idINS0_13epoll_reactorEED1Ev(GOT)
	.word	__dso_handle-(.LPIC105+8)
	.word	_ZN4asio6detail10call_stackINS0_15task_io_serviceENS0_27task_io_service_thread_infoEE4top_E(GOT)
	.word	_ZN4asio6detail7tss_ptrINS0_10call_stackINS0_15task_io_serviceENS0_27task_io_service_thread_infoEE7contextEED1Ev(GOT)
	.word	__dso_handle-(.LPIC104+8)
	.cantunwind
	.fnend
	.size	_GLOBAL__sub_I_IOHandler.cpp, .-_GLOBAL__sub_I_IOHandler.cpp
	.section	.init_array,"aw"
	.align	2
	.word	_GLOBAL__sub_I_IOHandler.cpp
	.weak	_ZTSSt23enable_shared_from_thisIN8asiodnp39IOHandlerEE
	.section	.rodata._ZTSSt23enable_shared_from_thisIN8asiodnp39IOHandlerEE,"aG",%progbits,_ZTSSt23enable_shared_from_thisIN8asiodnp39IOHandlerEE,comdat
	.align	2
	.type	_ZTSSt23enable_shared_from_thisIN8asiodnp39IOHandlerEE, %object
	.size	_ZTSSt23enable_shared_from_thisIN8asiodnp39IOHandlerEE, 51
_ZTSSt23enable_shared_from_thisIN8asiodnp39IOHandlerEE:
	.ascii	"St23enable_shared_from_thisIN8asiodnp39IOHandlerEE\000"
	.weak	_ZTISt23enable_shared_from_thisIN8asiodnp39IOHandlerEE
	.section	.data.rel.ro._ZTISt23enable_shared_from_thisIN8asiodnp39IOHandlerEE,"awG",%progbits,_ZTISt23enable_shared_from_thisIN8asiodnp39IOHandlerEE,comdat
	.align	2
	.type	_ZTISt23enable_shared_from_thisIN8asiodnp39IOHandlerEE, %object
	.size	_ZTISt23enable_shared_from_thisIN8asiodnp39IOHandlerEE, 8
_ZTISt23enable_shared_from_thisIN8asiodnp39IOHandlerEE:
	.word	_ZTVN10__cxxabiv117__class_type_infoE+8
	.word	_ZTSSt23enable_shared_from_thisIN8asiodnp39IOHandlerEE
	.weak	_ZGVN4asio6detail12service_baseINS0_14strand_serviceEE2idE
	.section	.bss._ZGVN4asio6detail12service_baseINS0_14strand_serviceEE2idE,"awG",%nobits,_ZGVN4asio6detail12service_baseINS0_14strand_serviceEE2idE,comdat
	.align	2
	.type	_ZGVN4asio6detail12service_baseINS0_14strand_serviceEE2idE, %gnu_unique_object
	.size	_ZGVN4asio6detail12service_baseINS0_14strand_serviceEE2idE, 4
_ZGVN4asio6detail12service_baseINS0_14strand_serviceEE2idE:
	.space	4
	.weak	_ZGVN4asio6detail10call_stackINS0_14strand_service11strand_implEhE4top_E
	.section	.bss._ZGVN4asio6detail10call_stackINS0_14strand_service11strand_implEhE4top_E,"awG",%nobits,_ZGVN4asio6detail10call_stackINS0_14strand_service11strand_implEhE4top_E,comdat
	.align	2
	.type	_ZGVN4asio6detail10call_stackINS0_14strand_service11strand_implEhE4top_E, %gnu_unique_object
	.size	_ZGVN4asio6detail10call_stackINS0_14strand_service11strand_implEhE4top_E, 4
_ZGVN4asio6detail10call_stackINS0_14strand_service11strand_implEhE4top_E:
	.space	4
	.weak	_ZGVN4asio6detail12service_baseINS0_15task_io_serviceEE2idE
	.section	.bss._ZGVN4asio6detail12service_baseINS0_15task_io_serviceEE2idE,"awG",%nobits,_ZGVN4asio6detail12service_baseINS0_15task_io_serviceEE2idE,comdat
	.align	2
	.type	_ZGVN4asio6detail12service_baseINS0_15task_io_serviceEE2idE, %gnu_unique_object
	.size	_ZGVN4asio6detail12service_baseINS0_15task_io_serviceEE2idE, 4
_ZGVN4asio6detail12service_baseINS0_15task_io_serviceEE2idE:
	.space	4
	.weak	_ZGVN4asio6detail12service_baseINS0_13epoll_reactorEE2idE
	.section	.bss._ZGVN4asio6detail12service_baseINS0_13epoll_reactorEE2idE,"awG",%nobits,_ZGVN4asio6detail12service_baseINS0_13epoll_reactorEE2idE,comdat
	.align	2
	.type	_ZGVN4asio6detail12service_baseINS0_13epoll_reactorEE2idE, %gnu_unique_object
	.size	_ZGVN4asio6detail12service_baseINS0_13epoll_reactorEE2idE, 4
_ZGVN4asio6detail12service_baseINS0_13epoll_reactorEE2idE:
	.space	4
	.weak	_ZGVN4asio6detail10call_stackINS0_15task_io_serviceENS0_27task_io_service_thread_infoEE4top_E
	.section	.bss._ZGVN4asio6detail10call_stackINS0_15task_io_serviceENS0_27task_io_service_thread_infoEE4top_E,"awG",%nobits,_ZGVN4asio6detail10call_stackINS0_15task_io_serviceENS0_27task_io_service_thread_infoEE4top_E,comdat
	.align	2
	.type	_ZGVN4asio6detail10call_stackINS0_15task_io_serviceENS0_27task_io_service_thread_infoEE4top_E, %gnu_unique_object
	.size	_ZGVN4asio6detail10call_stackINS0_15task_io_serviceENS0_27task_io_service_thread_infoEE4top_E, 4
_ZGVN4asio6detail10call_stackINS0_15task_io_serviceENS0_27task_io_service_thread_infoEE4top_E:
	.space	4
	.weak	_ZN4asio6detail12service_baseINS0_14strand_serviceEE2idE
	.section	.bss._ZN4asio6detail12service_baseINS0_14strand_serviceEE2idE,"awG",%nobits,_ZN4asio6detail12service_baseINS0_14strand_serviceEE2idE,comdat
	.align	2
	.type	_ZN4asio6detail12service_baseINS0_14strand_serviceEE2idE, %gnu_unique_object
	.size	_ZN4asio6detail12service_baseINS0_14strand_serviceEE2idE, 1
_ZN4asio6detail12service_baseINS0_14strand_serviceEE2idE:
	.space	1
	.weak	_ZN4asio6detail10call_stackINS0_14strand_service11strand_implEhE4top_E
	.section	.bss._ZN4asio6detail10call_stackINS0_14strand_service11strand_implEhE4top_E,"awG",%nobits,_ZN4asio6detail10call_stackINS0_14strand_service11strand_implEhE4top_E,comdat
	.align	2
	.type	_ZN4asio6detail10call_stackINS0_14strand_service11strand_implEhE4top_E, %gnu_unique_object
	.size	_ZN4asio6detail10call_stackINS0_14strand_service11strand_implEhE4top_E, 4
_ZN4asio6detail10call_stackINS0_14strand_service11strand_implEhE4top_E:
	.space	4
	.weak	_ZN4asio6detail12service_baseINS0_15task_io_serviceEE2idE
	.section	.bss._ZN4asio6detail12service_baseINS0_15task_io_serviceEE2idE,"awG",%nobits,_ZN4asio6detail12service_baseINS0_15task_io_serviceEE2idE,comdat
	.align	2
	.type	_ZN4asio6detail12service_baseINS0_15task_io_serviceEE2idE, %gnu_unique_object
	.size	_ZN4asio6detail12service_baseINS0_15task_io_serviceEE2idE, 1
_ZN4asio6detail12service_baseINS0_15task_io_serviceEE2idE:
	.space	1
	.weak	_ZN4asio6detail12service_baseINS0_13epoll_reactorEE2idE
	.section	.bss._ZN4asio6detail12service_baseINS0_13epoll_reactorEE2idE,"awG",%nobits,_ZN4asio6detail12service_baseINS0_13epoll_reactorEE2idE,comdat
	.align	2
	.type	_ZN4asio6detail12service_baseINS0_13epoll_reactorEE2idE, %gnu_unique_object
	.size	_ZN4asio6detail12service_baseINS0_13epoll_reactorEE2idE, 1
_ZN4asio6detail12service_baseINS0_13epoll_reactorEE2idE:
	.space	1
	.weak	_ZN4asio6detail10call_stackINS0_15task_io_serviceENS0_27task_io_service_thread_infoEE4top_E
	.section	.bss._ZN4asio6detail10call_stackINS0_15task_io_serviceENS0_27task_io_service_thread_infoEE4top_E,"awG",%nobits,_ZN4asio6detail10call_stackINS0_15task_io_serviceENS0_27task_io_service_thread_infoEE4top_E,comdat
	.align	2
	.type	_ZN4asio6detail10call_stackINS0_15task_io_serviceENS0_27task_io_service_thread_infoEE4top_E, %gnu_unique_object
	.size	_ZN4asio6detail10call_stackINS0_15task_io_serviceENS0_27task_io_service_thread_infoEE4top_E, 4
_ZN4asio6detail10call_stackINS0_15task_io_serviceENS0_27task_io_service_thread_infoEE4top_E:
	.space	4
	.weak	_ZTSN8opendnp310IFrameSinkE
	.section	.rodata._ZTSN8opendnp310IFrameSinkE,"aG",%progbits,_ZTSN8opendnp310IFrameSinkE,comdat
	.align	2
	.type	_ZTSN8opendnp310IFrameSinkE, %object
	.size	_ZTSN8opendnp310IFrameSinkE, 24
_ZTSN8opendnp310IFrameSinkE:
	.ascii	"N8opendnp310IFrameSinkE\000"
	.weak	_ZTIN8opendnp310IFrameSinkE
	.section	.data.rel.ro._ZTIN8opendnp310IFrameSinkE,"awG",%progbits,_ZTIN8opendnp310IFrameSinkE,comdat
	.align	2
	.type	_ZTIN8opendnp310IFrameSinkE, %object
	.size	_ZTIN8opendnp310IFrameSinkE, 8
_ZTIN8opendnp310IFrameSinkE:
	.word	_ZTVN10__cxxabiv117__class_type_infoE+8
	.word	_ZTSN8opendnp310IFrameSinkE
	.weak	_ZTSN9__gnu_cxx24__concurrence_lock_errorE
	.section	.rodata._ZTSN9__gnu_cxx24__concurrence_lock_errorE,"aG",%progbits,_ZTSN9__gnu_cxx24__concurrence_lock_errorE,comdat
	.align	2
	.type	_ZTSN9__gnu_cxx24__concurrence_lock_errorE, %object
	.size	_ZTSN9__gnu_cxx24__concurrence_lock_errorE, 39
_ZTSN9__gnu_cxx24__concurrence_lock_errorE:
	.ascii	"N9__gnu_cxx24__concurrence_lock_errorE\000"
	.weak	_ZTIN9__gnu_cxx24__concurrence_lock_errorE
	.section	.data.rel.ro._ZTIN9__gnu_cxx24__concurrence_lock_errorE,"awG",%progbits,_ZTIN9__gnu_cxx24__concurrence_lock_errorE,comdat
	.align	2
	.type	_ZTIN9__gnu_cxx24__concurrence_lock_errorE, %object
	.size	_ZTIN9__gnu_cxx24__concurrence_lock_errorE, 12
_ZTIN9__gnu_cxx24__concurrence_lock_errorE:
	.word	_ZTVN10__cxxabiv120__si_class_type_infoE+8
	.word	_ZTSN9__gnu_cxx24__concurrence_lock_errorE
	.word	_ZTISt9exception
	.weak	_ZTSN9__gnu_cxx26__concurrence_unlock_errorE
	.section	.rodata._ZTSN9__gnu_cxx26__concurrence_unlock_errorE,"aG",%progbits,_ZTSN9__gnu_cxx26__concurrence_unlock_errorE,comdat
	.align	2
	.type	_ZTSN9__gnu_cxx26__concurrence_unlock_errorE, %object
	.size	_ZTSN9__gnu_cxx26__concurrence_unlock_errorE, 41
_ZTSN9__gnu_cxx26__concurrence_unlock_errorE:
	.ascii	"N9__gnu_cxx26__concurrence_unlock_errorE\000"
	.weak	_ZTIN9__gnu_cxx26__concurrence_unlock_errorE
	.section	.data.rel.ro._ZTIN9__gnu_cxx26__concurrence_unlock_errorE,"awG",%progbits,_ZTIN9__gnu_cxx26__concurrence_unlock_errorE,comdat
	.align	2
	.type	_ZTIN9__gnu_cxx26__concurrence_unlock_errorE, %object
	.size	_ZTIN9__gnu_cxx26__concurrence_unlock_errorE, 12
_ZTIN9__gnu_cxx26__concurrence_unlock_errorE:
	.word	_ZTVN10__cxxabiv120__si_class_type_infoE+8
	.word	_ZTSN9__gnu_cxx26__concurrence_unlock_errorE
	.word	_ZTISt9exception
	.weak	_ZTSN4asio6detail15system_categoryE
	.section	.rodata._ZTSN4asio6detail15system_categoryE,"aG",%progbits,_ZTSN4asio6detail15system_categoryE,comdat
	.align	2
	.type	_ZTSN4asio6detail15system_categoryE, %object
	.size	_ZTSN4asio6detail15system_categoryE, 32
_ZTSN4asio6detail15system_categoryE:
	.ascii	"N4asio6detail15system_categoryE\000"
	.weak	_ZTIN4asio6detail15system_categoryE
	.section	.data.rel.ro._ZTIN4asio6detail15system_categoryE,"awG",%progbits,_ZTIN4asio6detail15system_categoryE,comdat
	.align	2
	.type	_ZTIN4asio6detail15system_categoryE, %object
	.size	_ZTIN4asio6detail15system_categoryE, 12
_ZTIN4asio6detail15system_categoryE:
	.word	_ZTVN10__cxxabiv120__si_class_type_infoE+8
	.word	_ZTSN4asio6detail15system_categoryE
	.word	_ZTINSt3_V214error_categoryE
	.weak	_ZTSN4asio5error6detail14netdb_categoryE
	.section	.rodata._ZTSN4asio5error6detail14netdb_categoryE,"aG",%progbits,_ZTSN4asio5error6detail14netdb_categoryE,comdat
	.align	2
	.type	_ZTSN4asio5error6detail14netdb_categoryE, %object
	.size	_ZTSN4asio5error6detail14netdb_categoryE, 37
_ZTSN4asio5error6detail14netdb_categoryE:
	.ascii	"N4asio5error6detail14netdb_categoryE\000"
	.weak	_ZTIN4asio5error6detail14netdb_categoryE
	.section	.data.rel.ro._ZTIN4asio5error6detail14netdb_categoryE,"awG",%progbits,_ZTIN4asio5error6detail14netdb_categoryE,comdat
	.align	2
	.type	_ZTIN4asio5error6detail14netdb_categoryE, %object
	.size	_ZTIN4asio5error6detail14netdb_categoryE, 12
_ZTIN4asio5error6detail14netdb_categoryE:
	.word	_ZTVN10__cxxabiv120__si_class_type_infoE+8
	.word	_ZTSN4asio5error6detail14netdb_categoryE
	.word	_ZTINSt3_V214error_categoryE
	.weak	_ZTSN4asio5error6detail17addrinfo_categoryE
	.section	.rodata._ZTSN4asio5error6detail17addrinfo_categoryE,"aG",%progbits,_ZTSN4asio5error6detail17addrinfo_categoryE,comdat
	.align	2
	.type	_ZTSN4asio5error6detail17addrinfo_categoryE, %object
	.size	_ZTSN4asio5error6detail17addrinfo_categoryE, 40
_ZTSN4asio5error6detail17addrinfo_categoryE:
	.ascii	"N4asio5error6detail17addrinfo_categoryE\000"
	.weak	_ZTIN4asio5error6detail17addrinfo_categoryE
	.section	.data.rel.ro._ZTIN4asio5error6detail17addrinfo_categoryE,"awG",%progbits,_ZTIN4asio5error6detail17addrinfo_categoryE,comdat
	.align	2
	.type	_ZTIN4asio5error6detail17addrinfo_categoryE, %object
	.size	_ZTIN4asio5error6detail17addrinfo_categoryE, 12
_ZTIN4asio5error6detail17addrinfo_categoryE:
	.word	_ZTVN10__cxxabiv120__si_class_type_infoE+8
	.word	_ZTSN4asio5error6detail17addrinfo_categoryE
	.word	_ZTINSt3_V214error_categoryE
	.weak	_ZTSN4asio5error6detail13misc_categoryE
	.section	.rodata._ZTSN4asio5error6detail13misc_categoryE,"aG",%progbits,_ZTSN4asio5error6detail13misc_categoryE,comdat
	.align	2
	.type	_ZTSN4asio5error6detail13misc_categoryE, %object
	.size	_ZTSN4asio5error6detail13misc_categoryE, 36
_ZTSN4asio5error6detail13misc_categoryE:
	.ascii	"N4asio5error6detail13misc_categoryE\000"
	.weak	_ZTIN4asio5error6detail13misc_categoryE
	.section	.data.rel.ro._ZTIN4asio5error6detail13misc_categoryE,"awG",%progbits,_ZTIN4asio5error6detail13misc_categoryE,comdat
	.align	2
	.type	_ZTIN4asio5error6detail13misc_categoryE, %object
	.size	_ZTIN4asio5error6detail13misc_categoryE, 12
_ZTIN4asio5error6detail13misc_categoryE:
	.word	_ZTVN10__cxxabiv120__si_class_type_infoE+8
	.word	_ZTSN4asio5error6detail13misc_categoryE
	.word	_ZTINSt3_V214error_categoryE
	.weak	_ZTSN7asiopal17IChannelCallbacksE
	.section	.rodata._ZTSN7asiopal17IChannelCallbacksE,"aG",%progbits,_ZTSN7asiopal17IChannelCallbacksE,comdat
	.align	2
	.type	_ZTSN7asiopal17IChannelCallbacksE, %object
	.size	_ZTSN7asiopal17IChannelCallbacksE, 30
_ZTSN7asiopal17IChannelCallbacksE:
	.ascii	"N7asiopal17IChannelCallbacksE\000"
	.weak	_ZTIN7asiopal17IChannelCallbacksE
	.section	.data.rel.ro._ZTIN7asiopal17IChannelCallbacksE,"awG",%progbits,_ZTIN7asiopal17IChannelCallbacksE,comdat
	.align	2
	.type	_ZTIN7asiopal17IChannelCallbacksE, %object
	.size	_ZTIN7asiopal17IChannelCallbacksE, 8
_ZTIN7asiopal17IChannelCallbacksE:
	.word	_ZTVN10__cxxabiv117__class_type_infoE+8
	.word	_ZTSN7asiopal17IChannelCallbacksE
	.global	_ZTSN8asiodnp39IOHandlerE
	.global	_ZTIN8asiodnp39IOHandlerE
	.weak	_ZTVN9__gnu_cxx24__concurrence_lock_errorE
	.section	.data.rel.ro._ZTVN9__gnu_cxx24__concurrence_lock_errorE,"awG",%progbits,_ZTVN9__gnu_cxx24__concurrence_lock_errorE,comdat
	.align	2
	.type	_ZTVN9__gnu_cxx24__concurrence_lock_errorE, %object
	.size	_ZTVN9__gnu_cxx24__concurrence_lock_errorE, 20
_ZTVN9__gnu_cxx24__concurrence_lock_errorE:
	.word	0
	.word	_ZTIN9__gnu_cxx24__concurrence_lock_errorE
	.word	_ZN9__gnu_cxx24__concurrence_lock_errorD1Ev
	.word	_ZN9__gnu_cxx24__concurrence_lock_errorD0Ev
	.word	_ZNK9__gnu_cxx24__concurrence_lock_error4whatEv
	.weak	_ZTVN9__gnu_cxx26__concurrence_unlock_errorE
	.section	.data.rel.ro._ZTVN9__gnu_cxx26__concurrence_unlock_errorE,"awG",%progbits,_ZTVN9__gnu_cxx26__concurrence_unlock_errorE,comdat
	.align	2
	.type	_ZTVN9__gnu_cxx26__concurrence_unlock_errorE, %object
	.size	_ZTVN9__gnu_cxx26__concurrence_unlock_errorE, 20
_ZTVN9__gnu_cxx26__concurrence_unlock_errorE:
	.word	0
	.word	_ZTIN9__gnu_cxx26__concurrence_unlock_errorE
	.word	_ZN9__gnu_cxx26__concurrence_unlock_errorD1Ev
	.word	_ZN9__gnu_cxx26__concurrence_unlock_errorD0Ev
	.word	_ZNK9__gnu_cxx26__concurrence_unlock_error4whatEv
	.weak	_ZTVN4asio6detail15system_categoryE
	.section	.data.rel.ro._ZTVN4asio6detail15system_categoryE,"awG",%progbits,_ZTVN4asio6detail15system_categoryE,comdat
	.align	2
	.type	_ZTVN4asio6detail15system_categoryE, %object
	.size	_ZTVN4asio6detail15system_categoryE, 40
_ZTVN4asio6detail15system_categoryE:
	.word	0
	.word	_ZTIN4asio6detail15system_categoryE
	.word	_ZN4asio6detail15system_categoryD1Ev
	.word	_ZN4asio6detail15system_categoryD0Ev
	.word	_ZNK4asio6detail15system_category4nameEv
	.word	_ZNKSt3_V214error_category10_M_messageB5cxx11Ei
	.word	_ZNK4asio6detail15system_category7messageB5cxx11Ei
	.word	_ZNKSt3_V214error_category23default_error_conditionEi
	.word	_ZNKSt3_V214error_category10equivalentEiRKSt15error_condition
	.word	_ZNKSt3_V214error_category10equivalentERKSt10error_codei
	.weak	_ZTVN4asio5error6detail14netdb_categoryE
	.section	.data.rel.ro._ZTVN4asio5error6detail14netdb_categoryE,"awG",%progbits,_ZTVN4asio5error6detail14netdb_categoryE,comdat
	.align	2
	.type	_ZTVN4asio5error6detail14netdb_categoryE, %object
	.size	_ZTVN4asio5error6detail14netdb_categoryE, 40
_ZTVN4asio5error6detail14netdb_categoryE:
	.word	0
	.word	_ZTIN4asio5error6detail14netdb_categoryE
	.word	_ZN4asio5error6detail14netdb_categoryD1Ev
	.word	_ZN4asio5error6detail14netdb_categoryD0Ev
	.word	_ZNK4asio5error6detail14netdb_category4nameEv
	.word	_ZNKSt3_V214error_category10_M_messageB5cxx11Ei
	.word	_ZNK4asio5error6detail14netdb_category7messageB5cxx11Ei
	.word	_ZNKSt3_V214error_category23default_error_conditionEi
	.word	_ZNKSt3_V214error_category10equivalentEiRKSt15error_condition
	.word	_ZNKSt3_V214error_category10equivalentERKSt10error_codei
	.weak	_ZTVN4asio5error6detail17addrinfo_categoryE
	.section	.data.rel.ro._ZTVN4asio5error6detail17addrinfo_categoryE,"awG",%progbits,_ZTVN4asio5error6detail17addrinfo_categoryE,comdat
	.align	2
	.type	_ZTVN4asio5error6detail17addrinfo_categoryE, %object
	.size	_ZTVN4asio5error6detail17addrinfo_categoryE, 40
_ZTVN4asio5error6detail17addrinfo_categoryE:
	.word	0
	.word	_ZTIN4asio5error6detail17addrinfo_categoryE
	.word	_ZN4asio5error6detail17addrinfo_categoryD1Ev
	.word	_ZN4asio5error6detail17addrinfo_categoryD0Ev
	.word	_ZNK4asio5error6detail17addrinfo_category4nameEv
	.word	_ZNKSt3_V214error_category10_M_messageB5cxx11Ei
	.word	_ZNK4asio5error6detail17addrinfo_category7messageB5cxx11Ei
	.word	_ZNKSt3_V214error_category23default_error_conditionEi
	.word	_ZNKSt3_V214error_category10equivalentEiRKSt15error_condition
	.word	_ZNKSt3_V214error_category10equivalentERKSt10error_codei
	.weak	_ZTVN4asio5error6detail13misc_categoryE
	.section	.data.rel.ro._ZTVN4asio5error6detail13misc_categoryE,"awG",%progbits,_ZTVN4asio5error6detail13misc_categoryE,comdat
	.align	2
	.type	_ZTVN4asio5error6detail13misc_categoryE, %object
	.size	_ZTVN4asio5error6detail13misc_categoryE, 40
_ZTVN4asio5error6detail13misc_categoryE:
	.word	0
	.word	_ZTIN4asio5error6detail13misc_categoryE
	.word	_ZN4asio5error6detail13misc_categoryD1Ev
	.word	_ZN4asio5error6detail13misc_categoryD0Ev
	.word	_ZNK4asio5error6detail13misc_category4nameEv
	.word	_ZNKSt3_V214error_category10_M_messageB5cxx11Ei
	.word	_ZNK4asio5error6detail13misc_category7messageB5cxx11Ei
	.word	_ZNKSt3_V214error_category23default_error_conditionEi
	.word	_ZNKSt3_V214error_category10equivalentEiRKSt15error_condition
	.word	_ZNKSt3_V214error_category10equivalentERKSt10error_codei
	.global	_ZTVN8asiodnp39IOHandlerE
	.weak	_ZGVZN4asio5error17get_misc_categoryEvE8instance
	.section	.bss._ZGVZN4asio5error17get_misc_categoryEvE8instance,"awG",%nobits,_ZGVZN4asio5error17get_misc_categoryEvE8instance,comdat
	.align	2
	.type	_ZGVZN4asio5error17get_misc_categoryEvE8instance, %gnu_unique_object
	.size	_ZGVZN4asio5error17get_misc_categoryEvE8instance, 4
_ZGVZN4asio5error17get_misc_categoryEvE8instance:
	.space	4
	.weak	_ZZN4asio5error17get_misc_categoryEvE8instance
	.section	.data.rel._ZZN4asio5error17get_misc_categoryEvE8instance,"awG",%progbits,_ZZN4asio5error17get_misc_categoryEvE8instance,comdat
	.align	2
	.type	_ZZN4asio5error17get_misc_categoryEvE8instance, %gnu_unique_object
	.size	_ZZN4asio5error17get_misc_categoryEvE8instance, 4
_ZZN4asio5error17get_misc_categoryEvE8instance:
	.word	_ZTVN4asio5error6detail13misc_categoryE+8
	.weak	_ZGVZN4asio5error21get_addrinfo_categoryEvE8instance
	.section	.bss._ZGVZN4asio5error21get_addrinfo_categoryEvE8instance,"awG",%nobits,_ZGVZN4asio5error21get_addrinfo_categoryEvE8instance,comdat
	.align	2
	.type	_ZGVZN4asio5error21get_addrinfo_categoryEvE8instance, %gnu_unique_object
	.size	_ZGVZN4asio5error21get_addrinfo_categoryEvE8instance, 4
_ZGVZN4asio5error21get_addrinfo_categoryEvE8instance:
	.space	4
	.weak	_ZZN4asio5error21get_addrinfo_categoryEvE8instance
	.section	.data.rel._ZZN4asio5error21get_addrinfo_categoryEvE8instance,"awG",%progbits,_ZZN4asio5error21get_addrinfo_categoryEvE8instance,comdat
	.align	2
	.type	_ZZN4asio5error21get_addrinfo_categoryEvE8instance, %gnu_unique_object
	.size	_ZZN4asio5error21get_addrinfo_categoryEvE8instance, 4
_ZZN4asio5error21get_addrinfo_categoryEvE8instance:
	.word	_ZTVN4asio5error6detail17addrinfo_categoryE+8
	.weak	_ZGVZN4asio5error18get_netdb_categoryEvE8instance
	.section	.bss._ZGVZN4asio5error18get_netdb_categoryEvE8instance,"awG",%nobits,_ZGVZN4asio5error18get_netdb_categoryEvE8instance,comdat
	.align	2
	.type	_ZGVZN4asio5error18get_netdb_categoryEvE8instance, %gnu_unique_object
	.size	_ZGVZN4asio5error18get_netdb_categoryEvE8instance, 4
_ZGVZN4asio5error18get_netdb_categoryEvE8instance:
	.space	4
	.weak	_ZZN4asio5error18get_netdb_categoryEvE8instance
	.section	.data.rel._ZZN4asio5error18get_netdb_categoryEvE8instance,"awG",%progbits,_ZZN4asio5error18get_netdb_categoryEvE8instance,comdat
	.align	2
	.type	_ZZN4asio5error18get_netdb_categoryEvE8instance, %gnu_unique_object
	.size	_ZZN4asio5error18get_netdb_categoryEvE8instance, 4
_ZZN4asio5error18get_netdb_categoryEvE8instance:
	.word	_ZTVN4asio5error6detail14netdb_categoryE+8
	.weak	_ZGVZN4asio15system_categoryEvE8instance
	.section	.bss._ZGVZN4asio15system_categoryEvE8instance,"awG",%nobits,_ZGVZN4asio15system_categoryEvE8instance,comdat
	.align	2
	.type	_ZGVZN4asio15system_categoryEvE8instance, %gnu_unique_object
	.size	_ZGVZN4asio15system_categoryEvE8instance, 4
_ZGVZN4asio15system_categoryEvE8instance:
	.space	4
	.weak	_ZZN4asio15system_categoryEvE8instance
	.section	.data.rel._ZZN4asio15system_categoryEvE8instance,"awG",%progbits,_ZZN4asio15system_categoryEvE8instance,comdat
	.align	2
	.type	_ZZN4asio15system_categoryEvE8instance, %gnu_unique_object
	.size	_ZZN4asio15system_categoryEvE8instance, 4
_ZZN4asio15system_categoryEvE8instance:
	.word	_ZTVN4asio6detail15system_categoryE+8
	.weakref	_ZL28__gthrw___pthread_key_createPjPFvPvE,__pthread_key_create
	.weakref	_ZL28__gthrw_pthread_mutex_unlockP15pthread_mutex_t,pthread_mutex_unlock
	.weakref	_ZL26__gthrw_pthread_mutex_lockP15pthread_mutex_t,pthread_mutex_lock
	.section	.rodata
	.align	2
	.type	_ZTSN8asiodnp39IOHandlerE, %object
	.size	_ZTSN8asiodnp39IOHandlerE, 22
_ZTSN8asiodnp39IOHandlerE:
	.ascii	"N8asiodnp39IOHandlerE\000"
	.section	.data.rel.ro,"aw",%progbits
	.align	2
	.type	_ZTIN8asiodnp39IOHandlerE, %object
	.size	_ZTIN8asiodnp39IOHandlerE, 40
_ZTIN8asiodnp39IOHandlerE:
	.word	_ZTVN10__cxxabiv121__vmi_class_type_infoE+8
	.word	_ZTSN8asiodnp39IOHandlerE
	.word	0
	.word	3
	.word	_ZTIN8opendnp310IFrameSinkE
	.word	0
	.word	_ZTIN7asiopal17IChannelCallbacksE
	.word	1026
	.word	_ZTISt23enable_shared_from_thisIN8asiodnp39IOHandlerEE
	.word	2050
	.type	_ZTVN8asiodnp39IOHandlerE, %object
	.size	_ZTVN8asiodnp39IOHandlerE, 68
_ZTVN8asiodnp39IOHandlerE:
	.word	0
	.word	_ZTIN8asiodnp39IOHandlerE
	.word	0
	.word	0
	.word	_ZN8asiodnp39IOHandler7OnFrameERKN8opendnp316LinkHeaderFieldsERKN7openpal6RSliceE
	.word	_ZN8asiodnp39IOHandler14OnReadCompleteERKSt10error_codej
	.word	_ZN8asiodnp39IOHandler15OnWriteCompleteERKSt10error_codej
	.word	__cxa_pure_virtual
	.word	__cxa_pure_virtual
	.word	__cxa_pure_virtual
	.word	__cxa_pure_virtual
	.word	-4
	.word	_ZTIN8asiodnp39IOHandlerE
	.word	0
	.word	0
	.word	_ZThn4_N8asiodnp39IOHandler14OnReadCompleteERKSt10error_codej
	.word	_ZThn4_N8asiodnp39IOHandler15OnWriteCompleteERKSt10error_codej
	.section	.rodata._ZN4asio6detail20posix_tss_ptr_createERj.str1.4,"aMS",%progbits,1
	.align	2
.LC22:
	.ascii	"tss\000"
	.section	.rodata._ZNK4asio5error6detail13misc_category4nameEv.str1.4,"aMS",%progbits,1
	.align	2
.LC5:
	.ascii	"asio.misc\000"
	.section	.rodata._ZNK4asio5error6detail13misc_category7messageB5cxx11Ei.str1.4,"aMS",%progbits,1
	.align	2
.LC11:
	.ascii	"Already open\000"
	.space	3
.LC12:
	.ascii	"End of file\000"
.LC13:
	.ascii	"Element not found\000"
	.space	2
.LC14:
	.ascii	"The descriptor does not fit into the select call's "
	.ascii	"fd_set\000"
	.space	2
.LC15:
	.ascii	"asio.misc error\000"
	.section	.rodata._ZNK4asio5error6detail14netdb_category4nameEv.str1.4,"aMS",%progbits,1
	.align	2
.LC3:
	.ascii	"asio.netdb\000"
	.section	.rodata._ZNK4asio5error6detail14netdb_category7messageB5cxx11Ei.str1.4,"aMS",%progbits,1
	.align	2
.LC16:
	.ascii	"Host not found (authoritative)\000"
	.space	1
.LC17:
	.ascii	"Host not found (non-authoritative), try again later"
	.ascii	"\000"
.LC18:
	.ascii	"The query is valid, but it does not have associated"
	.ascii	" data\000"
	.space	3
.LC19:
	.ascii	"A non-recoverable error occurred during database lo"
	.ascii	"okup\000"
.LC20:
	.ascii	"asio.netdb error\000"
	.section	.rodata._ZNK4asio5error6detail17addrinfo_category4nameEv.str1.4,"aMS",%progbits,1
	.align	2
.LC4:
	.ascii	"asio.addrinfo\000"
	.section	.rodata._ZNK4asio5error6detail17addrinfo_category7messageB5cxx11Ei.str1.4,"aMS",%progbits,1
	.align	2
.LC8:
	.ascii	"Service not found\000"
	.space	2
.LC9:
	.ascii	"Socket type not supported\000"
	.space	2
.LC10:
	.ascii	"asio.addrinfo error\000"
	.section	.rodata._ZNK4asio6detail15system_category4nameEv.str1.4,"aMS",%progbits,1
	.align	2
.LC2:
	.ascii	"asio.system\000"
	.section	.rodata._ZNK4asio6detail15system_category7messageB5cxx11Ei.str1.4,"aMS",%progbits,1
	.align	2
.LC6:
	.ascii	"Operation aborted.\000"
	.space	1
.LC7:
	.ascii	"basic_string::_M_construct null not valid\000"
	.section	.rodata._ZNK9__gnu_cxx24__concurrence_lock_error4whatEv.str1.4,"aMS",%progbits,1
	.align	2
.LC0:
	.ascii	"__gnu_cxx::__concurrence_lock_error\000"
	.section	.rodata._ZNK9__gnu_cxx26__concurrence_unlock_error4whatEv.str1.4,"aMS",%progbits,1
	.align	2
.LC1:
	.ascii	"__gnu_cxx::__concurrence_unlock_error\000"
	.section	.rodata._ZNSt12system_errorC2ESt10error_codePKc.str1.4,"aMS",%progbits,1
	.align	2
.LC21:
	.ascii	": \000"
	.section	.rodata.str1.4,"aMS",%progbits,1
	.align	2
.LC23:
	.ascii	"Frame w/ unknown route, source: %i, dest %i\000"
.LC24:
	.ascii	"/home/pi/OpenPLC_v3/utils/dnp3_src/cpp/libs/src/asi"
	.ascii	"odnp3/IOHandler.cpp(254)\000"
.LC25:
	.ascii	"/home/pi/OpenPLC_v3/utils/dnp3_src/cpp/libs/src/asi"
	.ascii	"odnp3/IOHandler.cpp(62)\000"
	.space	1
.LC26:
	.ascii	"/home/pi/OpenPLC_v3/utils/dnp3_src/cpp/libs/src/asi"
	.ascii	"odnp3/IOHandler.cpp(83)\000"
	.space	1
.LC27:
	.ascii	"Router received transmit request while offline\000"
	.space	1
.LC28:
	.ascii	"/home/pi/OpenPLC_v3/utils/dnp3_src/cpp/libs/src/asi"
	.ascii	"odnp3/IOHandler.cpp(114)\000"
.LC29:
	.ascii	"Route already in use: %u -> %u\000"
	.space	1
.LC30:
	.ascii	"/home/pi/OpenPLC_v3/utils/dnp3_src/cpp/libs/src/asi"
	.ascii	"odnp3/IOHandler.cpp(122)\000"
.LC31:
	.ascii	"Context cannot be bound 2x\000"
	.space	1
.LC32:
	.ascii	"/home/pi/OpenPLC_v3/utils/dnp3_src/cpp/libs/src/asi"
	.ascii	"odnp3/IOHandler.cpp(128)\000"
	.hidden	__dso_handle
	.ident	"GCC: (Raspbian 6.3.0-18+rpi1+deb9u1) 6.3.0 20170516"
	.section	.note.GNU-stack,"",%progbits
