	.arch armv6
	.eabi_attribute 28, 1
	.eabi_attribute 20, 1
	.eabi_attribute 21, 1
	.eabi_attribute 23, 3
	.eabi_attribute 24, 1
	.eabi_attribute 25, 1
	.eabi_attribute 26, 2
	.eabi_attribute 30, 2
	.eabi_attribute 34, 1
	.eabi_attribute 18, 4
	.file	"LinkFunction.cpp"
	.text
	.align	2
	.global	_ZN8opendnp318LinkFunctionToTypeENS_12LinkFunctionE
	.syntax unified
	.arm
	.fpu vfp
	.type	_ZN8opendnp318LinkFunctionToTypeENS_12LinkFunctionE, %function
_ZN8opendnp318LinkFunctionToTypeENS_12LinkFunctionE:
	.fnstart
.LFB0:
	@ args = 0, pretend = 0, frame = 0
	@ frame_needed = 0, uses_anonymous_args = 0
	@ link register save eliminated.
	bx	lr
	.cantunwind
	.fnend
	.size	_ZN8opendnp318LinkFunctionToTypeENS_12LinkFunctionE, .-_ZN8opendnp318LinkFunctionToTypeENS_12LinkFunctionE
	.align	2
	.global	_ZN8opendnp320LinkFunctionFromTypeEh
	.syntax unified
	.arm
	.fpu vfp
	.type	_ZN8opendnp320LinkFunctionFromTypeEh, %function
_ZN8opendnp320LinkFunctionFromTypeEh:
	.fnstart
.LFB1:
	@ args = 0, pretend = 0, frame = 0
	@ frame_needed = 0, uses_anonymous_args = 0
	@ link register save eliminated.
	cmp	r0, #73
	addls	pc, pc, r0, asl #2
	b	.L3
.L5:
	b	.L4
	b	.L6
	b	.L3
	b	.L3
	b	.L3
	b	.L3
	b	.L3
	b	.L3
	b	.L3
	b	.L3
	b	.L3
	b	.L7
	b	.L3
	b	.L3
	b	.L3
	b	.L8
	b	.L3
	b	.L3
	b	.L3
	b	.L3
	b	.L3
	b	.L3
	b	.L3
	b	.L3
	b	.L3
	b	.L3
	b	.L3
	b	.L3
	b	.L3
	b	.L3
	b	.L3
	b	.L3
	b	.L3
	b	.L3
	b	.L3
	b	.L3
	b	.L3
	b	.L3
	b	.L3
	b	.L3
	b	.L3
	b	.L3
	b	.L3
	b	.L3
	b	.L3
	b	.L3
	b	.L3
	b	.L3
	b	.L3
	b	.L3
	b	.L3
	b	.L3
	b	.L3
	b	.L3
	b	.L3
	b	.L3
	b	.L3
	b	.L3
	b	.L3
	b	.L3
	b	.L3
	b	.L3
	b	.L3
	b	.L3
	b	.L14
	b	.L3
	b	.L10
	b	.L11
	b	.L12
	b	.L3
	b	.L3
	b	.L3
	b	.L3
	b	.L13
	.p2align 1
.L14:
	mov	r0, #64
	bx	lr
.L10:
	mov	r0, #66
	bx	lr
.L11:
	mov	r0, #67
	bx	lr
.L12:
	mov	r0, #68
	bx	lr
.L13:
	mov	r0, #73
	bx	lr
.L4:
	mov	r0, #0
	bx	lr
.L6:
	mov	r0, #1
	bx	lr
.L7:
	mov	r0, #11
	bx	lr
.L8:
	mov	r0, #15
	bx	lr
.L3:
	mov	r0, #255
	bx	lr
	.cantunwind
	.fnend
	.size	_ZN8opendnp320LinkFunctionFromTypeEh, .-_ZN8opendnp320LinkFunctionFromTypeEh
	.align	2
	.global	_ZN8opendnp320LinkFunctionToStringENS_12LinkFunctionE
	.syntax unified
	.arm
	.fpu vfp
	.type	_ZN8opendnp320LinkFunctionToStringENS_12LinkFunctionE, %function
_ZN8opendnp320LinkFunctionToStringENS_12LinkFunctionE:
	.fnstart
.LFB2:
	@ args = 0, pretend = 0, frame = 0
	@ frame_needed = 0, uses_anonymous_args = 0
	@ link register save eliminated.
	cmp	r0, #73
	addls	pc, pc, r0, asl #2
	b	.L17
.L19:
	b	.L18
	b	.L20
	b	.L17
	b	.L17
	b	.L17
	b	.L17
	b	.L17
	b	.L17
	b	.L17
	b	.L17
	b	.L17
	b	.L21
	b	.L17
	b	.L17
	b	.L17
	b	.L22
	b	.L17
	b	.L17
	b	.L17
	b	.L17
	b	.L17
	b	.L17
	b	.L17
	b	.L17
	b	.L17
	b	.L17
	b	.L17
	b	.L17
	b	.L17
	b	.L17
	b	.L17
	b	.L17
	b	.L17
	b	.L17
	b	.L17
	b	.L17
	b	.L17
	b	.L17
	b	.L17
	b	.L17
	b	.L17
	b	.L17
	b	.L17
	b	.L17
	b	.L17
	b	.L17
	b	.L17
	b	.L17
	b	.L17
	b	.L17
	b	.L17
	b	.L17
	b	.L17
	b	.L17
	b	.L17
	b	.L17
	b	.L17
	b	.L17
	b	.L17
	b	.L17
	b	.L17
	b	.L17
	b	.L17
	b	.L17
	b	.L28
	b	.L17
	b	.L24
	b	.L25
	b	.L26
	b	.L17
	b	.L17
	b	.L17
	b	.L17
	b	.L27
	.p2align 1
.L28:
	ldr	r0, .L29
.LPIC0:
	add	r0, pc, r0
	bx	lr
.L24:
	ldr	r0, .L29+4
.LPIC1:
	add	r0, pc, r0
	bx	lr
.L25:
	ldr	r0, .L29+8
.LPIC2:
	add	r0, pc, r0
	bx	lr
.L26:
	ldr	r0, .L29+12
.LPIC3:
	add	r0, pc, r0
	bx	lr
.L27:
	ldr	r0, .L29+16
.LPIC4:
	add	r0, pc, r0
	bx	lr
.L18:
	ldr	r0, .L29+20
.LPIC5:
	add	r0, pc, r0
	bx	lr
.L20:
	ldr	r0, .L29+24
.LPIC6:
	add	r0, pc, r0
	bx	lr
.L21:
	ldr	r0, .L29+28
.LPIC7:
	add	r0, pc, r0
	bx	lr
.L22:
	ldr	r0, .L29+32
.LPIC8:
	add	r0, pc, r0
	bx	lr
.L17:
	ldr	r0, .L29+36
.LPIC9:
	add	r0, pc, r0
	bx	lr
.L30:
	.align	2
.L29:
	.word	.LC0-(.LPIC0+8)
	.word	.LC1-(.LPIC1+8)
	.word	.LC2-(.LPIC2+8)
	.word	.LC3-(.LPIC3+8)
	.word	.LC4-(.LPIC4+8)
	.word	.LC5-(.LPIC5+8)
	.word	.LC6-(.LPIC6+8)
	.word	.LC7-(.LPIC7+8)
	.word	.LC8-(.LPIC8+8)
	.word	.LC9-(.LPIC9+8)
	.cantunwind
	.fnend
	.size	_ZN8opendnp320LinkFunctionToStringENS_12LinkFunctionE, .-_ZN8opendnp320LinkFunctionToStringENS_12LinkFunctionE
	.section	.rodata.str1.4,"aMS",%progbits,1
	.align	2
.LC0:
	.ascii	"PRI_RESET_LINK_STATES\000"
	.space	2
.LC1:
	.ascii	"PRI_TEST_LINK_STATES\000"
	.space	3
.LC2:
	.ascii	"PRI_CONFIRMED_USER_DATA\000"
.LC3:
	.ascii	"PRI_UNCONFIRMED_USER_DATA\000"
	.space	2
.LC4:
	.ascii	"PRI_REQUEST_LINK_STATUS\000"
.LC5:
	.ascii	"SEC_ACK\000"
.LC6:
	.ascii	"SEC_NACK\000"
	.space	3
.LC7:
	.ascii	"SEC_LINK_STATUS\000"
.LC8:
	.ascii	"SEC_NOT_SUPPORTED\000"
	.space	2
.LC9:
	.ascii	"INVALID\000"
	.ident	"GCC: (Raspbian 6.3.0-18+rpi1+deb9u1) 6.3.0 20170516"
	.section	.note.GNU-stack,"",%progbits
