	.arch armv6
	.eabi_attribute 28, 1
	.eabi_attribute 20, 1
	.eabi_attribute 21, 1
	.eabi_attribute 23, 3
	.eabi_attribute 24, 1
	.eabi_attribute 25, 1
	.eabi_attribute 26, 2
	.eabi_attribute 30, 2
	.eabi_attribute 34, 1
	.eabi_attribute 18, 4
	.file	"LinkSession.cpp"
	.section	.text._ZNK9__gnu_cxx24__concurrence_lock_error4whatEv,"axG",%progbits,_ZNK9__gnu_cxx24__concurrence_lock_error4whatEv,comdat
	.align	2
	.weak	_ZNK9__gnu_cxx24__concurrence_lock_error4whatEv
	.syntax unified
	.arm
	.fpu vfp
	.type	_ZNK9__gnu_cxx24__concurrence_lock_error4whatEv, %function
_ZNK9__gnu_cxx24__concurrence_lock_error4whatEv:
	.fnstart
.LFB563:
	@ args = 0, pretend = 0, frame = 0
	@ frame_needed = 0, uses_anonymous_args = 0
	@ link register save eliminated.
	ldr	r0, .L2
.LPIC0:
	add	r0, pc, r0
	bx	lr
.L3:
	.align	2
.L2:
	.word	.LC0-(.LPIC0+8)
	.cantunwind
	.fnend
	.size	_ZNK9__gnu_cxx24__concurrence_lock_error4whatEv, .-_ZNK9__gnu_cxx24__concurrence_lock_error4whatEv
	.section	.text._ZNK9__gnu_cxx26__concurrence_unlock_error4whatEv,"axG",%progbits,_ZNK9__gnu_cxx26__concurrence_unlock_error4whatEv,comdat
	.align	2
	.weak	_ZNK9__gnu_cxx26__concurrence_unlock_error4whatEv
	.syntax unified
	.arm
	.fpu vfp
	.type	_ZNK9__gnu_cxx26__concurrence_unlock_error4whatEv, %function
_ZNK9__gnu_cxx26__concurrence_unlock_error4whatEv:
	.fnstart
.LFB564:
	@ args = 0, pretend = 0, frame = 0
	@ frame_needed = 0, uses_anonymous_args = 0
	@ link register save eliminated.
	ldr	r0, .L5
.LPIC1:
	add	r0, pc, r0
	bx	lr
.L6:
	.align	2
.L5:
	.word	.LC1-(.LPIC1+8)
	.cantunwind
	.fnend
	.size	_ZNK9__gnu_cxx26__concurrence_unlock_error4whatEv, .-_ZNK9__gnu_cxx26__concurrence_unlock_error4whatEv
	.section	.text._ZNK4asio6detail15system_category4nameEv,"axG",%progbits,_ZNK4asio6detail15system_category4nameEv,comdat
	.align	2
	.weak	_ZNK4asio6detail15system_category4nameEv
	.syntax unified
	.arm
	.fpu vfp
	.type	_ZNK4asio6detail15system_category4nameEv, %function
_ZNK4asio6detail15system_category4nameEv:
	.fnstart
.LFB2181:
	@ args = 0, pretend = 0, frame = 0
	@ frame_needed = 0, uses_anonymous_args = 0
	@ link register save eliminated.
	ldr	r0, .L8
.LPIC2:
	add	r0, pc, r0
	bx	lr
.L9:
	.align	2
.L8:
	.word	.LC2-(.LPIC2+8)
	.cantunwind
	.fnend
	.size	_ZNK4asio6detail15system_category4nameEv, .-_ZNK4asio6detail15system_category4nameEv
	.section	.text._ZNK4asio5error6detail14netdb_category4nameEv,"axG",%progbits,_ZNK4asio5error6detail14netdb_category4nameEv,comdat
	.align	2
	.weak	_ZNK4asio5error6detail14netdb_category4nameEv
	.syntax unified
	.arm
	.fpu vfp
	.type	_ZNK4asio5error6detail14netdb_category4nameEv, %function
_ZNK4asio5error6detail14netdb_category4nameEv:
	.fnstart
.LFB2202:
	@ args = 0, pretend = 0, frame = 0
	@ frame_needed = 0, uses_anonymous_args = 0
	@ link register save eliminated.
	ldr	r0, .L11
.LPIC3:
	add	r0, pc, r0
	bx	lr
.L12:
	.align	2
.L11:
	.word	.LC3-(.LPIC3+8)
	.cantunwind
	.fnend
	.size	_ZNK4asio5error6detail14netdb_category4nameEv, .-_ZNK4asio5error6detail14netdb_category4nameEv
	.section	.text._ZNK4asio5error6detail17addrinfo_category4nameEv,"axG",%progbits,_ZNK4asio5error6detail17addrinfo_category4nameEv,comdat
	.align	2
	.weak	_ZNK4asio5error6detail17addrinfo_category4nameEv
	.syntax unified
	.arm
	.fpu vfp
	.type	_ZNK4asio5error6detail17addrinfo_category4nameEv, %function
_ZNK4asio5error6detail17addrinfo_category4nameEv:
	.fnstart
.LFB2208:
	@ args = 0, pretend = 0, frame = 0
	@ frame_needed = 0, uses_anonymous_args = 0
	@ link register save eliminated.
	ldr	r0, .L14
.LPIC4:
	add	r0, pc, r0
	bx	lr
.L15:
	.align	2
.L14:
	.word	.LC4-(.LPIC4+8)
	.cantunwind
	.fnend
	.size	_ZNK4asio5error6detail17addrinfo_category4nameEv, .-_ZNK4asio5error6detail17addrinfo_category4nameEv
	.section	.text._ZNK4asio5error6detail13misc_category4nameEv,"axG",%progbits,_ZNK4asio5error6detail13misc_category4nameEv,comdat
	.align	2
	.weak	_ZNK4asio5error6detail13misc_category4nameEv
	.syntax unified
	.arm
	.fpu vfp
	.type	_ZNK4asio5error6detail13misc_category4nameEv, %function
_ZNK4asio5error6detail13misc_category4nameEv:
	.fnstart
.LFB2214:
	@ args = 0, pretend = 0, frame = 0
	@ frame_needed = 0, uses_anonymous_args = 0
	@ link register save eliminated.
	ldr	r0, .L17
.LPIC5:
	add	r0, pc, r0
	bx	lr
.L18:
	.align	2
.L17:
	.word	.LC5-(.LPIC5+8)
	.cantunwind
	.fnend
	.size	_ZNK4asio5error6detail13misc_category4nameEv, .-_ZNK4asio5error6detail13misc_category4nameEv
	.section	.text._ZN4asio6detail10service_idINS0_13epoll_reactorEED2Ev,"axG",%progbits,_ZN4asio6detail10service_idINS0_13epoll_reactorEED5Ev,comdat
	.align	2
	.weak	_ZN4asio6detail10service_idINS0_13epoll_reactorEED2Ev
	.syntax unified
	.arm
	.fpu vfp
	.type	_ZN4asio6detail10service_idINS0_13epoll_reactorEED2Ev, %function
_ZN4asio6detail10service_idINS0_13epoll_reactorEED2Ev:
	.fnstart
.LFB10088:
	@ args = 0, pretend = 0, frame = 0
	@ frame_needed = 0, uses_anonymous_args = 0
	@ link register save eliminated.
	bx	lr
	.cantunwind
	.fnend
	.size	_ZN4asio6detail10service_idINS0_13epoll_reactorEED2Ev, .-_ZN4asio6detail10service_idINS0_13epoll_reactorEED2Ev
	.weak	_ZN4asio6detail10service_idINS0_13epoll_reactorEED1Ev
	.set	_ZN4asio6detail10service_idINS0_13epoll_reactorEED1Ev,_ZN4asio6detail10service_idINS0_13epoll_reactorEED2Ev
	.section	.text._ZN4asio6detail10service_idINS0_15task_io_serviceEED2Ev,"axG",%progbits,_ZN4asio6detail10service_idINS0_15task_io_serviceEED5Ev,comdat
	.align	2
	.weak	_ZN4asio6detail10service_idINS0_15task_io_serviceEED2Ev
	.syntax unified
	.arm
	.fpu vfp
	.type	_ZN4asio6detail10service_idINS0_15task_io_serviceEED2Ev, %function
_ZN4asio6detail10service_idINS0_15task_io_serviceEED2Ev:
	.fnstart
.LFB10091:
	@ args = 0, pretend = 0, frame = 0
	@ frame_needed = 0, uses_anonymous_args = 0
	@ link register save eliminated.
	bx	lr
	.cantunwind
	.fnend
	.size	_ZN4asio6detail10service_idINS0_15task_io_serviceEED2Ev, .-_ZN4asio6detail10service_idINS0_15task_io_serviceEED2Ev
	.weak	_ZN4asio6detail10service_idINS0_15task_io_serviceEED1Ev
	.set	_ZN4asio6detail10service_idINS0_15task_io_serviceEED1Ev,_ZN4asio6detail10service_idINS0_15task_io_serviceEED2Ev
	.section	.text._ZN4asio6detail10service_idINS0_14strand_serviceEED2Ev,"axG",%progbits,_ZN4asio6detail10service_idINS0_14strand_serviceEED5Ev,comdat
	.align	2
	.weak	_ZN4asio6detail10service_idINS0_14strand_serviceEED2Ev
	.syntax unified
	.arm
	.fpu vfp
	.type	_ZN4asio6detail10service_idINS0_14strand_serviceEED2Ev, %function
_ZN4asio6detail10service_idINS0_14strand_serviceEED2Ev:
	.fnstart
.LFB10097:
	@ args = 0, pretend = 0, frame = 0
	@ frame_needed = 0, uses_anonymous_args = 0
	@ link register save eliminated.
	bx	lr
	.cantunwind
	.fnend
	.size	_ZN4asio6detail10service_idINS0_14strand_serviceEED2Ev, .-_ZN4asio6detail10service_idINS0_14strand_serviceEED2Ev
	.weak	_ZN4asio6detail10service_idINS0_14strand_serviceEED1Ev
	.set	_ZN4asio6detail10service_idINS0_14strand_serviceEED1Ev,_ZN4asio6detail10service_idINS0_14strand_serviceEED2Ev
	.section	.text._ZN9__gnu_cxx24__concurrence_lock_errorD2Ev,"axG",%progbits,_ZN9__gnu_cxx24__concurrence_lock_errorD5Ev,comdat
	.align	2
	.weak	_ZN9__gnu_cxx24__concurrence_lock_errorD2Ev
	.syntax unified
	.arm
	.fpu vfp
	.type	_ZN9__gnu_cxx24__concurrence_lock_errorD2Ev, %function
_ZN9__gnu_cxx24__concurrence_lock_errorD2Ev:
	.fnstart
.LFB10080:
	@ args = 0, pretend = 0, frame = 0
	@ frame_needed = 0, uses_anonymous_args = 0
	ldr	r3, .L24
	ldr	r2, .L24+4
.LPIC6:
	add	r3, pc, r3
	push	{r4, lr}
	mov	r4, r0
	ldr	r3, [r3, r2]
	add	r3, r3, #8
	str	r3, [r0]
	bl	_ZNSt9exceptionD2Ev(PLT)
	mov	r0, r4
	pop	{r4, pc}
.L25:
	.align	2
.L24:
	.word	_GLOBAL_OFFSET_TABLE_-(.LPIC6+8)
	.word	_ZTVN9__gnu_cxx24__concurrence_lock_errorE(GOT)
	.cantunwind
	.fnend
	.size	_ZN9__gnu_cxx24__concurrence_lock_errorD2Ev, .-_ZN9__gnu_cxx24__concurrence_lock_errorD2Ev
	.weak	_ZN9__gnu_cxx24__concurrence_lock_errorD1Ev
	.set	_ZN9__gnu_cxx24__concurrence_lock_errorD1Ev,_ZN9__gnu_cxx24__concurrence_lock_errorD2Ev
	.section	.text._ZN9__gnu_cxx24__concurrence_lock_errorD0Ev,"axG",%progbits,_ZN9__gnu_cxx24__concurrence_lock_errorD5Ev,comdat
	.align	2
	.weak	_ZN9__gnu_cxx24__concurrence_lock_errorD0Ev
	.syntax unified
	.arm
	.fpu vfp
	.type	_ZN9__gnu_cxx24__concurrence_lock_errorD0Ev, %function
_ZN9__gnu_cxx24__concurrence_lock_errorD0Ev:
	.fnstart
.LFB10082:
	@ args = 0, pretend = 0, frame = 0
	@ frame_needed = 0, uses_anonymous_args = 0
	ldr	r3, .L28
	ldr	r2, .L28+4
.LPIC7:
	add	r3, pc, r3
	push	{r4, lr}
	mov	r4, r0
	ldr	r3, [r3, r2]
	add	r3, r3, #8
	str	r3, [r0]
	bl	_ZNSt9exceptionD2Ev(PLT)
	mov	r0, r4
	mov	r1, #4
	bl	_ZdlPvj(PLT)
	mov	r0, r4
	pop	{r4, pc}
.L29:
	.align	2
.L28:
	.word	_GLOBAL_OFFSET_TABLE_-(.LPIC7+8)
	.word	_ZTVN9__gnu_cxx24__concurrence_lock_errorE(GOT)
	.cantunwind
	.fnend
	.size	_ZN9__gnu_cxx24__concurrence_lock_errorD0Ev, .-_ZN9__gnu_cxx24__concurrence_lock_errorD0Ev
	.section	.text._ZN9__gnu_cxx26__concurrence_unlock_errorD2Ev,"axG",%progbits,_ZN9__gnu_cxx26__concurrence_unlock_errorD5Ev,comdat
	.align	2
	.weak	_ZN9__gnu_cxx26__concurrence_unlock_errorD2Ev
	.syntax unified
	.arm
	.fpu vfp
	.type	_ZN9__gnu_cxx26__concurrence_unlock_errorD2Ev, %function
_ZN9__gnu_cxx26__concurrence_unlock_errorD2Ev:
	.fnstart
.LFB10076:
	@ args = 0, pretend = 0, frame = 0
	@ frame_needed = 0, uses_anonymous_args = 0
	ldr	r3, .L32
	ldr	r2, .L32+4
.LPIC8:
	add	r3, pc, r3
	push	{r4, lr}
	mov	r4, r0
	ldr	r3, [r3, r2]
	add	r3, r3, #8
	str	r3, [r0]
	bl	_ZNSt9exceptionD2Ev(PLT)
	mov	r0, r4
	pop	{r4, pc}
.L33:
	.align	2
.L32:
	.word	_GLOBAL_OFFSET_TABLE_-(.LPIC8+8)
	.word	_ZTVN9__gnu_cxx26__concurrence_unlock_errorE(GOT)
	.cantunwind
	.fnend
	.size	_ZN9__gnu_cxx26__concurrence_unlock_errorD2Ev, .-_ZN9__gnu_cxx26__concurrence_unlock_errorD2Ev
	.weak	_ZN9__gnu_cxx26__concurrence_unlock_errorD1Ev
	.set	_ZN9__gnu_cxx26__concurrence_unlock_errorD1Ev,_ZN9__gnu_cxx26__concurrence_unlock_errorD2Ev
	.section	.text._ZN9__gnu_cxx26__concurrence_unlock_errorD0Ev,"axG",%progbits,_ZN9__gnu_cxx26__concurrence_unlock_errorD5Ev,comdat
	.align	2
	.weak	_ZN9__gnu_cxx26__concurrence_unlock_errorD0Ev
	.syntax unified
	.arm
	.fpu vfp
	.type	_ZN9__gnu_cxx26__concurrence_unlock_errorD0Ev, %function
_ZN9__gnu_cxx26__concurrence_unlock_errorD0Ev:
	.fnstart
.LFB10078:
	@ args = 0, pretend = 0, frame = 0
	@ frame_needed = 0, uses_anonymous_args = 0
	ldr	r3, .L36
	ldr	r2, .L36+4
.LPIC9:
	add	r3, pc, r3
	push	{r4, lr}
	mov	r4, r0
	ldr	r3, [r3, r2]
	add	r3, r3, #8
	str	r3, [r0]
	bl	_ZNSt9exceptionD2Ev(PLT)
	mov	r0, r4
	mov	r1, #4
	bl	_ZdlPvj(PLT)
	mov	r0, r4
	pop	{r4, pc}
.L37:
	.align	2
.L36:
	.word	_GLOBAL_OFFSET_TABLE_-(.LPIC9+8)
	.word	_ZTVN9__gnu_cxx26__concurrence_unlock_errorE(GOT)
	.cantunwind
	.fnend
	.size	_ZN9__gnu_cxx26__concurrence_unlock_errorD0Ev, .-_ZN9__gnu_cxx26__concurrence_unlock_errorD0Ev
	.section	.text._ZN4asio6detail7tss_ptrINS0_10call_stackINS0_15task_io_serviceENS0_27task_io_service_thread_infoEE7contextEED2Ev,"axG",%progbits,_ZN4asio6detail7tss_ptrINS0_10call_stackINS0_15task_io_serviceENS0_27task_io_service_thread_infoEE7contextEED5Ev,comdat
	.align	2
	.weak	_ZN4asio6detail7tss_ptrINS0_10call_stackINS0_15task_io_serviceENS0_27task_io_service_thread_infoEE7contextEED2Ev
	.syntax unified
	.arm
	.fpu vfp
	.type	_ZN4asio6detail7tss_ptrINS0_10call_stackINS0_15task_io_serviceENS0_27task_io_service_thread_infoEE7contextEED2Ev, %function
_ZN4asio6detail7tss_ptrINS0_10call_stackINS0_15task_io_serviceENS0_27task_io_service_thread_infoEE7contextEED2Ev:
	.fnstart
.LFB10085:
	@ args = 0, pretend = 0, frame = 0
	@ frame_needed = 0, uses_anonymous_args = 0
	push	{r4, lr}
	mov	r4, r0
	ldr	r0, [r0]
	bl	pthread_key_delete(PLT)
	mov	r0, r4
	pop	{r4, pc}
	.cantunwind
	.fnend
	.size	_ZN4asio6detail7tss_ptrINS0_10call_stackINS0_15task_io_serviceENS0_27task_io_service_thread_infoEE7contextEED2Ev, .-_ZN4asio6detail7tss_ptrINS0_10call_stackINS0_15task_io_serviceENS0_27task_io_service_thread_infoEE7contextEED2Ev
	.weak	_ZN4asio6detail7tss_ptrINS0_10call_stackINS0_15task_io_serviceENS0_27task_io_service_thread_infoEE7contextEED1Ev
	.set	_ZN4asio6detail7tss_ptrINS0_10call_stackINS0_15task_io_serviceENS0_27task_io_service_thread_infoEE7contextEED1Ev,_ZN4asio6detail7tss_ptrINS0_10call_stackINS0_15task_io_serviceENS0_27task_io_service_thread_infoEE7contextEED2Ev
	.section	.text._ZN4asio6detail7tss_ptrINS0_10call_stackINS0_14strand_service11strand_implEhE7contextEED2Ev,"axG",%progbits,_ZN4asio6detail7tss_ptrINS0_10call_stackINS0_14strand_service11strand_implEhE7contextEED5Ev,comdat
	.align	2
	.weak	_ZN4asio6detail7tss_ptrINS0_10call_stackINS0_14strand_service11strand_implEhE7contextEED2Ev
	.syntax unified
	.arm
	.fpu vfp
	.type	_ZN4asio6detail7tss_ptrINS0_10call_stackINS0_14strand_service11strand_implEhE7contextEED2Ev, %function
_ZN4asio6detail7tss_ptrINS0_10call_stackINS0_14strand_service11strand_implEhE7contextEED2Ev:
	.fnstart
.LFB10094:
	@ args = 0, pretend = 0, frame = 0
	@ frame_needed = 0, uses_anonymous_args = 0
	push	{r4, lr}
	mov	r4, r0
	ldr	r0, [r0]
	bl	pthread_key_delete(PLT)
	mov	r0, r4
	pop	{r4, pc}
	.cantunwind
	.fnend
	.size	_ZN4asio6detail7tss_ptrINS0_10call_stackINS0_14strand_service11strand_implEhE7contextEED2Ev, .-_ZN4asio6detail7tss_ptrINS0_10call_stackINS0_14strand_service11strand_implEhE7contextEED2Ev
	.weak	_ZN4asio6detail7tss_ptrINS0_10call_stackINS0_14strand_service11strand_implEhE7contextEED1Ev
	.set	_ZN4asio6detail7tss_ptrINS0_10call_stackINS0_14strand_service11strand_implEhE7contextEED1Ev,_ZN4asio6detail7tss_ptrINS0_10call_stackINS0_14strand_service11strand_implEhE7contextEED2Ev
	.section	.text._ZN4asio6detail15system_categoryD2Ev,"axG",%progbits,_ZN4asio6detail15system_categoryD5Ev,comdat
	.align	2
	.weak	_ZN4asio6detail15system_categoryD2Ev
	.syntax unified
	.arm
	.fpu vfp
	.type	_ZN4asio6detail15system_categoryD2Ev, %function
_ZN4asio6detail15system_categoryD2Ev:
	.fnstart
.LFB10064:
	@ args = 0, pretend = 0, frame = 0
	@ frame_needed = 0, uses_anonymous_args = 0
	ldr	r3, .L44
	ldr	r2, .L44+4
.LPIC10:
	add	r3, pc, r3
	push	{r4, lr}
	mov	r4, r0
	ldr	r3, [r3, r2]
	add	r3, r3, #8
	str	r3, [r0]
	bl	_ZNSt3_V214error_categoryD2Ev(PLT)
	mov	r0, r4
	pop	{r4, pc}
.L45:
	.align	2
.L44:
	.word	_GLOBAL_OFFSET_TABLE_-(.LPIC10+8)
	.word	_ZTVN4asio6detail15system_categoryE(GOT)
	.cantunwind
	.fnend
	.size	_ZN4asio6detail15system_categoryD2Ev, .-_ZN4asio6detail15system_categoryD2Ev
	.weak	_ZN4asio6detail15system_categoryD1Ev
	.set	_ZN4asio6detail15system_categoryD1Ev,_ZN4asio6detail15system_categoryD2Ev
	.section	.text._ZN4asio6detail15system_categoryD0Ev,"axG",%progbits,_ZN4asio6detail15system_categoryD5Ev,comdat
	.align	2
	.weak	_ZN4asio6detail15system_categoryD0Ev
	.syntax unified
	.arm
	.fpu vfp
	.type	_ZN4asio6detail15system_categoryD0Ev, %function
_ZN4asio6detail15system_categoryD0Ev:
	.fnstart
.LFB10066:
	@ args = 0, pretend = 0, frame = 0
	@ frame_needed = 0, uses_anonymous_args = 0
	ldr	r3, .L48
	ldr	r2, .L48+4
.LPIC11:
	add	r3, pc, r3
	push	{r4, lr}
	mov	r4, r0
	ldr	r3, [r3, r2]
	add	r3, r3, #8
	str	r3, [r0]
	bl	_ZNSt3_V214error_categoryD2Ev(PLT)
	mov	r0, r4
	mov	r1, #4
	bl	_ZdlPvj(PLT)
	mov	r0, r4
	pop	{r4, pc}
.L49:
	.align	2
.L48:
	.word	_GLOBAL_OFFSET_TABLE_-(.LPIC11+8)
	.word	_ZTVN4asio6detail15system_categoryE(GOT)
	.cantunwind
	.fnend
	.size	_ZN4asio6detail15system_categoryD0Ev, .-_ZN4asio6detail15system_categoryD0Ev
	.section	.text._ZN4asio5error6detail14netdb_categoryD2Ev,"axG",%progbits,_ZN4asio5error6detail14netdb_categoryD5Ev,comdat
	.align	2
	.weak	_ZN4asio5error6detail14netdb_categoryD2Ev
	.syntax unified
	.arm
	.fpu vfp
	.type	_ZN4asio5error6detail14netdb_categoryD2Ev, %function
_ZN4asio5error6detail14netdb_categoryD2Ev:
	.fnstart
.LFB10060:
	@ args = 0, pretend = 0, frame = 0
	@ frame_needed = 0, uses_anonymous_args = 0
	ldr	r3, .L52
	ldr	r2, .L52+4
.LPIC12:
	add	r3, pc, r3
	push	{r4, lr}
	mov	r4, r0
	ldr	r3, [r3, r2]
	add	r3, r3, #8
	str	r3, [r0]
	bl	_ZNSt3_V214error_categoryD2Ev(PLT)
	mov	r0, r4
	pop	{r4, pc}
.L53:
	.align	2
.L52:
	.word	_GLOBAL_OFFSET_TABLE_-(.LPIC12+8)
	.word	_ZTVN4asio5error6detail14netdb_categoryE(GOT)
	.cantunwind
	.fnend
	.size	_ZN4asio5error6detail14netdb_categoryD2Ev, .-_ZN4asio5error6detail14netdb_categoryD2Ev
	.weak	_ZN4asio5error6detail14netdb_categoryD1Ev
	.set	_ZN4asio5error6detail14netdb_categoryD1Ev,_ZN4asio5error6detail14netdb_categoryD2Ev
	.section	.text._ZN4asio5error6detail14netdb_categoryD0Ev,"axG",%progbits,_ZN4asio5error6detail14netdb_categoryD5Ev,comdat
	.align	2
	.weak	_ZN4asio5error6detail14netdb_categoryD0Ev
	.syntax unified
	.arm
	.fpu vfp
	.type	_ZN4asio5error6detail14netdb_categoryD0Ev, %function
_ZN4asio5error6detail14netdb_categoryD0Ev:
	.fnstart
.LFB10062:
	@ args = 0, pretend = 0, frame = 0
	@ frame_needed = 0, uses_anonymous_args = 0
	ldr	r3, .L56
	ldr	r2, .L56+4
.LPIC13:
	add	r3, pc, r3
	push	{r4, lr}
	mov	r4, r0
	ldr	r3, [r3, r2]
	add	r3, r3, #8
	str	r3, [r0]
	bl	_ZNSt3_V214error_categoryD2Ev(PLT)
	mov	r0, r4
	mov	r1, #4
	bl	_ZdlPvj(PLT)
	mov	r0, r4
	pop	{r4, pc}
.L57:
	.align	2
.L56:
	.word	_GLOBAL_OFFSET_TABLE_-(.LPIC13+8)
	.word	_ZTVN4asio5error6detail14netdb_categoryE(GOT)
	.cantunwind
	.fnend
	.size	_ZN4asio5error6detail14netdb_categoryD0Ev, .-_ZN4asio5error6detail14netdb_categoryD0Ev
	.section	.text._ZN4asio5error6detail17addrinfo_categoryD2Ev,"axG",%progbits,_ZN4asio5error6detail17addrinfo_categoryD5Ev,comdat
	.align	2
	.weak	_ZN4asio5error6detail17addrinfo_categoryD2Ev
	.syntax unified
	.arm
	.fpu vfp
	.type	_ZN4asio5error6detail17addrinfo_categoryD2Ev, %function
_ZN4asio5error6detail17addrinfo_categoryD2Ev:
	.fnstart
.LFB10056:
	@ args = 0, pretend = 0, frame = 0
	@ frame_needed = 0, uses_anonymous_args = 0
	ldr	r3, .L60
	ldr	r2, .L60+4
.LPIC14:
	add	r3, pc, r3
	push	{r4, lr}
	mov	r4, r0
	ldr	r3, [r3, r2]
	add	r3, r3, #8
	str	r3, [r0]
	bl	_ZNSt3_V214error_categoryD2Ev(PLT)
	mov	r0, r4
	pop	{r4, pc}
.L61:
	.align	2
.L60:
	.word	_GLOBAL_OFFSET_TABLE_-(.LPIC14+8)
	.word	_ZTVN4asio5error6detail17addrinfo_categoryE(GOT)
	.cantunwind
	.fnend
	.size	_ZN4asio5error6detail17addrinfo_categoryD2Ev, .-_ZN4asio5error6detail17addrinfo_categoryD2Ev
	.weak	_ZN4asio5error6detail17addrinfo_categoryD1Ev
	.set	_ZN4asio5error6detail17addrinfo_categoryD1Ev,_ZN4asio5error6detail17addrinfo_categoryD2Ev
	.section	.text._ZN4asio5error6detail17addrinfo_categoryD0Ev,"axG",%progbits,_ZN4asio5error6detail17addrinfo_categoryD5Ev,comdat
	.align	2
	.weak	_ZN4asio5error6detail17addrinfo_categoryD0Ev
	.syntax unified
	.arm
	.fpu vfp
	.type	_ZN4asio5error6detail17addrinfo_categoryD0Ev, %function
_ZN4asio5error6detail17addrinfo_categoryD0Ev:
	.fnstart
.LFB10058:
	@ args = 0, pretend = 0, frame = 0
	@ frame_needed = 0, uses_anonymous_args = 0
	ldr	r3, .L64
	ldr	r2, .L64+4
.LPIC15:
	add	r3, pc, r3
	push	{r4, lr}
	mov	r4, r0
	ldr	r3, [r3, r2]
	add	r3, r3, #8
	str	r3, [r0]
	bl	_ZNSt3_V214error_categoryD2Ev(PLT)
	mov	r0, r4
	mov	r1, #4
	bl	_ZdlPvj(PLT)
	mov	r0, r4
	pop	{r4, pc}
.L65:
	.align	2
.L64:
	.word	_GLOBAL_OFFSET_TABLE_-(.LPIC15+8)
	.word	_ZTVN4asio5error6detail17addrinfo_categoryE(GOT)
	.cantunwind
	.fnend
	.size	_ZN4asio5error6detail17addrinfo_categoryD0Ev, .-_ZN4asio5error6detail17addrinfo_categoryD0Ev
	.section	.text._ZN4asio5error6detail13misc_categoryD2Ev,"axG",%progbits,_ZN4asio5error6detail13misc_categoryD5Ev,comdat
	.align	2
	.weak	_ZN4asio5error6detail13misc_categoryD2Ev
	.syntax unified
	.arm
	.fpu vfp
	.type	_ZN4asio5error6detail13misc_categoryD2Ev, %function
_ZN4asio5error6detail13misc_categoryD2Ev:
	.fnstart
.LFB10052:
	@ args = 0, pretend = 0, frame = 0
	@ frame_needed = 0, uses_anonymous_args = 0
	ldr	r3, .L68
	ldr	r2, .L68+4
.LPIC16:
	add	r3, pc, r3
	push	{r4, lr}
	mov	r4, r0
	ldr	r3, [r3, r2]
	add	r3, r3, #8
	str	r3, [r0]
	bl	_ZNSt3_V214error_categoryD2Ev(PLT)
	mov	r0, r4
	pop	{r4, pc}
.L69:
	.align	2
.L68:
	.word	_GLOBAL_OFFSET_TABLE_-(.LPIC16+8)
	.word	_ZTVN4asio5error6detail13misc_categoryE(GOT)
	.cantunwind
	.fnend
	.size	_ZN4asio5error6detail13misc_categoryD2Ev, .-_ZN4asio5error6detail13misc_categoryD2Ev
	.weak	_ZN4asio5error6detail13misc_categoryD1Ev
	.set	_ZN4asio5error6detail13misc_categoryD1Ev,_ZN4asio5error6detail13misc_categoryD2Ev
	.section	.text._ZN4asio5error6detail13misc_categoryD0Ev,"axG",%progbits,_ZN4asio5error6detail13misc_categoryD5Ev,comdat
	.align	2
	.weak	_ZN4asio5error6detail13misc_categoryD0Ev
	.syntax unified
	.arm
	.fpu vfp
	.type	_ZN4asio5error6detail13misc_categoryD0Ev, %function
_ZN4asio5error6detail13misc_categoryD0Ev:
	.fnstart
.LFB10054:
	@ args = 0, pretend = 0, frame = 0
	@ frame_needed = 0, uses_anonymous_args = 0
	ldr	r3, .L72
	ldr	r2, .L72+4
.LPIC17:
	add	r3, pc, r3
	push	{r4, lr}
	mov	r4, r0
	ldr	r3, [r3, r2]
	add	r3, r3, #8
	str	r3, [r0]
	bl	_ZNSt3_V214error_categoryD2Ev(PLT)
	mov	r0, r4
	mov	r1, #4
	bl	_ZdlPvj(PLT)
	mov	r0, r4
	pop	{r4, pc}
.L73:
	.align	2
.L72:
	.word	_GLOBAL_OFFSET_TABLE_-(.LPIC17+8)
	.word	_ZTVN4asio5error6detail13misc_categoryE(GOT)
	.cantunwind
	.fnend
	.size	_ZN4asio5error6detail13misc_categoryD0Ev, .-_ZN4asio5error6detail13misc_categoryD0Ev
	.text
	.align	2
	.global	_ZN8asiodnp311LinkSession13BeginTransmitERKN7openpal6RSliceERN8opendnp312ILinkSessionE
	.syntax unified
	.arm
	.fpu vfp
	.type	_ZN8asiodnp311LinkSession13BeginTransmitERKN7openpal6RSliceERN8opendnp312ILinkSessionE, %function
_ZN8asiodnp311LinkSession13BeginTransmitERKN7openpal6RSliceERN8opendnp312ILinkSessionE:
	.fnstart
.LFB7735:
	@ args = 0, pretend = 0, frame = 0
	@ frame_needed = 0, uses_anonymous_args = 0
	@ link register save eliminated.
	ldr	r0, [r0, #72]
	ldr	r3, [r0, #20]
	cmp	r3, #0
	bxeq	lr
	ldrb	r3, [r0, #28]	@ zero_extendqisi2
	cmp	r3, #0
	bxne	lr
	ldrb	r3, [r0, #30]	@ zero_extendqisi2
	cmp	r3, #0
	bxne	lr
	ldr	r3, [r0]
	mov	r2, #1
	strb	r2, [r0, #30]
	ldr	r3, [r3, #12]
	bx	r3	@ indirect register sibling call
	.cantunwind
	.fnend
	.size	_ZN8asiodnp311LinkSession13BeginTransmitERKN7openpal6RSliceERN8opendnp312ILinkSessionE, .-_ZN8asiodnp311LinkSession13BeginTransmitERKN7openpal6RSliceERN8opendnp312ILinkSessionE
	.section	.text._ZNK4asio6detail15system_category7messageB5cxx11Ei,"axG",%progbits,_ZNK4asio6detail15system_category7messageB5cxx11Ei,comdat
	.align	2
	.weak	_ZNK4asio6detail15system_category7messageB5cxx11Ei
	.syntax unified
	.arm
	.fpu vfp
	.type	_ZNK4asio6detail15system_category7messageB5cxx11Ei, %function
_ZNK4asio6detail15system_category7messageB5cxx11Ei:
	.fnstart
.LFB2182:
	@ args = 0, pretend = 0, frame = 264
	@ frame_needed = 0, uses_anonymous_args = 0
	cmp	r2, #125
	push	{r4, r5, r6, r7, r8, lr}
	.save {r4, r5, r6, r7, r8, lr}
	mov	r4, r0
	.pad #264
	sub	sp, sp, #264
	beq	.L91
	mov	r7, #0
	mov	r5, r2
	mov	r1, r7
	mov	r2, #252
	add	r0, sp, #12
	str	r7, [sp, #8]
	bl	memset(PLT)
	mov	r0, r5
	mov	r2, #256
	add	r1, sp, #8
	bl	strerror_r(PLT)
	add	r6, r4, #8
	str	r6, [r4]
	subs	r8, r0, #0
	beq	.L84
	bl	strlen(PLT)
	cmp	r0, #15
	mov	r5, r0
	str	r0, [sp, #4]
	bhi	.L92
	cmp	r0, #1
	beq	.L93
	cmp	r0, #0
	bne	.L94
.L88:
	mov	r3, #0
	str	r5, [r4, #4]
	mov	r0, r4
	strb	r3, [r6, r5]
	add	sp, sp, #264
	@ sp needed
	pop	{r4, r5, r6, r7, r8, pc}
.L92:
	mov	r2, r7
	add	r1, sp, #4
	mov	r0, r4
	bl	_ZNSt7__cxx1112basic_stringIcSt11char_traitsIcESaIcEE9_M_createERjj(PLT)
	ldr	r3, [sp, #4]
	str	r3, [r4, #8]
	str	r0, [r4]
.L86:
	mov	r2, r5
	mov	r1, r8
	bl	memcpy(PLT)
	ldr	r5, [sp, #4]
	ldr	r6, [r4]
	b	.L88
.L93:
	ldrb	r3, [r8]	@ zero_extendqisi2
	strb	r3, [r4, #8]
	b	.L88
.L91:
	add	r1, sp, #264
	add	r3, r0, #8
	mov	r2, #18
	str	r2, [r1, #-256]!
	str	r3, [r0]
	mov	r2, #0
	bl	_ZNSt7__cxx1112basic_stringIcSt11char_traitsIcESaIcEE9_M_createERjj(PLT)
	ldr	ip, .L95
	ldr	r6, [sp, #8]
.LPIC18:
	add	ip, pc, ip
	str	r6, [r4, #8]
	mov	r5, #0
	str	r0, [r4]
	mov	lr, r0
	ldmia	ip!, {r0, r1, r2, r3}
	ldrh	ip, [ip]	@ unaligned
	str	r0, [lr]	@ unaligned
	str	r1, [lr, #4]	@ unaligned
	strh	ip, [lr, #16]	@ unaligned
	str	r2, [lr, #8]	@ unaligned
	str	r3, [lr, #12]	@ unaligned
	ldr	r3, [sp, #8]
	ldr	r2, [r4]
	str	r3, [r4, #4]
	mov	r0, r4
	strb	r5, [r2, r3]
	add	sp, sp, #264
	@ sp needed
	pop	{r4, r5, r6, r7, r8, pc}
.L84:
	ldr	r0, .L95+4
.LPIC19:
	add	r0, pc, r0
	bl	_ZSt19__throw_logic_errorPKc(PLT)
.L94:
	mov	r0, r6
	b	.L86
.L96:
	.align	2
.L95:
	.word	.LC6-(.LPIC18+8)
	.word	.LC7-(.LPIC19+8)
	.fnend
	.size	_ZNK4asio6detail15system_category7messageB5cxx11Ei, .-_ZNK4asio6detail15system_category7messageB5cxx11Ei
	.section	.text._ZN8asiodnp311LinkSessionD2Ev,"axG",%progbits,_ZN8asiodnp311LinkSessionD5Ev,comdat
	.align	2
	.weak	_ZN8asiodnp311LinkSessionD2Ev
	.syntax unified
	.arm
	.fpu vfp
	.type	_ZN8asiodnp311LinkSessionD2Ev, %function
_ZN8asiodnp311LinkSessionD2Ev:
	.fnstart
.LFB10012:
	@ args = 0, pretend = 0, frame = 0
	@ frame_needed = 0, uses_anonymous_args = 0
	push	{r4, r5, r6, lr}
	mov	r4, r0
	ldr	r5, .L203
	ldr	r3, .L203+4
.LPIC20:
	add	r5, pc, r5
	ldr	r6, [r0, #472]
	ldr	r3, [r5, r3]
	cmp	r6, #0
	add	r0, r3, #48
	add	r1, r3, #72
	add	ip, r3, #8
	add	r2, r3, #92
	add	r3, r3, #112
	str	ip, [r4]
	stmib	r4, {r0, r1}
	str	r2, [r4, #20]
	str	r3, [r4, #24]
	beq	.L99
	ldr	r3, .L203+8
	ldr	r3, [r5, r3]
	cmp	r3, #0
	beq	.L100
	add	r3, r6, #28
	mcr	p15, 0, r0, c7, c10, 5
.L176:
	ldrex	r2, [r3]
	sub	r1, r2, #1
	strex	r0, r1, [r3]
	cmp	r0, #0
	bne	.L176
	cmp	r2, #1
	mcr	p15, 0, r0, c7, c10, 5
	beq	.L194
.L99:
	add	r0, r4, #456
	bl	_ZN7openpal8TimerRefD1Ev(PLT)
	ldr	r6, [r4, #92]
	cmp	r6, #0
	beq	.L105
	ldr	r3, .L203+8
	ldr	r3, [r5, r3]
	cmp	r3, #0
	beq	.L106
	add	r3, r6, #28
	mcr	p15, 0, r0, c7, c10, 5
.L175:
	ldrex	r2, [r3]
	sub	r1, r2, #1
	strex	r0, r1, [r3]
	cmp	r0, #0
	bne	.L175
	cmp	r2, #1
	mcr	p15, 0, r0, c7, c10, 5
	beq	.L195
.L105:
	ldr	r6, [r4, #84]
	cmp	r6, #0
	beq	.L111
	ldr	r3, .L203+8
	ldr	r3, [r5, r3]
	cmp	r3, #0
	beq	.L112
	add	r3, r6, #28
	mcr	p15, 0, r0, c7, c10, 5
.L174:
	ldrex	r2, [r3]
	sub	r1, r2, #1
	strex	r0, r1, [r3]
	cmp	r0, #0
	bne	.L174
	cmp	r2, #1
	mcr	p15, 0, r0, c7, c10, 5
	beq	.L196
.L111:
	ldr	r6, [r4, #76]
	cmp	r6, #0
	beq	.L117
	ldr	r3, .L203+8
	ldr	r3, [r5, r3]
	cmp	r3, #0
	beq	.L118
	add	r3, r6, #28
	mcr	p15, 0, r0, c7, c10, 5
.L173:
	ldrex	r2, [r3]
	sub	r1, r2, #1
	strex	r0, r1, [r3]
	cmp	r0, #0
	bne	.L173
	cmp	r2, #1
	mcr	p15, 0, r0, c7, c10, 5
	beq	.L197
.L117:
	ldr	r6, [r4, #68]
	cmp	r6, #0
	beq	.L123
	ldr	r3, .L203+8
	ldr	r3, [r5, r3]
	cmp	r3, #0
	beq	.L124
	add	r3, r6, #28
	mcr	p15, 0, r0, c7, c10, 5
.L172:
	ldrex	r2, [r3]
	sub	r1, r2, #1
	strex	r0, r1, [r3]
	cmp	r0, #0
	bne	.L172
	cmp	r2, #1
	mcr	p15, 0, r0, c7, c10, 5
	beq	.L198
.L123:
	ldr	r6, [r4, #60]
	cmp	r6, #0
	beq	.L129
	ldr	r3, .L203+8
	ldr	r3, [r5, r3]
	cmp	r3, #0
	beq	.L130
	add	r3, r6, #28
	mcr	p15, 0, r0, c7, c10, 5
.L171:
	ldrex	r2, [r3]
	sub	r1, r2, #1
	strex	r0, r1, [r3]
	cmp	r0, #0
	bne	.L171
	cmp	r2, #1
	mcr	p15, 0, r0, c7, c10, 5
	beq	.L199
.L129:
	ldr	r6, [r4, #44]
	cmp	r6, #0
	beq	.L135
	ldr	r3, .L203+8
	ldr	r3, [r5, r3]
	cmp	r3, #0
	beq	.L136
	add	r3, r6, #28
	mcr	p15, 0, r0, c7, c10, 5
.L170:
	ldrex	r2, [r3]
	sub	r1, r2, #1
	strex	r0, r1, [r3]
	cmp	r0, #0
	bne	.L170
	cmp	r2, #1
	mcr	p15, 0, r0, c7, c10, 5
	beq	.L200
.L135:
	ldr	r6, [r4, #36]
	cmp	r6, #0
	beq	.L141
	ldr	r3, .L203+8
	ldr	r3, [r5, r3]
	cmp	r3, #0
	beq	.L142
	add	r3, r6, #28
	mcr	p15, 0, r0, c7, c10, 5
.L169:
	ldrex	r2, [r3]
	sub	r1, r2, #1
	strex	r0, r1, [r3]
	cmp	r0, #0
	bne	.L169
	cmp	r2, #1
	mcr	p15, 0, r0, c7, c10, 5
	beq	.L201
.L141:
	ldr	r0, [r4, #16]
	cmp	r0, #0
	beq	.L159
	ldr	r3, .L203+8
	ldr	r3, [r5, r3]
	cmp	r3, #0
	beq	.L148
	add	r3, r0, #32
	mcr	p15, 0, r0, c7, c10, 5
.L168:
	ldrex	r2, [r3]
	sub	r1, r2, #1
	strex	ip, r1, [r3]
	cmp	ip, #0
	bne	.L168
	cmp	r2, #1
	mcr	p15, 0, r0, c7, c10, 5
	beq	.L202
.L159:
	mov	r0, r4
	pop	{r4, r5, r6, pc}
.L118:
	ldr	r3, [r6, #28]
	cmp	r3, #1
	sub	r3, r3, #1
	str	r3, [r6, #28]
	bne	.L117
	ldr	r3, [r6]
	mov	r0, r6
	ldr	r3, [r3, #8]
	blx	r3
	mcr	p15, 0, r0, c7, c10, 5
	ldr	r2, [r6, #32]
	sub	r3, r2, #1
	str	r3, [r6, #32]
	b	.L154
.L106:
	ldr	r3, [r6, #28]
	cmp	r3, #1
	sub	r3, r3, #1
	str	r3, [r6, #28]
	bne	.L105
	ldr	r3, [r6]
	mov	r0, r6
	ldr	r3, [r3, #8]
	blx	r3
	mcr	p15, 0, r0, c7, c10, 5
	ldr	r2, [r6, #32]
	sub	r3, r2, #1
	str	r3, [r6, #32]
	b	.L152
.L100:
	ldr	r3, [r6, #28]
	cmp	r3, #1
	sub	r3, r3, #1
	str	r3, [r6, #28]
	bne	.L99
	ldr	r3, [r6]
	mov	r0, r6
	ldr	r3, [r3, #8]
	blx	r3
	mcr	p15, 0, r0, c7, c10, 5
	ldr	r2, [r6, #32]
	sub	r3, r2, #1
	str	r3, [r6, #32]
	b	.L151
.L130:
	ldr	r3, [r6, #28]
	cmp	r3, #1
	sub	r3, r3, #1
	str	r3, [r6, #28]
	bne	.L129
	ldr	r3, [r6]
	mov	r0, r6
	ldr	r3, [r3, #8]
	blx	r3
	mcr	p15, 0, r0, c7, c10, 5
	ldr	r2, [r6, #32]
	sub	r3, r2, #1
	str	r3, [r6, #32]
	b	.L156
.L124:
	ldr	r3, [r6, #28]
	cmp	r3, #1
	sub	r3, r3, #1
	str	r3, [r6, #28]
	bne	.L123
	ldr	r3, [r6]
	mov	r0, r6
	ldr	r3, [r3, #8]
	blx	r3
	mcr	p15, 0, r0, c7, c10, 5
	ldr	r2, [r6, #32]
	sub	r3, r2, #1
	str	r3, [r6, #32]
	b	.L155
.L136:
	ldr	r3, [r6, #28]
	cmp	r3, #1
	sub	r3, r3, #1
	str	r3, [r6, #28]
	bne	.L135
	ldr	r3, [r6]
	mov	r0, r6
	ldr	r3, [r3, #8]
	blx	r3
	mcr	p15, 0, r0, c7, c10, 5
	ldr	r2, [r6, #32]
	sub	r3, r2, #1
	str	r3, [r6, #32]
	b	.L157
.L112:
	ldr	r3, [r6, #28]
	cmp	r3, #1
	sub	r3, r3, #1
	str	r3, [r6, #28]
	bne	.L111
	ldr	r3, [r6]
	mov	r0, r6
	ldr	r3, [r3, #8]
	blx	r3
	mcr	p15, 0, r0, c7, c10, 5
	ldr	r2, [r6, #32]
	sub	r3, r2, #1
	str	r3, [r6, #32]
	b	.L153
.L148:
	ldr	r2, [r0, #32]
	sub	r3, r2, #1
	cmp	r2, #1
	str	r3, [r0, #32]
	bne	.L159
.L202:
	mcr	p15, 0, r0, c7, c10, 5
	ldr	r3, [r0]
	ldr	r3, [r3, #12]
	blx	r3
	mov	r0, r4
	pop	{r4, r5, r6, pc}
.L142:
	ldr	r3, [r6, #28]
	cmp	r3, #1
	sub	r3, r3, #1
	str	r3, [r6, #28]
	bne	.L141
	ldr	r3, [r6]
	mov	r0, r6
	ldr	r3, [r3, #8]
	blx	r3
	mcr	p15, 0, r0, c7, c10, 5
	ldr	r2, [r6, #32]
	sub	r3, r2, #1
	str	r3, [r6, #32]
	b	.L158
.L196:
	ldr	r3, [r6]
	mov	r0, r6
	ldr	r3, [r3, #8]
	blx	r3
	add	r3, r6, #32
	mcr	p15, 0, r0, c7, c10, 5
	mcr	p15, 0, r0, c7, c10, 5
.L165:
	ldrex	r2, [r3]
	sub	r1, r2, #1
	strex	r0, r1, [r3]
	cmp	r0, #0
	bne	.L165
	mcr	p15, 0, r0, c7, c10, 5
.L153:
	cmp	r2, #1
	bne	.L111
	ldr	r3, [r6]
	mov	r0, r6
	ldr	r3, [r3, #12]
	blx	r3
	b	.L111
.L201:
	ldr	r3, [r6]
	mov	r0, r6
	ldr	r3, [r3, #8]
	blx	r3
	add	r3, r6, #32
	mcr	p15, 0, r0, c7, c10, 5
	mcr	p15, 0, r0, c7, c10, 5
.L160:
	ldrex	r2, [r3]
	sub	r1, r2, #1
	strex	r0, r1, [r3]
	cmp	r0, #0
	bne	.L160
	mcr	p15, 0, r0, c7, c10, 5
.L158:
	cmp	r2, #1
	bne	.L141
	ldr	r3, [r6]
	mov	r0, r6
	ldr	r3, [r3, #12]
	blx	r3
	b	.L141
.L198:
	ldr	r3, [r6]
	mov	r0, r6
	ldr	r3, [r3, #8]
	blx	r3
	add	r3, r6, #32
	mcr	p15, 0, r0, c7, c10, 5
	mcr	p15, 0, r0, c7, c10, 5
.L163:
	ldrex	r2, [r3]
	sub	r1, r2, #1
	strex	r0, r1, [r3]
	cmp	r0, #0
	bne	.L163
	mcr	p15, 0, r0, c7, c10, 5
.L155:
	cmp	r2, #1
	bne	.L123
	ldr	r3, [r6]
	mov	r0, r6
	ldr	r3, [r3, #12]
	blx	r3
	b	.L123
.L197:
	ldr	r3, [r6]
	mov	r0, r6
	ldr	r3, [r3, #8]
	blx	r3
	add	r3, r6, #32
	mcr	p15, 0, r0, c7, c10, 5
	mcr	p15, 0, r0, c7, c10, 5
.L164:
	ldrex	r2, [r3]
	sub	r1, r2, #1
	strex	r0, r1, [r3]
	cmp	r0, #0
	bne	.L164
	mcr	p15, 0, r0, c7, c10, 5
.L154:
	cmp	r2, #1
	bne	.L117
	ldr	r3, [r6]
	mov	r0, r6
	ldr	r3, [r3, #12]
	blx	r3
	b	.L117
.L199:
	ldr	r3, [r6]
	mov	r0, r6
	ldr	r3, [r3, #8]
	blx	r3
	add	r3, r6, #32
	mcr	p15, 0, r0, c7, c10, 5
	mcr	p15, 0, r0, c7, c10, 5
.L162:
	ldrex	r2, [r3]
	sub	r1, r2, #1
	strex	r0, r1, [r3]
	cmp	r0, #0
	bne	.L162
	mcr	p15, 0, r0, c7, c10, 5
.L156:
	cmp	r2, #1
	bne	.L129
	ldr	r3, [r6]
	mov	r0, r6
	ldr	r3, [r3, #12]
	blx	r3
	b	.L129
.L200:
	ldr	r3, [r6]
	mov	r0, r6
	ldr	r3, [r3, #8]
	blx	r3
	add	r3, r6, #32
	mcr	p15, 0, r0, c7, c10, 5
	mcr	p15, 0, r0, c7, c10, 5
.L161:
	ldrex	r2, [r3]
	sub	r1, r2, #1
	strex	r0, r1, [r3]
	cmp	r0, #0
	bne	.L161
	mcr	p15, 0, r0, c7, c10, 5
.L157:
	cmp	r2, #1
	bne	.L135
	ldr	r3, [r6]
	mov	r0, r6
	ldr	r3, [r3, #12]
	blx	r3
	b	.L135
.L194:
	ldr	r3, [r6]
	mov	r0, r6
	ldr	r3, [r3, #8]
	blx	r3
	add	r3, r6, #32
	mcr	p15, 0, r0, c7, c10, 5
	mcr	p15, 0, r0, c7, c10, 5
.L167:
	ldrex	r2, [r3]
	sub	r1, r2, #1
	strex	r0, r1, [r3]
	cmp	r0, #0
	bne	.L167
	mcr	p15, 0, r0, c7, c10, 5
.L151:
	cmp	r2, #1
	bne	.L99
	ldr	r3, [r6]
	mov	r0, r6
	ldr	r3, [r3, #12]
	blx	r3
	b	.L99
.L195:
	ldr	r3, [r6]
	mov	r0, r6
	ldr	r3, [r3, #8]
	blx	r3
	add	r3, r6, #32
	mcr	p15, 0, r0, c7, c10, 5
	mcr	p15, 0, r0, c7, c10, 5
.L166:
	ldrex	r2, [r3]
	sub	r1, r2, #1
	strex	r0, r1, [r3]
	cmp	r0, #0
	bne	.L166
	mcr	p15, 0, r0, c7, c10, 5
.L152:
	cmp	r2, #1
	bne	.L105
	ldr	r3, [r6]
	mov	r0, r6
	ldr	r3, [r3, #12]
	blx	r3
	b	.L105
.L204:
	.align	2
.L203:
	.word	_GLOBAL_OFFSET_TABLE_-(.LPIC20+8)
	.word	_ZTVN8asiodnp311LinkSessionE(GOT)
	.word	_ZL28__gthrw___pthread_key_createPjPFvPvE(GOT)
	.cantunwind
	.fnend
	.size	_ZN8asiodnp311LinkSessionD2Ev, .-_ZN8asiodnp311LinkSessionD2Ev
	.weak	_ZN8asiodnp311LinkSessionD1Ev
	.set	_ZN8asiodnp311LinkSessionD1Ev,_ZN8asiodnp311LinkSessionD2Ev
	.set	.LTHUNK10,_ZN8asiodnp311LinkSessionD1Ev
	.align	2
	.weak	_ZThn4_N8asiodnp311LinkSessionD1Ev
	.syntax unified
	.arm
	.fpu vfp
	.type	_ZThn4_N8asiodnp311LinkSessionD1Ev, %function
_ZThn4_N8asiodnp311LinkSessionD1Ev:
	.fnstart
.LFB10323:
	@ args = 0, pretend = 0, frame = 0
	@ frame_needed = 0, uses_anonymous_args = 0
	sub	r0, r0, #4
	b	.LTHUNK10(PLT)
	.cantunwind
	.fnend
	.size	_ZThn4_N8asiodnp311LinkSessionD1Ev, .-_ZThn4_N8asiodnp311LinkSessionD1Ev
	.set	.LTHUNK9,_ZN8asiodnp311LinkSessionD1Ev
	.align	2
	.weak	_ZThn8_N8asiodnp311LinkSessionD1Ev
	.syntax unified
	.arm
	.fpu vfp
	.type	_ZThn8_N8asiodnp311LinkSessionD1Ev, %function
_ZThn8_N8asiodnp311LinkSessionD1Ev:
	.fnstart
.LFB10324:
	@ args = 0, pretend = 0, frame = 0
	@ frame_needed = 0, uses_anonymous_args = 0
	sub	r0, r0, #8
	b	.LTHUNK9(PLT)
	.cantunwind
	.fnend
	.size	_ZThn8_N8asiodnp311LinkSessionD1Ev, .-_ZThn8_N8asiodnp311LinkSessionD1Ev
	.set	.LTHUNK8,_ZN8asiodnp311LinkSessionD1Ev
	.align	2
	.weak	_ZThn20_N8asiodnp311LinkSessionD1Ev
	.syntax unified
	.arm
	.fpu vfp
	.type	_ZThn20_N8asiodnp311LinkSessionD1Ev, %function
_ZThn20_N8asiodnp311LinkSessionD1Ev:
	.fnstart
.LFB10325:
	@ args = 0, pretend = 0, frame = 0
	@ frame_needed = 0, uses_anonymous_args = 0
	sub	r0, r0, #20
	b	.LTHUNK8(PLT)
	.cantunwind
	.fnend
	.size	_ZThn20_N8asiodnp311LinkSessionD1Ev, .-_ZThn20_N8asiodnp311LinkSessionD1Ev
	.set	.LTHUNK7,_ZN8asiodnp311LinkSessionD1Ev
	.align	2
	.weak	_ZThn24_N8asiodnp311LinkSessionD1Ev
	.syntax unified
	.arm
	.fpu vfp
	.type	_ZThn24_N8asiodnp311LinkSessionD1Ev, %function
_ZThn24_N8asiodnp311LinkSessionD1Ev:
	.fnstart
.LFB10326:
	@ args = 0, pretend = 0, frame = 0
	@ frame_needed = 0, uses_anonymous_args = 0
	sub	r0, r0, #24
	b	.LTHUNK7(PLT)
	.cantunwind
	.fnend
	.size	_ZThn24_N8asiodnp311LinkSessionD1Ev, .-_ZThn24_N8asiodnp311LinkSessionD1Ev
	.section	.text._ZNK4asio5error6detail17addrinfo_category7messageB5cxx11Ei,"axG",%progbits,_ZNK4asio5error6detail17addrinfo_category7messageB5cxx11Ei,comdat
	.align	2
	.weak	_ZNK4asio5error6detail17addrinfo_category7messageB5cxx11Ei
	.syntax unified
	.arm
	.fpu vfp
	.type	_ZNK4asio5error6detail17addrinfo_category7messageB5cxx11Ei, %function
_ZNK4asio5error6detail17addrinfo_category7messageB5cxx11Ei:
	.fnstart
.LFB2209:
	@ args = 0, pretend = 0, frame = 8
	@ frame_needed = 0, uses_anonymous_args = 0
	push	{r4, r5, r6, lr}
	.save {r4, r5, r6, lr}
	cmn	r2, #8
	.pad #8
	sub	sp, sp, #8
	add	r1, sp, #8
	mov	r4, r0
	beq	.L210
	cmn	r2, #7
	beq	.L211
	add	r3, r0, #8
	mov	r2, #19
	str	r2, [r1, #-4]!
	str	r3, [r0]
	mov	r2, #0
	bl	_ZNSt7__cxx1112basic_stringIcSt11char_traitsIcESaIcEE9_M_createERjj(PLT)
	ldr	ip, .L212
	ldr	r6, [sp, #4]
.LPIC23:
	add	ip, pc, ip
	str	r6, [r4, #8]
	mov	r5, #0
	str	r0, [r4]
	mov	lr, r0
	ldmia	ip!, {r0, r1, r2, r3}
	ldrh	r6, [ip]	@ unaligned
	ldrb	ip, [ip, #2]	@ zero_extendqisi2
	str	r0, [lr]	@ unaligned
	str	r1, [lr, #4]	@ unaligned
	str	r2, [lr, #8]	@ unaligned
	str	r3, [lr, #12]	@ unaligned
	strh	r6, [lr, #16]	@ unaligned
	strb	ip, [lr, #18]
	ldr	r3, [sp, #4]
	ldr	r2, [r4]
	str	r3, [r4, #4]
	strb	r5, [r2, r3]
.L205:
	mov	r0, r4
	add	sp, sp, #8
	@ sp needed
	pop	{r4, r5, r6, pc}
.L211:
	add	r3, r0, #8
	mov	r2, #25
	str	r2, [r1, #-4]!
	str	r3, [r0]
	mov	r2, #0
	bl	_ZNSt7__cxx1112basic_stringIcSt11char_traitsIcESaIcEE9_M_createERjj(PLT)
	ldr	ip, .L212+4
	ldr	r6, [sp, #4]
.LPIC22:
	add	ip, pc, ip
	str	r6, [r4, #8]
	mov	r5, #0
	str	r0, [r4]
	mov	lr, r0
	ldmia	ip!, {r0, r1, r2, r3}
	str	r0, [lr]	@ unaligned
	str	r1, [lr, #4]	@ unaligned
	ldmia	ip!, {r0, r1}
	str	r3, [lr, #12]	@ unaligned
	str	r2, [lr, #8]	@ unaligned
	ldrb	r3, [ip]	@ zero_extendqisi2
	str	r0, [lr, #16]	@ unaligned
	str	r1, [lr, #20]	@ unaligned
	strb	r3, [lr, #24]
	ldr	r3, [sp, #4]
	ldr	r2, [r4]
	str	r3, [r4, #4]
	mov	r0, r4
	strb	r5, [r2, r3]
	add	sp, sp, #8
	@ sp needed
	pop	{r4, r5, r6, pc}
.L210:
	add	r3, r0, #8
	mov	r2, #17
	str	r2, [r1, #-4]!
	str	r3, [r0]
	mov	r2, #0
	bl	_ZNSt7__cxx1112basic_stringIcSt11char_traitsIcESaIcEE9_M_createERjj(PLT)
	ldr	ip, .L212+8
	ldr	r6, [sp, #4]
.LPIC21:
	add	ip, pc, ip
	str	r6, [r4, #8]
	mov	r5, #0
	str	r0, [r4]
	mov	lr, r0
	ldmia	ip!, {r0, r1, r2, r3}
	ldrb	ip, [ip]	@ zero_extendqisi2
	str	r0, [lr]	@ unaligned
	str	r1, [lr, #4]	@ unaligned
	strb	ip, [lr, #16]
	str	r2, [lr, #8]	@ unaligned
	str	r3, [lr, #12]	@ unaligned
	ldr	r3, [sp, #4]
	ldr	r2, [r4]
	str	r3, [r4, #4]
	strb	r5, [r2, r3]
	b	.L205
.L213:
	.align	2
.L212:
	.word	.LC10-(.LPIC23+8)
	.word	.LC9-(.LPIC22+8)
	.word	.LC8-(.LPIC21+8)
	.fnend
	.size	_ZNK4asio5error6detail17addrinfo_category7messageB5cxx11Ei, .-_ZNK4asio5error6detail17addrinfo_category7messageB5cxx11Ei
	.section	.text._ZNK4asio5error6detail14netdb_category7messageB5cxx11Ei,"axG",%progbits,_ZNK4asio5error6detail14netdb_category7messageB5cxx11Ei,comdat
	.align	2
	.weak	_ZNK4asio5error6detail14netdb_category7messageB5cxx11Ei
	.syntax unified
	.arm
	.fpu vfp
	.type	_ZNK4asio5error6detail14netdb_category7messageB5cxx11Ei, %function
_ZNK4asio5error6detail14netdb_category7messageB5cxx11Ei:
	.fnstart
.LFB2203:
	@ args = 0, pretend = 0, frame = 8
	@ frame_needed = 0, uses_anonymous_args = 0
	push	{r4, r5, r6, lr}
	.save {r4, r5, r6, lr}
	cmp	r2, #1
	.pad #8
	sub	sp, sp, #8
	add	r1, sp, #8
	mov	r4, r0
	beq	.L227
	cmp	r2, #2
	beq	.L228
	cmp	r2, #4
	beq	.L229
	cmp	r2, #3
	beq	.L230
	add	r3, r0, #8
	mov	r2, #16
	str	r2, [r1, #-4]!
	str	r3, [r0]
	mov	r2, #0
	bl	_ZNSt7__cxx1112basic_stringIcSt11char_traitsIcESaIcEE9_M_createERjj(PLT)
	ldr	ip, .L231
	ldr	r5, [sp, #4]
.LPIC28:
	add	ip, pc, ip
	str	r5, [r4, #8]
	str	r0, [r4]
	mov	lr, r0
	ldmia	ip!, {r0, r1, r2, r3}
	mov	ip, #0
	str	r0, [lr]	@ unaligned
	str	r1, [lr, #4]	@ unaligned
	str	r2, [lr, #8]	@ unaligned
	str	r3, [lr, #12]	@ unaligned
	ldr	r3, [sp, #4]
	ldr	r2, [r4]
	str	r3, [r4, #4]
	strb	ip, [r2, r3]
.L214:
	mov	r0, r4
	add	sp, sp, #8
	@ sp needed
	pop	{r4, r5, r6, pc}
.L230:
	add	r3, r0, #8
	mov	r2, #55
	str	r2, [r1, #-4]!
	str	r3, [r0]
	mov	r2, #0
	bl	_ZNSt7__cxx1112basic_stringIcSt11char_traitsIcESaIcEE9_M_createERjj(PLT)
	ldr	r5, .L231+4
	ldr	r3, [sp, #4]
.LPIC27:
	add	r5, pc, r5
	add	r6, r5, #48
	str	r3, [r4, #8]
	mov	lr, r0
	str	r0, [r4]
.L222:
	mov	ip, r5
	add	lr, lr, #16
	ldmia	ip!, {r0, r1, r2, r3}
	add	r5, r5, #16
	cmp	ip, r6
	str	r0, [lr, #-16]	@ unaligned
	str	r1, [lr, #-12]	@ unaligned
	str	r2, [lr, #-8]	@ unaligned
	str	r3, [lr, #-4]	@ unaligned
	bne	.L222
	ldrh	r2, [r5, #4]	@ unaligned
	ldrb	r3, [r5, #6]	@ zero_extendqisi2
	ldr	r0, [r5]
	strh	r2, [lr, #4]	@ unaligned
	strb	r3, [lr, #6]
	str	r0, [lr]	@ unaligned
	ldr	r3, [sp, #4]
	ldr	r2, [r4]
	mov	r1, #0
	str	r3, [r4, #4]
	strb	r1, [r2, r3]
	b	.L214
.L227:
	add	r3, r0, #8
	mov	r2, #30
	str	r2, [r1, #-4]!
	str	r3, [r0]
	mov	r2, #0
	bl	_ZNSt7__cxx1112basic_stringIcSt11char_traitsIcESaIcEE9_M_createERjj(PLT)
	ldr	ip, .L231+8
	ldr	r6, [sp, #4]
.LPIC24:
	add	ip, pc, ip
	str	r6, [r4, #8]
	mov	r5, #0
	str	r0, [r4]
	mov	lr, r0
	ldmia	ip!, {r0, r1, r2, r3}
	str	r0, [lr]	@ unaligned
	str	r1, [lr, #4]	@ unaligned
	str	r2, [lr, #8]	@ unaligned
	ldmia	ip!, {r0, r1, r2}
	str	r3, [lr, #12]	@ unaligned
	ldrh	r3, [ip]	@ unaligned
	str	r0, [lr, #16]	@ unaligned
	str	r1, [lr, #20]	@ unaligned
	strh	r3, [lr, #28]	@ unaligned
	str	r2, [lr, #24]	@ unaligned
	ldr	r3, [sp, #4]
	ldr	r2, [r4]
	str	r3, [r4, #4]
	strb	r5, [r2, r3]
	b	.L214
.L228:
	add	r3, r0, #8
	mov	r2, #51
	str	r2, [r1, #-4]!
	str	r3, [r0]
	mov	r2, #0
	bl	_ZNSt7__cxx1112basic_stringIcSt11char_traitsIcESaIcEE9_M_createERjj(PLT)
	ldr	r5, .L231+12
	ldr	r3, [sp, #4]
.LPIC25:
	add	r5, pc, r5
	add	r6, r5, #48
	str	r3, [r4, #8]
	mov	lr, r0
	str	r0, [r4]
.L218:
	mov	ip, r5
	add	lr, lr, #16
	ldmia	ip!, {r0, r1, r2, r3}
	add	r5, r5, #16
	cmp	ip, r6
	str	r0, [lr, #-16]	@ unaligned
	str	r1, [lr, #-12]	@ unaligned
	str	r2, [lr, #-8]	@ unaligned
	str	r3, [lr, #-4]	@ unaligned
	bne	.L218
	ldrh	r2, [r5]	@ unaligned
	ldrb	r3, [r5, #2]	@ zero_extendqisi2
	mov	r1, #0
	strh	r2, [lr]	@ unaligned
	strb	r3, [lr, #2]
	ldr	r3, [sp, #4]
	ldr	r2, [r4]
	str	r3, [r4, #4]
	strb	r1, [r2, r3]
	b	.L214
.L229:
	add	r3, r0, #8
	mov	r2, #56
	str	r2, [r1, #-4]!
	str	r3, [r0]
	mov	r2, #0
	bl	_ZNSt7__cxx1112basic_stringIcSt11char_traitsIcESaIcEE9_M_createERjj(PLT)
	ldr	r5, .L231+16
	ldr	r3, [sp, #4]
.LPIC26:
	add	r5, pc, r5
	add	r6, r5, #48
	str	r3, [r4, #8]
	mov	lr, r0
	str	r0, [r4]
.L220:
	mov	ip, r5
	add	lr, lr, #16
	ldmia	ip!, {r0, r1, r2, r3}
	add	r5, r5, #16
	cmp	ip, r6
	str	r0, [lr, #-16]	@ unaligned
	str	r1, [lr, #-12]	@ unaligned
	str	r2, [lr, #-8]	@ unaligned
	str	r3, [lr, #-4]	@ unaligned
	bne	.L220
	ldmia	r5!, {r0, r1}
	mov	ip, #0
	str	r0, [lr]	@ unaligned
	str	r1, [lr, #4]	@ unaligned
	ldr	r3, [sp, #4]
	ldr	r2, [r4]
	str	r3, [r4, #4]
	strb	ip, [r2, r3]
	b	.L214
.L232:
	.align	2
.L231:
	.word	.LC15-(.LPIC28+8)
	.word	.LC14-(.LPIC27+8)
	.word	.LC11-(.LPIC24+8)
	.word	.LC12-(.LPIC25+8)
	.word	.LC13-(.LPIC26+8)
	.fnend
	.size	_ZNK4asio5error6detail14netdb_category7messageB5cxx11Ei, .-_ZNK4asio5error6detail14netdb_category7messageB5cxx11Ei
	.section	.text._ZNK4asio5error6detail13misc_category7messageB5cxx11Ei,"axG",%progbits,_ZNK4asio5error6detail13misc_category7messageB5cxx11Ei,comdat
	.align	2
	.weak	_ZNK4asio5error6detail13misc_category7messageB5cxx11Ei
	.syntax unified
	.arm
	.fpu vfp
	.type	_ZNK4asio5error6detail13misc_category7messageB5cxx11Ei, %function
_ZNK4asio5error6detail13misc_category7messageB5cxx11Ei:
	.fnstart
.LFB2215:
	@ args = 0, pretend = 0, frame = 8
	@ frame_needed = 0, uses_anonymous_args = 0
	cmp	r2, #1
	push	{r4, r5, r6, lr}
	.save {r4, r5, r6, lr}
	mov	r4, r0
	.pad #8
	sub	sp, sp, #8
	beq	.L242
	cmp	r2, #2
	beq	.L243
	cmp	r2, #3
	beq	.L244
	cmp	r2, #4
	beq	.L245
	ldr	ip, .L246
	add	r3, r0, #8
.LPIC33:
	add	ip, pc, ip
	mov	r5, #15
	ldmia	ip!, {r0, r1, r2}
	mov	lr, #0
	str	r3, [r4]
	str	r5, [r4, #4]
	ldrh	r6, [ip]	@ unaligned
	ldrb	ip, [ip, #2]	@ zero_extendqisi2
	str	r0, [r4, #8]	@ unaligned
	str	r1, [r4, #12]	@ unaligned
	str	r2, [r4, #16]	@ unaligned
	strh	r6, [r4, #20]	@ unaligned
	strb	ip, [r4, #22]
	strb	lr, [r4, #23]
.L233:
	mov	r0, r4
	add	sp, sp, #8
	@ sp needed
	pop	{r4, r5, r6, pc}
.L245:
	add	r1, sp, #8
	add	r3, r0, #8
	mov	r2, #57
	str	r2, [r1, #-4]!
	str	r3, [r0]
	mov	r2, #0
	bl	_ZNSt7__cxx1112basic_stringIcSt11char_traitsIcESaIcEE9_M_createERjj(PLT)
	ldr	r5, .L246+4
	ldr	r3, [sp, #4]
.LPIC32:
	add	r5, pc, r5
	add	r6, r5, #48
	str	r3, [r4, #8]
	mov	lr, r0
	str	r0, [r4]
.L239:
	mov	ip, r5
	add	lr, lr, #16
	ldmia	ip!, {r0, r1, r2, r3}
	add	r5, r5, #16
	cmp	ip, r6
	str	r0, [lr, #-16]	@ unaligned
	str	r1, [lr, #-12]	@ unaligned
	str	r2, [lr, #-8]	@ unaligned
	str	r3, [lr, #-4]	@ unaligned
	bne	.L239
	ldmia	r5!, {r0, r1}
	mov	ip, #0
	ldrb	r3, [r5]	@ zero_extendqisi2
	str	r0, [lr]	@ unaligned
	str	r1, [lr, #4]	@ unaligned
	strb	r3, [lr, #8]
	ldr	r3, [sp, #4]
	ldr	r2, [r4]
	str	r3, [r4, #4]
	strb	ip, [r2, r3]
	b	.L233
.L242:
	ldr	ip, .L246+8
	add	r3, r0, #8
.LPIC29:
	add	ip, pc, ip
	mov	lr, #12
	ldmia	ip!, {r0, r1, r2}
	mov	ip, #0
	str	r3, [r4]
	str	lr, [r4, #4]
	str	r0, [r4, #8]	@ unaligned
	str	r1, [r4, #12]	@ unaligned
	str	r2, [r4, #16]	@ unaligned
	strb	ip, [r4, #20]
	b	.L233
.L243:
	ldr	r2, .L246+12
	add	r3, r0, #8
.LPIC30:
	add	r2, pc, r2
	mov	lr, #11
	ldmia	r2!, {r0, r1}
	mov	ip, #0
	str	r3, [r4]
	ldrh	r5, [r2]	@ unaligned
	ldrb	r2, [r2, #2]	@ zero_extendqisi2
	str	r0, [r4, #8]	@ unaligned
	str	r1, [r4, #12]	@ unaligned
	strh	r5, [r4, #16]	@ unaligned
	strb	r2, [r4, #18]
	str	lr, [r4, #4]
	strb	ip, [r4, #19]
	b	.L233
.L244:
	add	r1, sp, #8
	add	r3, r0, #8
	mov	r2, #17
	str	r2, [r1, #-4]!
	str	r3, [r0]
	mov	r2, #0
	bl	_ZNSt7__cxx1112basic_stringIcSt11char_traitsIcESaIcEE9_M_createERjj(PLT)
	ldr	ip, .L246+16
	ldr	r6, [sp, #4]
.LPIC31:
	add	ip, pc, ip
	str	r6, [r4, #8]
	mov	r5, #0
	str	r0, [r4]
	mov	lr, r0
	ldmia	ip!, {r0, r1, r2, r3}
	ldrb	ip, [ip]	@ zero_extendqisi2
	str	r0, [lr]	@ unaligned
	str	r1, [lr, #4]	@ unaligned
	strb	ip, [lr, #16]
	str	r2, [lr, #8]	@ unaligned
	str	r3, [lr, #12]	@ unaligned
	ldr	r3, [sp, #4]
	ldr	r2, [r4]
	str	r3, [r4, #4]
	strb	r5, [r2, r3]
	b	.L233
.L247:
	.align	2
.L246:
	.word	.LC20-(.LPIC33+8)
	.word	.LC19-(.LPIC32+8)
	.word	.LC16-(.LPIC29+8)
	.word	.LC17-(.LPIC30+8)
	.word	.LC18-(.LPIC31+8)
	.fnend
	.size	_ZNK4asio5error6detail13misc_category7messageB5cxx11Ei, .-_ZNK4asio5error6detail13misc_category7messageB5cxx11Ei
	.text
	.align	2
	.syntax unified
	.arm
	.fpu vfp
	.type	_ZNSt14_Function_base13_Base_managerIZN7openpal8TimerRef5StartIZN8asiodnp311LinkSession5StartEvEUlvE_EEbRKNS1_12TimeDurationERKT_EUlvE_E10_M_managerERSt9_Any_dataRKSF_St18_Manager_operation, %function
_ZNSt14_Function_base13_Base_managerIZN7openpal8TimerRef5StartIZN8asiodnp311LinkSession5StartEvEUlvE_EEbRKNS1_12TimeDurationERKT_EUlvE_E10_M_managerERSt9_Any_dataRKSF_St18_Manager_operation:
	.fnstart
.LFB9281:
	@ args = 0, pretend = 0, frame = 0
	@ frame_needed = 0, uses_anonymous_args = 0
	push	{r4, r5, r6, lr}
	.save {r4, r5, r6, lr}
	mov	r5, r0
	ldr	r4, .L278
.LPIC35:
	add	r4, pc, r4
	cmp	r2, #3
	addls	pc, pc, r2, asl #2
	b	.L268
.L251:
	b	.L250
	b	.L252
	b	.L253
	b	.L254
	.p2align 1
.L254:
	ldr	r5, [r0]
	cmp	r5, #0
	beq	.L268
	ldr	r6, [r5, #8]
	cmp	r6, #0
	beq	.L258
	ldr	r3, .L278+4
	ldr	r3, [r4, r3]
	cmp	r3, #0
	beq	.L259
	add	r3, r6, #28
	mcr	p15, 0, r0, c7, c10, 5
.L272:
	ldrex	r2, [r3]
	sub	r1, r2, #1
	strex	r0, r1, [r3]
	cmp	r0, #0
	bne	.L272
	cmp	r2, #1
	mcr	p15, 0, r0, c7, c10, 5
	beq	.L277
.L258:
	mov	r0, r5
	mov	r1, #12
	bl	_ZdlPvj(PLT)
.L268:
	mov	r0, #0
	pop	{r4, r5, r6, pc}
.L253:
	mov	r0, #12
	ldr	r6, [r1]
	bl	_Znwj(PLT)
	ldm	r6, {r1, r2, r3}
	cmp	r3, #0
	stm	r0, {r1, r2, r3}
	beq	.L255
	ldr	r2, .L278+4
	ldr	r2, [r4, r2]
	cmp	r2, #0
	beq	.L256
	add	r3, r3, #28
	mcr	p15, 0, r0, c7, c10, 5
.L273:
	ldrex	r2, [r3]
	add	r2, r2, #1
	strex	r1, r2, [r3]
	cmp	r1, #0
	bne	.L273
	mcr	p15, 0, r0, c7, c10, 5
.L255:
	str	r0, [r5]
	mov	r0, #0
	pop	{r4, r5, r6, pc}
.L252:
	ldr	r3, [r1]
	str	r3, [r0]
	mov	r0, #0
	pop	{r4, r5, r6, pc}
.L250:
	ldr	r3, .L278+8
.LPIC34:
	add	r3, pc, r3
	str	r3, [r0]
	mov	r0, #0
	pop	{r4, r5, r6, pc}
.L256:
	ldr	r2, [r3, #28]
	add	r2, r2, #1
	str	r2, [r3, #28]
	b	.L255
.L259:
	ldr	r3, [r6, #28]
	cmp	r3, #1
	sub	r3, r3, #1
	str	r3, [r6, #28]
	bne	.L258
	ldr	r3, [r6]
	mov	r0, r6
	ldr	r3, [r3, #8]
	blx	r3
	mcr	p15, 0, r0, c7, c10, 5
	ldr	r2, [r6, #32]
	sub	r3, r2, #1
	str	r3, [r6, #32]
.L263:
	cmp	r2, #1
	bne	.L258
	ldr	r3, [r6]
	mov	r0, r6
	ldr	r3, [r3, #12]
	blx	r3
	b	.L258
.L277:
	ldr	r3, [r6]
	mov	r0, r6
	ldr	r3, [r3, #8]
	blx	r3
	add	r3, r6, #32
	mcr	p15, 0, r0, c7, c10, 5
	mcr	p15, 0, r0, c7, c10, 5
.L271:
	ldrex	r2, [r3]
	sub	r1, r2, #1
	strex	r0, r1, [r3]
	cmp	r0, #0
	bne	.L271
	mcr	p15, 0, r0, c7, c10, 5
	b	.L263
.L279:
	.align	2
.L278:
	.word	_GLOBAL_OFFSET_TABLE_-(.LPIC35+8)
	.word	_ZL28__gthrw___pthread_key_createPjPFvPvE(GOT)
	.word	.LANCHOR0-(.LPIC34+8)
	.fnend
	.size	_ZNSt14_Function_base13_Base_managerIZN7openpal8TimerRef5StartIZN8asiodnp311LinkSession5StartEvEUlvE_EEbRKNS1_12TimeDurationERKT_EUlvE_E10_M_managerERSt9_Any_dataRKSF_St18_Manager_operation, .-_ZNSt14_Function_base13_Base_managerIZN7openpal8TimerRef5StartIZN8asiodnp311LinkSession5StartEvEUlvE_EEbRKNS1_12TimeDurationERKT_EUlvE_E10_M_managerERSt9_Any_dataRKSF_St18_Manager_operation
	.align	2
	.syntax unified
	.arm
	.fpu vfp
	.type	_ZNSt14_Function_base13_Base_managerIZN8asiodnp311LinkSession8ShutdownEvEUlvE_E10_M_managerERSt9_Any_dataRKS5_St18_Manager_operation, %function
_ZNSt14_Function_base13_Base_managerIZN8asiodnp311LinkSession8ShutdownEvEUlvE_E10_M_managerERSt9_Any_dataRKS5_St18_Manager_operation:
	.fnstart
.LFB9014:
	@ args = 0, pretend = 0, frame = 0
	@ frame_needed = 0, uses_anonymous_args = 0
	push	{r4, r5, r6, lr}
	.save {r4, r5, r6, lr}
	mov	r5, r0
	ldr	r4, .L310
.LPIC37:
	add	r4, pc, r4
	cmp	r2, #3
	addls	pc, pc, r2, asl #2
	b	.L300
.L283:
	b	.L282
	b	.L284
	b	.L285
	b	.L286
	.p2align 1
.L286:
	ldr	r5, [r0]
	cmp	r5, #0
	beq	.L300
	ldr	r6, [r5, #4]
	cmp	r6, #0
	beq	.L290
	ldr	r3, .L310+4
	ldr	r3, [r4, r3]
	cmp	r3, #0
	beq	.L291
	add	r3, r6, #28
	mcr	p15, 0, r0, c7, c10, 5
.L304:
	ldrex	r2, [r3]
	sub	r1, r2, #1
	strex	r0, r1, [r3]
	cmp	r0, #0
	bne	.L304
	cmp	r2, #1
	mcr	p15, 0, r0, c7, c10, 5
	beq	.L309
.L290:
	mov	r0, r5
	mov	r1, #8
	bl	_ZdlPvj(PLT)
.L300:
	mov	r0, #0
	pop	{r4, r5, r6, pc}
.L285:
	mov	r0, #8
	ldr	r6, [r1]
	bl	_Znwj(PLT)
	ldm	r6, {r2, r3}
	cmp	r3, #0
	stm	r0, {r2, r3}
	beq	.L287
	ldr	r2, .L310+4
	ldr	r2, [r4, r2]
	cmp	r2, #0
	beq	.L288
	add	r3, r3, #28
	mcr	p15, 0, r0, c7, c10, 5
.L305:
	ldrex	r2, [r3]
	add	r2, r2, #1
	strex	r1, r2, [r3]
	cmp	r1, #0
	bne	.L305
	mcr	p15, 0, r0, c7, c10, 5
.L287:
	str	r0, [r5]
	mov	r0, #0
	pop	{r4, r5, r6, pc}
.L284:
	ldr	r3, [r1]
	str	r3, [r0]
	mov	r0, #0
	pop	{r4, r5, r6, pc}
.L282:
	ldr	r3, .L310+8
.LPIC36:
	add	r3, pc, r3
	add	r3, r3, #8
	str	r3, [r0]
	mov	r0, #0
	pop	{r4, r5, r6, pc}
.L288:
	ldr	r2, [r3, #28]
	add	r2, r2, #1
	str	r2, [r3, #28]
	b	.L287
.L291:
	ldr	r3, [r6, #28]
	cmp	r3, #1
	sub	r3, r3, #1
	str	r3, [r6, #28]
	bne	.L290
	ldr	r3, [r6]
	mov	r0, r6
	ldr	r3, [r3, #8]
	blx	r3
	mcr	p15, 0, r0, c7, c10, 5
	ldr	r2, [r6, #32]
	sub	r3, r2, #1
	str	r3, [r6, #32]
.L295:
	cmp	r2, #1
	bne	.L290
	ldr	r3, [r6]
	mov	r0, r6
	ldr	r3, [r3, #12]
	blx	r3
	b	.L290
.L309:
	ldr	r3, [r6]
	mov	r0, r6
	ldr	r3, [r3, #8]
	blx	r3
	add	r3, r6, #32
	mcr	p15, 0, r0, c7, c10, 5
	mcr	p15, 0, r0, c7, c10, 5
.L303:
	ldrex	r2, [r3]
	sub	r1, r2, #1
	strex	r0, r1, [r3]
	cmp	r0, #0
	bne	.L303
	mcr	p15, 0, r0, c7, c10, 5
	b	.L295
.L311:
	.align	2
.L310:
	.word	_GLOBAL_OFFSET_TABLE_-(.LPIC37+8)
	.word	_ZL28__gthrw___pthread_key_createPjPFvPvE(GOT)
	.word	.LANCHOR0-(.LPIC36+8)
	.fnend
	.size	_ZNSt14_Function_base13_Base_managerIZN8asiodnp311LinkSession8ShutdownEvEUlvE_E10_M_managerERSt9_Any_dataRKS5_St18_Manager_operation, .-_ZNSt14_Function_base13_Base_managerIZN8asiodnp311LinkSession8ShutdownEvEUlvE_E10_M_managerERSt9_Any_dataRKS5_St18_Manager_operation
	.section	.text._ZN8asiodnp311LinkSessionD0Ev,"axG",%progbits,_ZN8asiodnp311LinkSessionD5Ev,comdat
	.align	2
	.weak	_ZN8asiodnp311LinkSessionD0Ev
	.syntax unified
	.arm
	.fpu vfp
	.type	_ZN8asiodnp311LinkSessionD0Ev, %function
_ZN8asiodnp311LinkSessionD0Ev:
	.fnstart
.LFB10014:
	@ args = 0, pretend = 0, frame = 0
	@ frame_needed = 0, uses_anonymous_args = 0
	push	{r4, r5, r6, lr}
	mov	r4, r0
	ldr	r5, .L418
	ldr	r3, .L418+4
.LPIC38:
	add	r5, pc, r5
	ldr	r6, [r0, #472]
	ldr	r3, [r5, r3]
	cmp	r6, #0
	add	r0, r3, #48
	add	r1, r3, #72
	add	ip, r3, #8
	add	r2, r3, #92
	add	r3, r3, #112
	str	ip, [r4]
	stmib	r4, {r0, r1}
	str	r2, [r4, #20]
	str	r3, [r4, #24]
	beq	.L314
	ldr	r3, .L418+8
	ldr	r3, [r5, r3]
	cmp	r3, #0
	beq	.L315
	add	r3, r6, #28
	mcr	p15, 0, r0, c7, c10, 5
.L391:
	ldrex	r2, [r3]
	sub	r1, r2, #1
	strex	r0, r1, [r3]
	cmp	r0, #0
	bne	.L391
	cmp	r2, #1
	mcr	p15, 0, r0, c7, c10, 5
	beq	.L409
.L314:
	add	r0, r4, #456
	bl	_ZN7openpal8TimerRefD1Ev(PLT)
	ldr	r6, [r4, #92]
	cmp	r6, #0
	beq	.L320
	ldr	r3, .L418+8
	ldr	r3, [r5, r3]
	cmp	r3, #0
	beq	.L321
	add	r3, r6, #28
	mcr	p15, 0, r0, c7, c10, 5
.L390:
	ldrex	r2, [r3]
	sub	r1, r2, #1
	strex	r0, r1, [r3]
	cmp	r0, #0
	bne	.L390
	cmp	r2, #1
	mcr	p15, 0, r0, c7, c10, 5
	beq	.L410
.L320:
	ldr	r6, [r4, #84]
	cmp	r6, #0
	beq	.L326
	ldr	r3, .L418+8
	ldr	r3, [r5, r3]
	cmp	r3, #0
	beq	.L327
	add	r3, r6, #28
	mcr	p15, 0, r0, c7, c10, 5
.L389:
	ldrex	r2, [r3]
	sub	r1, r2, #1
	strex	r0, r1, [r3]
	cmp	r0, #0
	bne	.L389
	cmp	r2, #1
	mcr	p15, 0, r0, c7, c10, 5
	beq	.L411
.L326:
	ldr	r6, [r4, #76]
	cmp	r6, #0
	beq	.L332
	ldr	r3, .L418+8
	ldr	r3, [r5, r3]
	cmp	r3, #0
	beq	.L333
	add	r3, r6, #28
	mcr	p15, 0, r0, c7, c10, 5
.L388:
	ldrex	r2, [r3]
	sub	r1, r2, #1
	strex	r0, r1, [r3]
	cmp	r0, #0
	bne	.L388
	cmp	r2, #1
	mcr	p15, 0, r0, c7, c10, 5
	beq	.L412
.L332:
	ldr	r6, [r4, #68]
	cmp	r6, #0
	beq	.L338
	ldr	r3, .L418+8
	ldr	r3, [r5, r3]
	cmp	r3, #0
	beq	.L339
	add	r3, r6, #28
	mcr	p15, 0, r0, c7, c10, 5
.L387:
	ldrex	r2, [r3]
	sub	r1, r2, #1
	strex	r0, r1, [r3]
	cmp	r0, #0
	bne	.L387
	cmp	r2, #1
	mcr	p15, 0, r0, c7, c10, 5
	beq	.L413
.L338:
	ldr	r6, [r4, #60]
	cmp	r6, #0
	beq	.L344
	ldr	r3, .L418+8
	ldr	r3, [r5, r3]
	cmp	r3, #0
	beq	.L345
	add	r3, r6, #28
	mcr	p15, 0, r0, c7, c10, 5
.L386:
	ldrex	r2, [r3]
	sub	r1, r2, #1
	strex	r0, r1, [r3]
	cmp	r0, #0
	bne	.L386
	cmp	r2, #1
	mcr	p15, 0, r0, c7, c10, 5
	beq	.L414
.L344:
	ldr	r6, [r4, #44]
	cmp	r6, #0
	beq	.L350
	ldr	r3, .L418+8
	ldr	r3, [r5, r3]
	cmp	r3, #0
	beq	.L351
	add	r3, r6, #28
	mcr	p15, 0, r0, c7, c10, 5
.L385:
	ldrex	r2, [r3]
	sub	r1, r2, #1
	strex	r0, r1, [r3]
	cmp	r0, #0
	bne	.L385
	cmp	r2, #1
	mcr	p15, 0, r0, c7, c10, 5
	beq	.L415
.L350:
	ldr	r6, [r4, #36]
	cmp	r6, #0
	beq	.L356
	ldr	r3, .L418+8
	ldr	r3, [r5, r3]
	cmp	r3, #0
	beq	.L357
	add	r3, r6, #28
	mcr	p15, 0, r0, c7, c10, 5
.L384:
	ldrex	r2, [r3]
	sub	r1, r2, #1
	strex	r0, r1, [r3]
	cmp	r0, #0
	bne	.L384
	cmp	r2, #1
	mcr	p15, 0, r0, c7, c10, 5
	beq	.L416
.L356:
	ldr	r0, [r4, #16]
	cmp	r0, #0
	beq	.L362
	ldr	r3, .L418+8
	ldr	r3, [r5, r3]
	cmp	r3, #0
	beq	.L363
	add	r3, r0, #32
	mcr	p15, 0, r0, c7, c10, 5
.L383:
	ldrex	r2, [r3]
	sub	r1, r2, #1
	strex	ip, r1, [r3]
	cmp	ip, #0
	bne	.L383
	cmp	r2, #1
	mcr	p15, 0, r0, c7, c10, 5
	beq	.L417
.L362:
	mov	r0, r4
	mov	r1, #480
	bl	_ZdlPvj(PLT)
	mov	r0, r4
	pop	{r4, r5, r6, pc}
.L333:
	ldr	r3, [r6, #28]
	cmp	r3, #1
	sub	r3, r3, #1
	str	r3, [r6, #28]
	bne	.L332
	ldr	r3, [r6]
	mov	r0, r6
	ldr	r3, [r3, #8]
	blx	r3
	mcr	p15, 0, r0, c7, c10, 5
	ldr	r2, [r6, #32]
	sub	r3, r2, #1
	str	r3, [r6, #32]
	b	.L369
.L321:
	ldr	r3, [r6, #28]
	cmp	r3, #1
	sub	r3, r3, #1
	str	r3, [r6, #28]
	bne	.L320
	ldr	r3, [r6]
	mov	r0, r6
	ldr	r3, [r3, #8]
	blx	r3
	mcr	p15, 0, r0, c7, c10, 5
	ldr	r2, [r6, #32]
	sub	r3, r2, #1
	str	r3, [r6, #32]
	b	.L367
.L315:
	ldr	r3, [r6, #28]
	cmp	r3, #1
	sub	r3, r3, #1
	str	r3, [r6, #28]
	bne	.L314
	ldr	r3, [r6]
	mov	r0, r6
	ldr	r3, [r3, #8]
	blx	r3
	mcr	p15, 0, r0, c7, c10, 5
	ldr	r2, [r6, #32]
	sub	r3, r2, #1
	str	r3, [r6, #32]
	b	.L366
.L345:
	ldr	r3, [r6, #28]
	cmp	r3, #1
	sub	r3, r3, #1
	str	r3, [r6, #28]
	bne	.L344
	ldr	r3, [r6]
	mov	r0, r6
	ldr	r3, [r3, #8]
	blx	r3
	mcr	p15, 0, r0, c7, c10, 5
	ldr	r2, [r6, #32]
	sub	r3, r2, #1
	str	r3, [r6, #32]
	b	.L371
.L339:
	ldr	r3, [r6, #28]
	cmp	r3, #1
	sub	r3, r3, #1
	str	r3, [r6, #28]
	bne	.L338
	ldr	r3, [r6]
	mov	r0, r6
	ldr	r3, [r3, #8]
	blx	r3
	mcr	p15, 0, r0, c7, c10, 5
	ldr	r2, [r6, #32]
	sub	r3, r2, #1
	str	r3, [r6, #32]
	b	.L370
.L351:
	ldr	r3, [r6, #28]
	cmp	r3, #1
	sub	r3, r3, #1
	str	r3, [r6, #28]
	bne	.L350
	ldr	r3, [r6]
	mov	r0, r6
	ldr	r3, [r3, #8]
	blx	r3
	mcr	p15, 0, r0, c7, c10, 5
	ldr	r2, [r6, #32]
	sub	r3, r2, #1
	str	r3, [r6, #32]
	b	.L372
.L327:
	ldr	r3, [r6, #28]
	cmp	r3, #1
	sub	r3, r3, #1
	str	r3, [r6, #28]
	bne	.L326
	ldr	r3, [r6]
	mov	r0, r6
	ldr	r3, [r3, #8]
	blx	r3
	mcr	p15, 0, r0, c7, c10, 5
	ldr	r2, [r6, #32]
	sub	r3, r2, #1
	str	r3, [r6, #32]
	b	.L368
.L363:
	ldr	r2, [r0, #32]
	sub	r3, r2, #1
	cmp	r2, #1
	str	r3, [r0, #32]
	bne	.L362
.L417:
	mcr	p15, 0, r0, c7, c10, 5
	ldr	r3, [r0]
	ldr	r3, [r3, #12]
	blx	r3
	b	.L362
.L357:
	ldr	r3, [r6, #28]
	cmp	r3, #1
	sub	r3, r3, #1
	str	r3, [r6, #28]
	bne	.L356
	ldr	r3, [r6]
	mov	r0, r6
	ldr	r3, [r3, #8]
	blx	r3
	mcr	p15, 0, r0, c7, c10, 5
	ldr	r2, [r6, #32]
	sub	r3, r2, #1
	str	r3, [r6, #32]
	b	.L373
.L411:
	ldr	r3, [r6]
	mov	r0, r6
	ldr	r3, [r3, #8]
	blx	r3
	add	r3, r6, #32
	mcr	p15, 0, r0, c7, c10, 5
	mcr	p15, 0, r0, c7, c10, 5
.L380:
	ldrex	r2, [r3]
	sub	r1, r2, #1
	strex	r0, r1, [r3]
	cmp	r0, #0
	bne	.L380
	mcr	p15, 0, r0, c7, c10, 5
.L368:
	cmp	r2, #1
	bne	.L326
	ldr	r3, [r6]
	mov	r0, r6
	ldr	r3, [r3, #12]
	blx	r3
	b	.L326
.L416:
	ldr	r3, [r6]
	mov	r0, r6
	ldr	r3, [r3, #8]
	blx	r3
	add	r3, r6, #32
	mcr	p15, 0, r0, c7, c10, 5
	mcr	p15, 0, r0, c7, c10, 5
.L375:
	ldrex	r2, [r3]
	sub	r1, r2, #1
	strex	r0, r1, [r3]
	cmp	r0, #0
	bne	.L375
	mcr	p15, 0, r0, c7, c10, 5
.L373:
	cmp	r2, #1
	bne	.L356
	ldr	r3, [r6]
	mov	r0, r6
	ldr	r3, [r3, #12]
	blx	r3
	b	.L356
.L413:
	ldr	r3, [r6]
	mov	r0, r6
	ldr	r3, [r3, #8]
	blx	r3
	add	r3, r6, #32
	mcr	p15, 0, r0, c7, c10, 5
	mcr	p15, 0, r0, c7, c10, 5
.L378:
	ldrex	r2, [r3]
	sub	r1, r2, #1
	strex	r0, r1, [r3]
	cmp	r0, #0
	bne	.L378
	mcr	p15, 0, r0, c7, c10, 5
.L370:
	cmp	r2, #1
	bne	.L338
	ldr	r3, [r6]
	mov	r0, r6
	ldr	r3, [r3, #12]
	blx	r3
	b	.L338
.L412:
	ldr	r3, [r6]
	mov	r0, r6
	ldr	r3, [r3, #8]
	blx	r3
	add	r3, r6, #32
	mcr	p15, 0, r0, c7, c10, 5
	mcr	p15, 0, r0, c7, c10, 5
.L379:
	ldrex	r2, [r3]
	sub	r1, r2, #1
	strex	r0, r1, [r3]
	cmp	r0, #0
	bne	.L379
	mcr	p15, 0, r0, c7, c10, 5
.L369:
	cmp	r2, #1
	bne	.L332
	ldr	r3, [r6]
	mov	r0, r6
	ldr	r3, [r3, #12]
	blx	r3
	b	.L332
.L414:
	ldr	r3, [r6]
	mov	r0, r6
	ldr	r3, [r3, #8]
	blx	r3
	add	r3, r6, #32
	mcr	p15, 0, r0, c7, c10, 5
	mcr	p15, 0, r0, c7, c10, 5
.L377:
	ldrex	r2, [r3]
	sub	r1, r2, #1
	strex	r0, r1, [r3]
	cmp	r0, #0
	bne	.L377
	mcr	p15, 0, r0, c7, c10, 5
.L371:
	cmp	r2, #1
	bne	.L344
	ldr	r3, [r6]
	mov	r0, r6
	ldr	r3, [r3, #12]
	blx	r3
	b	.L344
.L415:
	ldr	r3, [r6]
	mov	r0, r6
	ldr	r3, [r3, #8]
	blx	r3
	add	r3, r6, #32
	mcr	p15, 0, r0, c7, c10, 5
	mcr	p15, 0, r0, c7, c10, 5
.L376:
	ldrex	r2, [r3]
	sub	r1, r2, #1
	strex	r0, r1, [r3]
	cmp	r0, #0
	bne	.L376
	mcr	p15, 0, r0, c7, c10, 5
.L372:
	cmp	r2, #1
	bne	.L350
	ldr	r3, [r6]
	mov	r0, r6
	ldr	r3, [r3, #12]
	blx	r3
	b	.L350
.L409:
	ldr	r3, [r6]
	mov	r0, r6
	ldr	r3, [r3, #8]
	blx	r3
	add	r3, r6, #32
	mcr	p15, 0, r0, c7, c10, 5
	mcr	p15, 0, r0, c7, c10, 5
.L382:
	ldrex	r2, [r3]
	sub	r1, r2, #1
	strex	r0, r1, [r3]
	cmp	r0, #0
	bne	.L382
	mcr	p15, 0, r0, c7, c10, 5
.L366:
	cmp	r2, #1
	bne	.L314
	ldr	r3, [r6]
	mov	r0, r6
	ldr	r3, [r3, #12]
	blx	r3
	b	.L314
.L410:
	ldr	r3, [r6]
	mov	r0, r6
	ldr	r3, [r3, #8]
	blx	r3
	add	r3, r6, #32
	mcr	p15, 0, r0, c7, c10, 5
	mcr	p15, 0, r0, c7, c10, 5
.L381:
	ldrex	r2, [r3]
	sub	r1, r2, #1
	strex	r0, r1, [r3]
	cmp	r0, #0
	bne	.L381
	mcr	p15, 0, r0, c7, c10, 5
.L367:
	cmp	r2, #1
	bne	.L320
	ldr	r3, [r6]
	mov	r0, r6
	ldr	r3, [r3, #12]
	blx	r3
	b	.L320
.L419:
	.align	2
.L418:
	.word	_GLOBAL_OFFSET_TABLE_-(.LPIC38+8)
	.word	_ZTVN8asiodnp311LinkSessionE(GOT)
	.word	_ZL28__gthrw___pthread_key_createPjPFvPvE(GOT)
	.cantunwind
	.fnend
	.size	_ZN8asiodnp311LinkSessionD0Ev, .-_ZN8asiodnp311LinkSessionD0Ev
	.set	.LTHUNK14,_ZN8asiodnp311LinkSessionD0Ev
	.align	2
	.weak	_ZThn4_N8asiodnp311LinkSessionD0Ev
	.syntax unified
	.arm
	.fpu vfp
	.type	_ZThn4_N8asiodnp311LinkSessionD0Ev, %function
_ZThn4_N8asiodnp311LinkSessionD0Ev:
	.fnstart
.LFB10327:
	@ args = 0, pretend = 0, frame = 0
	@ frame_needed = 0, uses_anonymous_args = 0
	sub	r0, r0, #4
	b	.LTHUNK14(PLT)
	.cantunwind
	.fnend
	.size	_ZThn4_N8asiodnp311LinkSessionD0Ev, .-_ZThn4_N8asiodnp311LinkSessionD0Ev
	.set	.LTHUNK13,_ZN8asiodnp311LinkSessionD0Ev
	.align	2
	.weak	_ZThn8_N8asiodnp311LinkSessionD0Ev
	.syntax unified
	.arm
	.fpu vfp
	.type	_ZThn8_N8asiodnp311LinkSessionD0Ev, %function
_ZThn8_N8asiodnp311LinkSessionD0Ev:
	.fnstart
.LFB10328:
	@ args = 0, pretend = 0, frame = 0
	@ frame_needed = 0, uses_anonymous_args = 0
	sub	r0, r0, #8
	b	.LTHUNK13(PLT)
	.cantunwind
	.fnend
	.size	_ZThn8_N8asiodnp311LinkSessionD0Ev, .-_ZThn8_N8asiodnp311LinkSessionD0Ev
	.set	.LTHUNK12,_ZN8asiodnp311LinkSessionD0Ev
	.align	2
	.weak	_ZThn20_N8asiodnp311LinkSessionD0Ev
	.syntax unified
	.arm
	.fpu vfp
	.type	_ZThn20_N8asiodnp311LinkSessionD0Ev, %function
_ZThn20_N8asiodnp311LinkSessionD0Ev:
	.fnstart
.LFB10329:
	@ args = 0, pretend = 0, frame = 0
	@ frame_needed = 0, uses_anonymous_args = 0
	sub	r0, r0, #20
	b	.LTHUNK12(PLT)
	.cantunwind
	.fnend
	.size	_ZThn20_N8asiodnp311LinkSessionD0Ev, .-_ZThn20_N8asiodnp311LinkSessionD0Ev
	.set	.LTHUNK11,_ZN8asiodnp311LinkSessionD0Ev
	.align	2
	.weak	_ZThn24_N8asiodnp311LinkSessionD0Ev
	.syntax unified
	.arm
	.fpu vfp
	.type	_ZThn24_N8asiodnp311LinkSessionD0Ev, %function
_ZThn24_N8asiodnp311LinkSessionD0Ev:
	.fnstart
.LFB10330:
	@ args = 0, pretend = 0, frame = 0
	@ frame_needed = 0, uses_anonymous_args = 0
	sub	r0, r0, #24
	b	.LTHUNK11(PLT)
	.cantunwind
	.fnend
	.size	_ZThn24_N8asiodnp311LinkSessionD0Ev, .-_ZThn24_N8asiodnp311LinkSessionD0Ev
	.section	.text._ZN9__gnu_cxx13__scoped_lockD2Ev,"axG",%progbits,_ZN9__gnu_cxx13__scoped_lockD5Ev,comdat
	.align	2
	.weak	_ZN9__gnu_cxx13__scoped_lockD2Ev
	.syntax unified
	.arm
	.fpu vfp
	.type	_ZN9__gnu_cxx13__scoped_lockD2Ev, %function
_ZN9__gnu_cxx13__scoped_lockD2Ev:
	.fnstart
.LFB614:
	@ args = 0, pretend = 0, frame = 0
	@ frame_needed = 0, uses_anonymous_args = 0
	push	{r4, r5, r6, lr}
	.save {r4, r5, r6, lr}
	mov	r5, r0
	ldr	r4, .L434
	ldr	r3, .L434+4
.LPIC39:
	add	r4, pc, r4
	ldr	r3, [r4, r3]
	cmp	r3, #0
	beq	.L427
	ldr	r0, [r0]
	bl	_ZL28__gthrw_pthread_mutex_unlockP15pthread_mutex_t(PLT)
	cmp	r0, #0
	bne	.L433
.L427:
	mov	r0, r5
	pop	{r4, r5, r6, pc}
.L433:
	mov	r0, #4
	bl	__cxa_allocate_exception(PLT)
	ldr	r1, .L434+8
	ldr	r2, .L434+12
	ldr	r3, .L434+16
	ldr	r1, [r4, r1]
	add	r1, r1, #8
	str	r1, [r0]
	ldr	r2, [r4, r2]
	ldr	r1, [r4, r3]
.LEHB0:
	bl	__cxa_throw(PLT)
.LEHE0:
.L424:
	cmn	r1, #1
	beq	.L423
.LEHB1:
	bl	__cxa_end_cleanup(PLT)
.L423:
	bl	__cxa_call_unexpected(PLT)
.LEHE1:
.L435:
	.align	2
.L434:
	.word	_GLOBAL_OFFSET_TABLE_-(.LPIC39+8)
	.word	_ZL28__gthrw___pthread_key_createPjPFvPvE(GOT)
	.word	_ZTVN9__gnu_cxx26__concurrence_unlock_errorE(GOT)
	.word	_ZN9__gnu_cxx26__concurrence_unlock_errorD1Ev(GOT)
	.word	_ZTIN9__gnu_cxx26__concurrence_unlock_errorE(GOT)
	.global	__gxx_personality_v0
	.personality	__gxx_personality_v0
	.handlerdata
	.align	2
.LLSDA614:
	.byte	0xff
	.byte	0x90
	.uleb128 .LLSDATT614-.LLSDATTD614
.LLSDATTD614:
	.byte	0x1
	.uleb128 .LLSDACSE614-.LLSDACSB614
.LLSDACSB614:
	.uleb128 .LEHB0-.LFB614
	.uleb128 .LEHE0-.LEHB0
	.uleb128 .L424-.LFB614
	.uleb128 0x1
	.uleb128 .LEHB1-.LFB614
	.uleb128 .LEHE1-.LEHB1
	.uleb128 0
	.uleb128 0
.LLSDACSE614:
	.byte	0x7f
	.byte	0
	.align	2
.LLSDATT614:
	.word	0
	.section	.text._ZN9__gnu_cxx13__scoped_lockD2Ev,"axG",%progbits,_ZN9__gnu_cxx13__scoped_lockD5Ev,comdat
	.fnend
	.size	_ZN9__gnu_cxx13__scoped_lockD2Ev, .-_ZN9__gnu_cxx13__scoped_lockD2Ev
	.weak	_ZN9__gnu_cxx13__scoped_lockD1Ev
	.set	_ZN9__gnu_cxx13__scoped_lockD1Ev,_ZN9__gnu_cxx13__scoped_lockD2Ev
	.section	.text._ZSt20__throw_bad_weak_ptrv,"axG",%progbits,_ZSt20__throw_bad_weak_ptrv,comdat
	.align	2
	.weak	_ZSt20__throw_bad_weak_ptrv
	.syntax unified
	.arm
	.fpu vfp
	.type	_ZSt20__throw_bad_weak_ptrv, %function
_ZSt20__throw_bad_weak_ptrv:
	.fnstart
.LFB1566:
	@ args = 0, pretend = 0, frame = 0
	@ frame_needed = 0, uses_anonymous_args = 0
	push	{r4, lr}
	.save {r4, lr}
	mov	r0, #4
	bl	__cxa_allocate_exception(PLT)
	ldr	r3, .L438
	ldr	ip, .L438+4
.LPIC40:
	add	r3, pc, r3
	ldr	r2, .L438+8
	ldr	ip, [r3, ip]
	ldr	r1, .L438+12
	add	ip, ip, #8
	str	ip, [r0]
	ldr	r2, [r3, r2]
	ldr	r1, [r3, r1]
	bl	__cxa_throw(PLT)
.L439:
	.align	2
.L438:
	.word	_GLOBAL_OFFSET_TABLE_-(.LPIC40+8)
	.word	_ZTVSt12bad_weak_ptr(GOT)
	.word	_ZNSt12bad_weak_ptrD1Ev(GOT)
	.word	_ZTISt12bad_weak_ptr(GOT)
	.fnend
	.size	_ZSt20__throw_bad_weak_ptrv, .-_ZSt20__throw_bad_weak_ptrv
	.section	.text._ZN7openpal6LoggerD2Ev,"axG",%progbits,_ZN7openpal6LoggerD5Ev,comdat
	.align	2
	.weak	_ZN7openpal6LoggerD2Ev
	.syntax unified
	.arm
	.fpu vfp
	.type	_ZN7openpal6LoggerD2Ev, %function
_ZN7openpal6LoggerD2Ev:
	.fnstart
.LFB1980:
	@ args = 0, pretend = 0, frame = 0
	@ frame_needed = 0, uses_anonymous_args = 0
	push	{r4, r5, r6, lr}
	mov	r4, r0
	ldr	r5, [r0, #12]
	ldr	r6, .L467
	cmp	r5, #0
.LPIC41:
	add	r6, pc, r6
	beq	.L442
	ldr	r3, .L467+4
	ldr	r3, [r6, r3]
	cmp	r3, #0
	beq	.L443
	add	r3, r5, #28
	mcr	p15, 0, r0, c7, c10, 5
.L459:
	ldrex	r2, [r3]
	sub	r1, r2, #1
	strex	r0, r1, [r3]
	cmp	r0, #0
	bne	.L459
	cmp	r2, #1
	mcr	p15, 0, r0, c7, c10, 5
	beq	.L465
.L442:
	ldr	r5, [r4, #4]
	cmp	r5, #0
	beq	.L455
	ldr	r3, .L467+4
	ldr	r3, [r6, r3]
	cmp	r3, #0
	beq	.L449
	add	r3, r5, #28
	mcr	p15, 0, r0, c7, c10, 5
.L458:
	ldrex	r2, [r3]
	sub	r1, r2, #1
	strex	r0, r1, [r3]
	cmp	r0, #0
	bne	.L458
	cmp	r2, #1
	mcr	p15, 0, r0, c7, c10, 5
	beq	.L466
.L455:
	mov	r0, r4
	pop	{r4, r5, r6, pc}
.L443:
	ldr	r3, [r5, #28]
	cmp	r3, #1
	sub	r3, r3, #1
	str	r3, [r5, #28]
	bne	.L442
	ldr	r3, [r5]
	mov	r0, r5
	ldr	r3, [r3, #8]
	blx	r3
	mcr	p15, 0, r0, c7, c10, 5
	ldr	r2, [r5, #32]
	sub	r3, r2, #1
	str	r3, [r5, #32]
	b	.L453
.L449:
	ldr	r3, [r5, #28]
	cmp	r3, #1
	sub	r3, r3, #1
	str	r3, [r5, #28]
	bne	.L455
	ldr	r3, [r5]
	mov	r0, r5
	ldr	r3, [r3, #8]
	blx	r3
	mcr	p15, 0, r0, c7, c10, 5
	ldr	r2, [r5, #32]
	sub	r3, r2, #1
	str	r3, [r5, #32]
	b	.L454
.L466:
	ldr	r3, [r5]
	mov	r0, r5
	ldr	r3, [r3, #8]
	blx	r3
	add	r3, r5, #32
	mcr	p15, 0, r0, c7, c10, 5
	mcr	p15, 0, r0, c7, c10, 5
.L456:
	ldrex	r2, [r3]
	sub	r1, r2, #1
	strex	r0, r1, [r3]
	cmp	r0, #0
	bne	.L456
	mcr	p15, 0, r0, c7, c10, 5
.L454:
	cmp	r2, #1
	bne	.L455
	ldr	r3, [r5]
	mov	r0, r5
	ldr	r3, [r3, #12]
	blx	r3
	b	.L455
.L465:
	ldr	r3, [r5]
	mov	r0, r5
	ldr	r3, [r3, #8]
	blx	r3
	add	r3, r5, #32
	mcr	p15, 0, r0, c7, c10, 5
	mcr	p15, 0, r0, c7, c10, 5
.L457:
	ldrex	r2, [r3]
	sub	r1, r2, #1
	strex	r0, r1, [r3]
	cmp	r0, #0
	bne	.L457
	mcr	p15, 0, r0, c7, c10, 5
.L453:
	cmp	r2, #1
	bne	.L442
	ldr	r3, [r5]
	mov	r0, r5
	ldr	r3, [r3, #12]
	blx	r3
	b	.L442
.L468:
	.align	2
.L467:
	.word	_GLOBAL_OFFSET_TABLE_-(.LPIC41+8)
	.word	_ZL28__gthrw___pthread_key_createPjPFvPvE(GOT)
	.cantunwind
	.fnend
	.size	_ZN7openpal6LoggerD2Ev, .-_ZN7openpal6LoggerD2Ev
	.weak	_ZN7openpal6LoggerD1Ev
	.set	_ZN7openpal6LoggerD1Ev,_ZN7openpal6LoggerD2Ev
	.section	.text._ZNSt12system_errorC2ESt10error_codePKc,"axG",%progbits,_ZNSt12system_errorC5ESt10error_codePKc,comdat
	.align	2
	.weak	_ZNSt12system_errorC2ESt10error_codePKc
	.syntax unified
	.arm
	.fpu vfp
	.type	_ZNSt12system_errorC2ESt10error_codePKc, %function
_ZNSt12system_errorC2ESt10error_codePKc:
	.fnstart
.LFB2142:
	@ args = 0, pretend = 0, frame = 80
	@ frame_needed = 0, uses_anonymous_args = 0
	push	{r4, r5, r6, r7, r8, r9, r10, fp, lr}
	.save {r4, r5, r6, r7, r8, r9, r10, fp, lr}
	.pad #92
	sub	sp, sp, #92
	add	r4, sp, #8
	add	r8, sp, #64
	stm	r4, {r1, r2}
	ldr	r2, [sp, #12]
	mov	r5, r0
	mov	r1, r2
	ldr	ip, [r2]
	mov	r0, r8
	ldr	r2, [sp, #8]
	ldr	r6, [ip, #16]
	mov	r7, r3
.LEHB2:
	blx	r6
.LEHE2:
	mov	r3, #2
	str	r3, [sp]
	ldr	r3, .L488
	mov	r2, #0
	ldr	r9, .L488+4
	mov	r0, r8
	mov	r1, r2
.LPIC42:
	add	r3, pc, r3
.LPIC43:
	add	r9, pc, r9
.LEHB3:
	bl	_ZNSt7__cxx1112basic_stringIcSt11char_traitsIcESaIcEE10_M_replaceEjjPKcj(PLT)
.LEHE3:
	mov	lr, r0
	add	r6, sp, #48
	str	r6, [sp, #40]
	ldr	r3, [lr], #8
	mov	ip, r0
	cmp	r3, lr
	moveq	r10, r6
	ldreq	r0, [lr]	@ unaligned
	ldreq	r1, [lr, #4]	@ unaligned
	ldreq	r2, [lr, #8]	@ unaligned
	ldreq	r3, [lr, #12]	@ unaligned
	ldrne	r2, [ip, #8]
	strne	r3, [sp, #40]
	stmiaeq	r10!, {r0, r1, r2, r3}
	mov	fp, #0
	strne	r2, [sp, #48]
	ldr	r3, [ip, #4]
	strb	fp, [ip, #8]
	str	r3, [sp, #44]
	mov	r0, r7
	str	lr, [ip]
	str	fp, [ip, #4]
	bl	strlen(PLT)
	add	r10, sp, #40
	mov	r3, r7
	mov	r2, fp
	mov	r1, fp
	str	r0, [sp]
	mov	r0, r10
.LEHB4:
	bl	_ZNSt7__cxx1112basic_stringIcSt11char_traitsIcESaIcEE10_M_replaceEjjPKcj(PLT)
.LEHE4:
	mov	lr, r0
	add	r7, sp, #24
	str	r7, [sp, #16]
	ldr	r3, [lr], #8
	mov	ip, r0
	cmp	r3, lr
	moveq	fp, r7
	ldreq	r0, [lr]	@ unaligned
	ldreq	r1, [lr, #4]	@ unaligned
	ldreq	r2, [lr, #8]	@ unaligned
	ldreq	r3, [lr, #12]	@ unaligned
	ldrne	r2, [ip, #8]
	strne	r3, [sp, #16]
	stmiaeq	fp!, {r0, r1, r2, r3}
	mov	r3, #0
	strne	r2, [sp, #24]
	ldr	r2, [ip, #4]
	add	fp, sp, #16
	str	r2, [sp, #20]
	strb	r3, [ip, #8]
	str	lr, [ip]
	str	r3, [ip, #4]
	mov	r1, fp
	mov	r0, r5
.LEHB5:
	bl	_ZNSt13runtime_errorC2ERKNSt7__cxx1112basic_stringIcSt11char_traitsIcESaIcEEE(PLT)
.LEHE5:
	ldr	r0, [sp, #16]
	cmp	r0, r7
	beq	.L474
	bl	_ZdlPv(PLT)
.L474:
	ldr	r0, [sp, #40]
	cmp	r0, r6
	beq	.L475
	bl	_ZdlPv(PLT)
.L475:
	ldr	r0, [sp, #64]
	add	r3, sp, #72
	cmp	r0, r3
	beq	.L476
	bl	_ZdlPv(PLT)
.L476:
	ldr	r2, .L488+8
	ldm	r4, {r0, r1}
	mov	r3, r5
	ldr	r2, [r9, r2]
	add	r2, r2, #8
	str	r2, [r3], #8
	stm	r3, {r0, r1}
	mov	r0, r5
	add	sp, sp, #92
	@ sp needed
	pop	{r4, r5, r6, r7, r8, r9, r10, fp, pc}
.L483:
.L481:
	ldr	r0, [sp, #64]
	add	r8, r8, #8
	cmp	r0, r8
	beq	.L482
	bl	_ZdlPv(PLT)
.L482:
.LEHB6:
	bl	__cxa_end_cleanup(PLT)
.LEHE6:
.L485:
	ldr	r0, [sp, #16]
	add	fp, fp, #8
	cmp	r0, fp
	beq	.L479
	bl	_ZdlPv(PLT)
.L479:
	ldr	r0, [sp, #40]
	add	r10, r10, #8
	cmp	r0, r10
	beq	.L481
	bl	_ZdlPv(PLT)
	b	.L481
.L484:
	b	.L479
.L489:
	.align	2
.L488:
	.word	.LC21-(.LPIC42+8)
	.word	_GLOBAL_OFFSET_TABLE_-(.LPIC43+8)
	.word	_ZTVSt12system_error(GOT)
	.personality	__gxx_personality_v0
	.handlerdata
.LLSDA2142:
	.byte	0xff
	.byte	0xff
	.byte	0x1
	.uleb128 .LLSDACSE2142-.LLSDACSB2142
.LLSDACSB2142:
	.uleb128 .LEHB2-.LFB2142
	.uleb128 .LEHE2-.LEHB2
	.uleb128 0
	.uleb128 0
	.uleb128 .LEHB3-.LFB2142
	.uleb128 .LEHE3-.LEHB3
	.uleb128 .L483-.LFB2142
	.uleb128 0
	.uleb128 .LEHB4-.LFB2142
	.uleb128 .LEHE4-.LEHB4
	.uleb128 .L484-.LFB2142
	.uleb128 0
	.uleb128 .LEHB5-.LFB2142
	.uleb128 .LEHE5-.LEHB5
	.uleb128 .L485-.LFB2142
	.uleb128 0
	.uleb128 .LEHB6-.LFB2142
	.uleb128 .LEHE6-.LEHB6
	.uleb128 0
	.uleb128 0
.LLSDACSE2142:
	.section	.text._ZNSt12system_errorC2ESt10error_codePKc,"axG",%progbits,_ZNSt12system_errorC5ESt10error_codePKc,comdat
	.fnend
	.size	_ZNSt12system_errorC2ESt10error_codePKc, .-_ZNSt12system_errorC2ESt10error_codePKc
	.weak	_ZNSt12system_errorC1ESt10error_codePKc
	.set	_ZNSt12system_errorC1ESt10error_codePKc,_ZNSt12system_errorC2ESt10error_codePKc
	.section	.text._ZN4asio6detail20posix_tss_ptr_createERj,"axG",%progbits,_ZN4asio6detail20posix_tss_ptr_createERj,comdat
	.align	2
	.weak	_ZN4asio6detail20posix_tss_ptr_createERj
	.syntax unified
	.arm
	.fpu vfp
	.type	_ZN4asio6detail20posix_tss_ptr_createERj, %function
_ZN4asio6detail20posix_tss_ptr_createERj:
	.fnstart
.LFB2220:
	@ args = 0, pretend = 0, frame = 24
	@ frame_needed = 0, uses_anonymous_args = 0
	push	{r4, r5, r6, lr}
	.save {r4, r5, r6, lr}
	mov	r1, #0
	.pad #24
	sub	sp, sp, #24
	bl	pthread_key_create(PLT)
	ldr	r4, .L504
	ldr	r3, .L504+4
.LPIC44:
	add	r4, pc, r4
	ldr	r6, [r4, r3]
	ldrb	r3, [r6]	@ zero_extendqisi2
	mcr	p15, 0, r0, c7, c10, 5
	tst	r3, #1
	mov	r5, r0
	beq	.L502
.L501:
	ldr	r3, .L504+8
	ldr	r6, [r4, r3]
.L492:
	cmp	r5, #0
	stm	sp, {r5, r6}
	bne	.L503
	add	sp, sp, #24
	@ sp needed
	pop	{r4, r5, r6, pc}
.L502:
	mov	r0, r6
	bl	__cxa_guard_acquire(PLT)
	cmp	r0, #0
	beq	.L501
	mov	r0, r6
	bl	__cxa_guard_release(PLT)
	ldr	r3, .L504+8
	ldr	r1, .L504+12
	ldr	r2, .L504+16
	ldr	r6, [r4, r3]
.LPIC45:
	add	r2, pc, r2
	ldr	r1, [r4, r1]
	mov	r0, r6
	bl	__aeabi_atexit(PLT)
	b	.L492
.L503:
	ldr	r3, .L504+20
	add	r5, sp, #8
	ldm	sp, {r1, r2}
.LPIC46:
	add	r3, pc, r3
	mov	r0, r5
.LEHB7:
	bl	_ZNSt12system_errorC1ESt10error_codePKc(PLT)
.LEHE7:
	mov	r0, #16
	bl	__cxa_allocate_exception(PLT)
	mov	r1, r5
	mov	r6, r0
	bl	_ZNSt13runtime_errorC2ERKS_(PLT)
	ldr	r3, .L504+24
	add	r2, sp, #24
	ldr	ip, .L504+28
	ldmdb	r2, {r0, r1}
	ldr	lr, [r4, r3]
	ldr	r2, .L504+32
	mov	r3, r6
	add	lr, lr, #8
	str	lr, [r3], #8
	stm	r3, {r0, r1}
	mov	r0, r6
	ldr	r2, [r4, r2]
	ldr	r1, [r4, ip]
.LEHB8:
	bl	__cxa_throw(PLT)
.LEHE8:
.L496:
	mov	r0, r5
	bl	_ZNSt12system_errorD1Ev(PLT)
.LEHB9:
	bl	__cxa_end_cleanup(PLT)
.LEHE9:
.L505:
	.align	2
.L504:
	.word	_GLOBAL_OFFSET_TABLE_-(.LPIC44+8)
	.word	_ZGVZN4asio15system_categoryEvE8instance(GOT)
	.word	_ZZN4asio15system_categoryEvE8instance(GOT)
	.word	_ZN4asio6detail15system_categoryD1Ev(GOT)
	.word	__dso_handle-(.LPIC45+8)
	.word	.LC22-(.LPIC46+8)
	.word	_ZTVSt12system_error(GOT)
	.word	_ZTISt12system_error(GOT)
	.word	_ZNSt12system_errorD1Ev(GOT)
	.personality	__gxx_personality_v0
	.handlerdata
.LLSDA2220:
	.byte	0xff
	.byte	0xff
	.byte	0x1
	.uleb128 .LLSDACSE2220-.LLSDACSB2220
.LLSDACSB2220:
	.uleb128 .LEHB7-.LFB2220
	.uleb128 .LEHE7-.LEHB7
	.uleb128 0
	.uleb128 0
	.uleb128 .LEHB8-.LFB2220
	.uleb128 .LEHE8-.LEHB8
	.uleb128 .L496-.LFB2220
	.uleb128 0
	.uleb128 .LEHB9-.LFB2220
	.uleb128 .LEHE9-.LEHB9
	.uleb128 0
	.uleb128 0
.LLSDACSE2220:
	.section	.text._ZN4asio6detail20posix_tss_ptr_createERj,"axG",%progbits,_ZN4asio6detail20posix_tss_ptr_createERj,comdat
	.fnend
	.size	_ZN4asio6detail20posix_tss_ptr_createERj, .-_ZN4asio6detail20posix_tss_ptr_createERj
	.section	.text._ZN4asio28asio_handler_is_continuationEz,"axG",%progbits,_ZN4asio28asio_handler_is_continuationEz,comdat
	.align	2
	.weak	_ZN4asio28asio_handler_is_continuationEz
	.syntax unified
	.arm
	.fpu vfp
	.type	_ZN4asio28asio_handler_is_continuationEz, %function
_ZN4asio28asio_handler_is_continuationEz:
	.fnstart
.LFB2252:
	@ args = 0, pretend = 0, frame = 0
	@ frame_needed = 0, uses_anonymous_args = 0
	@ link register save eliminated.
	mov	r0, #0
	bx	lr
	.cantunwind
	.fnend
	.size	_ZN4asio28asio_handler_is_continuationEz, .-_ZN4asio28asio_handler_is_continuationEz
	.text
	.align	2
	.global	_ZN8asiodnp311LinkSession13SetLogFiltersEN7openpal10LogFiltersE
	.syntax unified
	.arm
	.fpu vfp
	.type	_ZN8asiodnp311LinkSession13SetLogFiltersEN7openpal10LogFiltersE, %function
_ZN8asiodnp311LinkSession13SetLogFiltersEN7openpal10LogFiltersE:
	.fnstart
.LFB7732:
	@ args = 0, pretend = 0, frame = 0
	@ frame_needed = 0, uses_anonymous_args = 0
	@ link register save eliminated.
	ldr	r3, [r0, #40]
	str	r1, [r3, #24]
	bx	lr
	.cantunwind
	.fnend
	.size	_ZN8asiodnp311LinkSession13SetLogFiltersEN7openpal10LogFiltersE, .-_ZN8asiodnp311LinkSession13SetLogFiltersEN7openpal10LogFiltersE
	.align	2
	.global	_ZN8asiodnp311LinkSession12BeginReceiveEv
	.syntax unified
	.arm
	.fpu vfp
	.type	_ZN8asiodnp311LinkSession12BeginReceiveEv, %function
_ZN8asiodnp311LinkSession12BeginReceiveEv:
	.fnstart
.LFB7755:
	@ args = 0, pretend = 0, frame = 8
	@ frame_needed = 0, uses_anonymous_args = 0
	push	{r4, r5, lr}
	.save {r4, r5, lr}
	mov	r4, r0
	.pad #12
	sub	sp, sp, #12
	add	r1, r0, #80
	mov	r0, sp
	bl	_ZNK8opendnp315LinkLayerParser9WriteBuffEv(PLT)
	ldr	r0, [r4, #72]
	ldr	r3, [r0, #20]
	cmp	r3, #0
	beq	.L508
	ldrb	r3, [r0, #28]	@ zero_extendqisi2
	cmp	r3, #0
	bne	.L508
	ldrb	r3, [r0, #29]	@ zero_extendqisi2
	cmp	r3, #0
	bne	.L508
	ldr	r3, [r0]
	mov	r2, #1
	strb	r2, [r0, #29]
	ldr	r3, [r3, #8]
	ldm	sp, {r1, r2}
	blx	r3
.L508:
	add	sp, sp, #12
	@ sp needed
	pop	{r4, r5, pc}
	.fnend
	.size	_ZN8asiodnp311LinkSession12BeginReceiveEv, .-_ZN8asiodnp311LinkSession12BeginReceiveEv
	.section	.text._ZNSt16_Sp_counted_baseILN9__gnu_cxx12_Lock_policyE1EE10_M_releaseEv,"axG",%progbits,_ZNSt16_Sp_counted_baseILN9__gnu_cxx12_Lock_policyE1EE10_M_releaseEv,comdat
	.align	2
	.weak	_ZNSt16_Sp_counted_baseILN9__gnu_cxx12_Lock_policyE1EE10_M_releaseEv
	.syntax unified
	.arm
	.fpu vfp
	.type	_ZNSt16_Sp_counted_baseILN9__gnu_cxx12_Lock_policyE1EE10_M_releaseEv, %function
_ZNSt16_Sp_counted_baseILN9__gnu_cxx12_Lock_policyE1EE10_M_releaseEv:
	.fnstart
.LFB8721:
	@ args = 0, pretend = 0, frame = 0
	@ frame_needed = 0, uses_anonymous_args = 0
	ldr	r3, .L527
	ldr	r2, .L527+4
.LPIC47:
	add	r3, pc, r3
	push	{r4, r5, r6, lr}
	mov	r4, r0
	ldr	r3, [r3, r2]
	cmp	r3, #0
	beq	.L516
	add	r3, r0, #28
	mcr	p15, 0, r0, c7, c10, 5
.L523:
	ldrex	r2, [r3]
	sub	r1, r2, #1
	strex	ip, r1, [r3]
	cmp	ip, #0
	bne	.L523
	cmp	r2, #1
	mcr	p15, 0, r0, c7, c10, 5
	popne	{r4, r5, r6, pc}
	mov	r5, r4
	ldr	r3, [r5], #32
	ldr	r3, [r3, #8]
	blx	r3
	mcr	p15, 0, r0, c7, c10, 5
	mcr	p15, 0, r0, c7, c10, 5
.L522:
	ldrex	r3, [r5]
	sub	r2, r3, #1
	strex	r1, r2, [r5]
	cmp	r1, #0
	bne	.L522
	mcr	p15, 0, r0, c7, c10, 5
.L521:
	cmp	r3, #1
	popne	{r4, r5, r6, pc}
	ldr	r3, [r4]
	mov	r0, r4
	pop	{r4, r5, r6, lr}
	ldr	r3, [r3, #12]
	bx	r3	@ indirect register sibling call
.L516:
	ldr	r3, [r0, #28]
	cmp	r3, #1
	sub	r3, r3, #1
	str	r3, [r0, #28]
	popne	{r4, r5, r6, pc}
	ldr	r3, [r0]
	ldr	r3, [r3, #8]
	blx	r3
	mcr	p15, 0, r0, c7, c10, 5
	ldr	r3, [r4, #32]
	sub	r2, r3, #1
	str	r2, [r4, #32]
	b	.L521
.L528:
	.align	2
.L527:
	.word	_GLOBAL_OFFSET_TABLE_-(.LPIC47+8)
	.word	_ZL28__gthrw___pthread_key_createPjPFvPvE(GOT)
	.cantunwind
	.fnend
	.size	_ZNSt16_Sp_counted_baseILN9__gnu_cxx12_Lock_policyE1EE10_M_releaseEv, .-_ZNSt16_Sp_counted_baseILN9__gnu_cxx12_Lock_policyE1EE10_M_releaseEv
	.text
	.align	2
	.global	_ZN8asiodnp311LinkSessionC2ERKN7openpal6LoggerEyRKSt10shared_ptrIN7asiopal16IResourceManagerEERKS5_INS_16IListenCallbacksEERKS5_INS6_13IAsyncChannelEE
	.syntax unified
	.arm
	.fpu vfp
	.type	_ZN8asiodnp311LinkSessionC2ERKN7openpal6LoggerEyRKSt10shared_ptrIN7asiopal16IResourceManagerEERKS5_INS_16IListenCallbacksEERKS5_INS6_13IAsyncChannelEE, %function
_ZN8asiodnp311LinkSessionC2ERKN7openpal6LoggerEyRKSt10shared_ptrIN7asiopal16IResourceManagerEERKS5_INS_16IListenCallbacksEERKS5_INS6_13IAsyncChannelEE:
	.fnstart
.LFB7690:
	@ args = 12, pretend = 0, frame = 0
	@ frame_needed = 0, uses_anonymous_args = 0
	push	{r4, r5, r6, r7, r8, r9, r10, lr}
	.save {r4, r5, r6, r7, r8, r9, r10, lr}
	mov	lr, #0
	ldr	r5, .L611
	ldr	r6, .L611+4
.LPIC48:
	add	r5, pc, r5
	str	lr, [r0, #12]
	str	lr, [r0, #16]
	mov	r4, r0
	ldr	ip, [r1, #4]
	ldr	r0, [r5, r6]
	cmp	ip, lr
	ldr	r6, [r1]
	add	r7, r0, #8
	strb	lr, [r4, #28]
	add	lr, r0, #48
	str	r7, [r4]
	str	lr, [r4, #4]
	add	r7, r0, #72
	add	lr, r0, #92
	add	r0, r0, #112
	str	r7, [r4, #8]
	str	lr, [r4, #20]
	str	r6, [r4, #32]
	str	r0, [r4, #24]
	str	ip, [r4, #36]
	ldr	r7, [sp, #32]
	ldr	lr, [sp, #36]
	ldr	r6, [sp, #40]
	beq	.L530
	ldr	r0, .L611+8
	ldr	r0, [r5, r0]
	cmp	r0, #0
	beq	.L531
	add	ip, ip, #28
	mcr	p15, 0, r0, c7, c10, 5
.L603:
	ldrex	r0, [ip]
	add	r0, r0, #1
	strex	r8, r0, [ip]
	cmp	r8, #0
	bne	.L603
	mcr	p15, 0, r0, c7, c10, 5
	ldr	r0, [r1, #12]
	ldr	ip, [r1, #8]
	cmp	r0, #0
	str	ip, [r4, #40]
	str	r0, [r4, #44]
	beq	.L594
.L605:
	add	r0, r0, #28
	mcr	p15, 0, r0, c7, c10, 5
.L602:
	ldrex	ip, [r0]
	add	ip, ip, #1
	strex	r8, ip, [r0]
	cmp	r8, #0
	bne	.L602
	mcr	p15, 0, r0, c7, c10, 5
.L594:
	ldm	r7, {r0, ip}
	strd	r2, [r4, #48]
	cmp	ip, #0
	str	r0, [r4, #56]
	str	ip, [r4, #60]
	beq	.L538
.L561:
	add	ip, ip, #28
	mcr	p15, 0, r0, c7, c10, 5
.L601:
	ldrex	r3, [ip]
	add	r3, r3, #1
	strex	r2, r3, [ip]
	cmp	r2, #0
	bne	.L601
	mcr	p15, 0, r0, c7, c10, 5
	ldr	r2, [lr, #4]
	ldr	r3, [lr]
	cmp	r2, #0
	str	r3, [r4, #64]
	str	r2, [r4, #68]
	beq	.L541
.L606:
	add	r2, r2, #28
	mcr	p15, 0, r0, c7, c10, 5
.L600:
	ldrex	r3, [r2]
	add	r3, r3, #1
	strex	r0, r3, [r2]
	cmp	r0, #0
	bne	.L600
	mcr	p15, 0, r0, c7, c10, 5
	ldm	r6, {r2, r3}
	cmp	r3, #0
	str	r2, [r4, #72]
	str	r3, [r4, #76]
	beq	.L544
.L607:
	add	r3, r3, #28
	mcr	p15, 0, r0, c7, c10, 5
.L599:
	ldrex	r2, [r3]
	add	r2, r2, #1
	strex	r0, r2, [r3]
	cmp	r0, #0
	bne	.L599
	mcr	p15, 0, r0, c7, c10, 5
.L544:
	add	r7, r4, #80
	mov	r0, r7
.LEHB10:
	bl	_ZN8opendnp315LinkLayerParserC1ERKN7openpal6LoggerE(PLT)
.LEHE10:
	ldr	r3, [r6]
	add	r0, r4, #456
	ldr	r1, [r3, #12]
.LEHB11:
	bl	_ZN7openpal8TimerRefC1ERNS_9IExecutorE(PLT)
.LEHE11:
	mov	r3, #0
	str	r3, [r4, #464]	@ unaligned
	str	r3, [r4, #468]
	str	r3, [r4, #472]
	mov	r0, r4
	pop	{r4, r5, r6, r7, r8, r9, r10, pc}
.L531:
	ldr	r8, [ip, #28]
	ldr	r0, [r1, #12]
	add	r8, r8, #1
	str	r8, [ip, #28]
	ldr	ip, [r1, #8]
	cmp	r0, #0
	str	r0, [r4, #44]
	str	ip, [r4, #40]
	beq	.L610
.L534:
	ldm	r7, {r9, ip}
	ldr	r8, [r0, #28]
	cmp	ip, #0
	add	r7, r8, #1
	str	r7, [r0, #28]
	strd	r2, [r4, #48]
	str	r9, [r4, #56]
	str	ip, [r4, #60]
	beq	.L538
.L539:
	ldm	lr, {r0, r2}
	ldr	r3, [ip, #28]
	cmp	r2, #0
	add	r3, r3, #1
	str	r3, [ip, #28]
	str	r0, [r4, #64]
	str	r2, [r4, #68]
	beq	.L541
.L542:
	ldr	r0, [r2, #28]
	ldr	r3, [r6, #4]
	ldr	ip, [r6]
	add	r0, r0, #1
	cmp	r3, #0
	str	r0, [r2, #28]
	str	r3, [r4, #76]
	str	ip, [r4, #72]
	beq	.L544
.L545:
	ldr	r2, [r3, #28]
	add	r2, r2, #1
	str	r2, [r3, #28]
	b	.L544
.L541:
	ldm	r6, {r2, r3}
	cmp	r3, #0
	str	r3, [r4, #76]
	str	r2, [r4, #72]
	beq	.L544
	ldr	r2, .L611+8
	ldr	r2, [r5, r2]
	cmp	r2, #0
	bne	.L607
	b	.L545
.L530:
	ldr	r0, [r1, #12]
	ldr	ip, [r1, #8]
	cmp	r0, #0
	str	r0, [r4, #44]
	str	ip, [r4, #40]
	beq	.L536
	ldr	ip, .L611+8
	ldr	ip, [r5, ip]
	cmp	ip, #0
	bne	.L605
	b	.L534
.L610:
	ldm	r7, {r0, ip}
	strd	r2, [r4, #48]
	cmp	ip, #0
	str	r0, [r4, #56]
	str	ip, [r4, #60]
	bne	.L539
.L538:
	ldr	r2, [lr, #4]
	ldr	r3, [lr]
	cmp	r2, #0
	str	r3, [r4, #64]
	str	r2, [r4, #68]
	beq	.L541
	ldr	r3, .L611+8
	ldr	r3, [r5, r3]
	cmp	r3, #0
	bne	.L606
	b	.L542
.L536:
	ldm	r7, {r0, ip}
	strd	r2, [r4, #48]
	cmp	ip, #0
	str	r0, [r4, #56]
	str	ip, [r4, #60]
	beq	.L538
	ldr	r3, .L611+8
	ldr	r3, [r5, r3]
	cmp	r3, #0
	bne	.L561
	b	.L539
.L563:
	mov	r0, r7
	bl	_ZN7openpal6LoggerD1Ev(PLT)
.L548:
	ldr	r0, [r4, #76]
	cmp	r0, #0
	beq	.L549
	bl	_ZNSt16_Sp_counted_baseILN9__gnu_cxx12_Lock_policyE1EE10_M_releaseEv(PLT)
.L549:
	ldr	r0, [r4, #68]
	cmp	r0, #0
	beq	.L550
	bl	_ZNSt16_Sp_counted_baseILN9__gnu_cxx12_Lock_policyE1EE10_M_releaseEv(PLT)
.L550:
	ldr	r0, [r4, #60]
	cmp	r0, #0
	beq	.L551
	bl	_ZNSt16_Sp_counted_baseILN9__gnu_cxx12_Lock_policyE1EE10_M_releaseEv(PLT)
.L551:
	add	r0, r4, #32
	bl	_ZN7openpal6LoggerD1Ev(PLT)
	ldr	r0, [r4, #16]
	cmp	r0, #0
	beq	.L553
	ldr	r3, .L611+8
	add	r2, r0, #32
	ldr	r3, [r5, r3]
	cmp	r3, #0
	beq	.L554
	mcr	p15, 0, r0, c7, c10, 5
.L598:
	ldrex	r3, [r2]
	sub	r1, r3, #1
	strex	ip, r1, [r2]
	cmp	ip, #0
	bne	.L598
	mcr	p15, 0, r0, c7, c10, 5
.L555:
	cmp	r3, #1
	bne	.L553
	mcr	p15, 0, r0, c7, c10, 5
	ldr	r3, [r0]
	ldr	r3, [r3, #12]
	blx	r3
.L553:
.LEHB12:
	bl	__cxa_end_cleanup(PLT)
.LEHE12:
.L554:
	ldr	r3, [r0, #32]
	sub	r2, r3, #1
	str	r2, [r0, #32]
	b	.L555
.L562:
	b	.L548
.L612:
	.align	2
.L611:
	.word	_GLOBAL_OFFSET_TABLE_-(.LPIC48+8)
	.word	_ZTVN8asiodnp311LinkSessionE(GOT)
	.word	_ZL28__gthrw___pthread_key_createPjPFvPvE(GOT)
	.personality	__gxx_personality_v0
	.handlerdata
.LLSDA7690:
	.byte	0xff
	.byte	0xff
	.byte	0x1
	.uleb128 .LLSDACSE7690-.LLSDACSB7690
.LLSDACSB7690:
	.uleb128 .LEHB10-.LFB7690
	.uleb128 .LEHE10-.LEHB10
	.uleb128 .L562-.LFB7690
	.uleb128 0
	.uleb128 .LEHB11-.LFB7690
	.uleb128 .LEHE11-.LEHB11
	.uleb128 .L563-.LFB7690
	.uleb128 0
	.uleb128 .LEHB12-.LFB7690
	.uleb128 .LEHE12-.LEHB12
	.uleb128 0
	.uleb128 0
.LLSDACSE7690:
	.text
	.fnend
	.size	_ZN8asiodnp311LinkSessionC2ERKN7openpal6LoggerEyRKSt10shared_ptrIN7asiopal16IResourceManagerEERKS5_INS_16IListenCallbacksEERKS5_INS6_13IAsyncChannelEE, .-_ZN8asiodnp311LinkSessionC2ERKN7openpal6LoggerEyRKSt10shared_ptrIN7asiopal16IResourceManagerEERKS5_INS_16IListenCallbacksEERKS5_INS6_13IAsyncChannelEE
	.global	_ZN8asiodnp311LinkSessionC1ERKN7openpal6LoggerEyRKSt10shared_ptrIN7asiopal16IResourceManagerEERKS5_INS_16IListenCallbacksEERKS5_INS6_13IAsyncChannelEE
	.set	_ZN8asiodnp311LinkSessionC1ERKN7openpal6LoggerEyRKSt10shared_ptrIN7asiopal16IResourceManagerEERKS5_INS_16IListenCallbacksEERKS5_INS6_13IAsyncChannelEE,_ZN8asiodnp311LinkSessionC2ERKN7openpal6LoggerEyRKSt10shared_ptrIN7asiopal16IResourceManagerEERKS5_INS_16IListenCallbacksEERKS5_INS6_13IAsyncChannelEE
	.align	2
	.syntax unified
	.arm
	.fpu vfp
	.type	_ZN4asio6detail18completion_handlerIZN8asiodnp311LinkSession12ShutdownImplEvEUlvE_E11do_completeEPNS0_15task_io_serviceEPNS0_25task_io_service_operationERKSt10error_codej, %function
_ZN4asio6detail18completion_handlerIZN8asiodnp311LinkSession12ShutdownImplEvEUlvE_E11do_completeEPNS0_15task_io_serviceEPNS0_25task_io_service_operationERKSt10error_codej:
	.fnstart
.LFB9408:
	@ args = 0, pretend = 0, frame = 16
	@ frame_needed = 0, uses_anonymous_args = 0
	push	{r4, r5, r6, r7, r8, lr}
	.save {r4, r5, r6, r7, r8, lr}
	mov	r8, r0
	ldr	r5, .L663
	ldr	r3, .L663+4
.LPIC49:
	add	r5, pc, r5
	.pad #16
	sub	sp, sp, #16
	ldr	r3, [r5, r3]
	mov	r6, r1
	ldr	r7, [r1, #12]
	ldr	r0, [r3]
	ldr	r4, [r1, #16]
	bl	pthread_getspecific(PLT)
	cmp	r0, #0
	beq	.L614
	ldr	r3, [r0, #4]
	cmp	r3, #0
	beq	.L614
	ldr	r2, [r3]
	cmp	r2, #0
	beq	.L660
.L614:
	mov	r0, r6
	bl	_ZdlPv(PLT)
.L615:
	cmp	r8, #0
	beq	.L617
	add	r3, sp, #16
	mov	r2, #0
	str	r2, [r3, #-12]!
	mov	r2, #1
.L651:
	ldrex	r1, [r3]
	strex	r0, r2, [r3]
	cmp	r0, #0
	bne	.L651
	mcr	p15, 0, r0, c7, c10, 5
	ldr	r0, [r7, #56]
	cmp	r4, #0
	add	r7, r7, #20
	ldr	r3, [r0]
	str	r7, [sp, #8]
	str	r4, [sp, #12]
	ldr	r3, [r3, #8]
	beq	.L619
	ldr	r2, .L663+8
	ldr	r2, [r5, r2]
	cmp	r2, #0
	beq	.L618
	add	r2, r4, #28
	mcr	p15, 0, r0, c7, c10, 5
.L654:
	ldrex	r1, [r2]
	add	r1, r1, #1
	strex	ip, r1, [r2]
	cmp	ip, #0
	bne	.L654
	mcr	p15, 0, r0, c7, c10, 5
.L619:
	add	r1, sp, #8
.LEHB13:
	blx	r3
.LEHE13:
	ldr	r6, [sp, #12]
	cmp	r6, #0
	beq	.L621
	ldr	r3, .L663+8
	ldr	r3, [r5, r3]
	cmp	r3, #0
	beq	.L622
	add	r3, r6, #28
	mcr	p15, 0, r0, c7, c10, 5
.L653:
	ldrex	r2, [r3]
	sub	r1, r2, #1
	strex	r0, r1, [r3]
	cmp	r0, #0
	bne	.L653
	cmp	r2, #1
	mcr	p15, 0, r0, c7, c10, 5
	beq	.L661
.L621:
	mov	r3, #0
	mcr	p15, 0, r0, c7, c10, 5
	str	r3, [sp, #4]
.L617:
	cmp	r4, #0
	beq	.L613
	ldr	r3, .L663+8
	ldr	r3, [r5, r3]
	cmp	r3, #0
	beq	.L632
	add	r3, r4, #28
	mcr	p15, 0, r0, c7, c10, 5
.L652:
	ldrex	r2, [r3]
	sub	r1, r2, #1
	strex	r0, r1, [r3]
	cmp	r0, #0
	bne	.L652
	cmp	r2, #1
	mcr	p15, 0, r0, c7, c10, 5
	beq	.L662
.L613:
	add	sp, sp, #16
	@ sp needed
	pop	{r4, r5, r6, r7, r8, pc}
.L618:
	ldr	r2, [r4, #28]
	add	r2, r2, #1
	str	r2, [r4, #28]
	b	.L619
.L632:
	ldr	r3, [r4, #28]
	cmp	r3, #1
	sub	r3, r3, #1
	str	r3, [r4, #28]
	bne	.L613
	ldr	r3, [r4]
	mov	r0, r4
	ldr	r3, [r3, #8]
	blx	r3
	mcr	p15, 0, r0, c7, c10, 5
	ldr	r2, [r4, #32]
	sub	r3, r2, #1
	str	r3, [r4, #32]
	b	.L638
.L622:
	ldr	r3, [r6, #28]
	cmp	r3, #1
	sub	r3, r3, #1
	str	r3, [r6, #28]
	bne	.L621
	ldr	r3, [r6]
	mov	r0, r6
	ldr	r3, [r3, #8]
	blx	r3
	mcr	p15, 0, r0, c7, c10, 5
	ldr	r2, [r6, #32]
	sub	r3, r2, #1
	str	r3, [r6, #32]
	b	.L637
.L662:
	ldr	r3, [r4]
	mov	r0, r4
	ldr	r3, [r3, #8]
	blx	r3
	add	r3, r4, #32
	mcr	p15, 0, r0, c7, c10, 5
	mcr	p15, 0, r0, c7, c10, 5
.L649:
	ldrex	r2, [r3]
	sub	r1, r2, #1
	strex	r0, r1, [r3]
	cmp	r0, #0
	bne	.L649
	mcr	p15, 0, r0, c7, c10, 5
.L638:
	cmp	r2, #1
	bne	.L613
	ldr	r3, [r4]
	mov	r0, r4
	ldr	r3, [r3, #12]
	blx	r3
	b	.L613
.L661:
	ldr	r3, [r6]
	mov	r0, r6
	ldr	r3, [r3, #8]
	blx	r3
	add	r3, r6, #32
	mcr	p15, 0, r0, c7, c10, 5
	mcr	p15, 0, r0, c7, c10, 5
.L650:
	ldrex	r2, [r3]
	sub	r1, r2, #1
	strex	r0, r1, [r3]
	cmp	r0, #0
	bne	.L650
	mcr	p15, 0, r0, c7, c10, 5
.L637:
	cmp	r2, #1
	bne	.L621
	ldr	r3, [r6]
	mov	r0, r6
	ldr	r3, [r3, #12]
	blx	r3
	b	.L621
.L660:
	ldrb	r2, [r6, #20]	@ zero_extendqisi2
	strb	r2, [r6]
	str	r6, [r3]
	b	.L615
.L639:
	ldr	r0, [sp, #12]
	cmp	r0, #0
	beq	.L627
	bl	_ZNSt16_Sp_counted_baseILN9__gnu_cxx12_Lock_policyE1EE10_M_releaseEv(PLT)
.L627:
	mov	r3, #0
	cmp	r4, #0
	mcr	p15, 0, r0, c7, c10, 5
	str	r3, [sp, #4]
	beq	.L629
	mov	r0, r4
	bl	_ZNSt16_Sp_counted_baseILN9__gnu_cxx12_Lock_policyE1EE10_M_releaseEv(PLT)
.L629:
.LEHB14:
	bl	__cxa_end_cleanup(PLT)
.LEHE14:
.L664:
	.align	2
.L663:
	.word	_GLOBAL_OFFSET_TABLE_-(.LPIC49+8)
	.word	_ZN4asio6detail10call_stackINS0_15task_io_serviceENS0_27task_io_service_thread_infoEE4top_E(GOT)
	.word	_ZL28__gthrw___pthread_key_createPjPFvPvE(GOT)
	.personality	__gxx_personality_v0
	.handlerdata
.LLSDA9408:
	.byte	0xff
	.byte	0xff
	.byte	0x1
	.uleb128 .LLSDACSE9408-.LLSDACSB9408
.LLSDACSB9408:
	.uleb128 .LEHB13-.LFB9408
	.uleb128 .LEHE13-.LEHB13
	.uleb128 .L639-.LFB9408
	.uleb128 0
	.uleb128 .LEHB14-.LFB9408
	.uleb128 .LEHE14-.LEHB14
	.uleb128 0
	.uleb128 0
.LLSDACSE9408:
	.text
	.fnend
	.size	_ZN4asio6detail18completion_handlerIZN8asiodnp311LinkSession12ShutdownImplEvEUlvE_E11do_completeEPNS0_15task_io_serviceEPNS0_25task_io_service_operationERKSt10error_codej, .-_ZN4asio6detail18completion_handlerIZN8asiodnp311LinkSession12ShutdownImplEvEUlvE_E11do_completeEPNS0_15task_io_serviceEPNS0_25task_io_service_operationERKSt10error_codej
	.align	2
	.global	_ZN8asiodnp311LinkSession8ShutdownEv
	.syntax unified
	.arm
	.fpu vfp
	.type	_ZN8asiodnp311LinkSession8ShutdownEv, %function
_ZN8asiodnp311LinkSession8ShutdownEv:
	.fnstart
.LFB7692:
	@ args = 0, pretend = 0, frame = 16
	@ frame_needed = 0, uses_anonymous_args = 0
	push	{r4, r5, r6, r7, r8, lr}
	.save {r4, r5, r6, r7, r8, lr}
	.pad #16
	sub	sp, sp, #16
	ldr	r4, [r0, #16]
	ldr	r8, .L723
	cmp	r4, #0
.LPIC50:
	add	r8, pc, r8
	beq	.L666
	ldr	r3, .L723+4
	mov	r6, r0
	add	r0, r4, #4
	str	r0, [sp]
	ldr	r7, [r8, r3]
	cmp	r7, #0
	beq	.L667
	bl	_ZL26__gthrw_pthread_mutex_lockP15pthread_mutex_t(PLT)
	cmp	r0, #0
	bne	.L721
	add	r5, r4, #28
	mcr	p15, 0, r0, c7, c10, 5
.L714:
	ldrex	r3, [r5]
	add	r2, r3, #1
	strex	r1, r2, [r5]
	cmp	r1, #0
	bne	.L714
	cmp	r3, #0
	mcr	p15, 0, r0, c7, c10, 5
	beq	.L684
	ldr	r0, [sp]
	bl	_ZL28__gthrw_pthread_mutex_unlockP15pthread_mutex_t(PLT)
	cmp	r0, #0
	bne	.L687
	ldr	r3, [r6, #72]
	ldr	r8, [r6, #12]
	ldr	r6, [r3, #12]
	mcr	p15, 0, r0, c7, c10, 5
.L713:
	ldrex	r3, [r5]
	add	r3, r3, #1
	strex	r2, r3, [r5]
	cmp	r2, #0
	bne	.L713
	mcr	p15, 0, r0, c7, c10, 5
.L688:
	mov	r3, #0
	mov	r0, #8
	str	r3, [sp, #8]
.LEHB15:
	bl	_Znwj(PLT)
.LEHE15:
	mov	r1, r0
	ldr	r2, .L723+8
	ldr	r3, .L723+12
.LPIC51:
	add	r2, pc, r2
.LPIC52:
	add	r3, pc, r3
	mov	r0, r6
	str	r8, [r1]
	str	r4, [r1, #4]
	str	r1, [sp]
	mov	r1, sp
	mov	r6, sp
	str	r2, [sp, #12]
	str	r3, [sp, #8]
.LEHB16:
	bl	_ZN7asiopal8Executor18BlockUntilAndFlushERKSt8functionIFvvEE(PLT)
.LEHE16:
	ldr	r3, [sp, #8]
	cmp	r3, #0
	beq	.L676
	mov	r2, #3
	mov	r1, sp
	mov	r0, r6
	blx	r3
.L676:
	cmp	r7, #0
	beq	.L677
	mcr	p15, 0, r0, c7, c10, 5
.L715:
	ldrex	r3, [r5]
	sub	r2, r3, #1
	strex	r1, r2, [r5]
	cmp	r1, #0
	bne	.L715
	cmp	r3, #1
	mcr	p15, 0, r0, c7, c10, 5
	beq	.L722
.L665:
	add	sp, sp, #16
	@ sp needed
	pop	{r4, r5, r6, r7, r8, pc}
.L667:
	ldr	r3, [r4, #28]
	add	r5, r4, #28
	add	r2, r3, #1
	cmp	r3, #0
	str	r2, [r4, #28]
	beq	.L684
	ldr	r2, [r6, #72]
	add	r3, r3, #2
	ldr	r8, [r6, #12]
	ldr	r6, [r2, #12]
	str	r3, [r4, #28]
	b	.L688
.L677:
	ldr	r3, [r4, #28]
	cmp	r3, #1
	sub	r3, r3, #1
	str	r3, [r4, #28]
	bne	.L665
	ldr	r3, [r4]
	mov	r0, r4
	ldr	r3, [r3, #8]
	blx	r3
	mcr	p15, 0, r0, c7, c10, 5
	ldr	r2, [r4, #32]
	sub	r3, r2, #1
	str	r3, [r4, #32]
	b	.L689
.L722:
	ldr	r3, [r4]
	mov	r0, r4
	ldr	r3, [r3, #8]
	blx	r3
	add	r3, r4, #32
	mcr	p15, 0, r0, c7, c10, 5
	mcr	p15, 0, r0, c7, c10, 5
.L712:
	ldrex	r2, [r3]
	sub	r1, r2, #1
	strex	r0, r1, [r3]
	cmp	r0, #0
	bne	.L712
	mcr	p15, 0, r0, c7, c10, 5
.L689:
	cmp	r2, #1
	bne	.L665
	ldr	r3, [r4]
	mov	r0, r4
	ldr	r3, [r3, #12]
	blx	r3
	b	.L665
.L666:
.LEHB17:
	bl	_ZSt20__throw_bad_weak_ptrv(PLT)
.LEHE17:
.L684:
	mov	r3, #0
	str	r3, [r4, #28]
.LEHB18:
	bl	_ZSt20__throw_bad_weak_ptrv(PLT)
.LEHE18:
.L692:
	mov	r0, sp
	bl	_ZN9__gnu_cxx13__scoped_lockD1Ev(PLT)
.L717:
.LEHB19:
	bl	__cxa_end_cleanup(PLT)
.LEHE19:
.L687:
	mov	r0, #4
	bl	__cxa_allocate_exception(PLT)
	ldr	r1, .L723+16
	ldr	r2, .L723+20
	ldr	r3, .L723+24
	ldr	r1, [r8, r1]
	add	r1, r1, #8
	str	r1, [r0]
	ldr	r2, [r8, r2]
	ldr	r1, [r8, r3]
.LEHB20:
	bl	__cxa_throw(PLT)
.LEHE20:
.L693:
	cmn	r1, #1
	bne	.L717
.LEHB21:
	bl	__cxa_call_unexpected(PLT)
.L721:
	mov	r0, #4
	bl	__cxa_allocate_exception(PLT)
	ldr	r1, .L723+28
	ldr	r2, .L723+32
	ldr	r3, .L723+36
	ldr	r1, [r8, r1]
	add	r1, r1, #8
	str	r1, [r0]
	ldr	r2, [r8, r2]
	ldr	r1, [r8, r3]
	bl	__cxa_throw(PLT)
.LEHE21:
.L690:
	ldr	r3, [sp, #8]
	cmp	r3, #0
	beq	.L675
	mov	r2, #3
	mov	r1, r6
	mov	r0, r6
	blx	r3
.L675:
	mov	r0, r4
	bl	_ZNSt16_Sp_counted_baseILN9__gnu_cxx12_Lock_policyE1EE10_M_releaseEv(PLT)
.LEHB22:
	bl	__cxa_end_cleanup(PLT)
.LEHE22:
.L691:
	ldr	r3, [sp, #8]
	cmp	r3, #0
	beq	.L674
	mov	r1, sp
	mov	r0, sp
	mov	r2, #3
	blx	r3
.L674:
	mov	r0, r4
	bl	_ZNSt16_Sp_counted_baseILN9__gnu_cxx12_Lock_policyE1EE10_M_releaseEv(PLT)
	b	.L675
.L724:
	.align	2
.L723:
	.word	_GLOBAL_OFFSET_TABLE_-(.LPIC50+8)
	.word	_ZL28__gthrw___pthread_key_createPjPFvPvE(GOT)
	.word	_ZNSt17_Function_handlerIFvvEZN8asiodnp311LinkSession8ShutdownEvEUlvE_E9_M_invokeERKSt9_Any_data-(.LPIC51+8)
	.word	_ZNSt14_Function_base13_Base_managerIZN8asiodnp311LinkSession8ShutdownEvEUlvE_E10_M_managerERSt9_Any_dataRKS5_St18_Manager_operation-(.LPIC52+8)
	.word	_ZTVN9__gnu_cxx26__concurrence_unlock_errorE(GOT)
	.word	_ZN9__gnu_cxx26__concurrence_unlock_errorD1Ev(GOT)
	.word	_ZTIN9__gnu_cxx26__concurrence_unlock_errorE(GOT)
	.word	_ZTVN9__gnu_cxx24__concurrence_lock_errorE(GOT)
	.word	_ZN9__gnu_cxx24__concurrence_lock_errorD1Ev(GOT)
	.word	_ZTIN9__gnu_cxx24__concurrence_lock_errorE(GOT)
	.personality	__gxx_personality_v0
	.handlerdata
	.align	2
.LLSDA7692:
	.byte	0xff
	.byte	0x90
	.uleb128 .LLSDATT7692-.LLSDATTD7692
.LLSDATTD7692:
	.byte	0x1
	.uleb128 .LLSDACSE7692-.LLSDACSB7692
.LLSDACSB7692:
	.uleb128 .LEHB15-.LFB7692
	.uleb128 .LEHE15-.LEHB15
	.uleb128 .L691-.LFB7692
	.uleb128 0
	.uleb128 .LEHB16-.LFB7692
	.uleb128 .LEHE16-.LEHB16
	.uleb128 .L690-.LFB7692
	.uleb128 0
	.uleb128 .LEHB17-.LFB7692
	.uleb128 .LEHE17-.LEHB17
	.uleb128 0
	.uleb128 0
	.uleb128 .LEHB18-.LFB7692
	.uleb128 .LEHE18-.LEHB18
	.uleb128 .L692-.LFB7692
	.uleb128 0
	.uleb128 .LEHB19-.LFB7692
	.uleb128 .LEHE19-.LEHB19
	.uleb128 0
	.uleb128 0
	.uleb128 .LEHB20-.LFB7692
	.uleb128 .LEHE20-.LEHB20
	.uleb128 .L693-.LFB7692
	.uleb128 0x1
	.uleb128 .LEHB21-.LFB7692
	.uleb128 .LEHE21-.LEHB21
	.uleb128 0
	.uleb128 0
	.uleb128 .LEHB22-.LFB7692
	.uleb128 .LEHE22-.LEHB22
	.uleb128 0
	.uleb128 0
.LLSDACSE7692:
	.byte	0x7f
	.byte	0
	.align	2
.LLSDATT7692:
	.word	0
	.text
	.fnend
	.size	_ZN8asiodnp311LinkSession8ShutdownEv, .-_ZN8asiodnp311LinkSession8ShutdownEv
	.set	.LTHUNK2,_ZN8asiodnp311LinkSession8ShutdownEv
	.align	2
	.global	_ZThn20_N8asiodnp311LinkSession8ShutdownEv
	.syntax unified
	.arm
	.fpu vfp
	.type	_ZThn20_N8asiodnp311LinkSession8ShutdownEv, %function
_ZThn20_N8asiodnp311LinkSession8ShutdownEv:
	.fnstart
.LFB10333:
	@ args = 0, pretend = 0, frame = 0
	@ frame_needed = 0, uses_anonymous_args = 0
	sub	r0, r0, #20
	b	.LTHUNK2(PLT)
	.fnend
	.size	_ZThn20_N8asiodnp311LinkSession8ShutdownEv, .-_ZThn20_N8asiodnp311LinkSession8ShutdownEv
	.align	2
	.global	_ZN8asiodnp311LinkSession5StartEv
	.syntax unified
	.arm
	.fpu vfp
	.type	_ZN8asiodnp311LinkSession5StartEv, %function
_ZN8asiodnp311LinkSession5StartEv:
	.fnstart
.LFB7747:
	@ args = 0, pretend = 0, frame = 24
	@ frame_needed = 0, uses_anonymous_args = 0
	push	{r4, r5, r6, r7, r8, r9, r10, lr}
	.save {r4, r5, r6, r7, r8, r9, r10, lr}
	.pad #24
	sub	sp, sp, #24
	ldr	r4, [r0, #16]
	ldr	r8, .L893
	cmp	r4, #0
.LPIC53:
	add	r8, pc, r8
	ldr	r10, [r0, #72]
	beq	.L726
	ldr	r3, .L893+4
	mov	r6, r0
	add	r0, r4, #4
	str	r0, [sp, #8]
	ldr	r7, [r8, r3]
	cmp	r7, #0
	beq	.L727
	bl	_ZL26__gthrw_pthread_mutex_lockP15pthread_mutex_t(PLT)
	cmp	r0, #0
	bne	.L865
	add	r5, r4, #28
	mcr	p15, 0, r0, c7, c10, 5
.L854:
	ldrex	r3, [r5]
	add	r2, r3, #1
	strex	r1, r2, [r5]
	cmp	r1, #0
	bne	.L854
	cmp	r3, #0
	mcr	p15, 0, r0, c7, c10, 5
	beq	.L779
	ldr	r0, [sp, #8]
	bl	_ZL28__gthrw_pthread_mutex_unlockP15pthread_mutex_t(PLT)
	cmp	r0, #0
	bne	.L884
.L783:
	ldr	r3, [r6, #12]
	ldr	r9, [r10, #24]
	cmp	r3, #0
	addne	r3, r3, #4
	cmp	r4, r9
	str	r3, [r10, #20]
	beq	.L734
	cmp	r7, #0
	beq	.L735
	mcr	p15, 0, r0, c7, c10, 5
.L862:
	ldrex	r3, [r5]
	add	r3, r3, #1
	strex	r2, r3, [r5]
	cmp	r2, #0
	bne	.L862
	mcr	p15, 0, r0, c7, c10, 5
	ldr	r9, [r10, #24]
	cmp	r9, #0
	beq	.L737
	add	r3, r9, #28
	mcr	p15, 0, r0, c7, c10, 5
.L853:
	ldrex	r2, [r3]
	sub	r1, r2, #1
	strex	r0, r1, [r3]
	cmp	r0, #0
	bne	.L853
	cmp	r2, #1
	mcr	p15, 0, r0, c7, c10, 5
	beq	.L885
.L737:
	str	r4, [r10, #24]
.L734:
	cmp	r7, #0
	beq	.L740
	mcr	p15, 0, r0, c7, c10, 5
.L861:
	ldrex	r3, [r5]
	sub	r2, r3, #1
	strex	r1, r2, [r5]
	cmp	r1, #0
	bne	.L861
	cmp	r3, #1
	mcr	p15, 0, r0, c7, c10, 5
	beq	.L886
.L742:
	ldr	r5, [r6, #16]
	cmp	r5, #0
	beq	.L726
	add	r0, r5, #4
	cmp	r7, #0
	str	r0, [sp, #8]
	beq	.L745
	bl	_ZL26__gthrw_pthread_mutex_lockP15pthread_mutex_t(PLT)
	cmp	r0, #0
	bne	.L865
	add	r4, r5, #28
	mcr	p15, 0, r0, c7, c10, 5
.L850:
	ldrex	r3, [r4]
	add	r2, r3, #1
	strex	r1, r2, [r4]
	cmp	r1, #0
	bne	.L850
	cmp	r3, #0
	mcr	p15, 0, r0, c7, c10, 5
	beq	.L787
	ldr	r0, [sp, #8]
	bl	_ZL28__gthrw_pthread_mutex_unlockP15pthread_mutex_t(PLT)
	cmp	r0, #0
	bne	.L887
.L791:
	ldr	r3, [r6, #64]
	mov	r0, sp
	mov	r1, r3
	ldr	r3, [r3]
	mov	r9, sp
	ldr	r10, [r6, #12]
	ldr	r3, [r3, #16]
	add	r8, r6, #456
.LEHB23:
	blx	r3
.LEHE23:
	cmp	r7, #0
	beq	.L751
	mcr	p15, 0, r0, c7, c10, 5
.L859:
	ldrex	r3, [r4]
	add	r3, r3, #1
	strex	r2, r3, [r4]
	cmp	r2, #0
	bne	.L859
	mcr	p15, 0, r0, c7, c10, 5
	mcr	p15, 0, r0, c7, c10, 5
.L860:
	ldrex	r3, [r4]
	add	r3, r3, #1
	strex	r2, r3, [r4]
	cmp	r2, #0
	bne	.L860
	mcr	p15, 0, r0, c7, c10, 5
.L752:
	mov	r3, #0
	mov	r0, #12
	str	r3, [sp, #16]
.LEHB24:
	bl	_Znwj(PLT)
.LEHE24:
	cmp	r7, #0
	mov	r3, r0
	stm	r0, {r8, r10}
	str	r5, [r0, #8]
	beq	.L753
	mcr	p15, 0, r0, c7, c10, 5
.L858:
	ldrex	r2, [r4]
	add	r2, r2, #1
	strex	r1, r2, [r4]
	cmp	r1, #0
	bne	.L858
	mcr	p15, 0, r0, c7, c10, 5
.L754:
	ldr	r2, .L893+8
	ldr	ip, .L893+12
.LPIC54:
	add	r2, pc, r2
	mov	r0, r8
	add	r8, sp, #8
.LPIC55:
	add	ip, pc, ip
	str	r2, [sp, #20]
	mov	r1, r9
	mov	r2, r8
	str	r3, [sp, #8]
	str	ip, [sp, #16]
.LEHB25:
	bl	_ZN7openpal8TimerRef11StartActionERKNS_12TimeDurationERKSt8functionIFvvEE(PLT)
.LEHE25:
	ldr	r3, [sp, #16]
	cmp	r3, #0
	beq	.L759
	mov	r2, #3
	mov	r1, r8
	mov	r0, r8
	blx	r3
.L759:
	cmp	r7, #0
	beq	.L760
	mcr	p15, 0, r0, c7, c10, 5
.L857:
	ldrex	r3, [r4]
	sub	r2, r3, #1
	strex	r1, r2, [r4]
	cmp	r1, #0
	bne	.L857
	cmp	r3, #1
	mcr	p15, 0, r0, c7, c10, 5
	beq	.L888
.L795:
	mcr	p15, 0, r0, c7, c10, 5
.L856:
	ldrex	r3, [r4]
	sub	r2, r3, #1
	strex	r1, r2, [r4]
	cmp	r1, #0
	bne	.L856
	cmp	r3, #1
	mcr	p15, 0, r0, c7, c10, 5
	beq	.L889
.L767:
	mov	r0, r6
.LEHB26:
	bl	_ZN8asiodnp311LinkSession12BeginReceiveEv(PLT)
.LEHE26:
	cmp	r7, #0
	beq	.L774
	mcr	p15, 0, r0, c7, c10, 5
.L855:
	ldrex	r3, [r4]
	sub	r2, r3, #1
	strex	r1, r2, [r4]
	cmp	r1, #0
	bne	.L855
	cmp	r3, #1
	mcr	p15, 0, r0, c7, c10, 5
	beq	.L890
.L725:
	add	sp, sp, #24
	@ sp needed
	pop	{r4, r5, r6, r7, r8, r9, r10, pc}
.L751:
	ldr	r3, [r5, #28]
	add	r3, r3, #2
	str	r3, [r5, #28]
	b	.L752
.L753:
	ldr	r2, [r5, #28]
	add	r2, r2, #1
	str	r2, [r5, #28]
	b	.L754
.L727:
	ldr	r3, [r4, #28]
	cmp	r3, #0
	add	r3, r3, #1
	str	r3, [r4, #28]
	addne	r5, r4, #28
	bne	.L783
.L779:
	mov	r3, #0
	str	r3, [r4, #28]
.LEHB27:
	bl	_ZSt20__throw_bad_weak_ptrv(PLT)
.LEHE27:
.L745:
	ldr	r3, [r5, #28]
	cmp	r3, #0
	add	r3, r3, #1
	str	r3, [r5, #28]
	addne	r4, r5, #28
	bne	.L791
.L787:
	mov	r3, #0
	str	r3, [r5, #28]
.LEHB28:
	bl	_ZSt20__throw_bad_weak_ptrv(PLT)
.LEHE28:
.L774:
	ldr	r3, [r5, #28]
	cmp	r3, #1
	sub	r3, r3, #1
	str	r3, [r5, #28]
	bne	.L725
	ldr	r3, [r5]
	mov	r0, r5
	ldr	r3, [r3, #8]
	blx	r3
	mcr	p15, 0, r0, c7, c10, 5
	ldr	r2, [r5, #32]
	sub	r3, r2, #1
	str	r3, [r5, #32]
	b	.L797
.L735:
	ldr	r3, [r4, #28]
	cmp	r9, #0
	add	r3, r3, #1
	str	r3, [r4, #28]
	beq	.L737
	ldr	r3, [r9, #28]
	cmp	r3, #1
	sub	r3, r3, #1
	str	r3, [r9, #28]
	bne	.L737
	ldr	r3, [r9]
	mov	r0, r9
	ldr	r3, [r3, #8]
	blx	r3
	mcr	p15, 0, r0, c7, c10, 5
	ldr	r2, [r9, #32]
	sub	r3, r2, #1
	str	r3, [r9, #32]
	b	.L785
.L740:
	ldr	r3, [r4, #28]
	cmp	r3, #1
	sub	r3, r3, #1
	str	r3, [r4, #28]
	bne	.L742
	ldr	r3, [r4]
	mov	r0, r4
	ldr	r3, [r3, #8]
	blx	r3
	mcr	p15, 0, r0, c7, c10, 5
	ldr	r2, [r4, #32]
	sub	r3, r2, #1
	str	r3, [r4, #32]
	b	.L786
.L760:
	ldr	r3, [r5, #28]
	cmp	r3, #1
	sub	r3, r3, #1
	str	r3, [r5, #28]
	beq	.L891
	cmp	r3, #1
	sub	r3, r3, #1
	str	r3, [r5, #28]
	bne	.L767
.L892:
	ldr	r3, [r5]
	mov	r0, r5
	ldr	r3, [r3, #8]
	blx	r3
	mcr	p15, 0, r0, c7, c10, 5
	ldr	r2, [r5, #32]
	sub	r3, r2, #1
	str	r3, [r5, #32]
	b	.L796
.L885:
	ldr	r3, [r9]
	mov	r0, r9
	ldr	r3, [r3, #8]
	blx	r3
	add	r3, r9, #32
	mcr	p15, 0, r0, c7, c10, 5
	mcr	p15, 0, r0, c7, c10, 5
.L852:
	ldrex	r2, [r3]
	sub	r1, r2, #1
	strex	r0, r1, [r3]
	cmp	r0, #0
	bne	.L852
	mcr	p15, 0, r0, c7, c10, 5
.L785:
	cmp	r2, #1
	bne	.L737
	ldr	r3, [r9]
	mov	r0, r9
	ldr	r3, [r3, #12]
	blx	r3
	b	.L737
.L890:
	ldr	r3, [r5]
	mov	r0, r5
	ldr	r3, [r3, #8]
	blx	r3
	add	r3, r5, #32
	mcr	p15, 0, r0, c7, c10, 5
	mcr	p15, 0, r0, c7, c10, 5
.L847:
	ldrex	r2, [r3]
	sub	r1, r2, #1
	strex	r0, r1, [r3]
	cmp	r0, #0
	bne	.L847
	mcr	p15, 0, r0, c7, c10, 5
.L797:
	cmp	r2, #1
	bne	.L725
	ldr	r3, [r5]
	mov	r0, r5
	ldr	r3, [r3, #12]
	blx	r3
	b	.L725
.L889:
	ldr	r3, [r5]
	mov	r0, r5
	ldr	r3, [r3, #8]
	blx	r3
	add	r3, r5, #32
	mcr	p15, 0, r0, c7, c10, 5
	mcr	p15, 0, r0, c7, c10, 5
.L848:
	ldrex	r2, [r3]
	sub	r1, r2, #1
	strex	r0, r1, [r3]
	cmp	r0, #0
	bne	.L848
	mcr	p15, 0, r0, c7, c10, 5
.L796:
	cmp	r2, #1
	bne	.L767
	ldr	r3, [r5]
	mov	r0, r5
	ldr	r3, [r3, #12]
	blx	r3
	b	.L767
.L886:
	ldr	r3, [r4]
	mov	r0, r4
	ldr	r3, [r3, #8]
	blx	r3
	add	r3, r4, #32
	mcr	p15, 0, r0, c7, c10, 5
	mcr	p15, 0, r0, c7, c10, 5
.L851:
	ldrex	r2, [r3]
	sub	r1, r2, #1
	strex	r0, r1, [r3]
	cmp	r0, #0
	bne	.L851
	mcr	p15, 0, r0, c7, c10, 5
.L786:
	cmp	r2, #1
	bne	.L742
	ldr	r3, [r4]
	mov	r0, r4
	ldr	r3, [r3, #12]
	blx	r3
	b	.L742
.L888:
	ldr	r3, [r5]
	mov	r0, r5
	ldr	r3, [r3, #8]
	blx	r3
	add	r3, r5, #32
	mcr	p15, 0, r0, c7, c10, 5
	mcr	p15, 0, r0, c7, c10, 5
.L849:
	ldrex	r2, [r3]
	sub	r1, r2, #1
	strex	r0, r1, [r3]
	cmp	r0, #0
	bne	.L849
	cmp	r2, #1
	mcr	p15, 0, r0, c7, c10, 5
	bne	.L795
.L792:
	ldr	r3, [r5]
	mov	r0, r5
	ldr	r3, [r3, #12]
	blx	r3
	cmp	r7, #0
	bne	.L795
.L864:
	ldr	r3, [r5, #28]
	cmp	r3, #1
	sub	r3, r3, #1
	str	r3, [r5, #28]
	bne	.L767
	b	.L892
.L799:
.L867:
	add	r0, sp, #8
	bl	_ZN9__gnu_cxx13__scoped_lockD1Ev(PLT)
.L868:
.LEHB29:
	bl	__cxa_end_cleanup(PLT)
.L801:
	b	.L867
.L891:
	ldr	r3, [r5]
	mov	r0, r5
	ldr	r3, [r3, #8]
	blx	r3
	mcr	p15, 0, r0, c7, c10, 5
	ldr	r3, [r5, #32]
	cmp	r3, #1
	sub	r3, r3, #1
	str	r3, [r5, #32]
	bne	.L864
	b	.L792
.L726:
	bl	_ZSt20__throw_bad_weak_ptrv(PLT)
.L865:
	mov	r0, #4
	bl	__cxa_allocate_exception(PLT)
	ldr	r1, .L893+16
	ldr	r2, .L893+20
	ldr	r3, .L893+24
	ldr	r1, [r8, r1]
	add	r1, r1, #8
	str	r1, [r0]
	ldr	r2, [r8, r2]
	ldr	r1, [r8, r3]
	bl	__cxa_throw(PLT)
.LEHE29:
.L887:
	mov	r0, #4
	bl	__cxa_allocate_exception(PLT)
	ldr	r1, .L893+28
	ldr	r2, .L893+32
	ldr	r3, .L893+36
	ldr	r1, [r8, r1]
	add	r1, r1, #8
	str	r1, [r0]
	ldr	r2, [r8, r2]
	ldr	r1, [r8, r3]
.LEHB30:
	bl	__cxa_throw(PLT)
.LEHE30:
.L802:
.L869:
	cmn	r1, #1
	bne	.L868
.LEHB31:
	bl	__cxa_call_unexpected(PLT)
.LEHE31:
.L884:
	mov	r0, #4
	bl	__cxa_allocate_exception(PLT)
	ldr	r1, .L893+28
	ldr	r2, .L893+32
	ldr	r3, .L893+36
	ldr	r1, [r8, r1]
	add	r1, r1, #8
	str	r1, [r0]
	ldr	r2, [r8, r2]
	ldr	r1, [r8, r3]
.LEHB32:
	bl	__cxa_throw(PLT)
.LEHE32:
.L800:
	b	.L869
.L804:
	ldr	r3, [sp, #16]
	cmp	r3, #0
	beq	.L758
	add	r1, sp, #8
	mov	r0, r1
	mov	r2, #3
	blx	r3
.L758:
	mov	r0, r5
	bl	_ZNSt16_Sp_counted_baseILN9__gnu_cxx12_Lock_policyE1EE10_M_releaseEv(PLT)
	mov	r0, r5
	bl	_ZNSt16_Sp_counted_baseILN9__gnu_cxx12_Lock_policyE1EE10_M_releaseEv(PLT)
.L773:
	mov	r0, r5
	bl	_ZNSt16_Sp_counted_baseILN9__gnu_cxx12_Lock_policyE1EE10_M_releaseEv(PLT)
	b	.L868
.L803:
	ldr	r3, [sp, #16]
	cmp	r3, #0
	beq	.L758
	mov	r2, #3
	mov	r1, r8
	mov	r0, r8
	blx	r3
	b	.L758
.L798:
	b	.L773
.L894:
	.align	2
.L893:
	.word	_GLOBAL_OFFSET_TABLE_-(.LPIC53+8)
	.word	_ZL28__gthrw___pthread_key_createPjPFvPvE(GOT)
	.word	_ZNSt17_Function_handlerIFvvEZN7openpal8TimerRef5StartIZN8asiodnp311LinkSession5StartEvEUlvE_EEbRKNS1_12TimeDurationERKT_EUlvE_E9_M_invokeERKSt9_Any_data-(.LPIC54+8)
	.word	_ZNSt14_Function_base13_Base_managerIZN7openpal8TimerRef5StartIZN8asiodnp311LinkSession5StartEvEUlvE_EEbRKNS1_12TimeDurationERKT_EUlvE_E10_M_managerERSt9_Any_dataRKSF_St18_Manager_operation-(.LPIC55+8)
	.word	_ZTVN9__gnu_cxx24__concurrence_lock_errorE(GOT)
	.word	_ZN9__gnu_cxx24__concurrence_lock_errorD1Ev(GOT)
	.word	_ZTIN9__gnu_cxx24__concurrence_lock_errorE(GOT)
	.word	_ZTVN9__gnu_cxx26__concurrence_unlock_errorE(GOT)
	.word	_ZN9__gnu_cxx26__concurrence_unlock_errorD1Ev(GOT)
	.word	_ZTIN9__gnu_cxx26__concurrence_unlock_errorE(GOT)
	.personality	__gxx_personality_v0
	.handlerdata
	.align	2
.LLSDA7747:
	.byte	0xff
	.byte	0x90
	.uleb128 .LLSDATT7747-.LLSDATTD7747
.LLSDATTD7747:
	.byte	0x1
	.uleb128 .LLSDACSE7747-.LLSDACSB7747
.LLSDACSB7747:
	.uleb128 .LEHB23-.LFB7747
	.uleb128 .LEHE23-.LEHB23
	.uleb128 .L798-.LFB7747
	.uleb128 0
	.uleb128 .LEHB24-.LFB7747
	.uleb128 .LEHE24-.LEHB24
	.uleb128 .L804-.LFB7747
	.uleb128 0
	.uleb128 .LEHB25-.LFB7747
	.uleb128 .LEHE25-.LEHB25
	.uleb128 .L803-.LFB7747
	.uleb128 0
	.uleb128 .LEHB26-.LFB7747
	.uleb128 .LEHE26-.LEHB26
	.uleb128 .L798-.LFB7747
	.uleb128 0
	.uleb128 .LEHB27-.LFB7747
	.uleb128 .LEHE27-.LEHB27
	.uleb128 .L799-.LFB7747
	.uleb128 0
	.uleb128 .LEHB28-.LFB7747
	.uleb128 .LEHE28-.LEHB28
	.uleb128 .L801-.LFB7747
	.uleb128 0
	.uleb128 .LEHB29-.LFB7747
	.uleb128 .LEHE29-.LEHB29
	.uleb128 0
	.uleb128 0
	.uleb128 .LEHB30-.LFB7747
	.uleb128 .LEHE30-.LEHB30
	.uleb128 .L802-.LFB7747
	.uleb128 0x1
	.uleb128 .LEHB31-.LFB7747
	.uleb128 .LEHE31-.LEHB31
	.uleb128 0
	.uleb128 0
	.uleb128 .LEHB32-.LFB7747
	.uleb128 .LEHE32-.LEHB32
	.uleb128 .L800-.LFB7747
	.uleb128 0x1
.LLSDACSE7747:
	.byte	0x7f
	.byte	0
	.align	2
.LLSDATT7747:
	.word	0
	.text
	.fnend
	.size	_ZN8asiodnp311LinkSession5StartEv, .-_ZN8asiodnp311LinkSession5StartEv
	.align	2
	.global	_ZN8asiodnp311LinkSession13AcceptSessionERKNSt7__cxx1112basic_stringIcSt11char_traitsIcESaIcEEESt10shared_ptrIN8opendnp311ISOEHandlerEES9_INSA_18IMasterApplicationEERKNS_17MasterStackConfigE
	.syntax unified
	.arm
	.fpu vfp
	.type	_ZN8asiodnp311LinkSession13AcceptSessionERKNSt7__cxx1112basic_stringIcSt11char_traitsIcESaIcEEESt10shared_ptrIN8opendnp311ISOEHandlerEES9_INSA_18IMasterApplicationEERKNS_17MasterStackConfigE, %function
_ZN8asiodnp311LinkSession13AcceptSessionERKNSt7__cxx1112basic_stringIcSt11char_traitsIcESaIcEEESt10shared_ptrIN8opendnp311ISOEHandlerEES9_INSA_18IMasterApplicationEERKNS_17MasterStackConfigE:
	.fnstart
.LFB7737:
	@ args = 8, pretend = 0, frame = 16
	@ frame_needed = 0, uses_anonymous_args = 0
	push	{r4, r5, r6, r7, r8, r9, r10, fp, lr}
	.save {r4, r5, r6, r7, r8, r9, r10, fp, lr}
	mov	r7, r0
	ldr	r0, [r1, #468]
	ldr	r5, .L980
	cmp	r0, #0
	.pad #36
	sub	sp, sp, #36
	mov	r4, r1
.LPIC58:
	add	r5, pc, r5
	beq	.L896
	add	r5, sp, #32
	add	r4, r1, #32
	mov	r6, #2
	str	r6, [r5, #-8]!
	mov	r0, r4
	mov	r1, r5
.LEHB33:
	bl	_ZNK7openpal6Logger9IsEnabledERKNS_10LogFiltersE(PLT)
	cmp	r0, #0
	beq	.L897
	ldr	r3, .L980+4
	ldr	r2, .L980+8
	mov	r1, r5
	mov	r0, r4
.LPIC56:
	add	r3, pc, r3
.LPIC57:
	add	r2, pc, r2
	str	r6, [sp, #24]
	bl	_ZN7openpal6Logger3LogERKNS_10LogFiltersEPKcS5_(PLT)
.L897:
	mov	r3, #0
	str	r3, [r7]
	str	r3, [r7, #4]
.L895:
	mov	r0, r7
	add	sp, sp, #36
	@ sp needed
	pop	{r4, r5, r6, r7, r8, r9, r10, fp, pc}
.L896:
	mov	r1, r2
	ldr	r0, [r4, #40]
	mov	r6, r3
	bl	_ZNSt7__cxx1112basic_stringIcSt11char_traitsIcESaIcEE9_M_assignERKS4_(PLT)
.LEHE33:
	ldr	r8, [r4, #16]
	ldr	r10, [r4, #72]
	cmp	r8, #0
	str	r8, [sp, #20]
	add	r10, r10, #12
	add	fp, r4, #32
	beq	.L899
	ldr	r3, .L980+12
	add	r0, r8, #4
	str	r0, [sp, #24]
	ldr	r9, [r5, r3]
	cmp	r9, #0
	beq	.L900
	bl	_ZL26__gthrw_pthread_mutex_lockP15pthread_mutex_t(PLT)
	cmp	r0, #0
	bne	.L975
	add	r3, r8, #28
	mcr	p15, 0, r0, c7, c10, 5
.L960:
	ldrex	r2, [r3]
	add	r1, r2, #1
	strex	r0, r1, [r3]
	cmp	r0, #0
	bne	.L960
	cmp	r2, #0
	mcr	p15, 0, r0, c7, c10, 5
	beq	.L927
	ldr	r0, [sp, #24]
	bl	_ZL28__gthrw_pthread_mutex_unlockP15pthread_mutex_t(PLT)
	cmp	r0, #0
	bne	.L976
.L929:
	ldr	r3, [sp, #76]
	ldr	ip, [r4, #12]
	str	r3, [sp, #12]
	ldr	r3, [sp, #72]
	add	r0, sp, #16
	str	r3, [sp]
	str	r0, [sp, #4]
	str	r4, [sp, #8]
	mov	r3, r6
	mov	r2, r10
	mov	r1, fp
	add	r0, sp, #24
	str	ip, [sp, #16]
.LEHB34:
	bl	_ZN8asiodnp318MasterSessionStack6CreateERKN7openpal6LoggerERKSt10shared_ptrIN7asiopal8ExecutorEERKS5_IN8opendnp311ISOEHandlerEERKS5_INSB_18IMasterApplicationEERKS5_INS_11LinkSessionEERNSB_7ILinkTxERKNS_17MasterStackConfigE(PLT)
.LEHE34:
	ldr	r5, [r4, #472]
	ldr	r1, [sp, #24]
	ldr	r2, [sp, #28]
	mov	r3, #0
	cmp	r5, #0
	str	r1, [r4, #468]
	str	r2, [r4, #472]
	str	r3, [sp, #28]
	str	r3, [sp, #24]
	beq	.L907
	cmp	r9, r3
	beq	.L908
	add	r3, r5, #28
	mcr	p15, 0, r0, c7, c10, 5
.L964:
	ldrex	r2, [r3]
	sub	r1, r2, #1
	strex	r0, r1, [r3]
	cmp	r0, #0
	bne	.L964
	cmp	r2, #1
	mcr	p15, 0, r0, c7, c10, 5
	beq	.L909
	ldr	r5, [sp, #28]
	cmp	r5, #0
	beq	.L907
.L910:
	add	r3, r5, #28
	mcr	p15, 0, r0, c7, c10, 5
.L963:
	ldrex	r2, [r3]
	sub	r1, r2, #1
	strex	r0, r1, [r3]
	cmp	r0, #0
	bne	.L963
	cmp	r2, #1
	mcr	p15, 0, r0, c7, c10, 5
	beq	.L977
.L907:
	ldr	r5, [sp, #20]
	cmp	r5, #0
	beq	.L919
	cmp	r9, #0
	beq	.L920
	add	r3, r5, #28
	mcr	p15, 0, r0, c7, c10, 5
.L962:
	ldrex	r2, [r3]
	sub	r1, r2, #1
	strex	r0, r1, [r3]
	cmp	r0, #0
	bne	.L962
	cmp	r2, #1
	mcr	p15, 0, r0, c7, c10, 5
	beq	.L978
.L919:
	ldr	r3, [r4, #472]
	ldr	r2, [r4, #468]
	cmp	r3, #0
	stm	r7, {r2, r3}
	beq	.L895
	cmp	r9, #0
	beq	.L924
	add	r3, r3, #28
	mcr	p15, 0, r0, c7, c10, 5
.L961:
	ldrex	r2, [r3]
	add	r2, r2, #1
	strex	r1, r2, [r3]
	cmp	r1, #0
	bne	.L961
	mcr	p15, 0, r0, c7, c10, 5
	b	.L895
.L924:
	ldr	r2, [r3, #28]
	add	r2, r2, #1
	str	r2, [r3, #28]
	b	.L895
.L900:
	ldr	r3, [r8, #28]
	cmp	r3, #0
	add	r3, r3, #1
	str	r3, [r8, #28]
	bne	.L929
.L927:
	mov	r3, #0
	str	r3, [r8, #28]
.LEHB35:
	bl	_ZSt20__throw_bad_weak_ptrv(PLT)
.LEHE35:
.L935:
	add	r0, sp, #24
	bl	_ZN9__gnu_cxx13__scoped_lockD1Ev(PLT)
.L967:
.LEHB36:
	bl	__cxa_end_cleanup(PLT)
.L920:
	ldr	r3, [r5, #28]
	cmp	r3, #1
	sub	r3, r3, #1
	str	r3, [r5, #28]
	bne	.L919
	ldr	r3, [r5]
	mov	r0, r5
	ldr	r3, [r3, #8]
	blx	r3
	mcr	p15, 0, r0, c7, c10, 5
	ldr	r2, [r5, #32]
	sub	r3, r2, #1
	str	r3, [r5, #32]
.L933:
	cmp	r2, #1
	bne	.L919
	ldr	r3, [r5]
	mov	r0, r5
	ldr	r3, [r3, #12]
	blx	r3
	b	.L919
.L908:
	ldr	r3, [r5, #28]
	cmp	r3, #1
	sub	r3, r3, #1
	str	r3, [r5, #28]
	bne	.L907
	ldr	r3, [r5]
	mov	r0, r5
	ldr	r3, [r3, #8]
	blx	r3
	mcr	p15, 0, r0, c7, c10, 5
	ldr	r2, [r5, #32]
	sub	r3, r2, #1
	str	r3, [r5, #32]
.L931:
	cmp	r2, #1
	beq	.L979
.L966:
	ldr	r5, [sp, #28]
	cmp	r5, #0
	beq	.L907
	cmp	r9, #0
	bne	.L910
	ldr	r3, [r5, #28]
	cmp	r3, #1
	sub	r3, r3, #1
	str	r3, [r5, #28]
	bne	.L907
	ldr	r3, [r5]
	mov	r0, r5
	ldr	r3, [r3, #8]
	blx	r3
	mcr	p15, 0, r0, c7, c10, 5
	ldr	r2, [r5, #32]
	sub	r3, r2, #1
	str	r3, [r5, #32]
.L932:
	cmp	r2, #1
	bne	.L907
	ldr	r3, [r5]
	mov	r0, r5
	ldr	r3, [r3, #12]
	blx	r3
	b	.L907
.L909:
	ldr	r3, [r5]
	mov	r0, r5
	ldr	r3, [r3, #8]
	blx	r3
	add	r3, r5, #32
	mcr	p15, 0, r0, c7, c10, 5
	mcr	p15, 0, r0, c7, c10, 5
.L959:
	ldrex	r2, [r3]
	sub	r1, r2, #1
	strex	r0, r1, [r3]
	cmp	r0, #0
	bne	.L959
	mcr	p15, 0, r0, c7, c10, 5
	b	.L931
.L977:
	ldr	r3, [r5]
	mov	r0, r5
	ldr	r3, [r3, #8]
	blx	r3
	add	r3, r5, #32
	mcr	p15, 0, r0, c7, c10, 5
	mcr	p15, 0, r0, c7, c10, 5
.L958:
	ldrex	r2, [r3]
	sub	r1, r2, #1
	strex	r0, r1, [r3]
	cmp	r0, #0
	bne	.L958
	mcr	p15, 0, r0, c7, c10, 5
	b	.L932
.L978:
	ldr	r3, [r5]
	mov	r0, r5
	ldr	r3, [r3, #8]
	blx	r3
	add	r3, r5, #32
	mcr	p15, 0, r0, c7, c10, 5
	mcr	p15, 0, r0, c7, c10, 5
.L957:
	ldrex	r2, [r3]
	sub	r1, r2, #1
	strex	r0, r1, [r3]
	cmp	r0, #0
	bne	.L957
	mcr	p15, 0, r0, c7, c10, 5
	b	.L933
.L979:
	ldr	r3, [r5]
	mov	r0, r5
	ldr	r3, [r3, #12]
	blx	r3
	b	.L966
.L899:
	bl	_ZSt20__throw_bad_weak_ptrv(PLT)
.L975:
	mov	r0, #4
	bl	__cxa_allocate_exception(PLT)
	ldr	r1, .L980+16
	ldr	r2, .L980+20
	ldr	r3, .L980+24
	ldr	r1, [r5, r1]
	add	r1, r1, #8
	str	r1, [r0]
	ldr	r2, [r5, r2]
	ldr	r1, [r5, r3]
	bl	__cxa_throw(PLT)
.LEHE36:
.L934:
	ldr	r0, [sp, #20]
	cmp	r0, #0
	beq	.L967
	bl	_ZNSt16_Sp_counted_baseILN9__gnu_cxx12_Lock_policyE1EE10_M_releaseEv(PLT)
	b	.L967
.L976:
	mov	r0, #4
	bl	__cxa_allocate_exception(PLT)
	ldr	r1, .L980+28
	ldr	r2, .L980+32
	ldr	r3, .L980+36
	ldr	r1, [r5, r1]
	add	r1, r1, #8
	str	r1, [r0]
	ldr	r2, [r5, r2]
	ldr	r1, [r5, r3]
.LEHB37:
	bl	__cxa_throw(PLT)
.LEHE37:
.L936:
	cmn	r1, #1
	bne	.L967
.LEHB38:
	bl	__cxa_call_unexpected(PLT)
.LEHE38:
.L981:
	.align	2
.L980:
	.word	_GLOBAL_OFFSET_TABLE_-(.LPIC58+8)
	.word	.LC23-(.LPIC56+8)
	.word	.LC24-(.LPIC57+8)
	.word	_ZL28__gthrw___pthread_key_createPjPFvPvE(GOT)
	.word	_ZTVN9__gnu_cxx24__concurrence_lock_errorE(GOT)
	.word	_ZN9__gnu_cxx24__concurrence_lock_errorD1Ev(GOT)
	.word	_ZTIN9__gnu_cxx24__concurrence_lock_errorE(GOT)
	.word	_ZTVN9__gnu_cxx26__concurrence_unlock_errorE(GOT)
	.word	_ZN9__gnu_cxx26__concurrence_unlock_errorD1Ev(GOT)
	.word	_ZTIN9__gnu_cxx26__concurrence_unlock_errorE(GOT)
	.personality	__gxx_personality_v0
	.handlerdata
	.align	2
.LLSDA7737:
	.byte	0xff
	.byte	0x90
	.uleb128 .LLSDATT7737-.LLSDATTD7737
.LLSDATTD7737:
	.byte	0x1
	.uleb128 .LLSDACSE7737-.LLSDACSB7737
.LLSDACSB7737:
	.uleb128 .LEHB33-.LFB7737
	.uleb128 .LEHE33-.LEHB33
	.uleb128 0
	.uleb128 0
	.uleb128 .LEHB34-.LFB7737
	.uleb128 .LEHE34-.LEHB34
	.uleb128 .L934-.LFB7737
	.uleb128 0
	.uleb128 .LEHB35-.LFB7737
	.uleb128 .LEHE35-.LEHB35
	.uleb128 .L935-.LFB7737
	.uleb128 0
	.uleb128 .LEHB36-.LFB7737
	.uleb128 .LEHE36-.LEHB36
	.uleb128 0
	.uleb128 0
	.uleb128 .LEHB37-.LFB7737
	.uleb128 .LEHE37-.LEHB37
	.uleb128 .L936-.LFB7737
	.uleb128 0x1
	.uleb128 .LEHB38-.LFB7737
	.uleb128 .LEHE38-.LEHB38
	.uleb128 0
	.uleb128 0
.LLSDACSE7737:
	.byte	0x7f
	.byte	0
	.align	2
.LLSDATT7737:
	.word	0
	.text
	.fnend
	.size	_ZN8asiodnp311LinkSession13AcceptSessionERKNSt7__cxx1112basic_stringIcSt11char_traitsIcESaIcEEESt10shared_ptrIN8opendnp311ISOEHandlerEES9_INSA_18IMasterApplicationEERKNS_17MasterStackConfigE, .-_ZN8asiodnp311LinkSession13AcceptSessionERKNSt7__cxx1112basic_stringIcSt11char_traitsIcESaIcEEESt10shared_ptrIN8opendnp311ISOEHandlerEES9_INSA_18IMasterApplicationEERKNS_17MasterStackConfigE
	.set	.LTHUNK6,_ZN8asiodnp311LinkSession13AcceptSessionERKNSt7__cxx1112basic_stringIcSt11char_traitsIcESaIcEEESt10shared_ptrIN8opendnp311ISOEHandlerEES9_INSA_18IMasterApplicationEERKNS_17MasterStackConfigE
	.align	2
	.global	_ZThn24_N8asiodnp311LinkSession13AcceptSessionERKNSt7__cxx1112basic_stringIcSt11char_traitsIcESaIcEEESt10shared_ptrIN8opendnp311ISOEHandlerEES9_INSA_18IMasterApplicationEERKNS_17MasterStackConfigE
	.syntax unified
	.arm
	.fpu vfp
	.type	_ZThn24_N8asiodnp311LinkSession13AcceptSessionERKNSt7__cxx1112basic_stringIcSt11char_traitsIcESaIcEEESt10shared_ptrIN8opendnp311ISOEHandlerEES9_INSA_18IMasterApplicationEERKNS_17MasterStackConfigE, %function
_ZThn24_N8asiodnp311LinkSession13AcceptSessionERKNSt7__cxx1112basic_stringIcSt11char_traitsIcESaIcEEESt10shared_ptrIN8opendnp311ISOEHandlerEES9_INSA_18IMasterApplicationEERKNS_17MasterStackConfigE:
	.fnstart
.LFB10334:
	@ args = 0, pretend = 0, frame = 0
	@ frame_needed = 0, uses_anonymous_args = 0
	sub	r1, r1, #24
	b	.LTHUNK6(PLT)
	.fnend
	.size	_ZThn24_N8asiodnp311LinkSession13AcceptSessionERKNSt7__cxx1112basic_stringIcSt11char_traitsIcESaIcEEESt10shared_ptrIN8opendnp311ISOEHandlerEES9_INSA_18IMasterApplicationEERKNS_17MasterStackConfigE, .-_ZThn24_N8asiodnp311LinkSession13AcceptSessionERKNSt7__cxx1112basic_stringIcSt11char_traitsIcESaIcEEESt10shared_ptrIN8opendnp311ISOEHandlerEES9_INSA_18IMasterApplicationEERKNS_17MasterStackConfigE
	.align	2
	.global	_ZN8asiodnp311LinkSession12ShutdownImplEv
	.syntax unified
	.arm
	.fpu vfp
	.type	_ZN8asiodnp311LinkSession12ShutdownImplEv, %function
_ZN8asiodnp311LinkSession12ShutdownImplEv:
	.fnstart
.LFB7712:
	@ args = 0, pretend = 0, frame = 56
	@ frame_needed = 0, uses_anonymous_args = 0
	ldrb	r3, [r0, #28]	@ zero_extendqisi2
	push	{r4, r5, r6, r7, r8, r9, r10, fp, lr}
	.save {r4, r5, r6, r7, r8, r9, r10, fp, lr}
	.pad #68
	sub	sp, sp, #68
	ldr	r4, .L1238
	cmp	r3, #0
.LPIC59:
	add	r4, pc, r4
	beq	.L1232
.L982:
	add	sp, sp, #68
	@ sp needed
	pop	{r4, r5, r6, r7, r8, r9, r10, fp, pc}
.L1232:
	ldr	ip, [r0, #64]
	ldr	r3, [r0, #472]
	ldr	r2, [r0, #468]
	ldr	r1, [ip]
	mov	lr, #1
	cmp	r3, #0
	ldr	r1, [r1, #24]
	ldrd	r8, [r0, #48]
	strb	lr, [r0, #28]
	str	r3, [sp, #52]
	str	r2, [sp, #48]
	beq	.L984
	ldr	r2, .L1238+4
	ldr	r2, [r4, r2]
	cmp	r2, #0
	beq	.L985
	add	r3, r3, #28
	mcr	p15, 0, r0, c7, c10, 5
.L1207:
	ldrex	r2, [r3]
	add	r2, r2, #1
	strex	lr, r2, [r3]
	cmp	lr, #0
	bne	.L1207
	mcr	p15, 0, r0, c7, c10, 5
.L984:
	add	r3, sp, #48
	mov	lr, r3
	mov	r7, r0
	str	r3, [sp, #12]
	mov	r2, r8
	mov	r3, r9
	mov	r0, ip
	str	lr, [sp]
.LEHB39:
	blx	r1
.LEHE39:
	ldr	r5, [sp, #52]
	cmp	r5, #0
	beq	.L987
	ldr	r3, .L1238+4
	ldr	r3, [r4, r3]
	cmp	r3, #0
	beq	.L988
	add	r3, r5, #28
	mcr	p15, 0, r0, c7, c10, 5
.L1206:
	ldrex	r2, [r3]
	sub	r1, r2, #1
	strex	r0, r1, [r3]
	cmp	r0, #0
	bne	.L1206
	cmp	r2, #1
	mcr	p15, 0, r0, c7, c10, 5
	beq	.L1233
.L987:
	ldr	r0, [r7, #468]
	cmp	r0, #0
	beq	.L992
.LEHB40:
	bl	_ZN8asiodnp318MasterSessionStack16OnLowerLayerDownEv(PLT)
.L992:
	add	r0, r7, #456
	bl	_ZN7openpal8TimerRef6CancelEv(PLT)
	ldr	r6, [r7, #72]
	ldrb	r3, [r6, #28]	@ zero_extendqisi2
	cmp	r3, #0
	beq	.L1234
.L994:
	ldr	r5, [r7, #16]
	cmp	r5, #0
	beq	.L995
	ldr	r3, .L1238+4
	add	r0, r5, #4
	str	r0, [sp, #48]
	ldr	r8, [r4, r3]
	cmp	r8, #0
	beq	.L1037
	bl	_ZL26__gthrw_pthread_mutex_lockP15pthread_mutex_t(PLT)
	cmp	r0, #0
	bne	.L1211
	add	r6, r5, #28
	mcr	p15, 0, r0, c7, c10, 5
.L1194:
	ldrex	r3, [r6]
	add	r2, r3, #1
	strex	r1, r2, [r6]
	cmp	r1, #0
	bne	.L1194
	cmp	r3, #0
	mcr	p15, 0, r0, c7, c10, 5
	beq	.L1090
	ldr	r0, [sp, #48]
	bl	_ZL28__gthrw_pthread_mutex_unlockP15pthread_mutex_t(PLT)
	cmp	r0, #0
	bne	.L1093
	ldr	r2, [r7, #72]
	ldr	r3, [r7, #12]
	str	r5, [sp, #40]
	ldr	r7, [r2, #12]
	str	r3, [sp, #36]
	mcr	p15, 0, r0, c7, c10, 5
.L1193:
	ldrex	r3, [r6]
	add	r3, r3, #1
	strex	r2, r3, [r6]
	cmp	r2, #0
	bne	.L1193
	mcr	p15, 0, r0, c7, c10, 5
	ldr	r9, [sp, #40]
.L1094:
	add	r0, sp, #36
	bl	_ZN4asio28asio_handler_is_continuationEz(PLT)
	ldr	r3, .L1238+8
	ldr	r2, [r7, #20]
	str	r2, [sp, #16]
	ldr	fp, [r4, r3]
	mov	r10, r0
	ldr	r0, [fp]
	bl	pthread_getspecific(PLT)
	cmp	r0, #0
	beq	.L1042
	ldr	r3, [r0, #4]
	cmp	r3, #0
	beq	.L1042
	ldr	r4, [r3]
	cmp	r4, #0
	beq	.L1042
	mov	r2, #0
	str	r2, [r3]
	ldrb	r3, [r4]	@ zero_extendqisi2
	cmp	r3, #19
	bls	.L1235
.L1210:
	strb	r3, [r4, #20]
	ldr	r3, .L1238+12
	ldr	r0, [r7, #24]
	ldr	r2, [sp, #36]
.LPIC60:
	add	r3, pc, r3
	str	r9, [r4, #16]
	mov	r9, #0
	str	r3, [r4, #4]
	str	r2, [r4, #12]
	add	r0, r0, #12
	str	r9, [r4]
	str	r9, [r4, #8]
	str	r9, [sp, #40]
	str	r9, [sp, #36]
	bl	pthread_mutex_lock(PLT)
	ldr	r0, [r7, #24]
	ldrb	r3, [r0, #36]	@ zero_extendqisi2
	cmp	r3, r9
	beq	.L1045
	ldr	r3, [r0, #44]
	str	r9, [r4]
	cmp	r3, r9
	strne	r4, [r3]
	streq	r4, [r0, #44]
	strne	r4, [r0, #44]
	streq	r4, [r0, #40]
	add	r0, r0, #12
	bl	pthread_mutex_unlock(PLT)
.L1065:
	cmp	r8, #0
	bne	.L1071
.L1072:
	ldr	r3, [r5, #28]
	cmp	r3, #1
	sub	r3, r3, #1
	str	r3, [r5, #28]
	bne	.L982
	ldr	r3, [r5]
	mov	r0, r5
	ldr	r3, [r3, #8]
	blx	r3
	mcr	p15, 0, r0, c7, c10, 5
	ldr	r2, [r5, #32]
	sub	r3, r2, #1
	str	r3, [r5, #32]
	b	.L1096
.L1234:
	ldr	r3, [r6]
	mov	r2, #1
	strb	r2, [r6, #28]
	ldr	r3, [r3, #16]
	mov	r0, r6
	blx	r3
.LEHE40:
	ldr	r5, [r6, #8]
	cmp	r5, #0
	beq	.L995
	ldr	r3, .L1238+4
	add	r0, r5, #4
	str	r0, [sp, #48]
	ldr	r8, [r4, r3]
	cmp	r8, #0
	beq	.L996
	bl	_ZL26__gthrw_pthread_mutex_lockP15pthread_mutex_t(PLT)
	cmp	r0, #0
	bne	.L1211
	add	r10, r5, #28
	mcr	p15, 0, r0, c7, c10, 5
.L1198:
	ldrex	r3, [r10]
	add	r2, r3, #1
	strex	r1, r2, [r10]
	cmp	r1, #0
	bne	.L1198
	cmp	r3, #0
	mcr	p15, 0, r0, c7, c10, 5
	beq	.L1083
	ldr	r0, [sp, #48]
	bl	_ZL28__gthrw_pthread_mutex_unlockP15pthread_mutex_t(PLT)
	cmp	r0, #0
	bne	.L1086
	ldr	r3, [r6, #4]
	str	r5, [sp, #40]
	str	r3, [sp, #36]
	ldr	r6, [r6, #12]
	mcr	p15, 0, r0, c7, c10, 5
.L1197:
	ldrex	r3, [r10]
	add	r3, r3, #1
	strex	r2, r3, [r10]
	cmp	r2, #0
	bne	.L1197
	mcr	p15, 0, r0, c7, c10, 5
	ldr	r9, [sp, #40]
.L1087:
	add	r0, sp, #36
	bl	_ZN4asio28asio_handler_is_continuationEz(PLT)
	ldr	r3, .L1238+8
	ldr	r2, [r6, #20]
	str	r2, [sp, #24]
	str	r0, [sp, #28]
	ldr	fp, [r4, r3]
	ldr	r0, [fp]
	bl	pthread_getspecific(PLT)
	cmp	r0, #0
	beq	.L1001
	ldr	r2, [r0, #4]
	cmp	r2, #0
	beq	.L1001
	ldr	r3, [r2]
	cmp	r3, #0
	beq	.L1001
	mov	r1, #0
	str	r1, [r2]
	ldrb	r2, [r3]	@ zero_extendqisi2
	cmp	r2, #19
	bls	.L1236
.L1209:
	ldr	r1, .L1238+16
	strb	r2, [r3, #20]
	mov	r2, #0
	str	r2, [r3]
	ldr	r0, [r4, r1]
	ldr	r1, [sp, #36]
	str	r0, [r3, #4]
	ldr	r0, [r6, #24]
	str	r9, [r3, #16]
	str	r2, [r3, #8]
	str	r1, [r3, #12]
	add	r0, r0, #12
	str	r3, [sp, #16]
	str	r2, [sp, #40]
	str	r2, [sp, #36]
	str	r2, [sp, #20]
	bl	pthread_mutex_lock(PLT)
	ldr	r0, [r6, #24]
	ldr	r3, [sp, #16]
	ldrb	r9, [r0, #36]	@ zero_extendqisi2
	cmp	r9, #0
	beq	.L1004
	ldr	r1, [r0, #44]
	ldr	r2, [sp, #20]
	cmp	r1, #0
	str	r2, [r3]
	add	r0, r0, #12
	strne	r3, [r1]
	streq	r3, [r0, #32]
	strne	r3, [r0, #32]
	streq	r3, [r0, #28]
	bl	pthread_mutex_unlock(PLT)
.L1024:
	cmp	r8, #0
	beq	.L1031
.L1030:
	mcr	p15, 0, r0, c7, c10, 5
.L1203:
	ldrex	r3, [r10]
	sub	r2, r3, #1
	strex	r1, r2, [r10]
	cmp	r1, #0
	bne	.L1203
	cmp	r3, #1
	mcr	p15, 0, r0, c7, c10, 5
	bne	.L994
	ldr	r3, [r5]
	mov	r0, r5
	ldr	r3, [r3, #8]
	blx	r3
	add	r3, r5, #32
	mcr	p15, 0, r0, c7, c10, 5
	mcr	p15, 0, r0, c7, c10, 5
.L1195:
	ldrex	r2, [r3]
	sub	r1, r2, #1
	strex	r0, r1, [r3]
	cmp	r0, #0
	bne	.L1195
	mcr	p15, 0, r0, c7, c10, 5
.L1089:
	cmp	r2, #1
	bne	.L994
	ldr	r3, [r5]
	mov	r0, r5
	ldr	r3, [r3, #12]
	blx	r3
	b	.L994
.L985:
	ldr	r2, [r3, #28]
	add	r2, r2, #1
	str	r2, [r3, #28]
	b	.L984
.L1037:
	ldr	r3, [r5, #28]
	add	r6, r5, #28
	add	r2, r3, #1
	cmp	r3, #0
	str	r2, [r5, #28]
	beq	.L1090
	ldr	r1, [r7, #72]
	ldr	r2, [r7, #12]
	add	r3, r3, #2
	ldr	r7, [r1, #12]
	str	r5, [sp, #40]
	str	r2, [sp, #36]
	str	r3, [r5, #28]
	mov	r9, r5
	b	.L1094
.L988:
	ldr	r3, [r5, #28]
	cmp	r3, #1
	sub	r3, r3, #1
	str	r3, [r5, #28]
	bne	.L987
	ldr	r3, [r5]
	mov	r0, r5
	ldr	r3, [r3, #8]
	blx	r3
	mcr	p15, 0, r0, c7, c10, 5
	ldr	r2, [r5, #32]
	sub	r3, r2, #1
	str	r3, [r5, #32]
	b	.L1082
.L1235:
	mov	r0, r4
	bl	_ZdlPv(PLT)
.L1042:
	mov	r0, #21
.LEHB41:
	bl	_Znwj(PLT)
.LEHE41:
	mov	r4, r0
	mov	r3, #20
	b	.L1210
.L1045:
	mov	r2, #1
	strb	r2, [r0, #36]
	add	r0, r0, #12
	str	r3, [sp, #20]
	bl	pthread_mutex_unlock(PLT)
	ldr	r7, [r7, #24]
	ldr	r3, [sp, #20]
	str	r3, [r4]
	ldr	r3, [r7, #52]
	cmp	r3, #0
	strne	r4, [r3]
	ldr	r3, [sp, #16]
	strne	r4, [r7, #52]
	streq	r4, [r7, #52]
	streq	r4, [r7, #48]
	ldr	r4, [r3, #20]
	ldrb	r3, [r4, #20]	@ zero_extendqisi2
	orr	r10, r10, r3
	tst	r10, #255
	beq	.L1051
	ldr	r0, [fp]
	bl	pthread_getspecific(PLT)
	cmp	r0, #0
	beq	.L1051
	ldr	r3, [r0]
	cmp	r3, r4
	bne	.L1054
	b	.L1052
.L1182:
	ldr	r3, [r0]
	cmp	r4, r3
	beq	.L1052
.L1054:
	ldr	r0, [r0, #8]
	cmp	r0, #0
	bne	.L1182
.L1051:
	add	r3, r4, #124
	mcr	p15, 0, r0, c7, c10, 5
.L1202:
	ldrex	r2, [r3]
	add	r2, r2, #1
	strex	r1, r2, [r3]
	cmp	r1, #0
	bne	.L1202
	add	r9, r4, #24
	mcr	p15, 0, r0, c7, c10, 5
	mov	r0, r9
	bl	pthread_mutex_lock(PLT)
	ldr	r3, [r4, #132]
	mov	r2, #0
	cmp	r3, r2
	str	r2, [r7]
	strne	r7, [r3]
	ldr	r3, [r4, #96]
	strne	r7, [r4, #132]
	orr	r3, r3, #1
	streq	r7, [r4, #132]
	streq	r7, [r4, #128]
	cmp	r3, #1
	add	r7, r4, #48
	str	r3, [r4, #96]
	beq	.L1061
	mov	r0, r9
	bl	pthread_mutex_unlock(PLT)
	mov	r0, r7
	bl	pthread_cond_signal(PLT)
.L1062:
	ldr	r4, [sp, #40]
.L1058:
	cmp	r4, #0
	beq	.L1065
	cmp	r8, #0
	beq	.L1066
	add	r3, r4, #28
	mcr	p15, 0, r0, c7, c10, 5
.L1201:
	ldrex	r2, [r3]
	sub	r1, r2, #1
	strex	r0, r1, [r3]
	cmp	r0, #0
	bne	.L1201
	cmp	r2, #1
	mcr	p15, 0, r0, c7, c10, 5
	beq	.L1237
.L1071:
	mcr	p15, 0, r0, c7, c10, 5
.L1200:
	ldrex	r3, [r6]
	sub	r2, r3, #1
	strex	r1, r2, [r6]
	cmp	r1, #0
	bne	.L1200
	cmp	r3, #1
	mcr	p15, 0, r0, c7, c10, 5
	bne	.L982
	ldr	r3, [r5]
	mov	r0, r5
	ldr	r3, [r3, #8]
	blx	r3
	add	r3, r5, #32
	mcr	p15, 0, r0, c7, c10, 5
	mcr	p15, 0, r0, c7, c10, 5
.L1191:
	ldrex	r2, [r3]
	sub	r1, r2, #1
	strex	r0, r1, [r3]
	cmp	r0, #0
	bne	.L1191
	mcr	p15, 0, r0, c7, c10, 5
.L1096:
	cmp	r2, #1
	bne	.L982
	ldr	r3, [r5]
	mov	r0, r5
	ldr	r3, [r3, #12]
	blx	r3
	b	.L982
.L1236:
	mov	r0, r3
	bl	_ZdlPv(PLT)
.L1001:
	mov	r0, #21
.LEHB42:
	bl	_Znwj(PLT)
.LEHE42:
	mov	r3, r0
	mov	r2, #20
	b	.L1209
.L1233:
	ldr	r3, [r5]
	mov	r0, r5
	ldr	r3, [r3, #8]
	blx	r3
	add	r3, r5, #32
	mcr	p15, 0, r0, c7, c10, 5
	mcr	p15, 0, r0, c7, c10, 5
.L1199:
	ldrex	r2, [r3]
	sub	r1, r2, #1
	strex	r0, r1, [r3]
	cmp	r0, #0
	bne	.L1199
	mcr	p15, 0, r0, c7, c10, 5
.L1082:
	cmp	r2, #1
	bne	.L987
	ldr	r3, [r5]
	mov	r0, r5
	ldr	r3, [r3, #12]
	blx	r3
	b	.L987
.L1061:
	ldrb	r2, [r4, #120]	@ zero_extendqisi2
	cmp	r2, #0
	bne	.L1063
	ldr	r0, [r4, #104]
	cmp	r0, #0
	beq	.L1063
	strb	r3, [r4, #120]
	ldr	r3, [sp, #12]
	add	r1, r0, #48
	mov	ip, #-2147483639
	str	r1, [sp, #56]
	str	r2, [r3, #4]
	str	r2, [r3, #12]
	str	ip, [sp, #48]
	mov	r1, #3
	ldr	r2, [r0, #48]
	ldr	r0, [r0, #56]
	bl	epoll_ctl(PLT)
.L1063:
	mov	r0, r9
	bl	pthread_mutex_unlock(PLT)
	b	.L1062
.L1031:
	ldr	r3, [r5, #28]
	cmp	r3, #1
	sub	r3, r3, #1
	str	r3, [r5, #28]
	bne	.L994
	ldr	r3, [r5]
	mov	r0, r5
	ldr	r3, [r3, #8]
	blx	r3
	mcr	p15, 0, r0, c7, c10, 5
	ldr	r2, [r5, #32]
	sub	r3, r2, #1
	str	r3, [r5, #32]
	b	.L1089
.L996:
	ldr	r3, [r5, #28]
	add	r10, r5, #28
	add	r2, r3, #1
	cmp	r3, #0
	str	r2, [r5, #28]
	beq	.L1083
	ldr	r2, [r6, #4]
	add	r3, r3, #2
	ldr	r6, [r6, #12]
	str	r5, [sp, #40]
	str	r2, [sp, #36]
	str	r3, [r5, #28]
	mov	r9, r5
	b	.L1087
.L1004:
	mov	r2, #1
	strb	r2, [r0, #36]
	add	r0, r0, #12
	str	r3, [sp, #16]
	bl	pthread_mutex_unlock(PLT)
	ldr	r6, [r6, #24]
	ldr	r3, [sp, #16]
	ldr	r2, [r6, #52]
	str	r9, [r3]
	cmp	r2, #0
	strne	r3, [r2]
	streq	r3, [r6, #52]
	strne	r3, [r6, #52]
	streq	r3, [r6, #48]
	ldr	r3, [sp, #24]
	ldr	r9, [r3, #20]
	ldr	r3, [sp, #28]
	ldrb	r2, [r9, #20]	@ zero_extendqisi2
	orr	r3, r3, r2
	tst	r3, #255
	beq	.L1010
	ldr	r0, [fp]
	bl	pthread_getspecific(PLT)
	cmp	r0, #0
	beq	.L1010
	ldr	r2, [r0]
	cmp	r2, r9
	bne	.L1013
	b	.L1011
.L1181:
	ldr	r3, [r0]
	cmp	r9, r3
	beq	.L1011
.L1013:
	ldr	r0, [r0, #8]
	cmp	r0, #0
	bne	.L1181
.L1010:
	add	r2, r9, #124
	mcr	p15, 0, r0, c7, c10, 5
.L1205:
	ldrex	r3, [r2]
	add	r3, r3, #1
	strex	r1, r3, [r2]
	cmp	r1, #0
	bne	.L1205
	add	fp, r9, #24
	mcr	p15, 0, r0, c7, c10, 5
	mov	r0, fp
	bl	pthread_mutex_lock(PLT)
	ldr	r2, [r9, #132]
	mov	r1, #0
	cmp	r2, r1
	str	r1, [r6]
	strne	r6, [r2]
	ldr	r2, [r9, #96]
	strne	r6, [r9, #132]
	orr	r2, r2, #1
	streq	r6, [r9, #132]
	streq	r6, [r9, #128]
	cmp	r2, #1
	add	r6, r9, #48
	str	r2, [r9, #96]
	beq	.L1020
	mov	r0, fp
	bl	pthread_mutex_unlock(PLT)
	mov	r0, r6
	bl	pthread_cond_signal(PLT)
.L1021:
	ldr	r9, [sp, #40]
.L1017:
	cmp	r9, #0
	beq	.L1024
	cmp	r8, #0
	beq	.L1025
	add	r3, r9, #28
	mcr	p15, 0, r0, c7, c10, 5
.L1204:
	ldrex	r2, [r3]
	sub	r1, r2, #1
	strex	r0, r1, [r3]
	cmp	r0, #0
	bne	.L1204
	cmp	r2, #1
	mcr	p15, 0, r0, c7, c10, 5
	bne	.L1030
	ldr	r3, [r9]
	mov	r0, r9
	ldr	r3, [r3, #8]
	blx	r3
	add	r3, r9, #32
	mcr	p15, 0, r0, c7, c10, 5
	mcr	p15, 0, r0, c7, c10, 5
.L1196:
	ldrex	r2, [r3]
	sub	r1, r2, #1
	strex	r0, r1, [r3]
	cmp	r0, #0
	bne	.L1196
	mcr	p15, 0, r0, c7, c10, 5
.L1088:
	cmp	r2, #1
	bne	.L1024
	ldr	r3, [r9]
	mov	r0, r9
	ldr	r3, [r3, #12]
	blx	r3
	b	.L1024
.L1066:
	ldr	r3, [r4, #28]
	cmp	r3, #1
	sub	r3, r3, #1
	str	r3, [r4, #28]
	bne	.L1072
	ldr	r3, [r4]
	mov	r0, r4
	ldr	r3, [r3, #8]
	blx	r3
	mcr	p15, 0, r0, c7, c10, 5
	ldr	r2, [r4, #32]
	sub	r3, r2, #1
	str	r3, [r4, #32]
.L1095:
	cmp	r2, #1
	bne	.L1065
	ldr	r3, [r4]
	mov	r0, r4
	ldr	r3, [r3, #12]
	blx	r3
	b	.L1065
.L1052:
	ldr	r3, [r0, #4]
	cmp	r3, #0
	beq	.L1051
	ldr	r1, [r3, #8]
	ldr	r2, [r3, #12]
	cmp	r1, #0
	add	r2, r2, #1
	mov	r0, #0
	str	r2, [r3, #12]
	ldrne	r4, [sp, #40]
	str	r0, [r7]
	ldreq	r4, [sp, #40]
	strne	r7, [r1]
	streq	r7, [r3, #8]
	strne	r7, [r3, #8]
	streq	r7, [r3, #4]
	b	.L1058
.L1025:
	ldr	r3, [r9, #28]
	cmp	r3, #1
	sub	r3, r3, #1
	str	r3, [r9, #28]
	bne	.L1031
	ldr	r3, [r9]
	mov	r0, r9
	ldr	r3, [r3, #8]
	blx	r3
	mcr	p15, 0, r0, c7, c10, 5
	ldr	r2, [r9, #32]
	sub	r3, r2, #1
	str	r3, [r9, #32]
	b	.L1088
.L1011:
	ldr	r2, [r0, #4]
	cmp	r2, #0
	beq	.L1010
	ldr	r1, [r2, #8]
	ldr	r3, [r2, #12]
	cmp	r1, #0
	add	r3, r3, #1
	mov	r0, #0
	str	r3, [r2, #12]
	ldrne	r9, [sp, #40]
	str	r0, [r6]
	ldreq	r9, [sp, #40]
	strne	r6, [r1]
	streq	r6, [r2, #8]
	strne	r6, [r2, #8]
	streq	r6, [r2, #4]
	b	.L1017
.L1237:
	ldr	r3, [r4]
	mov	r0, r4
	ldr	r3, [r3, #8]
	blx	r3
	add	r3, r4, #32
	mcr	p15, 0, r0, c7, c10, 5
	mcr	p15, 0, r0, c7, c10, 5
.L1192:
	ldrex	r2, [r3]
	sub	r1, r2, #1
	strex	r0, r1, [r3]
	cmp	r0, #0
	bne	.L1192
	mcr	p15, 0, r0, c7, c10, 5
	b	.L1095
.L1020:
	ldrb	r1, [r9, #120]	@ zero_extendqisi2
	cmp	r1, #0
	bne	.L1022
	ldr	r0, [r9, #104]
	cmp	r0, #0
	beq	.L1022
	strb	r2, [r9, #120]
	ldr	r2, [sp, #12]
	add	r3, r0, #48
	mov	ip, #-2147483639
	str	r3, [sp, #56]
	str	r1, [r2, #4]
	str	r1, [r2, #12]
	str	ip, [sp, #48]
	mov	r3, r2
	mov	r1, #3
	ldr	r2, [r0, #48]
	ldr	r0, [r0, #56]
	bl	epoll_ctl(PLT)
.L1022:
	mov	r0, fp
	bl	pthread_mutex_unlock(PLT)
	b	.L1021
.L1090:
	mov	r3, #0
	str	r3, [r5, #28]
.LEHB43:
	bl	_ZSt20__throw_bad_weak_ptrv(PLT)
.LEHE43:
.L1102:
.L1212:
	ldr	r0, [sp, #12]
	bl	_ZN9__gnu_cxx13__scoped_lockD1Ev(PLT)
.L1214:
.LEHB44:
	bl	__cxa_end_cleanup(PLT)
.L1211:
	mov	r0, #4
	bl	__cxa_allocate_exception(PLT)
	ldr	r1, .L1238+20
	ldr	r2, .L1238+24
	ldr	r3, .L1238+28
	ldr	r1, [r4, r1]
	add	r1, r1, #8
	str	r1, [r0]
	ldr	r2, [r4, r2]
	ldr	r1, [r4, r3]
	bl	__cxa_throw(PLT)
.LEHE44:
.L1093:
	mov	r0, #4
	bl	__cxa_allocate_exception(PLT)
	ldr	r1, .L1238+32
	ldr	r2, .L1238+36
	ldr	r3, .L1238+40
	ldr	r1, [r4, r1]
	add	r1, r1, #8
	str	r1, [r0]
	ldr	r2, [r4, r2]
	ldr	r1, [r4, r3]
.LEHB45:
	bl	__cxa_throw(PLT)
.LEHE45:
.L1103:
.L1215:
	cmn	r1, #1
	bne	.L1214
.LEHB46:
	bl	__cxa_call_unexpected(PLT)
.L995:
	bl	_ZSt20__throw_bad_weak_ptrv(PLT)
.LEHE46:
.L1097:
	ldr	r0, [sp, #52]
	cmp	r0, #0
	beq	.L1214
.L1219:
	bl	_ZNSt16_Sp_counted_baseILN9__gnu_cxx12_Lock_policyE1EE10_M_releaseEv(PLT)
	b	.L1214
.L1083:
	mov	r3, #0
	str	r3, [r5, #28]
.LEHB47:
	bl	_ZSt20__throw_bad_weak_ptrv(PLT)
.LEHE47:
.L1086:
	mov	r0, #4
	bl	__cxa_allocate_exception(PLT)
	ldr	r1, .L1238+32
	ldr	r2, .L1238+36
	ldr	r3, .L1238+40
	ldr	r1, [r4, r1]
	add	r1, r1, #8
	str	r1, [r0]
	ldr	r2, [r4, r2]
	ldr	r1, [r4, r3]
.LEHB48:
	bl	__cxa_throw(PLT)
.LEHE48:
.L1099:
	b	.L1212
.L1100:
	b	.L1215
.L1098:
.L1218:
	cmp	r9, #0
	beq	.L1074
	mov	r0, r9
	bl	_ZNSt16_Sp_counted_baseILN9__gnu_cxx12_Lock_policyE1EE10_M_releaseEv(PLT)
.L1074:
	mov	r0, r5
	b	.L1219
.L1101:
	b	.L1218
.L1239:
	.align	2
.L1238:
	.word	_GLOBAL_OFFSET_TABLE_-(.LPIC59+8)
	.word	_ZL28__gthrw___pthread_key_createPjPFvPvE(GOT)
	.word	_ZN4asio6detail10call_stackINS0_15task_io_serviceENS0_27task_io_service_thread_infoEE4top_E(GOT)
	.word	_ZN4asio6detail18completion_handlerIZN8asiodnp311LinkSession12ShutdownImplEvEUlvE_E11do_completeEPNS0_15task_io_serviceEPNS0_25task_io_service_operationERKSt10error_codej-(.LPIC60+8)
	.word	_ZN4asio6detail18completion_handlerIZN7asiopal13IAsyncChannel8ShutdownEvEUlvE_E11do_completeEPNS0_15task_io_serviceEPNS0_25task_io_service_operationERKSt10error_codej(GOT)
	.word	_ZTVN9__gnu_cxx24__concurrence_lock_errorE(GOT)
	.word	_ZN9__gnu_cxx24__concurrence_lock_errorD1Ev(GOT)
	.word	_ZTIN9__gnu_cxx24__concurrence_lock_errorE(GOT)
	.word	_ZTVN9__gnu_cxx26__concurrence_unlock_errorE(GOT)
	.word	_ZN9__gnu_cxx26__concurrence_unlock_errorD1Ev(GOT)
	.word	_ZTIN9__gnu_cxx26__concurrence_unlock_errorE(GOT)
	.personality	__gxx_personality_v0
	.handlerdata
	.align	2
.LLSDA7712:
	.byte	0xff
	.byte	0x90
	.uleb128 .LLSDATT7712-.LLSDATTD7712
.LLSDATTD7712:
	.byte	0x1
	.uleb128 .LLSDACSE7712-.LLSDACSB7712
.LLSDACSB7712:
	.uleb128 .LEHB39-.LFB7712
	.uleb128 .LEHE39-.LEHB39
	.uleb128 .L1097-.LFB7712
	.uleb128 0
	.uleb128 .LEHB40-.LFB7712
	.uleb128 .LEHE40-.LEHB40
	.uleb128 0
	.uleb128 0
	.uleb128 .LEHB41-.LFB7712
	.uleb128 .LEHE41-.LEHB41
	.uleb128 .L1101-.LFB7712
	.uleb128 0
	.uleb128 .LEHB42-.LFB7712
	.uleb128 .LEHE42-.LEHB42
	.uleb128 .L1098-.LFB7712
	.uleb128 0
	.uleb128 .LEHB43-.LFB7712
	.uleb128 .LEHE43-.LEHB43
	.uleb128 .L1102-.LFB7712
	.uleb128 0
	.uleb128 .LEHB44-.LFB7712
	.uleb128 .LEHE44-.LEHB44
	.uleb128 0
	.uleb128 0
	.uleb128 .LEHB45-.LFB7712
	.uleb128 .LEHE45-.LEHB45
	.uleb128 .L1103-.LFB7712
	.uleb128 0x1
	.uleb128 .LEHB46-.LFB7712
	.uleb128 .LEHE46-.LEHB46
	.uleb128 0
	.uleb128 0
	.uleb128 .LEHB47-.LFB7712
	.uleb128 .LEHE47-.LEHB47
	.uleb128 .L1099-.LFB7712
	.uleb128 0
	.uleb128 .LEHB48-.LFB7712
	.uleb128 .LEHE48-.LEHB48
	.uleb128 .L1100-.LFB7712
	.uleb128 0x1
.LLSDACSE7712:
	.byte	0x7f
	.byte	0
	.align	2
.LLSDATT7712:
	.word	0
	.text
	.fnend
	.size	_ZN8asiodnp311LinkSession12ShutdownImplEv, .-_ZN8asiodnp311LinkSession12ShutdownImplEv
	.align	2
	.syntax unified
	.arm
	.fpu vfp
	.type	_ZNSt17_Function_handlerIFvvEZN8asiodnp311LinkSession8ShutdownEvEUlvE_E9_M_invokeERKSt9_Any_data, %function
_ZNSt17_Function_handlerIFvvEZN8asiodnp311LinkSession8ShutdownEvEUlvE_E9_M_invokeERKSt9_Any_data:
	.fnstart
.LFB9013:
	@ args = 0, pretend = 0, frame = 0
	@ frame_needed = 0, uses_anonymous_args = 0
	@ link register save eliminated.
	ldr	r3, [r0]
	ldr	r0, [r3]
	b	_ZN8asiodnp311LinkSession12ShutdownImplEv(PLT)
	.cantunwind
	.fnend
	.size	_ZNSt17_Function_handlerIFvvEZN8asiodnp311LinkSession8ShutdownEvEUlvE_E9_M_invokeERKSt9_Any_data, .-_ZNSt17_Function_handlerIFvvEZN8asiodnp311LinkSession8ShutdownEvEUlvE_E9_M_invokeERKSt9_Any_data
	.align	2
	.global	_ZN8asiodnp311LinkSession7OnFrameERKN8opendnp316LinkHeaderFieldsERKN7openpal6RSliceE
	.syntax unified
	.arm
	.fpu vfp
	.type	_ZN8asiodnp311LinkSession7OnFrameERKN8opendnp316LinkHeaderFieldsERKN7openpal6RSliceE, %function
_ZN8asiodnp311LinkSession7OnFrameERKN8opendnp316LinkHeaderFieldsERKN7openpal6RSliceE:
	.fnstart
.LFB7736:
	@ args = 0, pretend = 0, frame = 8
	@ frame_needed = 0, uses_anonymous_args = 0
	push	{r4, r5, r6, r7, r8, r9, lr}
	.save {r4, r5, r6, r7, r8, r9, lr}
	mov	r4, r0
	ldr	r0, [r0, #468]
	.pad #20
	sub	sp, sp, #20
	cmp	r0, #0
	beq	.L1251
.L1250:
	bl	_ZN8asiodnp318MasterSessionStack7OnFrameERKN8opendnp316LinkHeaderFieldsERKN7openpal6RSliceE(PLT)
.L1243:
	mov	r0, #1
	add	sp, sp, #20
	@ sp needed
	pop	{r4, r5, r6, r7, r8, r9, pc}
.L1251:
	add	r0, r4, #456
	mov	r5, r1
	mov	r6, r2
	bl	_ZN7openpal8TimerRef6CancelEv(PLT)
	ldr	r0, [r4, #64]
	ldrd	r8, [r4, #48]
	add	r3, r4, #24
	ldr	r1, [r0]
	mov	r2, r8
	str	r3, [sp, #4]
	str	r5, [sp]
	mov	r3, r9
	ldr	r1, [r1, #20]
	blx	r1
	ldr	r0, [r4, #468]
	cmp	r0, #0
	beq	.L1244
	bl	_ZN8asiodnp318MasterSessionStack14OnLowerLayerUpEv(PLT)
	mov	r2, r6
	mov	r1, r5
	ldr	r0, [r4, #468]
	b	.L1250
.L1244:
	add	r5, sp, #16
	mov	r6, #4
	add	r7, r4, #32
	str	r6, [r5, #-4]!
	mov	r0, r7
	mov	r1, r5
	bl	_ZNK7openpal6Logger9IsEnabledERKNS_10LogFiltersE(PLT)
	cmp	r0, #0
	bne	.L1252
.L1245:
	mov	r0, r4
	bl	_ZN8asiodnp311LinkSession12ShutdownImplEv(PLT)
	b	.L1243
.L1252:
	ldr	r3, .L1253
	ldr	r2, .L1253+4
	mov	r1, r5
	mov	r0, r7
.LPIC61:
	add	r3, pc, r3
.LPIC62:
	add	r2, pc, r2
	str	r6, [sp, #12]
	bl	_ZN7openpal6Logger3LogERKNS_10LogFiltersEPKcS5_(PLT)
	b	.L1245
.L1254:
	.align	2
.L1253:
	.word	.LC25-(.LPIC61+8)
	.word	.LC26-(.LPIC62+8)
	.fnend
	.size	_ZN8asiodnp311LinkSession7OnFrameERKN8opendnp316LinkHeaderFieldsERKN7openpal6RSliceE, .-_ZN8asiodnp311LinkSession7OnFrameERKN8opendnp316LinkHeaderFieldsERKN7openpal6RSliceE
	.set	.LTHUNK5,_ZN8asiodnp311LinkSession7OnFrameERKN8opendnp316LinkHeaderFieldsERKN7openpal6RSliceE
	.align	2
	.global	_ZThn8_N8asiodnp311LinkSession7OnFrameERKN8opendnp316LinkHeaderFieldsERKN7openpal6RSliceE
	.syntax unified
	.arm
	.fpu vfp
	.type	_ZThn8_N8asiodnp311LinkSession7OnFrameERKN8opendnp316LinkHeaderFieldsERKN7openpal6RSliceE, %function
_ZThn8_N8asiodnp311LinkSession7OnFrameERKN8opendnp316LinkHeaderFieldsERKN7openpal6RSliceE:
	.fnstart
.LFB10335:
	@ args = 0, pretend = 0, frame = 0
	@ frame_needed = 0, uses_anonymous_args = 0
	sub	r0, r0, #8
	b	.LTHUNK5(PLT)
	.fnend
	.size	_ZThn8_N8asiodnp311LinkSession7OnFrameERKN8opendnp316LinkHeaderFieldsERKN7openpal6RSliceE, .-_ZThn8_N8asiodnp311LinkSession7OnFrameERKN8opendnp316LinkHeaderFieldsERKN7openpal6RSliceE
	.align	2
	.global	_ZN8asiodnp311LinkSession14OnReadCompleteERKSt10error_codej
	.syntax unified
	.arm
	.fpu vfp
	.type	_ZN8asiodnp311LinkSession14OnReadCompleteERKSt10error_codej, %function
_ZN8asiodnp311LinkSession14OnReadCompleteERKSt10error_codej:
	.fnstart
.LFB7733:
	@ args = 0, pretend = 0, frame = 32
	@ frame_needed = 0, uses_anonymous_args = 0
	ldr	r3, [r1]
	push	{r4, r5, r6, r7, r8, lr}
	.save {r4, r5, r6, r7, r8, lr}
	cmp	r3, #0
	.pad #32
	sub	sp, sp, #32
	mov	r4, r0
	beq	.L1256
	add	r6, sp, #32
	mov	r8, #4
	add	r7, r0, #32
	str	r8, [r6, #-24]!
	mov	r5, r1
	mov	r0, r7
	mov	r1, r6
.LEHB49:
	bl	_ZNK7openpal6Logger9IsEnabledERKNS_10LogFiltersE(PLT)
	cmp	r0, #0
	beq	.L1257
	ldr	r1, [r5, #4]
	ldr	r2, [r5]
	mov	r0, r6
	ldr	r3, [r1]
	str	r8, [sp, #4]
	ldr	r3, [r3, #16]
	blx	r3
.LEHE49:
	ldr	r2, .L1267
	mov	r0, r7
	ldr	r3, [sp, #8]
.LPIC63:
	add	r2, pc, r2
	add	r1, sp, r8
.LEHB50:
	bl	_ZN7openpal6Logger3LogERKNS_10LogFiltersEPKcS5_(PLT)
.LEHE50:
	ldr	r0, [sp, #8]
	add	r3, sp, #16
	cmp	r0, r3
	beq	.L1257
	bl	_ZdlPv(PLT)
.L1257:
	mov	r0, r4
.LEHB51:
	bl	_ZN8asiodnp311LinkSession12ShutdownImplEv(PLT)
	add	sp, sp, #32
	@ sp needed
	pop	{r4, r5, r6, r7, r8, pc}
.L1256:
	mov	r1, r2
	add	r2, r0, #8
	add	r0, r0, #80
	bl	_ZN8opendnp315LinkLayerParser6OnReadEjRNS_10IFrameSinkE(PLT)
	mov	r0, r4
	bl	_ZN8asiodnp311LinkSession12BeginReceiveEv(PLT)
	add	sp, sp, #32
	@ sp needed
	pop	{r4, r5, r6, r7, r8, pc}
.L1262:
	ldr	r0, [sp, #8]
	add	r6, r6, #8
	cmp	r0, r6
	beq	.L1261
	bl	_ZdlPv(PLT)
.L1261:
	bl	__cxa_end_cleanup(PLT)
.LEHE51:
.L1268:
	.align	2
.L1267:
	.word	.LC27-(.LPIC63+8)
	.personality	__gxx_personality_v0
	.handlerdata
.LLSDA7733:
	.byte	0xff
	.byte	0xff
	.byte	0x1
	.uleb128 .LLSDACSE7733-.LLSDACSB7733
.LLSDACSB7733:
	.uleb128 .LEHB49-.LFB7733
	.uleb128 .LEHE49-.LEHB49
	.uleb128 0
	.uleb128 0
	.uleb128 .LEHB50-.LFB7733
	.uleb128 .LEHE50-.LEHB50
	.uleb128 .L1262-.LFB7733
	.uleb128 0
	.uleb128 .LEHB51-.LFB7733
	.uleb128 .LEHE51-.LEHB51
	.uleb128 0
	.uleb128 0
.LLSDACSE7733:
	.text
	.fnend
	.size	_ZN8asiodnp311LinkSession14OnReadCompleteERKSt10error_codej, .-_ZN8asiodnp311LinkSession14OnReadCompleteERKSt10error_codej
	.set	.LTHUNK3,_ZN8asiodnp311LinkSession14OnReadCompleteERKSt10error_codej
	.align	2
	.global	_ZThn4_N8asiodnp311LinkSession14OnReadCompleteERKSt10error_codej
	.syntax unified
	.arm
	.fpu vfp
	.type	_ZThn4_N8asiodnp311LinkSession14OnReadCompleteERKSt10error_codej, %function
_ZThn4_N8asiodnp311LinkSession14OnReadCompleteERKSt10error_codej:
	.fnstart
.LFB10336:
	@ args = 0, pretend = 0, frame = 0
	@ frame_needed = 0, uses_anonymous_args = 0
	sub	r0, r0, #4
	b	.LTHUNK3(PLT)
	.fnend
	.size	_ZThn4_N8asiodnp311LinkSession14OnReadCompleteERKSt10error_codej, .-_ZThn4_N8asiodnp311LinkSession14OnReadCompleteERKSt10error_codej
	.align	2
	.global	_ZN8asiodnp311LinkSession15OnWriteCompleteERKSt10error_codej
	.syntax unified
	.arm
	.fpu vfp
	.type	_ZN8asiodnp311LinkSession15OnWriteCompleteERKSt10error_codej, %function
_ZN8asiodnp311LinkSession15OnWriteCompleteERKSt10error_codej:
	.fnstart
.LFB7734:
	@ args = 0, pretend = 0, frame = 32
	@ frame_needed = 0, uses_anonymous_args = 0
	ldr	r3, [r1]
	push	{r4, r5, r6, r7, r8, lr}
	.save {r4, r5, r6, r7, r8, lr}
	cmp	r3, #0
	.pad #32
	sub	sp, sp, #32
	mov	r5, r0
	beq	.L1270
	add	r6, sp, #32
	mov	r8, #4
	add	r7, r0, #32
	str	r8, [r6, #-24]!
	mov	r4, r1
	mov	r0, r7
	mov	r1, r6
.LEHB52:
	bl	_ZNK7openpal6Logger9IsEnabledERKNS_10LogFiltersE(PLT)
	cmp	r0, #0
	beq	.L1271
	ldr	r1, [r4, #4]
	ldr	r2, [r4]
	mov	r0, r6
	ldr	r3, [r1]
	str	r8, [sp, #4]
	ldr	r3, [r3, #16]
	blx	r3
.LEHE52:
	ldr	r2, .L1281
	mov	r0, r7
	ldr	r3, [sp, #8]
.LPIC64:
	add	r2, pc, r2
	add	r1, sp, r8
.LEHB53:
	bl	_ZN7openpal6Logger3LogERKNS_10LogFiltersEPKcS5_(PLT)
.LEHE53:
	ldr	r0, [sp, #8]
	add	r3, sp, #16
	cmp	r0, r3
	beq	.L1271
	bl	_ZdlPv(PLT)
.L1271:
	mov	r0, r5
.LEHB54:
	bl	_ZN8asiodnp311LinkSession12ShutdownImplEv(PLT)
	add	sp, sp, #32
	@ sp needed
	pop	{r4, r5, r6, r7, r8, pc}
.L1270:
	ldr	r0, [r0, #468]
	mov	r1, #1
	bl	_ZN8asiodnp318MasterSessionStack18OnTransmitCompleteEb(PLT)
	add	sp, sp, #32
	@ sp needed
	pop	{r4, r5, r6, r7, r8, pc}
.L1276:
	ldr	r0, [sp, #8]
	add	r6, r6, #8
	cmp	r0, r6
	beq	.L1275
	bl	_ZdlPv(PLT)
.L1275:
	bl	__cxa_end_cleanup(PLT)
.LEHE54:
.L1282:
	.align	2
.L1281:
	.word	.LC28-(.LPIC64+8)
	.personality	__gxx_personality_v0
	.handlerdata
.LLSDA7734:
	.byte	0xff
	.byte	0xff
	.byte	0x1
	.uleb128 .LLSDACSE7734-.LLSDACSB7734
.LLSDACSB7734:
	.uleb128 .LEHB52-.LFB7734
	.uleb128 .LEHE52-.LEHB52
	.uleb128 0
	.uleb128 0
	.uleb128 .LEHB53-.LFB7734
	.uleb128 .LEHE53-.LEHB53
	.uleb128 .L1276-.LFB7734
	.uleb128 0
	.uleb128 .LEHB54-.LFB7734
	.uleb128 .LEHE54-.LEHB54
	.uleb128 0
	.uleb128 0
.LLSDACSE7734:
	.text
	.fnend
	.size	_ZN8asiodnp311LinkSession15OnWriteCompleteERKSt10error_codej, .-_ZN8asiodnp311LinkSession15OnWriteCompleteERKSt10error_codej
	.set	.LTHUNK4,_ZN8asiodnp311LinkSession15OnWriteCompleteERKSt10error_codej
	.align	2
	.global	_ZThn4_N8asiodnp311LinkSession15OnWriteCompleteERKSt10error_codej
	.syntax unified
	.arm
	.fpu vfp
	.type	_ZThn4_N8asiodnp311LinkSession15OnWriteCompleteERKSt10error_codej, %function
_ZThn4_N8asiodnp311LinkSession15OnWriteCompleteERKSt10error_codej:
	.fnstart
.LFB10337:
	@ args = 0, pretend = 0, frame = 0
	@ frame_needed = 0, uses_anonymous_args = 0
	sub	r0, r0, #4
	b	.LTHUNK4(PLT)
	.fnend
	.size	_ZThn4_N8asiodnp311LinkSession15OnWriteCompleteERKSt10error_codej, .-_ZThn4_N8asiodnp311LinkSession15OnWriteCompleteERKSt10error_codej
	.align	2
	.syntax unified
	.arm
	.fpu vfp
	.type	_ZNSt17_Function_handlerIFvvEZN7openpal8TimerRef5StartIZN8asiodnp311LinkSession5StartEvEUlvE_EEbRKNS1_12TimeDurationERKT_EUlvE_E9_M_invokeERKSt9_Any_data, %function
_ZNSt17_Function_handlerIFvvEZN7openpal8TimerRef5StartIZN8asiodnp311LinkSession5StartEvEUlvE_EEbRKNS1_12TimeDurationERKT_EUlvE_E9_M_invokeERKSt9_Any_data:
	.fnstart
.LFB9280:
	@ args = 0, pretend = 0, frame = 48
	@ frame_needed = 0, uses_anonymous_args = 0
	push	{r4, r5, r6, r7, r8, r9, r10, fp, lr}
	.save {r4, r5, r6, r7, r8, r9, r10, fp, lr}
	.pad #52
	sub	sp, sp, #52
	ldr	r6, [r0]
	add	r4, sp, #48
	mov	r2, #0
	ldr	r3, [r6]
	ldr	r0, [r6, #4]
	mov	r7, #2
	str	r2, [r3, #4]
	add	r0, r0, #32
	str	r7, [r4, #-16]!
	mov	r1, r4
.LEHB55:
	bl	_ZNK7openpal6Logger9IsEnabledERKNS_10LogFiltersE(PLT)
	ldr	r5, .L1396
.LPIC67:
	add	r5, pc, r5
	cmp	r0, #0
	beq	.L1284
	ldr	r0, [r6, #4]
	ldr	r3, .L1396+4
	ldr	r2, .L1396+8
.LPIC65:
	add	r3, pc, r3
	add	r0, r0, #32
.LPIC66:
	add	r2, pc, r2
	mov	r1, r4
	str	r7, [sp, #32]
	bl	_ZN7openpal6Logger3LogERKNS_10LogFiltersEPKcS5_(PLT)
.L1284:
	ldr	r3, [r6, #4]
	ldr	r8, [r3, #72]
	ldrb	r3, [r8, #28]	@ zero_extendqisi2
	cmp	r3, #0
	beq	.L1393
.L1283:
	add	sp, sp, #52
	@ sp needed
	pop	{r4, r5, r6, r7, r8, r9, r10, fp, pc}
.L1393:
	ldr	r3, [r8]
	mov	r2, #1
	strb	r2, [r8, #28]
	ldr	r3, [r3, #16]
	mov	r0, r8
	blx	r3
.LEHE55:
	ldr	r6, [r8, #8]
	cmp	r6, #0
	beq	.L1287
	ldr	r3, .L1396+12
	add	r0, r6, #4
	str	r0, [sp, #32]
	ldr	r3, [r5, r3]
	cmp	r3, #0
	str	r3, [sp]
	beq	.L1288
	bl	_ZL26__gthrw_pthread_mutex_lockP15pthread_mutex_t(PLT)
	cmp	r0, #0
	bne	.L1394
	add	r7, r6, #28
	mcr	p15, 0, r0, c7, c10, 5
.L1381:
	ldrex	r3, [r7]
	add	r2, r3, #1
	strex	r1, r2, [r7]
	cmp	r1, #0
	bne	.L1381
	cmp	r3, #0
	mcr	p15, 0, r0, c7, c10, 5
	beq	.L1330
	ldr	r0, [sp, #32]
	bl	_ZL28__gthrw_pthread_mutex_unlockP15pthread_mutex_t(PLT)
	cmp	r0, #0
	bne	.L1333
	ldr	r3, [r8, #4]
	str	r6, [sp, #24]
	str	r3, [sp, #20]
	ldr	r8, [r8, #12]
	mcr	p15, 0, r0, c7, c10, 5
.L1380:
	ldrex	r3, [r7]
	add	r3, r3, #1
	strex	r2, r3, [r7]
	cmp	r2, #0
	bne	.L1380
	mcr	p15, 0, r0, c7, c10, 5
	ldr	r9, [sp, #24]
.L1334:
	add	r0, sp, #20
	bl	_ZN4asio28asio_handler_is_continuationEz(PLT)
	ldr	r3, .L1396+16
	ldr	r2, [r8, #20]
	str	r2, [sp, #4]
	str	r0, [sp, #8]
	ldr	r3, [r5, r3]
	str	r3, [sp, #12]
	ldr	r0, [r3]
	bl	pthread_getspecific(PLT)
	cmp	r0, #0
	beq	.L1293
	ldr	r2, [r0, #4]
	cmp	r2, #0
	beq	.L1293
	ldr	fp, [r2]
	cmp	fp, #0
	beq	.L1293
	mov	r1, #0
	str	r1, [r2]
	ldrb	r2, [fp]	@ zero_extendqisi2
	cmp	r2, #19
	bls	.L1395
.L1386:
	ldr	r1, .L1396+20
	strb	r2, [fp, #20]
	mov	r10, #0
	ldr	r0, [r8, #24]
	str	r10, [fp]
	ldr	ip, [r5, r1]
	ldr	r1, [sp, #20]
	str	ip, [fp, #4]
	str	r10, [fp, #8]
	str	r9, [fp, #16]
	str	r1, [fp, #12]
	add	r0, r0, #12
	str	r10, [sp, #24]
	str	r10, [sp, #20]
	bl	pthread_mutex_lock(PLT)
	ldr	r0, [r8, #24]
	ldrb	r5, [r0, #36]	@ zero_extendqisi2
	cmp	r5, r10
	beq	.L1296
	ldr	r1, [r0, #44]
	str	r10, [fp]
	cmp	r1, r10
	strne	fp, [r1]
	streq	fp, [r0, #44]
	strne	fp, [r0, #44]
	streq	fp, [r0, #40]
	add	r0, r0, #12
	bl	pthread_mutex_unlock(PLT)
.L1316:
	ldr	r3, [sp]
	cmp	r3, #0
	beq	.L1323
.L1322:
	mcr	p15, 0, r0, c7, c10, 5
.L1382:
	ldrex	r3, [r7]
	sub	r2, r3, #1
	strex	r1, r2, [r7]
	cmp	r1, #0
	bne	.L1382
	cmp	r3, #1
	mcr	p15, 0, r0, c7, c10, 5
	bne	.L1283
	ldr	r3, [r6]
	mov	r0, r6
	ldr	r3, [r3, #8]
	blx	r3
	add	r3, r6, #32
	mcr	p15, 0, r0, c7, c10, 5
	mcr	p15, 0, r0, c7, c10, 5
.L1378:
	ldrex	r2, [r3]
	sub	r1, r2, #1
	strex	r0, r1, [r3]
	cmp	r0, #0
	bne	.L1378
	mcr	p15, 0, r0, c7, c10, 5
	b	.L1336
.L1395:
	mov	r0, fp
	bl	_ZdlPv(PLT)
.L1293:
	mov	r0, #21
.LEHB56:
	bl	_Znwj(PLT)
.LEHE56:
	mov	fp, r0
	mov	r2, #20
	b	.L1386
.L1288:
	ldr	r3, [r6, #28]
	add	r7, r6, #28
	add	r2, r3, #1
	cmp	r3, #0
	str	r2, [r6, #28]
	beq	.L1330
	ldr	r2, [r8, #4]
	add	r3, r3, #2
	ldr	r8, [r8, #12]
	str	r6, [sp, #24]
	str	r2, [sp, #20]
	str	r3, [r6, #28]
	mov	r9, r6
	b	.L1334
.L1296:
	mov	r2, #1
	strb	r2, [r0, #36]
	add	r0, r0, #12
	bl	pthread_mutex_unlock(PLT)
	ldr	r3, [sp, #4]
	ldr	r8, [r8, #24]
	str	r5, [fp]
	ldr	r5, [r3, #20]
	ldr	r2, [r8, #52]
	ldrb	r3, [r5, #20]	@ zero_extendqisi2
	cmp	r2, #0
	strne	fp, [r2]
	ldr	r2, [sp, #8]
	strne	fp, [r8, #52]
	orr	r10, r2, r3
	streq	fp, [r8, #52]
	streq	fp, [r8, #48]
	tst	r10, #255
	beq	.L1302
	ldr	r3, [sp, #12]
	ldr	r0, [r3]
	bl	pthread_getspecific(PLT)
	cmp	r0, #0
	beq	.L1302
	ldr	r3, [r0]
	cmp	r3, r5
	bne	.L1305
	b	.L1303
.L1374:
	ldr	r3, [r0]
	cmp	r5, r3
	beq	.L1303
.L1305:
	ldr	r0, [r0, #8]
	cmp	r0, #0
	bne	.L1374
.L1302:
	add	r3, r5, #124
	mcr	p15, 0, r0, c7, c10, 5
.L1384:
	ldrex	r2, [r3]
	add	r2, r2, #1
	strex	r1, r2, [r3]
	cmp	r1, #0
	bne	.L1384
	add	r9, r5, #24
	mcr	p15, 0, r0, c7, c10, 5
	mov	r0, r9
	bl	pthread_mutex_lock(PLT)
	ldr	r3, [r5, #132]
	mov	r2, #0
	cmp	r3, r2
	str	r2, [r8]
	strne	r8, [r3]
	ldr	r3, [r5, #96]
	strne	r8, [r5, #132]
	orr	r3, r3, #1
	streq	r8, [r5, #132]
	streq	r8, [r5, #128]
	cmp	r3, #1
	add	r8, r5, #48
	str	r3, [r5, #96]
	beq	.L1312
	mov	r0, r9
	bl	pthread_mutex_unlock(PLT)
	mov	r0, r8
	bl	pthread_cond_signal(PLT)
.L1313:
	ldr	r4, [sp, #24]
.L1309:
	cmp	r4, #0
	beq	.L1316
	ldr	r3, [sp]
	cmp	r3, #0
	beq	.L1317
	add	r3, r4, #28
	mcr	p15, 0, r0, c7, c10, 5
.L1383:
	ldrex	r2, [r3]
	sub	r1, r2, #1
	strex	r0, r1, [r3]
	cmp	r0, #0
	bne	.L1383
	cmp	r2, #1
	mcr	p15, 0, r0, c7, c10, 5
	bne	.L1322
	ldr	r3, [r4]
	mov	r0, r4
	ldr	r3, [r3, #8]
	blx	r3
	add	r3, r4, #32
	mcr	p15, 0, r0, c7, c10, 5
	mcr	p15, 0, r0, c7, c10, 5
.L1379:
	ldrex	r2, [r3]
	sub	r1, r2, #1
	strex	r0, r1, [r3]
	cmp	r0, #0
	bne	.L1379
	mcr	p15, 0, r0, c7, c10, 5
.L1335:
	cmp	r2, #1
	bne	.L1316
	ldr	r3, [r4]
	mov	r0, r4
	ldr	r3, [r3, #12]
	blx	r3
	b	.L1316
.L1323:
	ldr	r3, [r6, #28]
	cmp	r3, #1
	sub	r3, r3, #1
	str	r3, [r6, #28]
	bne	.L1283
	ldr	r3, [r6]
	mov	r0, r6
	ldr	r3, [r3, #8]
	blx	r3
	mcr	p15, 0, r0, c7, c10, 5
	ldr	r2, [r6, #32]
	sub	r3, r2, #1
	str	r3, [r6, #32]
.L1336:
	cmp	r2, #1
	bne	.L1283
	ldr	r3, [r6]
	mov	r0, r6
	ldr	r3, [r3, #12]
	blx	r3
	b	.L1283
.L1317:
	ldr	r3, [r4, #28]
	cmp	r3, #1
	sub	r3, r3, #1
	str	r3, [r4, #28]
	bne	.L1323
	ldr	r3, [r4]
	mov	r0, r4
	ldr	r3, [r3, #8]
	blx	r3
	mcr	p15, 0, r0, c7, c10, 5
	ldr	r2, [r4, #32]
	sub	r3, r2, #1
	str	r3, [r4, #32]
	b	.L1335
.L1303:
	ldr	r3, [r0, #4]
	cmp	r3, #0
	beq	.L1302
	ldr	r1, [r3, #8]
	ldr	r2, [r3, #12]
	cmp	r1, #0
	add	r2, r2, #1
	mov	r0, #0
	str	r2, [r3, #12]
	ldrne	r4, [sp, #24]
	str	r0, [r8]
	ldreq	r4, [sp, #24]
	strne	r8, [r1]
	streq	r8, [r3, #8]
	strne	r8, [r3, #8]
	streq	r8, [r3, #4]
	b	.L1309
.L1312:
	ldrb	r2, [r5, #120]	@ zero_extendqisi2
	cmp	r2, #0
	bne	.L1314
	ldr	r0, [r5, #104]
	cmp	r0, #0
	beq	.L1314
	add	r1, r0, #48
	mov	ip, #-2147483639
	strb	r3, [r5, #120]
	str	r1, [sp, #40]
	str	r2, [r4, #4]
	str	r2, [r4, #12]
	str	ip, [sp, #32]
	mov	r3, r4
	ldr	r2, [r0, #48]
	mov	r1, #3
	ldr	r0, [r0, #56]
	bl	epoll_ctl(PLT)
.L1314:
	mov	r0, r9
	bl	pthread_mutex_unlock(PLT)
	b	.L1313
.L1330:
	mov	r3, #0
	str	r3, [r6, #28]
.LEHB57:
	bl	_ZSt20__throw_bad_weak_ptrv(PLT)
.LEHE57:
.L1338:
	mov	r0, r4
	bl	_ZN9__gnu_cxx13__scoped_lockD1Ev(PLT)
.L1387:
.LEHB58:
	bl	__cxa_end_cleanup(PLT)
.L1287:
	bl	_ZSt20__throw_bad_weak_ptrv(PLT)
.LEHE58:
.L1333:
	mov	r0, #4
	bl	__cxa_allocate_exception(PLT)
	ldr	r1, .L1396+24
	ldr	r2, .L1396+28
	ldr	r3, .L1396+32
	ldr	r1, [r5, r1]
	add	r1, r1, #8
	str	r1, [r0]
	ldr	r2, [r5, r2]
	ldr	r1, [r5, r3]
.LEHB59:
	bl	__cxa_throw(PLT)
.LEHE59:
.L1339:
	cmn	r1, #1
	bne	.L1387
.LEHB60:
	bl	__cxa_call_unexpected(PLT)
.L1394:
	mov	r0, #4
	bl	__cxa_allocate_exception(PLT)
	ldr	r1, .L1396+36
	ldr	r2, .L1396+40
	ldr	r3, .L1396+44
	ldr	r1, [r5, r1]
	add	r1, r1, #8
	str	r1, [r0]
	ldr	r2, [r5, r2]
	ldr	r1, [r5, r3]
	bl	__cxa_throw(PLT)
.L1337:
	cmp	r9, #0
	beq	.L1325
	mov	r0, r9
	bl	_ZNSt16_Sp_counted_baseILN9__gnu_cxx12_Lock_policyE1EE10_M_releaseEv(PLT)
.L1325:
	mov	r0, r6
	bl	_ZNSt16_Sp_counted_baseILN9__gnu_cxx12_Lock_policyE1EE10_M_releaseEv(PLT)
	bl	__cxa_end_cleanup(PLT)
.LEHE60:
.L1397:
	.align	2
.L1396:
	.word	_GLOBAL_OFFSET_TABLE_-(.LPIC67+8)
	.word	.LC29-(.LPIC65+8)
	.word	.LC30-(.LPIC66+8)
	.word	_ZL28__gthrw___pthread_key_createPjPFvPvE(GOT)
	.word	_ZN4asio6detail10call_stackINS0_15task_io_serviceENS0_27task_io_service_thread_infoEE4top_E(GOT)
	.word	_ZN4asio6detail18completion_handlerIZN7asiopal13IAsyncChannel8ShutdownEvEUlvE_E11do_completeEPNS0_15task_io_serviceEPNS0_25task_io_service_operationERKSt10error_codej(GOT)
	.word	_ZTVN9__gnu_cxx26__concurrence_unlock_errorE(GOT)
	.word	_ZN9__gnu_cxx26__concurrence_unlock_errorD1Ev(GOT)
	.word	_ZTIN9__gnu_cxx26__concurrence_unlock_errorE(GOT)
	.word	_ZTVN9__gnu_cxx24__concurrence_lock_errorE(GOT)
	.word	_ZN9__gnu_cxx24__concurrence_lock_errorD1Ev(GOT)
	.word	_ZTIN9__gnu_cxx24__concurrence_lock_errorE(GOT)
	.personality	__gxx_personality_v0
	.handlerdata
	.align	2
.LLSDA9280:
	.byte	0xff
	.byte	0x90
	.uleb128 .LLSDATT9280-.LLSDATTD9280
.LLSDATTD9280:
	.byte	0x1
	.uleb128 .LLSDACSE9280-.LLSDACSB9280
.LLSDACSB9280:
	.uleb128 .LEHB55-.LFB9280
	.uleb128 .LEHE55-.LEHB55
	.uleb128 0
	.uleb128 0
	.uleb128 .LEHB56-.LFB9280
	.uleb128 .LEHE56-.LEHB56
	.uleb128 .L1337-.LFB9280
	.uleb128 0
	.uleb128 .LEHB57-.LFB9280
	.uleb128 .LEHE57-.LEHB57
	.uleb128 .L1338-.LFB9280
	.uleb128 0
	.uleb128 .LEHB58-.LFB9280
	.uleb128 .LEHE58-.LEHB58
	.uleb128 0
	.uleb128 0
	.uleb128 .LEHB59-.LFB9280
	.uleb128 .LEHE59-.LEHB59
	.uleb128 .L1339-.LFB9280
	.uleb128 0x1
	.uleb128 .LEHB60-.LFB9280
	.uleb128 .LEHE60-.LEHB60
	.uleb128 0
	.uleb128 0
.LLSDACSE9280:
	.byte	0x7f
	.byte	0
	.align	2
.LLSDATT9280:
	.word	0
	.text
	.fnend
	.size	_ZNSt17_Function_handlerIFvvEZN7openpal8TimerRef5StartIZN8asiodnp311LinkSession5StartEvEUlvE_EEbRKNS1_12TimeDurationERKT_EUlvE_E9_M_invokeERKSt9_Any_data, .-_ZNSt17_Function_handlerIFvvEZN7openpal8TimerRef5StartIZN8asiodnp311LinkSession5StartEvEUlvE_EEbRKNS1_12TimeDurationERKT_EUlvE_E9_M_invokeERKSt9_Any_data
	.section	.text._ZN4asio6detail18completion_handlerIZN7asiopal13IAsyncChannel8ShutdownEvEUlvE_E3ptr5resetEv,"axG",%progbits,_ZN4asio6detail18completion_handlerIZN7asiopal13IAsyncChannel8ShutdownEvEUlvE_E3ptr5resetEv,comdat
	.align	2
	.weak	_ZN4asio6detail18completion_handlerIZN7asiopal13IAsyncChannel8ShutdownEvEUlvE_E3ptr5resetEv
	.syntax unified
	.arm
	.fpu vfp
	.type	_ZN4asio6detail18completion_handlerIZN7asiopal13IAsyncChannel8ShutdownEvEUlvE_E3ptr5resetEv, %function
_ZN4asio6detail18completion_handlerIZN7asiopal13IAsyncChannel8ShutdownEvEUlvE_E3ptr5resetEv:
	.fnstart
.LFB9375:
	@ args = 0, pretend = 0, frame = 0
	@ frame_needed = 0, uses_anonymous_args = 0
	ldr	r3, [r0, #8]
	push	{r4, r5, r6, lr}
	cmp	r3, #0
	ldr	r5, .L1429
	mov	r4, r0
.LPIC68:
	add	r5, pc, r5
	beq	.L1399
	ldr	r6, [r3, #16]
	cmp	r6, #0
	beq	.L1401
	ldr	r3, .L1429+4
	ldr	r3, [r5, r3]
	cmp	r3, #0
	beq	.L1402
	add	r3, r6, #28
	mcr	p15, 0, r0, c7, c10, 5
.L1423:
	ldrex	r2, [r3]
	sub	r1, r2, #1
	strex	r0, r1, [r3]
	cmp	r0, #0
	bne	.L1423
	cmp	r2, #1
	mcr	p15, 0, r0, c7, c10, 5
	beq	.L1427
.L1401:
	mov	r3, #0
	str	r3, [r4, #8]
.L1399:
	ldr	r6, [r4, #4]
	cmp	r6, #0
	popeq	{r4, r5, r6, pc}
	ldr	r3, .L1429+8
	ldr	r3, [r5, r3]
	ldr	r0, [r3]
	bl	pthread_getspecific(PLT)
	cmp	r0, #0
	beq	.L1407
	ldr	r3, [r0, #4]
	cmp	r3, #0
	beq	.L1407
	ldr	r2, [r3]
	cmp	r2, #0
	beq	.L1428
.L1407:
	mov	r0, r6
	bl	_ZdlPv(PLT)
.L1408:
	mov	r3, #0
	str	r3, [r4, #4]
	pop	{r4, r5, r6, pc}
.L1402:
	ldr	r3, [r6, #28]
	cmp	r3, #1
	sub	r3, r3, #1
	str	r3, [r6, #28]
	bne	.L1401
	ldr	r3, [r6]
	mov	r0, r6
	ldr	r3, [r3, #8]
	blx	r3
	mcr	p15, 0, r0, c7, c10, 5
	ldr	r2, [r6, #32]
	sub	r3, r2, #1
	str	r3, [r6, #32]
	b	.L1409
.L1427:
	ldr	r3, [r6]
	mov	r0, r6
	ldr	r3, [r3, #8]
	blx	r3
	add	r3, r6, #32
	mcr	p15, 0, r0, c7, c10, 5
	mcr	p15, 0, r0, c7, c10, 5
.L1422:
	ldrex	r2, [r3]
	sub	r1, r2, #1
	strex	r0, r1, [r3]
	cmp	r0, #0
	bne	.L1422
	mcr	p15, 0, r0, c7, c10, 5
.L1409:
	cmp	r2, #1
	bne	.L1401
	ldr	r3, [r6]
	mov	r0, r6
	ldr	r3, [r3, #12]
	blx	r3
	b	.L1401
.L1428:
	ldrb	r2, [r6, #20]	@ zero_extendqisi2
	strb	r2, [r6]
	str	r6, [r3]
	b	.L1408
.L1430:
	.align	2
.L1429:
	.word	_GLOBAL_OFFSET_TABLE_-(.LPIC68+8)
	.word	_ZL28__gthrw___pthread_key_createPjPFvPvE(GOT)
	.word	_ZN4asio6detail10call_stackINS0_15task_io_serviceENS0_27task_io_service_thread_infoEE4top_E(GOT)
	.cantunwind
	.fnend
	.size	_ZN4asio6detail18completion_handlerIZN7asiopal13IAsyncChannel8ShutdownEvEUlvE_E3ptr5resetEv, .-_ZN4asio6detail18completion_handlerIZN7asiopal13IAsyncChannel8ShutdownEvEUlvE_E3ptr5resetEv
	.section	.text._ZN4asio6detail18completion_handlerIZN7asiopal13IAsyncChannel8ShutdownEvEUlvE_E11do_completeEPNS0_15task_io_serviceEPNS0_25task_io_service_operationERKSt10error_codej,"axG",%progbits,_ZN4asio6detail18completion_handlerIZN7asiopal13IAsyncChannel8ShutdownEvEUlvE_E11do_completeEPNS0_15task_io_serviceEPNS0_25task_io_service_operationERKSt10error_codej,comdat
	.align	2
	.weak	_ZN4asio6detail18completion_handlerIZN7asiopal13IAsyncChannel8ShutdownEvEUlvE_E11do_completeEPNS0_15task_io_serviceEPNS0_25task_io_service_operationERKSt10error_codej
	.syntax unified
	.arm
	.fpu vfp
	.type	_ZN4asio6detail18completion_handlerIZN7asiopal13IAsyncChannel8ShutdownEvEUlvE_E11do_completeEPNS0_15task_io_serviceEPNS0_25task_io_service_operationERKSt10error_codej, %function
_ZN4asio6detail18completion_handlerIZN7asiopal13IAsyncChannel8ShutdownEvEUlvE_E11do_completeEPNS0_15task_io_serviceEPNS0_25task_io_service_operationERKSt10error_codej:
	.fnstart
.LFB9379:
	@ args = 0, pretend = 0, frame = 64
	@ frame_needed = 0, uses_anonymous_args = 0
	push	{r4, r5, r6, r7, r8, r9, r10, fp, lr}
	.save {r4, r5, r6, r7, r8, r9, r10, fp, lr}
	.pad #68
	sub	sp, sp, #68
	ldr	r4, .L1618
	ldr	r2, [r1, #16]
	ldr	r3, .L1618+4
	ldr	ip, [r1, #12]
.LPIC69:
	add	r4, pc, r4
	str	r2, [sp, #20]
	mov	r5, r1
	add	r2, sp, #16
	mov	r1, #0
	str	r5, [sp, #28]
	str	ip, [sp, #16]
	str	r2, [sp, #24]
	str	r1, [sp, #32]
	ldr	r6, [r4, r3]
	mov	r7, r0
	ldr	r0, [r6]
	bl	pthread_getspecific(PLT)
	cmp	r0, #0
	beq	.L1432
	ldr	r3, [r0, #4]
	cmp	r3, #0
	beq	.L1432
	ldr	r2, [r3]
	cmp	r2, #0
	beq	.L1609
.L1432:
	mov	r0, r5
	bl	_ZdlPv(PLT)
.L1433:
	mov	r2, #0
	cmp	r7, #0
	str	r2, [sp, #28]
	beq	.L1434
	add	r3, sp, #64
	mov	r1, #1
	str	r2, [r3, #-52]!
.L1591:
	ldrex	r2, [r3]
	strex	r0, r1, [r3]
	cmp	r0, #0
	bne	.L1591
	mcr	p15, 0, r0, c7, c10, 5
	ldr	r5, [sp, #20]
	ldr	r3, [sp, #16]
	cmp	r5, #0
	beq	.L1435
	ldr	r2, .L1618+8
	add	r1, r5, #28
	ldr	r2, [r4, r2]
	cmp	r2, #0
	beq	.L1436
	mcr	p15, 0, r0, c7, c10, 5
.L1590:
	ldrex	r0, [r1]
	add	r0, r0, #1
	strex	ip, r0, [r1]
	cmp	ip, #0
	bne	.L1590
	mcr	p15, 0, r0, c7, c10, 5
.L1437:
	ldrb	r0, [r3, #29]	@ zero_extendqisi2
	cmp	r0, #0
	bne	.L1509
	ldrb	r0, [r3, #30]	@ zero_extendqisi2
	cmp	r0, #0
	beq	.L1522
.L1509:
	cmp	r2, #0
	beq	.L1438
	mcr	p15, 0, r0, c7, c10, 5
.L1588:
	ldrex	r2, [r1]
	add	r2, r2, #1
	strex	r0, r2, [r1]
	cmp	r0, #0
	bne	.L1588
	mcr	p15, 0, r0, c7, c10, 5
	str	r3, [sp, #36]
	ldr	r8, [r3, #12]
	str	r5, [sp, #40]
	mcr	p15, 0, r0, c7, c10, 5
.L1589:
	ldrex	r3, [r1]
	add	r3, r3, #1
	strex	r2, r3, [r1]
	cmp	r2, #0
	bne	.L1589
	mcr	p15, 0, r0, c7, c10, 5
	ldr	r9, [sp, #40]
.L1439:
	add	r0, sp, #36
	bl	_ZN4asio28asio_handler_is_continuationEz(PLT)
	ldr	r3, [r8, #20]
	str	r3, [sp, #4]
	mov	r10, r0
	ldr	r0, [r6]
	bl	pthread_getspecific(PLT)
	cmp	r0, #0
	beq	.L1440
	ldr	r3, [r0, #4]
	cmp	r3, #0
	beq	.L1440
	ldr	r7, [r3]
	cmp	r7, #0
	beq	.L1440
	mov	r2, #0
	str	r2, [r3]
	ldrb	r3, [r7]	@ zero_extendqisi2
	cmp	r3, #19
	bls	.L1610
.L1593:
	ldr	r2, .L1618+12
	strb	r3, [r7, #20]
	mov	fp, #0
	ldr	r0, [r8, #24]
	str	fp, [r7]
	ldr	r1, [r4, r2]
	ldr	r2, [sp, #36]
	str	r9, [r7, #16]
	str	r1, [r7, #4]
	str	fp, [r7, #8]
	str	r2, [r7, #12]
	add	r0, r0, #12
	str	fp, [sp, #40]
	str	fp, [sp, #36]
	bl	pthread_mutex_lock(PLT)
	ldr	r0, [r8, #24]
	ldrb	r9, [r0, #36]	@ zero_extendqisi2
	cmp	r9, fp
	beq	.L1443
	ldr	r2, [r0, #44]
	str	fp, [r7]
	cmp	r2, fp
	strne	r7, [r2]
	streq	r7, [r0, #44]
	strne	r7, [r0, #44]
	streq	r7, [r0, #40]
	add	r0, r0, #12
	bl	pthread_mutex_unlock(PLT)
.L1463:
	cmp	r5, #0
	beq	.L1485
	ldr	r3, .L1618+8
	ldr	r3, [r4, r3]
	cmp	r3, #0
	beq	.L1473
	add	r3, r5, #28
	mcr	p15, 0, r0, c7, c10, 5
.L1585:
	ldrex	r2, [r3]
	sub	r1, r2, #1
	strex	r0, r1, [r3]
	cmp	r0, #0
	bne	.L1585
	cmp	r2, #1
	mcr	p15, 0, r0, c7, c10, 5
	bne	.L1477
	ldr	r3, [r5]
	mov	r0, r5
	ldr	r3, [r3, #8]
	blx	r3
	add	r3, r5, #32
	mcr	p15, 0, r0, c7, c10, 5
	mcr	p15, 0, r0, c7, c10, 5
.L1579:
	ldrex	r2, [r3]
	sub	r1, r2, #1
	strex	r0, r1, [r3]
	cmp	r0, #0
	bne	.L1579
	mcr	p15, 0, r0, c7, c10, 5
.L1516:
	cmp	r2, #1
	bne	.L1477
	ldr	r3, [r5]
	mov	r0, r5
	ldr	r3, [r3, #12]
	blx	r3
	b	.L1477
.L1616:
	ldrb	r2, [r3, #30]	@ zero_extendqisi2
	cmp	r2, #0
	bne	.L1512
.L1522:
	ldr	r7, [r3, #24]
	mov	r2, #0
	cmp	r7, r2
	str	r2, [r3, #20]
	str	r2, [r3, #24]
	beq	.L1477
	ldr	r3, .L1618+8
	ldr	r3, [r4, r3]
	cmp	r3, #0
	beq	.L1478
	add	r3, r7, #28
	mcr	p15, 0, r0, c7, c10, 5
.L1584:
	ldrex	r2, [r3]
	sub	r1, r2, #1
	strex	r0, r1, [r3]
	cmp	r0, #0
	bne	.L1584
	cmp	r2, #1
	mcr	p15, 0, r0, c7, c10, 5
	beq	.L1611
.L1477:
	cmp	r5, #0
	beq	.L1485
	ldr	r3, .L1618+8
	ldr	r3, [r4, r3]
	cmp	r3, #0
	beq	.L1486
	add	r3, r5, #28
	mcr	p15, 0, r0, c7, c10, 5
.L1583:
	ldrex	r2, [r3]
	sub	r1, r2, #1
	strex	r0, r1, [r3]
	cmp	r0, #0
	bne	.L1583
	cmp	r2, #1
	mcr	p15, 0, r0, c7, c10, 5
	beq	.L1612
.L1485:
	mov	r3, #0
	mcr	p15, 0, r0, c7, c10, 5
	str	r3, [sp, #12]
.L1434:
	ldr	r5, [sp, #20]
	cmp	r5, #0
	beq	.L1493
	ldr	r3, .L1618+8
	ldr	r3, [r4, r3]
	cmp	r3, #0
	beq	.L1494
	add	r3, r5, #28
	mcr	p15, 0, r0, c7, c10, 5
.L1582:
	ldrex	r2, [r3]
	sub	r1, r2, #1
	strex	r0, r1, [r3]
	cmp	r0, #0
	bne	.L1582
	cmp	r2, #1
	mcr	p15, 0, r0, c7, c10, 5
	beq	.L1613
.L1493:
	ldr	r3, [sp, #32]
	cmp	r3, #0
	beq	.L1498
	ldr	r5, [r3, #16]
	cmp	r5, #0
	beq	.L1500
	ldr	r3, .L1618+8
	ldr	r3, [r4, r3]
	cmp	r3, #0
	beq	.L1501
	add	r3, r5, #28
	mcr	p15, 0, r0, c7, c10, 5
.L1581:
	ldrex	r2, [r3]
	sub	r1, r2, #1
	strex	r0, r1, [r3]
	cmp	r0, #0
	bne	.L1581
	cmp	r2, #1
	mcr	p15, 0, r0, c7, c10, 5
	beq	.L1614
.L1500:
	mov	r3, #0
	str	r3, [sp, #32]
.L1498:
	ldr	r4, [sp, #28]
	cmp	r4, #0
	beq	.L1431
	ldr	r0, [r6]
	bl	pthread_getspecific(PLT)
	cmp	r0, #0
	beq	.L1506
	ldr	r3, [r0, #4]
	cmp	r3, #0
	beq	.L1506
	ldr	r2, [r3]
	cmp	r2, #0
	beq	.L1615
.L1506:
	mov	r0, r4
	bl	_ZdlPv(PLT)
.L1431:
	add	sp, sp, #68
	@ sp needed
	pop	{r4, r5, r6, r7, r8, r9, r10, fp, pc}
.L1436:
	ldr	r0, [r5, #28]
	add	r0, r0, #1
	str	r0, [r5, #28]
	b	.L1437
.L1494:
	ldr	r3, [r5, #28]
	cmp	r3, #1
	sub	r3, r3, #1
	str	r3, [r5, #28]
	bne	.L1493
	ldr	r3, [r5]
	mov	r0, r5
	ldr	r3, [r3, #8]
	blx	r3
	mcr	p15, 0, r0, c7, c10, 5
	ldr	r2, [r5, #32]
	sub	r3, r2, #1
	str	r3, [r5, #32]
	b	.L1519
.L1501:
	ldr	r3, [r5, #28]
	cmp	r3, #1
	sub	r3, r3, #1
	str	r3, [r5, #28]
	bne	.L1500
	ldr	r3, [r5]
	mov	r0, r5
	ldr	r3, [r3, #8]
	blx	r3
	mcr	p15, 0, r0, c7, c10, 5
	ldr	r2, [r5, #32]
	sub	r3, r2, #1
	str	r3, [r5, #32]
	b	.L1520
.L1613:
	ldr	r3, [r5]
	mov	r0, r5
	ldr	r3, [r3, #8]
	blx	r3
	add	r3, r5, #32
	mcr	p15, 0, r0, c7, c10, 5
	mcr	p15, 0, r0, c7, c10, 5
.L1576:
	ldrex	r2, [r3]
	sub	r1, r2, #1
	strex	r0, r1, [r3]
	cmp	r0, #0
	bne	.L1576
	mcr	p15, 0, r0, c7, c10, 5
.L1519:
	cmp	r2, #1
	bne	.L1493
	ldr	r3, [r5]
	mov	r0, r5
	ldr	r3, [r3, #12]
	blx	r3
	b	.L1493
.L1614:
	ldr	r3, [r5]
	mov	r0, r5
	ldr	r3, [r3, #8]
	blx	r3
	add	r3, r5, #32
	mcr	p15, 0, r0, c7, c10, 5
	mcr	p15, 0, r0, c7, c10, 5
.L1575:
	ldrex	r2, [r3]
	sub	r1, r2, #1
	strex	r0, r1, [r3]
	cmp	r0, #0
	bne	.L1575
	mcr	p15, 0, r0, c7, c10, 5
.L1520:
	cmp	r2, #1
	bne	.L1500
	ldr	r3, [r5]
	mov	r0, r5
	ldr	r3, [r3, #12]
	blx	r3
	b	.L1500
.L1486:
	ldr	r3, [r5, #28]
	cmp	r3, #1
	sub	r3, r3, #1
	str	r3, [r5, #28]
	bne	.L1485
	ldr	r3, [r5]
	mov	r0, r5
	ldr	r3, [r3, #8]
	blx	r3
	mcr	p15, 0, r0, c7, c10, 5
	ldr	r2, [r5, #32]
	sub	r3, r2, #1
	str	r3, [r5, #32]
	b	.L1518
.L1478:
	ldr	r3, [r7, #28]
	cmp	r3, #1
	sub	r3, r3, #1
	str	r3, [r7, #28]
	bne	.L1477
	ldr	r3, [r7]
	mov	r0, r7
	ldr	r3, [r3, #8]
	blx	r3
	mcr	p15, 0, r0, c7, c10, 5
	ldr	r2, [r7, #32]
	sub	r3, r2, #1
	str	r3, [r7, #32]
	b	.L1517
.L1610:
	mov	r0, r7
	bl	_ZdlPv(PLT)
.L1440:
	mov	r0, #21
.LEHB61:
	bl	_Znwj(PLT)
.LEHE61:
	mov	r7, r0
	mov	r3, #20
	b	.L1593
.L1438:
	ldr	r2, [r5, #28]
	ldr	r8, [r3, #12]
	add	r2, r2, #2
	mov	r9, r5
	str	r3, [sp, #36]
	str	r5, [sp, #40]
	str	r2, [r5, #28]
	b	.L1439
.L1435:
	ldrb	r2, [r3, #29]	@ zero_extendqisi2
	cmp	r2, #0
	beq	.L1616
.L1512:
	mov	r2, #0
	str	r3, [sp, #36]
	ldr	r8, [r3, #12]
	str	r2, [sp, #40]
	mov	r9, r5
	b	.L1439
.L1609:
	ldrb	r2, [r5, #20]	@ zero_extendqisi2
	strb	r2, [r5]
	str	r5, [r3]
	b	.L1433
.L1612:
	ldr	r3, [r5]
	mov	r0, r5
	ldr	r3, [r3, #8]
	blx	r3
	add	r3, r5, #32
	mcr	p15, 0, r0, c7, c10, 5
	mcr	p15, 0, r0, c7, c10, 5
.L1577:
	ldrex	r2, [r3]
	sub	r1, r2, #1
	strex	r0, r1, [r3]
	cmp	r0, #0
	bne	.L1577
	mcr	p15, 0, r0, c7, c10, 5
.L1518:
	cmp	r2, #1
	bne	.L1485
	ldr	r3, [r5]
	mov	r0, r5
	ldr	r3, [r3, #12]
	blx	r3
	b	.L1485
.L1615:
	ldrb	r2, [r4, #20]	@ zero_extendqisi2
	strb	r2, [r4]
	str	r4, [r3]
	b	.L1431
.L1443:
	mov	r3, #1
	strb	r3, [r0, #36]
	add	r0, r0, #12
	bl	pthread_mutex_unlock(PLT)
	ldr	r8, [r8, #24]
	str	r9, [r7]
	ldr	r3, [r8, #52]
	cmp	r3, #0
	strne	r7, [r3]
	ldr	r3, [sp, #4]
	strne	r7, [r8, #52]
	streq	r7, [r8, #52]
	streq	r7, [r8, #48]
	ldr	r7, [r3, #20]
	ldrb	r3, [r7, #20]	@ zero_extendqisi2
	orr	r10, r10, r3
	tst	r10, #255
	bne	.L1617
.L1449:
	add	r3, r7, #124
	mcr	p15, 0, r0, c7, c10, 5
.L1587:
	ldrex	r2, [r3]
	add	r2, r2, #1
	strex	r1, r2, [r3]
	cmp	r1, #0
	bne	.L1587
	add	r9, r7, #24
	mcr	p15, 0, r0, c7, c10, 5
	mov	r0, r9
	bl	pthread_mutex_lock(PLT)
	ldr	r3, [r7, #132]
	mov	r2, #0
	cmp	r3, r2
	str	r2, [r8]
	strne	r8, [r3]
	ldr	r3, [r7, #96]
	strne	r8, [r7, #132]
	orr	r3, r3, #1
	streq	r8, [r7, #132]
	streq	r8, [r7, #128]
	cmp	r3, #1
	add	r8, r7, #48
	str	r3, [r7, #96]
	beq	.L1459
	mov	r0, r9
	bl	pthread_mutex_unlock(PLT)
	mov	r0, r8
	bl	pthread_cond_signal(PLT)
.L1460:
	ldr	r7, [sp, #40]
.L1456:
	cmp	r7, #0
	beq	.L1463
	ldr	r3, .L1618+8
	ldr	r3, [r4, r3]
	cmp	r3, #0
	beq	.L1464
	add	r3, r7, #28
	mcr	p15, 0, r0, c7, c10, 5
.L1586:
	ldrex	r2, [r3]
	sub	r1, r2, #1
	strex	r0, r1, [r3]
	cmp	r0, #0
	bne	.L1586
	cmp	r2, #1
	mcr	p15, 0, r0, c7, c10, 5
	bne	.L1463
	ldr	r3, [r7]
	mov	r0, r7
	ldr	r3, [r3, #8]
	blx	r3
	add	r3, r7, #32
	mcr	p15, 0, r0, c7, c10, 5
	mcr	p15, 0, r0, c7, c10, 5
.L1580:
	ldrex	r2, [r3]
	sub	r1, r2, #1
	strex	r0, r1, [r3]
	cmp	r0, #0
	bne	.L1580
	mcr	p15, 0, r0, c7, c10, 5
.L1515:
	cmp	r2, #1
	bne	.L1463
	ldr	r3, [r7]
	mov	r0, r7
	ldr	r3, [r3, #12]
	blx	r3
	b	.L1463
.L1611:
	ldr	r3, [r7]
	mov	r0, r7
	ldr	r3, [r3, #8]
	blx	r3
	add	r3, r7, #32
	mcr	p15, 0, r0, c7, c10, 5
	mcr	p15, 0, r0, c7, c10, 5
.L1578:
	ldrex	r2, [r3]
	sub	r1, r2, #1
	strex	r0, r1, [r3]
	cmp	r0, #0
	bne	.L1578
	mcr	p15, 0, r0, c7, c10, 5
.L1517:
	cmp	r2, #1
	bne	.L1477
	ldr	r3, [r7]
	mov	r0, r7
	ldr	r3, [r3, #12]
	blx	r3
	b	.L1477
.L1617:
	ldr	r0, [r6]
	bl	pthread_getspecific(PLT)
	cmp	r0, #0
	bne	.L1571
	b	.L1449
.L1452:
	ldr	r0, [r0, #8]
	cmp	r0, #0
	beq	.L1449
.L1571:
	ldr	r3, [r0]
	cmp	r7, r3
	bne	.L1452
	ldr	r3, [r0, #4]
	cmp	r3, #0
	beq	.L1449
	ldr	r1, [r3, #8]
	ldr	r2, [r3, #12]
	cmp	r1, #0
	add	r2, r2, #1
	mov	r0, #0
	str	r2, [r3, #12]
	ldrne	r7, [sp, #40]
	str	r0, [r8]
	ldreq	r7, [sp, #40]
	strne	r8, [r1]
	streq	r8, [r3, #8]
	strne	r8, [r3, #8]
	streq	r8, [r3, #4]
	b	.L1456
.L1473:
	ldr	r3, [r5, #28]
	cmp	r3, #1
	sub	r3, r3, #1
	str	r3, [r5, #28]
	bne	.L1477
	ldr	r3, [r5]
	mov	r0, r5
	ldr	r3, [r3, #8]
	blx	r3
	mcr	p15, 0, r0, c7, c10, 5
	ldr	r2, [r5, #32]
	sub	r3, r2, #1
	str	r3, [r5, #32]
	b	.L1516
.L1464:
	ldr	r3, [r7, #28]
	cmp	r3, #1
	sub	r3, r3, #1
	str	r3, [r7, #28]
	bne	.L1463
	ldr	r3, [r7]
	mov	r0, r7
	ldr	r3, [r3, #8]
	blx	r3
	mcr	p15, 0, r0, c7, c10, 5
	ldr	r2, [r7, #32]
	sub	r3, r2, #1
	str	r3, [r7, #32]
	b	.L1515
.L1459:
	ldrb	r2, [r7, #120]	@ zero_extendqisi2
	cmp	r2, #0
	bne	.L1461
	ldr	r1, [r7, #104]
	cmp	r1, #0
	beq	.L1461
	add	r0, sp, #48
	add	ip, r1, #48
	strb	r3, [r7, #120]
	mov	lr, #-2147483639
	mov	r3, r0
	str	r2, [sp, #52]
	str	r2, [sp, #60]
	ldr	r0, [r1, #56]
	ldr	r2, [r1, #48]
	mov	r1, #3
	str	lr, [sp, #48]
	str	ip, [sp, #56]
	bl	epoll_ctl(PLT)
.L1461:
	mov	r0, r9
	bl	pthread_mutex_unlock(PLT)
	b	.L1460
.L1524:
	cmp	r9, #0
	beq	.L1470
	mov	r0, r9
	bl	_ZNSt16_Sp_counted_baseILN9__gnu_cxx12_Lock_policyE1EE10_M_releaseEv(PLT)
.L1470:
	cmp	r5, #0
	beq	.L1483
	mov	r0, r5
	bl	_ZNSt16_Sp_counted_baseILN9__gnu_cxx12_Lock_policyE1EE10_M_releaseEv(PLT)
	mov	r0, r5
	bl	_ZNSt16_Sp_counted_baseILN9__gnu_cxx12_Lock_policyE1EE10_M_releaseEv(PLT)
.L1483:
	mov	r3, #0
	mcr	p15, 0, r0, c7, c10, 5
	str	r3, [sp, #12]
	ldr	r0, [sp, #20]
	cmp	r0, r3
	beq	.L1491
	bl	_ZNSt16_Sp_counted_baseILN9__gnu_cxx12_Lock_policyE1EE10_M_releaseEv(PLT)
.L1491:
	add	r0, sp, #24
	bl	_ZN4asio6detail18completion_handlerIZN7asiopal13IAsyncChannel8ShutdownEvEUlvE_E3ptr5resetEv(PLT)
.LEHB62:
	bl	__cxa_end_cleanup(PLT)
.LEHE62:
.L1619:
	.align	2
.L1618:
	.word	_GLOBAL_OFFSET_TABLE_-(.LPIC69+8)
	.word	_ZN4asio6detail10call_stackINS0_15task_io_serviceENS0_27task_io_service_thread_infoEE4top_E(GOT)
	.word	_ZL28__gthrw___pthread_key_createPjPFvPvE(GOT)
	.word	_ZN4asio6detail18completion_handlerIZN7asiopal13IAsyncChannel16CheckForShutdownESt10shared_ptrIS3_EEUlvE_E11do_completeEPNS0_15task_io_serviceEPNS0_25task_io_service_operationERKSt10error_codej(GOT)
	.personality	__gxx_personality_v0
	.handlerdata
.LLSDA9379:
	.byte	0xff
	.byte	0xff
	.byte	0x1
	.uleb128 .LLSDACSE9379-.LLSDACSB9379
.LLSDACSB9379:
	.uleb128 .LEHB61-.LFB9379
	.uleb128 .LEHE61-.LEHB61
	.uleb128 .L1524-.LFB9379
	.uleb128 0
	.uleb128 .LEHB62-.LFB9379
	.uleb128 .LEHE62-.LEHB62
	.uleb128 0
	.uleb128 0
.LLSDACSE9379:
	.section	.text._ZN4asio6detail18completion_handlerIZN7asiopal13IAsyncChannel8ShutdownEvEUlvE_E11do_completeEPNS0_15task_io_serviceEPNS0_25task_io_service_operationERKSt10error_codej,"axG",%progbits,_ZN4asio6detail18completion_handlerIZN7asiopal13IAsyncChannel8ShutdownEvEUlvE_E11do_completeEPNS0_15task_io_serviceEPNS0_25task_io_service_operationERKSt10error_codej,comdat
	.fnend
	.size	_ZN4asio6detail18completion_handlerIZN7asiopal13IAsyncChannel8ShutdownEvEUlvE_E11do_completeEPNS0_15task_io_serviceEPNS0_25task_io_service_operationERKSt10error_codej, .-_ZN4asio6detail18completion_handlerIZN7asiopal13IAsyncChannel8ShutdownEvEUlvE_E11do_completeEPNS0_15task_io_serviceEPNS0_25task_io_service_operationERKSt10error_codej
	.section	.text._ZN4asio6detail18completion_handlerIZN7asiopal13IAsyncChannel16CheckForShutdownESt10shared_ptrIS3_EEUlvE_E3ptr5resetEv,"axG",%progbits,_ZN4asio6detail18completion_handlerIZN7asiopal13IAsyncChannel16CheckForShutdownESt10shared_ptrIS3_EEUlvE_E3ptr5resetEv,comdat
	.align	2
	.weak	_ZN4asio6detail18completion_handlerIZN7asiopal13IAsyncChannel16CheckForShutdownESt10shared_ptrIS3_EEUlvE_E3ptr5resetEv
	.syntax unified
	.arm
	.fpu vfp
	.type	_ZN4asio6detail18completion_handlerIZN7asiopal13IAsyncChannel16CheckForShutdownESt10shared_ptrIS3_EEUlvE_E3ptr5resetEv, %function
_ZN4asio6detail18completion_handlerIZN7asiopal13IAsyncChannel16CheckForShutdownESt10shared_ptrIS3_EEUlvE_E3ptr5resetEv:
	.fnstart
.LFB9381:
	@ args = 0, pretend = 0, frame = 0
	@ frame_needed = 0, uses_anonymous_args = 0
	ldr	r3, [r0, #8]
	push	{r4, r5, r6, lr}
	cmp	r3, #0
	ldr	r5, .L1651
	mov	r4, r0
.LPIC70:
	add	r5, pc, r5
	beq	.L1621
	ldr	r6, [r3, #16]
	cmp	r6, #0
	beq	.L1623
	ldr	r3, .L1651+4
	ldr	r3, [r5, r3]
	cmp	r3, #0
	beq	.L1624
	add	r3, r6, #28
	mcr	p15, 0, r0, c7, c10, 5
.L1645:
	ldrex	r2, [r3]
	sub	r1, r2, #1
	strex	r0, r1, [r3]
	cmp	r0, #0
	bne	.L1645
	cmp	r2, #1
	mcr	p15, 0, r0, c7, c10, 5
	beq	.L1649
.L1623:
	mov	r3, #0
	str	r3, [r4, #8]
.L1621:
	ldr	r6, [r4, #4]
	cmp	r6, #0
	popeq	{r4, r5, r6, pc}
	ldr	r3, .L1651+8
	ldr	r3, [r5, r3]
	ldr	r0, [r3]
	bl	pthread_getspecific(PLT)
	cmp	r0, #0
	beq	.L1629
	ldr	r3, [r0, #4]
	cmp	r3, #0
	beq	.L1629
	ldr	r2, [r3]
	cmp	r2, #0
	beq	.L1650
.L1629:
	mov	r0, r6
	bl	_ZdlPv(PLT)
.L1630:
	mov	r3, #0
	str	r3, [r4, #4]
	pop	{r4, r5, r6, pc}
.L1624:
	ldr	r3, [r6, #28]
	cmp	r3, #1
	sub	r3, r3, #1
	str	r3, [r6, #28]
	bne	.L1623
	ldr	r3, [r6]
	mov	r0, r6
	ldr	r3, [r3, #8]
	blx	r3
	mcr	p15, 0, r0, c7, c10, 5
	ldr	r2, [r6, #32]
	sub	r3, r2, #1
	str	r3, [r6, #32]
	b	.L1631
.L1649:
	ldr	r3, [r6]
	mov	r0, r6
	ldr	r3, [r3, #8]
	blx	r3
	add	r3, r6, #32
	mcr	p15, 0, r0, c7, c10, 5
	mcr	p15, 0, r0, c7, c10, 5
.L1644:
	ldrex	r2, [r3]
	sub	r1, r2, #1
	strex	r0, r1, [r3]
	cmp	r0, #0
	bne	.L1644
	mcr	p15, 0, r0, c7, c10, 5
.L1631:
	cmp	r2, #1
	bne	.L1623
	ldr	r3, [r6]
	mov	r0, r6
	ldr	r3, [r3, #12]
	blx	r3
	b	.L1623
.L1650:
	ldrb	r2, [r6, #20]	@ zero_extendqisi2
	strb	r2, [r6]
	str	r6, [r3]
	b	.L1630
.L1652:
	.align	2
.L1651:
	.word	_GLOBAL_OFFSET_TABLE_-(.LPIC70+8)
	.word	_ZL28__gthrw___pthread_key_createPjPFvPvE(GOT)
	.word	_ZN4asio6detail10call_stackINS0_15task_io_serviceENS0_27task_io_service_thread_infoEE4top_E(GOT)
	.cantunwind
	.fnend
	.size	_ZN4asio6detail18completion_handlerIZN7asiopal13IAsyncChannel16CheckForShutdownESt10shared_ptrIS3_EEUlvE_E3ptr5resetEv, .-_ZN4asio6detail18completion_handlerIZN7asiopal13IAsyncChannel16CheckForShutdownESt10shared_ptrIS3_EEUlvE_E3ptr5resetEv
	.section	.text._ZN4asio6detail18completion_handlerIZN7asiopal13IAsyncChannel16CheckForShutdownESt10shared_ptrIS3_EEUlvE_E11do_completeEPNS0_15task_io_serviceEPNS0_25task_io_service_operationERKSt10error_codej,"axG",%progbits,_ZN4asio6detail18completion_handlerIZN7asiopal13IAsyncChannel16CheckForShutdownESt10shared_ptrIS3_EEUlvE_E11do_completeEPNS0_15task_io_serviceEPNS0_25task_io_service_operationERKSt10error_codej,comdat
	.align	2
	.weak	_ZN4asio6detail18completion_handlerIZN7asiopal13IAsyncChannel16CheckForShutdownESt10shared_ptrIS3_EEUlvE_E11do_completeEPNS0_15task_io_serviceEPNS0_25task_io_service_operationERKSt10error_codej
	.syntax unified
	.arm
	.fpu vfp
	.type	_ZN4asio6detail18completion_handlerIZN7asiopal13IAsyncChannel16CheckForShutdownESt10shared_ptrIS3_EEUlvE_E11do_completeEPNS0_15task_io_serviceEPNS0_25task_io_service_operationERKSt10error_codej, %function
_ZN4asio6detail18completion_handlerIZN7asiopal13IAsyncChannel16CheckForShutdownESt10shared_ptrIS3_EEUlvE_E11do_completeEPNS0_15task_io_serviceEPNS0_25task_io_service_operationERKSt10error_codej:
	.fnstart
.LFB9385:
	@ args = 0, pretend = 0, frame = 64
	@ frame_needed = 0, uses_anonymous_args = 0
	push	{r4, r5, r6, r7, r8, r9, r10, fp, lr}
	.save {r4, r5, r6, r7, r8, r9, r10, fp, lr}
	.pad #68
	sub	sp, sp, #68
	ldr	r4, .L1840
	ldr	r2, [r1, #16]
	ldr	r3, .L1840+4
	ldr	ip, [r1, #12]
.LPIC71:
	add	r4, pc, r4
	str	r2, [sp, #20]
	mov	r5, r1
	add	r2, sp, #16
	mov	r1, #0
	str	r5, [sp, #28]
	str	ip, [sp, #16]
	str	r2, [sp, #24]
	str	r1, [sp, #32]
	ldr	r6, [r4, r3]
	mov	r7, r0
	ldr	r0, [r6]
	bl	pthread_getspecific(PLT)
	cmp	r0, #0
	beq	.L1654
	ldr	r3, [r0, #4]
	cmp	r3, #0
	beq	.L1654
	ldr	r2, [r3]
	cmp	r2, #0
	beq	.L1831
.L1654:
	mov	r0, r5
	bl	_ZdlPv(PLT)
.L1655:
	mov	r2, #0
	cmp	r7, #0
	str	r2, [sp, #28]
	beq	.L1656
	add	r3, sp, #64
	mov	r1, #1
	str	r2, [r3, #-52]!
.L1813:
	ldrex	r2, [r3]
	strex	r0, r1, [r3]
	cmp	r0, #0
	bne	.L1813
	mcr	p15, 0, r0, c7, c10, 5
	ldr	r5, [sp, #20]
	ldr	r3, [sp, #16]
	cmp	r5, #0
	beq	.L1657
	ldr	r2, .L1840+8
	add	r1, r5, #28
	ldr	r2, [r4, r2]
	cmp	r2, #0
	beq	.L1658
	mcr	p15, 0, r0, c7, c10, 5
.L1812:
	ldrex	r0, [r1]
	add	r0, r0, #1
	strex	ip, r0, [r1]
	cmp	ip, #0
	bne	.L1812
	mcr	p15, 0, r0, c7, c10, 5
.L1659:
	ldrb	r0, [r3, #29]	@ zero_extendqisi2
	cmp	r0, #0
	bne	.L1731
	ldrb	r0, [r3, #30]	@ zero_extendqisi2
	cmp	r0, #0
	beq	.L1744
.L1731:
	cmp	r2, #0
	beq	.L1660
	mcr	p15, 0, r0, c7, c10, 5
.L1810:
	ldrex	r2, [r1]
	add	r2, r2, #1
	strex	r0, r2, [r1]
	cmp	r0, #0
	bne	.L1810
	mcr	p15, 0, r0, c7, c10, 5
	str	r3, [sp, #36]
	ldr	r8, [r3, #12]
	str	r5, [sp, #40]
	mcr	p15, 0, r0, c7, c10, 5
.L1811:
	ldrex	r3, [r1]
	add	r3, r3, #1
	strex	r2, r3, [r1]
	cmp	r2, #0
	bne	.L1811
	mcr	p15, 0, r0, c7, c10, 5
	ldr	r9, [sp, #40]
.L1661:
	add	r0, sp, #36
	bl	_ZN4asio28asio_handler_is_continuationEz(PLT)
	ldr	r3, [r8, #20]
	str	r3, [sp, #4]
	mov	r10, r0
	ldr	r0, [r6]
	bl	pthread_getspecific(PLT)
	cmp	r0, #0
	beq	.L1662
	ldr	r3, [r0, #4]
	cmp	r3, #0
	beq	.L1662
	ldr	r7, [r3]
	cmp	r7, #0
	beq	.L1662
	mov	r2, #0
	str	r2, [r3]
	ldrb	r3, [r7]	@ zero_extendqisi2
	cmp	r3, #19
	bls	.L1832
.L1815:
	ldr	r2, .L1840+12
	strb	r3, [r7, #20]
	mov	fp, #0
	ldr	r0, [r8, #24]
	str	fp, [r7]
	ldr	r1, [r4, r2]
	ldr	r2, [sp, #36]
	str	r9, [r7, #16]
	str	r1, [r7, #4]
	str	fp, [r7, #8]
	str	r2, [r7, #12]
	add	r0, r0, #12
	str	fp, [sp, #40]
	str	fp, [sp, #36]
	bl	pthread_mutex_lock(PLT)
	ldr	r0, [r8, #24]
	ldrb	r9, [r0, #36]	@ zero_extendqisi2
	cmp	r9, fp
	beq	.L1665
	ldr	r2, [r0, #44]
	str	fp, [r7]
	cmp	r2, fp
	strne	r7, [r2]
	streq	r7, [r0, #44]
	strne	r7, [r0, #44]
	streq	r7, [r0, #40]
	add	r0, r0, #12
	bl	pthread_mutex_unlock(PLT)
.L1685:
	cmp	r5, #0
	beq	.L1707
	ldr	r3, .L1840+8
	ldr	r3, [r4, r3]
	cmp	r3, #0
	beq	.L1695
	add	r3, r5, #28
	mcr	p15, 0, r0, c7, c10, 5
.L1807:
	ldrex	r2, [r3]
	sub	r1, r2, #1
	strex	r0, r1, [r3]
	cmp	r0, #0
	bne	.L1807
	cmp	r2, #1
	mcr	p15, 0, r0, c7, c10, 5
	bne	.L1699
	ldr	r3, [r5]
	mov	r0, r5
	ldr	r3, [r3, #8]
	blx	r3
	add	r3, r5, #32
	mcr	p15, 0, r0, c7, c10, 5
	mcr	p15, 0, r0, c7, c10, 5
.L1801:
	ldrex	r2, [r3]
	sub	r1, r2, #1
	strex	r0, r1, [r3]
	cmp	r0, #0
	bne	.L1801
	mcr	p15, 0, r0, c7, c10, 5
.L1738:
	cmp	r2, #1
	bne	.L1699
	ldr	r3, [r5]
	mov	r0, r5
	ldr	r3, [r3, #12]
	blx	r3
	b	.L1699
.L1838:
	ldrb	r2, [r3, #30]	@ zero_extendqisi2
	cmp	r2, #0
	bne	.L1734
.L1744:
	ldr	r7, [r3, #24]
	mov	r2, #0
	cmp	r7, r2
	str	r2, [r3, #20]
	str	r2, [r3, #24]
	beq	.L1699
	ldr	r3, .L1840+8
	ldr	r3, [r4, r3]
	cmp	r3, #0
	beq	.L1700
	add	r3, r7, #28
	mcr	p15, 0, r0, c7, c10, 5
.L1806:
	ldrex	r2, [r3]
	sub	r1, r2, #1
	strex	r0, r1, [r3]
	cmp	r0, #0
	bne	.L1806
	cmp	r2, #1
	mcr	p15, 0, r0, c7, c10, 5
	beq	.L1833
.L1699:
	cmp	r5, #0
	beq	.L1707
	ldr	r3, .L1840+8
	ldr	r3, [r4, r3]
	cmp	r3, #0
	beq	.L1708
	add	r3, r5, #28
	mcr	p15, 0, r0, c7, c10, 5
.L1805:
	ldrex	r2, [r3]
	sub	r1, r2, #1
	strex	r0, r1, [r3]
	cmp	r0, #0
	bne	.L1805
	cmp	r2, #1
	mcr	p15, 0, r0, c7, c10, 5
	beq	.L1834
.L1707:
	mov	r3, #0
	mcr	p15, 0, r0, c7, c10, 5
	str	r3, [sp, #12]
.L1656:
	ldr	r5, [sp, #20]
	cmp	r5, #0
	beq	.L1715
	ldr	r3, .L1840+8
	ldr	r3, [r4, r3]
	cmp	r3, #0
	beq	.L1716
	add	r3, r5, #28
	mcr	p15, 0, r0, c7, c10, 5
.L1804:
	ldrex	r2, [r3]
	sub	r1, r2, #1
	strex	r0, r1, [r3]
	cmp	r0, #0
	bne	.L1804
	cmp	r2, #1
	mcr	p15, 0, r0, c7, c10, 5
	beq	.L1835
.L1715:
	ldr	r3, [sp, #32]
	cmp	r3, #0
	beq	.L1720
	ldr	r5, [r3, #16]
	cmp	r5, #0
	beq	.L1722
	ldr	r3, .L1840+8
	ldr	r3, [r4, r3]
	cmp	r3, #0
	beq	.L1723
	add	r3, r5, #28
	mcr	p15, 0, r0, c7, c10, 5
.L1803:
	ldrex	r2, [r3]
	sub	r1, r2, #1
	strex	r0, r1, [r3]
	cmp	r0, #0
	bne	.L1803
	cmp	r2, #1
	mcr	p15, 0, r0, c7, c10, 5
	beq	.L1836
.L1722:
	mov	r3, #0
	str	r3, [sp, #32]
.L1720:
	ldr	r4, [sp, #28]
	cmp	r4, #0
	beq	.L1653
	ldr	r0, [r6]
	bl	pthread_getspecific(PLT)
	cmp	r0, #0
	beq	.L1728
	ldr	r3, [r0, #4]
	cmp	r3, #0
	beq	.L1728
	ldr	r2, [r3]
	cmp	r2, #0
	beq	.L1837
.L1728:
	mov	r0, r4
	bl	_ZdlPv(PLT)
.L1653:
	add	sp, sp, #68
	@ sp needed
	pop	{r4, r5, r6, r7, r8, r9, r10, fp, pc}
.L1658:
	ldr	r0, [r5, #28]
	add	r0, r0, #1
	str	r0, [r5, #28]
	b	.L1659
.L1716:
	ldr	r3, [r5, #28]
	cmp	r3, #1
	sub	r3, r3, #1
	str	r3, [r5, #28]
	bne	.L1715
	ldr	r3, [r5]
	mov	r0, r5
	ldr	r3, [r3, #8]
	blx	r3
	mcr	p15, 0, r0, c7, c10, 5
	ldr	r2, [r5, #32]
	sub	r3, r2, #1
	str	r3, [r5, #32]
	b	.L1741
.L1723:
	ldr	r3, [r5, #28]
	cmp	r3, #1
	sub	r3, r3, #1
	str	r3, [r5, #28]
	bne	.L1722
	ldr	r3, [r5]
	mov	r0, r5
	ldr	r3, [r3, #8]
	blx	r3
	mcr	p15, 0, r0, c7, c10, 5
	ldr	r2, [r5, #32]
	sub	r3, r2, #1
	str	r3, [r5, #32]
	b	.L1742
.L1835:
	ldr	r3, [r5]
	mov	r0, r5
	ldr	r3, [r3, #8]
	blx	r3
	add	r3, r5, #32
	mcr	p15, 0, r0, c7, c10, 5
	mcr	p15, 0, r0, c7, c10, 5
.L1798:
	ldrex	r2, [r3]
	sub	r1, r2, #1
	strex	r0, r1, [r3]
	cmp	r0, #0
	bne	.L1798
	mcr	p15, 0, r0, c7, c10, 5
.L1741:
	cmp	r2, #1
	bne	.L1715
	ldr	r3, [r5]
	mov	r0, r5
	ldr	r3, [r3, #12]
	blx	r3
	b	.L1715
.L1836:
	ldr	r3, [r5]
	mov	r0, r5
	ldr	r3, [r3, #8]
	blx	r3
	add	r3, r5, #32
	mcr	p15, 0, r0, c7, c10, 5
	mcr	p15, 0, r0, c7, c10, 5
.L1797:
	ldrex	r2, [r3]
	sub	r1, r2, #1
	strex	r0, r1, [r3]
	cmp	r0, #0
	bne	.L1797
	mcr	p15, 0, r0, c7, c10, 5
.L1742:
	cmp	r2, #1
	bne	.L1722
	ldr	r3, [r5]
	mov	r0, r5
	ldr	r3, [r3, #12]
	blx	r3
	b	.L1722
.L1708:
	ldr	r3, [r5, #28]
	cmp	r3, #1
	sub	r3, r3, #1
	str	r3, [r5, #28]
	bne	.L1707
	ldr	r3, [r5]
	mov	r0, r5
	ldr	r3, [r3, #8]
	blx	r3
	mcr	p15, 0, r0, c7, c10, 5
	ldr	r2, [r5, #32]
	sub	r3, r2, #1
	str	r3, [r5, #32]
	b	.L1740
.L1700:
	ldr	r3, [r7, #28]
	cmp	r3, #1
	sub	r3, r3, #1
	str	r3, [r7, #28]
	bne	.L1699
	ldr	r3, [r7]
	mov	r0, r7
	ldr	r3, [r3, #8]
	blx	r3
	mcr	p15, 0, r0, c7, c10, 5
	ldr	r2, [r7, #32]
	sub	r3, r2, #1
	str	r3, [r7, #32]
	b	.L1739
.L1832:
	mov	r0, r7
	bl	_ZdlPv(PLT)
.L1662:
	mov	r0, #21
.LEHB63:
	bl	_Znwj(PLT)
.LEHE63:
	mov	r7, r0
	mov	r3, #20
	b	.L1815
.L1660:
	ldr	r2, [r5, #28]
	ldr	r8, [r3, #12]
	add	r2, r2, #2
	mov	r9, r5
	str	r3, [sp, #36]
	str	r5, [sp, #40]
	str	r2, [r5, #28]
	b	.L1661
.L1657:
	ldrb	r2, [r3, #29]	@ zero_extendqisi2
	cmp	r2, #0
	beq	.L1838
.L1734:
	mov	r2, #0
	str	r3, [sp, #36]
	ldr	r8, [r3, #12]
	str	r2, [sp, #40]
	mov	r9, r5
	b	.L1661
.L1831:
	ldrb	r2, [r5, #20]	@ zero_extendqisi2
	strb	r2, [r5]
	str	r5, [r3]
	b	.L1655
.L1834:
	ldr	r3, [r5]
	mov	r0, r5
	ldr	r3, [r3, #8]
	blx	r3
	add	r3, r5, #32
	mcr	p15, 0, r0, c7, c10, 5
	mcr	p15, 0, r0, c7, c10, 5
.L1799:
	ldrex	r2, [r3]
	sub	r1, r2, #1
	strex	r0, r1, [r3]
	cmp	r0, #0
	bne	.L1799
	mcr	p15, 0, r0, c7, c10, 5
.L1740:
	cmp	r2, #1
	bne	.L1707
	ldr	r3, [r5]
	mov	r0, r5
	ldr	r3, [r3, #12]
	blx	r3
	b	.L1707
.L1837:
	ldrb	r2, [r4, #20]	@ zero_extendqisi2
	strb	r2, [r4]
	str	r4, [r3]
	b	.L1653
.L1665:
	mov	r3, #1
	strb	r3, [r0, #36]
	add	r0, r0, #12
	bl	pthread_mutex_unlock(PLT)
	ldr	r8, [r8, #24]
	str	r9, [r7]
	ldr	r3, [r8, #52]
	cmp	r3, #0
	strne	r7, [r3]
	ldr	r3, [sp, #4]
	strne	r7, [r8, #52]
	streq	r7, [r8, #52]
	streq	r7, [r8, #48]
	ldr	r7, [r3, #20]
	ldrb	r3, [r7, #20]	@ zero_extendqisi2
	orr	r10, r10, r3
	tst	r10, #255
	bne	.L1839
.L1671:
	add	r3, r7, #124
	mcr	p15, 0, r0, c7, c10, 5
.L1809:
	ldrex	r2, [r3]
	add	r2, r2, #1
	strex	r1, r2, [r3]
	cmp	r1, #0
	bne	.L1809
	add	r9, r7, #24
	mcr	p15, 0, r0, c7, c10, 5
	mov	r0, r9
	bl	pthread_mutex_lock(PLT)
	ldr	r3, [r7, #132]
	mov	r2, #0
	cmp	r3, r2
	str	r2, [r8]
	strne	r8, [r3]
	ldr	r3, [r7, #96]
	strne	r8, [r7, #132]
	orr	r3, r3, #1
	streq	r8, [r7, #132]
	streq	r8, [r7, #128]
	cmp	r3, #1
	add	r8, r7, #48
	str	r3, [r7, #96]
	beq	.L1681
	mov	r0, r9
	bl	pthread_mutex_unlock(PLT)
	mov	r0, r8
	bl	pthread_cond_signal(PLT)
.L1682:
	ldr	r7, [sp, #40]
.L1678:
	cmp	r7, #0
	beq	.L1685
	ldr	r3, .L1840+8
	ldr	r3, [r4, r3]
	cmp	r3, #0
	beq	.L1686
	add	r3, r7, #28
	mcr	p15, 0, r0, c7, c10, 5
.L1808:
	ldrex	r2, [r3]
	sub	r1, r2, #1
	strex	r0, r1, [r3]
	cmp	r0, #0
	bne	.L1808
	cmp	r2, #1
	mcr	p15, 0, r0, c7, c10, 5
	bne	.L1685
	ldr	r3, [r7]
	mov	r0, r7
	ldr	r3, [r3, #8]
	blx	r3
	add	r3, r7, #32
	mcr	p15, 0, r0, c7, c10, 5
	mcr	p15, 0, r0, c7, c10, 5
.L1802:
	ldrex	r2, [r3]
	sub	r1, r2, #1
	strex	r0, r1, [r3]
	cmp	r0, #0
	bne	.L1802
	mcr	p15, 0, r0, c7, c10, 5
.L1737:
	cmp	r2, #1
	bne	.L1685
	ldr	r3, [r7]
	mov	r0, r7
	ldr	r3, [r3, #12]
	blx	r3
	b	.L1685
.L1833:
	ldr	r3, [r7]
	mov	r0, r7
	ldr	r3, [r3, #8]
	blx	r3
	add	r3, r7, #32
	mcr	p15, 0, r0, c7, c10, 5
	mcr	p15, 0, r0, c7, c10, 5
.L1800:
	ldrex	r2, [r3]
	sub	r1, r2, #1
	strex	r0, r1, [r3]
	cmp	r0, #0
	bne	.L1800
	mcr	p15, 0, r0, c7, c10, 5
.L1739:
	cmp	r2, #1
	bne	.L1699
	ldr	r3, [r7]
	mov	r0, r7
	ldr	r3, [r3, #12]
	blx	r3
	b	.L1699
.L1839:
	ldr	r0, [r6]
	bl	pthread_getspecific(PLT)
	cmp	r0, #0
	bne	.L1793
	b	.L1671
.L1674:
	ldr	r0, [r0, #8]
	cmp	r0, #0
	beq	.L1671
.L1793:
	ldr	r3, [r0]
	cmp	r7, r3
	bne	.L1674
	ldr	r3, [r0, #4]
	cmp	r3, #0
	beq	.L1671
	ldr	r1, [r3, #8]
	ldr	r2, [r3, #12]
	cmp	r1, #0
	add	r2, r2, #1
	mov	r0, #0
	str	r2, [r3, #12]
	ldrne	r7, [sp, #40]
	str	r0, [r8]
	ldreq	r7, [sp, #40]
	strne	r8, [r1]
	streq	r8, [r3, #8]
	strne	r8, [r3, #8]
	streq	r8, [r3, #4]
	b	.L1678
.L1695:
	ldr	r3, [r5, #28]
	cmp	r3, #1
	sub	r3, r3, #1
	str	r3, [r5, #28]
	bne	.L1699
	ldr	r3, [r5]
	mov	r0, r5
	ldr	r3, [r3, #8]
	blx	r3
	mcr	p15, 0, r0, c7, c10, 5
	ldr	r2, [r5, #32]
	sub	r3, r2, #1
	str	r3, [r5, #32]
	b	.L1738
.L1686:
	ldr	r3, [r7, #28]
	cmp	r3, #1
	sub	r3, r3, #1
	str	r3, [r7, #28]
	bne	.L1685
	ldr	r3, [r7]
	mov	r0, r7
	ldr	r3, [r3, #8]
	blx	r3
	mcr	p15, 0, r0, c7, c10, 5
	ldr	r2, [r7, #32]
	sub	r3, r2, #1
	str	r3, [r7, #32]
	b	.L1737
.L1681:
	ldrb	r2, [r7, #120]	@ zero_extendqisi2
	cmp	r2, #0
	bne	.L1683
	ldr	r1, [r7, #104]
	cmp	r1, #0
	beq	.L1683
	add	r0, sp, #48
	add	ip, r1, #48
	strb	r3, [r7, #120]
	mov	lr, #-2147483639
	mov	r3, r0
	str	r2, [sp, #52]
	str	r2, [sp, #60]
	ldr	r0, [r1, #56]
	ldr	r2, [r1, #48]
	mov	r1, #3
	str	lr, [sp, #48]
	str	ip, [sp, #56]
	bl	epoll_ctl(PLT)
.L1683:
	mov	r0, r9
	bl	pthread_mutex_unlock(PLT)
	b	.L1682
.L1746:
	cmp	r9, #0
	beq	.L1692
	mov	r0, r9
	bl	_ZNSt16_Sp_counted_baseILN9__gnu_cxx12_Lock_policyE1EE10_M_releaseEv(PLT)
.L1692:
	cmp	r5, #0
	beq	.L1705
	mov	r0, r5
	bl	_ZNSt16_Sp_counted_baseILN9__gnu_cxx12_Lock_policyE1EE10_M_releaseEv(PLT)
	mov	r0, r5
	bl	_ZNSt16_Sp_counted_baseILN9__gnu_cxx12_Lock_policyE1EE10_M_releaseEv(PLT)
.L1705:
	mov	r3, #0
	mcr	p15, 0, r0, c7, c10, 5
	str	r3, [sp, #12]
	ldr	r0, [sp, #20]
	cmp	r0, r3
	beq	.L1713
	bl	_ZNSt16_Sp_counted_baseILN9__gnu_cxx12_Lock_policyE1EE10_M_releaseEv(PLT)
.L1713:
	add	r0, sp, #24
	bl	_ZN4asio6detail18completion_handlerIZN7asiopal13IAsyncChannel16CheckForShutdownESt10shared_ptrIS3_EEUlvE_E3ptr5resetEv(PLT)
.LEHB64:
	bl	__cxa_end_cleanup(PLT)
.LEHE64:
.L1841:
	.align	2
.L1840:
	.word	_GLOBAL_OFFSET_TABLE_-(.LPIC71+8)
	.word	_ZN4asio6detail10call_stackINS0_15task_io_serviceENS0_27task_io_service_thread_infoEE4top_E(GOT)
	.word	_ZL28__gthrw___pthread_key_createPjPFvPvE(GOT)
	.word	_ZN4asio6detail18completion_handlerIZN7asiopal13IAsyncChannel16CheckForShutdownESt10shared_ptrIS3_EEUlvE_E11do_completeEPNS0_15task_io_serviceEPNS0_25task_io_service_operationERKSt10error_codej(GOT)
	.personality	__gxx_personality_v0
	.handlerdata
.LLSDA9385:
	.byte	0xff
	.byte	0xff
	.byte	0x1
	.uleb128 .LLSDACSE9385-.LLSDACSB9385
.LLSDACSB9385:
	.uleb128 .LEHB63-.LFB9385
	.uleb128 .LEHE63-.LEHB63
	.uleb128 .L1746-.LFB9385
	.uleb128 0
	.uleb128 .LEHB64-.LFB9385
	.uleb128 .LEHE64-.LEHB64
	.uleb128 0
	.uleb128 0
.LLSDACSE9385:
	.section	.text._ZN4asio6detail18completion_handlerIZN7asiopal13IAsyncChannel16CheckForShutdownESt10shared_ptrIS3_EEUlvE_E11do_completeEPNS0_15task_io_serviceEPNS0_25task_io_service_operationERKSt10error_codej,"axG",%progbits,_ZN4asio6detail18completion_handlerIZN7asiopal13IAsyncChannel16CheckForShutdownESt10shared_ptrIS3_EEUlvE_E11do_completeEPNS0_15task_io_serviceEPNS0_25task_io_service_operationERKSt10error_codej,comdat
	.fnend
	.size	_ZN4asio6detail18completion_handlerIZN7asiopal13IAsyncChannel16CheckForShutdownESt10shared_ptrIS3_EEUlvE_E11do_completeEPNS0_15task_io_serviceEPNS0_25task_io_service_operationERKSt10error_codej, .-_ZN4asio6detail18completion_handlerIZN7asiopal13IAsyncChannel16CheckForShutdownESt10shared_ptrIS3_EEUlvE_E11do_completeEPNS0_15task_io_serviceEPNS0_25task_io_service_operationERKSt10error_codej
	.section	.text.startup,"ax",%progbits
	.align	2
	.syntax unified
	.arm
	.fpu vfp
	.type	_GLOBAL__sub_I_LinkSession.cpp, %function
_GLOBAL__sub_I_LinkSession.cpp:
	.fnstart
.LFB10216:
	@ args = 0, pretend = 0, frame = 8
	@ frame_needed = 0, uses_anonymous_args = 0
	push	{r4, r5, lr}
	sub	sp, sp, #12
	ldr	r4, .L1882
	ldr	r3, .L1882+4
.LPIC72:
	add	r4, pc, r4
	ldr	r5, [r4, r3]
	ldrb	r3, [r5]	@ zero_extendqisi2
	mcr	p15, 0, r0, c7, c10, 5
	tst	r3, #1
	beq	.L1873
.L1844:
	ldr	r3, .L1882+8
	ldr	r5, [r4, r3]
	ldrb	r3, [r5]	@ zero_extendqisi2
	mcr	p15, 0, r0, c7, c10, 5
	tst	r3, #1
	beq	.L1874
.L1847:
	ldr	r3, .L1882+12
	ldr	r5, [r4, r3]
	ldrb	r3, [r5]	@ zero_extendqisi2
	mcr	p15, 0, r0, c7, c10, 5
	tst	r3, #1
	beq	.L1875
.L1850:
	ldr	r3, .L1882+16
	ldr	r5, [r4, r3]
	ldrb	r3, [r5]	@ zero_extendqisi2
	mcr	p15, 0, r0, c7, c10, 5
	tst	r3, #1
	beq	.L1876
.L1853:
	ldr	r2, .L1882+20
	mov	r3, #0
	mov	r0, sp
	bl	_ZN7openpal12TimeDuration12MillisecondsEx(PLT)
	ldr	r3, .L1882+24
	ldr	r3, [r4, r3]
	ldr	r2, [r3]
	tst	r2, #1
	beq	.L1877
.L1855:
	ldr	r3, .L1882+28
	ldr	r3, [r4, r3]
	ldr	r2, [r3]
	tst	r2, #1
	beq	.L1878
.L1856:
	ldr	r3, .L1882+32
	ldr	r3, [r4, r3]
	ldr	r2, [r3]
	tst	r2, #1
	beq	.L1879
.L1857:
	ldr	r3, .L1882+36
	ldr	r3, [r4, r3]
	ldr	r2, [r3]
	tst	r2, #1
	beq	.L1880
.L1858:
	ldr	r3, .L1882+40
	ldr	r3, [r4, r3]
	ldr	r2, [r3]
	tst	r2, #1
	beq	.L1881
	add	sp, sp, #12
	@ sp needed
	pop	{r4, r5, pc}
.L1873:
	mov	r0, r5
	bl	__cxa_guard_acquire(PLT)
	cmp	r0, #0
	beq	.L1844
	mov	r0, r5
	bl	__cxa_guard_release(PLT)
	ldr	r3, .L1882+44
	ldr	r1, .L1882+48
	ldr	r2, .L1882+52
	ldr	r0, [r4, r3]
.LPIC73:
	add	r2, pc, r2
	ldr	r1, [r4, r1]
	bl	__aeabi_atexit(PLT)
	b	.L1844
.L1881:
	ldr	r2, .L1882+56
	mov	r0, #1
	ldr	r1, .L1882+60
	str	r0, [r3]
	ldr	r0, [r4, r2]
	ldr	r2, .L1882+64
	ldr	r1, [r4, r1]
.LPIC81:
	add	r2, pc, r2
	add	sp, sp, #12
	@ sp needed
	pop	{r4, r5, lr}
	b	__aeabi_atexit(PLT)
.L1876:
	mov	r0, r5
	bl	__cxa_guard_acquire(PLT)
	cmp	r0, #0
	beq	.L1853
	mov	r0, r5
	bl	__cxa_guard_release(PLT)
	ldr	r3, .L1882+68
	ldr	r1, .L1882+72
	ldr	r2, .L1882+76
	ldr	r0, [r4, r3]
.LPIC76:
	add	r2, pc, r2
	ldr	r1, [r4, r1]
	bl	__aeabi_atexit(PLT)
	b	.L1853
.L1875:
	mov	r0, r5
	bl	__cxa_guard_acquire(PLT)
	cmp	r0, #0
	beq	.L1850
	mov	r0, r5
	bl	__cxa_guard_release(PLT)
	ldr	r3, .L1882+80
	ldr	r1, .L1882+84
	ldr	r2, .L1882+88
	ldr	r0, [r4, r3]
.LPIC75:
	add	r2, pc, r2
	ldr	r1, [r4, r1]
	bl	__aeabi_atexit(PLT)
	b	.L1850
.L1874:
	mov	r0, r5
	bl	__cxa_guard_acquire(PLT)
	cmp	r0, #0
	beq	.L1847
	mov	r0, r5
	bl	__cxa_guard_release(PLT)
	ldr	r3, .L1882+92
	ldr	r1, .L1882+96
	ldr	r2, .L1882+100
	ldr	r0, [r4, r3]
.LPIC74:
	add	r2, pc, r2
	ldr	r1, [r4, r1]
	bl	__aeabi_atexit(PLT)
	b	.L1847
.L1879:
	ldr	r2, .L1882+104
	mov	r0, #1
	ldr	r1, .L1882+108
	str	r0, [r3]
	ldr	r0, [r4, r2]
	ldr	r2, .L1882+112
	ldr	r1, [r4, r1]
.LPIC79:
	add	r2, pc, r2
	bl	__aeabi_atexit(PLT)
	b	.L1857
.L1878:
	ldr	r2, .L1882+116
	mov	r0, #1
	ldr	r1, .L1882+120
	str	r0, [r3]
	ldr	r0, [r4, r2]
	ldr	r2, .L1882+124
	ldr	r1, [r4, r1]
.LPIC78:
	add	r2, pc, r2
	bl	__aeabi_atexit(PLT)
	b	.L1856
.L1880:
	ldr	r2, .L1882+128
	mov	r1, #1
	str	r1, [r3]
	ldr	r5, [r4, r2]
	mov	r0, r5
	bl	_ZN4asio6detail20posix_tss_ptr_createERj(PLT)
	ldr	r3, .L1882+132
	ldr	r2, .L1882+136
	mov	r0, r5
.LPIC80:
	add	r2, pc, r2
	ldr	r1, [r4, r3]
	bl	__aeabi_atexit(PLT)
	b	.L1858
.L1877:
	ldr	r2, .L1882+140
	mov	r1, #1
	str	r1, [r3]
	ldr	r5, [r4, r2]
	mov	r0, r5
	bl	_ZN4asio6detail20posix_tss_ptr_createERj(PLT)
	ldr	r3, .L1882+144
	ldr	r2, .L1882+148
	mov	r0, r5
.LPIC77:
	add	r2, pc, r2
	ldr	r1, [r4, r3]
	bl	__aeabi_atexit(PLT)
	b	.L1855
.L1883:
	.align	2
.L1882:
	.word	_GLOBAL_OFFSET_TABLE_-(.LPIC72+8)
	.word	_ZGVZN4asio15system_categoryEvE8instance(GOT)
	.word	_ZGVZN4asio5error18get_netdb_categoryEvE8instance(GOT)
	.word	_ZGVZN4asio5error21get_addrinfo_categoryEvE8instance(GOT)
	.word	_ZGVZN4asio5error17get_misc_categoryEvE8instance(GOT)
	.word	5000
	.word	_ZGVN4asio6detail10call_stackINS0_15task_io_serviceENS0_27task_io_service_thread_infoEE4top_E(GOT)
	.word	_ZGVN4asio6detail12service_baseINS0_13epoll_reactorEE2idE(GOT)
	.word	_ZGVN4asio6detail12service_baseINS0_15task_io_serviceEE2idE(GOT)
	.word	_ZGVN4asio6detail10call_stackINS0_14strand_service11strand_implEhE4top_E(GOT)
	.word	_ZGVN4asio6detail12service_baseINS0_14strand_serviceEE2idE(GOT)
	.word	_ZZN4asio15system_categoryEvE8instance(GOT)
	.word	_ZN4asio6detail15system_categoryD1Ev(GOT)
	.word	__dso_handle-(.LPIC73+8)
	.word	_ZN4asio6detail12service_baseINS0_14strand_serviceEE2idE(GOT)
	.word	_ZN4asio6detail10service_idINS0_14strand_serviceEED1Ev(GOT)
	.word	__dso_handle-(.LPIC81+8)
	.word	_ZZN4asio5error17get_misc_categoryEvE8instance(GOT)
	.word	_ZN4asio5error6detail13misc_categoryD1Ev(GOT)
	.word	__dso_handle-(.LPIC76+8)
	.word	_ZZN4asio5error21get_addrinfo_categoryEvE8instance(GOT)
	.word	_ZN4asio5error6detail17addrinfo_categoryD1Ev(GOT)
	.word	__dso_handle-(.LPIC75+8)
	.word	_ZZN4asio5error18get_netdb_categoryEvE8instance(GOT)
	.word	_ZN4asio5error6detail14netdb_categoryD1Ev(GOT)
	.word	__dso_handle-(.LPIC74+8)
	.word	_ZN4asio6detail12service_baseINS0_15task_io_serviceEE2idE(GOT)
	.word	_ZN4asio6detail10service_idINS0_15task_io_serviceEED1Ev(GOT)
	.word	__dso_handle-(.LPIC79+8)
	.word	_ZN4asio6detail12service_baseINS0_13epoll_reactorEE2idE(GOT)
	.word	_ZN4asio6detail10service_idINS0_13epoll_reactorEED1Ev(GOT)
	.word	__dso_handle-(.LPIC78+8)
	.word	_ZN4asio6detail10call_stackINS0_14strand_service11strand_implEhE4top_E(GOT)
	.word	_ZN4asio6detail7tss_ptrINS0_10call_stackINS0_14strand_service11strand_implEhE7contextEED1Ev(GOT)
	.word	__dso_handle-(.LPIC80+8)
	.word	_ZN4asio6detail10call_stackINS0_15task_io_serviceENS0_27task_io_service_thread_infoEE4top_E(GOT)
	.word	_ZN4asio6detail7tss_ptrINS0_10call_stackINS0_15task_io_serviceENS0_27task_io_service_thread_infoEE7contextEED1Ev(GOT)
	.word	__dso_handle-(.LPIC77+8)
	.cantunwind
	.fnend
	.size	_GLOBAL__sub_I_LinkSession.cpp, .-_GLOBAL__sub_I_LinkSession.cpp
	.section	.init_array,"aw"
	.align	2
	.word	_GLOBAL__sub_I_LinkSession.cpp
	.weak	_ZTSN7openpal10UncopyableE
	.section	.rodata._ZTSN7openpal10UncopyableE,"aG",%progbits,_ZTSN7openpal10UncopyableE,comdat
	.align	2
	.type	_ZTSN7openpal10UncopyableE, %object
	.size	_ZTSN7openpal10UncopyableE, 23
_ZTSN7openpal10UncopyableE:
	.ascii	"N7openpal10UncopyableE\000"
	.weak	_ZTIN7openpal10UncopyableE
	.section	.data.rel.ro._ZTIN7openpal10UncopyableE,"awG",%progbits,_ZTIN7openpal10UncopyableE,comdat
	.align	2
	.type	_ZTIN7openpal10UncopyableE, %object
	.size	_ZTIN7openpal10UncopyableE, 8
_ZTIN7openpal10UncopyableE:
	.word	_ZTVN10__cxxabiv117__class_type_infoE+8
	.word	_ZTSN7openpal10UncopyableE
	.weak	_ZTSSt23enable_shared_from_thisIN8asiodnp311LinkSessionEE
	.section	.rodata._ZTSSt23enable_shared_from_thisIN8asiodnp311LinkSessionEE,"aG",%progbits,_ZTSSt23enable_shared_from_thisIN8asiodnp311LinkSessionEE,comdat
	.align	2
	.type	_ZTSSt23enable_shared_from_thisIN8asiodnp311LinkSessionEE, %object
	.size	_ZTSSt23enable_shared_from_thisIN8asiodnp311LinkSessionEE, 54
_ZTSSt23enable_shared_from_thisIN8asiodnp311LinkSessionEE:
	.ascii	"St23enable_shared_from_thisIN8asiodnp311LinkSession"
	.ascii	"EE\000"
	.weak	_ZTISt23enable_shared_from_thisIN8asiodnp311LinkSessionEE
	.section	.data.rel.ro._ZTISt23enable_shared_from_thisIN8asiodnp311LinkSessionEE,"awG",%progbits,_ZTISt23enable_shared_from_thisIN8asiodnp311LinkSessionEE,comdat
	.align	2
	.type	_ZTISt23enable_shared_from_thisIN8asiodnp311LinkSessionEE, %object
	.size	_ZTISt23enable_shared_from_thisIN8asiodnp311LinkSessionEE, 8
_ZTISt23enable_shared_from_thisIN8asiodnp311LinkSessionEE:
	.word	_ZTVN10__cxxabiv117__class_type_infoE+8
	.word	_ZTSSt23enable_shared_from_thisIN8asiodnp311LinkSessionEE
	.weak	_ZGVN4asio6detail12service_baseINS0_14strand_serviceEE2idE
	.section	.bss._ZGVN4asio6detail12service_baseINS0_14strand_serviceEE2idE,"awG",%nobits,_ZGVN4asio6detail12service_baseINS0_14strand_serviceEE2idE,comdat
	.align	2
	.type	_ZGVN4asio6detail12service_baseINS0_14strand_serviceEE2idE, %gnu_unique_object
	.size	_ZGVN4asio6detail12service_baseINS0_14strand_serviceEE2idE, 4
_ZGVN4asio6detail12service_baseINS0_14strand_serviceEE2idE:
	.space	4
	.weak	_ZGVN4asio6detail10call_stackINS0_14strand_service11strand_implEhE4top_E
	.section	.bss._ZGVN4asio6detail10call_stackINS0_14strand_service11strand_implEhE4top_E,"awG",%nobits,_ZGVN4asio6detail10call_stackINS0_14strand_service11strand_implEhE4top_E,comdat
	.align	2
	.type	_ZGVN4asio6detail10call_stackINS0_14strand_service11strand_implEhE4top_E, %gnu_unique_object
	.size	_ZGVN4asio6detail10call_stackINS0_14strand_service11strand_implEhE4top_E, 4
_ZGVN4asio6detail10call_stackINS0_14strand_service11strand_implEhE4top_E:
	.space	4
	.weak	_ZGVN4asio6detail12service_baseINS0_15task_io_serviceEE2idE
	.section	.bss._ZGVN4asio6detail12service_baseINS0_15task_io_serviceEE2idE,"awG",%nobits,_ZGVN4asio6detail12service_baseINS0_15task_io_serviceEE2idE,comdat
	.align	2
	.type	_ZGVN4asio6detail12service_baseINS0_15task_io_serviceEE2idE, %gnu_unique_object
	.size	_ZGVN4asio6detail12service_baseINS0_15task_io_serviceEE2idE, 4
_ZGVN4asio6detail12service_baseINS0_15task_io_serviceEE2idE:
	.space	4
	.weak	_ZGVN4asio6detail12service_baseINS0_13epoll_reactorEE2idE
	.section	.bss._ZGVN4asio6detail12service_baseINS0_13epoll_reactorEE2idE,"awG",%nobits,_ZGVN4asio6detail12service_baseINS0_13epoll_reactorEE2idE,comdat
	.align	2
	.type	_ZGVN4asio6detail12service_baseINS0_13epoll_reactorEE2idE, %gnu_unique_object
	.size	_ZGVN4asio6detail12service_baseINS0_13epoll_reactorEE2idE, 4
_ZGVN4asio6detail12service_baseINS0_13epoll_reactorEE2idE:
	.space	4
	.weak	_ZGVN4asio6detail10call_stackINS0_15task_io_serviceENS0_27task_io_service_thread_infoEE4top_E
	.section	.bss._ZGVN4asio6detail10call_stackINS0_15task_io_serviceENS0_27task_io_service_thread_infoEE4top_E,"awG",%nobits,_ZGVN4asio6detail10call_stackINS0_15task_io_serviceENS0_27task_io_service_thread_infoEE4top_E,comdat
	.align	2
	.type	_ZGVN4asio6detail10call_stackINS0_15task_io_serviceENS0_27task_io_service_thread_infoEE4top_E, %gnu_unique_object
	.size	_ZGVN4asio6detail10call_stackINS0_15task_io_serviceENS0_27task_io_service_thread_infoEE4top_E, 4
_ZGVN4asio6detail10call_stackINS0_15task_io_serviceENS0_27task_io_service_thread_infoEE4top_E:
	.space	4
	.weak	_ZN4asio6detail12service_baseINS0_14strand_serviceEE2idE
	.section	.bss._ZN4asio6detail12service_baseINS0_14strand_serviceEE2idE,"awG",%nobits,_ZN4asio6detail12service_baseINS0_14strand_serviceEE2idE,comdat
	.align	2
	.type	_ZN4asio6detail12service_baseINS0_14strand_serviceEE2idE, %gnu_unique_object
	.size	_ZN4asio6detail12service_baseINS0_14strand_serviceEE2idE, 1
_ZN4asio6detail12service_baseINS0_14strand_serviceEE2idE:
	.space	1
	.weak	_ZN4asio6detail10call_stackINS0_14strand_service11strand_implEhE4top_E
	.section	.bss._ZN4asio6detail10call_stackINS0_14strand_service11strand_implEhE4top_E,"awG",%nobits,_ZN4asio6detail10call_stackINS0_14strand_service11strand_implEhE4top_E,comdat
	.align	2
	.type	_ZN4asio6detail10call_stackINS0_14strand_service11strand_implEhE4top_E, %gnu_unique_object
	.size	_ZN4asio6detail10call_stackINS0_14strand_service11strand_implEhE4top_E, 4
_ZN4asio6detail10call_stackINS0_14strand_service11strand_implEhE4top_E:
	.space	4
	.weak	_ZN4asio6detail12service_baseINS0_15task_io_serviceEE2idE
	.section	.bss._ZN4asio6detail12service_baseINS0_15task_io_serviceEE2idE,"awG",%nobits,_ZN4asio6detail12service_baseINS0_15task_io_serviceEE2idE,comdat
	.align	2
	.type	_ZN4asio6detail12service_baseINS0_15task_io_serviceEE2idE, %gnu_unique_object
	.size	_ZN4asio6detail12service_baseINS0_15task_io_serviceEE2idE, 1
_ZN4asio6detail12service_baseINS0_15task_io_serviceEE2idE:
	.space	1
	.weak	_ZN4asio6detail12service_baseINS0_13epoll_reactorEE2idE
	.section	.bss._ZN4asio6detail12service_baseINS0_13epoll_reactorEE2idE,"awG",%nobits,_ZN4asio6detail12service_baseINS0_13epoll_reactorEE2idE,comdat
	.align	2
	.type	_ZN4asio6detail12service_baseINS0_13epoll_reactorEE2idE, %gnu_unique_object
	.size	_ZN4asio6detail12service_baseINS0_13epoll_reactorEE2idE, 1
_ZN4asio6detail12service_baseINS0_13epoll_reactorEE2idE:
	.space	1
	.weak	_ZN4asio6detail10call_stackINS0_15task_io_serviceENS0_27task_io_service_thread_infoEE4top_E
	.section	.bss._ZN4asio6detail10call_stackINS0_15task_io_serviceENS0_27task_io_service_thread_infoEE4top_E,"awG",%nobits,_ZN4asio6detail10call_stackINS0_15task_io_serviceENS0_27task_io_service_thread_infoEE4top_E,comdat
	.align	2
	.type	_ZN4asio6detail10call_stackINS0_15task_io_serviceENS0_27task_io_service_thread_infoEE4top_E, %gnu_unique_object
	.size	_ZN4asio6detail10call_stackINS0_15task_io_serviceENS0_27task_io_service_thread_infoEE4top_E, 4
_ZN4asio6detail10call_stackINS0_15task_io_serviceENS0_27task_io_service_thread_infoEE4top_E:
	.space	4
	.weak	_ZTSN9__gnu_cxx24__concurrence_lock_errorE
	.section	.rodata._ZTSN9__gnu_cxx24__concurrence_lock_errorE,"aG",%progbits,_ZTSN9__gnu_cxx24__concurrence_lock_errorE,comdat
	.align	2
	.type	_ZTSN9__gnu_cxx24__concurrence_lock_errorE, %object
	.size	_ZTSN9__gnu_cxx24__concurrence_lock_errorE, 39
_ZTSN9__gnu_cxx24__concurrence_lock_errorE:
	.ascii	"N9__gnu_cxx24__concurrence_lock_errorE\000"
	.weak	_ZTIN9__gnu_cxx24__concurrence_lock_errorE
	.section	.data.rel.ro._ZTIN9__gnu_cxx24__concurrence_lock_errorE,"awG",%progbits,_ZTIN9__gnu_cxx24__concurrence_lock_errorE,comdat
	.align	2
	.type	_ZTIN9__gnu_cxx24__concurrence_lock_errorE, %object
	.size	_ZTIN9__gnu_cxx24__concurrence_lock_errorE, 12
_ZTIN9__gnu_cxx24__concurrence_lock_errorE:
	.word	_ZTVN10__cxxabiv120__si_class_type_infoE+8
	.word	_ZTSN9__gnu_cxx24__concurrence_lock_errorE
	.word	_ZTISt9exception
	.weak	_ZTSN9__gnu_cxx26__concurrence_unlock_errorE
	.section	.rodata._ZTSN9__gnu_cxx26__concurrence_unlock_errorE,"aG",%progbits,_ZTSN9__gnu_cxx26__concurrence_unlock_errorE,comdat
	.align	2
	.type	_ZTSN9__gnu_cxx26__concurrence_unlock_errorE, %object
	.size	_ZTSN9__gnu_cxx26__concurrence_unlock_errorE, 41
_ZTSN9__gnu_cxx26__concurrence_unlock_errorE:
	.ascii	"N9__gnu_cxx26__concurrence_unlock_errorE\000"
	.weak	_ZTIN9__gnu_cxx26__concurrence_unlock_errorE
	.section	.data.rel.ro._ZTIN9__gnu_cxx26__concurrence_unlock_errorE,"awG",%progbits,_ZTIN9__gnu_cxx26__concurrence_unlock_errorE,comdat
	.align	2
	.type	_ZTIN9__gnu_cxx26__concurrence_unlock_errorE, %object
	.size	_ZTIN9__gnu_cxx26__concurrence_unlock_errorE, 12
_ZTIN9__gnu_cxx26__concurrence_unlock_errorE:
	.word	_ZTVN10__cxxabiv120__si_class_type_infoE+8
	.word	_ZTSN9__gnu_cxx26__concurrence_unlock_errorE
	.word	_ZTISt9exception
	.weak	_ZTSN8opendnp310IFrameSinkE
	.section	.rodata._ZTSN8opendnp310IFrameSinkE,"aG",%progbits,_ZTSN8opendnp310IFrameSinkE,comdat
	.align	2
	.type	_ZTSN8opendnp310IFrameSinkE, %object
	.size	_ZTSN8opendnp310IFrameSinkE, 24
_ZTSN8opendnp310IFrameSinkE:
	.ascii	"N8opendnp310IFrameSinkE\000"
	.weak	_ZTIN8opendnp310IFrameSinkE
	.section	.data.rel.ro._ZTIN8opendnp310IFrameSinkE,"awG",%progbits,_ZTIN8opendnp310IFrameSinkE,comdat
	.align	2
	.type	_ZTIN8opendnp310IFrameSinkE, %object
	.size	_ZTIN8opendnp310IFrameSinkE, 8
_ZTIN8opendnp310IFrameSinkE:
	.word	_ZTVN10__cxxabiv117__class_type_infoE+8
	.word	_ZTSN8opendnp310IFrameSinkE
	.weak	_ZTSN8opendnp37ILinkTxE
	.section	.rodata._ZTSN8opendnp37ILinkTxE,"aG",%progbits,_ZTSN8opendnp37ILinkTxE,comdat
	.align	2
	.type	_ZTSN8opendnp37ILinkTxE, %object
	.size	_ZTSN8opendnp37ILinkTxE, 20
_ZTSN8opendnp37ILinkTxE:
	.ascii	"N8opendnp37ILinkTxE\000"
	.weak	_ZTIN8opendnp37ILinkTxE
	.section	.data.rel.ro._ZTIN8opendnp37ILinkTxE,"awG",%progbits,_ZTIN8opendnp37ILinkTxE,comdat
	.align	2
	.type	_ZTIN8opendnp37ILinkTxE, %object
	.size	_ZTIN8opendnp37ILinkTxE, 8
_ZTIN8opendnp37ILinkTxE:
	.word	_ZTVN10__cxxabiv117__class_type_infoE+8
	.word	_ZTSN8opendnp37ILinkTxE
	.weak	_ZTSN4asio6detail15system_categoryE
	.section	.rodata._ZTSN4asio6detail15system_categoryE,"aG",%progbits,_ZTSN4asio6detail15system_categoryE,comdat
	.align	2
	.type	_ZTSN4asio6detail15system_categoryE, %object
	.size	_ZTSN4asio6detail15system_categoryE, 32
_ZTSN4asio6detail15system_categoryE:
	.ascii	"N4asio6detail15system_categoryE\000"
	.weak	_ZTIN4asio6detail15system_categoryE
	.section	.data.rel.ro._ZTIN4asio6detail15system_categoryE,"awG",%progbits,_ZTIN4asio6detail15system_categoryE,comdat
	.align	2
	.type	_ZTIN4asio6detail15system_categoryE, %object
	.size	_ZTIN4asio6detail15system_categoryE, 12
_ZTIN4asio6detail15system_categoryE:
	.word	_ZTVN10__cxxabiv120__si_class_type_infoE+8
	.word	_ZTSN4asio6detail15system_categoryE
	.word	_ZTINSt3_V214error_categoryE
	.weak	_ZTSN4asio5error6detail14netdb_categoryE
	.section	.rodata._ZTSN4asio5error6detail14netdb_categoryE,"aG",%progbits,_ZTSN4asio5error6detail14netdb_categoryE,comdat
	.align	2
	.type	_ZTSN4asio5error6detail14netdb_categoryE, %object
	.size	_ZTSN4asio5error6detail14netdb_categoryE, 37
_ZTSN4asio5error6detail14netdb_categoryE:
	.ascii	"N4asio5error6detail14netdb_categoryE\000"
	.weak	_ZTIN4asio5error6detail14netdb_categoryE
	.section	.data.rel.ro._ZTIN4asio5error6detail14netdb_categoryE,"awG",%progbits,_ZTIN4asio5error6detail14netdb_categoryE,comdat
	.align	2
	.type	_ZTIN4asio5error6detail14netdb_categoryE, %object
	.size	_ZTIN4asio5error6detail14netdb_categoryE, 12
_ZTIN4asio5error6detail14netdb_categoryE:
	.word	_ZTVN10__cxxabiv120__si_class_type_infoE+8
	.word	_ZTSN4asio5error6detail14netdb_categoryE
	.word	_ZTINSt3_V214error_categoryE
	.weak	_ZTSN4asio5error6detail17addrinfo_categoryE
	.section	.rodata._ZTSN4asio5error6detail17addrinfo_categoryE,"aG",%progbits,_ZTSN4asio5error6detail17addrinfo_categoryE,comdat
	.align	2
	.type	_ZTSN4asio5error6detail17addrinfo_categoryE, %object
	.size	_ZTSN4asio5error6detail17addrinfo_categoryE, 40
_ZTSN4asio5error6detail17addrinfo_categoryE:
	.ascii	"N4asio5error6detail17addrinfo_categoryE\000"
	.weak	_ZTIN4asio5error6detail17addrinfo_categoryE
	.section	.data.rel.ro._ZTIN4asio5error6detail17addrinfo_categoryE,"awG",%progbits,_ZTIN4asio5error6detail17addrinfo_categoryE,comdat
	.align	2
	.type	_ZTIN4asio5error6detail17addrinfo_categoryE, %object
	.size	_ZTIN4asio5error6detail17addrinfo_categoryE, 12
_ZTIN4asio5error6detail17addrinfo_categoryE:
	.word	_ZTVN10__cxxabiv120__si_class_type_infoE+8
	.word	_ZTSN4asio5error6detail17addrinfo_categoryE
	.word	_ZTINSt3_V214error_categoryE
	.weak	_ZTSN4asio5error6detail13misc_categoryE
	.section	.rodata._ZTSN4asio5error6detail13misc_categoryE,"aG",%progbits,_ZTSN4asio5error6detail13misc_categoryE,comdat
	.align	2
	.type	_ZTSN4asio5error6detail13misc_categoryE, %object
	.size	_ZTSN4asio5error6detail13misc_categoryE, 36
_ZTSN4asio5error6detail13misc_categoryE:
	.ascii	"N4asio5error6detail13misc_categoryE\000"
	.weak	_ZTIN4asio5error6detail13misc_categoryE
	.section	.data.rel.ro._ZTIN4asio5error6detail13misc_categoryE,"awG",%progbits,_ZTIN4asio5error6detail13misc_categoryE,comdat
	.align	2
	.type	_ZTIN4asio5error6detail13misc_categoryE, %object
	.size	_ZTIN4asio5error6detail13misc_categoryE, 12
_ZTIN4asio5error6detail13misc_categoryE:
	.word	_ZTVN10__cxxabiv120__si_class_type_infoE+8
	.word	_ZTSN4asio5error6detail13misc_categoryE
	.word	_ZTINSt3_V214error_categoryE
	.weak	_ZTSN7asiopal9IResourceE
	.section	.rodata._ZTSN7asiopal9IResourceE,"aG",%progbits,_ZTSN7asiopal9IResourceE,comdat
	.align	2
	.type	_ZTSN7asiopal9IResourceE, %object
	.size	_ZTSN7asiopal9IResourceE, 21
_ZTSN7asiopal9IResourceE:
	.ascii	"N7asiopal9IResourceE\000"
	.weak	_ZTIN7asiopal9IResourceE
	.section	.data.rel.ro._ZTIN7asiopal9IResourceE,"awG",%progbits,_ZTIN7asiopal9IResourceE,comdat
	.align	2
	.type	_ZTIN7asiopal9IResourceE, %object
	.size	_ZTIN7asiopal9IResourceE, 8
_ZTIN7asiopal9IResourceE:
	.word	_ZTVN10__cxxabiv117__class_type_infoE+8
	.word	_ZTSN7asiopal9IResourceE
	.weak	_ZTSN7asiopal17IChannelCallbacksE
	.section	.rodata._ZTSN7asiopal17IChannelCallbacksE,"aG",%progbits,_ZTSN7asiopal17IChannelCallbacksE,comdat
	.align	2
	.type	_ZTSN7asiopal17IChannelCallbacksE, %object
	.size	_ZTSN7asiopal17IChannelCallbacksE, 30
_ZTSN7asiopal17IChannelCallbacksE:
	.ascii	"N7asiopal17IChannelCallbacksE\000"
	.weak	_ZTIN7asiopal17IChannelCallbacksE
	.section	.data.rel.ro._ZTIN7asiopal17IChannelCallbacksE,"awG",%progbits,_ZTIN7asiopal17IChannelCallbacksE,comdat
	.align	2
	.type	_ZTIN7asiopal17IChannelCallbacksE, %object
	.size	_ZTIN7asiopal17IChannelCallbacksE, 8
_ZTIN7asiopal17IChannelCallbacksE:
	.word	_ZTVN10__cxxabiv117__class_type_infoE+8
	.word	_ZTSN7asiopal17IChannelCallbacksE
	.weak	_ZTSN8asiodnp316ISessionAcceptorE
	.section	.rodata._ZTSN8asiodnp316ISessionAcceptorE,"aG",%progbits,_ZTSN8asiodnp316ISessionAcceptorE,comdat
	.align	2
	.type	_ZTSN8asiodnp316ISessionAcceptorE, %object
	.size	_ZTSN8asiodnp316ISessionAcceptorE, 30
_ZTSN8asiodnp316ISessionAcceptorE:
	.ascii	"N8asiodnp316ISessionAcceptorE\000"
	.weak	_ZTIN8asiodnp316ISessionAcceptorE
	.section	.data.rel.ro._ZTIN8asiodnp316ISessionAcceptorE,"awG",%progbits,_ZTIN8asiodnp316ISessionAcceptorE,comdat
	.align	2
	.type	_ZTIN8asiodnp316ISessionAcceptorE, %object
	.size	_ZTIN8asiodnp316ISessionAcceptorE, 8
_ZTIN8asiodnp316ISessionAcceptorE:
	.word	_ZTVN10__cxxabiv117__class_type_infoE+8
	.word	_ZTSN8asiodnp316ISessionAcceptorE
	.global	_ZTSN8asiodnp311LinkSessionE
	.global	_ZTIN8asiodnp311LinkSessionE
	.weak	_ZTVN9__gnu_cxx24__concurrence_lock_errorE
	.section	.data.rel.ro._ZTVN9__gnu_cxx24__concurrence_lock_errorE,"awG",%progbits,_ZTVN9__gnu_cxx24__concurrence_lock_errorE,comdat
	.align	2
	.type	_ZTVN9__gnu_cxx24__concurrence_lock_errorE, %object
	.size	_ZTVN9__gnu_cxx24__concurrence_lock_errorE, 20
_ZTVN9__gnu_cxx24__concurrence_lock_errorE:
	.word	0
	.word	_ZTIN9__gnu_cxx24__concurrence_lock_errorE
	.word	_ZN9__gnu_cxx24__concurrence_lock_errorD1Ev
	.word	_ZN9__gnu_cxx24__concurrence_lock_errorD0Ev
	.word	_ZNK9__gnu_cxx24__concurrence_lock_error4whatEv
	.weak	_ZTVN9__gnu_cxx26__concurrence_unlock_errorE
	.section	.data.rel.ro._ZTVN9__gnu_cxx26__concurrence_unlock_errorE,"awG",%progbits,_ZTVN9__gnu_cxx26__concurrence_unlock_errorE,comdat
	.align	2
	.type	_ZTVN9__gnu_cxx26__concurrence_unlock_errorE, %object
	.size	_ZTVN9__gnu_cxx26__concurrence_unlock_errorE, 20
_ZTVN9__gnu_cxx26__concurrence_unlock_errorE:
	.word	0
	.word	_ZTIN9__gnu_cxx26__concurrence_unlock_errorE
	.word	_ZN9__gnu_cxx26__concurrence_unlock_errorD1Ev
	.word	_ZN9__gnu_cxx26__concurrence_unlock_errorD0Ev
	.word	_ZNK9__gnu_cxx26__concurrence_unlock_error4whatEv
	.weak	_ZTVN4asio6detail15system_categoryE
	.section	.data.rel.ro._ZTVN4asio6detail15system_categoryE,"awG",%progbits,_ZTVN4asio6detail15system_categoryE,comdat
	.align	2
	.type	_ZTVN4asio6detail15system_categoryE, %object
	.size	_ZTVN4asio6detail15system_categoryE, 40
_ZTVN4asio6detail15system_categoryE:
	.word	0
	.word	_ZTIN4asio6detail15system_categoryE
	.word	_ZN4asio6detail15system_categoryD1Ev
	.word	_ZN4asio6detail15system_categoryD0Ev
	.word	_ZNK4asio6detail15system_category4nameEv
	.word	_ZNKSt3_V214error_category10_M_messageB5cxx11Ei
	.word	_ZNK4asio6detail15system_category7messageB5cxx11Ei
	.word	_ZNKSt3_V214error_category23default_error_conditionEi
	.word	_ZNKSt3_V214error_category10equivalentEiRKSt15error_condition
	.word	_ZNKSt3_V214error_category10equivalentERKSt10error_codei
	.weak	_ZTVN4asio5error6detail14netdb_categoryE
	.section	.data.rel.ro._ZTVN4asio5error6detail14netdb_categoryE,"awG",%progbits,_ZTVN4asio5error6detail14netdb_categoryE,comdat
	.align	2
	.type	_ZTVN4asio5error6detail14netdb_categoryE, %object
	.size	_ZTVN4asio5error6detail14netdb_categoryE, 40
_ZTVN4asio5error6detail14netdb_categoryE:
	.word	0
	.word	_ZTIN4asio5error6detail14netdb_categoryE
	.word	_ZN4asio5error6detail14netdb_categoryD1Ev
	.word	_ZN4asio5error6detail14netdb_categoryD0Ev
	.word	_ZNK4asio5error6detail14netdb_category4nameEv
	.word	_ZNKSt3_V214error_category10_M_messageB5cxx11Ei
	.word	_ZNK4asio5error6detail14netdb_category7messageB5cxx11Ei
	.word	_ZNKSt3_V214error_category23default_error_conditionEi
	.word	_ZNKSt3_V214error_category10equivalentEiRKSt15error_condition
	.word	_ZNKSt3_V214error_category10equivalentERKSt10error_codei
	.weak	_ZTVN4asio5error6detail17addrinfo_categoryE
	.section	.data.rel.ro._ZTVN4asio5error6detail17addrinfo_categoryE,"awG",%progbits,_ZTVN4asio5error6detail17addrinfo_categoryE,comdat
	.align	2
	.type	_ZTVN4asio5error6detail17addrinfo_categoryE, %object
	.size	_ZTVN4asio5error6detail17addrinfo_categoryE, 40
_ZTVN4asio5error6detail17addrinfo_categoryE:
	.word	0
	.word	_ZTIN4asio5error6detail17addrinfo_categoryE
	.word	_ZN4asio5error6detail17addrinfo_categoryD1Ev
	.word	_ZN4asio5error6detail17addrinfo_categoryD0Ev
	.word	_ZNK4asio5error6detail17addrinfo_category4nameEv
	.word	_ZNKSt3_V214error_category10_M_messageB5cxx11Ei
	.word	_ZNK4asio5error6detail17addrinfo_category7messageB5cxx11Ei
	.word	_ZNKSt3_V214error_category23default_error_conditionEi
	.word	_ZNKSt3_V214error_category10equivalentEiRKSt15error_condition
	.word	_ZNKSt3_V214error_category10equivalentERKSt10error_codei
	.weak	_ZTVN4asio5error6detail13misc_categoryE
	.section	.data.rel.ro._ZTVN4asio5error6detail13misc_categoryE,"awG",%progbits,_ZTVN4asio5error6detail13misc_categoryE,comdat
	.align	2
	.type	_ZTVN4asio5error6detail13misc_categoryE, %object
	.size	_ZTVN4asio5error6detail13misc_categoryE, 40
_ZTVN4asio5error6detail13misc_categoryE:
	.word	0
	.word	_ZTIN4asio5error6detail13misc_categoryE
	.word	_ZN4asio5error6detail13misc_categoryD1Ev
	.word	_ZN4asio5error6detail13misc_categoryD0Ev
	.word	_ZNK4asio5error6detail13misc_category4nameEv
	.word	_ZNKSt3_V214error_category10_M_messageB5cxx11Ei
	.word	_ZNK4asio5error6detail13misc_category7messageB5cxx11Ei
	.word	_ZNKSt3_V214error_category23default_error_conditionEi
	.word	_ZNKSt3_V214error_category10equivalentEiRKSt15error_condition
	.word	_ZNKSt3_V214error_category10equivalentERKSt10error_codei
	.global	_ZTVN8asiodnp311LinkSessionE
	.weak	_ZGVZN4asio5error17get_misc_categoryEvE8instance
	.section	.bss._ZGVZN4asio5error17get_misc_categoryEvE8instance,"awG",%nobits,_ZGVZN4asio5error17get_misc_categoryEvE8instance,comdat
	.align	2
	.type	_ZGVZN4asio5error17get_misc_categoryEvE8instance, %gnu_unique_object
	.size	_ZGVZN4asio5error17get_misc_categoryEvE8instance, 4
_ZGVZN4asio5error17get_misc_categoryEvE8instance:
	.space	4
	.weak	_ZZN4asio5error17get_misc_categoryEvE8instance
	.section	.data.rel._ZZN4asio5error17get_misc_categoryEvE8instance,"awG",%progbits,_ZZN4asio5error17get_misc_categoryEvE8instance,comdat
	.align	2
	.type	_ZZN4asio5error17get_misc_categoryEvE8instance, %gnu_unique_object
	.size	_ZZN4asio5error17get_misc_categoryEvE8instance, 4
_ZZN4asio5error17get_misc_categoryEvE8instance:
	.word	_ZTVN4asio5error6detail13misc_categoryE+8
	.weak	_ZGVZN4asio5error21get_addrinfo_categoryEvE8instance
	.section	.bss._ZGVZN4asio5error21get_addrinfo_categoryEvE8instance,"awG",%nobits,_ZGVZN4asio5error21get_addrinfo_categoryEvE8instance,comdat
	.align	2
	.type	_ZGVZN4asio5error21get_addrinfo_categoryEvE8instance, %gnu_unique_object
	.size	_ZGVZN4asio5error21get_addrinfo_categoryEvE8instance, 4
_ZGVZN4asio5error21get_addrinfo_categoryEvE8instance:
	.space	4
	.weak	_ZZN4asio5error21get_addrinfo_categoryEvE8instance
	.section	.data.rel._ZZN4asio5error21get_addrinfo_categoryEvE8instance,"awG",%progbits,_ZZN4asio5error21get_addrinfo_categoryEvE8instance,comdat
	.align	2
	.type	_ZZN4asio5error21get_addrinfo_categoryEvE8instance, %gnu_unique_object
	.size	_ZZN4asio5error21get_addrinfo_categoryEvE8instance, 4
_ZZN4asio5error21get_addrinfo_categoryEvE8instance:
	.word	_ZTVN4asio5error6detail17addrinfo_categoryE+8
	.weak	_ZGVZN4asio5error18get_netdb_categoryEvE8instance
	.section	.bss._ZGVZN4asio5error18get_netdb_categoryEvE8instance,"awG",%nobits,_ZGVZN4asio5error18get_netdb_categoryEvE8instance,comdat
	.align	2
	.type	_ZGVZN4asio5error18get_netdb_categoryEvE8instance, %gnu_unique_object
	.size	_ZGVZN4asio5error18get_netdb_categoryEvE8instance, 4
_ZGVZN4asio5error18get_netdb_categoryEvE8instance:
	.space	4
	.weak	_ZZN4asio5error18get_netdb_categoryEvE8instance
	.section	.data.rel._ZZN4asio5error18get_netdb_categoryEvE8instance,"awG",%progbits,_ZZN4asio5error18get_netdb_categoryEvE8instance,comdat
	.align	2
	.type	_ZZN4asio5error18get_netdb_categoryEvE8instance, %gnu_unique_object
	.size	_ZZN4asio5error18get_netdb_categoryEvE8instance, 4
_ZZN4asio5error18get_netdb_categoryEvE8instance:
	.word	_ZTVN4asio5error6detail14netdb_categoryE+8
	.weak	_ZGVZN4asio15system_categoryEvE8instance
	.section	.bss._ZGVZN4asio15system_categoryEvE8instance,"awG",%nobits,_ZGVZN4asio15system_categoryEvE8instance,comdat
	.align	2
	.type	_ZGVZN4asio15system_categoryEvE8instance, %gnu_unique_object
	.size	_ZGVZN4asio15system_categoryEvE8instance, 4
_ZGVZN4asio15system_categoryEvE8instance:
	.space	4
	.weak	_ZZN4asio15system_categoryEvE8instance
	.section	.data.rel._ZZN4asio15system_categoryEvE8instance,"awG",%progbits,_ZZN4asio15system_categoryEvE8instance,comdat
	.align	2
	.type	_ZZN4asio15system_categoryEvE8instance, %gnu_unique_object
	.size	_ZZN4asio15system_categoryEvE8instance, 4
_ZZN4asio15system_categoryEvE8instance:
	.word	_ZTVN4asio6detail15system_categoryE+8
	.weakref	_ZL28__gthrw___pthread_key_createPjPFvPvE,__pthread_key_create
	.weakref	_ZL28__gthrw_pthread_mutex_unlockP15pthread_mutex_t,pthread_mutex_unlock
	.weakref	_ZL26__gthrw_pthread_mutex_lockP15pthread_mutex_t,pthread_mutex_lock
	.section	.rodata
	.align	2
	.type	_ZTSN8asiodnp311LinkSessionE, %object
	.size	_ZTSN8asiodnp311LinkSessionE, 25
_ZTSN8asiodnp311LinkSessionE:
	.ascii	"N8asiodnp311LinkSessionE\000"
	.space	3
	.type	_ZTSZN8asiodnp311LinkSession8ShutdownEvEUlvE_, %object
	.size	_ZTSZN8asiodnp311LinkSession8ShutdownEvEUlvE_, 43
_ZTSZN8asiodnp311LinkSession8ShutdownEvEUlvE_:
	.ascii	"*ZN8asiodnp311LinkSession8ShutdownEvEUlvE_\000"
	.space	1
	.type	_ZTSZN7openpal8TimerRef5StartIZN8asiodnp311LinkSession5StartEvEUlvE_EEbRKNS_12TimeDurationERKT_EUlvE_, %object
	.size	_ZTSZN7openpal8TimerRef5StartIZN8asiodnp311LinkSession5StartEvEUlvE_EEbRKNS_12TimeDurationERKT_EUlvE_, 99
_ZTSZN7openpal8TimerRef5StartIZN8asiodnp311LinkSession5StartEvEUlvE_EEbRKNS_12TimeDurationERKT_EUlvE_:
	.ascii	"*ZN7openpal8TimerRef5StartIZN8asiodnp311LinkSession"
	.ascii	"5StartEvEUlvE_EEbRKNS_12TimeDurationERKT_EUlvE_\000"
	.section	.data.rel.ro,"aw",%progbits
	.align	2
	.set	.LANCHOR0,. + 0
	.type	_ZTIZN7openpal8TimerRef5StartIZN8asiodnp311LinkSession5StartEvEUlvE_EEbRKNS_12TimeDurationERKT_EUlvE_, %object
	.size	_ZTIZN7openpal8TimerRef5StartIZN8asiodnp311LinkSession5StartEvEUlvE_EEbRKNS_12TimeDurationERKT_EUlvE_, 8
_ZTIZN7openpal8TimerRef5StartIZN8asiodnp311LinkSession5StartEvEUlvE_EEbRKNS_12TimeDurationERKT_EUlvE_:
	.word	_ZTVN10__cxxabiv117__class_type_infoE+8
	.word	_ZTSZN7openpal8TimerRef5StartIZN8asiodnp311LinkSession5StartEvEUlvE_EEbRKNS_12TimeDurationERKT_EUlvE_
	.type	_ZTIZN8asiodnp311LinkSession8ShutdownEvEUlvE_, %object
	.size	_ZTIZN8asiodnp311LinkSession8ShutdownEvEUlvE_, 8
_ZTIZN8asiodnp311LinkSession8ShutdownEvEUlvE_:
	.word	_ZTVN10__cxxabiv117__class_type_infoE+8
	.word	_ZTSZN8asiodnp311LinkSession8ShutdownEvEUlvE_
	.type	_ZTIN8asiodnp311LinkSessionE, %object
	.size	_ZTIN8asiodnp311LinkSessionE, 72
_ZTIN8asiodnp311LinkSessionE:
	.word	_ZTVN10__cxxabiv121__vmi_class_type_infoE+8
	.word	_ZTSN8asiodnp311LinkSessionE
	.word	0
	.word	7
	.word	_ZTIN8opendnp37ILinkTxE
	.word	2
	.word	_ZTIN7asiopal17IChannelCallbacksE
	.word	1026
	.word	_ZTIN8opendnp310IFrameSinkE
	.word	2048
	.word	_ZTISt23enable_shared_from_thisIN8asiodnp311LinkSessionEE
	.word	3074
	.word	_ZTIN7asiopal9IResourceE
	.word	5122
	.word	_ZTIN8asiodnp316ISessionAcceptorE
	.word	6144
	.word	_ZTIN7openpal10UncopyableE
	.word	0
	.type	_ZTVN8asiodnp311LinkSessionE, %object
	.size	_ZTVN8asiodnp311LinkSessionE, 124
_ZTVN8asiodnp311LinkSessionE:
	.word	0
	.word	_ZTIN8asiodnp311LinkSessionE
	.word	_ZN8asiodnp311LinkSessionD1Ev
	.word	_ZN8asiodnp311LinkSessionD0Ev
	.word	_ZN8asiodnp311LinkSession13BeginTransmitERKN7openpal6RSliceERN8opendnp312ILinkSessionE
	.word	_ZN8asiodnp311LinkSession8ShutdownEv
	.word	_ZN8asiodnp311LinkSession14OnReadCompleteERKSt10error_codej
	.word	_ZN8asiodnp311LinkSession15OnWriteCompleteERKSt10error_codej
	.word	_ZN8asiodnp311LinkSession7OnFrameERKN8opendnp316LinkHeaderFieldsERKN7openpal6RSliceE
	.word	_ZN8asiodnp311LinkSession13AcceptSessionERKNSt7__cxx1112basic_stringIcSt11char_traitsIcESaIcEEESt10shared_ptrIN8opendnp311ISOEHandlerEES9_INSA_18IMasterApplicationEERKNS_17MasterStackConfigE
	.word	-4
	.word	_ZTIN8asiodnp311LinkSessionE
	.word	_ZThn4_N8asiodnp311LinkSessionD1Ev
	.word	_ZThn4_N8asiodnp311LinkSessionD0Ev
	.word	_ZThn4_N8asiodnp311LinkSession14OnReadCompleteERKSt10error_codej
	.word	_ZThn4_N8asiodnp311LinkSession15OnWriteCompleteERKSt10error_codej
	.word	-8
	.word	_ZTIN8asiodnp311LinkSessionE
	.word	_ZThn8_N8asiodnp311LinkSessionD1Ev
	.word	_ZThn8_N8asiodnp311LinkSessionD0Ev
	.word	_ZThn8_N8asiodnp311LinkSession7OnFrameERKN8opendnp316LinkHeaderFieldsERKN7openpal6RSliceE
	.word	-20
	.word	_ZTIN8asiodnp311LinkSessionE
	.word	_ZThn20_N8asiodnp311LinkSessionD1Ev
	.word	_ZThn20_N8asiodnp311LinkSessionD0Ev
	.word	_ZThn20_N8asiodnp311LinkSession8ShutdownEv
	.word	-24
	.word	_ZTIN8asiodnp311LinkSessionE
	.word	_ZThn24_N8asiodnp311LinkSessionD1Ev
	.word	_ZThn24_N8asiodnp311LinkSessionD0Ev
	.word	_ZThn24_N8asiodnp311LinkSession13AcceptSessionERKNSt7__cxx1112basic_stringIcSt11char_traitsIcESaIcEEESt10shared_ptrIN8opendnp311ISOEHandlerEES9_INSA_18IMasterApplicationEERKNS_17MasterStackConfigE
	.section	.rodata._ZN4asio6detail20posix_tss_ptr_createERj.str1.4,"aMS",%progbits,1
	.align	2
.LC22:
	.ascii	"tss\000"
	.section	.rodata._ZNK4asio5error6detail13misc_category4nameEv.str1.4,"aMS",%progbits,1
	.align	2
.LC5:
	.ascii	"asio.misc\000"
	.section	.rodata._ZNK4asio5error6detail13misc_category7messageB5cxx11Ei.str1.4,"aMS",%progbits,1
	.align	2
.LC16:
	.ascii	"Already open\000"
	.space	3
.LC17:
	.ascii	"End of file\000"
.LC18:
	.ascii	"Element not found\000"
	.space	2
.LC19:
	.ascii	"The descriptor does not fit into the select call's "
	.ascii	"fd_set\000"
	.space	2
.LC20:
	.ascii	"asio.misc error\000"
	.section	.rodata._ZNK4asio5error6detail14netdb_category4nameEv.str1.4,"aMS",%progbits,1
	.align	2
.LC3:
	.ascii	"asio.netdb\000"
	.section	.rodata._ZNK4asio5error6detail14netdb_category7messageB5cxx11Ei.str1.4,"aMS",%progbits,1
	.align	2
.LC11:
	.ascii	"Host not found (authoritative)\000"
	.space	1
.LC12:
	.ascii	"Host not found (non-authoritative), try again later"
	.ascii	"\000"
.LC13:
	.ascii	"The query is valid, but it does not have associated"
	.ascii	" data\000"
	.space	3
.LC14:
	.ascii	"A non-recoverable error occurred during database lo"
	.ascii	"okup\000"
.LC15:
	.ascii	"asio.netdb error\000"
	.section	.rodata._ZNK4asio5error6detail17addrinfo_category4nameEv.str1.4,"aMS",%progbits,1
	.align	2
.LC4:
	.ascii	"asio.addrinfo\000"
	.section	.rodata._ZNK4asio5error6detail17addrinfo_category7messageB5cxx11Ei.str1.4,"aMS",%progbits,1
	.align	2
.LC8:
	.ascii	"Service not found\000"
	.space	2
.LC9:
	.ascii	"Socket type not supported\000"
	.space	2
.LC10:
	.ascii	"asio.addrinfo error\000"
	.section	.rodata._ZNK4asio6detail15system_category4nameEv.str1.4,"aMS",%progbits,1
	.align	2
.LC2:
	.ascii	"asio.system\000"
	.section	.rodata._ZNK4asio6detail15system_category7messageB5cxx11Ei.str1.4,"aMS",%progbits,1
	.align	2
.LC6:
	.ascii	"Operation aborted.\000"
	.space	1
.LC7:
	.ascii	"basic_string::_M_construct null not valid\000"
	.section	.rodata._ZNK9__gnu_cxx24__concurrence_lock_error4whatEv.str1.4,"aMS",%progbits,1
	.align	2
.LC0:
	.ascii	"__gnu_cxx::__concurrence_lock_error\000"
	.section	.rodata._ZNK9__gnu_cxx26__concurrence_unlock_error4whatEv.str1.4,"aMS",%progbits,1
	.align	2
.LC1:
	.ascii	"__gnu_cxx::__concurrence_unlock_error\000"
	.section	.rodata._ZNSt12system_errorC2ESt10error_codePKc.str1.4,"aMS",%progbits,1
	.align	2
.LC21:
	.ascii	": \000"
	.section	.rodata.str1.4,"aMS",%progbits,1
	.align	2
.LC23:
	.ascii	"SocketSession already has a master bound\000"
	.space	3
.LC24:
	.ascii	"/home/pi/OpenPLC_v3/utils/dnp3_src/cpp/libs/src/asi"
	.ascii	"odnp3/LinkSession.cpp(161)\000"
	.space	2
.LC25:
	.ascii	"No master created. Closing socket.\000"
	.space	1
.LC26:
	.ascii	"/home/pi/OpenPLC_v3/utils/dnp3_src/cpp/libs/src/asi"
	.ascii	"odnp3/LinkSession.cpp(145)\000"
	.space	2
.LC27:
	.ascii	"/home/pi/OpenPLC_v3/utils/dnp3_src/cpp/libs/src/asi"
	.ascii	"odnp3/LinkSession.cpp(96)\000"
	.space	3
.LC28:
	.ascii	"/home/pi/OpenPLC_v3/utils/dnp3_src/cpp/libs/src/asi"
	.ascii	"odnp3/LinkSession.cpp(110)\000"
	.space	2
.LC29:
	.ascii	"Timed out before receving a frame. Closing socket.\000"
	.space	1
.LC30:
	.ascii	"/home/pi/OpenPLC_v3/utils/dnp3_src/cpp/libs/src/asi"
	.ascii	"odnp3/LinkSession.cpp(187)\000"
	.hidden	__dso_handle
	.ident	"GCC: (Raspbian 6.3.0-18+rpi1+deb9u1) 6.3.0 20170516"
	.section	.note.GNU-stack,"",%progbits
