	.arch armv6
	.eabi_attribute 28, 1
	.eabi_attribute 20, 1
	.eabi_attribute 21, 1
	.eabi_attribute 23, 3
	.eabi_attribute 24, 1
	.eabi_attribute 25, 1
	.eabi_attribute 26, 2
	.eabi_attribute 30, 2
	.eabi_attribute 34, 1
	.eabi_attribute 18, 4
	.file	"MasterContext.cpp"
	.section	.text._ZN8opendnp318IMasterApplication12OnReceiveIINERKNS_8IINFieldE,"axG",%progbits,_ZN8opendnp318IMasterApplication12OnReceiveIINERKNS_8IINFieldE,comdat
	.align	2
	.weak	_ZN8opendnp318IMasterApplication12OnReceiveIINERKNS_8IINFieldE
	.syntax unified
	.arm
	.fpu vfp
	.type	_ZN8opendnp318IMasterApplication12OnReceiveIINERKNS_8IINFieldE, %function
_ZN8opendnp318IMasterApplication12OnReceiveIINERKNS_8IINFieldE:
	.fnstart
.LFB2357:
	@ args = 0, pretend = 0, frame = 0
	@ frame_needed = 0, uses_anonymous_args = 0
	@ link register save eliminated.
	bx	lr
	.cantunwind
	.fnend
	.size	_ZN8opendnp318IMasterApplication12OnReceiveIINERKNS_8IINFieldE, .-_ZN8opendnp318IMasterApplication12OnReceiveIINERKNS_8IINFieldE
	.section	.text._ZN8opendnp318IMasterApplication6OnOpenEv,"axG",%progbits,_ZN8opendnp318IMasterApplication6OnOpenEv,comdat
	.align	2
	.weak	_ZN8opendnp318IMasterApplication6OnOpenEv
	.syntax unified
	.arm
	.fpu vfp
	.type	_ZN8opendnp318IMasterApplication6OnOpenEv, %function
_ZN8opendnp318IMasterApplication6OnOpenEv:
	.fnstart
.LFB2360:
	@ args = 0, pretend = 0, frame = 0
	@ frame_needed = 0, uses_anonymous_args = 0
	@ link register save eliminated.
	bx	lr
	.cantunwind
	.fnend
	.size	_ZN8opendnp318IMasterApplication6OnOpenEv, .-_ZN8opendnp318IMasterApplication6OnOpenEv
	.section	.text._ZN8opendnp318IMasterApplication7OnCloseEv,"axG",%progbits,_ZN8opendnp318IMasterApplication7OnCloseEv,comdat
	.align	2
	.weak	_ZN8opendnp318IMasterApplication7OnCloseEv
	.syntax unified
	.arm
	.fpu vfp
	.type	_ZN8opendnp318IMasterApplication7OnCloseEv, %function
_ZN8opendnp318IMasterApplication7OnCloseEv:
	.fnstart
.LFB2361:
	@ args = 0, pretend = 0, frame = 0
	@ frame_needed = 0, uses_anonymous_args = 0
	@ link register save eliminated.
	bx	lr
	.cantunwind
	.fnend
	.size	_ZN8opendnp318IMasterApplication7OnCloseEv, .-_ZN8opendnp318IMasterApplication7OnCloseEv
	.section	.text._ZN8opendnp312NullTaskLock7AcquireERNS_17IScheduleCallbackE,"axG",%progbits,_ZN8opendnp312NullTaskLock7AcquireERNS_17IScheduleCallbackE,comdat
	.align	2
	.weak	_ZN8opendnp312NullTaskLock7AcquireERNS_17IScheduleCallbackE
	.syntax unified
	.arm
	.fpu vfp
	.type	_ZN8opendnp312NullTaskLock7AcquireERNS_17IScheduleCallbackE, %function
_ZN8opendnp312NullTaskLock7AcquireERNS_17IScheduleCallbackE:
	.fnstart
.LFB2930:
	@ args = 0, pretend = 0, frame = 0
	@ frame_needed = 0, uses_anonymous_args = 0
	@ link register save eliminated.
	mov	r0, #1
	bx	lr
	.cantunwind
	.fnend
	.size	_ZN8opendnp312NullTaskLock7AcquireERNS_17IScheduleCallbackE, .-_ZN8opendnp312NullTaskLock7AcquireERNS_17IScheduleCallbackE
	.section	.text._ZN8opendnp312NullTaskLock7ReleaseERNS_17IScheduleCallbackE,"axG",%progbits,_ZN8opendnp312NullTaskLock7ReleaseERNS_17IScheduleCallbackE,comdat
	.align	2
	.weak	_ZN8opendnp312NullTaskLock7ReleaseERNS_17IScheduleCallbackE
	.syntax unified
	.arm
	.fpu vfp
	.type	_ZN8opendnp312NullTaskLock7ReleaseERNS_17IScheduleCallbackE, %function
_ZN8opendnp312NullTaskLock7ReleaseERNS_17IScheduleCallbackE:
	.fnstart
.LFB2931:
	@ args = 0, pretend = 0, frame = 0
	@ frame_needed = 0, uses_anonymous_args = 0
	@ link register save eliminated.
	mov	r0, #1
	bx	lr
	.cantunwind
	.fnend
	.size	_ZN8opendnp312NullTaskLock7ReleaseERNS_17IScheduleCallbackE, .-_ZN8opendnp312NullTaskLock7ReleaseERNS_17IScheduleCallbackE
	.section	.text._ZN8opendnp38MContext17RecordLastRequestERKN7openpal6RSliceE,"axG",%progbits,_ZN8opendnp38MContext17RecordLastRequestERKN7openpal6RSliceE,comdat
	.align	2
	.weak	_ZN8opendnp38MContext17RecordLastRequestERKN7openpal6RSliceE
	.syntax unified
	.arm
	.fpu vfp
	.type	_ZN8opendnp38MContext17RecordLastRequestERKN7openpal6RSliceE, %function
_ZN8opendnp38MContext17RecordLastRequestERKN7openpal6RSliceE:
	.fnstart
.LFB2944:
	@ args = 0, pretend = 0, frame = 0
	@ frame_needed = 0, uses_anonymous_args = 0
	@ link register save eliminated.
	bx	lr
	.cantunwind
	.fnend
	.size	_ZN8opendnp38MContext17RecordLastRequestERKN7openpal6RSliceE, .-_ZN8opendnp38MContext17RecordLastRequestERKN7openpal6RSliceE
	.section	.text._ZN8opendnp38MContext21MeetsUserRequirementsERKSt10shared_ptrINS_11IMasterTaskEE,"axG",%progbits,_ZN8opendnp38MContext21MeetsUserRequirementsERKSt10shared_ptrINS_11IMasterTaskEE,comdat
	.align	2
	.weak	_ZN8opendnp38MContext21MeetsUserRequirementsERKSt10shared_ptrINS_11IMasterTaskEE
	.syntax unified
	.arm
	.fpu vfp
	.type	_ZN8opendnp38MContext21MeetsUserRequirementsERKSt10shared_ptrINS_11IMasterTaskEE, %function
_ZN8opendnp38MContext21MeetsUserRequirementsERKSt10shared_ptrINS_11IMasterTaskEE:
	.fnstart
.LFB2945:
	@ args = 0, pretend = 0, frame = 0
	@ frame_needed = 0, uses_anonymous_args = 0
	@ link register save eliminated.
	mov	r0, #1
	bx	lr
	.cantunwind
	.fnend
	.size	_ZN8opendnp38MContext21MeetsUserRequirementsERKSt10shared_ptrINS_11IMasterTaskEE, .-_ZN8opendnp38MContext21MeetsUserRequirementsERKSt10shared_ptrINS_11IMasterTaskEE
	.section	.text._ZN8opendnp38MContext6CanRunERKNS_11IMasterTaskE,"axG",%progbits,_ZN8opendnp38MContext6CanRunERKNS_11IMasterTaskE,comdat
	.align	2
	.weak	_ZN8opendnp38MContext6CanRunERKNS_11IMasterTaskE
	.syntax unified
	.arm
	.fpu vfp
	.type	_ZN8opendnp38MContext6CanRunERKNS_11IMasterTaskE, %function
_ZN8opendnp38MContext6CanRunERKNS_11IMasterTaskE:
	.fnstart
.LFB2946:
	@ args = 0, pretend = 0, frame = 0
	@ frame_needed = 0, uses_anonymous_args = 0
	@ link register save eliminated.
	mov	r0, #1
	bx	lr
	.cantunwind
	.fnend
	.size	_ZN8opendnp38MContext6CanRunERKNS_11IMasterTaskE, .-_ZN8opendnp38MContext6CanRunERKNS_11IMasterTaskE
	.set	.LTHUNK0,_ZN8opendnp38MContext6CanRunERKNS_11IMasterTaskE
	.align	2
	.weak	_ZThn8_N8opendnp38MContext6CanRunERKNS_11IMasterTaskE
	.syntax unified
	.arm
	.fpu vfp
	.type	_ZThn8_N8opendnp38MContext6CanRunERKNS_11IMasterTaskE, %function
_ZThn8_N8opendnp38MContext6CanRunERKNS_11IMasterTaskE:
	.fnstart
.LFB5013:
	@ args = 0, pretend = 0, frame = 0
	@ frame_needed = 0, uses_anonymous_args = 0
	sub	r0, r0, #8
	b	.LTHUNK0(PLT)
	.cantunwind
	.fnend
	.size	_ZThn8_N8opendnp38MContext6CanRunERKNS_11IMasterTaskE, .-_ZThn8_N8opendnp38MContext6CanRunERKNS_11IMasterTaskE
	.text
	.align	2
	.syntax unified
	.arm
	.fpu vfp
	.type	_ZNSt14_Function_base13_Base_managerIZN8opendnp38MContext16PostCheckForTaskEvEUlvE_E10_M_managerERSt9_Any_dataRKS5_St18_Manager_operation, %function
_ZNSt14_Function_base13_Base_managerIZN8opendnp38MContext16PostCheckForTaskEvEUlvE_E10_M_managerERSt9_Any_dataRKS5_St18_Manager_operation:
	.fnstart
.LFB3917:
	@ args = 0, pretend = 0, frame = 0
	@ frame_needed = 0, uses_anonymous_args = 0
	@ link register save eliminated.
	cmp	r2, #1
	streq	r1, [r0]
	beq	.L10
	bcc	.L12
	cmp	r2, #2
	ldreq	r3, [r1]
	streq	r3, [r0]
.L10:
	mov	r0, #0
	bx	lr
.L12:
	ldr	r3, .L15
.LPIC0:
	add	r3, pc, r3
	str	r3, [r0]
	mov	r0, #0
	bx	lr
.L16:
	.align	2
.L15:
	.word	.LANCHOR0-(.LPIC0+8)
	.cantunwind
	.fnend
	.size	_ZNSt14_Function_base13_Base_managerIZN8opendnp38MContext16PostCheckForTaskEvEUlvE_E10_M_managerERSt9_Any_dataRKS5_St18_Manager_operation, .-_ZNSt14_Function_base13_Base_managerIZN8opendnp38MContext16PostCheckForTaskEvEUlvE_E10_M_managerERSt9_Any_dataRKS5_St18_Manager_operation
	.align	2
	.syntax unified
	.arm
	.fpu vfp
	.type	_ZNSt14_Function_base13_Base_managerIZN8opendnp38MContext12AddClassScanERKNS1_10ClassFieldEN7openpal12TimeDurationENS1_10TaskConfigEEUlRNS1_12HeaderWriterEE_E10_M_managerERSt9_Any_dataRKSD_St18_Manager_operation, %function
_ZNSt14_Function_base13_Base_managerIZN8opendnp38MContext12AddClassScanERKNS1_10ClassFieldEN7openpal12TimeDurationENS1_10TaskConfigEEUlRNS1_12HeaderWriterEE_E10_M_managerERSt9_Any_dataRKSD_St18_Manager_operation:
	.fnstart
.LFB3941:
	@ args = 0, pretend = 0, frame = 0
	@ frame_needed = 0, uses_anonymous_args = 0
	@ link register save eliminated.
	cmp	r2, #1
	streq	r1, [r0]
	beq	.L18
	bcc	.L20
	cmp	r2, #2
	ldrbeq	r3, [r1]	@ zero_extendqisi2
	strbeq	r3, [r0]
.L18:
	mov	r0, #0
	bx	lr
.L20:
	ldr	r3, .L22
.LPIC1:
	add	r3, pc, r3
	add	r3, r3, #8
	str	r3, [r0]
	mov	r0, #0
	bx	lr
.L23:
	.align	2
.L22:
	.word	.LANCHOR0-(.LPIC1+8)
	.cantunwind
	.fnend
	.size	_ZNSt14_Function_base13_Base_managerIZN8opendnp38MContext12AddClassScanERKNS1_10ClassFieldEN7openpal12TimeDurationENS1_10TaskConfigEEUlRNS1_12HeaderWriterEE_E10_M_managerERSt9_Any_dataRKSD_St18_Manager_operation, .-_ZNSt14_Function_base13_Base_managerIZN8opendnp38MContext12AddClassScanERKNS1_10ClassFieldEN7openpal12TimeDurationENS1_10TaskConfigEEUlRNS1_12HeaderWriterEE_E10_M_managerERSt9_Any_dataRKSD_St18_Manager_operation
	.align	2
	.syntax unified
	.arm
	.fpu vfp
	.type	_ZNSt14_Function_base13_Base_managerIZN8opendnp38MContext17AddAllObjectsScanENS1_16GroupVariationIDEN7openpal12TimeDurationENS1_10TaskConfigEEUlRNS1_12HeaderWriterEE_E10_M_managerERSt9_Any_dataRKSB_St18_Manager_operation, %function
_ZNSt14_Function_base13_Base_managerIZN8opendnp38MContext17AddAllObjectsScanENS1_16GroupVariationIDEN7openpal12TimeDurationENS1_10TaskConfigEEUlRNS1_12HeaderWriterEE_E10_M_managerERSt9_Any_dataRKSB_St18_Manager_operation:
	.fnstart
.LFB3945:
	@ args = 0, pretend = 0, frame = 0
	@ frame_needed = 0, uses_anonymous_args = 0
	@ link register save eliminated.
	cmp	r2, #1
	streq	r1, [r0]
	beq	.L25
	bcc	.L27
	cmp	r2, #2
	ldrheq	r3, [r1]	@ unaligned
	strheq	r3, [r0]	@ unaligned
.L25:
	mov	r0, #0
	bx	lr
.L27:
	ldr	r3, .L29
.LPIC2:
	add	r3, pc, r3
	add	r3, r3, #16
	str	r3, [r0]
	mov	r0, #0
	bx	lr
.L30:
	.align	2
.L29:
	.word	.LANCHOR0-(.LPIC2+8)
	.cantunwind
	.fnend
	.size	_ZNSt14_Function_base13_Base_managerIZN8opendnp38MContext17AddAllObjectsScanENS1_16GroupVariationIDEN7openpal12TimeDurationENS1_10TaskConfigEEUlRNS1_12HeaderWriterEE_E10_M_managerERSt9_Any_dataRKSB_St18_Manager_operation, .-_ZNSt14_Function_base13_Base_managerIZN8opendnp38MContext17AddAllObjectsScanENS1_16GroupVariationIDEN7openpal12TimeDurationENS1_10TaskConfigEEUlRNS1_12HeaderWriterEE_E10_M_managerERSt9_Any_dataRKSB_St18_Manager_operation
	.align	2
	.syntax unified
	.arm
	.fpu vfp
	.type	_ZNSt14_Function_base13_Base_managerIZN8opendnp38MContext11ScanClassesERKNS1_10ClassFieldENS1_10TaskConfigEEUlRNS1_12HeaderWriterEE_E10_M_managerERSt9_Any_dataRKSB_St18_Manager_operation, %function
_ZNSt14_Function_base13_Base_managerIZN8opendnp38MContext11ScanClassesERKNS1_10ClassFieldENS1_10TaskConfigEEUlRNS1_12HeaderWriterEE_E10_M_managerERSt9_Any_dataRKSB_St18_Manager_operation:
	.fnstart
.LFB3955:
	@ args = 0, pretend = 0, frame = 0
	@ frame_needed = 0, uses_anonymous_args = 0
	@ link register save eliminated.
	cmp	r2, #1
	streq	r1, [r0]
	beq	.L32
	bcc	.L34
	cmp	r2, #2
	ldrbeq	r3, [r1]	@ zero_extendqisi2
	strbeq	r3, [r0]
.L32:
	mov	r0, #0
	bx	lr
.L34:
	ldr	r3, .L36
.LPIC3:
	add	r3, pc, r3
	add	r3, r3, #24
	str	r3, [r0]
	mov	r0, #0
	bx	lr
.L37:
	.align	2
.L36:
	.word	.LANCHOR0-(.LPIC3+8)
	.cantunwind
	.fnend
	.size	_ZNSt14_Function_base13_Base_managerIZN8opendnp38MContext11ScanClassesERKNS1_10ClassFieldENS1_10TaskConfigEEUlRNS1_12HeaderWriterEE_E10_M_managerERSt9_Any_dataRKSB_St18_Manager_operation, .-_ZNSt14_Function_base13_Base_managerIZN8opendnp38MContext11ScanClassesERKNS1_10ClassFieldENS1_10TaskConfigEEUlRNS1_12HeaderWriterEE_E10_M_managerERSt9_Any_dataRKSB_St18_Manager_operation
	.align	2
	.syntax unified
	.arm
	.fpu vfp
	.type	_ZNSt14_Function_base13_Base_managerIZN8opendnp38MContext14ScanAllObjectsENS1_16GroupVariationIDENS1_10TaskConfigEEUlRNS1_12HeaderWriterEE_E10_M_managerERSt9_Any_dataRKS9_St18_Manager_operation, %function
_ZNSt14_Function_base13_Base_managerIZN8opendnp38MContext14ScanAllObjectsENS1_16GroupVariationIDENS1_10TaskConfigEEUlRNS1_12HeaderWriterEE_E10_M_managerERSt9_Any_dataRKS9_St18_Manager_operation:
	.fnstart
.LFB3959:
	@ args = 0, pretend = 0, frame = 0
	@ frame_needed = 0, uses_anonymous_args = 0
	@ link register save eliminated.
	cmp	r2, #1
	streq	r1, [r0]
	beq	.L39
	bcc	.L41
	cmp	r2, #2
	ldrheq	r3, [r1]	@ unaligned
	strheq	r3, [r0]	@ unaligned
.L39:
	mov	r0, #0
	bx	lr
.L41:
	ldr	r3, .L43
.LPIC4:
	add	r3, pc, r3
	add	r3, r3, #32
	str	r3, [r0]
	mov	r0, #0
	bx	lr
.L44:
	.align	2
.L43:
	.word	.LANCHOR0-(.LPIC4+8)
	.cantunwind
	.fnend
	.size	_ZNSt14_Function_base13_Base_managerIZN8opendnp38MContext14ScanAllObjectsENS1_16GroupVariationIDENS1_10TaskConfigEEUlRNS1_12HeaderWriterEE_E10_M_managerERSt9_Any_dataRKS9_St18_Manager_operation, .-_ZNSt14_Function_base13_Base_managerIZN8opendnp38MContext14ScanAllObjectsENS1_16GroupVariationIDENS1_10TaskConfigEEUlRNS1_12HeaderWriterEE_E10_M_managerERSt9_Any_dataRKS9_St18_Manager_operation
	.section	.text._ZNSt23_Sp_counted_ptr_inplaceIN8opendnp320RestartOperationTaskESaIS1_ELN9__gnu_cxx12_Lock_policyE1EED2Ev,"axG",%progbits,_ZNSt23_Sp_counted_ptr_inplaceIN8opendnp320RestartOperationTaskESaIS1_ELN9__gnu_cxx12_Lock_policyE1EED5Ev,comdat
	.align	2
	.weak	_ZNSt23_Sp_counted_ptr_inplaceIN8opendnp320RestartOperationTaskESaIS1_ELN9__gnu_cxx12_Lock_policyE1EED2Ev
	.syntax unified
	.arm
	.fpu vfp
	.type	_ZNSt23_Sp_counted_ptr_inplaceIN8opendnp320RestartOperationTaskESaIS1_ELN9__gnu_cxx12_Lock_policyE1EED2Ev, %function
_ZNSt23_Sp_counted_ptr_inplaceIN8opendnp320RestartOperationTaskESaIS1_ELN9__gnu_cxx12_Lock_policyE1EED2Ev:
	.fnstart
.LFB4754:
	@ args = 0, pretend = 0, frame = 0
	@ frame_needed = 0, uses_anonymous_args = 0
	@ link register save eliminated.
	bx	lr
	.cantunwind
	.fnend
	.size	_ZNSt23_Sp_counted_ptr_inplaceIN8opendnp320RestartOperationTaskESaIS1_ELN9__gnu_cxx12_Lock_policyE1EED2Ev, .-_ZNSt23_Sp_counted_ptr_inplaceIN8opendnp320RestartOperationTaskESaIS1_ELN9__gnu_cxx12_Lock_policyE1EED2Ev
	.weak	_ZNSt23_Sp_counted_ptr_inplaceIN8opendnp320RestartOperationTaskESaIS1_ELN9__gnu_cxx12_Lock_policyE1EED1Ev
	.set	_ZNSt23_Sp_counted_ptr_inplaceIN8opendnp320RestartOperationTaskESaIS1_ELN9__gnu_cxx12_Lock_policyE1EED1Ev,_ZNSt23_Sp_counted_ptr_inplaceIN8opendnp320RestartOperationTaskESaIS1_ELN9__gnu_cxx12_Lock_policyE1EED2Ev
	.section	.text._ZNSt23_Sp_counted_ptr_inplaceIN8opendnp317EmptyResponseTaskESaIS1_ELN9__gnu_cxx12_Lock_policyE1EED2Ev,"axG",%progbits,_ZNSt23_Sp_counted_ptr_inplaceIN8opendnp317EmptyResponseTaskESaIS1_ELN9__gnu_cxx12_Lock_policyE1EED5Ev,comdat
	.align	2
	.weak	_ZNSt23_Sp_counted_ptr_inplaceIN8opendnp317EmptyResponseTaskESaIS1_ELN9__gnu_cxx12_Lock_policyE1EED2Ev
	.syntax unified
	.arm
	.fpu vfp
	.type	_ZNSt23_Sp_counted_ptr_inplaceIN8opendnp317EmptyResponseTaskESaIS1_ELN9__gnu_cxx12_Lock_policyE1EED2Ev, %function
_ZNSt23_Sp_counted_ptr_inplaceIN8opendnp317EmptyResponseTaskESaIS1_ELN9__gnu_cxx12_Lock_policyE1EED2Ev:
	.fnstart
.LFB4761:
	@ args = 0, pretend = 0, frame = 0
	@ frame_needed = 0, uses_anonymous_args = 0
	@ link register save eliminated.
	bx	lr
	.cantunwind
	.fnend
	.size	_ZNSt23_Sp_counted_ptr_inplaceIN8opendnp317EmptyResponseTaskESaIS1_ELN9__gnu_cxx12_Lock_policyE1EED2Ev, .-_ZNSt23_Sp_counted_ptr_inplaceIN8opendnp317EmptyResponseTaskESaIS1_ELN9__gnu_cxx12_Lock_policyE1EED2Ev
	.weak	_ZNSt23_Sp_counted_ptr_inplaceIN8opendnp317EmptyResponseTaskESaIS1_ELN9__gnu_cxx12_Lock_policyE1EED1Ev
	.set	_ZNSt23_Sp_counted_ptr_inplaceIN8opendnp317EmptyResponseTaskESaIS1_ELN9__gnu_cxx12_Lock_policyE1EED1Ev,_ZNSt23_Sp_counted_ptr_inplaceIN8opendnp317EmptyResponseTaskESaIS1_ELN9__gnu_cxx12_Lock_policyE1EED2Ev
	.section	.text._ZNSt23_Sp_counted_ptr_inplaceIN8opendnp317EmptyResponseTaskESaIS1_ELN9__gnu_cxx12_Lock_policyE1EE10_M_disposeEv,"axG",%progbits,_ZNSt23_Sp_counted_ptr_inplaceIN8opendnp317EmptyResponseTaskESaIS1_ELN9__gnu_cxx12_Lock_policyE1EE10_M_disposeEv,comdat
	.align	2
	.weak	_ZNSt23_Sp_counted_ptr_inplaceIN8opendnp317EmptyResponseTaskESaIS1_ELN9__gnu_cxx12_Lock_policyE1EE10_M_disposeEv
	.syntax unified
	.arm
	.fpu vfp
	.type	_ZNSt23_Sp_counted_ptr_inplaceIN8opendnp317EmptyResponseTaskESaIS1_ELN9__gnu_cxx12_Lock_policyE1EE10_M_disposeEv, %function
_ZNSt23_Sp_counted_ptr_inplaceIN8opendnp317EmptyResponseTaskESaIS1_ELN9__gnu_cxx12_Lock_policyE1EE10_M_disposeEv:
	.fnstart
.LFB4764:
	@ args = 0, pretend = 0, frame = 0
	@ frame_needed = 0, uses_anonymous_args = 0
	@ link register save eliminated.
	mov	r3, r0
	add	r0, r0, #40
	ldr	r3, [r3, #40]
	ldr	r3, [r3]
	bx	r3
	.cantunwind
	.fnend
	.size	_ZNSt23_Sp_counted_ptr_inplaceIN8opendnp317EmptyResponseTaskESaIS1_ELN9__gnu_cxx12_Lock_policyE1EE10_M_disposeEv, .-_ZNSt23_Sp_counted_ptr_inplaceIN8opendnp317EmptyResponseTaskESaIS1_ELN9__gnu_cxx12_Lock_policyE1EE10_M_disposeEv
	.section	.text._ZNSt23_Sp_counted_ptr_inplaceIN8opendnp312UserPollTaskESaIS1_ELN9__gnu_cxx12_Lock_policyE1EED2Ev,"axG",%progbits,_ZNSt23_Sp_counted_ptr_inplaceIN8opendnp312UserPollTaskESaIS1_ELN9__gnu_cxx12_Lock_policyE1EED5Ev,comdat
	.align	2
	.weak	_ZNSt23_Sp_counted_ptr_inplaceIN8opendnp312UserPollTaskESaIS1_ELN9__gnu_cxx12_Lock_policyE1EED2Ev
	.syntax unified
	.arm
	.fpu vfp
	.type	_ZNSt23_Sp_counted_ptr_inplaceIN8opendnp312UserPollTaskESaIS1_ELN9__gnu_cxx12_Lock_policyE1EED2Ev, %function
_ZNSt23_Sp_counted_ptr_inplaceIN8opendnp312UserPollTaskESaIS1_ELN9__gnu_cxx12_Lock_policyE1EED2Ev:
	.fnstart
.LFB4768:
	@ args = 0, pretend = 0, frame = 0
	@ frame_needed = 0, uses_anonymous_args = 0
	@ link register save eliminated.
	bx	lr
	.cantunwind
	.fnend
	.size	_ZNSt23_Sp_counted_ptr_inplaceIN8opendnp312UserPollTaskESaIS1_ELN9__gnu_cxx12_Lock_policyE1EED2Ev, .-_ZNSt23_Sp_counted_ptr_inplaceIN8opendnp312UserPollTaskESaIS1_ELN9__gnu_cxx12_Lock_policyE1EED2Ev
	.weak	_ZNSt23_Sp_counted_ptr_inplaceIN8opendnp312UserPollTaskESaIS1_ELN9__gnu_cxx12_Lock_policyE1EED1Ev
	.set	_ZNSt23_Sp_counted_ptr_inplaceIN8opendnp312UserPollTaskESaIS1_ELN9__gnu_cxx12_Lock_policyE1EED1Ev,_ZNSt23_Sp_counted_ptr_inplaceIN8opendnp312UserPollTaskESaIS1_ELN9__gnu_cxx12_Lock_policyE1EED2Ev
	.section	.text._ZNSt23_Sp_counted_ptr_inplaceIN8opendnp320RestartOperationTaskESaIS1_ELN9__gnu_cxx12_Lock_policyE1EE10_M_destroyEv,"axG",%progbits,_ZNSt23_Sp_counted_ptr_inplaceIN8opendnp320RestartOperationTaskESaIS1_ELN9__gnu_cxx12_Lock_policyE1EE10_M_destroyEv,comdat
	.align	2
	.weak	_ZNSt23_Sp_counted_ptr_inplaceIN8opendnp320RestartOperationTaskESaIS1_ELN9__gnu_cxx12_Lock_policyE1EE10_M_destroyEv
	.syntax unified
	.arm
	.fpu vfp
	.type	_ZNSt23_Sp_counted_ptr_inplaceIN8opendnp320RestartOperationTaskESaIS1_ELN9__gnu_cxx12_Lock_policyE1EE10_M_destroyEv, %function
_ZNSt23_Sp_counted_ptr_inplaceIN8opendnp320RestartOperationTaskESaIS1_ELN9__gnu_cxx12_Lock_policyE1EE10_M_destroyEv:
	.fnstart
.LFB4758:
	@ args = 0, pretend = 0, frame = 0
	@ frame_needed = 0, uses_anonymous_args = 0
	@ link register save eliminated.
	b	_ZdlPv(PLT)
	.cantunwind
	.fnend
	.size	_ZNSt23_Sp_counted_ptr_inplaceIN8opendnp320RestartOperationTaskESaIS1_ELN9__gnu_cxx12_Lock_policyE1EE10_M_destroyEv, .-_ZNSt23_Sp_counted_ptr_inplaceIN8opendnp320RestartOperationTaskESaIS1_ELN9__gnu_cxx12_Lock_policyE1EE10_M_destroyEv
	.section	.text._ZNSt23_Sp_counted_ptr_inplaceIN8opendnp317EmptyResponseTaskESaIS1_ELN9__gnu_cxx12_Lock_policyE1EE10_M_destroyEv,"axG",%progbits,_ZNSt23_Sp_counted_ptr_inplaceIN8opendnp317EmptyResponseTaskESaIS1_ELN9__gnu_cxx12_Lock_policyE1EE10_M_destroyEv,comdat
	.align	2
	.weak	_ZNSt23_Sp_counted_ptr_inplaceIN8opendnp317EmptyResponseTaskESaIS1_ELN9__gnu_cxx12_Lock_policyE1EE10_M_destroyEv
	.syntax unified
	.arm
	.fpu vfp
	.type	_ZNSt23_Sp_counted_ptr_inplaceIN8opendnp317EmptyResponseTaskESaIS1_ELN9__gnu_cxx12_Lock_policyE1EE10_M_destroyEv, %function
_ZNSt23_Sp_counted_ptr_inplaceIN8opendnp317EmptyResponseTaskESaIS1_ELN9__gnu_cxx12_Lock_policyE1EE10_M_destroyEv:
	.fnstart
.LFB4765:
	@ args = 0, pretend = 0, frame = 0
	@ frame_needed = 0, uses_anonymous_args = 0
	@ link register save eliminated.
	b	_ZdlPv(PLT)
	.cantunwind
	.fnend
	.size	_ZNSt23_Sp_counted_ptr_inplaceIN8opendnp317EmptyResponseTaskESaIS1_ELN9__gnu_cxx12_Lock_policyE1EE10_M_destroyEv, .-_ZNSt23_Sp_counted_ptr_inplaceIN8opendnp317EmptyResponseTaskESaIS1_ELN9__gnu_cxx12_Lock_policyE1EE10_M_destroyEv
	.section	.text._ZNSt23_Sp_counted_ptr_inplaceIN8opendnp312UserPollTaskESaIS1_ELN9__gnu_cxx12_Lock_policyE1EE10_M_destroyEv,"axG",%progbits,_ZNSt23_Sp_counted_ptr_inplaceIN8opendnp312UserPollTaskESaIS1_ELN9__gnu_cxx12_Lock_policyE1EE10_M_destroyEv,comdat
	.align	2
	.weak	_ZNSt23_Sp_counted_ptr_inplaceIN8opendnp312UserPollTaskESaIS1_ELN9__gnu_cxx12_Lock_policyE1EE10_M_destroyEv
	.syntax unified
	.arm
	.fpu vfp
	.type	_ZNSt23_Sp_counted_ptr_inplaceIN8opendnp312UserPollTaskESaIS1_ELN9__gnu_cxx12_Lock_policyE1EE10_M_destroyEv, %function
_ZNSt23_Sp_counted_ptr_inplaceIN8opendnp312UserPollTaskESaIS1_ELN9__gnu_cxx12_Lock_policyE1EE10_M_destroyEv:
	.fnstart
.LFB4772:
	@ args = 0, pretend = 0, frame = 0
	@ frame_needed = 0, uses_anonymous_args = 0
	@ link register save eliminated.
	b	_ZdlPv(PLT)
	.cantunwind
	.fnend
	.size	_ZNSt23_Sp_counted_ptr_inplaceIN8opendnp312UserPollTaskESaIS1_ELN9__gnu_cxx12_Lock_policyE1EE10_M_destroyEv, .-_ZNSt23_Sp_counted_ptr_inplaceIN8opendnp312UserPollTaskESaIS1_ELN9__gnu_cxx12_Lock_policyE1EE10_M_destroyEv
	.section	.text._ZNSt23_Sp_counted_ptr_inplaceIN8opendnp312UserPollTaskESaIS1_ELN9__gnu_cxx12_Lock_policyE1EED0Ev,"axG",%progbits,_ZNSt23_Sp_counted_ptr_inplaceIN8opendnp312UserPollTaskESaIS1_ELN9__gnu_cxx12_Lock_policyE1EED5Ev,comdat
	.align	2
	.weak	_ZNSt23_Sp_counted_ptr_inplaceIN8opendnp312UserPollTaskESaIS1_ELN9__gnu_cxx12_Lock_policyE1EED0Ev
	.syntax unified
	.arm
	.fpu vfp
	.type	_ZNSt23_Sp_counted_ptr_inplaceIN8opendnp312UserPollTaskESaIS1_ELN9__gnu_cxx12_Lock_policyE1EED0Ev, %function
_ZNSt23_Sp_counted_ptr_inplaceIN8opendnp312UserPollTaskESaIS1_ELN9__gnu_cxx12_Lock_policyE1EED0Ev:
	.fnstart
.LFB4770:
	@ args = 0, pretend = 0, frame = 0
	@ frame_needed = 0, uses_anonymous_args = 0
	push	{r4, lr}
	mov	r1, #152
	mov	r4, r0
	bl	_ZdlPvj(PLT)
	mov	r0, r4
	pop	{r4, pc}
	.cantunwind
	.fnend
	.size	_ZNSt23_Sp_counted_ptr_inplaceIN8opendnp312UserPollTaskESaIS1_ELN9__gnu_cxx12_Lock_policyE1EED0Ev, .-_ZNSt23_Sp_counted_ptr_inplaceIN8opendnp312UserPollTaskESaIS1_ELN9__gnu_cxx12_Lock_policyE1EED0Ev
	.section	.text._ZNSt23_Sp_counted_ptr_inplaceIN8opendnp317EmptyResponseTaskESaIS1_ELN9__gnu_cxx12_Lock_policyE1EED0Ev,"axG",%progbits,_ZNSt23_Sp_counted_ptr_inplaceIN8opendnp317EmptyResponseTaskESaIS1_ELN9__gnu_cxx12_Lock_policyE1EED5Ev,comdat
	.align	2
	.weak	_ZNSt23_Sp_counted_ptr_inplaceIN8opendnp317EmptyResponseTaskESaIS1_ELN9__gnu_cxx12_Lock_policyE1EED0Ev
	.syntax unified
	.arm
	.fpu vfp
	.type	_ZNSt23_Sp_counted_ptr_inplaceIN8opendnp317EmptyResponseTaskESaIS1_ELN9__gnu_cxx12_Lock_policyE1EED0Ev, %function
_ZNSt23_Sp_counted_ptr_inplaceIN8opendnp317EmptyResponseTaskESaIS1_ELN9__gnu_cxx12_Lock_policyE1EED0Ev:
	.fnstart
.LFB4763:
	@ args = 0, pretend = 0, frame = 0
	@ frame_needed = 0, uses_anonymous_args = 0
	push	{r4, lr}
	mov	r1, #152
	mov	r4, r0
	bl	_ZdlPvj(PLT)
	mov	r0, r4
	pop	{r4, pc}
	.cantunwind
	.fnend
	.size	_ZNSt23_Sp_counted_ptr_inplaceIN8opendnp317EmptyResponseTaskESaIS1_ELN9__gnu_cxx12_Lock_policyE1EED0Ev, .-_ZNSt23_Sp_counted_ptr_inplaceIN8opendnp317EmptyResponseTaskESaIS1_ELN9__gnu_cxx12_Lock_policyE1EED0Ev
	.section	.text._ZNSt23_Sp_counted_ptr_inplaceIN8opendnp320RestartOperationTaskESaIS1_ELN9__gnu_cxx12_Lock_policyE1EED0Ev,"axG",%progbits,_ZNSt23_Sp_counted_ptr_inplaceIN8opendnp320RestartOperationTaskESaIS1_ELN9__gnu_cxx12_Lock_policyE1EED5Ev,comdat
	.align	2
	.weak	_ZNSt23_Sp_counted_ptr_inplaceIN8opendnp320RestartOperationTaskESaIS1_ELN9__gnu_cxx12_Lock_policyE1EED0Ev
	.syntax unified
	.arm
	.fpu vfp
	.type	_ZNSt23_Sp_counted_ptr_inplaceIN8opendnp320RestartOperationTaskESaIS1_ELN9__gnu_cxx12_Lock_policyE1EED0Ev, %function
_ZNSt23_Sp_counted_ptr_inplaceIN8opendnp320RestartOperationTaskESaIS1_ELN9__gnu_cxx12_Lock_policyE1EED0Ev:
	.fnstart
.LFB4756:
	@ args = 0, pretend = 0, frame = 0
	@ frame_needed = 0, uses_anonymous_args = 0
	push	{r4, lr}
	mov	r1, #168
	mov	r4, r0
	bl	_ZdlPvj(PLT)
	mov	r0, r4
	pop	{r4, pc}
	.cantunwind
	.fnend
	.size	_ZNSt23_Sp_counted_ptr_inplaceIN8opendnp320RestartOperationTaskESaIS1_ELN9__gnu_cxx12_Lock_policyE1EED0Ev, .-_ZNSt23_Sp_counted_ptr_inplaceIN8opendnp320RestartOperationTaskESaIS1_ELN9__gnu_cxx12_Lock_policyE1EED0Ev
	.section	.text._ZNSt23_Sp_counted_ptr_inplaceIN8opendnp312UserPollTaskESaIS1_ELN9__gnu_cxx12_Lock_policyE1EE14_M_get_deleterERKSt9type_info,"axG",%progbits,_ZNSt23_Sp_counted_ptr_inplaceIN8opendnp312UserPollTaskESaIS1_ELN9__gnu_cxx12_Lock_policyE1EE14_M_get_deleterERKSt9type_info,comdat
	.align	2
	.weak	_ZNSt23_Sp_counted_ptr_inplaceIN8opendnp312UserPollTaskESaIS1_ELN9__gnu_cxx12_Lock_policyE1EE14_M_get_deleterERKSt9type_info
	.syntax unified
	.arm
	.fpu vfp
	.type	_ZNSt23_Sp_counted_ptr_inplaceIN8opendnp312UserPollTaskESaIS1_ELN9__gnu_cxx12_Lock_policyE1EE14_M_get_deleterERKSt9type_info, %function
_ZNSt23_Sp_counted_ptr_inplaceIN8opendnp312UserPollTaskESaIS1_ELN9__gnu_cxx12_Lock_policyE1EE14_M_get_deleterERKSt9type_info:
	.fnstart
.LFB4773:
	@ args = 0, pretend = 0, frame = 0
	@ frame_needed = 0, uses_anonymous_args = 0
	ldr	r3, .L62
	ldr	r2, .L62+4
.LPIC5:
	add	r3, pc, r3
	push	{r4, lr}
	mov	r4, r0
	ldr	r2, [r3, r2]
	mov	r0, r1
	mov	r1, r2
	bl	_ZNKSt9type_infoeqERKS_(PLT)
	cmp	r0, #0
	addne	r0, r4, #40
	pop	{r4, pc}
.L63:
	.align	2
.L62:
	.word	_GLOBAL_OFFSET_TABLE_-(.LPIC5+8)
	.word	_ZTISt19_Sp_make_shared_tag(GOT)
	.cantunwind
	.fnend
	.size	_ZNSt23_Sp_counted_ptr_inplaceIN8opendnp312UserPollTaskESaIS1_ELN9__gnu_cxx12_Lock_policyE1EE14_M_get_deleterERKSt9type_info, .-_ZNSt23_Sp_counted_ptr_inplaceIN8opendnp312UserPollTaskESaIS1_ELN9__gnu_cxx12_Lock_policyE1EE14_M_get_deleterERKSt9type_info
	.section	.text._ZNSt23_Sp_counted_ptr_inplaceIN8opendnp317EmptyResponseTaskESaIS1_ELN9__gnu_cxx12_Lock_policyE1EE14_M_get_deleterERKSt9type_info,"axG",%progbits,_ZNSt23_Sp_counted_ptr_inplaceIN8opendnp317EmptyResponseTaskESaIS1_ELN9__gnu_cxx12_Lock_policyE1EE14_M_get_deleterERKSt9type_info,comdat
	.align	2
	.weak	_ZNSt23_Sp_counted_ptr_inplaceIN8opendnp317EmptyResponseTaskESaIS1_ELN9__gnu_cxx12_Lock_policyE1EE14_M_get_deleterERKSt9type_info
	.syntax unified
	.arm
	.fpu vfp
	.type	_ZNSt23_Sp_counted_ptr_inplaceIN8opendnp317EmptyResponseTaskESaIS1_ELN9__gnu_cxx12_Lock_policyE1EE14_M_get_deleterERKSt9type_info, %function
_ZNSt23_Sp_counted_ptr_inplaceIN8opendnp317EmptyResponseTaskESaIS1_ELN9__gnu_cxx12_Lock_policyE1EE14_M_get_deleterERKSt9type_info:
	.fnstart
.LFB4766:
	@ args = 0, pretend = 0, frame = 0
	@ frame_needed = 0, uses_anonymous_args = 0
	ldr	r3, .L68
	ldr	r2, .L68+4
.LPIC6:
	add	r3, pc, r3
	push	{r4, lr}
	mov	r4, r0
	ldr	r2, [r3, r2]
	mov	r0, r1
	mov	r1, r2
	bl	_ZNKSt9type_infoeqERKS_(PLT)
	cmp	r0, #0
	addne	r0, r4, #40
	pop	{r4, pc}
.L69:
	.align	2
.L68:
	.word	_GLOBAL_OFFSET_TABLE_-(.LPIC6+8)
	.word	_ZTISt19_Sp_make_shared_tag(GOT)
	.cantunwind
	.fnend
	.size	_ZNSt23_Sp_counted_ptr_inplaceIN8opendnp317EmptyResponseTaskESaIS1_ELN9__gnu_cxx12_Lock_policyE1EE14_M_get_deleterERKSt9type_info, .-_ZNSt23_Sp_counted_ptr_inplaceIN8opendnp317EmptyResponseTaskESaIS1_ELN9__gnu_cxx12_Lock_policyE1EE14_M_get_deleterERKSt9type_info
	.section	.text._ZNSt23_Sp_counted_ptr_inplaceIN8opendnp320RestartOperationTaskESaIS1_ELN9__gnu_cxx12_Lock_policyE1EE14_M_get_deleterERKSt9type_info,"axG",%progbits,_ZNSt23_Sp_counted_ptr_inplaceIN8opendnp320RestartOperationTaskESaIS1_ELN9__gnu_cxx12_Lock_policyE1EE14_M_get_deleterERKSt9type_info,comdat
	.align	2
	.weak	_ZNSt23_Sp_counted_ptr_inplaceIN8opendnp320RestartOperationTaskESaIS1_ELN9__gnu_cxx12_Lock_policyE1EE14_M_get_deleterERKSt9type_info
	.syntax unified
	.arm
	.fpu vfp
	.type	_ZNSt23_Sp_counted_ptr_inplaceIN8opendnp320RestartOperationTaskESaIS1_ELN9__gnu_cxx12_Lock_policyE1EE14_M_get_deleterERKSt9type_info, %function
_ZNSt23_Sp_counted_ptr_inplaceIN8opendnp320RestartOperationTaskESaIS1_ELN9__gnu_cxx12_Lock_policyE1EE14_M_get_deleterERKSt9type_info:
	.fnstart
.LFB4759:
	@ args = 0, pretend = 0, frame = 0
	@ frame_needed = 0, uses_anonymous_args = 0
	ldr	r3, .L74
	ldr	r2, .L74+4
.LPIC7:
	add	r3, pc, r3
	push	{r4, lr}
	mov	r4, r0
	ldr	r2, [r3, r2]
	mov	r0, r1
	mov	r1, r2
	bl	_ZNKSt9type_infoeqERKS_(PLT)
	cmp	r0, #0
	addne	r0, r4, #40
	pop	{r4, pc}
.L75:
	.align	2
.L74:
	.word	_GLOBAL_OFFSET_TABLE_-(.LPIC7+8)
	.word	_ZTISt19_Sp_make_shared_tag(GOT)
	.cantunwind
	.fnend
	.size	_ZNSt23_Sp_counted_ptr_inplaceIN8opendnp320RestartOperationTaskESaIS1_ELN9__gnu_cxx12_Lock_policyE1EE14_M_get_deleterERKSt9type_info, .-_ZNSt23_Sp_counted_ptr_inplaceIN8opendnp320RestartOperationTaskESaIS1_ELN9__gnu_cxx12_Lock_policyE1EE14_M_get_deleterERKSt9type_info
	.text
	.align	2
	.syntax unified
	.arm
	.fpu vfp
	.type	_ZNSt17_Function_handlerIFbRN8opendnp312HeaderWriterEEZNS0_8MContext12AddClassScanERKNS0_10ClassFieldEN7openpal12TimeDurationENS0_10TaskConfigEEUlS2_E_E9_M_invokeERKSt9_Any_dataS2_, %function
_ZNSt17_Function_handlerIFbRN8opendnp312HeaderWriterEEZNS0_8MContext12AddClassScanERKNS0_10ClassFieldEN7openpal12TimeDurationENS0_10TaskConfigEEUlS2_E_E9_M_invokeERKSt9_Any_dataS2_:
	.fnstart
.LFB3939:
	@ args = 0, pretend = 0, frame = 0
	@ frame_needed = 0, uses_anonymous_args = 0
	@ link register save eliminated.
	mov	r3, r1
	mov	r1, r0
	mov	r0, r3
	b	_ZN8opendnp35build17WriteClassHeadersERNS_12HeaderWriterERKNS_10ClassFieldE(PLT)
	.cantunwind
	.fnend
	.size	_ZNSt17_Function_handlerIFbRN8opendnp312HeaderWriterEEZNS0_8MContext12AddClassScanERKNS0_10ClassFieldEN7openpal12TimeDurationENS0_10TaskConfigEEUlS2_E_E9_M_invokeERKSt9_Any_dataS2_, .-_ZNSt17_Function_handlerIFbRN8opendnp312HeaderWriterEEZNS0_8MContext12AddClassScanERKNS0_10ClassFieldEN7openpal12TimeDurationENS0_10TaskConfigEEUlS2_E_E9_M_invokeERKSt9_Any_dataS2_
	.align	2
	.syntax unified
	.arm
	.fpu vfp
	.type	_ZNSt17_Function_handlerIFbRN8opendnp312HeaderWriterEEZNS0_8MContext11ScanClassesERKNS0_10ClassFieldENS0_10TaskConfigEEUlS2_E_E9_M_invokeERKSt9_Any_dataS2_, %function
_ZNSt17_Function_handlerIFbRN8opendnp312HeaderWriterEEZNS0_8MContext11ScanClassesERKNS0_10ClassFieldENS0_10TaskConfigEEUlS2_E_E9_M_invokeERKSt9_Any_dataS2_:
	.fnstart
.LFB3954:
	@ args = 0, pretend = 0, frame = 0
	@ frame_needed = 0, uses_anonymous_args = 0
	@ link register save eliminated.
	mov	r3, r1
	mov	r1, r0
	mov	r0, r3
	b	_ZN8opendnp35build17WriteClassHeadersERNS_12HeaderWriterERKNS_10ClassFieldE(PLT)
	.cantunwind
	.fnend
	.size	_ZNSt17_Function_handlerIFbRN8opendnp312HeaderWriterEEZNS0_8MContext11ScanClassesERKNS0_10ClassFieldENS0_10TaskConfigEEUlS2_E_E9_M_invokeERKSt9_Any_dataS2_, .-_ZNSt17_Function_handlerIFbRN8opendnp312HeaderWriterEEZNS0_8MContext11ScanClassesERKNS0_10ClassFieldENS0_10TaskConfigEEUlS2_E_E9_M_invokeERKSt9_Any_dataS2_
	.align	2
	.syntax unified
	.arm
	.fpu vfp
	.type	_ZNSt17_Function_handlerIFbRN8opendnp312HeaderWriterEEZNS0_8MContext17AddAllObjectsScanENS0_16GroupVariationIDEN7openpal12TimeDurationENS0_10TaskConfigEEUlS2_E_E9_M_invokeERKSt9_Any_dataS2_, %function
_ZNSt17_Function_handlerIFbRN8opendnp312HeaderWriterEEZNS0_8MContext17AddAllObjectsScanENS0_16GroupVariationIDEN7openpal12TimeDurationENS0_10TaskConfigEEUlS2_E_E9_M_invokeERKSt9_Any_dataS2_:
	.fnstart
.LFB3944:
	@ args = 0, pretend = 0, frame = 0
	@ frame_needed = 0, uses_anonymous_args = 0
	@ link register save eliminated.
	ldrb	ip, [r0, #1]	@ zero_extendqisi2
	ldrb	r3, [r0]	@ zero_extendqisi2
	mov	r2, #6
	mov	r0, r1
	orr	r1, r3, ip, lsl #8
	b	_ZN8opendnp312HeaderWriter11WriteHeaderENS_16GroupVariationIDENS_13QualifierCodeE(PLT)
	.cantunwind
	.fnend
	.size	_ZNSt17_Function_handlerIFbRN8opendnp312HeaderWriterEEZNS0_8MContext17AddAllObjectsScanENS0_16GroupVariationIDEN7openpal12TimeDurationENS0_10TaskConfigEEUlS2_E_E9_M_invokeERKSt9_Any_dataS2_, .-_ZNSt17_Function_handlerIFbRN8opendnp312HeaderWriterEEZNS0_8MContext17AddAllObjectsScanENS0_16GroupVariationIDEN7openpal12TimeDurationENS0_10TaskConfigEEUlS2_E_E9_M_invokeERKSt9_Any_dataS2_
	.align	2
	.syntax unified
	.arm
	.fpu vfp
	.type	_ZNSt17_Function_handlerIFbRN8opendnp312HeaderWriterEEZNS0_8MContext14ScanAllObjectsENS0_16GroupVariationIDENS0_10TaskConfigEEUlS2_E_E9_M_invokeERKSt9_Any_dataS2_, %function
_ZNSt17_Function_handlerIFbRN8opendnp312HeaderWriterEEZNS0_8MContext14ScanAllObjectsENS0_16GroupVariationIDENS0_10TaskConfigEEUlS2_E_E9_M_invokeERKSt9_Any_dataS2_:
	.fnstart
.LFB3958:
	@ args = 0, pretend = 0, frame = 0
	@ frame_needed = 0, uses_anonymous_args = 0
	@ link register save eliminated.
	ldrb	ip, [r0, #1]	@ zero_extendqisi2
	ldrb	r3, [r0]	@ zero_extendqisi2
	mov	r2, #6
	mov	r0, r1
	orr	r1, r3, ip, lsl #8
	b	_ZN8opendnp312HeaderWriter11WriteHeaderENS_16GroupVariationIDENS_13QualifierCodeE(PLT)
	.cantunwind
	.fnend
	.size	_ZNSt17_Function_handlerIFbRN8opendnp312HeaderWriterEEZNS0_8MContext14ScanAllObjectsENS0_16GroupVariationIDENS0_10TaskConfigEEUlS2_E_E9_M_invokeERKSt9_Any_dataS2_, .-_ZNSt17_Function_handlerIFbRN8opendnp312HeaderWriterEEZNS0_8MContext14ScanAllObjectsENS0_16GroupVariationIDENS0_10TaskConfigEEUlS2_E_E9_M_invokeERKSt9_Any_dataS2_
	.align	2
	.global	_ZN8opendnp38MContext19SetTaskStartTimeoutERKN7openpal18MonotonicTimestampE
	.syntax unified
	.arm
	.fpu vfp
	.type	_ZN8opendnp38MContext19SetTaskStartTimeoutERKN7openpal18MonotonicTimestampE, %function
_ZN8opendnp38MContext19SetTaskStartTimeoutERKN7openpal18MonotonicTimestampE:
	.fnstart
.LFB3310:
	@ args = 0, pretend = 0, frame = 16
	@ frame_needed = 0, uses_anonymous_args = 0
	ldr	ip, .L92
	ldr	r3, .L92+4
	push	{r4, r5, lr}
	.save {r4, r5, lr}
	add	lr, r0, #136
	.pad #20
	sub	sp, sp, #20
	mov	r4, r0
.LPIC8:
	add	ip, pc, ip
.LPIC9:
	add	r3, pc, r3
	mov	r0, lr
	mov	r2, sp
	mov	r5, sp
	str	r4, [sp, #4]
	str	lr, [sp]
	str	ip, [sp, #12]
	str	r3, [sp, #8]
.LEHB0:
	bl	_ZN7openpal8TimerRef13RestartActionERKNS_18MonotonicTimestampERKSt8functionIFvvEE(PLT)
.LEHE0:
	ldr	r3, [sp, #8]
	cmp	r3, #0
	beq	.L80
	mov	r2, #3
	mov	r1, sp
	mov	r0, r5
	blx	r3
.L80:
	add	sp, sp, #20
	@ sp needed
	pop	{r4, r5, pc}
.L84:
	ldr	r3, [sp, #8]
	cmp	r3, #0
	beq	.L83
	mov	r2, #3
	mov	r1, r5
	mov	r0, r5
	blx	r3
.L83:
.LEHB1:
	bl	__cxa_end_cleanup(PLT)
.LEHE1:
.L93:
	.align	2
.L92:
	.word	_ZNSt17_Function_handlerIFvvEZN7openpal8TimerRef7RestartIZN8opendnp38MContext19SetTaskStartTimeoutERKNS1_18MonotonicTimestampEEUlvE_EEvS8_RKT_EUlvE_E9_M_invokeERKSt9_Any_data-(.LPIC8+8)
	.word	_ZNSt14_Function_base13_Base_managerIZN7openpal8TimerRef7RestartIZN8opendnp38MContext19SetTaskStartTimeoutERKNS1_18MonotonicTimestampEEUlvE_EEvS8_RKT_EUlvE_E10_M_managerERSt9_Any_dataRKSF_St18_Manager_operation-(.LPIC9+8)
	.global	__gxx_personality_v0
	.personality	__gxx_personality_v0
	.handlerdata
.LLSDA3310:
	.byte	0xff
	.byte	0xff
	.byte	0x1
	.uleb128 .LLSDACSE3310-.LLSDACSB3310
.LLSDACSB3310:
	.uleb128 .LEHB0-.LFB3310
	.uleb128 .LEHE0-.LEHB0
	.uleb128 .L84-.LFB3310
	.uleb128 0
	.uleb128 .LEHB1-.LFB3310
	.uleb128 .LEHE1-.LEHB1
	.uleb128 0
	.uleb128 0
.LLSDACSE3310:
	.text
	.fnend
	.size	_ZN8opendnp38MContext19SetTaskStartTimeoutERKN7openpal18MonotonicTimestampE, .-_ZN8opendnp38MContext19SetTaskStartTimeoutERKN7openpal18MonotonicTimestampE
	.set	.LTHUNK2,_ZN8opendnp38MContext19SetTaskStartTimeoutERKN7openpal18MonotonicTimestampE
	.align	2
	.global	_ZThn8_N8opendnp38MContext19SetTaskStartTimeoutERKN7openpal18MonotonicTimestampE
	.syntax unified
	.arm
	.fpu vfp
	.type	_ZThn8_N8opendnp38MContext19SetTaskStartTimeoutERKN7openpal18MonotonicTimestampE, %function
_ZThn8_N8opendnp38MContext19SetTaskStartTimeoutERKN7openpal18MonotonicTimestampE:
	.fnstart
.LFB5014:
	@ args = 0, pretend = 0, frame = 0
	@ frame_needed = 0, uses_anonymous_args = 0
	sub	r0, r0, #8
	b	.LTHUNK2(PLT)
	.fnend
	.size	_ZThn8_N8opendnp38MContext19SetTaskStartTimeoutERKN7openpal18MonotonicTimestampE, .-_ZThn8_N8opendnp38MContext19SetTaskStartTimeoutERKN7openpal18MonotonicTimestampE
	.align	2
	.syntax unified
	.arm
	.fpu vfp
	.type	_ZNSt17_Function_handlerIFvvEZN7openpal8TimerRef7RestartIZN8opendnp38MContext19SetTaskStartTimeoutERKNS1_18MonotonicTimestampEEUlvE_EEvS8_RKT_EUlvE_E9_M_invokeERKSt9_Any_data, %function
_ZNSt17_Function_handlerIFvvEZN7openpal8TimerRef7RestartIZN8opendnp38MContext19SetTaskStartTimeoutERKNS1_18MonotonicTimestampEEUlvE_EEvS8_RKT_EUlvE_E9_M_invokeERKSt9_Any_data:
	.fnstart
.LFB4161:
	@ args = 0, pretend = 0, frame = 8
	@ frame_needed = 0, uses_anonymous_args = 0
	push	{r4, r5, lr}
	.save {r4, r5, lr}
	mov	r1, #0
	ldm	r0, {r2, r5}
	.pad #12
	sub	sp, sp, #12
	mov	r0, sp
	ldr	r3, [r5, #28]
	str	r1, [r2, #4]
	mov	r1, r3
	ldr	r3, [r3]
	ldr	r3, [r3, #8]
	blx	r3
	mov	r1, sp
	add	r0, r5, #212
	bl	_ZN8opendnp315MasterScheduler21CheckTaskStartTimeoutERKN7openpal18MonotonicTimestampE(PLT)
	add	sp, sp, #12
	@ sp needed
	pop	{r4, r5, pc}
	.fnend
	.size	_ZNSt17_Function_handlerIFvvEZN7openpal8TimerRef7RestartIZN8opendnp38MContext19SetTaskStartTimeoutERKNS1_18MonotonicTimestampEEUlvE_EEvS8_RKT_EUlvE_E9_M_invokeERKSt9_Any_data, .-_ZNSt17_Function_handlerIFvvEZN7openpal8TimerRef7RestartIZN8opendnp38MContext19SetTaskStartTimeoutERKNS1_18MonotonicTimestampEEUlvE_EEvS8_RKT_EUlvE_E9_M_invokeERKSt9_Any_data
	.section	.text._ZN7openpal5ArrayIhjED2Ev,"axG",%progbits,_ZN7openpal5ArrayIhjED5Ev,comdat
	.align	2
	.weak	_ZN7openpal5ArrayIhjED2Ev
	.syntax unified
	.arm
	.fpu vfp
	.type	_ZN7openpal5ArrayIhjED2Ev, %function
_ZN7openpal5ArrayIhjED2Ev:
	.fnstart
.LFB3553:
	@ args = 0, pretend = 0, frame = 0
	@ frame_needed = 0, uses_anonymous_args = 0
	ldr	r3, .L102
	ldr	r2, .L102+4
.LPIC10:
	add	r3, pc, r3
	push	{r4, lr}
	mov	r4, r0
	ldr	r3, [r3, r2]
	ldr	r0, [r0, #8]
	add	r3, r3, #8
	cmp	r0, #0
	str	r3, [r4]
	beq	.L97
	bl	_ZdaPv(PLT)
.L97:
	mov	r0, r4
	pop	{r4, pc}
.L103:
	.align	2
.L102:
	.word	_GLOBAL_OFFSET_TABLE_-(.LPIC10+8)
	.word	_ZTVN7openpal5ArrayIhjEE(GOT)
	.cantunwind
	.fnend
	.size	_ZN7openpal5ArrayIhjED2Ev, .-_ZN7openpal5ArrayIhjED2Ev
	.weak	_ZN7openpal5ArrayIhjED1Ev
	.set	_ZN7openpal5ArrayIhjED1Ev,_ZN7openpal5ArrayIhjED2Ev
	.section	.text._ZN7openpal5ArrayIhjED0Ev,"axG",%progbits,_ZN7openpal5ArrayIhjED5Ev,comdat
	.align	2
	.weak	_ZN7openpal5ArrayIhjED0Ev
	.syntax unified
	.arm
	.fpu vfp
	.type	_ZN7openpal5ArrayIhjED0Ev, %function
_ZN7openpal5ArrayIhjED0Ev:
	.fnstart
.LFB3555:
	@ args = 0, pretend = 0, frame = 0
	@ frame_needed = 0, uses_anonymous_args = 0
	ldr	r3, .L110
	ldr	r2, .L110+4
.LPIC11:
	add	r3, pc, r3
	push	{r4, lr}
	mov	r4, r0
	ldr	r3, [r3, r2]
	ldr	r0, [r0, #8]
	add	r3, r3, #8
	cmp	r0, #0
	str	r3, [r4]
	beq	.L105
	bl	_ZdaPv(PLT)
.L105:
	mov	r0, r4
	mov	r1, #12
	bl	_ZdlPvj(PLT)
	mov	r0, r4
	pop	{r4, pc}
.L111:
	.align	2
.L110:
	.word	_GLOBAL_OFFSET_TABLE_-(.LPIC11+8)
	.word	_ZTVN7openpal5ArrayIhjEE(GOT)
	.cantunwind
	.fnend
	.size	_ZN7openpal5ArrayIhjED0Ev, .-_ZN7openpal5ArrayIhjED0Ev
	.text
	.align	2
	.syntax unified
	.arm
	.fpu vfp
	.type	_ZNSt14_Function_base13_Base_managerIZN7openpal8TimerRef5StartIZN8opendnp38MContext18StartResponseTimerEvEUlvE_EEbRKNS1_12TimeDurationERKT_EUlvE_E10_M_managerERSt9_Any_dataRKSF_St18_Manager_operation, %function
_ZNSt14_Function_base13_Base_managerIZN7openpal8TimerRef5StartIZN8opendnp38MContext18StartResponseTimerEvEUlvE_EEbRKNS1_12TimeDurationERKT_EUlvE_E10_M_managerERSt9_Any_dataRKSF_St18_Manager_operation:
	.fnstart
.LFB4088:
	@ args = 0, pretend = 0, frame = 0
	@ frame_needed = 0, uses_anonymous_args = 0
	@ link register save eliminated.
	cmp	r2, #1
	mov	r3, r0
	streq	r1, [r0]
	beq	.L113
	bcc	.L115
	cmp	r2, #2
	ldmeq	r1, {r0, r1}
	stmeq	r3, {r0, r1}
.L113:
	mov	r0, #0
	bx	lr
.L115:
	ldr	r2, .L117
.LPIC12:
	add	r2, pc, r2
	add	r2, r2, #40
	str	r2, [r0]
	mov	r0, #0
	bx	lr
.L118:
	.align	2
.L117:
	.word	.LANCHOR0-(.LPIC12+8)
	.cantunwind
	.fnend
	.size	_ZNSt14_Function_base13_Base_managerIZN7openpal8TimerRef5StartIZN8opendnp38MContext18StartResponseTimerEvEUlvE_EEbRKNS1_12TimeDurationERKT_EUlvE_E10_M_managerERSt9_Any_dataRKSF_St18_Manager_operation, .-_ZNSt14_Function_base13_Base_managerIZN7openpal8TimerRef5StartIZN8opendnp38MContext18StartResponseTimerEvEUlvE_EEbRKNS1_12TimeDurationERKT_EUlvE_E10_M_managerERSt9_Any_dataRKSF_St18_Manager_operation
	.align	2
	.syntax unified
	.arm
	.fpu vfp
	.type	_ZNSt14_Function_base13_Base_managerIZN8opendnp38MContext12AddRangeScanENS1_16GroupVariationIDEttN7openpal12TimeDurationENS1_10TaskConfigEEUlRNS1_12HeaderWriterEE_E10_M_managerERSt9_Any_dataRKSB_St18_Manager_operation, %function
_ZNSt14_Function_base13_Base_managerIZN8opendnp38MContext12AddRangeScanENS1_16GroupVariationIDEttN7openpal12TimeDurationENS1_10TaskConfigEEUlRNS1_12HeaderWriterEE_E10_M_managerERSt9_Any_dataRKSB_St18_Manager_operation:
	.fnstart
.LFB3950:
	@ args = 0, pretend = 0, frame = 0
	@ frame_needed = 0, uses_anonymous_args = 0
	@ link register save eliminated.
	cmp	r2, #1
	streq	r1, [r0]
	beq	.L120
	bcc	.L122
	cmp	r2, #2
	ldreq	r3, [r1]	@ unaligned
	streq	r3, [r0]	@ unaligned
	ldrheq	r3, [r1, #4]	@ unaligned
	strheq	r3, [r0, #4]	@ unaligned
.L120:
	mov	r0, #0
	bx	lr
.L122:
	ldr	r3, .L124
.LPIC13:
	add	r3, pc, r3
	add	r3, r3, #48
	str	r3, [r0]
	mov	r0, #0
	bx	lr
.L125:
	.align	2
.L124:
	.word	.LANCHOR0-(.LPIC13+8)
	.cantunwind
	.fnend
	.size	_ZNSt14_Function_base13_Base_managerIZN8opendnp38MContext12AddRangeScanENS1_16GroupVariationIDEttN7openpal12TimeDurationENS1_10TaskConfigEEUlRNS1_12HeaderWriterEE_E10_M_managerERSt9_Any_dataRKSB_St18_Manager_operation, .-_ZNSt14_Function_base13_Base_managerIZN8opendnp38MContext12AddRangeScanENS1_16GroupVariationIDEttN7openpal12TimeDurationENS1_10TaskConfigEEUlRNS1_12HeaderWriterEE_E10_M_managerERSt9_Any_dataRKSB_St18_Manager_operation
	.align	2
	.syntax unified
	.arm
	.fpu vfp
	.type	_ZNSt14_Function_base13_Base_managerIZN8opendnp38MContext9ScanRangeENS1_16GroupVariationIDEttNS1_10TaskConfigEEUlRNS1_12HeaderWriterEE_E10_M_managerERSt9_Any_dataRKS9_St18_Manager_operation, %function
_ZNSt14_Function_base13_Base_managerIZN8opendnp38MContext9ScanRangeENS1_16GroupVariationIDEttNS1_10TaskConfigEEUlRNS1_12HeaderWriterEE_E10_M_managerERSt9_Any_dataRKS9_St18_Manager_operation:
	.fnstart
.LFB3963:
	@ args = 0, pretend = 0, frame = 0
	@ frame_needed = 0, uses_anonymous_args = 0
	@ link register save eliminated.
	cmp	r2, #1
	streq	r1, [r0]
	beq	.L127
	bcc	.L129
	cmp	r2, #2
	ldreq	r3, [r1]	@ unaligned
	streq	r3, [r0]	@ unaligned
	ldrheq	r3, [r1, #4]	@ unaligned
	strheq	r3, [r0, #4]	@ unaligned
.L127:
	mov	r0, #0
	bx	lr
.L129:
	ldr	r3, .L131
.LPIC14:
	add	r3, pc, r3
	add	r3, r3, #56
	str	r3, [r0]
	mov	r0, #0
	bx	lr
.L132:
	.align	2
.L131:
	.word	.LANCHOR0-(.LPIC14+8)
	.cantunwind
	.fnend
	.size	_ZNSt14_Function_base13_Base_managerIZN8opendnp38MContext9ScanRangeENS1_16GroupVariationIDEttNS1_10TaskConfigEEUlRNS1_12HeaderWriterEE_E10_M_managerERSt9_Any_dataRKS9_St18_Manager_operation, .-_ZNSt14_Function_base13_Base_managerIZN8opendnp38MContext9ScanRangeENS1_16GroupVariationIDEttNS1_10TaskConfigEEUlRNS1_12HeaderWriterEE_E10_M_managerERSt9_Any_dataRKS9_St18_Manager_operation
	.align	2
	.syntax unified
	.arm
	.fpu vfp
	.type	_ZNSt14_Function_base13_Base_managerIZN8opendnp38MContext5WriteERKNS1_15TimeAndIntervalEtNS1_10TaskConfigEEUlRNS1_12HeaderWriterEE_E10_M_managerERSt9_Any_dataRKSB_St18_Manager_operation, %function
_ZNSt14_Function_base13_Base_managerIZN8opendnp38MContext5WriteERKNS1_15TimeAndIntervalEtNS1_10TaskConfigEEUlRNS1_12HeaderWriterEE_E10_M_managerERSt9_Any_dataRKSB_St18_Manager_operation:
	.fnstart
.LFB4723:
	@ args = 0, pretend = 0, frame = 0
	@ frame_needed = 0, uses_anonymous_args = 0
	push	{r4, r5, r6, lr}
	.save {r4, r5, r6, lr}
	mov	r5, r0
	cmp	r2, #3
	addls	pc, pc, r2, asl #2
	b	.L134
.L136:
	b	.L135
	b	.L137
	b	.L138
	b	.L139
	.p2align 1
.L139:
	ldr	r0, [r0]
	mov	r1, #24
	bl	_ZdlPvj(PLT)
.L134:
	mov	r0, #0
	pop	{r4, r5, r6, pc}
.L138:
	mov	r0, #24
	ldr	r4, [r1]
	bl	_Znwj(PLT)
	mov	ip, r4
	mov	r6, r0
	mov	lr, r0
	ldmia	ip!, {r0, r1, r2, r3}
	stmia	lr!, {r0, r1, r2, r3}
	ldm	ip, {r0, r1}
	str	r6, [r5]
	stm	lr, {r0, r1}
	mov	r0, #0
	pop	{r4, r5, r6, pc}
.L137:
	ldr	r3, [r1]
	str	r3, [r0]
	mov	r0, #0
	pop	{r4, r5, r6, pc}
.L135:
	ldr	r3, .L141
.LPIC15:
	add	r3, pc, r3
	add	r3, r3, #64
	str	r3, [r0]
	mov	r0, #0
	pop	{r4, r5, r6, pc}
.L142:
	.align	2
.L141:
	.word	.LANCHOR0-(.LPIC15+8)
	.fnend
	.size	_ZNSt14_Function_base13_Base_managerIZN8opendnp38MContext5WriteERKNS1_15TimeAndIntervalEtNS1_10TaskConfigEEUlRNS1_12HeaderWriterEE_E10_M_managerERSt9_Any_dataRKSB_St18_Manager_operation, .-_ZNSt14_Function_base13_Base_managerIZN8opendnp38MContext5WriteERKNS1_15TimeAndIntervalEtNS1_10TaskConfigEEUlRNS1_12HeaderWriterEE_E10_M_managerERSt9_Any_dataRKSB_St18_Manager_operation
	.align	2
	.syntax unified
	.arm
	.fpu vfp
	.type	_ZNSt14_Function_base13_Base_managerIZN7openpal8TimerRef7RestartIZN8opendnp38MContext19SetTaskStartTimeoutERKNS1_18MonotonicTimestampEEUlvE_EEvS8_RKT_EUlvE_E10_M_managerERSt9_Any_dataRKSF_St18_Manager_operation, %function
_ZNSt14_Function_base13_Base_managerIZN7openpal8TimerRef7RestartIZN8opendnp38MContext19SetTaskStartTimeoutERKNS1_18MonotonicTimestampEEUlvE_EEvS8_RKT_EUlvE_E10_M_managerERSt9_Any_dataRKSF_St18_Manager_operation:
	.fnstart
.LFB4162:
	@ args = 0, pretend = 0, frame = 0
	@ frame_needed = 0, uses_anonymous_args = 0
	@ link register save eliminated.
	cmp	r2, #1
	mov	r3, r0
	streq	r1, [r0]
	beq	.L144
	bcc	.L146
	cmp	r2, #2
	ldmeq	r1, {r0, r1}
	stmeq	r3, {r0, r1}
.L144:
	mov	r0, #0
	bx	lr
.L146:
	ldr	r2, .L148
.LPIC16:
	add	r2, pc, r2
	add	r2, r2, #72
	str	r2, [r0]
	mov	r0, #0
	bx	lr
.L149:
	.align	2
.L148:
	.word	.LANCHOR0-(.LPIC16+8)
	.cantunwind
	.fnend
	.size	_ZNSt14_Function_base13_Base_managerIZN7openpal8TimerRef7RestartIZN8opendnp38MContext19SetTaskStartTimeoutERKNS1_18MonotonicTimestampEEUlvE_EEvS8_RKT_EUlvE_E10_M_managerERSt9_Any_dataRKSF_St18_Manager_operation, .-_ZNSt14_Function_base13_Base_managerIZN7openpal8TimerRef7RestartIZN8opendnp38MContext19SetTaskStartTimeoutERKNS1_18MonotonicTimestampEEUlvE_EEvS8_RKT_EUlvE_E10_M_managerERSt9_Any_dataRKSF_St18_Manager_operation
	.align	2
	.syntax unified
	.arm
	.fpu vfp
	.type	_ZNSt14_Function_base13_Base_managerIZN7openpal8TimerRef7RestartIZN8opendnp38MContext14StartTask_IdleEvEUlvE_EEvRKNS1_18MonotonicTimestampERKT_EUlvE_E10_M_managerERSt9_Any_dataRKSF_St18_Manager_operation, %function
_ZNSt14_Function_base13_Base_managerIZN7openpal8TimerRef7RestartIZN8opendnp38MContext14StartTask_IdleEvEUlvE_EEvRKNS1_18MonotonicTimestampERKT_EUlvE_E10_M_managerERSt9_Any_dataRKSF_St18_Manager_operation:
	.fnstart
.LFB4166:
	@ args = 0, pretend = 0, frame = 0
	@ frame_needed = 0, uses_anonymous_args = 0
	@ link register save eliminated.
	cmp	r2, #1
	mov	r3, r0
	streq	r1, [r0]
	beq	.L151
	bcc	.L153
	cmp	r2, #2
	ldmeq	r1, {r0, r1}
	stmeq	r3, {r0, r1}
.L151:
	mov	r0, #0
	bx	lr
.L153:
	ldr	r2, .L155
.LPIC17:
	add	r2, pc, r2
	add	r2, r2, #80
	str	r2, [r0]
	mov	r0, #0
	bx	lr
.L156:
	.align	2
.L155:
	.word	.LANCHOR0-(.LPIC17+8)
	.cantunwind
	.fnend
	.size	_ZNSt14_Function_base13_Base_managerIZN7openpal8TimerRef7RestartIZN8opendnp38MContext14StartTask_IdleEvEUlvE_EEvRKNS1_18MonotonicTimestampERKT_EUlvE_E10_M_managerERSt9_Any_dataRKSF_St18_Manager_operation, .-_ZNSt14_Function_base13_Base_managerIZN7openpal8TimerRef7RestartIZN8opendnp38MContext14StartTask_IdleEvEUlvE_EEvRKNS1_18MonotonicTimestampERKT_EUlvE_E10_M_managerERSt9_Any_dataRKSF_St18_Manager_operation
	.align	2
	.syntax unified
	.arm
	.fpu vfp
	.type	_ZNSt17_Function_handlerIFbRN8opendnp312HeaderWriterEEZNS0_8MContext12AddRangeScanENS0_16GroupVariationIDEttN7openpal12TimeDurationENS0_10TaskConfigEEUlS2_E_E9_M_invokeERKSt9_Any_dataS2_, %function
_ZNSt17_Function_handlerIFbRN8opendnp312HeaderWriterEEZNS0_8MContext12AddRangeScanENS0_16GroupVariationIDEttN7openpal12TimeDurationENS0_10TaskConfigEEUlS2_E_E9_M_invokeERKSt9_Any_dataS2_:
	.fnstart
.LFB3949:
	@ args = 0, pretend = 0, frame = 8
	@ frame_needed = 0, uses_anonymous_args = 0
	ldrh	r2, [r0]
	push	{r4, r5, r6, r7, lr}
	.save {r4, r5, r6, r7, lr}
	.pad #12
	sub	sp, sp, #12
	mov	ip, r0
	strh	r2, [sp, #4]	@ movhi
	mov	r0, r1
	mov	r4, r1
	mov	r3, #4
	ldr	r1, [sp, #4]
	mov	r2, #1
	ldrh	r7, [ip, #2]
	ldrh	r6, [ip, #4]
	bl	_ZN8opendnp312HeaderWriter22WriteHeaderWithReserveENS_16GroupVariationIDENS_13QualifierCodeEj(PLT)
	subs	r5, r0, #0
	beq	.L158
	ldr	r3, [r4]
	lsr	r2, r7, #8
	mov	r0, r3
	ldr	r3, [r3, #4]
	mov	r1, #2
	strb	r2, [r3, #1]
	strb	r7, [r3]
	bl	_ZN7openpal6WSlice7AdvanceEj(PLT)
	ldr	r3, [r4]
	lsr	r2, r6, #8
	mov	r0, r3
	ldr	r3, [r3, #4]
	mov	r1, #2
	strb	r6, [r3]
	strb	r2, [r3, #1]
	bl	_ZN7openpal6WSlice7AdvanceEj(PLT)
.L158:
	mov	r0, r5
	add	sp, sp, #12
	@ sp needed
	pop	{r4, r5, r6, r7, pc}
	.fnend
	.size	_ZNSt17_Function_handlerIFbRN8opendnp312HeaderWriterEEZNS0_8MContext12AddRangeScanENS0_16GroupVariationIDEttN7openpal12TimeDurationENS0_10TaskConfigEEUlS2_E_E9_M_invokeERKSt9_Any_dataS2_, .-_ZNSt17_Function_handlerIFbRN8opendnp312HeaderWriterEEZNS0_8MContext12AddRangeScanENS0_16GroupVariationIDEttN7openpal12TimeDurationENS0_10TaskConfigEEUlS2_E_E9_M_invokeERKSt9_Any_dataS2_
	.align	2
	.syntax unified
	.arm
	.fpu vfp
	.type	_ZNSt17_Function_handlerIFbRN8opendnp312HeaderWriterEEZNS0_8MContext5WriteERKNS0_15TimeAndIntervalEtNS0_10TaskConfigEEUlS2_E_E9_M_invokeERKSt9_Any_dataS2_, %function
_ZNSt17_Function_handlerIFbRN8opendnp312HeaderWriterEEZNS0_8MContext5WriteERKNS0_15TimeAndIntervalEtNS0_10TaskConfigEEUlS2_E_E9_M_invokeERKSt9_Any_dataS2_:
	.fnstart
.LFB4722:
	@ args = 0, pretend = 0, frame = 8
	@ frame_needed = 0, uses_anonymous_args = 0
	push	{r4, r5, r6, r7, lr}
	.save {r4, r5, r6, r7, lr}
	.pad #12
	sub	sp, sp, #12
	ldr	r5, [r0]
	mov	r2, #50
	mov	r3, #4
	strb	r2, [sp, #4]
	strb	r3, [sp, #5]
	mov	r4, r1
	mov	r0, r4
	ldr	r1, [sp, #4]
	mov	r3, #15
	mov	r2, #40
	ldrh	r7, [r5, #16]
	bl	_ZN8opendnp312HeaderWriter22WriteHeaderWithReserveENS_16GroupVariationIDENS_13QualifierCodeEj(PLT)
	subs	r6, r0, #0
	beq	.L164
	ldr	r3, [r4]
	mov	r2, #0
	mov	r0, r3
	ldr	r3, [r3, #4]
	mov	r1, #1
	strb	r1, [r3]
	strb	r2, [r3, #1]
	mov	r1, #2
	bl	_ZN7openpal6WSlice7AdvanceEj(PLT)
	ldr	r3, [r4]
	lsr	r2, r7, #8
	mov	r0, r3
	ldr	r3, [r3, #4]
	mov	r1, #2
	strb	r7, [r3]
	strb	r2, [r3, #1]
	bl	_ZN7openpal6WSlice7AdvanceEj(PLT)
	ldr	r1, [r4]
	mov	r0, r5
	bl	_ZN8opendnp311Group50Var411WriteTargetERKNS_15TimeAndIntervalERN7openpal6WSliceE(PLT)
.L164:
	mov	r0, r6
	add	sp, sp, #12
	@ sp needed
	pop	{r4, r5, r6, r7, pc}
	.fnend
	.size	_ZNSt17_Function_handlerIFbRN8opendnp312HeaderWriterEEZNS0_8MContext5WriteERKNS0_15TimeAndIntervalEtNS0_10TaskConfigEEUlS2_E_E9_M_invokeERKSt9_Any_dataS2_, .-_ZNSt17_Function_handlerIFbRN8opendnp312HeaderWriterEEZNS0_8MContext5WriteERKNS0_15TimeAndIntervalEtNS0_10TaskConfigEEUlS2_E_E9_M_invokeERKSt9_Any_dataS2_
	.align	2
	.syntax unified
	.arm
	.fpu vfp
	.type	_ZNSt17_Function_handlerIFbRN8opendnp312HeaderWriterEEZNS0_8MContext9ScanRangeENS0_16GroupVariationIDEttNS0_10TaskConfigEEUlS2_E_E9_M_invokeERKSt9_Any_dataS2_, %function
_ZNSt17_Function_handlerIFbRN8opendnp312HeaderWriterEEZNS0_8MContext9ScanRangeENS0_16GroupVariationIDEttNS0_10TaskConfigEEUlS2_E_E9_M_invokeERKSt9_Any_dataS2_:
	.fnstart
.LFB3962:
	@ args = 0, pretend = 0, frame = 8
	@ frame_needed = 0, uses_anonymous_args = 0
	ldrh	r2, [r0]
	push	{r4, r5, r6, r7, lr}
	.save {r4, r5, r6, r7, lr}
	.pad #12
	sub	sp, sp, #12
	mov	ip, r0
	strh	r2, [sp, #4]	@ movhi
	mov	r0, r1
	mov	r4, r1
	mov	r3, #4
	ldr	r1, [sp, #4]
	mov	r2, #1
	ldrh	r7, [ip, #2]
	ldrh	r6, [ip, #4]
	bl	_ZN8opendnp312HeaderWriter22WriteHeaderWithReserveENS_16GroupVariationIDENS_13QualifierCodeEj(PLT)
	subs	r5, r0, #0
	beq	.L170
	ldr	r3, [r4]
	lsr	r2, r7, #8
	mov	r0, r3
	ldr	r3, [r3, #4]
	mov	r1, #2
	strb	r2, [r3, #1]
	strb	r7, [r3]
	bl	_ZN7openpal6WSlice7AdvanceEj(PLT)
	ldr	r3, [r4]
	lsr	r2, r6, #8
	mov	r0, r3
	ldr	r3, [r3, #4]
	mov	r1, #2
	strb	r6, [r3]
	strb	r2, [r3, #1]
	bl	_ZN7openpal6WSlice7AdvanceEj(PLT)
.L170:
	mov	r0, r5
	add	sp, sp, #12
	@ sp needed
	pop	{r4, r5, r6, r7, pc}
	.fnend
	.size	_ZNSt17_Function_handlerIFbRN8opendnp312HeaderWriterEEZNS0_8MContext9ScanRangeENS0_16GroupVariationIDEttNS0_10TaskConfigEEUlS2_E_E9_M_invokeERKSt9_Any_dataS2_, .-_ZNSt17_Function_handlerIFbRN8opendnp312HeaderWriterEEZNS0_8MContext9ScanRangeENS0_16GroupVariationIDEttNS0_10TaskConfigEEUlS2_E_E9_M_invokeERKSt9_Any_dataS2_
	.section	.text._ZNSt23_Sp_counted_ptr_inplaceIN8opendnp312UserPollTaskESaIS1_ELN9__gnu_cxx12_Lock_policyE1EE10_M_disposeEv,"axG",%progbits,_ZNSt23_Sp_counted_ptr_inplaceIN8opendnp312UserPollTaskESaIS1_ELN9__gnu_cxx12_Lock_policyE1EE10_M_disposeEv,comdat
	.align	2
	.weak	_ZNSt23_Sp_counted_ptr_inplaceIN8opendnp312UserPollTaskESaIS1_ELN9__gnu_cxx12_Lock_policyE1EE10_M_disposeEv
	.syntax unified
	.arm
	.fpu vfp
	.type	_ZNSt23_Sp_counted_ptr_inplaceIN8opendnp312UserPollTaskESaIS1_ELN9__gnu_cxx12_Lock_policyE1EE10_M_disposeEv, %function
_ZNSt23_Sp_counted_ptr_inplaceIN8opendnp312UserPollTaskESaIS1_ELN9__gnu_cxx12_Lock_policyE1EE10_M_disposeEv:
	.fnstart
.LFB4771:
	@ args = 0, pretend = 0, frame = 0
	@ frame_needed = 0, uses_anonymous_args = 0
	push	{r4, r5, r6, r7, r8, lr}
	.save {r4, r5, r6, r7, r8, lr}
	mov	r4, r0
	ldr	r5, .L181
	ldr	r3, .L181+4
.LPIC18:
	add	r5, pc, r5
	ldr	r6, [r0, #120]
	ldr	r3, [r5, r3]
	cmp	r6, #0
	add	r3, r3, #8
	add	r7, r0, #40
	str	r3, [r0, #40]
	beq	.L176
	add	r1, r0, #112
	mov	r0, r1
	mov	r2, #3
	blx	r6
.L176:
	ldr	r3, .L181+8
	mov	r0, r7
	ldr	r3, [r5, r3]
	add	r3, r3, #8
	str	r3, [r4, #40]
	pop	{r4, r5, r6, r7, r8, lr}
	b	_ZN8opendnp311IMasterTaskD2Ev(PLT)
.L182:
	.align	2
.L181:
	.word	_GLOBAL_OFFSET_TABLE_-(.LPIC18+8)
	.word	_ZTVN8opendnp312UserPollTaskE(GOT)
	.word	_ZTVN8opendnp312PollTaskBaseE(GOT)
	.personality	__gxx_personality_v0
	.handlerdata
.LLSDA4771:
	.byte	0xff
	.byte	0xff
	.byte	0x1
	.uleb128 .LLSDACSE4771-.LLSDACSB4771
.LLSDACSB4771:
.LLSDACSE4771:
	.section	.text._ZNSt23_Sp_counted_ptr_inplaceIN8opendnp312UserPollTaskESaIS1_ELN9__gnu_cxx12_Lock_policyE1EE10_M_disposeEv,"axG",%progbits,_ZNSt23_Sp_counted_ptr_inplaceIN8opendnp312UserPollTaskESaIS1_ELN9__gnu_cxx12_Lock_policyE1EE10_M_disposeEv,comdat
	.fnend
	.size	_ZNSt23_Sp_counted_ptr_inplaceIN8opendnp312UserPollTaskESaIS1_ELN9__gnu_cxx12_Lock_policyE1EE10_M_disposeEv, .-_ZNSt23_Sp_counted_ptr_inplaceIN8opendnp312UserPollTaskESaIS1_ELN9__gnu_cxx12_Lock_policyE1EE10_M_disposeEv
	.section	.text._ZNSt23_Sp_counted_ptr_inplaceIN8opendnp320RestartOperationTaskESaIS1_ELN9__gnu_cxx12_Lock_policyE1EE10_M_disposeEv,"axG",%progbits,_ZNSt23_Sp_counted_ptr_inplaceIN8opendnp320RestartOperationTaskESaIS1_ELN9__gnu_cxx12_Lock_policyE1EE10_M_disposeEv,comdat
	.align	2
	.weak	_ZNSt23_Sp_counted_ptr_inplaceIN8opendnp320RestartOperationTaskESaIS1_ELN9__gnu_cxx12_Lock_policyE1EE10_M_disposeEv
	.syntax unified
	.arm
	.fpu vfp
	.type	_ZNSt23_Sp_counted_ptr_inplaceIN8opendnp320RestartOperationTaskESaIS1_ELN9__gnu_cxx12_Lock_policyE1EE10_M_disposeEv, %function
_ZNSt23_Sp_counted_ptr_inplaceIN8opendnp320RestartOperationTaskESaIS1_ELN9__gnu_cxx12_Lock_policyE1EE10_M_disposeEv:
	.fnstart
.LFB4757:
	@ args = 0, pretend = 0, frame = 0
	@ frame_needed = 0, uses_anonymous_args = 0
	push	{r4, r5, r6, r7, r8, lr}
	.save {r4, r5, r6, r7, r8, lr}
	mov	r4, r0
	ldr	r6, .L193
	ldr	r3, .L193+4
.LPIC19:
	add	r6, pc, r6
	ldr	r7, [r0, #152]
	ldr	r3, [r6, r3]
	cmp	r7, #0
	add	r2, r3, #8
	add	r3, r3, #80
	add	r5, r0, #40
	str	r2, [r0, #40]
	str	r3, [r0, #128]
	beq	.L184
	add	r1, r0, #144
	mov	r0, r1
	mov	r2, #3
	blx	r7
.L184:
	ldr	r3, .L193+8
	ldr	r7, [r4, #120]
	ldr	r3, [r6, r3]
	cmp	r7, #0
	add	r3, r3, #8
	str	r3, [r4, #40]
	beq	.L185
	add	r1, r4, #112
	mov	r0, r1
	mov	r2, #3
	blx	r7
.L185:
	mov	r0, r5
	pop	{r4, r5, r6, r7, r8, lr}
	b	_ZN8opendnp311IMasterTaskD2Ev(PLT)
.L194:
	.align	2
.L193:
	.word	_GLOBAL_OFFSET_TABLE_-(.LPIC19+8)
	.word	_ZTVN8opendnp320RestartOperationTaskE(GOT)
	.word	_ZTVN8opendnp321SimpleRequestTaskBaseE(GOT)
	.personality	__gxx_personality_v0
	.handlerdata
.LLSDA4757:
	.byte	0xff
	.byte	0xff
	.byte	0x1
	.uleb128 .LLSDACSE4757-.LLSDACSB4757
.LLSDACSB4757:
.LLSDACSE4757:
	.section	.text._ZNSt23_Sp_counted_ptr_inplaceIN8opendnp320RestartOperationTaskESaIS1_ELN9__gnu_cxx12_Lock_policyE1EE10_M_disposeEv,"axG",%progbits,_ZNSt23_Sp_counted_ptr_inplaceIN8opendnp320RestartOperationTaskESaIS1_ELN9__gnu_cxx12_Lock_policyE1EE10_M_disposeEv,comdat
	.fnend
	.size	_ZNSt23_Sp_counted_ptr_inplaceIN8opendnp320RestartOperationTaskESaIS1_ELN9__gnu_cxx12_Lock_policyE1EE10_M_disposeEv, .-_ZNSt23_Sp_counted_ptr_inplaceIN8opendnp320RestartOperationTaskESaIS1_ELN9__gnu_cxx12_Lock_policyE1EE10_M_disposeEv
	.section	.text._ZN8opendnp38MContextD0Ev,"axG",%progbits,_ZN8opendnp38MContextD5Ev,comdat
	.align	2
	.weak	_ZN8opendnp38MContextD0Ev
	.syntax unified
	.arm
	.fpu vfp
	.type	_ZN8opendnp38MContextD0Ev, %function
_ZN8opendnp38MContextD0Ev:
	.fnstart
.LFB4735:
	@ args = 0, pretend = 0, frame = 0
	@ frame_needed = 0, uses_anonymous_args = 0
	push	{r4, r5, r6, r7, r8, lr}
	mov	r6, r0
	ldr	r7, .L421
	ldr	r3, .L421+4
.LPIC28:
	add	r7, pc, r7
	ldr	r2, .L421+8
	ldr	r3, [r7, r3]
	ldr	r0, [r0, #276]
	add	ip, r3, #8
	add	r1, r3, #64
	add	r3, r3, #76
	str	ip, [r6]
	stmib	r6, {r1, r3}
	ldr	r3, [r7, r2]
	cmp	r0, #0
	add	r3, r3, #8
	str	r3, [r6, #268]
	beq	.L196
	bl	_ZdaPv(PLT)
.L196:
	ldr	r0, [r6, #228]
	cmp	r0, #0
	beq	.L197
	ldr	r5, [r6, #264]
	ldr	r4, [r6, #248]
	add	r5, r5, #4
	cmp	r4, r5
	bcs	.L198
.L199:
	ldr	r0, [r4], #4
	bl	_ZdlPv(PLT)
	cmp	r5, r4
	bhi	.L199
	ldr	r0, [r6, #228]
.L198:
	bl	_ZdlPv(PLT)
.L197:
	ldr	r4, [r6, #216]
	ldr	r8, [r6, #220]
	cmp	r4, r8
	bne	.L207
	b	.L200
.L401:
	add	r3, r5, #28
	mcr	p15, 0, r0, c7, c10, 5
.L365:
	ldrex	r2, [r3]
	sub	r1, r2, #1
	strex	r0, r1, [r3]
	cmp	r0, #0
	bne	.L365
	cmp	r2, #1
	mcr	p15, 0, r0, c7, c10, 5
	beq	.L399
.L202:
	add	r4, r4, #8
	cmp	r8, r4
	beq	.L400
.L207:
	ldr	r5, [r4, #4]
	cmp	r5, #0
	beq	.L202
	ldr	r3, .L421+12
	ldr	r3, [r7, r3]
	cmp	r3, #0
	bne	.L401
	ldr	r3, [r5, #28]
	cmp	r3, #1
	sub	r3, r3, #1
	str	r3, [r5, #28]
	bne	.L202
	ldr	r3, [r5]
	mov	r0, r5
	ldr	r3, [r3, #8]
	blx	r3
	mcr	p15, 0, r0, c7, c10, 5
	ldr	r2, [r5, #32]
	sub	r3, r2, #1
	cmp	r2, #1
	str	r3, [r5, #32]
	bne	.L202
	ldr	r3, [r5]
	mov	r0, r5
	ldr	r3, [r3, #12]
	blx	r3
.L419:
	add	r4, r4, #8
	cmp	r8, r4
	bne	.L207
.L400:
	ldr	r8, [r6, #216]
.L200:
	cmp	r8, #0
	beq	.L208
	mov	r0, r8
	bl	_ZdlPv(PLT)
.L208:
	ldr	r4, [r6, #200]
	ldr	r8, [r6, #204]
	cmp	r4, r8
	bne	.L216
	b	.L209
.L404:
	add	r3, r5, #28
	mcr	p15, 0, r0, c7, c10, 5
.L364:
	ldrex	r2, [r3]
	sub	r1, r2, #1
	strex	r0, r1, [r3]
	cmp	r0, #0
	bne	.L364
	cmp	r2, #1
	mcr	p15, 0, r0, c7, c10, 5
	beq	.L402
.L211:
	add	r4, r4, #8
	cmp	r8, r4
	beq	.L403
.L216:
	ldr	r5, [r4, #4]
	cmp	r5, #0
	beq	.L211
	ldr	r3, .L421+12
	ldr	r3, [r7, r3]
	cmp	r3, #0
	bne	.L404
	ldr	r3, [r5, #28]
	cmp	r3, #1
	sub	r3, r3, #1
	str	r3, [r5, #28]
	bne	.L211
	ldr	r3, [r5]
	mov	r0, r5
	ldr	r3, [r3, #8]
	blx	r3
	mcr	p15, 0, r0, c7, c10, 5
	ldr	r2, [r5, #32]
	sub	r3, r2, #1
	cmp	r2, #1
	str	r3, [r5, #32]
	bne	.L211
	ldr	r3, [r5]
	mov	r0, r5
	ldr	r3, [r3, #12]
	blx	r3
.L420:
	add	r4, r4, #8
	cmp	r8, r4
	bne	.L216
.L403:
	ldr	r8, [r6, #200]
.L209:
	cmp	r8, #0
	beq	.L217
	mov	r0, r8
	bl	_ZdlPv(PLT)
.L217:
	ldr	r4, [r6, #196]
	cmp	r4, #0
	beq	.L219
	ldr	r3, .L421+12
	ldr	r3, [r7, r3]
	cmp	r3, #0
	beq	.L220
	add	r3, r4, #28
	mcr	p15, 0, r0, c7, c10, 5
.L363:
	ldrex	r2, [r3]
	sub	r1, r2, #1
	strex	r0, r1, [r3]
	cmp	r0, #0
	bne	.L363
	cmp	r2, #1
	mcr	p15, 0, r0, c7, c10, 5
	beq	.L405
.L219:
	ldr	r4, [r6, #188]
	cmp	r4, #0
	beq	.L225
	ldr	r3, .L421+12
	ldr	r3, [r7, r3]
	cmp	r3, #0
	beq	.L226
	add	r3, r4, #28
	mcr	p15, 0, r0, c7, c10, 5
.L362:
	ldrex	r2, [r3]
	sub	r1, r2, #1
	strex	r0, r1, [r3]
	cmp	r0, #0
	bne	.L362
	cmp	r2, #1
	mcr	p15, 0, r0, c7, c10, 5
	beq	.L406
.L225:
	ldr	r4, [r6, #180]
	cmp	r4, #0
	beq	.L231
	ldr	r3, .L421+12
	ldr	r3, [r7, r3]
	cmp	r3, #0
	beq	.L232
	add	r3, r4, #28
	mcr	p15, 0, r0, c7, c10, 5
.L361:
	ldrex	r2, [r3]
	sub	r1, r2, #1
	strex	r0, r1, [r3]
	cmp	r0, #0
	bne	.L361
	cmp	r2, #1
	mcr	p15, 0, r0, c7, c10, 5
	beq	.L407
.L231:
	ldr	r4, [r6, #172]
	cmp	r4, #0
	beq	.L237
	ldr	r3, .L421+12
	ldr	r3, [r7, r3]
	cmp	r3, #0
	beq	.L238
	add	r3, r4, #28
	mcr	p15, 0, r0, c7, c10, 5
.L360:
	ldrex	r2, [r3]
	sub	r1, r2, #1
	strex	r0, r1, [r3]
	cmp	r0, #0
	bne	.L360
	cmp	r2, #1
	mcr	p15, 0, r0, c7, c10, 5
	beq	.L408
.L237:
	ldr	r4, [r6, #164]
	cmp	r4, #0
	beq	.L243
	ldr	r3, .L421+12
	ldr	r3, [r7, r3]
	cmp	r3, #0
	beq	.L244
	add	r3, r4, #28
	mcr	p15, 0, r0, c7, c10, 5
.L359:
	ldrex	r2, [r3]
	sub	r1, r2, #1
	strex	r0, r1, [r3]
	cmp	r0, #0
	bne	.L359
	cmp	r2, #1
	mcr	p15, 0, r0, c7, c10, 5
	beq	.L409
.L243:
	ldr	r4, [r6, #156]
	cmp	r4, #0
	beq	.L249
	ldr	r3, .L421+12
	ldr	r3, [r7, r3]
	cmp	r3, #0
	beq	.L250
	add	r3, r4, #28
	mcr	p15, 0, r0, c7, c10, 5
.L358:
	ldrex	r2, [r3]
	sub	r1, r2, #1
	strex	r0, r1, [r3]
	cmp	r0, #0
	bne	.L358
	cmp	r2, #1
	mcr	p15, 0, r0, c7, c10, 5
	beq	.L410
.L249:
	ldr	r4, [r6, #148]
	cmp	r4, #0
	beq	.L255
	ldr	r3, .L421+12
	ldr	r3, [r7, r3]
	cmp	r3, #0
	beq	.L256
	add	r3, r4, #28
	mcr	p15, 0, r0, c7, c10, 5
.L357:
	ldrex	r2, [r3]
	sub	r1, r2, #1
	strex	r0, r1, [r3]
	cmp	r0, #0
	bne	.L357
	cmp	r2, #1
	mcr	p15, 0, r0, c7, c10, 5
	beq	.L411
.L255:
	add	r0, r6, #136
	bl	_ZN7openpal8TimerRefD1Ev(PLT)
	add	r0, r6, #128
	bl	_ZN7openpal8TimerRefD1Ev(PLT)
	add	r0, r6, #120
	bl	_ZN7openpal8TimerRefD1Ev(PLT)
	ldr	r4, [r6, #116]
	cmp	r4, #0
	beq	.L261
	ldr	r3, .L421+12
	ldr	r3, [r7, r3]
	cmp	r3, #0
	beq	.L262
	add	r3, r4, #28
	mcr	p15, 0, r0, c7, c10, 5
.L356:
	ldrex	r2, [r3]
	sub	r1, r2, #1
	strex	r0, r1, [r3]
	cmp	r0, #0
	bne	.L356
	cmp	r2, #1
	mcr	p15, 0, r0, c7, c10, 5
	beq	.L412
.L261:
	ldr	r4, [r6, #100]
	cmp	r4, #0
	beq	.L267
	ldr	r3, .L421+12
	ldr	r3, [r7, r3]
	cmp	r3, #0
	beq	.L268
	add	r3, r4, #28
	mcr	p15, 0, r0, c7, c10, 5
.L355:
	ldrex	r2, [r3]
	sub	r1, r2, #1
	strex	r0, r1, [r3]
	cmp	r0, #0
	bne	.L355
	cmp	r2, #1
	mcr	p15, 0, r0, c7, c10, 5
	beq	.L413
.L267:
	ldr	r4, [r6, #92]
	cmp	r4, #0
	beq	.L273
	ldr	r3, .L421+12
	ldr	r3, [r7, r3]
	cmp	r3, #0
	beq	.L274
	add	r3, r4, #28
	mcr	p15, 0, r0, c7, c10, 5
.L354:
	ldrex	r2, [r3]
	sub	r1, r2, #1
	strex	r0, r1, [r3]
	cmp	r0, #0
	bne	.L354
	cmp	r2, #1
	mcr	p15, 0, r0, c7, c10, 5
	beq	.L414
.L273:
	ldr	r4, [r6, #40]
	cmp	r4, #0
	beq	.L279
	ldr	r3, .L421+12
	ldr	r3, [r7, r3]
	cmp	r3, #0
	beq	.L280
	add	r3, r4, #28
	mcr	p15, 0, r0, c7, c10, 5
.L353:
	ldrex	r2, [r3]
	sub	r1, r2, #1
	strex	r0, r1, [r3]
	cmp	r0, #0
	bne	.L353
	cmp	r2, #1
	mcr	p15, 0, r0, c7, c10, 5
	beq	.L415
.L279:
	ldr	r4, [r6, #32]
	cmp	r4, #0
	beq	.L285
	ldr	r3, .L421+12
	ldr	r3, [r7, r3]
	cmp	r3, #0
	beq	.L286
	add	r3, r4, #28
	mcr	p15, 0, r0, c7, c10, 5
.L352:
	ldrex	r2, [r3]
	sub	r1, r2, #1
	strex	r0, r1, [r3]
	cmp	r0, #0
	bne	.L352
	cmp	r2, #1
	mcr	p15, 0, r0, c7, c10, 5
	beq	.L416
.L285:
	ldr	r4, [r6, #24]
	cmp	r4, #0
	beq	.L291
	ldr	r3, .L421+12
	ldr	r3, [r7, r3]
	cmp	r3, #0
	beq	.L292
	add	r3, r4, #28
	mcr	p15, 0, r0, c7, c10, 5
.L351:
	ldrex	r2, [r3]
	sub	r1, r2, #1
	strex	r0, r1, [r3]
	cmp	r0, #0
	bne	.L351
	cmp	r2, #1
	mcr	p15, 0, r0, c7, c10, 5
	beq	.L417
.L291:
	ldr	r4, [r6, #16]
	cmp	r4, #0
	beq	.L297
	ldr	r3, .L421+12
	ldr	r3, [r7, r3]
	cmp	r3, #0
	beq	.L298
	add	r3, r4, #28
	mcr	p15, 0, r0, c7, c10, 5
.L350:
	ldrex	r2, [r3]
	sub	r1, r2, #1
	strex	r0, r1, [r3]
	cmp	r0, #0
	bne	.L350
	cmp	r2, #1
	mcr	p15, 0, r0, c7, c10, 5
	beq	.L418
.L297:
	mov	r0, r6
	mov	r1, #288
	bl	_ZdlPvj(PLT)
	mov	r0, r6
	pop	{r4, r5, r6, r7, r8, pc}
.L399:
	ldr	r3, [r5]
	mov	r0, r5
	ldr	r3, [r3, #8]
	blx	r3
	add	r3, r5, #32
	mcr	p15, 0, r0, c7, c10, 5
	mcr	p15, 0, r0, c7, c10, 5
.L349:
	ldrex	r2, [r3]
	sub	r1, r2, #1
	strex	r0, r1, [r3]
	cmp	r0, #0
	bne	.L349
	cmp	r2, #1
	mcr	p15, 0, r0, c7, c10, 5
	bne	.L202
	ldr	r3, [r5]
	mov	r0, r5
	ldr	r3, [r3, #12]
	blx	r3
	b	.L419
.L402:
	ldr	r3, [r5]
	mov	r0, r5
	ldr	r3, [r3, #8]
	blx	r3
	add	r3, r5, #32
	mcr	p15, 0, r0, c7, c10, 5
	mcr	p15, 0, r0, c7, c10, 5
.L348:
	ldrex	r2, [r3]
	sub	r1, r2, #1
	strex	r0, r1, [r3]
	cmp	r0, #0
	bne	.L348
	cmp	r2, #1
	mcr	p15, 0, r0, c7, c10, 5
	bne	.L211
	ldr	r3, [r5]
	mov	r0, r5
	ldr	r3, [r3, #12]
	blx	r3
	b	.L420
.L226:
	ldr	r3, [r4, #28]
	cmp	r3, #1
	sub	r3, r3, #1
	str	r3, [r4, #28]
	bne	.L225
	ldr	r3, [r4]
	mov	r0, r4
	ldr	r3, [r3, #8]
	blx	r3
	mcr	p15, 0, r0, c7, c10, 5
	ldr	r2, [r4, #32]
	sub	r3, r2, #1
	str	r3, [r4, #32]
	b	.L305
.L220:
	ldr	r3, [r4, #28]
	cmp	r3, #1
	sub	r3, r3, #1
	str	r3, [r4, #28]
	bne	.L219
	ldr	r3, [r4]
	mov	r0, r4
	ldr	r3, [r3, #8]
	blx	r3
	mcr	p15, 0, r0, c7, c10, 5
	ldr	r2, [r4, #32]
	sub	r3, r2, #1
	str	r3, [r4, #32]
	b	.L304
.L292:
	ldr	r3, [r4, #28]
	cmp	r3, #1
	sub	r3, r3, #1
	str	r3, [r4, #28]
	bne	.L291
	ldr	r3, [r4]
	mov	r0, r4
	ldr	r3, [r3, #8]
	blx	r3
	mcr	p15, 0, r0, c7, c10, 5
	ldr	r2, [r4, #32]
	sub	r3, r2, #1
	str	r3, [r4, #32]
	b	.L316
.L238:
	ldr	r3, [r4, #28]
	cmp	r3, #1
	sub	r3, r3, #1
	str	r3, [r4, #28]
	bne	.L237
	ldr	r3, [r4]
	mov	r0, r4
	ldr	r3, [r3, #8]
	blx	r3
	mcr	p15, 0, r0, c7, c10, 5
	ldr	r2, [r4, #32]
	sub	r3, r2, #1
	str	r3, [r4, #32]
	b	.L307
.L232:
	ldr	r3, [r4, #28]
	cmp	r3, #1
	sub	r3, r3, #1
	str	r3, [r4, #28]
	bne	.L231
	ldr	r3, [r4]
	mov	r0, r4
	ldr	r3, [r3, #8]
	blx	r3
	mcr	p15, 0, r0, c7, c10, 5
	ldr	r2, [r4, #32]
	sub	r3, r2, #1
	str	r3, [r4, #32]
	b	.L306
.L268:
	ldr	r3, [r4, #28]
	cmp	r3, #1
	sub	r3, r3, #1
	str	r3, [r4, #28]
	bne	.L267
	ldr	r3, [r4]
	mov	r0, r4
	ldr	r3, [r3, #8]
	blx	r3
	mcr	p15, 0, r0, c7, c10, 5
	ldr	r2, [r4, #32]
	sub	r3, r2, #1
	str	r3, [r4, #32]
	b	.L312
.L262:
	ldr	r3, [r4, #28]
	cmp	r3, #1
	sub	r3, r3, #1
	str	r3, [r4, #28]
	bne	.L261
	ldr	r3, [r4]
	mov	r0, r4
	ldr	r3, [r3, #8]
	blx	r3
	mcr	p15, 0, r0, c7, c10, 5
	ldr	r2, [r4, #32]
	sub	r3, r2, #1
	str	r3, [r4, #32]
	b	.L311
.L244:
	ldr	r3, [r4, #28]
	cmp	r3, #1
	sub	r3, r3, #1
	str	r3, [r4, #28]
	bne	.L243
	ldr	r3, [r4]
	mov	r0, r4
	ldr	r3, [r3, #8]
	blx	r3
	mcr	p15, 0, r0, c7, c10, 5
	ldr	r2, [r4, #32]
	sub	r3, r2, #1
	str	r3, [r4, #32]
	b	.L308
.L250:
	ldr	r3, [r4, #28]
	cmp	r3, #1
	sub	r3, r3, #1
	str	r3, [r4, #28]
	bne	.L249
	ldr	r3, [r4]
	mov	r0, r4
	ldr	r3, [r3, #8]
	blx	r3
	mcr	p15, 0, r0, c7, c10, 5
	ldr	r2, [r4, #32]
	sub	r3, r2, #1
	str	r3, [r4, #32]
	b	.L309
.L280:
	ldr	r3, [r4, #28]
	cmp	r3, #1
	sub	r3, r3, #1
	str	r3, [r4, #28]
	bne	.L279
	ldr	r3, [r4]
	mov	r0, r4
	ldr	r3, [r3, #8]
	blx	r3
	mcr	p15, 0, r0, c7, c10, 5
	ldr	r2, [r4, #32]
	sub	r3, r2, #1
	str	r3, [r4, #32]
	b	.L314
.L274:
	ldr	r3, [r4, #28]
	cmp	r3, #1
	sub	r3, r3, #1
	str	r3, [r4, #28]
	bne	.L273
	ldr	r3, [r4]
	mov	r0, r4
	ldr	r3, [r3, #8]
	blx	r3
	mcr	p15, 0, r0, c7, c10, 5
	ldr	r2, [r4, #32]
	sub	r3, r2, #1
	str	r3, [r4, #32]
	b	.L313
.L298:
	ldr	r3, [r4, #28]
	cmp	r3, #1
	sub	r3, r3, #1
	str	r3, [r4, #28]
	bne	.L297
	ldr	r3, [r4]
	mov	r0, r4
	ldr	r3, [r3, #8]
	blx	r3
	mcr	p15, 0, r0, c7, c10, 5
	ldr	r2, [r4, #32]
	sub	r3, r2, #1
	str	r3, [r4, #32]
	b	.L317
.L286:
	ldr	r3, [r4, #28]
	cmp	r3, #1
	sub	r3, r3, #1
	str	r3, [r4, #28]
	bne	.L285
	ldr	r3, [r4]
	mov	r0, r4
	ldr	r3, [r3, #8]
	blx	r3
	mcr	p15, 0, r0, c7, c10, 5
	ldr	r2, [r4, #32]
	sub	r3, r2, #1
	str	r3, [r4, #32]
	b	.L315
.L256:
	ldr	r3, [r4, #28]
	cmp	r3, #1
	sub	r3, r3, #1
	str	r3, [r4, #28]
	bne	.L255
	ldr	r3, [r4]
	mov	r0, r4
	ldr	r3, [r3, #8]
	blx	r3
	mcr	p15, 0, r0, c7, c10, 5
	ldr	r2, [r4, #32]
	sub	r3, r2, #1
	str	r3, [r4, #32]
	b	.L310
.L416:
	ldr	r3, [r4]
	mov	r0, r4
	ldr	r3, [r3, #8]
	blx	r3
	add	r3, r4, #32
	mcr	p15, 0, r0, c7, c10, 5
	mcr	p15, 0, r0, c7, c10, 5
.L336:
	ldrex	r2, [r3]
	sub	r1, r2, #1
	strex	r0, r1, [r3]
	cmp	r0, #0
	bne	.L336
	mcr	p15, 0, r0, c7, c10, 5
.L315:
	cmp	r2, #1
	bne	.L285
	ldr	r3, [r4]
	mov	r0, r4
	ldr	r3, [r3, #12]
	blx	r3
	b	.L285
.L418:
	ldr	r3, [r4]
	mov	r0, r4
	ldr	r3, [r3, #8]
	blx	r3
	add	r3, r4, #32
	mcr	p15, 0, r0, c7, c10, 5
	mcr	p15, 0, r0, c7, c10, 5
.L334:
	ldrex	r2, [r3]
	sub	r1, r2, #1
	strex	r0, r1, [r3]
	cmp	r0, #0
	bne	.L334
	mcr	p15, 0, r0, c7, c10, 5
.L317:
	cmp	r2, #1
	bne	.L297
	ldr	r3, [r4]
	mov	r0, r4
	ldr	r3, [r3, #12]
	blx	r3
	b	.L297
.L411:
	ldr	r3, [r4]
	mov	r0, r4
	ldr	r3, [r3, #8]
	blx	r3
	add	r3, r4, #32
	mcr	p15, 0, r0, c7, c10, 5
	mcr	p15, 0, r0, c7, c10, 5
.L341:
	ldrex	r2, [r3]
	sub	r1, r2, #1
	strex	r0, r1, [r3]
	cmp	r0, #0
	bne	.L341
	mcr	p15, 0, r0, c7, c10, 5
.L310:
	cmp	r2, #1
	bne	.L255
	ldr	r3, [r4]
	mov	r0, r4
	ldr	r3, [r3, #12]
	blx	r3
	b	.L255
.L414:
	ldr	r3, [r4]
	mov	r0, r4
	ldr	r3, [r3, #8]
	blx	r3
	add	r3, r4, #32
	mcr	p15, 0, r0, c7, c10, 5
	mcr	p15, 0, r0, c7, c10, 5
.L338:
	ldrex	r2, [r3]
	sub	r1, r2, #1
	strex	r0, r1, [r3]
	cmp	r0, #0
	bne	.L338
	mcr	p15, 0, r0, c7, c10, 5
.L313:
	cmp	r2, #1
	bne	.L273
	ldr	r3, [r4]
	mov	r0, r4
	ldr	r3, [r3, #12]
	blx	r3
	b	.L273
.L415:
	ldr	r3, [r4]
	mov	r0, r4
	ldr	r3, [r3, #8]
	blx	r3
	add	r3, r4, #32
	mcr	p15, 0, r0, c7, c10, 5
	mcr	p15, 0, r0, c7, c10, 5
.L337:
	ldrex	r2, [r3]
	sub	r1, r2, #1
	strex	r0, r1, [r3]
	cmp	r0, #0
	bne	.L337
	mcr	p15, 0, r0, c7, c10, 5
.L314:
	cmp	r2, #1
	bne	.L279
	ldr	r3, [r4]
	mov	r0, r4
	ldr	r3, [r3, #12]
	blx	r3
	b	.L279
.L417:
	ldr	r3, [r4]
	mov	r0, r4
	ldr	r3, [r3, #8]
	blx	r3
	add	r3, r4, #32
	mcr	p15, 0, r0, c7, c10, 5
	mcr	p15, 0, r0, c7, c10, 5
.L335:
	ldrex	r2, [r3]
	sub	r1, r2, #1
	strex	r0, r1, [r3]
	cmp	r0, #0
	bne	.L335
	mcr	p15, 0, r0, c7, c10, 5
.L316:
	cmp	r2, #1
	bne	.L291
	ldr	r3, [r4]
	mov	r0, r4
	ldr	r3, [r3, #12]
	blx	r3
	b	.L291
.L405:
	ldr	r3, [r4]
	mov	r0, r4
	ldr	r3, [r3, #8]
	blx	r3
	add	r3, r4, #32
	mcr	p15, 0, r0, c7, c10, 5
	mcr	p15, 0, r0, c7, c10, 5
.L347:
	ldrex	r2, [r3]
	sub	r1, r2, #1
	strex	r0, r1, [r3]
	cmp	r0, #0
	bne	.L347
	mcr	p15, 0, r0, c7, c10, 5
.L304:
	cmp	r2, #1
	bne	.L219
	ldr	r3, [r4]
	mov	r0, r4
	ldr	r3, [r3, #12]
	blx	r3
	b	.L219
.L406:
	ldr	r3, [r4]
	mov	r0, r4
	ldr	r3, [r3, #8]
	blx	r3
	add	r3, r4, #32
	mcr	p15, 0, r0, c7, c10, 5
	mcr	p15, 0, r0, c7, c10, 5
.L346:
	ldrex	r2, [r3]
	sub	r1, r2, #1
	strex	r0, r1, [r3]
	cmp	r0, #0
	bne	.L346
	mcr	p15, 0, r0, c7, c10, 5
.L305:
	cmp	r2, #1
	bne	.L225
	ldr	r3, [r4]
	mov	r0, r4
	ldr	r3, [r3, #12]
	blx	r3
	b	.L225
.L407:
	ldr	r3, [r4]
	mov	r0, r4
	ldr	r3, [r3, #8]
	blx	r3
	add	r3, r4, #32
	mcr	p15, 0, r0, c7, c10, 5
	mcr	p15, 0, r0, c7, c10, 5
.L345:
	ldrex	r2, [r3]
	sub	r1, r2, #1
	strex	r0, r1, [r3]
	cmp	r0, #0
	bne	.L345
	mcr	p15, 0, r0, c7, c10, 5
.L306:
	cmp	r2, #1
	bne	.L231
	ldr	r3, [r4]
	mov	r0, r4
	ldr	r3, [r3, #12]
	blx	r3
	b	.L231
.L408:
	ldr	r3, [r4]
	mov	r0, r4
	ldr	r3, [r3, #8]
	blx	r3
	add	r3, r4, #32
	mcr	p15, 0, r0, c7, c10, 5
	mcr	p15, 0, r0, c7, c10, 5
.L344:
	ldrex	r2, [r3]
	sub	r1, r2, #1
	strex	r0, r1, [r3]
	cmp	r0, #0
	bne	.L344
	mcr	p15, 0, r0, c7, c10, 5
.L307:
	cmp	r2, #1
	bne	.L237
	ldr	r3, [r4]
	mov	r0, r4
	ldr	r3, [r3, #12]
	blx	r3
	b	.L237
.L409:
	ldr	r3, [r4]
	mov	r0, r4
	ldr	r3, [r3, #8]
	blx	r3
	add	r3, r4, #32
	mcr	p15, 0, r0, c7, c10, 5
	mcr	p15, 0, r0, c7, c10, 5
.L343:
	ldrex	r2, [r3]
	sub	r1, r2, #1
	strex	r0, r1, [r3]
	cmp	r0, #0
	bne	.L343
	mcr	p15, 0, r0, c7, c10, 5
.L308:
	cmp	r2, #1
	bne	.L243
	ldr	r3, [r4]
	mov	r0, r4
	ldr	r3, [r3, #12]
	blx	r3
	b	.L243
.L410:
	ldr	r3, [r4]
	mov	r0, r4
	ldr	r3, [r3, #8]
	blx	r3
	add	r3, r4, #32
	mcr	p15, 0, r0, c7, c10, 5
	mcr	p15, 0, r0, c7, c10, 5
.L342:
	ldrex	r2, [r3]
	sub	r1, r2, #1
	strex	r0, r1, [r3]
	cmp	r0, #0
	bne	.L342
	mcr	p15, 0, r0, c7, c10, 5
.L309:
	cmp	r2, #1
	bne	.L249
	ldr	r3, [r4]
	mov	r0, r4
	ldr	r3, [r3, #12]
	blx	r3
	b	.L249
.L412:
	ldr	r3, [r4]
	mov	r0, r4
	ldr	r3, [r3, #8]
	blx	r3
	add	r3, r4, #32
	mcr	p15, 0, r0, c7, c10, 5
	mcr	p15, 0, r0, c7, c10, 5
.L340:
	ldrex	r2, [r3]
	sub	r1, r2, #1
	strex	r0, r1, [r3]
	cmp	r0, #0
	bne	.L340
	mcr	p15, 0, r0, c7, c10, 5
.L311:
	cmp	r2, #1
	bne	.L261
	ldr	r3, [r4]
	mov	r0, r4
	ldr	r3, [r3, #12]
	blx	r3
	b	.L261
.L413:
	ldr	r3, [r4]
	mov	r0, r4
	ldr	r3, [r3, #8]
	blx	r3
	add	r3, r4, #32
	mcr	p15, 0, r0, c7, c10, 5
	mcr	p15, 0, r0, c7, c10, 5
.L339:
	ldrex	r2, [r3]
	sub	r1, r2, #1
	strex	r0, r1, [r3]
	cmp	r0, #0
	bne	.L339
	mcr	p15, 0, r0, c7, c10, 5
.L312:
	cmp	r2, #1
	bne	.L267
	ldr	r3, [r4]
	mov	r0, r4
	ldr	r3, [r3, #12]
	blx	r3
	b	.L267
.L422:
	.align	2
.L421:
	.word	_GLOBAL_OFFSET_TABLE_-(.LPIC28+8)
	.word	_ZTVN8opendnp38MContextE(GOT)
	.word	_ZTVN7openpal5ArrayIhjEE(GOT)
	.word	_ZL28__gthrw___pthread_key_createPjPFvPvE(GOT)
	.cantunwind
	.fnend
	.size	_ZN8opendnp38MContextD0Ev, .-_ZN8opendnp38MContextD0Ev
	.section	.text._ZN8opendnp38MContextD2Ev,"axG",%progbits,_ZN8opendnp38MContextD5Ev,comdat
	.align	2
	.weak	_ZN8opendnp38MContextD2Ev
	.syntax unified
	.arm
	.fpu vfp
	.type	_ZN8opendnp38MContextD2Ev, %function
_ZN8opendnp38MContextD2Ev:
	.fnstart
.LFB4733:
	@ args = 0, pretend = 0, frame = 0
	@ frame_needed = 0, uses_anonymous_args = 0
	push	{r4, r5, r6, r7, r8, lr}
	mov	r6, r0
	ldr	r7, .L649
	ldr	r3, .L649+4
.LPIC29:
	add	r7, pc, r7
	ldr	r2, .L649+8
	ldr	r3, [r7, r3]
	ldr	r0, [r0, #276]
	add	ip, r3, #8
	add	r1, r3, #64
	add	r3, r3, #76
	str	ip, [r6]
	stmib	r6, {r1, r3}
	ldr	r3, [r7, r2]
	cmp	r0, #0
	add	r3, r3, #8
	str	r3, [r6, #268]
	beq	.L424
	bl	_ZdaPv(PLT)
.L424:
	ldr	r0, [r6, #228]
	cmp	r0, #0
	beq	.L425
	ldr	r5, [r6, #264]
	ldr	r4, [r6, #248]
	add	r5, r5, #4
	cmp	r4, r5
	bcs	.L426
.L427:
	ldr	r0, [r4], #4
	bl	_ZdlPv(PLT)
	cmp	r5, r4
	bhi	.L427
	ldr	r0, [r6, #228]
.L426:
	bl	_ZdlPv(PLT)
.L425:
	ldr	r4, [r6, #216]
	ldr	r8, [r6, #220]
	cmp	r4, r8
	bne	.L435
	b	.L428
.L629:
	add	r3, r5, #28
	mcr	p15, 0, r0, c7, c10, 5
.L593:
	ldrex	r2, [r3]
	sub	r1, r2, #1
	strex	r0, r1, [r3]
	cmp	r0, #0
	bne	.L593
	cmp	r2, #1
	mcr	p15, 0, r0, c7, c10, 5
	beq	.L627
.L430:
	add	r4, r4, #8
	cmp	r8, r4
	beq	.L628
.L435:
	ldr	r5, [r4, #4]
	cmp	r5, #0
	beq	.L430
	ldr	r3, .L649+12
	ldr	r3, [r7, r3]
	cmp	r3, #0
	bne	.L629
	ldr	r3, [r5, #28]
	cmp	r3, #1
	sub	r3, r3, #1
	str	r3, [r5, #28]
	bne	.L430
	ldr	r3, [r5]
	mov	r0, r5
	ldr	r3, [r3, #8]
	blx	r3
	mcr	p15, 0, r0, c7, c10, 5
	ldr	r2, [r5, #32]
	sub	r3, r2, #1
	cmp	r2, #1
	str	r3, [r5, #32]
	bne	.L430
	ldr	r3, [r5]
	mov	r0, r5
	ldr	r3, [r3, #12]
	blx	r3
.L647:
	add	r4, r4, #8
	cmp	r8, r4
	bne	.L435
.L628:
	ldr	r8, [r6, #216]
.L428:
	cmp	r8, #0
	beq	.L436
	mov	r0, r8
	bl	_ZdlPv(PLT)
.L436:
	ldr	r4, [r6, #200]
	ldr	r8, [r6, #204]
	cmp	r4, r8
	bne	.L444
	b	.L437
.L632:
	add	r3, r5, #28
	mcr	p15, 0, r0, c7, c10, 5
.L592:
	ldrex	r2, [r3]
	sub	r1, r2, #1
	strex	r0, r1, [r3]
	cmp	r0, #0
	bne	.L592
	cmp	r2, #1
	mcr	p15, 0, r0, c7, c10, 5
	beq	.L630
.L439:
	add	r4, r4, #8
	cmp	r8, r4
	beq	.L631
.L444:
	ldr	r5, [r4, #4]
	cmp	r5, #0
	beq	.L439
	ldr	r3, .L649+12
	ldr	r3, [r7, r3]
	cmp	r3, #0
	bne	.L632
	ldr	r3, [r5, #28]
	cmp	r3, #1
	sub	r3, r3, #1
	str	r3, [r5, #28]
	bne	.L439
	ldr	r3, [r5]
	mov	r0, r5
	ldr	r3, [r3, #8]
	blx	r3
	mcr	p15, 0, r0, c7, c10, 5
	ldr	r2, [r5, #32]
	sub	r3, r2, #1
	cmp	r2, #1
	str	r3, [r5, #32]
	bne	.L439
	ldr	r3, [r5]
	mov	r0, r5
	ldr	r3, [r3, #12]
	blx	r3
.L648:
	add	r4, r4, #8
	cmp	r8, r4
	bne	.L444
.L631:
	ldr	r8, [r6, #200]
.L437:
	cmp	r8, #0
	beq	.L445
	mov	r0, r8
	bl	_ZdlPv(PLT)
.L445:
	ldr	r4, [r6, #196]
	cmp	r4, #0
	beq	.L447
	ldr	r3, .L649+12
	ldr	r3, [r7, r3]
	cmp	r3, #0
	beq	.L448
	add	r3, r4, #28
	mcr	p15, 0, r0, c7, c10, 5
.L591:
	ldrex	r2, [r3]
	sub	r1, r2, #1
	strex	r0, r1, [r3]
	cmp	r0, #0
	bne	.L591
	cmp	r2, #1
	mcr	p15, 0, r0, c7, c10, 5
	beq	.L633
.L447:
	ldr	r4, [r6, #188]
	cmp	r4, #0
	beq	.L453
	ldr	r3, .L649+12
	ldr	r3, [r7, r3]
	cmp	r3, #0
	beq	.L454
	add	r3, r4, #28
	mcr	p15, 0, r0, c7, c10, 5
.L590:
	ldrex	r2, [r3]
	sub	r1, r2, #1
	strex	r0, r1, [r3]
	cmp	r0, #0
	bne	.L590
	cmp	r2, #1
	mcr	p15, 0, r0, c7, c10, 5
	beq	.L634
.L453:
	ldr	r4, [r6, #180]
	cmp	r4, #0
	beq	.L459
	ldr	r3, .L649+12
	ldr	r3, [r7, r3]
	cmp	r3, #0
	beq	.L460
	add	r3, r4, #28
	mcr	p15, 0, r0, c7, c10, 5
.L589:
	ldrex	r2, [r3]
	sub	r1, r2, #1
	strex	r0, r1, [r3]
	cmp	r0, #0
	bne	.L589
	cmp	r2, #1
	mcr	p15, 0, r0, c7, c10, 5
	beq	.L635
.L459:
	ldr	r4, [r6, #172]
	cmp	r4, #0
	beq	.L465
	ldr	r3, .L649+12
	ldr	r3, [r7, r3]
	cmp	r3, #0
	beq	.L466
	add	r3, r4, #28
	mcr	p15, 0, r0, c7, c10, 5
.L588:
	ldrex	r2, [r3]
	sub	r1, r2, #1
	strex	r0, r1, [r3]
	cmp	r0, #0
	bne	.L588
	cmp	r2, #1
	mcr	p15, 0, r0, c7, c10, 5
	beq	.L636
.L465:
	ldr	r4, [r6, #164]
	cmp	r4, #0
	beq	.L471
	ldr	r3, .L649+12
	ldr	r3, [r7, r3]
	cmp	r3, #0
	beq	.L472
	add	r3, r4, #28
	mcr	p15, 0, r0, c7, c10, 5
.L587:
	ldrex	r2, [r3]
	sub	r1, r2, #1
	strex	r0, r1, [r3]
	cmp	r0, #0
	bne	.L587
	cmp	r2, #1
	mcr	p15, 0, r0, c7, c10, 5
	beq	.L637
.L471:
	ldr	r4, [r6, #156]
	cmp	r4, #0
	beq	.L477
	ldr	r3, .L649+12
	ldr	r3, [r7, r3]
	cmp	r3, #0
	beq	.L478
	add	r3, r4, #28
	mcr	p15, 0, r0, c7, c10, 5
.L586:
	ldrex	r2, [r3]
	sub	r1, r2, #1
	strex	r0, r1, [r3]
	cmp	r0, #0
	bne	.L586
	cmp	r2, #1
	mcr	p15, 0, r0, c7, c10, 5
	beq	.L638
.L477:
	ldr	r4, [r6, #148]
	cmp	r4, #0
	beq	.L483
	ldr	r3, .L649+12
	ldr	r3, [r7, r3]
	cmp	r3, #0
	beq	.L484
	add	r3, r4, #28
	mcr	p15, 0, r0, c7, c10, 5
.L585:
	ldrex	r2, [r3]
	sub	r1, r2, #1
	strex	r0, r1, [r3]
	cmp	r0, #0
	bne	.L585
	cmp	r2, #1
	mcr	p15, 0, r0, c7, c10, 5
	beq	.L639
.L483:
	add	r0, r6, #136
	bl	_ZN7openpal8TimerRefD1Ev(PLT)
	add	r0, r6, #128
	bl	_ZN7openpal8TimerRefD1Ev(PLT)
	add	r0, r6, #120
	bl	_ZN7openpal8TimerRefD1Ev(PLT)
	ldr	r4, [r6, #116]
	cmp	r4, #0
	beq	.L489
	ldr	r3, .L649+12
	ldr	r3, [r7, r3]
	cmp	r3, #0
	beq	.L490
	add	r3, r4, #28
	mcr	p15, 0, r0, c7, c10, 5
.L584:
	ldrex	r2, [r3]
	sub	r1, r2, #1
	strex	r0, r1, [r3]
	cmp	r0, #0
	bne	.L584
	cmp	r2, #1
	mcr	p15, 0, r0, c7, c10, 5
	beq	.L640
.L489:
	ldr	r4, [r6, #100]
	cmp	r4, #0
	beq	.L495
	ldr	r3, .L649+12
	ldr	r3, [r7, r3]
	cmp	r3, #0
	beq	.L496
	add	r3, r4, #28
	mcr	p15, 0, r0, c7, c10, 5
.L583:
	ldrex	r2, [r3]
	sub	r1, r2, #1
	strex	r0, r1, [r3]
	cmp	r0, #0
	bne	.L583
	cmp	r2, #1
	mcr	p15, 0, r0, c7, c10, 5
	beq	.L641
.L495:
	ldr	r4, [r6, #92]
	cmp	r4, #0
	beq	.L501
	ldr	r3, .L649+12
	ldr	r3, [r7, r3]
	cmp	r3, #0
	beq	.L502
	add	r3, r4, #28
	mcr	p15, 0, r0, c7, c10, 5
.L582:
	ldrex	r2, [r3]
	sub	r1, r2, #1
	strex	r0, r1, [r3]
	cmp	r0, #0
	bne	.L582
	cmp	r2, #1
	mcr	p15, 0, r0, c7, c10, 5
	beq	.L642
.L501:
	ldr	r4, [r6, #40]
	cmp	r4, #0
	beq	.L507
	ldr	r3, .L649+12
	ldr	r3, [r7, r3]
	cmp	r3, #0
	beq	.L508
	add	r3, r4, #28
	mcr	p15, 0, r0, c7, c10, 5
.L581:
	ldrex	r2, [r3]
	sub	r1, r2, #1
	strex	r0, r1, [r3]
	cmp	r0, #0
	bne	.L581
	cmp	r2, #1
	mcr	p15, 0, r0, c7, c10, 5
	beq	.L643
.L507:
	ldr	r4, [r6, #32]
	cmp	r4, #0
	beq	.L513
	ldr	r3, .L649+12
	ldr	r3, [r7, r3]
	cmp	r3, #0
	beq	.L514
	add	r3, r4, #28
	mcr	p15, 0, r0, c7, c10, 5
.L580:
	ldrex	r2, [r3]
	sub	r1, r2, #1
	strex	r0, r1, [r3]
	cmp	r0, #0
	bne	.L580
	cmp	r2, #1
	mcr	p15, 0, r0, c7, c10, 5
	beq	.L644
.L513:
	ldr	r4, [r6, #24]
	cmp	r4, #0
	beq	.L519
	ldr	r3, .L649+12
	ldr	r3, [r7, r3]
	cmp	r3, #0
	beq	.L520
	add	r3, r4, #28
	mcr	p15, 0, r0, c7, c10, 5
.L579:
	ldrex	r2, [r3]
	sub	r1, r2, #1
	strex	r0, r1, [r3]
	cmp	r0, #0
	bne	.L579
	cmp	r2, #1
	mcr	p15, 0, r0, c7, c10, 5
	beq	.L645
.L519:
	ldr	r4, [r6, #16]
	cmp	r4, #0
	beq	.L550
	ldr	r3, .L649+12
	ldr	r3, [r7, r3]
	cmp	r3, #0
	beq	.L526
	add	r3, r4, #28
	mcr	p15, 0, r0, c7, c10, 5
.L578:
	ldrex	r2, [r3]
	sub	r1, r2, #1
	strex	r0, r1, [r3]
	cmp	r0, #0
	bne	.L578
	cmp	r2, #1
	mcr	p15, 0, r0, c7, c10, 5
	beq	.L646
.L550:
	mov	r0, r6
	pop	{r4, r5, r6, r7, r8, pc}
.L627:
	ldr	r3, [r5]
	mov	r0, r5
	ldr	r3, [r3, #8]
	blx	r3
	add	r3, r5, #32
	mcr	p15, 0, r0, c7, c10, 5
	mcr	p15, 0, r0, c7, c10, 5
.L577:
	ldrex	r2, [r3]
	sub	r1, r2, #1
	strex	r0, r1, [r3]
	cmp	r0, #0
	bne	.L577
	cmp	r2, #1
	mcr	p15, 0, r0, c7, c10, 5
	bne	.L430
	ldr	r3, [r5]
	mov	r0, r5
	ldr	r3, [r3, #12]
	blx	r3
	b	.L647
.L630:
	ldr	r3, [r5]
	mov	r0, r5
	ldr	r3, [r3, #8]
	blx	r3
	add	r3, r5, #32
	mcr	p15, 0, r0, c7, c10, 5
	mcr	p15, 0, r0, c7, c10, 5
.L576:
	ldrex	r2, [r3]
	sub	r1, r2, #1
	strex	r0, r1, [r3]
	cmp	r0, #0
	bne	.L576
	cmp	r2, #1
	mcr	p15, 0, r0, c7, c10, 5
	bne	.L439
	ldr	r3, [r5]
	mov	r0, r5
	ldr	r3, [r3, #12]
	blx	r3
	b	.L648
.L454:
	ldr	r3, [r4, #28]
	cmp	r3, #1
	sub	r3, r3, #1
	str	r3, [r4, #28]
	bne	.L453
	ldr	r3, [r4]
	mov	r0, r4
	ldr	r3, [r3, #8]
	blx	r3
	mcr	p15, 0, r0, c7, c10, 5
	ldr	r2, [r4, #32]
	sub	r3, r2, #1
	str	r3, [r4, #32]
	b	.L533
.L448:
	ldr	r3, [r4, #28]
	cmp	r3, #1
	sub	r3, r3, #1
	str	r3, [r4, #28]
	bne	.L447
	ldr	r3, [r4]
	mov	r0, r4
	ldr	r3, [r3, #8]
	blx	r3
	mcr	p15, 0, r0, c7, c10, 5
	ldr	r2, [r4, #32]
	sub	r3, r2, #1
	str	r3, [r4, #32]
	b	.L532
.L520:
	ldr	r3, [r4, #28]
	cmp	r3, #1
	sub	r3, r3, #1
	str	r3, [r4, #28]
	bne	.L519
	ldr	r3, [r4]
	mov	r0, r4
	ldr	r3, [r3, #8]
	blx	r3
	mcr	p15, 0, r0, c7, c10, 5
	ldr	r2, [r4, #32]
	sub	r3, r2, #1
	str	r3, [r4, #32]
	b	.L544
.L466:
	ldr	r3, [r4, #28]
	cmp	r3, #1
	sub	r3, r3, #1
	str	r3, [r4, #28]
	bne	.L465
	ldr	r3, [r4]
	mov	r0, r4
	ldr	r3, [r3, #8]
	blx	r3
	mcr	p15, 0, r0, c7, c10, 5
	ldr	r2, [r4, #32]
	sub	r3, r2, #1
	str	r3, [r4, #32]
	b	.L535
.L460:
	ldr	r3, [r4, #28]
	cmp	r3, #1
	sub	r3, r3, #1
	str	r3, [r4, #28]
	bne	.L459
	ldr	r3, [r4]
	mov	r0, r4
	ldr	r3, [r3, #8]
	blx	r3
	mcr	p15, 0, r0, c7, c10, 5
	ldr	r2, [r4, #32]
	sub	r3, r2, #1
	str	r3, [r4, #32]
	b	.L534
.L496:
	ldr	r3, [r4, #28]
	cmp	r3, #1
	sub	r3, r3, #1
	str	r3, [r4, #28]
	bne	.L495
	ldr	r3, [r4]
	mov	r0, r4
	ldr	r3, [r3, #8]
	blx	r3
	mcr	p15, 0, r0, c7, c10, 5
	ldr	r2, [r4, #32]
	sub	r3, r2, #1
	str	r3, [r4, #32]
	b	.L540
.L490:
	ldr	r3, [r4, #28]
	cmp	r3, #1
	sub	r3, r3, #1
	str	r3, [r4, #28]
	bne	.L489
	ldr	r3, [r4]
	mov	r0, r4
	ldr	r3, [r3, #8]
	blx	r3
	mcr	p15, 0, r0, c7, c10, 5
	ldr	r2, [r4, #32]
	sub	r3, r2, #1
	str	r3, [r4, #32]
	b	.L539
.L472:
	ldr	r3, [r4, #28]
	cmp	r3, #1
	sub	r3, r3, #1
	str	r3, [r4, #28]
	bne	.L471
	ldr	r3, [r4]
	mov	r0, r4
	ldr	r3, [r3, #8]
	blx	r3
	mcr	p15, 0, r0, c7, c10, 5
	ldr	r2, [r4, #32]
	sub	r3, r2, #1
	str	r3, [r4, #32]
	b	.L536
.L478:
	ldr	r3, [r4, #28]
	cmp	r3, #1
	sub	r3, r3, #1
	str	r3, [r4, #28]
	bne	.L477
	ldr	r3, [r4]
	mov	r0, r4
	ldr	r3, [r3, #8]
	blx	r3
	mcr	p15, 0, r0, c7, c10, 5
	ldr	r2, [r4, #32]
	sub	r3, r2, #1
	str	r3, [r4, #32]
	b	.L537
.L508:
	ldr	r3, [r4, #28]
	cmp	r3, #1
	sub	r3, r3, #1
	str	r3, [r4, #28]
	bne	.L507
	ldr	r3, [r4]
	mov	r0, r4
	ldr	r3, [r3, #8]
	blx	r3
	mcr	p15, 0, r0, c7, c10, 5
	ldr	r2, [r4, #32]
	sub	r3, r2, #1
	str	r3, [r4, #32]
	b	.L542
.L502:
	ldr	r3, [r4, #28]
	cmp	r3, #1
	sub	r3, r3, #1
	str	r3, [r4, #28]
	bne	.L501
	ldr	r3, [r4]
	mov	r0, r4
	ldr	r3, [r3, #8]
	blx	r3
	mcr	p15, 0, r0, c7, c10, 5
	ldr	r2, [r4, #32]
	sub	r3, r2, #1
	str	r3, [r4, #32]
	b	.L541
.L526:
	ldr	r3, [r4, #28]
	cmp	r3, #1
	sub	r3, r3, #1
	str	r3, [r4, #28]
	bne	.L550
	ldr	r3, [r4]
	mov	r0, r4
	ldr	r3, [r3, #8]
	blx	r3
	mcr	p15, 0, r0, c7, c10, 5
	ldr	r2, [r4, #32]
	sub	r3, r2, #1
	str	r3, [r4, #32]
	b	.L545
.L514:
	ldr	r3, [r4, #28]
	cmp	r3, #1
	sub	r3, r3, #1
	str	r3, [r4, #28]
	bne	.L513
	ldr	r3, [r4]
	mov	r0, r4
	ldr	r3, [r3, #8]
	blx	r3
	mcr	p15, 0, r0, c7, c10, 5
	ldr	r2, [r4, #32]
	sub	r3, r2, #1
	str	r3, [r4, #32]
	b	.L543
.L484:
	ldr	r3, [r4, #28]
	cmp	r3, #1
	sub	r3, r3, #1
	str	r3, [r4, #28]
	bne	.L483
	ldr	r3, [r4]
	mov	r0, r4
	ldr	r3, [r3, #8]
	blx	r3
	mcr	p15, 0, r0, c7, c10, 5
	ldr	r2, [r4, #32]
	sub	r3, r2, #1
	str	r3, [r4, #32]
	b	.L538
.L644:
	ldr	r3, [r4]
	mov	r0, r4
	ldr	r3, [r3, #8]
	blx	r3
	add	r3, r4, #32
	mcr	p15, 0, r0, c7, c10, 5
	mcr	p15, 0, r0, c7, c10, 5
.L564:
	ldrex	r2, [r3]
	sub	r1, r2, #1
	strex	r0, r1, [r3]
	cmp	r0, #0
	bne	.L564
	mcr	p15, 0, r0, c7, c10, 5
.L543:
	cmp	r2, #1
	bne	.L513
	ldr	r3, [r4]
	mov	r0, r4
	ldr	r3, [r3, #12]
	blx	r3
	b	.L513
.L646:
	ldr	r3, [r4]
	mov	r0, r4
	ldr	r3, [r3, #8]
	blx	r3
	add	r3, r4, #32
	mcr	p15, 0, r0, c7, c10, 5
	mcr	p15, 0, r0, c7, c10, 5
.L562:
	ldrex	r2, [r3]
	sub	r1, r2, #1
	strex	r0, r1, [r3]
	cmp	r0, #0
	bne	.L562
	mcr	p15, 0, r0, c7, c10, 5
.L545:
	cmp	r2, #1
	bne	.L550
	ldr	r3, [r4]
	mov	r0, r4
	ldr	r3, [r3, #12]
	blx	r3
	b	.L550
.L639:
	ldr	r3, [r4]
	mov	r0, r4
	ldr	r3, [r3, #8]
	blx	r3
	add	r3, r4, #32
	mcr	p15, 0, r0, c7, c10, 5
	mcr	p15, 0, r0, c7, c10, 5
.L569:
	ldrex	r2, [r3]
	sub	r1, r2, #1
	strex	r0, r1, [r3]
	cmp	r0, #0
	bne	.L569
	mcr	p15, 0, r0, c7, c10, 5
.L538:
	cmp	r2, #1
	bne	.L483
	ldr	r3, [r4]
	mov	r0, r4
	ldr	r3, [r3, #12]
	blx	r3
	b	.L483
.L642:
	ldr	r3, [r4]
	mov	r0, r4
	ldr	r3, [r3, #8]
	blx	r3
	add	r3, r4, #32
	mcr	p15, 0, r0, c7, c10, 5
	mcr	p15, 0, r0, c7, c10, 5
.L566:
	ldrex	r2, [r3]
	sub	r1, r2, #1
	strex	r0, r1, [r3]
	cmp	r0, #0
	bne	.L566
	mcr	p15, 0, r0, c7, c10, 5
.L541:
	cmp	r2, #1
	bne	.L501
	ldr	r3, [r4]
	mov	r0, r4
	ldr	r3, [r3, #12]
	blx	r3
	b	.L501
.L643:
	ldr	r3, [r4]
	mov	r0, r4
	ldr	r3, [r3, #8]
	blx	r3
	add	r3, r4, #32
	mcr	p15, 0, r0, c7, c10, 5
	mcr	p15, 0, r0, c7, c10, 5
.L565:
	ldrex	r2, [r3]
	sub	r1, r2, #1
	strex	r0, r1, [r3]
	cmp	r0, #0
	bne	.L565
	mcr	p15, 0, r0, c7, c10, 5
.L542:
	cmp	r2, #1
	bne	.L507
	ldr	r3, [r4]
	mov	r0, r4
	ldr	r3, [r3, #12]
	blx	r3
	b	.L507
.L645:
	ldr	r3, [r4]
	mov	r0, r4
	ldr	r3, [r3, #8]
	blx	r3
	add	r3, r4, #32
	mcr	p15, 0, r0, c7, c10, 5
	mcr	p15, 0, r0, c7, c10, 5
.L563:
	ldrex	r2, [r3]
	sub	r1, r2, #1
	strex	r0, r1, [r3]
	cmp	r0, #0
	bne	.L563
	mcr	p15, 0, r0, c7, c10, 5
.L544:
	cmp	r2, #1
	bne	.L519
	ldr	r3, [r4]
	mov	r0, r4
	ldr	r3, [r3, #12]
	blx	r3
	b	.L519
.L633:
	ldr	r3, [r4]
	mov	r0, r4
	ldr	r3, [r3, #8]
	blx	r3
	add	r3, r4, #32
	mcr	p15, 0, r0, c7, c10, 5
	mcr	p15, 0, r0, c7, c10, 5
.L575:
	ldrex	r2, [r3]
	sub	r1, r2, #1
	strex	r0, r1, [r3]
	cmp	r0, #0
	bne	.L575
	mcr	p15, 0, r0, c7, c10, 5
.L532:
	cmp	r2, #1
	bne	.L447
	ldr	r3, [r4]
	mov	r0, r4
	ldr	r3, [r3, #12]
	blx	r3
	b	.L447
.L634:
	ldr	r3, [r4]
	mov	r0, r4
	ldr	r3, [r3, #8]
	blx	r3
	add	r3, r4, #32
	mcr	p15, 0, r0, c7, c10, 5
	mcr	p15, 0, r0, c7, c10, 5
.L574:
	ldrex	r2, [r3]
	sub	r1, r2, #1
	strex	r0, r1, [r3]
	cmp	r0, #0
	bne	.L574
	mcr	p15, 0, r0, c7, c10, 5
.L533:
	cmp	r2, #1
	bne	.L453
	ldr	r3, [r4]
	mov	r0, r4
	ldr	r3, [r3, #12]
	blx	r3
	b	.L453
.L635:
	ldr	r3, [r4]
	mov	r0, r4
	ldr	r3, [r3, #8]
	blx	r3
	add	r3, r4, #32
	mcr	p15, 0, r0, c7, c10, 5
	mcr	p15, 0, r0, c7, c10, 5
.L573:
	ldrex	r2, [r3]
	sub	r1, r2, #1
	strex	r0, r1, [r3]
	cmp	r0, #0
	bne	.L573
	mcr	p15, 0, r0, c7, c10, 5
.L534:
	cmp	r2, #1
	bne	.L459
	ldr	r3, [r4]
	mov	r0, r4
	ldr	r3, [r3, #12]
	blx	r3
	b	.L459
.L636:
	ldr	r3, [r4]
	mov	r0, r4
	ldr	r3, [r3, #8]
	blx	r3
	add	r3, r4, #32
	mcr	p15, 0, r0, c7, c10, 5
	mcr	p15, 0, r0, c7, c10, 5
.L572:
	ldrex	r2, [r3]
	sub	r1, r2, #1
	strex	r0, r1, [r3]
	cmp	r0, #0
	bne	.L572
	mcr	p15, 0, r0, c7, c10, 5
.L535:
	cmp	r2, #1
	bne	.L465
	ldr	r3, [r4]
	mov	r0, r4
	ldr	r3, [r3, #12]
	blx	r3
	b	.L465
.L637:
	ldr	r3, [r4]
	mov	r0, r4
	ldr	r3, [r3, #8]
	blx	r3
	add	r3, r4, #32
	mcr	p15, 0, r0, c7, c10, 5
	mcr	p15, 0, r0, c7, c10, 5
.L571:
	ldrex	r2, [r3]
	sub	r1, r2, #1
	strex	r0, r1, [r3]
	cmp	r0, #0
	bne	.L571
	mcr	p15, 0, r0, c7, c10, 5
.L536:
	cmp	r2, #1
	bne	.L471
	ldr	r3, [r4]
	mov	r0, r4
	ldr	r3, [r3, #12]
	blx	r3
	b	.L471
.L638:
	ldr	r3, [r4]
	mov	r0, r4
	ldr	r3, [r3, #8]
	blx	r3
	add	r3, r4, #32
	mcr	p15, 0, r0, c7, c10, 5
	mcr	p15, 0, r0, c7, c10, 5
.L570:
	ldrex	r2, [r3]
	sub	r1, r2, #1
	strex	r0, r1, [r3]
	cmp	r0, #0
	bne	.L570
	mcr	p15, 0, r0, c7, c10, 5
.L537:
	cmp	r2, #1
	bne	.L477
	ldr	r3, [r4]
	mov	r0, r4
	ldr	r3, [r3, #12]
	blx	r3
	b	.L477
.L640:
	ldr	r3, [r4]
	mov	r0, r4
	ldr	r3, [r3, #8]
	blx	r3
	add	r3, r4, #32
	mcr	p15, 0, r0, c7, c10, 5
	mcr	p15, 0, r0, c7, c10, 5
.L568:
	ldrex	r2, [r3]
	sub	r1, r2, #1
	strex	r0, r1, [r3]
	cmp	r0, #0
	bne	.L568
	mcr	p15, 0, r0, c7, c10, 5
.L539:
	cmp	r2, #1
	bne	.L489
	ldr	r3, [r4]
	mov	r0, r4
	ldr	r3, [r3, #12]
	blx	r3
	b	.L489
.L641:
	ldr	r3, [r4]
	mov	r0, r4
	ldr	r3, [r3, #8]
	blx	r3
	add	r3, r4, #32
	mcr	p15, 0, r0, c7, c10, 5
	mcr	p15, 0, r0, c7, c10, 5
.L567:
	ldrex	r2, [r3]
	sub	r1, r2, #1
	strex	r0, r1, [r3]
	cmp	r0, #0
	bne	.L567
	mcr	p15, 0, r0, c7, c10, 5
.L540:
	cmp	r2, #1
	bne	.L495
	ldr	r3, [r4]
	mov	r0, r4
	ldr	r3, [r3, #12]
	blx	r3
	b	.L495
.L650:
	.align	2
.L649:
	.word	_GLOBAL_OFFSET_TABLE_-(.LPIC29+8)
	.word	_ZTVN8opendnp38MContextE(GOT)
	.word	_ZTVN7openpal5ArrayIhjEE(GOT)
	.word	_ZL28__gthrw___pthread_key_createPjPFvPvE(GOT)
	.cantunwind
	.fnend
	.size	_ZN8opendnp38MContextD2Ev, .-_ZN8opendnp38MContextD2Ev
	.weak	_ZN8opendnp38MContextD1Ev
	.set	_ZN8opendnp38MContextD1Ev,_ZN8opendnp38MContextD2Ev
	.text
	.align	2
	.global	_ZN8opendnp38MContext16OnLowerLayerDownEv
	.syntax unified
	.arm
	.fpu vfp
	.type	_ZN8opendnp38MContext16OnLowerLayerDownEv, %function
_ZN8opendnp38MContext16OnLowerLayerDownEv:
	.fnstart
.LFB3246:
	@ args = 0, pretend = 0, frame = 8
	@ frame_needed = 0, uses_anonymous_args = 0
	push	{r4, r5, r6, r7, lr}
	.save {r4, r5, r6, r7, lr}
	.pad #12
	sub	sp, sp, #12
	ldrb	r5, [r0, #108]	@ zero_extendqisi2
	ldr	r6, .L677
	cmp	r5, #0
.LPIC30:
	add	r6, pc, r6
	bne	.L674
.L662:
	mov	r0, r5
	add	sp, sp, #12
	@ sp needed
	pop	{r4, r5, r6, r7, pc}
.L674:
	ldr	r3, [r0, #28]
	mov	r4, r0
	mov	r1, r3
	ldr	r3, [r3]
	mov	r0, sp
	ldr	r3, [r3, #8]
	blx	r3
	add	r0, r4, #212
	mov	r1, sp
	bl	_ZN8opendnp315MasterScheduler8ShutdownERKN7openpal18MonotonicTimestampE(PLT)
	ldr	r0, [r4, #112]
	cmp	r0, #0
	beq	.L654
	ldrd	r2, [sp]
	bl	_ZN8opendnp311IMasterTask17OnLowerLayerCloseEN7openpal18MonotonicTimestampE(PLT)
	ldr	r7, [r4, #116]
	mov	r3, #0
	cmp	r7, r3
	str	r3, [r4, #112]
	str	r3, [r4, #116]
	beq	.L654
	ldr	r3, .L677+4
	ldr	r3, [r6, r3]
	cmp	r3, #0
	beq	.L656
	add	r3, r7, #28
	mcr	p15, 0, r0, c7, c10, 5
.L670:
	ldrex	r2, [r3]
	sub	r1, r2, #1
	strex	r0, r1, [r3]
	cmp	r0, #0
	bne	.L670
	cmp	r2, #1
	mcr	p15, 0, r0, c7, c10, 5
	beq	.L675
.L654:
	ldr	r0, [r4, #104]
	ldr	r3, .L677+8
	mov	r2, #0
	ldr	r1, [r0]
	str	r2, [r4, #280]
	ldr	r2, [r6, r3]
	ldr	r3, [r1, #4]
	cmp	r3, r2
	bne	.L676
.L659:
	add	r0, r4, #120
	bl	_ZN7openpal8TimerRef6CancelEv(PLT)
	add	r0, r4, #136
	bl	_ZN7openpal8TimerRef6CancelEv(PLT)
	add	r0, r4, #128
	bl	_ZN7openpal8TimerRef6CancelEv(PLT)
	ldr	r0, [r4, #96]
	ldr	r2, .L677+12
	mov	r3, #0
	ldr	r1, [r0]
	strb	r3, [r4, #111]
	strb	r3, [r4, #110]
	ldr	r1, [r1, #40]
	strb	r3, [r4, #109]
	strb	r3, [r4, #108]
	ldr	r3, [r6, r2]
	cmp	r1, r3
	beq	.L662
	blx	r1
	b	.L662
.L676:
	add	r1, r4, #4
	blx	r3
	b	.L659
.L656:
	ldr	r3, [r7, #28]
	cmp	r3, #1
	sub	r3, r3, #1
	str	r3, [r7, #28]
	bne	.L654
	ldr	r3, [r7]
	mov	r0, r7
	ldr	r3, [r3, #8]
	blx	r3
	mcr	p15, 0, r0, c7, c10, 5
	ldr	r2, [r7, #32]
	sub	r3, r2, #1
	str	r3, [r7, #32]
	b	.L661
.L675:
	ldr	r3, [r7]
	mov	r0, r7
	ldr	r3, [r3, #8]
	blx	r3
	add	r3, r7, #32
	mcr	p15, 0, r0, c7, c10, 5
	mcr	p15, 0, r0, c7, c10, 5
.L669:
	ldrex	r2, [r3]
	sub	r1, r2, #1
	strex	r0, r1, [r3]
	cmp	r0, #0
	bne	.L669
	mcr	p15, 0, r0, c7, c10, 5
.L661:
	cmp	r2, #1
	bne	.L654
	ldr	r3, [r7]
	mov	r0, r7
	ldr	r3, [r3, #12]
	blx	r3
	b	.L654
.L678:
	.align	2
.L677:
	.word	_GLOBAL_OFFSET_TABLE_-(.LPIC30+8)
	.word	_ZL28__gthrw___pthread_key_createPjPFvPvE(GOT)
	.word	_ZN8opendnp312NullTaskLock7ReleaseERNS_17IScheduleCallbackE(GOT)
	.word	_ZN8opendnp318IMasterApplication7OnCloseEv(GOT)
	.fnend
	.size	_ZN8opendnp38MContext16OnLowerLayerDownEv, .-_ZN8opendnp38MContext16OnLowerLayerDownEv
	.section	.text._ZN7openpal6LoggerD2Ev,"axG",%progbits,_ZN7openpal6LoggerD5Ev,comdat
	.align	2
	.weak	_ZN7openpal6LoggerD2Ev
	.syntax unified
	.arm
	.fpu vfp
	.type	_ZN7openpal6LoggerD2Ev, %function
_ZN7openpal6LoggerD2Ev:
	.fnstart
.LFB1998:
	@ args = 0, pretend = 0, frame = 0
	@ frame_needed = 0, uses_anonymous_args = 0
	push	{r4, r5, r6, lr}
	mov	r4, r0
	ldr	r5, [r0, #12]
	ldr	r6, .L706
	cmp	r5, #0
.LPIC31:
	add	r6, pc, r6
	beq	.L681
	ldr	r3, .L706+4
	ldr	r3, [r6, r3]
	cmp	r3, #0
	beq	.L682
	add	r3, r5, #28
	mcr	p15, 0, r0, c7, c10, 5
.L698:
	ldrex	r2, [r3]
	sub	r1, r2, #1
	strex	r0, r1, [r3]
	cmp	r0, #0
	bne	.L698
	cmp	r2, #1
	mcr	p15, 0, r0, c7, c10, 5
	beq	.L704
.L681:
	ldr	r5, [r4, #4]
	cmp	r5, #0
	beq	.L694
	ldr	r3, .L706+4
	ldr	r3, [r6, r3]
	cmp	r3, #0
	beq	.L688
	add	r3, r5, #28
	mcr	p15, 0, r0, c7, c10, 5
.L697:
	ldrex	r2, [r3]
	sub	r1, r2, #1
	strex	r0, r1, [r3]
	cmp	r0, #0
	bne	.L697
	cmp	r2, #1
	mcr	p15, 0, r0, c7, c10, 5
	beq	.L705
.L694:
	mov	r0, r4
	pop	{r4, r5, r6, pc}
.L682:
	ldr	r3, [r5, #28]
	cmp	r3, #1
	sub	r3, r3, #1
	str	r3, [r5, #28]
	bne	.L681
	ldr	r3, [r5]
	mov	r0, r5
	ldr	r3, [r3, #8]
	blx	r3
	mcr	p15, 0, r0, c7, c10, 5
	ldr	r2, [r5, #32]
	sub	r3, r2, #1
	str	r3, [r5, #32]
	b	.L692
.L688:
	ldr	r3, [r5, #28]
	cmp	r3, #1
	sub	r3, r3, #1
	str	r3, [r5, #28]
	bne	.L694
	ldr	r3, [r5]
	mov	r0, r5
	ldr	r3, [r3, #8]
	blx	r3
	mcr	p15, 0, r0, c7, c10, 5
	ldr	r2, [r5, #32]
	sub	r3, r2, #1
	str	r3, [r5, #32]
	b	.L693
.L705:
	ldr	r3, [r5]
	mov	r0, r5
	ldr	r3, [r3, #8]
	blx	r3
	add	r3, r5, #32
	mcr	p15, 0, r0, c7, c10, 5
	mcr	p15, 0, r0, c7, c10, 5
.L695:
	ldrex	r2, [r3]
	sub	r1, r2, #1
	strex	r0, r1, [r3]
	cmp	r0, #0
	bne	.L695
	mcr	p15, 0, r0, c7, c10, 5
.L693:
	cmp	r2, #1
	bne	.L694
	ldr	r3, [r5]
	mov	r0, r5
	ldr	r3, [r3, #12]
	blx	r3
	b	.L694
.L704:
	ldr	r3, [r5]
	mov	r0, r5
	ldr	r3, [r3, #8]
	blx	r3
	add	r3, r5, #32
	mcr	p15, 0, r0, c7, c10, 5
	mcr	p15, 0, r0, c7, c10, 5
.L696:
	ldrex	r2, [r3]
	sub	r1, r2, #1
	strex	r0, r1, [r3]
	cmp	r0, #0
	bne	.L696
	mcr	p15, 0, r0, c7, c10, 5
.L692:
	cmp	r2, #1
	bne	.L681
	ldr	r3, [r5]
	mov	r0, r5
	ldr	r3, [r3, #12]
	blx	r3
	b	.L681
.L707:
	.align	2
.L706:
	.word	_GLOBAL_OFFSET_TABLE_-(.LPIC31+8)
	.word	_ZL28__gthrw___pthread_key_createPjPFvPvE(GOT)
	.cantunwind
	.fnend
	.size	_ZN7openpal6LoggerD2Ev, .-_ZN7openpal6LoggerD2Ev
	.weak	_ZN7openpal6LoggerD1Ev
	.set	_ZN7openpal6LoggerD1Ev,_ZN7openpal6LoggerD2Ev
	.section	.text._ZN8opendnp311MasterTasksD2Ev,"axG",%progbits,_ZN8opendnp311MasterTasksD5Ev,comdat
	.align	2
	.weak	_ZN8opendnp311MasterTasksD2Ev
	.syntax unified
	.arm
	.fpu vfp
	.type	_ZN8opendnp311MasterTasksD2Ev, %function
_ZN8opendnp311MasterTasksD2Ev:
	.fnstart
.LFB3238:
	@ args = 0, pretend = 0, frame = 0
	@ frame_needed = 0, uses_anonymous_args = 0
	push	{r4, r5, r6, r7, r8, lr}
	mov	r8, r0
	ldr	r4, [r0, #56]
	ldr	r6, [r0, #60]
	ldr	r7, .L817
	cmp	r4, r6
.LPIC32:
	add	r7, pc, r7
	bne	.L716
	b	.L709
.L808:
	add	r3, r5, #28
	mcr	p15, 0, r0, c7, c10, 5
.L788:
	ldrex	r2, [r3]
	sub	r1, r2, #1
	strex	r0, r1, [r3]
	cmp	r0, #0
	bne	.L788
	cmp	r2, #1
	mcr	p15, 0, r0, c7, c10, 5
	beq	.L806
.L711:
	add	r4, r4, #8
	cmp	r6, r4
	beq	.L807
.L716:
	ldr	r5, [r4, #4]
	cmp	r5, #0
	beq	.L711
	ldr	r3, .L817+4
	ldr	r3, [r7, r3]
	cmp	r3, #0
	bne	.L808
	ldr	r3, [r5, #28]
	cmp	r3, #1
	sub	r3, r3, #1
	str	r3, [r5, #28]
	bne	.L711
	ldr	r3, [r5]
	mov	r0, r5
	ldr	r3, [r3, #8]
	blx	r3
	mcr	p15, 0, r0, c7, c10, 5
	ldr	r2, [r5, #32]
	sub	r3, r2, #1
	cmp	r2, #1
	str	r3, [r5, #32]
	bne	.L711
	ldr	r3, [r5]
	mov	r0, r5
	ldr	r3, [r3, #12]
	blx	r3
.L816:
	add	r4, r4, #8
	cmp	r6, r4
	bne	.L716
.L807:
	ldr	r6, [r8, #56]
.L709:
	cmp	r6, #0
	beq	.L717
	mov	r0, r6
	bl	_ZdlPv(PLT)
.L717:
	ldr	r4, [r8, #52]
	cmp	r4, #0
	beq	.L719
	ldr	r3, .L817+4
	ldr	r3, [r7, r3]
	cmp	r3, #0
	beq	.L720
	add	r3, r4, #28
	mcr	p15, 0, r0, c7, c10, 5
.L787:
	ldrex	r2, [r3]
	sub	r1, r2, #1
	strex	r0, r1, [r3]
	cmp	r0, #0
	bne	.L787
	cmp	r2, #1
	mcr	p15, 0, r0, c7, c10, 5
	beq	.L809
.L719:
	ldr	r4, [r8, #44]
	cmp	r4, #0
	beq	.L725
	ldr	r3, .L817+4
	ldr	r3, [r7, r3]
	cmp	r3, #0
	beq	.L726
	add	r3, r4, #28
	mcr	p15, 0, r0, c7, c10, 5
.L786:
	ldrex	r2, [r3]
	sub	r1, r2, #1
	strex	r0, r1, [r3]
	cmp	r0, #0
	bne	.L786
	cmp	r2, #1
	mcr	p15, 0, r0, c7, c10, 5
	beq	.L810
.L725:
	ldr	r4, [r8, #36]
	cmp	r4, #0
	beq	.L731
	ldr	r3, .L817+4
	ldr	r3, [r7, r3]
	cmp	r3, #0
	beq	.L732
	add	r3, r4, #28
	mcr	p15, 0, r0, c7, c10, 5
.L785:
	ldrex	r2, [r3]
	sub	r1, r2, #1
	strex	r0, r1, [r3]
	cmp	r0, #0
	bne	.L785
	cmp	r2, #1
	mcr	p15, 0, r0, c7, c10, 5
	beq	.L811
.L731:
	ldr	r4, [r8, #28]
	cmp	r4, #0
	beq	.L737
	ldr	r3, .L817+4
	ldr	r3, [r7, r3]
	cmp	r3, #0
	beq	.L738
	add	r3, r4, #28
	mcr	p15, 0, r0, c7, c10, 5
.L784:
	ldrex	r2, [r3]
	sub	r1, r2, #1
	strex	r0, r1, [r3]
	cmp	r0, #0
	bne	.L784
	cmp	r2, #1
	mcr	p15, 0, r0, c7, c10, 5
	beq	.L812
.L737:
	ldr	r4, [r8, #20]
	cmp	r4, #0
	beq	.L743
	ldr	r3, .L817+4
	ldr	r3, [r7, r3]
	cmp	r3, #0
	beq	.L744
	add	r3, r4, #28
	mcr	p15, 0, r0, c7, c10, 5
.L783:
	ldrex	r2, [r3]
	sub	r1, r2, #1
	strex	r0, r1, [r3]
	cmp	r0, #0
	bne	.L783
	cmp	r2, #1
	mcr	p15, 0, r0, c7, c10, 5
	beq	.L813
.L743:
	ldr	r4, [r8, #12]
	cmp	r4, #0
	beq	.L749
	ldr	r3, .L817+4
	ldr	r3, [r7, r3]
	cmp	r3, #0
	beq	.L750
	add	r3, r4, #28
	mcr	p15, 0, r0, c7, c10, 5
.L782:
	ldrex	r2, [r3]
	sub	r1, r2, #1
	strex	r0, r1, [r3]
	cmp	r0, #0
	bne	.L782
	cmp	r2, #1
	mcr	p15, 0, r0, c7, c10, 5
	beq	.L814
.L749:
	ldr	r4, [r8, #4]
	cmp	r4, #0
	beq	.L769
	ldr	r3, .L817+4
	ldr	r3, [r7, r3]
	cmp	r3, #0
	beq	.L756
	add	r3, r4, #28
	mcr	p15, 0, r0, c7, c10, 5
.L781:
	ldrex	r2, [r3]
	sub	r1, r2, #1
	strex	r0, r1, [r3]
	cmp	r0, #0
	bne	.L781
	cmp	r2, #1
	mcr	p15, 0, r0, c7, c10, 5
	beq	.L815
.L769:
	mov	r0, r8
	pop	{r4, r5, r6, r7, r8, pc}
.L806:
	ldr	r3, [r5]
	mov	r0, r5
	ldr	r3, [r3, #8]
	blx	r3
	add	r3, r5, #32
	mcr	p15, 0, r0, c7, c10, 5
	mcr	p15, 0, r0, c7, c10, 5
.L780:
	ldrex	r2, [r3]
	sub	r1, r2, #1
	strex	r0, r1, [r3]
	cmp	r0, #0
	bne	.L780
	cmp	r2, #1
	mcr	p15, 0, r0, c7, c10, 5
	bne	.L711
	ldr	r3, [r5]
	mov	r0, r5
	ldr	r3, [r3, #12]
	blx	r3
	b	.L816
.L720:
	ldr	r3, [r4, #28]
	cmp	r3, #1
	sub	r3, r3, #1
	str	r3, [r4, #28]
	bne	.L719
	ldr	r3, [r4]
	mov	r0, r4
	ldr	r3, [r3, #8]
	blx	r3
	mcr	p15, 0, r0, c7, c10, 5
	ldr	r2, [r4, #32]
	sub	r3, r2, #1
	str	r3, [r4, #32]
	b	.L761
.L750:
	ldr	r3, [r4, #28]
	cmp	r3, #1
	sub	r3, r3, #1
	str	r3, [r4, #28]
	bne	.L749
	ldr	r3, [r4]
	mov	r0, r4
	ldr	r3, [r3, #8]
	blx	r3
	mcr	p15, 0, r0, c7, c10, 5
	ldr	r2, [r4, #32]
	sub	r3, r2, #1
	str	r3, [r4, #32]
	b	.L766
.L732:
	ldr	r3, [r4, #28]
	cmp	r3, #1
	sub	r3, r3, #1
	str	r3, [r4, #28]
	bne	.L731
	ldr	r3, [r4]
	mov	r0, r4
	ldr	r3, [r3, #8]
	blx	r3
	mcr	p15, 0, r0, c7, c10, 5
	ldr	r2, [r4, #32]
	sub	r3, r2, #1
	str	r3, [r4, #32]
	b	.L763
.L726:
	ldr	r3, [r4, #28]
	cmp	r3, #1
	sub	r3, r3, #1
	str	r3, [r4, #28]
	bne	.L725
	ldr	r3, [r4]
	mov	r0, r4
	ldr	r3, [r3, #8]
	blx	r3
	mcr	p15, 0, r0, c7, c10, 5
	ldr	r2, [r4, #32]
	sub	r3, r2, #1
	str	r3, [r4, #32]
	b	.L762
.L744:
	ldr	r3, [r4, #28]
	cmp	r3, #1
	sub	r3, r3, #1
	str	r3, [r4, #28]
	bne	.L743
	ldr	r3, [r4]
	mov	r0, r4
	ldr	r3, [r3, #8]
	blx	r3
	mcr	p15, 0, r0, c7, c10, 5
	ldr	r2, [r4, #32]
	sub	r3, r2, #1
	str	r3, [r4, #32]
	b	.L765
.L738:
	ldr	r3, [r4, #28]
	cmp	r3, #1
	sub	r3, r3, #1
	str	r3, [r4, #28]
	bne	.L737
	ldr	r3, [r4]
	mov	r0, r4
	ldr	r3, [r3, #8]
	blx	r3
	mcr	p15, 0, r0, c7, c10, 5
	ldr	r2, [r4, #32]
	sub	r3, r2, #1
	str	r3, [r4, #32]
	b	.L764
.L756:
	ldr	r3, [r4, #28]
	cmp	r3, #1
	sub	r3, r3, #1
	str	r3, [r4, #28]
	bne	.L769
	ldr	r3, [r4]
	mov	r0, r4
	ldr	r3, [r3, #8]
	blx	r3
	mcr	p15, 0, r0, c7, c10, 5
	ldr	r2, [r4, #32]
	sub	r3, r2, #1
	str	r3, [r4, #32]
	b	.L767
.L815:
	ldr	r3, [r4]
	mov	r0, r4
	ldr	r3, [r3, #8]
	blx	r3
	add	r3, r4, #32
	mcr	p15, 0, r0, c7, c10, 5
	mcr	p15, 0, r0, c7, c10, 5
.L773:
	ldrex	r2, [r3]
	sub	r1, r2, #1
	strex	r0, r1, [r3]
	cmp	r0, #0
	bne	.L773
	mcr	p15, 0, r0, c7, c10, 5
.L767:
	cmp	r2, #1
	bne	.L769
	ldr	r3, [r4]
	mov	r0, r4
	ldr	r3, [r3, #12]
	blx	r3
	b	.L769
.L809:
	ldr	r3, [r4]
	mov	r0, r4
	ldr	r3, [r3, #8]
	blx	r3
	add	r3, r4, #32
	mcr	p15, 0, r0, c7, c10, 5
	mcr	p15, 0, r0, c7, c10, 5
.L779:
	ldrex	r2, [r3]
	sub	r1, r2, #1
	strex	r0, r1, [r3]
	cmp	r0, #0
	bne	.L779
	mcr	p15, 0, r0, c7, c10, 5
.L761:
	cmp	r2, #1
	bne	.L719
	ldr	r3, [r4]
	mov	r0, r4
	ldr	r3, [r3, #12]
	blx	r3
	b	.L719
.L810:
	ldr	r3, [r4]
	mov	r0, r4
	ldr	r3, [r3, #8]
	blx	r3
	add	r3, r4, #32
	mcr	p15, 0, r0, c7, c10, 5
	mcr	p15, 0, r0, c7, c10, 5
.L778:
	ldrex	r2, [r3]
	sub	r1, r2, #1
	strex	r0, r1, [r3]
	cmp	r0, #0
	bne	.L778
	mcr	p15, 0, r0, c7, c10, 5
.L762:
	cmp	r2, #1
	bne	.L725
	ldr	r3, [r4]
	mov	r0, r4
	ldr	r3, [r3, #12]
	blx	r3
	b	.L725
.L811:
	ldr	r3, [r4]
	mov	r0, r4
	ldr	r3, [r3, #8]
	blx	r3
	add	r3, r4, #32
	mcr	p15, 0, r0, c7, c10, 5
	mcr	p15, 0, r0, c7, c10, 5
.L777:
	ldrex	r2, [r3]
	sub	r1, r2, #1
	strex	r0, r1, [r3]
	cmp	r0, #0
	bne	.L777
	mcr	p15, 0, r0, c7, c10, 5
.L763:
	cmp	r2, #1
	bne	.L731
	ldr	r3, [r4]
	mov	r0, r4
	ldr	r3, [r3, #12]
	blx	r3
	b	.L731
.L812:
	ldr	r3, [r4]
	mov	r0, r4
	ldr	r3, [r3, #8]
	blx	r3
	add	r3, r4, #32
	mcr	p15, 0, r0, c7, c10, 5
	mcr	p15, 0, r0, c7, c10, 5
.L776:
	ldrex	r2, [r3]
	sub	r1, r2, #1
	strex	r0, r1, [r3]
	cmp	r0, #0
	bne	.L776
	mcr	p15, 0, r0, c7, c10, 5
.L764:
	cmp	r2, #1
	bne	.L737
	ldr	r3, [r4]
	mov	r0, r4
	ldr	r3, [r3, #12]
	blx	r3
	b	.L737
.L813:
	ldr	r3, [r4]
	mov	r0, r4
	ldr	r3, [r3, #8]
	blx	r3
	add	r3, r4, #32
	mcr	p15, 0, r0, c7, c10, 5
	mcr	p15, 0, r0, c7, c10, 5
.L775:
	ldrex	r2, [r3]
	sub	r1, r2, #1
	strex	r0, r1, [r3]
	cmp	r0, #0
	bne	.L775
	mcr	p15, 0, r0, c7, c10, 5
.L765:
	cmp	r2, #1
	bne	.L743
	ldr	r3, [r4]
	mov	r0, r4
	ldr	r3, [r3, #12]
	blx	r3
	b	.L743
.L814:
	ldr	r3, [r4]
	mov	r0, r4
	ldr	r3, [r3, #8]
	blx	r3
	add	r3, r4, #32
	mcr	p15, 0, r0, c7, c10, 5
	mcr	p15, 0, r0, c7, c10, 5
.L774:
	ldrex	r2, [r3]
	sub	r1, r2, #1
	strex	r0, r1, [r3]
	cmp	r0, #0
	bne	.L774
	mcr	p15, 0, r0, c7, c10, 5
.L766:
	cmp	r2, #1
	bne	.L749
	ldr	r3, [r4]
	mov	r0, r4
	ldr	r3, [r3, #12]
	blx	r3
	b	.L749
.L818:
	.align	2
.L817:
	.word	_GLOBAL_OFFSET_TABLE_-(.LPIC32+8)
	.word	_ZL28__gthrw___pthread_key_createPjPFvPvE(GOT)
	.cantunwind
	.fnend
	.size	_ZN8opendnp311MasterTasksD2Ev, .-_ZN8opendnp311MasterTasksD2Ev
	.weak	_ZN8opendnp311MasterTasksD1Ev
	.set	_ZN8opendnp311MasterTasksD1Ev,_ZN8opendnp311MasterTasksD2Ev
	.text
	.align	2
	.global	_ZN8opendnp38MContext10ProcessIINERKNS_8IINFieldE
	.syntax unified
	.arm
	.fpu vfp
	.type	_ZN8opendnp38MContext10ProcessIINERKNS_8IINFieldE, %function
_ZN8opendnp38MContext10ProcessIINERKNS_8IINFieldE:
	.fnstart
.LFB3258:
	@ args = 0, pretend = 0, frame = 0
	@ frame_needed = 0, uses_anonymous_args = 0
	push	{r4, r5, r6, lr}
	.save {r4, r5, r6, lr}
	mov	r5, r1
	mov	r4, r0
	mov	r1, #7
	mov	r0, r5
	bl	_ZNK8opendnp38IINField5IsSetENS_6IINBitE(PLT)
	ldr	r6, .L847
.LPIC33:
	add	r6, pc, r6
	cmp	r0, #0
	beq	.L820
	ldrb	r3, [r4, #58]	@ zero_extendqisi2
	cmp	r3, #0
	beq	.L821
.L820:
	mov	r1, #11
	mov	r0, r5
	bl	_ZNK8opendnp38IINField5IsSetENS_6IINBitE(PLT)
	cmp	r0, #0
	beq	.L822
	ldrb	r3, [r4, #61]	@ zero_extendqisi2
	cmp	r3, #0
	bne	.L823
.L822:
	mov	r1, #4
	mov	r0, r5
	bl	_ZNK8opendnp38IINField5IsSetENS_6IINBitE(PLT)
	cmp	r0, #0
	beq	.L824
	ldrb	r3, [r4, #56]	@ zero_extendqisi2
	cmp	r3, #1
	beq	.L846
.L824:
	mov	r1, #1
	mov	r0, r5
	bl	_ZNK8opendnp38IINField5IsSetENS_6IINBitE(PLT)
	cmp	r0, #0
	beq	.L830
	add	r0, r4, #62
	bl	_ZNK8opendnp310ClassField9HasClass1Ev(PLT)
	cmp	r0, #0
	beq	.L830
.L829:
	ldr	r0, [r4, #192]
	bl	_ZN8opendnp311IMasterTask6DemandEv(PLT)
.L833:
	ldr	r0, [r4, #96]
	ldr	r3, .L847+4
	ldr	r1, [r0]
	ldr	r2, [r6, r3]
	ldr	r3, [r1, #24]
	cmp	r3, r2
	popeq	{r4, r5, r6, pc}
	mov	r1, r5
	pop	{r4, r5, r6, lr}
	bx	r3	@ indirect register sibling call
.L830:
	mov	r1, #2
	mov	r0, r5
	bl	_ZNK8opendnp38IINField5IsSetENS_6IINBitE(PLT)
	cmp	r0, #0
	beq	.L828
	add	r0, r4, #62
	bl	_ZNK8opendnp310ClassField9HasClass2Ev(PLT)
	cmp	r0, #0
	bne	.L829
.L828:
	mov	r1, #3
	mov	r0, r5
	bl	_ZNK8opendnp38IINField5IsSetENS_6IINBitE(PLT)
	cmp	r0, #0
	beq	.L833
	add	r0, r4, #62
	bl	_ZNK8opendnp310ClassField9HasClass3Ev(PLT)
	cmp	r0, #0
	bne	.L829
	b	.L833
.L823:
	ldr	r0, [r4, #168]
	bl	_ZN8opendnp311IMasterTask6DemandEv(PLT)
	b	.L822
.L821:
	ldr	r0, [r4, #152]
	bl	_ZN8opendnp311IMasterTask6DemandEv(PLT)
	ldr	r0, [r4, #160]
	bl	_ZN8opendnp311IMasterTask6DemandEv(PLT)
	ldr	r0, [r4, #168]
	bl	_ZN8opendnp311IMasterTask6DemandEv(PLT)
	ldr	r0, [r4, #144]
	bl	_ZN8opendnp311IMasterTask6DemandEv(PLT)
	b	.L820
.L846:
	ldr	r0, [r4, #184]
	bl	_ZN8opendnp311IMasterTask6DemandEv(PLT)
	b	.L824
.L848:
	.align	2
.L847:
	.word	_GLOBAL_OFFSET_TABLE_-(.LPIC33+8)
	.word	_ZN8opendnp318IMasterApplication12OnReceiveIINERKNS_8IINFieldE(GOT)
	.fnend
	.size	_ZN8opendnp38MContext10ProcessIINERKNS_8IINFieldE, .-_ZN8opendnp38MContext10ProcessIINERKNS_8IINFieldE
	.align	2
	.global	_ZN8opendnp38MContext8TransmitERKN7openpal6RSliceE
	.syntax unified
	.arm
	.fpu vfp
	.type	_ZN8opendnp38MContext8TransmitERKN7openpal6RSliceE, %function
_ZN8opendnp38MContext8TransmitERKN7openpal6RSliceE:
	.fnstart
.LFB3263:
	@ args = 0, pretend = 0, frame = 16
	@ frame_needed = 0, uses_anonymous_args = 0
	ldr	r3, [r0, #16]
	ldr	r2, [r0, #12]
	push	{r4, r5, r6, r7, lr}
	.save {r4, r5, r6, r7, lr}
	.pad #20
	sub	sp, sp, #20
	ldr	r5, .L894
	cmp	r3, #0
	stm	sp, {r2, r3}
	mov	r4, r0
	mov	r6, r1
.LPIC34:
	add	r5, pc, r5
	beq	.L850
	ldr	r2, .L894+4
	ldr	r2, [r5, r2]
	cmp	r2, #0
	beq	.L851
	add	r3, r3, #28
	mcr	p15, 0, r0, c7, c10, 5
.L885:
	ldrex	r2, [r3]
	add	r2, r2, #1
	strex	r1, r2, [r3]
	cmp	r1, #0
	bne	.L885
	mcr	p15, 0, r0, c7, c10, 5
	ldr	r2, [r4, #24]
	ldr	r3, [r4, #20]
	cmp	r2, #0
	str	r3, [sp, #8]
	str	r2, [sp, #12]
	beq	.L853
.L887:
	add	r2, r2, #28
	mcr	p15, 0, r0, c7, c10, 5
.L884:
	ldrex	r3, [r2]
	add	r3, r3, #1
	strex	r1, r3, [r2]
	cmp	r1, #0
	bne	.L884
	mcr	p15, 0, r0, c7, c10, 5
.L853:
	mov	r0, sp
	mov	r1, r6
	mov	r7, sp
.LEHB2:
	bl	_ZN8opendnp37logging20ParseAndLogRequestTxEN7openpal6LoggerERKNS1_6RSliceE(PLT)
.LEHE2:
	ldr	r7, [sp, #12]
	cmp	r7, #0
	beq	.L857
	ldr	r3, .L894+4
	ldr	r3, [r5, r3]
	cmp	r3, #0
	beq	.L858
	add	r3, r7, #28
	mcr	p15, 0, r0, c7, c10, 5
.L883:
	ldrex	r2, [r3]
	sub	r1, r2, #1
	strex	r0, r1, [r3]
	cmp	r0, #0
	bne	.L883
	cmp	r2, #1
	mcr	p15, 0, r0, c7, c10, 5
	beq	.L892
.L857:
	ldr	r7, [sp, #4]
	cmp	r7, #0
	beq	.L863
	ldr	r3, .L894+4
	ldr	r3, [r5, r3]
	cmp	r3, #0
	beq	.L864
	add	r3, r7, #28
	mcr	p15, 0, r0, c7, c10, 5
.L882:
	ldrex	r2, [r3]
	sub	r1, r2, #1
	strex	r0, r1, [r3]
	cmp	r0, #0
	bne	.L882
	cmp	r2, #1
	mcr	p15, 0, r0, c7, c10, 5
	beq	.L893
.L863:
	ldr	r0, [r4, #36]
	mov	r2, #1
	mov	r1, r6
	ldr	r3, [r0]
	strb	r2, [r4, #109]
	ldr	r3, [r3, #8]
.LEHB3:
	blx	r3
	add	sp, sp, #20
	@ sp needed
	pop	{r4, r5, r6, r7, pc}
.L858:
	ldr	r3, [r7, #28]
	cmp	r3, #1
	sub	r3, r3, #1
	str	r3, [r7, #28]
	bne	.L857
	ldr	r3, [r7]
	mov	r0, r7
	ldr	r3, [r3, #8]
	blx	r3
	mcr	p15, 0, r0, c7, c10, 5
	ldr	r2, [r7, #32]
	sub	r3, r2, #1
	str	r3, [r7, #32]
	b	.L870
.L851:
	ldr	r2, [r0, #24]
	ldr	r1, [r3, #28]
	ldr	r0, [r0, #20]
	add	r1, r1, #1
	cmp	r2, #0
	str	r1, [r3, #28]
	str	r2, [sp, #12]
	str	r0, [sp, #8]
	beq	.L853
.L854:
	ldr	r3, [r2, #28]
	add	r3, r3, #1
	str	r3, [r2, #28]
	b	.L853
.L864:
	ldr	r3, [r7, #28]
	cmp	r3, #1
	sub	r3, r3, #1
	str	r3, [r7, #28]
	bne	.L863
	ldr	r3, [r7]
	mov	r0, r7
	ldr	r3, [r3, #8]
	blx	r3
	mcr	p15, 0, r0, c7, c10, 5
	ldr	r2, [r7, #32]
	sub	r3, r2, #1
	str	r3, [r7, #32]
	b	.L871
.L893:
	ldr	r3, [r7]
	mov	r0, r7
	ldr	r3, [r3, #8]
	blx	r3
	add	r3, r7, #32
	mcr	p15, 0, r0, c7, c10, 5
	mcr	p15, 0, r0, c7, c10, 5
.L880:
	ldrex	r2, [r3]
	sub	r1, r2, #1
	strex	r0, r1, [r3]
	cmp	r0, #0
	bne	.L880
	mcr	p15, 0, r0, c7, c10, 5
.L871:
	cmp	r2, #1
	bne	.L863
	ldr	r3, [r7]
	mov	r0, r7
	ldr	r3, [r3, #12]
	blx	r3
	b	.L863
.L892:
	ldr	r3, [r7]
	mov	r0, r7
	ldr	r3, [r3, #8]
	blx	r3
	add	r3, r7, #32
	mcr	p15, 0, r0, c7, c10, 5
	mcr	p15, 0, r0, c7, c10, 5
.L881:
	ldrex	r2, [r3]
	sub	r1, r2, #1
	strex	r0, r1, [r3]
	cmp	r0, #0
	bne	.L881
	mcr	p15, 0, r0, c7, c10, 5
.L870:
	cmp	r2, #1
	bne	.L857
	ldr	r3, [r7]
	mov	r0, r7
	ldr	r3, [r3, #12]
	blx	r3
	b	.L857
.L850:
	ldr	r2, [r0, #24]
	ldr	r3, [r0, #20]
	cmp	r2, #0
	str	r2, [sp, #12]
	str	r3, [sp, #8]
	beq	.L853
	ldr	r3, .L894+4
	ldr	r3, [r5, r3]
	cmp	r3, #0
	bne	.L887
	b	.L854
.L872:
	mov	r0, r7
	bl	_ZN7openpal6LoggerD1Ev(PLT)
	bl	__cxa_end_cleanup(PLT)
.LEHE3:
.L895:
	.align	2
.L894:
	.word	_GLOBAL_OFFSET_TABLE_-(.LPIC34+8)
	.word	_ZL28__gthrw___pthread_key_createPjPFvPvE(GOT)
	.personality	__gxx_personality_v0
	.handlerdata
.LLSDA3263:
	.byte	0xff
	.byte	0xff
	.byte	0x1
	.uleb128 .LLSDACSE3263-.LLSDACSB3263
.LLSDACSB3263:
	.uleb128 .LEHB2-.LFB3263
	.uleb128 .LEHE2-.LEHB2
	.uleb128 .L872-.LFB3263
	.uleb128 0
	.uleb128 .LEHB3-.LFB3263
	.uleb128 .LEHE3-.LEHB3
	.uleb128 0
	.uleb128 0
.LLSDACSE3263:
	.text
	.fnend
	.size	_ZN8opendnp38MContext8TransmitERKN7openpal6RSliceE, .-_ZN8opendnp38MContext8TransmitERKN7openpal6RSliceE
	.align	2
	.global	_ZN8opendnp38MContext20CheckConfirmTransmitEv
	.syntax unified
	.arm
	.fpu vfp
	.type	_ZN8opendnp38MContext20CheckConfirmTransmitEv, %function
_ZN8opendnp38MContext20CheckConfirmTransmitEv:
	.fnstart
.LFB3262:
	@ args = 0, pretend = 0, frame = 40
	@ frame_needed = 0, uses_anonymous_args = 0
	ldrb	r3, [r0, #109]	@ zero_extendqisi2
	cmp	r3, #0
	bne	.L902
	ldr	r2, [r0, #236]
	ldr	r1, [r0, #252]
	cmp	r2, r1
	beq	.L907
	push	{r4, r5, r6, r7, lr}
	.save {r4, r5, r6, r7, lr}
	mov	r4, r0
	.pad #44
	sub	sp, sp, #44
	ldr	r0, [r2]	@ unaligned
	ldrh	r3, [r2, #4]	@ unaligned
	ldrb	r7, [r2]	@ zero_extendqisi2
	add	r5, sp, #12
	add	r6, sp, #20
	str	r0, [sp, #4]
	add	r1, r4, #268
	mov	r0, r5
	strh	r3, [sp, #8]	@ unaligned
	bl	_ZN7openpal6Buffer9GetWSliceEv(PLT)
	mov	r1, r5
	mov	r0, r6
	bl	_ZN8opendnp311APDUWrapperC1ERKN7openpal6WSliceE(PLT)
	mov	r1, r7
	mov	r0, r6
	bl	_ZN8opendnp311APDUWrapper11SetFunctionENS_12FunctionCodeE(PLT)
	ldrb	r0, [sp, #6]	@ zero_extendqisi2
	ldrb	r2, [sp, #7]	@ zero_extendqisi2
	ldrb	r3, [sp, #5]	@ zero_extendqisi2
	ldrb	r1, [sp, #8]	@ zero_extendqisi2
	orr	r3, r3, r0, lsl #8
	orr	r3, r3, r2, lsl #16
	orr	r1, r3, r1, lsl #24
	ldrb	r2, [sp, #9]	@ zero_extendqisi2
	mov	r0, r6
	bl	_ZN8opendnp311APDUWrapper10SetControlENS_15AppControlFieldE(PLT)
	mov	r1, r6
	mov	r0, r5
	bl	_ZNK8opendnp311APDUWrapper8ToRSliceEv(PLT)
	mov	r1, r5
	mov	r0, r4
	bl	_ZN8opendnp38MContext8TransmitERKN7openpal6RSliceE(PLT)
	ldr	r2, [r4, #244]
	ldr	r3, [r4, #236]
	sub	r2, r2, #6
	cmp	r3, r2
	addne	r3, r3, #6
	strne	r3, [r4, #236]
	beq	.L910
.L899:
	mov	r3, #1
	mov	r0, r3
	add	sp, sp, #44
	@ sp needed
	pop	{r4, r5, r6, r7, pc}
.L902:
	mov	r3, #0
.L907:
	mov	r0, r3
	bx	lr
.L910:
	ldr	r0, [r4, #240]
	bl	_ZdlPv(PLT)
	ldr	r3, [r4, #248]
	add	r1, r3, #4
	ldr	r2, [r3, #4]
	str	r1, [r4, #248]
	add	r3, r2, #508
	add	r3, r3, #2
	str	r2, [r4, #240]
	str	r2, [r4, #236]
	str	r3, [r4, #244]
	b	.L899
	.fnend
	.size	_ZN8opendnp38MContext20CheckConfirmTransmitEv, .-_ZN8opendnp38MContext20CheckConfirmTransmitEv
	.align	2
	.global	_ZN8opendnp38MContext12QueueConfirmERKNS_10APDUHeaderE
	.syntax unified
	.arm
	.fpu vfp
	.type	_ZN8opendnp38MContext12QueueConfirmERKNS_10APDUHeaderE, %function
_ZN8opendnp38MContext12QueueConfirmERKNS_10APDUHeaderE:
	.fnstart
.LFB3261:
	@ args = 0, pretend = 0, frame = 0
	@ frame_needed = 0, uses_anonymous_args = 0
	ldr	r2, [r0, #260]
	ldr	r3, [r0, #252]
	sub	r2, r2, #6
	cmp	r3, r2
	push	{r4, r5, r6, r7, r8, r9, r10, lr}
	.save {r4, r5, r6, r7, r8, r9, r10, lr}
	mov	r4, r0
	mov	r5, r1
	beq	.L912
	cmp	r3, #0
	add	r3, r3, #6
	ldrne	r2, [r1]	@ unaligned
	strne	r2, [r3, #-6]	@ unaligned
	ldrhne	r2, [r1, #4]	@ unaligned
	strhne	r2, [r3, #-2]	@ unaligned
	str	r3, [r0, #252]
.L914:
	mov	r0, r4
	pop	{r4, r5, r6, r7, r8, r9, r10, lr}
	b	_ZN8opendnp38MContext20CheckConfirmTransmitEv(PLT)
.L912:
	ldr	r6, [r0, #264]
	ldr	r9, [r0, #228]
	ldr	r2, [r0, #232]
	sub	r3, r6, r9
	sub	r3, r2, r3, asr #2
	cmp	r3, #1
	bls	.L939
.L915:
	ldr	r0, .L942
	bl	_Znwj(PLT)
	str	r0, [r6, #4]
	ldr	r3, [r4, #252]
	cmp	r3, #0
	ldrne	r2, [r5]	@ unaligned
	strne	r2, [r3]	@ unaligned
	ldrhne	r2, [r5, #4]	@ unaligned
	strhne	r2, [r3, #4]	@ unaligned
	ldr	r3, [r4, #264]
	add	r1, r3, #4
	ldr	r2, [r3, #4]
	str	r1, [r4, #264]
	add	r3, r2, #508
	add	r3, r3, #2
	str	r2, [r4, #256]
	str	r2, [r4, #252]
	str	r3, [r4, #260]
	b	.L914
.L939:
	ldr	r1, [r0, #248]
	sub	r8, r6, r1
	asr	r8, r8, #2
	add	r8, r8, #1
	add	r10, r8, #1
	cmp	r2, r10, lsl #1
	bls	.L916
	sub	r3, r2, r10
	add	r2, r6, #4
	lsr	r3, r3, #1
	sub	r2, r2, r1
	add	r9, r9, r3, lsl #2
	cmp	r1, r9
	bls	.L917
	lsrs	r3, r2, #2
	beq	.L918
	mov	r0, r9
	bl	memmove(PLT)
.L918:
	ldr	r2, [r9]
	sub	r6, r8, #-1073741823
	add	r3, r2, #508
	add	r3, r3, #2
	str	r3, [r4, #244]
	str	r2, [r4, #240]
	ldr	r2, [r9, r6, lsl #2]
	add	r6, r9, r6, lsl #2
	add	r3, r2, #508
	add	r3, r3, #2
	str	r9, [r4, #248]
	str	r2, [r4, #256]
	str	r3, [r4, #260]
	str	r6, [r4, #264]
	b	.L915
.L916:
	cmp	r2, #0
	beq	.L922
	lsl	r2, r2, #1
	add	r7, r2, #2
	cmn	r7, #-1073741823
	bhi	.L940
.L919:
	lsl	r0, r7, #2
	bl	_Znwj(PLT)
	ldr	r2, [r4, #264]
	sub	r3, r7, r10
	ldr	r1, [r4, #248]
	add	r2, r2, #4
	lsr	r3, r3, #1
	sub	r2, r2, r1
	mov	r6, r0
	lsrs	r0, r2, #2
	add	r9, r6, r3, lsl #2
	bne	.L941
.L920:
	ldr	r0, [r4, #228]
	bl	_ZdlPv(PLT)
	str	r6, [r4, #228]
	str	r7, [r4, #232]
	b	.L918
.L922:
	mov	r7, #3
	b	.L919
.L941:
	mov	r0, r9
	bl	memmove(PLT)
	b	.L920
.L917:
	lsrs	r3, r2, #2
	lsl	r3, r8, #2
	beq	.L918
	sub	r3, r3, r2
	add	r0, r9, r3
	bl	memmove(PLT)
	b	.L918
.L940:
	bl	_ZSt17__throw_bad_allocv(PLT)
.L943:
	.align	2
.L942:
	.word	510
	.fnend
	.size	_ZN8opendnp38MContext12QueueConfirmERKNS_10APDUHeaderE, .-_ZN8opendnp38MContext12QueueConfirmERKNS_10APDUHeaderE
	.align	2
	.global	_ZN8opendnp38MContext26ProcessUnsolicitedResponseERKNS_18APDUResponseHeaderERKN7openpal6RSliceE
	.syntax unified
	.arm
	.fpu vfp
	.type	_ZN8opendnp38MContext26ProcessUnsolicitedResponseERKNS_18APDUResponseHeaderERKN7openpal6RSliceE, %function
_ZN8opendnp38MContext26ProcessUnsolicitedResponseERKNS_18APDUResponseHeaderERKN7openpal6RSliceE:
	.fnstart
.LFB3259:
	@ args = 0, pretend = 0, frame = 8
	@ frame_needed = 0, uses_anonymous_args = 0
	ldrb	r3, [r1, #4]	@ zero_extendqisi2
	push	{r4, r5, r6, lr}
	.save {r4, r5, r6, lr}
	mov	r4, r0
	cmp	r3, #0
	.pad #8
	sub	sp, sp, #8
	bne	.L945
	add	r5, sp, #8
	add	r4, r0, #12
	mov	r6, #4
	str	r6, [r5, #-8]!
	mov	r0, r4
	mov	r1, r5
	bl	_ZNK7openpal6Logger9IsEnabledERKNS_10LogFiltersE(PLT)
	cmp	r0, #0
	bne	.L955
	add	sp, sp, #8
	@ sp needed
	pop	{r4, r5, r6, pc}
.L945:
	mov	r0, r2
	mov	r5, r1
	ldr	r2, [r4, #88]
	add	r1, r4, #12
	bl	_ZN8opendnp318MeasurementHandler19ProcessMeasurementsERKN7openpal6RSliceERNS1_6LoggerEPNS_11ISOEHandlerE(PLT)
	cmp	r0, #0
	bne	.L947
	ldrb	r3, [r5, #3]	@ zero_extendqisi2
	cmp	r3, #0
	bne	.L956
.L947:
	add	r1, r5, #6
	mov	r0, r4
	bl	_ZN8opendnp38MContext10ProcessIINERKNS_8IINFieldE(PLT)
	add	sp, sp, #8
	@ sp needed
	pop	{r4, r5, r6, pc}
.L955:
	ldr	r3, .L957
	ldr	r2, .L957+4
	mov	r1, r5
	mov	r0, r4
.LPIC35:
	add	r3, pc, r3
.LPIC36:
	add	r2, pc, r2
	str	r6, [sp]
	bl	_ZN7openpal6Logger3LogERKNS_10LogFiltersEPKcS5_(PLT)
	add	sp, sp, #8
	@ sp needed
	pop	{r4, r5, r6, pc}
.L956:
	mov	r0, sp
	ldrb	r1, [r5, #5]	@ zero_extendqisi2
	bl	_ZN8opendnp310APDUHeader18UnsolicitedConfirmEh(PLT)
	mov	r1, sp
	mov	r0, r4
	bl	_ZN8opendnp38MContext12QueueConfirmERKNS_10APDUHeaderE(PLT)
	b	.L947
.L958:
	.align	2
.L957:
	.word	.LC0-(.LPIC35+8)
	.word	.LC1-(.LPIC36+8)
	.fnend
	.size	_ZN8opendnp38MContext26ProcessUnsolicitedResponseERKNS_18APDUResponseHeaderERKN7openpal6RSliceE, .-_ZN8opendnp38MContext26ProcessUnsolicitedResponseERKNS_18APDUResponseHeaderERKN7openpal6RSliceE
	.align	2
	.global	_ZN8opendnp38MContext18StartResponseTimerEv
	.syntax unified
	.arm
	.fpu vfp
	.type	_ZN8opendnp38MContext18StartResponseTimerEv, %function
_ZN8opendnp38MContext18StartResponseTimerEv:
	.fnstart
.LFB3264:
	@ args = 0, pretend = 0, frame = 16
	@ frame_needed = 0, uses_anonymous_args = 0
	ldr	ip, .L971
	ldr	r3, .L971+4
	push	{r4, r5, lr}
	.save {r4, r5, lr}
	mov	lr, r0
	.pad #20
	sub	sp, sp, #20
	add	r4, r0, #120
.LPIC37:
	add	ip, pc, ip
.LPIC38:
	add	r3, pc, r3
	mov	r0, r4
	add	r1, lr, #48
	mov	r2, sp
	mov	r5, sp
	stm	sp, {r4, lr}
	str	ip, [sp, #12]
	str	r3, [sp, #8]
.LEHB4:
	bl	_ZN7openpal8TimerRef11StartActionERKNS_12TimeDurationERKSt8functionIFvvEE(PLT)
.LEHE4:
	ldr	r3, [sp, #8]
	cmp	r3, #0
	beq	.L959
	mov	r2, #3
	mov	r1, sp
	mov	r0, r5
	blx	r3
.L959:
	add	sp, sp, #20
	@ sp needed
	pop	{r4, r5, pc}
.L963:
	ldr	r3, [sp, #8]
	cmp	r3, #0
	beq	.L962
	mov	r2, #3
	mov	r1, r5
	mov	r0, r5
	blx	r3
.L962:
.LEHB5:
	bl	__cxa_end_cleanup(PLT)
.LEHE5:
.L972:
	.align	2
.L971:
	.word	_ZNSt17_Function_handlerIFvvEZN7openpal8TimerRef5StartIZN8opendnp38MContext18StartResponseTimerEvEUlvE_EEbRKNS1_12TimeDurationERKT_EUlvE_E9_M_invokeERKSt9_Any_data-(.LPIC37+8)
	.word	_ZNSt14_Function_base13_Base_managerIZN7openpal8TimerRef5StartIZN8opendnp38MContext18StartResponseTimerEvEUlvE_EEbRKNS1_12TimeDurationERKT_EUlvE_E10_M_managerERSt9_Any_dataRKSF_St18_Manager_operation-(.LPIC38+8)
	.personality	__gxx_personality_v0
	.handlerdata
.LLSDA3264:
	.byte	0xff
	.byte	0xff
	.byte	0x1
	.uleb128 .LLSDACSE3264-.LLSDACSB3264
.LLSDACSB3264:
	.uleb128 .LEHB4-.LFB3264
	.uleb128 .LEHE4-.LEHB4
	.uleb128 .L963-.LFB3264
	.uleb128 0
	.uleb128 .LEHB5-.LFB3264
	.uleb128 .LEHE5-.LEHB5
	.uleb128 0
	.uleb128 0
.LLSDACSE3264:
	.text
	.fnend
	.size	_ZN8opendnp38MContext18StartResponseTimerEv, .-_ZN8opendnp38MContext18StartResponseTimerEv
	.align	2
	.global	_ZN8opendnp38MContext16PostCheckForTaskEv
	.syntax unified
	.arm
	.fpu vfp
	.type	_ZN8opendnp38MContext16PostCheckForTaskEv, %function
_ZN8opendnp38MContext16PostCheckForTaskEv:
	.fnstart
.LFB3266:
	@ args = 0, pretend = 0, frame = 24
	@ frame_needed = 0, uses_anonymous_args = 0
	mov	r1, r0
	ldr	r0, [r0, #28]
	push	{r4, lr}
	.save {r4, lr}
	.pad #24
	sub	sp, sp, #24
	add	ip, sp, #8
	str	ip, [sp, #4]
	ldr	r2, .L985
	ldr	ip, [r0]
	ldr	r3, .L985+4
.LPIC39:
	add	r2, pc, r2
.LPIC40:
	add	r3, pc, r3
	str	r1, [sp, #8]
	ldr	r4, [ip, #20]
	ldr	r1, [sp, #4]
	str	r2, [sp, #20]
	str	r3, [sp, #16]
.LEHB6:
	blx	r4
.LEHE6:
	ldr	r3, [sp, #16]
	cmp	r3, #0
	beq	.L973
	ldr	r1, [sp, #4]
	mov	r2, #3
	mov	r0, r1
	blx	r3
.L973:
	add	sp, sp, #24
	@ sp needed
	pop	{r4, pc}
.L977:
	ldr	r3, [sp, #16]
	cmp	r3, #0
	beq	.L976
	ldr	r1, [sp, #4]
	mov	r2, #3
	mov	r0, r1
	blx	r3
.L976:
.LEHB7:
	bl	__cxa_end_cleanup(PLT)
.LEHE7:
.L986:
	.align	2
.L985:
	.word	_ZNSt17_Function_handlerIFvvEZN8opendnp38MContext16PostCheckForTaskEvEUlvE_E9_M_invokeERKSt9_Any_data-(.LPIC39+8)
	.word	_ZNSt14_Function_base13_Base_managerIZN8opendnp38MContext16PostCheckForTaskEvEUlvE_E10_M_managerERSt9_Any_dataRKS5_St18_Manager_operation-(.LPIC40+8)
	.personality	__gxx_personality_v0
	.handlerdata
.LLSDA3266:
	.byte	0xff
	.byte	0xff
	.byte	0x1
	.uleb128 .LLSDACSE3266-.LLSDACSB3266
.LLSDACSB3266:
	.uleb128 .LEHB6-.LFB3266
	.uleb128 .LEHE6-.LEHB6
	.uleb128 .L977-.LFB3266
	.uleb128 0
	.uleb128 .LEHB7-.LFB3266
	.uleb128 .LEHE7-.LEHB7
	.uleb128 0
	.uleb128 0
.LLSDACSE3266:
	.text
	.fnend
	.size	_ZN8opendnp38MContext16PostCheckForTaskEv, .-_ZN8opendnp38MContext16PostCheckForTaskEv
	.align	2
	.global	_ZN8opendnp38MContext14OnLowerLayerUpEv
	.syntax unified
	.arm
	.fpu vfp
	.type	_ZN8opendnp38MContext14OnLowerLayerUpEv, %function
_ZN8opendnp38MContext14OnLowerLayerUpEv:
	.fnstart
.LFB3245:
	@ args = 0, pretend = 0, frame = 0
	@ frame_needed = 0, uses_anonymous_args = 0
	ldrb	r3, [r0, #108]	@ zero_extendqisi2
	push	{r4, r5, r6, lr}
	.save {r4, r5, r6, lr}
	ldr	r6, .L994
	cmp	r3, #0
.LPIC41:
	add	r6, pc, r6
	beq	.L992
	mov	r0, #0
	pop	{r4, r5, r6, pc}
.L992:
	mov	r5, #1
	add	r1, r0, #212
	mov	r4, r0
	strb	r5, [r0, #108]
	add	r0, r0, #144
	bl	_ZN8opendnp311MasterTasks10InitializeERNS_15MasterSchedulerE(PLT)
	mov	r0, r4
	bl	_ZN8opendnp38MContext16PostCheckForTaskEv(PLT)
	ldr	r0, [r4, #96]
	ldr	r3, .L994+4
	ldr	r1, [r0]
	ldr	r2, [r6, r3]
	ldr	r3, [r1, #36]
	cmp	r3, r2
	bne	.L993
	mov	r0, r5
	pop	{r4, r5, r6, pc}
.L993:
	blx	r3
	mov	r0, r5
	pop	{r4, r5, r6, pc}
.L995:
	.align	2
.L994:
	.word	_GLOBAL_OFFSET_TABLE_-(.LPIC41+8)
	.word	_ZN8opendnp318IMasterApplication6OnOpenEv(GOT)
	.fnend
	.size	_ZN8opendnp38MContext14OnLowerLayerUpEv, .-_ZN8opendnp38MContext14OnLowerLayerUpEv
	.section	.text._ZN8opendnp38MContext13OnPendingTaskEv,"axG",%progbits,_ZN8opendnp38MContext13OnPendingTaskEv,comdat
	.align	2
	.weak	_ZN8opendnp38MContext13OnPendingTaskEv
	.syntax unified
	.arm
	.fpu vfp
	.type	_ZN8opendnp38MContext13OnPendingTaskEv, %function
_ZN8opendnp38MContext13OnPendingTaskEv:
	.fnstart
.LFB2947:
	@ args = 0, pretend = 0, frame = 0
	@ frame_needed = 0, uses_anonymous_args = 0
	@ link register save eliminated.
	b	_ZN8opendnp38MContext16PostCheckForTaskEv(PLT)
	.cantunwind
	.fnend
	.size	_ZN8opendnp38MContext13OnPendingTaskEv, .-_ZN8opendnp38MContext13OnPendingTaskEv
	.set	.LTHUNK1,_ZN8opendnp38MContext13OnPendingTaskEv
	.align	2
	.weak	_ZThn4_N8opendnp38MContext13OnPendingTaskEv
	.syntax unified
	.arm
	.fpu vfp
	.type	_ZThn4_N8opendnp38MContext13OnPendingTaskEv, %function
_ZThn4_N8opendnp38MContext13OnPendingTaskEv:
	.fnstart
.LFB5016:
	@ args = 0, pretend = 0, frame = 0
	@ frame_needed = 0, uses_anonymous_args = 0
	sub	r0, r0, #4
	b	.LTHUNK1(PLT)
	.fnend
	.size	_ZThn4_N8opendnp38MContext13OnPendingTaskEv, .-_ZThn4_N8opendnp38MContext13OnPendingTaskEv
	.text
	.align	2
	.global	_ZN8opendnp38MContext18CompleteActiveTaskEv
	.syntax unified
	.arm
	.fpu vfp
	.type	_ZN8opendnp38MContext18CompleteActiveTaskEv, %function
_ZN8opendnp38MContext18CompleteActiveTaskEv:
	.fnstart
.LFB3251:
	@ args = 0, pretend = 0, frame = 0
	@ frame_needed = 0, uses_anonymous_args = 0
	ldr	r3, [r0, #112]
	push	{r4, r5, r6, lr}
	.save {r4, r5, r6, lr}
	cmp	r3, #0
	ldr	r5, .L1016
.LPIC42:
	add	r5, pc, r5
	popeq	{r4, r5, r6, pc}
	ldr	r2, [r3]
	mov	r4, r0
	mov	r0, r3
	ldr	r3, [r2, #24]
	blx	r3
	cmp	r0, #0
	bne	.L1013
	ldr	r6, [r4, #116]
	str	r0, [r4, #112]
	cmp	r6, #0
	str	r0, [r4, #116]
	beq	.L1000
	ldr	r3, .L1016+4
	ldr	r3, [r5, r3]
	cmp	r3, #0
	beq	.L1002
	add	r3, r6, #28
	mcr	p15, 0, r0, c7, c10, 5
.L1009:
	ldrex	r2, [r3]
	sub	r1, r2, #1
	strex	r0, r1, [r3]
	cmp	r0, #0
	bne	.L1009
	cmp	r2, #1
	mcr	p15, 0, r0, c7, c10, 5
	beq	.L1014
.L1000:
	ldr	r0, [r4, #104]
	ldr	r3, .L1016+8
	ldr	r1, [r0]
	ldr	r2, [r5, r3]
	ldr	r3, [r1, #4]
	cmp	r3, r2
	bne	.L1015
	mov	r0, r4
	pop	{r4, r5, r6, lr}
	b	_ZN8opendnp38MContext16PostCheckForTaskEv(PLT)
.L1013:
	add	r1, r4, #112
	add	r0, r4, #212
	bl	_ZN8opendnp315MasterScheduler8ScheduleERKSt10shared_ptrINS_11IMasterTaskEE(PLT)
	b	.L1000
.L1014:
	ldr	r3, [r6]
	mov	r0, r6
	ldr	r3, [r3, #8]
	blx	r3
	add	r3, r6, #32
	mcr	p15, 0, r0, c7, c10, 5
	mcr	p15, 0, r0, c7, c10, 5
.L1008:
	ldrex	r2, [r3]
	sub	r1, r2, #1
	strex	r0, r1, [r3]
	cmp	r0, #0
	bne	.L1008
	mcr	p15, 0, r0, c7, c10, 5
.L1007:
	cmp	r2, #1
	bne	.L1000
	ldr	r3, [r6]
	mov	r0, r6
	ldr	r3, [r3, #12]
	blx	r3
	b	.L1000
.L1015:
	add	r1, r4, #4
	blx	r3
	mov	r0, r4
	pop	{r4, r5, r6, lr}
	b	_ZN8opendnp38MContext16PostCheckForTaskEv(PLT)
.L1002:
	ldr	r3, [r6, #28]
	cmp	r3, #1
	sub	r3, r3, #1
	str	r3, [r6, #28]
	bne	.L1000
	ldr	r3, [r6]
	mov	r0, r6
	ldr	r3, [r3, #8]
	blx	r3
	mcr	p15, 0, r0, c7, c10, 5
	ldr	r2, [r6, #32]
	sub	r3, r2, #1
	str	r3, [r6, #32]
	b	.L1007
.L1017:
	.align	2
.L1016:
	.word	_GLOBAL_OFFSET_TABLE_-(.LPIC42+8)
	.word	_ZL28__gthrw___pthread_key_createPjPFvPvE(GOT)
	.word	_ZN8opendnp312NullTaskLock7ReleaseERNS_17IScheduleCallbackE(GOT)
	.fnend
	.size	_ZN8opendnp38MContext18CompleteActiveTaskEv, .-_ZN8opendnp38MContext18CompleteActiveTaskEv
	.align	2
	.global	_ZN8opendnp38MContext25ScheduleRecurringPollTaskERKSt10shared_ptrINS_11IMasterTaskEE
	.syntax unified
	.arm
	.fpu vfp
	.type	_ZN8opendnp38MContext25ScheduleRecurringPollTaskERKSt10shared_ptrINS_11IMasterTaskEE, %function
_ZN8opendnp38MContext25ScheduleRecurringPollTaskERKSt10shared_ptrINS_11IMasterTaskEE:
	.fnstart
.LFB3312:
	@ args = 0, pretend = 0, frame = 0
	@ frame_needed = 0, uses_anonymous_args = 0
	push	{r4, r5, r6, lr}
	.save {r4, r5, r6, lr}
	mov	r4, r0
	add	r0, r0, #144
	mov	r5, r1
	bl	_ZN8opendnp311MasterTasks8BindTaskERKSt10shared_ptrINS_11IMasterTaskEE(PLT)
	ldrb	r3, [r4, #108]	@ zero_extendqisi2
	cmp	r3, #0
	popeq	{r4, r5, r6, pc}
	add	r0, r4, #212
	mov	r1, r5
	bl	_ZN8opendnp315MasterScheduler8ScheduleERKSt10shared_ptrINS_11IMasterTaskEE(PLT)
	mov	r0, r4
	pop	{r4, r5, r6, lr}
	b	_ZN8opendnp38MContext16PostCheckForTaskEv(PLT)
	.fnend
	.size	_ZN8opendnp38MContext25ScheduleRecurringPollTaskERKSt10shared_ptrINS_11IMasterTaskEE, .-_ZN8opendnp38MContext25ScheduleRecurringPollTaskERKSt10shared_ptrINS_11IMasterTaskEE
	.align	2
	.global	_ZN8opendnp38MContext16ResumeActiveTaskEv
	.syntax unified
	.arm
	.fpu vfp
	.type	_ZN8opendnp38MContext16ResumeActiveTaskEv, %function
_ZN8opendnp38MContext16ResumeActiveTaskEv:
	.fnstart
.LFB3318:
	@ args = 0, pretend = 0, frame = 40
	@ frame_needed = 0, uses_anonymous_args = 0
	push	{r4, r5, r6, r7, r8, lr}
	.save {r4, r5, r6, r7, r8, lr}
	mov	r4, r0
	ldr	r0, [r0, #104]
	ldr	r5, .L1034
	ldr	r3, .L1034+4
	ldr	r1, [r0]
.LPIC43:
	add	r5, pc, r5
	.pad #40
	sub	sp, sp, #40
	ldr	r2, [r5, r3]
	ldr	r3, [r1]
	cmp	r3, r2
	bne	.L1022
.L1025:
	add	r6, sp, #12
	mov	r0, r6
	add	r1, r4, #268
	add	r7, sp, #20
	bl	_ZN7openpal6Buffer9GetWSliceEv(PLT)
	mov	r1, r6
	mov	r0, r7
	bl	_ZN8opendnp311APDURequestC1ERKN7openpal6WSliceE(PLT)
	ldr	r3, [r4, #112]
	mov	r1, r7
	mov	r0, r3
	ldr	r3, [r3]
	ldrb	r2, [r4, #110]	@ zero_extendqisi2
	ldr	r3, [r3, #28]
	blx	r3
	subs	r8, r0, #0
	beq	.L1032
	mov	r0, r4
	bl	_ZN8opendnp38MContext18StartResponseTimerEv(PLT)
	mov	r1, r7
	mov	r0, r6
	bl	_ZNK8opendnp311APDUWrapper8ToRSliceEv(PLT)
	ldr	r2, [r4]
	ldr	r3, .L1034+8
	ldr	r2, [r2, #28]
	ldr	r3, [r5, r3]
	cmp	r2, r3
	bne	.L1033
.L1028:
	mov	r0, r4
	mov	r1, r6
	bl	_ZN8opendnp38MContext8TransmitERKN7openpal6RSliceE(PLT)
	mov	r0, #2
	add	sp, sp, #40
	@ sp needed
	pop	{r4, r5, r6, r7, r8, pc}
.L1022:
	add	r1, r4, #4
	blx	r3
	cmp	r0, #0
	bne	.L1025
	mov	r0, #1
	add	sp, sp, #40
	@ sp needed
	pop	{r4, r5, r6, r7, r8, pc}
.L1033:
	mov	r1, r6
	mov	r0, r4
	blx	r2
	b	.L1028
.L1032:
	ldr	r3, [r4, #28]
	ldr	r5, [r4, #112]
	mov	r1, r3
	ldr	r3, [r3]
	mov	r0, sp
	ldr	r3, [r3, #8]
	blx	r3
	mov	r0, r5
	ldrd	r2, [sp]
	bl	_ZN8opendnp311IMasterTask15OnInternalErrorEN7openpal18MonotonicTimestampE(PLT)
	mov	r0, r4
	bl	_ZN8opendnp38MContext18CompleteActiveTaskEv(PLT)
	mov	r0, r8
	add	sp, sp, #40
	@ sp needed
	pop	{r4, r5, r6, r7, r8, pc}
.L1035:
	.align	2
.L1034:
	.word	_GLOBAL_OFFSET_TABLE_-(.LPIC43+8)
	.word	_ZN8opendnp312NullTaskLock7AcquireERNS_17IScheduleCallbackE(GOT)
	.word	_ZN8opendnp38MContext17RecordLastRequestERKN7openpal6RSliceE(GOT)
	.fnend
	.size	_ZN8opendnp38MContext16ResumeActiveTaskEv, .-_ZN8opendnp38MContext16ResumeActiveTaskEv
	.align	2
	.global	_ZN8opendnp38MContext12BeginNewTaskERKSt10shared_ptrINS_11IMasterTaskEE
	.syntax unified
	.arm
	.fpu vfp
	.type	_ZN8opendnp38MContext12BeginNewTaskERKSt10shared_ptrINS_11IMasterTaskEE, %function
_ZN8opendnp38MContext12BeginNewTaskERKSt10shared_ptrINS_11IMasterTaskEE:
	.fnstart
.LFB3315:
	@ args = 0, pretend = 0, frame = 128
	@ frame_needed = 0, uses_anonymous_args = 0
	push	{r4, r5, r6, r7, lr}
	.save {r4, r5, r6, r7, lr}
	mov	r4, r0
	ldr	r6, [r0, #116]
	ldm	r1, {r0, r5}
	ldr	r3, .L1067
	.pad #132
	sub	sp, sp, #132
	cmp	r5, r6
	str	r0, [r4, #112]
.LPIC44:
	add	r3, pc, r3
	beq	.L1037
	cmp	r5, #0
	beq	.L1038
	ldr	r2, .L1067+4
	ldr	r3, [r3, r2]
	cmp	r3, #0
	beq	.L1039
	add	r3, r5, #28
	mcr	p15, 0, r0, c7, c10, 5
.L1061:
	ldrex	r2, [r3]
	add	r2, r2, #1
	strex	r1, r2, [r3]
	cmp	r1, #0
	bne	.L1061
	mcr	p15, 0, r0, c7, c10, 5
	ldr	r6, [r4, #116]
	cmp	r6, #0
	beq	.L1064
.L1063:
	add	r3, r6, #28
	mcr	p15, 0, r0, c7, c10, 5
.L1060:
	ldrex	r2, [r3]
	sub	r1, r2, #1
	strex	r0, r1, [r3]
	cmp	r0, #0
	bne	.L1060
	cmp	r2, #1
	mcr	p15, 0, r0, c7, c10, 5
	beq	.L1066
.L1064:
	ldr	r0, [r4, #112]
.L1041:
	str	r5, [r4, #116]
.L1037:
	add	r5, sp, #128
	mov	r7, #8
	add	r6, r4, #12
	bl	_ZN8opendnp311IMasterTask7OnStartEv(PLT)
	str	r7, [r5, #-120]!
	mov	r0, r6
	mov	r1, r5
	bl	_ZNK7openpal6Logger9IsEnabledERKNS_10LogFiltersE(PLT)
	cmp	r0, #0
	beq	.L1046
	ldr	r3, [r4, #112]
	mov	r0, r3
	ldr	r3, [r3]
	ldr	r3, [r3, #12]
	blx	r3
	ldr	r2, .L1067+8
	mov	r1, #120
.LPIC45:
	add	r2, pc, r2
	mov	r3, r0
	mov	r0, r5
	bl	snprintf(PLT)
	add	r1, sp, #128
	ldr	r2, .L1067+12
	mov	r3, r5
	str	r7, [r1, #-124]!
	mov	r0, r6
.LPIC46:
	add	r2, pc, r2
	bl	_ZN7openpal6Logger3LogERKNS_10LogFiltersEPKcS5_(PLT)
.L1046:
	mov	r0, r4
	bl	_ZN8opendnp38MContext16ResumeActiveTaskEv(PLT)
	add	sp, sp, #132
	@ sp needed
	pop	{r4, r5, r6, r7, pc}
.L1039:
	ldr	r3, [r5, #28]
	cmp	r6, #0
	add	r3, r3, #1
	str	r3, [r5, #28]
	beq	.L1041
.L1042:
	ldr	r3, [r6, #28]
	cmp	r3, #1
	sub	r3, r3, #1
	str	r3, [r6, #28]
	bne	.L1041
	ldr	r3, [r6]
	mov	r0, r6
	ldr	r3, [r3, #8]
	blx	r3
	mcr	p15, 0, r0, c7, c10, 5
	ldr	r2, [r6, #32]
	sub	r3, r2, #1
	str	r3, [r6, #32]
	b	.L1048
.L1066:
	ldr	r3, [r6]
	mov	r0, r6
	ldr	r3, [r3, #8]
	blx	r3
	add	r3, r6, #32
	mcr	p15, 0, r0, c7, c10, 5
	mcr	p15, 0, r0, c7, c10, 5
.L1059:
	ldrex	r2, [r3]
	sub	r1, r2, #1
	strex	r0, r1, [r3]
	cmp	r0, #0
	bne	.L1059
	mcr	p15, 0, r0, c7, c10, 5
.L1048:
	cmp	r2, #1
	bne	.L1064
	ldr	r3, [r6]
	mov	r0, r6
	ldr	r3, [r3, #12]
	blx	r3
	b	.L1064
.L1038:
	cmp	r6, #0
	beq	.L1041
	ldr	r2, .L1067+4
	ldr	r3, [r3, r2]
	cmp	r3, #0
	bne	.L1063
	b	.L1042
.L1068:
	.align	2
.L1067:
	.word	_GLOBAL_OFFSET_TABLE_-(.LPIC44+8)
	.word	_ZL28__gthrw___pthread_key_createPjPFvPvE(GOT)
	.word	.LC2-(.LPIC45+8)
	.word	.LC3-(.LPIC46+8)
	.fnend
	.size	_ZN8opendnp38MContext12BeginNewTaskERKSt10shared_ptrINS_11IMasterTaskEE, .-_ZN8opendnp38MContext12BeginNewTaskERKSt10shared_ptrINS_11IMasterTaskEE
	.align	2
	.global	_ZN8opendnp38MContext19StartTask_TaskReadyEv
	.syntax unified
	.arm
	.fpu vfp
	.type	_ZN8opendnp38MContext19StartTask_TaskReadyEv, %function
_ZN8opendnp38MContext19StartTask_TaskReadyEv:
	.fnstart
.LFB3324:
	@ args = 0, pretend = 0, frame = 0
	@ frame_needed = 0, uses_anonymous_args = 0
	@ link register save eliminated.
	ldrb	r3, [r0, #109]	@ zero_extendqisi2
	cmp	r3, #0
	beq	.L1071
	mov	r0, #1
	bx	lr
.L1071:
	b	_ZN8opendnp38MContext16ResumeActiveTaskEv(PLT)
	.cantunwind
	.fnend
	.size	_ZN8opendnp38MContext19StartTask_TaskReadyEv, .-_ZN8opendnp38MContext19StartTask_TaskReadyEv
	.align	2
	.global	_ZN8opendnp38MContext26OnResponse_WaitForResponseERKNS_18APDUResponseHeaderERKN7openpal6RSliceE
	.syntax unified
	.arm
	.fpu vfp
	.type	_ZN8opendnp38MContext26OnResponse_WaitForResponseERKNS_18APDUResponseHeaderERKN7openpal6RSliceE, %function
_ZN8opendnp38MContext26OnResponse_WaitForResponseERKNS_18APDUResponseHeaderERKN7openpal6RSliceE:
	.fnstart
.LFB3325:
	@ args = 0, pretend = 0, frame = 136
	@ frame_needed = 0, uses_anonymous_args = 0
	push	{r4, r5, r6, r7, r8, r9, lr}
	.save {r4, r5, r6, r7, r8, r9, lr}
	mov	r6, r1
	ldrb	r3, [r0, #110]	@ zero_extendqisi2
	ldrb	r1, [r1, #5]	@ zero_extendqisi2
	.pad #148
	sub	sp, sp, #148
	mov	r4, r0
	cmp	r1, r3
	beq	.L1073
	add	r5, sp, #144
	add	r4, r0, #12
	mov	r7, #4
	str	r7, [r5, #-120]!
	mov	r0, r4
	mov	r1, r5
	bl	_ZNK7openpal6Logger9IsEnabledERKNS_10LogFiltersE(PLT)
	cmp	r0, #0
	moveq	r0, #2
	bne	.L1086
.L1072:
	add	sp, sp, #148
	@ sp needed
	pop	{r4, r5, r6, r7, r8, r9, pc}
.L1073:
	add	r0, r0, #120
	mov	r5, r2
	bl	_ZN7openpal8TimerRef6CancelEv(PLT)
	ldrb	r3, [r4, #110]	@ zero_extendqisi2
	ldr	r1, [r4, #28]
	add	r0, sp, #8
	add	r3, r3, #1
	and	r3, r3, #15
	strb	r3, [r4, #110]
	ldr	r3, [r1]
	ldr	r3, [r3, #8]
	blx	r3
	ldrd	r8, [sp, #8]
	ldr	r0, [r4, #112]
	mov	r2, r5
	strd	r8, [sp]
	mov	r1, r6
	bl	_ZN8opendnp311IMasterTask10OnResponseERKNS_18APDUResponseHeaderERKN7openpal6RSliceENS4_18MonotonicTimestampE(PLT)
	ldrb	r3, [r6, #3]	@ zero_extendqisi2
	cmp	r3, #0
	mov	r5, r0
	bne	.L1087
.L1075:
	cmp	r5, #3
	mov	r0, r4
	beq	.L1077
	cmp	r5, #4
	bne	.L1084
	bl	_ZN8opendnp38MContext18StartResponseTimerEv(PLT)
	mov	r0, #2
	b	.L1072
.L1086:
	ldr	r2, .L1088
	ldrb	r3, [r6, #5]	@ zero_extendqisi2
.LPIC47:
	add	r2, pc, r2
	mov	r1, #120
	mov	r0, r5
	bl	snprintf(PLT)
	add	r1, sp, #144
	ldr	r2, .L1088+4
	mov	r0, r4
	mov	r3, r5
	str	r7, [r1, #-124]!
.LPIC48:
	add	r2, pc, r2
	bl	_ZN7openpal6Logger3LogERKNS_10LogFiltersEPKcS5_(PLT)
	mov	r0, #2
	add	sp, sp, #148
	@ sp needed
	pop	{r4, r5, r6, r7, r8, r9, pc}
.L1077:
	bl	_ZN8opendnp38MContext19StartTask_TaskReadyEv(PLT)
	b	.L1072
.L1087:
	ldrb	r1, [r6, #5]	@ zero_extendqisi2
	add	r6, sp, #24
	mov	r0, r6
	bl	_ZN8opendnp310APDUHeader16SolicitedConfirmEh(PLT)
	mov	r1, r6
	mov	r0, r4
	bl	_ZN8opendnp38MContext12QueueConfirmERKNS_10APDUHeaderE(PLT)
	b	.L1075
.L1084:
	bl	_ZN8opendnp38MContext18CompleteActiveTaskEv(PLT)
	mov	r0, #0
	b	.L1072
.L1089:
	.align	2
.L1088:
	.word	.LC4-(.LPIC47+8)
	.word	.LC5-(.LPIC48+8)
	.fnend
	.size	_ZN8opendnp38MContext26OnResponse_WaitForResponseERKNS_18APDUResponseHeaderERKN7openpal6RSliceE, .-_ZN8opendnp38MContext26OnResponse_WaitForResponseERKNS_18APDUResponseHeaderERKN7openpal6RSliceE
	.align	2
	.global	_ZN8opendnp38MContext15OnResponseEventERKNS_18APDUResponseHeaderERKN7openpal6RSliceE
	.syntax unified
	.arm
	.fpu vfp
	.type	_ZN8opendnp38MContext15OnResponseEventERKNS_18APDUResponseHeaderERKN7openpal6RSliceE, %function
_ZN8opendnp38MContext15OnResponseEventERKNS_18APDUResponseHeaderERKN7openpal6RSliceE:
	.fnstart
.LFB3319:
	@ args = 0, pretend = 0, frame = 128
	@ frame_needed = 0, uses_anonymous_args = 0
	ldr	r3, [r0, #280]
	push	{r4, r5, r6, r7, r8, lr}
	.save {r4, r5, r6, r7, r8, lr}
	cmp	r3, #2
	.pad #128
	sub	sp, sp, #128
	beq	.L1100
	add	r5, sp, #128
	mov	r6, #4
	add	r7, r0, #12
	str	r6, [r5, #-120]!
	mov	r4, r0
	mov	r8, r1
	mov	r0, r7
	mov	r1, r5
	bl	_ZNK7openpal6Logger9IsEnabledERKNS_10LogFiltersE(PLT)
	cmp	r0, #0
	bne	.L1101
.L1094:
	ldr	r0, [r4, #280]
	add	sp, sp, #128
	@ sp needed
	pop	{r4, r5, r6, r7, r8, pc}
.L1100:
	bl	_ZN8opendnp38MContext26OnResponse_WaitForResponseERKNS_18APDUResponseHeaderERKN7openpal6RSliceE(PLT)
	add	sp, sp, #128
	@ sp needed
	pop	{r4, r5, r6, r7, r8, pc}
.L1101:
	ldr	r2, .L1102
	ldrb	r3, [r8, #5]	@ zero_extendqisi2
.LPIC49:
	add	r2, pc, r2
	mov	r1, #120
	mov	r0, r5
	bl	snprintf(PLT)
	add	r1, sp, #128
	ldr	r2, .L1102+4
	mov	r3, r5
	mov	r0, r7
	str	r6, [r1, #-124]!
.LPIC50:
	add	r2, pc, r2
	bl	_ZN7openpal6Logger3LogERKNS_10LogFiltersEPKcS5_(PLT)
	b	.L1094
.L1103:
	.align	2
.L1102:
	.word	.LC6-(.LPIC49+8)
	.word	.LC7-(.LPIC50+8)
	.fnend
	.size	_ZN8opendnp38MContext15OnResponseEventERKNS_18APDUResponseHeaderERKN7openpal6RSliceE, .-_ZN8opendnp38MContext15OnResponseEventERKNS_18APDUResponseHeaderERKN7openpal6RSliceE
	.align	2
	.global	_ZN8opendnp38MContext15ProcessResponseERKNS_18APDUResponseHeaderERKN7openpal6RSliceE
	.syntax unified
	.arm
	.fpu vfp
	.type	_ZN8opendnp38MContext15ProcessResponseERKNS_18APDUResponseHeaderERKN7openpal6RSliceE, %function
_ZN8opendnp38MContext15ProcessResponseERKNS_18APDUResponseHeaderERKN7openpal6RSliceE:
	.fnstart
.LFB3260:
	@ args = 0, pretend = 0, frame = 0
	@ frame_needed = 0, uses_anonymous_args = 0
	push	{r4, r5, r6, lr}
	.save {r4, r5, r6, lr}
	mov	r4, r0
	mov	r5, r1
	bl	_ZN8opendnp38MContext15OnResponseEventERKNS_18APDUResponseHeaderERKN7openpal6RSliceE(PLT)
	add	r1, r5, #6
	str	r0, [r4, #280]
	mov	r0, r4
	pop	{r4, r5, r6, lr}
	b	_ZN8opendnp38MContext10ProcessIINERKNS_8IINFieldE(PLT)
	.fnend
	.size	_ZN8opendnp38MContext15ProcessResponseERKNS_18APDUResponseHeaderERKN7openpal6RSliceE, .-_ZN8opendnp38MContext15ProcessResponseERKNS_18APDUResponseHeaderERKN7openpal6RSliceE
	.align	2
	.global	_ZN8opendnp38MContext11ProcessAPDUERKNS_18APDUResponseHeaderERKN7openpal6RSliceE
	.syntax unified
	.arm
	.fpu vfp
	.type	_ZN8opendnp38MContext11ProcessAPDUERKNS_18APDUResponseHeaderERKN7openpal6RSliceE, %function
_ZN8opendnp38MContext11ProcessAPDUERKNS_18APDUResponseHeaderERKN7openpal6RSliceE:
	.fnstart
.LFB3257:
	@ args = 0, pretend = 0, frame = 128
	@ frame_needed = 0, uses_anonymous_args = 0
	ldrb	r3, [r1]	@ zero_extendqisi2
	push	{r4, r5, r6, r7, lr}
	.save {r4, r5, r6, r7, lr}
	.pad #132
	sub	sp, sp, #132
	cmp	r3, #129
	beq	.L1108
	cmp	r3, #130
	beq	.L1116
	add	r6, sp, #128
	add	r5, r0, #12
	mov	r7, #4
	str	r7, [r6, #-120]!
	mov	r4, r1
	mov	r0, r5
	mov	r1, r6
	bl	_ZNK7openpal6Logger9IsEnabledERKNS_10LogFiltersE(PLT)
	cmp	r0, #0
	beq	.L1106
	ldrb	r0, [r4]	@ zero_extendqisi2
	bl	_ZN8opendnp320FunctionCodeToStringENS_12FunctionCodeE(PLT)
	ldr	r2, .L1117
	mov	r1, #120
.LPIC51:
	add	r2, pc, r2
	mov	r3, r0
	mov	r0, r6
	bl	snprintf(PLT)
	add	r1, sp, #128
	ldr	r2, .L1117+4
	mov	r3, r6
	mov	r0, r5
	str	r7, [r1, #-124]!
.LPIC52:
	add	r2, pc, r2
	bl	_ZN7openpal6Logger3LogERKNS_10LogFiltersEPKcS5_(PLT)
.L1106:
	add	sp, sp, #132
	@ sp needed
	pop	{r4, r5, r6, r7, pc}
.L1116:
	bl	_ZN8opendnp38MContext26ProcessUnsolicitedResponseERKNS_18APDUResponseHeaderERKN7openpal6RSliceE(PLT)
	add	sp, sp, #132
	@ sp needed
	pop	{r4, r5, r6, r7, pc}
.L1108:
	bl	_ZN8opendnp38MContext15ProcessResponseERKNS_18APDUResponseHeaderERKN7openpal6RSliceE(PLT)
	add	sp, sp, #132
	@ sp needed
	pop	{r4, r5, r6, r7, pc}
.L1118:
	.align	2
.L1117:
	.word	.LC8-(.LPIC51+8)
	.word	.LC9-(.LPIC52+8)
	.fnend
	.size	_ZN8opendnp38MContext11ProcessAPDUERKNS_18APDUResponseHeaderERKN7openpal6RSliceE, .-_ZN8opendnp38MContext11ProcessAPDUERKNS_18APDUResponseHeaderERKN7openpal6RSliceE
	.align	2
	.global	_ZN8opendnp38MContext14OnParsedHeaderERKN7openpal6RSliceERKNS_18APDUResponseHeaderES4_
	.syntax unified
	.arm
	.fpu vfp
	.type	_ZN8opendnp38MContext14OnParsedHeaderERKN7openpal6RSliceERKNS_18APDUResponseHeaderES4_, %function
_ZN8opendnp38MContext14OnParsedHeaderERKN7openpal6RSliceERKNS_18APDUResponseHeaderES4_:
	.fnstart
.LFB3253:
	@ args = 0, pretend = 0, frame = 0
	@ frame_needed = 0, uses_anonymous_args = 0
	@ link register save eliminated.
	mov	r1, r2
	mov	r2, r3
	b	_ZN8opendnp38MContext11ProcessAPDUERKNS_18APDUResponseHeaderERKN7openpal6RSliceE(PLT)
	.cantunwind
	.fnend
	.size	_ZN8opendnp38MContext14OnParsedHeaderERKN7openpal6RSliceERKNS_18APDUResponseHeaderES4_, .-_ZN8opendnp38MContext14OnParsedHeaderERKN7openpal6RSliceERKNS_18APDUResponseHeaderES4_
	.set	_ZN8opendnp38MContext14OnParsedHeaderERKN7openpal6RSliceERKNS_18APDUResponseHeaderES4_.localalias.176,_ZN8opendnp38MContext14OnParsedHeaderERKN7openpal6RSliceERKNS_18APDUResponseHeaderES4_
	.align	2
	.global	_ZN8opendnp38MContext9OnReceiveERKN7openpal6RSliceE
	.syntax unified
	.arm
	.fpu vfp
	.type	_ZN8opendnp38MContext9OnReceiveERKN7openpal6RSliceE, %function
_ZN8opendnp38MContext9OnReceiveERKN7openpal6RSliceE:
	.fnstart
.LFB3247:
	@ args = 0, pretend = 0, frame = 152
	@ frame_needed = 0, uses_anonymous_args = 0
	push	{r4, r5, r6, r7, r8, r9, r10, fp, lr}
	.save {r4, r5, r6, r7, r8, r9, r10, fp, lr}
	mov	r4, r0
	ldrb	r5, [r0, #108]	@ zero_extendqisi2
	.pad #188
	sub	sp, sp, #188
	cmp	r5, #0
	bne	.L1121
	add	r6, sp, #184
	add	r4, r0, #12
	mov	r7, #2
	str	r7, [r6, #-120]!
	mov	r0, r4
	mov	r1, r6
	bl	_ZNK7openpal6Logger9IsEnabledERKNS_10LogFiltersE(PLT)
	cmp	r0, #0
	bne	.L1137
	add	sp, sp, #188
	@ sp needed
	pop	{r4, r5, r6, r7, r8, r9, r10, fp, pc}
.L1121:
	add	r6, sp, #184
	mov	r8, #0
	mov	r2, #1
	mvn	ip, #0
	mov	r7, r1
	str	r8, [sp, #4]
	mov	r1, r2
	str	r8, [sp]
	mov	r3, r8
	strb	ip, [r6, #-128]!
	add	r0, sp, #57
	add	r9, r4, #12
	bl	_ZN8opendnp315AppControlFieldC1Ebbbbh(PLT)
	mov	r1, r6
	mov	r2, r9
	mov	r0, r7
	strb	r8, [sp, #62]
	strb	r8, [sp, #63]
	bl	_ZN8opendnp316APDUHeaderParser13ParseResponseERKN7openpal6RSliceERNS_18APDUResponseHeaderEPNS1_6LoggerE(PLT)
	cmp	r0, r8
	bne	.L1138
.L1123:
	mov	r0, r5
.L1140:
	add	sp, sp, #188
	@ sp needed
	pop	{r4, r5, r6, r7, r8, r9, r10, fp, pc}
.L1138:
	add	r8, sp, #184
	mov	r10, #2048
	str	r10, [r8, #-120]!
	mov	r0, r9
	mov	r1, r8
	bl	_ZNK7openpal6Logger9IsEnabledERKNS_10LogFiltersE(PLT)
	cmp	r0, #0
	bne	.L1139
.L1124:
	ldr	r3, [r4]
	mov	r2, #4
	mov	r1, r7
	mov	r0, r8
	ldr	r9, [r3, #24]
	bl	_ZNK7openpal6RSlice4SkipEj(PLT)
	ldr	r3, .L1141
.LPIC57:
	add	r3, pc, r3
	cmp	r9, r3
	bne	.L1125
	mov	r0, r4
	mov	r2, r8
	mov	r1, r6
	bl	_ZN8opendnp38MContext11ProcessAPDUERKNS_18APDUResponseHeaderERKN7openpal6RSliceE(PLT)
	mov	r0, r5
	b	.L1140
.L1137:
	ldr	r3, .L1141+4
	ldr	r2, .L1141+8
	mov	r0, r4
	mov	r1, r6
.LPIC53:
	add	r3, pc, r3
.LPIC54:
	add	r2, pc, r2
	str	r7, [sp, #64]
	bl	_ZN7openpal6Logger3LogERKNS_10LogFiltersEPKcS5_(PLT)
	mov	r0, r5
	add	sp, sp, #188
	@ sp needed
	pop	{r4, r5, r6, r7, r8, r9, r10, fp, pc}
.L1139:
	ldrb	r3, [sp, #57]	@ zero_extendqisi2
	ldrb	r2, [sp, #60]	@ zero_extendqisi2
	ldrb	r1, [sp, #61]	@ zero_extendqisi2
	str	r3, [sp, #44]
	ldrb	r3, [sp, #59]	@ zero_extendqisi2
	ldrb	r0, [sp, #56]	@ zero_extendqisi2
	ldrb	fp, [sp, #58]	@ zero_extendqisi2
	str	r3, [sp, #32]
	str	r2, [sp, #40]
	str	r1, [sp, #36]
	bl	_ZN8opendnp320FunctionCodeToStringENS_12FunctionCodeE(PLT)
	ldr	r2, [sp, #40]
	ldrb	lr, [sp, #63]	@ zero_extendqisi2
	ldrb	ip, [sp, #62]	@ zero_extendqisi2
	ldr	r1, [sp, #36]
	ldr	r3, [sp, #32]
	str	r2, [sp, #8]
	ldr	r2, .L1141+12
	str	r1, [sp, #12]
	str	r3, [sp, #4]
	str	fp, [sp]
	ldr	r3, [sp, #44]
	str	lr, [sp, #24]
	str	ip, [sp, #20]
.LPIC55:
	add	r2, pc, r2
	mov	r1, #120
	str	r0, [sp, #16]
	mov	r0, r8
	bl	snprintf(PLT)
	add	r1, sp, #184
	ldr	r2, .L1141+16
	mov	r0, r9
	str	r10, [r1, #-132]!
	mov	r3, r8
.LPIC56:
	add	r2, pc, r2
	bl	_ZN7openpal6Logger3LogERKNS_10LogFiltersEPKcS5_(PLT)
	b	.L1124
.L1125:
	mov	r3, r8
	mov	r2, r6
	mov	r1, r7
	mov	r0, r4
	blx	r9
	b	.L1123
.L1142:
	.align	2
.L1141:
	.word	_ZN8opendnp38MContext14OnParsedHeaderERKN7openpal6RSliceERKNS_18APDUResponseHeaderES4_.localalias.176-(.LPIC57+8)
	.word	.LC10-(.LPIC53+8)
	.word	.LC11-(.LPIC54+8)
	.word	.LC12-(.LPIC55+8)
	.word	.LC13-(.LPIC56+8)
	.fnend
	.size	_ZN8opendnp38MContext9OnReceiveERKN7openpal6RSliceE, .-_ZN8opendnp38MContext9OnReceiveERKN7openpal6RSliceE
	.align	2
	.global	_ZN8opendnp38MContext33OnResponseTimeout_WaitForResponseEv
	.syntax unified
	.arm
	.fpu vfp
	.type	_ZN8opendnp38MContext33OnResponseTimeout_WaitForResponseEv, %function
_ZN8opendnp38MContext33OnResponseTimeout_WaitForResponseEv:
	.fnstart
.LFB3326:
	@ args = 0, pretend = 0, frame = 8
	@ frame_needed = 0, uses_anonymous_args = 0
	push	{r4, lr}
	.save {r4, lr}
	mov	r4, r0
	.pad #8
	sub	sp, sp, #8
	ldr	r3, [r4, #28]
	mov	r0, sp
	mov	r1, r3
	ldr	r3, [r3]
	ldr	r3, [r3, #8]
	blx	r3
	ldrd	r2, [sp]
	ldr	r0, [r4, #112]
	bl	_ZN8opendnp311IMasterTask17OnResponseTimeoutEN7openpal18MonotonicTimestampE(PLT)
	ldrb	r3, [r4, #110]	@ zero_extendqisi2
	mov	r0, r4
	add	r3, r3, #1
	and	r3, r3, #15
	strb	r3, [r4, #110]
	bl	_ZN8opendnp38MContext18CompleteActiveTaskEv(PLT)
	mov	r0, #0
	add	sp, sp, #8
	@ sp needed
	pop	{r4, pc}
	.fnend
	.size	_ZN8opendnp38MContext33OnResponseTimeout_WaitForResponseEv, .-_ZN8opendnp38MContext33OnResponseTimeout_WaitForResponseEv
	.align	2
	.global	_ZN8opendnp38MContext22OnResponseTimeoutEventEv
	.syntax unified
	.arm
	.fpu vfp
	.type	_ZN8opendnp38MContext22OnResponseTimeoutEventEv, %function
_ZN8opendnp38MContext22OnResponseTimeoutEventEv:
	.fnstart
.LFB3321:
	@ args = 0, pretend = 0, frame = 8
	@ frame_needed = 0, uses_anonymous_args = 0
	ldr	r3, [r0, #280]
	push	{r4, r5, r6, r7, lr}
	.save {r4, r5, r6, r7, lr}
	cmp	r3, #2
	.pad #12
	sub	sp, sp, #12
	beq	.L1155
	add	r5, sp, #8
	mov	r6, #2
	add	r7, r0, #12
	str	r6, [r5, #-4]!
	mov	r4, r0
	mov	r1, r5
	mov	r0, r7
	bl	_ZNK7openpal6Logger9IsEnabledERKNS_10LogFiltersE(PLT)
	cmp	r0, #0
	bne	.L1156
.L1149:
	ldr	r0, [r4, #280]
	add	sp, sp, #12
	@ sp needed
	pop	{r4, r5, r6, r7, pc}
.L1155:
	bl	_ZN8opendnp38MContext33OnResponseTimeout_WaitForResponseEv(PLT)
	add	sp, sp, #12
	@ sp needed
	pop	{r4, r5, r6, r7, pc}
.L1156:
	ldr	r3, .L1157
	ldr	r2, .L1157+4
	mov	r1, r5
	mov	r0, r7
.LPIC58:
	add	r3, pc, r3
.LPIC59:
	add	r2, pc, r2
	str	r6, [sp, #4]
	bl	_ZN7openpal6Logger3LogERKNS_10LogFiltersEPKcS5_(PLT)
	b	.L1149
.L1158:
	.align	2
.L1157:
	.word	.LC14-(.LPIC58+8)
	.word	.LC15-(.LPIC59+8)
	.fnend
	.size	_ZN8opendnp38MContext22OnResponseTimeoutEventEv, .-_ZN8opendnp38MContext22OnResponseTimeoutEventEv
	.align	2
	.global	_ZN8opendnp38MContext17OnResponseTimeoutEv
	.syntax unified
	.arm
	.fpu vfp
	.type	_ZN8opendnp38MContext17OnResponseTimeoutEv, %function
_ZN8opendnp38MContext17OnResponseTimeoutEv:
	.fnstart
.LFB3250:
	@ args = 0, pretend = 0, frame = 0
	@ frame_needed = 0, uses_anonymous_args = 0
	ldrb	r2, [r0, #108]	@ zero_extendqisi2
	cmp	r2, #0
	bxeq	lr
	push	{r4, lr}
	.save {r4, lr}
	mov	r4, r0
	bl	_ZN8opendnp38MContext22OnResponseTimeoutEventEv(PLT)
	str	r0, [r4, #280]
	pop	{r4, pc}
	.fnend
	.size	_ZN8opendnp38MContext17OnResponseTimeoutEv, .-_ZN8opendnp38MContext17OnResponseTimeoutEv
	.align	2
	.syntax unified
	.arm
	.fpu vfp
	.type	_ZNSt17_Function_handlerIFvvEZN7openpal8TimerRef5StartIZN8opendnp38MContext18StartResponseTimerEvEUlvE_EEbRKNS1_12TimeDurationERKT_EUlvE_E9_M_invokeERKSt9_Any_data, %function
_ZNSt17_Function_handlerIFvvEZN7openpal8TimerRef5StartIZN8opendnp38MContext18StartResponseTimerEvEUlvE_EEbRKNS1_12TimeDurationERKT_EUlvE_E9_M_invokeERKSt9_Any_data:
	.fnstart
.LFB4087:
	@ args = 0, pretend = 0, frame = 0
	@ frame_needed = 0, uses_anonymous_args = 0
	@ link register save eliminated.
	ldr	r3, [r0]
	mov	r2, #0
	ldr	r0, [r0, #4]
	str	r2, [r3, #4]
	b	_ZN8opendnp38MContext17OnResponseTimeoutEv(PLT)
	.cantunwind
	.fnend
	.size	_ZNSt17_Function_handlerIFvvEZN7openpal8TimerRef5StartIZN8opendnp38MContext18StartResponseTimerEvEUlvE_EEbRKNS1_12TimeDurationERKT_EUlvE_E9_M_invokeERKSt9_Any_data, .-_ZNSt17_Function_handlerIFvvEZN7openpal8TimerRef5StartIZN8opendnp38MContext18StartResponseTimerEvEUlvE_EEbRKNS1_12TimeDurationERKT_EUlvE_E9_M_invokeERKSt9_Any_data
	.section	.text._ZNSt6vectorISt10shared_ptrIN8opendnp311IMasterTaskEESaIS3_EED2Ev,"axG",%progbits,_ZNSt6vectorISt10shared_ptrIN8opendnp311IMasterTaskEESaIS3_EED5Ev,comdat
	.align	2
	.weak	_ZNSt6vectorISt10shared_ptrIN8opendnp311IMasterTaskEESaIS3_EED2Ev
	.syntax unified
	.arm
	.fpu vfp
	.type	_ZNSt6vectorISt10shared_ptrIN8opendnp311IMasterTaskEESaIS3_EED2Ev, %function
_ZNSt6vectorISt10shared_ptrIN8opendnp311IMasterTaskEESaIS3_EED2Ev:
	.fnstart
.LFB3610:
	@ args = 0, pretend = 0, frame = 0
	@ frame_needed = 0, uses_anonymous_args = 0
	push	{r4, r5, r6, r7, r8, lr}
	mov	r7, r0
	ldm	r0, {r4, r6}
	ldr	r8, .L1194
	cmp	r4, r6
.LPIC60:
	add	r8, pc, r8
	bne	.L1177
	b	.L1170
.L1192:
	add	r3, r5, #28
	mcr	p15, 0, r0, c7, c10, 5
.L1186:
	ldrex	r2, [r3]
	sub	r1, r2, #1
	strex	r0, r1, [r3]
	cmp	r0, #0
	bne	.L1186
	cmp	r2, #1
	mcr	p15, 0, r0, c7, c10, 5
	beq	.L1190
.L1172:
	add	r4, r4, #8
	cmp	r6, r4
	beq	.L1191
.L1177:
	ldr	r5, [r4, #4]
	cmp	r5, #0
	beq	.L1172
	ldr	r3, .L1194+4
	ldr	r3, [r8, r3]
	cmp	r3, #0
	bne	.L1192
	ldr	r3, [r5, #28]
	cmp	r3, #1
	sub	r3, r3, #1
	str	r3, [r5, #28]
	bne	.L1172
	ldr	r3, [r5]
	mov	r0, r5
	ldr	r3, [r3, #8]
	blx	r3
	mcr	p15, 0, r0, c7, c10, 5
	ldr	r2, [r5, #32]
	sub	r3, r2, #1
	cmp	r2, #1
	str	r3, [r5, #32]
	bne	.L1172
	ldr	r3, [r5]
	mov	r0, r5
	ldr	r3, [r3, #12]
	blx	r3
.L1193:
	add	r4, r4, #8
	cmp	r6, r4
	bne	.L1177
.L1191:
	ldr	r6, [r7]
.L1170:
	cmp	r6, #0
	beq	.L1181
	mov	r0, r6
	bl	_ZdlPv(PLT)
.L1181:
	mov	r0, r7
	pop	{r4, r5, r6, r7, r8, pc}
.L1190:
	ldr	r3, [r5]
	mov	r0, r5
	ldr	r3, [r3, #8]
	blx	r3
	add	r3, r5, #32
	mcr	p15, 0, r0, c7, c10, 5
	mcr	p15, 0, r0, c7, c10, 5
.L1185:
	ldrex	r2, [r3]
	sub	r1, r2, #1
	strex	r0, r1, [r3]
	cmp	r0, #0
	bne	.L1185
	cmp	r2, #1
	mcr	p15, 0, r0, c7, c10, 5
	bne	.L1172
	ldr	r3, [r5]
	mov	r0, r5
	ldr	r3, [r3, #12]
	blx	r3
	b	.L1193
.L1195:
	.align	2
.L1194:
	.word	_GLOBAL_OFFSET_TABLE_-(.LPIC60+8)
	.word	_ZL28__gthrw___pthread_key_createPjPFvPvE(GOT)
	.cantunwind
	.fnend
	.size	_ZNSt6vectorISt10shared_ptrIN8opendnp311IMasterTaskEESaIS3_EED2Ev, .-_ZNSt6vectorISt10shared_ptrIN8opendnp311IMasterTaskEESaIS3_EED2Ev
	.weak	_ZNSt6vectorISt10shared_ptrIN8opendnp311IMasterTaskEESaIS3_EED1Ev
	.set	_ZNSt6vectorISt10shared_ptrIN8opendnp311IMasterTaskEESaIS3_EED1Ev,_ZNSt6vectorISt10shared_ptrIN8opendnp311IMasterTaskEESaIS3_EED2Ev
	.section	.text._ZNSt16_Sp_counted_baseILN9__gnu_cxx12_Lock_policyE1EE10_M_releaseEv,"axG",%progbits,_ZNSt16_Sp_counted_baseILN9__gnu_cxx12_Lock_policyE1EE10_M_releaseEv,comdat
	.align	2
	.weak	_ZNSt16_Sp_counted_baseILN9__gnu_cxx12_Lock_policyE1EE10_M_releaseEv
	.syntax unified
	.arm
	.fpu vfp
	.type	_ZNSt16_Sp_counted_baseILN9__gnu_cxx12_Lock_policyE1EE10_M_releaseEv, %function
_ZNSt16_Sp_counted_baseILN9__gnu_cxx12_Lock_policyE1EE10_M_releaseEv:
	.fnstart
.LFB3821:
	@ args = 0, pretend = 0, frame = 0
	@ frame_needed = 0, uses_anonymous_args = 0
	ldr	r3, .L1208
	ldr	r2, .L1208+4
.LPIC61:
	add	r3, pc, r3
	push	{r4, r5, r6, lr}
	mov	r4, r0
	ldr	r3, [r3, r2]
	cmp	r3, #0
	beq	.L1197
	add	r3, r0, #28
	mcr	p15, 0, r0, c7, c10, 5
.L1204:
	ldrex	r2, [r3]
	sub	r1, r2, #1
	strex	ip, r1, [r3]
	cmp	ip, #0
	bne	.L1204
	cmp	r2, #1
	mcr	p15, 0, r0, c7, c10, 5
	popne	{r4, r5, r6, pc}
	mov	r5, r4
	ldr	r3, [r5], #32
	ldr	r3, [r3, #8]
	blx	r3
	mcr	p15, 0, r0, c7, c10, 5
	mcr	p15, 0, r0, c7, c10, 5
.L1203:
	ldrex	r3, [r5]
	sub	r2, r3, #1
	strex	r1, r2, [r5]
	cmp	r1, #0
	bne	.L1203
	mcr	p15, 0, r0, c7, c10, 5
.L1202:
	cmp	r3, #1
	popne	{r4, r5, r6, pc}
	ldr	r3, [r4]
	mov	r0, r4
	pop	{r4, r5, r6, lr}
	ldr	r3, [r3, #12]
	bx	r3	@ indirect register sibling call
.L1197:
	ldr	r3, [r0, #28]
	cmp	r3, #1
	sub	r3, r3, #1
	str	r3, [r0, #28]
	popne	{r4, r5, r6, pc}
	ldr	r3, [r0]
	ldr	r3, [r3, #8]
	blx	r3
	mcr	p15, 0, r0, c7, c10, 5
	ldr	r3, [r4, #32]
	sub	r2, r3, #1
	str	r2, [r4, #32]
	b	.L1202
.L1209:
	.align	2
.L1208:
	.word	_GLOBAL_OFFSET_TABLE_-(.LPIC61+8)
	.word	_ZL28__gthrw___pthread_key_createPjPFvPvE(GOT)
	.cantunwind
	.fnend
	.size	_ZNSt16_Sp_counted_baseILN9__gnu_cxx12_Lock_policyE1EE10_M_releaseEv, .-_ZNSt16_Sp_counted_baseILN9__gnu_cxx12_Lock_policyE1EE10_M_releaseEv
	.text
	.align	2
	.global	_ZN8opendnp38MContext14StartTask_IdleEv
	.syntax unified
	.arm
	.fpu vfp
	.type	_ZN8opendnp38MContext14StartTask_IdleEv, %function
_ZN8opendnp38MContext14StartTask_IdleEv:
	.fnstart
.LFB3322:
	@ args = 0, pretend = 0, frame = 32
	@ frame_needed = 0, uses_anonymous_args = 0
	ldrb	r3, [r0, #109]	@ zero_extendqisi2
	push	{r4, r5, r6, r7, r8, lr}
	.save {r4, r5, r6, r7, r8, lr}
	.pad #32
	sub	sp, sp, #32
	ldr	r5, .L1246
	cmp	r3, #0
.LPIC64:
	add	r5, pc, r5
	movne	r4, #0
	beq	.L1244
.L1210:
	mov	r0, r4
	add	sp, sp, #32
	@ sp needed
	pop	{r4, r5, r6, r7, r8, pc}
.L1244:
	mov	r4, r0
	mov	r0, sp
.LEHB8:
	bl	_ZN7openpal18MonotonicTimestampC1Ev(PLT)
	ldr	r3, [r4, #28]
	add	r7, sp, #16
	mov	r1, r3
	ldr	r3, [r3]
	mov	r0, r7
	add	r8, sp, #8
	ldr	r3, [r3, #8]
	blx	r3
	mov	r3, sp
	mov	r2, r7
	mov	r0, r8
	add	r1, r4, #212
	bl	_ZN8opendnp315MasterScheduler7GetNextERKN7openpal18MonotonicTimestampERS2_(PLT)
.LEHE8:
	ldr	r3, [sp, #8]
	cmp	r3, #0
	beq	.L1212
	mov	r1, r8
	mov	r0, r4
.LEHB9:
	bl	_ZN8opendnp38MContext12BeginNewTaskERKSt10shared_ptrINS_11IMasterTaskEE(PLT)
	mov	r4, r0
.L1213:
	ldr	r6, [sp, #12]
	cmp	r6, #0
	beq	.L1210
	ldr	r3, .L1246+4
	ldr	r3, [r5, r3]
	cmp	r3, #0
	beq	.L1218
	add	r3, r6, #28
	mcr	p15, 0, r0, c7, c10, 5
.L1240:
	ldrex	r2, [r3]
	sub	r1, r2, #1
	strex	r0, r1, [r3]
	cmp	r0, #0
	bne	.L1240
	cmp	r2, #1
	mcr	p15, 0, r0, c7, c10, 5
	bne	.L1210
	ldr	r3, [r6]
	mov	r0, r6
	ldr	r3, [r3, #8]
	blx	r3
	add	r3, r6, #32
	mcr	p15, 0, r0, c7, c10, 5
	mcr	p15, 0, r0, c7, c10, 5
.L1239:
	ldrex	r2, [r3]
	sub	r1, r2, #1
	strex	r0, r1, [r3]
	cmp	r0, #0
	bne	.L1239
	mcr	p15, 0, r0, c7, c10, 5
.L1222:
	cmp	r2, #1
	bne	.L1210
	ldr	r3, [r6]
	mov	r0, r6
	ldr	r3, [r3, #12]
	blx	r3
	b	.L1210
.L1218:
	ldr	r3, [r6, #28]
	cmp	r3, #1
	sub	r3, r3, #1
	str	r3, [r6, #28]
	bne	.L1210
	ldr	r3, [r6]
	mov	r0, r6
	ldr	r3, [r3, #8]
	blx	r3
	mcr	p15, 0, r0, c7, c10, 5
	ldr	r2, [r6, #32]
	sub	r3, r2, #1
	str	r3, [r6, #32]
	b	.L1222
.L1212:
	mov	r0, sp
	bl	_ZNK7openpal18MonotonicTimestamp5IsMaxEv(PLT)
.LEHE9:
	cmp	r0, #0
	beq	.L1245
.L1224:
	mov	r4, #0
	b	.L1213
.L1245:
	ldr	ip, .L1246+8
	ldr	r3, .L1246+12
	add	lr, r4, #128
.LPIC62:
	add	ip, pc, ip
.LPIC63:
	add	r3, pc, r3
	mov	r1, sp
	mov	r0, lr
	mov	r2, r7
	str	r4, [sp, #20]
	str	lr, [sp, #16]
	str	ip, [sp, #28]
	str	r3, [sp, #24]
.LEHB10:
	bl	_ZN7openpal8TimerRef13RestartActionERKNS_18MonotonicTimestampERKSt8functionIFvvEE(PLT)
.LEHE10:
	ldr	r3, [sp, #24]
	cmp	r3, #0
	beq	.L1224
	mov	r2, #3
	mov	r1, r7
	mov	r0, r7
	blx	r3
	b	.L1224
.L1225:
.L1217:
	ldr	r0, [sp, #12]
	cmp	r0, #0
	beq	.L1221
	bl	_ZNSt16_Sp_counted_baseILN9__gnu_cxx12_Lock_policyE1EE10_M_releaseEv(PLT)
.L1221:
.LEHB11:
	bl	__cxa_end_cleanup(PLT)
.LEHE11:
.L1226:
	ldr	r3, [sp, #24]
	cmp	r3, #0
	beq	.L1217
	mov	r2, #3
	mov	r1, r7
	mov	r0, r7
	blx	r3
	b	.L1217
.L1247:
	.align	2
.L1246:
	.word	_GLOBAL_OFFSET_TABLE_-(.LPIC64+8)
	.word	_ZL28__gthrw___pthread_key_createPjPFvPvE(GOT)
	.word	_ZNSt17_Function_handlerIFvvEZN7openpal8TimerRef7RestartIZN8opendnp38MContext14StartTask_IdleEvEUlvE_EEvRKNS1_18MonotonicTimestampERKT_EUlvE_E9_M_invokeERKSt9_Any_data-(.LPIC62+8)
	.word	_ZNSt14_Function_base13_Base_managerIZN7openpal8TimerRef7RestartIZN8opendnp38MContext14StartTask_IdleEvEUlvE_EEvRKNS1_18MonotonicTimestampERKT_EUlvE_E10_M_managerERSt9_Any_dataRKSF_St18_Manager_operation-(.LPIC63+8)
	.personality	__gxx_personality_v0
	.handlerdata
.LLSDA3322:
	.byte	0xff
	.byte	0xff
	.byte	0x1
	.uleb128 .LLSDACSE3322-.LLSDACSB3322
.LLSDACSB3322:
	.uleb128 .LEHB8-.LFB3322
	.uleb128 .LEHE8-.LEHB8
	.uleb128 0
	.uleb128 0
	.uleb128 .LEHB9-.LFB3322
	.uleb128 .LEHE9-.LEHB9
	.uleb128 .L1225-.LFB3322
	.uleb128 0
	.uleb128 .LEHB10-.LFB3322
	.uleb128 .LEHE10-.LEHB10
	.uleb128 .L1226-.LFB3322
	.uleb128 0
	.uleb128 .LEHB11-.LFB3322
	.uleb128 .LEHE11-.LEHB11
	.uleb128 0
	.uleb128 0
.LLSDACSE3322:
	.text
	.fnend
	.size	_ZN8opendnp38MContext14StartTask_IdleEv, .-_ZN8opendnp38MContext14StartTask_IdleEv
	.align	2
	.global	_ZN8opendnp38MContext12OnStartEventEv
	.syntax unified
	.arm
	.fpu vfp
	.type	_ZN8opendnp38MContext12OnStartEventEv, %function
_ZN8opendnp38MContext12OnStartEventEv:
	.fnstart
.LFB3320:
	@ args = 0, pretend = 0, frame = 0
	@ frame_needed = 0, uses_anonymous_args = 0
	@ link register save eliminated.
	ldr	r3, [r0, #280]
	cmp	r3, #0
	beq	.L1250
	cmp	r3, #1
	bne	.L1254
	b	_ZN8opendnp38MContext19StartTask_TaskReadyEv(PLT)
.L1254:
	mov	r0, r3
	bx	lr
.L1250:
	b	_ZN8opendnp38MContext14StartTask_IdleEv(PLT)
	.cantunwind
	.fnend
	.size	_ZN8opendnp38MContext12OnStartEventEv, .-_ZN8opendnp38MContext12OnStartEventEv
	.align	2
	.global	_ZN8opendnp38MContext12CheckForTaskEv
	.syntax unified
	.arm
	.fpu vfp
	.type	_ZN8opendnp38MContext12CheckForTaskEv, %function
_ZN8opendnp38MContext12CheckForTaskEv:
	.fnstart
.LFB3249:
	@ args = 0, pretend = 0, frame = 0
	@ frame_needed = 0, uses_anonymous_args = 0
	ldrb	r2, [r0, #108]	@ zero_extendqisi2
	cmp	r2, #0
	bxeq	lr
	push	{r4, lr}
	.save {r4, lr}
	mov	r4, r0
	bl	_ZN8opendnp38MContext12OnStartEventEv(PLT)
	str	r0, [r4, #280]
	pop	{r4, pc}
	.fnend
	.size	_ZN8opendnp38MContext12CheckForTaskEv, .-_ZN8opendnp38MContext12CheckForTaskEv
	.align	2
	.syntax unified
	.arm
	.fpu vfp
	.type	_ZNSt17_Function_handlerIFvvEZN8opendnp38MContext16PostCheckForTaskEvEUlvE_E9_M_invokeERKSt9_Any_data, %function
_ZNSt17_Function_handlerIFvvEZN8opendnp38MContext16PostCheckForTaskEvEUlvE_E9_M_invokeERKSt9_Any_data:
	.fnstart
.LFB3916:
	@ args = 0, pretend = 0, frame = 0
	@ frame_needed = 0, uses_anonymous_args = 0
	@ link register save eliminated.
	ldr	r0, [r0]
	b	_ZN8opendnp38MContext12CheckForTaskEv(PLT)
	.cantunwind
	.fnend
	.size	_ZNSt17_Function_handlerIFvvEZN8opendnp38MContext16PostCheckForTaskEvEUlvE_E9_M_invokeERKSt9_Any_data, .-_ZNSt17_Function_handlerIFvvEZN8opendnp38MContext16PostCheckForTaskEvEUlvE_E9_M_invokeERKSt9_Any_data
	.align	2
	.global	_ZN8opendnp38MContext17ScheduleAdhocTaskERKSt10shared_ptrINS_11IMasterTaskEE
	.syntax unified
	.arm
	.fpu vfp
	.type	_ZN8opendnp38MContext17ScheduleAdhocTaskERKSt10shared_ptrINS_11IMasterTaskEE, %function
_ZN8opendnp38MContext17ScheduleAdhocTaskERKSt10shared_ptrINS_11IMasterTaskEE:
	.fnstart
.LFB3313:
	@ args = 0, pretend = 0, frame = 16
	@ frame_needed = 0, uses_anonymous_args = 0
	ldr	r3, [r0, #28]
	push	{r4, r5, r6, r7, r8, lr}
	.save {r4, r5, r6, r7, r8, lr}
	mov	r6, r1
	mov	r1, r3
	ldr	r3, [r3]
	.pad #16
	sub	sp, sp, #16
	add	r5, sp, #8
	mov	r4, r0
	ldr	r3, [r3, #8]
	mov	r0, r5
	blx	r3
	ldr	r8, [r6]
	mov	r1, r5
	add	r2, r4, #72
	mov	r0, sp
	bl	_ZNK7openpal18MonotonicTimestamp3AddERKNS_12TimeDurationE(PLT)
	ldrd	r2, [sp]
	mov	r0, r8
	bl	_ZN8opendnp311IMasterTask24ConfigureStartExpirationEN7openpal18MonotonicTimestampE(PLT)
	ldrb	r3, [r4, #108]	@ zero_extendqisi2
	ldr	r7, .L1271
	cmp	r3, #0
.LPIC65:
	add	r7, pc, r7
	beq	.L1266
	ldr	r2, [r4]
	ldr	r3, .L1271+4
	ldr	r2, [r2, #32]
	ldr	r3, [r7, r3]
	cmp	r2, r3
	bne	.L1267
.L1269:
	mov	r1, r6
	add	r0, r4, #212
	bl	_ZN8opendnp315MasterScheduler8ScheduleERKSt10shared_ptrINS_11IMasterTaskEE(PLT)
	mov	r0, r4
	bl	_ZN8opendnp38MContext12CheckForTaskEv(PLT)
	add	sp, sp, #16
	@ sp needed
	pop	{r4, r5, r6, r7, r8, pc}
.L1266:
	ldr	r0, [r6]
	ldrd	r2, [sp, #8]
	bl	_ZN8opendnp311IMasterTask17OnLowerLayerCloseEN7openpal18MonotonicTimestampE(PLT)
	add	sp, sp, #16
	@ sp needed
	pop	{r4, r5, r6, r7, r8, pc}
.L1267:
	mov	r1, r6
	mov	r0, r4
	blx	r2
	cmp	r0, #0
	bne	.L1269
	ldr	r0, [r6]
	ldrd	r2, [sp, #8]
	bl	_ZN8opendnp311IMasterTask8OnNoUserEN7openpal18MonotonicTimestampE(PLT)
	add	sp, sp, #16
	@ sp needed
	pop	{r4, r5, r6, r7, r8, pc}
.L1272:
	.align	2
.L1271:
	.word	_GLOBAL_OFFSET_TABLE_-(.LPIC65+8)
	.word	_ZN8opendnp38MContext21MeetsUserRequirementsERKSt10shared_ptrINS_11IMasterTaskEE(GOT)
	.fnend
	.size	_ZN8opendnp38MContext17ScheduleAdhocTaskERKSt10shared_ptrINS_11IMasterTaskEE, .-_ZN8opendnp38MContext17ScheduleAdhocTaskERKSt10shared_ptrINS_11IMasterTaskEE
	.align	2
	.syntax unified
	.arm
	.fpu vfp
	.type	_ZNSt17_Function_handlerIFvvEZN7openpal8TimerRef7RestartIZN8opendnp38MContext14StartTask_IdleEvEUlvE_EEvRKNS1_18MonotonicTimestampERKT_EUlvE_E9_M_invokeERKSt9_Any_data, %function
_ZNSt17_Function_handlerIFvvEZN7openpal8TimerRef7RestartIZN8opendnp38MContext14StartTask_IdleEvEUlvE_EEvRKNS1_18MonotonicTimestampERKT_EUlvE_E9_M_invokeERKSt9_Any_data:
	.fnstart
.LFB4165:
	@ args = 0, pretend = 0, frame = 0
	@ frame_needed = 0, uses_anonymous_args = 0
	@ link register save eliminated.
	ldr	r3, [r0]
	mov	r2, #0
	ldr	r0, [r0, #4]
	str	r2, [r3, #4]
	b	_ZN8opendnp38MContext12CheckForTaskEv(PLT)
	.cantunwind
	.fnend
	.size	_ZNSt17_Function_handlerIFvvEZN7openpal8TimerRef7RestartIZN8opendnp38MContext14StartTask_IdleEvEUlvE_EEvRKNS1_18MonotonicTimestampERKT_EUlvE_E9_M_invokeERKSt9_Any_data, .-_ZNSt17_Function_handlerIFvvEZN7openpal8TimerRef7RestartIZN8opendnp38MContext14StartTask_IdleEvEUlvE_EEvRKNS1_18MonotonicTimestampERKT_EUlvE_E9_M_invokeERKSt9_Any_data
	.align	2
	.global	_ZN8opendnp38MContext12OnSendResultEb
	.syntax unified
	.arm
	.fpu vfp
	.type	_ZN8opendnp38MContext12OnSendResultEb, %function
_ZN8opendnp38MContext12OnSendResultEb:
	.fnstart
.LFB3248:
	@ args = 0, pretend = 0, frame = 0
	@ frame_needed = 0, uses_anonymous_args = 0
	push	{r4, r5, r6, lr}
	.save {r4, r5, r6, lr}
	ldrb	r4, [r0, #108]	@ zero_extendqisi2
	cmp	r4, #0
	beq	.L1275
	ldrb	r4, [r0, #109]	@ zero_extendqisi2
	mov	r5, r0
	cmp	r4, #0
	bne	.L1283
.L1275:
	mov	r0, r4
	pop	{r4, r5, r6, pc}
.L1283:
	mov	r3, #0
	strb	r3, [r0, #109]
	bl	_ZN8opendnp38MContext20CheckConfirmTransmitEv(PLT)
	mov	r0, r5
	bl	_ZN8opendnp38MContext12CheckForTaskEv(PLT)
	mov	r0, r4
	pop	{r4, r5, r6, pc}
	.fnend
	.size	_ZN8opendnp38MContext12OnSendResultEb, .-_ZN8opendnp38MContext12OnSendResultEb
	.align	2
	.global	_ZN8opendnp38MContext13DirectOperateEONS_10CommandSetERKSt8functionIFvRKNS_18ICommandTaskResultEEERKNS_10TaskConfigE
	.syntax unified
	.arm
	.fpu vfp
	.type	_ZN8opendnp38MContext13DirectOperateEONS_10CommandSetERKSt8functionIFvRKNS_18ICommandTaskResultEEERKNS_10TaskConfigE, %function
_ZN8opendnp38MContext13DirectOperateEONS_10CommandSetERKSt8functionIFvRKNS_18ICommandTaskResultEEERKNS_10TaskConfigE:
	.fnstart
.LFB3254:
	@ args = 0, pretend = 0, frame = 24
	@ frame_needed = 0, uses_anonymous_args = 0
	push	{r4, r5, r6, r7, lr}
	.save {r4, r5, r6, r7, lr}
	mov	r4, r0
	ldr	r0, [r0, #16]
	.pad #36
	sub	sp, sp, #36
	ldr	ip, [r4, #12]
	ldr	r5, .L1346
	cmp	r0, #0
	mov	lr, r2
	str	r0, [sp, #20]
	str	ip, [sp, #16]
	ldr	r2, [r4, #96]
.LPIC66:
	add	r5, pc, r5
	beq	.L1285
	ldr	ip, .L1346+4
	ldr	ip, [r5, ip]
	cmp	ip, #0
	beq	.L1286
	add	r0, r0, #28
	mcr	p15, 0, r0, c7, c10, 5
.L1334:
	ldrex	ip, [r0]
	add	ip, ip, #1
	strex	r6, ip, [r0]
	cmp	r6, #0
	bne	.L1334
	mcr	p15, 0, r0, c7, c10, 5
	ldr	ip, [r4, #24]
	ldr	r0, [r4, #20]
	cmp	ip, #0
	str	r0, [sp, #24]
	str	ip, [sp, #28]
	beq	.L1288
.L1336:
	add	ip, ip, #28
	mcr	p15, 0, r0, c7, c10, 5
.L1333:
	ldrex	r0, [ip]
	add	r0, r0, #1
	strex	r6, r0, [ip]
	cmp	r6, #0
	bne	.L1333
	mcr	p15, 0, r0, c7, c10, 5
.L1288:
	add	r6, sp, #8
	add	r7, sp, #16
	str	r3, [sp]
	mov	r0, r6
	mov	r3, lr
	str	r7, [sp, #4]
.LEHB12:
	bl	_ZN8opendnp311CommandTask19CreateDirectOperateEONS_10CommandSetERNS_18IMasterApplicationERKSt8functionIFvRKNS_18ICommandTaskResultEEERKNS_10TaskConfigEN7openpal6LoggerE(PLT)
.LEHE12:
	mov	r1, r6
	mov	r0, r4
.LEHB13:
	bl	_ZN8opendnp38MContext17ScheduleAdhocTaskERKSt10shared_ptrINS_11IMasterTaskEE(PLT)
.LEHE13:
	ldr	r4, [sp, #12]
	cmp	r4, #0
	beq	.L1292
	ldr	r3, .L1346+4
	ldr	r3, [r5, r3]
	cmp	r3, #0
	beq	.L1293
	add	r3, r4, #28
	mcr	p15, 0, r0, c7, c10, 5
.L1332:
	ldrex	r2, [r3]
	sub	r1, r2, #1
	strex	r0, r1, [r3]
	cmp	r0, #0
	bne	.L1332
	cmp	r2, #1
	mcr	p15, 0, r0, c7, c10, 5
	beq	.L1343
.L1292:
	ldr	r4, [sp, #28]
	cmp	r4, #0
	beq	.L1298
	ldr	r3, .L1346+4
	ldr	r3, [r5, r3]
	cmp	r3, #0
	beq	.L1299
	add	r3, r4, #28
	mcr	p15, 0, r0, c7, c10, 5
.L1331:
	ldrex	r2, [r3]
	sub	r1, r2, #1
	strex	r0, r1, [r3]
	cmp	r0, #0
	bne	.L1331
	cmp	r2, #1
	mcr	p15, 0, r0, c7, c10, 5
	beq	.L1344
.L1298:
	ldr	r4, [sp, #20]
	cmp	r4, #0
	beq	.L1284
	ldr	r3, .L1346+4
	ldr	r3, [r5, r3]
	cmp	r3, #0
	beq	.L1305
	add	r3, r4, #28
	mcr	p15, 0, r0, c7, c10, 5
.L1330:
	ldrex	r2, [r3]
	sub	r1, r2, #1
	strex	r0, r1, [r3]
	cmp	r0, #0
	bne	.L1330
	cmp	r2, #1
	mcr	p15, 0, r0, c7, c10, 5
	beq	.L1345
.L1284:
	add	sp, sp, #36
	@ sp needed
	pop	{r4, r5, r6, r7, pc}
.L1299:
	ldr	r3, [r4, #28]
	cmp	r3, #1
	sub	r3, r3, #1
	str	r3, [r4, #28]
	bne	.L1298
	ldr	r3, [r4]
	mov	r0, r4
	ldr	r3, [r3, #8]
	blx	r3
	mcr	p15, 0, r0, c7, c10, 5
	ldr	r2, [r4, #32]
	sub	r3, r2, #1
	str	r3, [r4, #32]
	b	.L1314
.L1286:
	ldr	r6, [r0, #28]
	ldr	ip, [r4, #24]
	add	r6, r6, #1
	str	r6, [r0, #28]
	ldr	r0, [r4, #20]
	cmp	ip, #0
	str	ip, [sp, #28]
	str	r0, [sp, #24]
	beq	.L1288
.L1289:
	ldr	r0, [ip, #28]
	add	r0, r0, #1
	str	r0, [ip, #28]
	b	.L1288
.L1305:
	ldr	r3, [r4, #28]
	cmp	r3, #1
	sub	r3, r3, #1
	str	r3, [r4, #28]
	bne	.L1284
	ldr	r3, [r4]
	mov	r0, r4
	ldr	r3, [r3, #8]
	blx	r3
	mcr	p15, 0, r0, c7, c10, 5
	ldr	r2, [r4, #32]
	sub	r3, r2, #1
	str	r3, [r4, #32]
	b	.L1315
.L1293:
	ldr	r3, [r4, #28]
	cmp	r3, #1
	sub	r3, r3, #1
	str	r3, [r4, #28]
	bne	.L1292
	ldr	r3, [r4]
	mov	r0, r4
	ldr	r3, [r3, #8]
	blx	r3
	mcr	p15, 0, r0, c7, c10, 5
	ldr	r2, [r4, #32]
	sub	r3, r2, #1
	str	r3, [r4, #32]
	b	.L1313
.L1343:
	ldr	r3, [r4]
	mov	r0, r4
	ldr	r3, [r3, #8]
	blx	r3
	add	r3, r4, #32
	mcr	p15, 0, r0, c7, c10, 5
	mcr	p15, 0, r0, c7, c10, 5
.L1329:
	ldrex	r2, [r3]
	sub	r1, r2, #1
	strex	r0, r1, [r3]
	cmp	r0, #0
	bne	.L1329
	mcr	p15, 0, r0, c7, c10, 5
.L1313:
	cmp	r2, #1
	bne	.L1292
	ldr	r3, [r4]
	mov	r0, r4
	ldr	r3, [r3, #12]
	blx	r3
	b	.L1292
.L1345:
	ldr	r3, [r4]
	mov	r0, r4
	ldr	r3, [r3, #8]
	blx	r3
	add	r3, r4, #32
	mcr	p15, 0, r0, c7, c10, 5
	mcr	p15, 0, r0, c7, c10, 5
.L1327:
	ldrex	r2, [r3]
	sub	r1, r2, #1
	strex	r0, r1, [r3]
	cmp	r0, #0
	bne	.L1327
	mcr	p15, 0, r0, c7, c10, 5
.L1315:
	cmp	r2, #1
	bne	.L1284
	ldr	r3, [r4]
	mov	r0, r4
	ldr	r3, [r3, #12]
	blx	r3
	b	.L1284
.L1344:
	ldr	r3, [r4]
	mov	r0, r4
	ldr	r3, [r3, #8]
	blx	r3
	add	r3, r4, #32
	mcr	p15, 0, r0, c7, c10, 5
	mcr	p15, 0, r0, c7, c10, 5
.L1328:
	ldrex	r2, [r3]
	sub	r1, r2, #1
	strex	r0, r1, [r3]
	cmp	r0, #0
	bne	.L1328
	mcr	p15, 0, r0, c7, c10, 5
.L1314:
	cmp	r2, #1
	bne	.L1298
	ldr	r3, [r4]
	mov	r0, r4
	ldr	r3, [r3, #12]
	blx	r3
	b	.L1298
.L1285:
	ldr	ip, [r4, #24]
	ldr	r0, [r4, #20]
	cmp	ip, #0
	str	ip, [sp, #28]
	str	r0, [sp, #24]
	beq	.L1288
	ldr	r0, .L1346+4
	ldr	r0, [r5, r0]
	cmp	r0, #0
	bne	.L1336
	b	.L1289
.L1317:
	ldr	r0, [sp, #12]
	cmp	r0, #0
	beq	.L1311
	bl	_ZNSt16_Sp_counted_baseILN9__gnu_cxx12_Lock_policyE1EE10_M_releaseEv(PLT)
.L1311:
	mov	r0, r7
	bl	_ZN7openpal6LoggerD1Ev(PLT)
.LEHB14:
	bl	__cxa_end_cleanup(PLT)
.LEHE14:
.L1316:
	b	.L1311
.L1347:
	.align	2
.L1346:
	.word	_GLOBAL_OFFSET_TABLE_-(.LPIC66+8)
	.word	_ZL28__gthrw___pthread_key_createPjPFvPvE(GOT)
	.personality	__gxx_personality_v0
	.handlerdata
.LLSDA3254:
	.byte	0xff
	.byte	0xff
	.byte	0x1
	.uleb128 .LLSDACSE3254-.LLSDACSB3254
.LLSDACSB3254:
	.uleb128 .LEHB12-.LFB3254
	.uleb128 .LEHE12-.LEHB12
	.uleb128 .L1316-.LFB3254
	.uleb128 0
	.uleb128 .LEHB13-.LFB3254
	.uleb128 .LEHE13-.LEHB13
	.uleb128 .L1317-.LFB3254
	.uleb128 0
	.uleb128 .LEHB14-.LFB3254
	.uleb128 .LEHE14-.LEHB14
	.uleb128 0
	.uleb128 0
.LLSDACSE3254:
	.text
	.fnend
	.size	_ZN8opendnp38MContext13DirectOperateEONS_10CommandSetERKSt8functionIFvRKNS_18ICommandTaskResultEEERKNS_10TaskConfigE, .-_ZN8opendnp38MContext13DirectOperateEONS_10CommandSetERKSt8functionIFvRKNS_18ICommandTaskResultEEERKNS_10TaskConfigE
	.align	2
	.global	_ZN8opendnp38MContext16SelectAndOperateEONS_10CommandSetERKSt8functionIFvRKNS_18ICommandTaskResultEEERKNS_10TaskConfigE
	.syntax unified
	.arm
	.fpu vfp
	.type	_ZN8opendnp38MContext16SelectAndOperateEONS_10CommandSetERKSt8functionIFvRKNS_18ICommandTaskResultEEERKNS_10TaskConfigE, %function
_ZN8opendnp38MContext16SelectAndOperateEONS_10CommandSetERKSt8functionIFvRKNS_18ICommandTaskResultEEERKNS_10TaskConfigE:
	.fnstart
.LFB3256:
	@ args = 0, pretend = 0, frame = 24
	@ frame_needed = 0, uses_anonymous_args = 0
	push	{r4, r5, r6, r7, lr}
	.save {r4, r5, r6, r7, lr}
	mov	r4, r0
	ldr	r0, [r0, #16]
	.pad #36
	sub	sp, sp, #36
	ldr	ip, [r4, #12]
	ldr	r5, .L1410
	cmp	r0, #0
	mov	lr, r2
	str	r0, [sp, #20]
	str	ip, [sp, #16]
	ldr	r2, [r4, #96]
.LPIC67:
	add	r5, pc, r5
	beq	.L1349
	ldr	ip, .L1410+4
	ldr	ip, [r5, ip]
	cmp	ip, #0
	beq	.L1350
	add	r0, r0, #28
	mcr	p15, 0, r0, c7, c10, 5
.L1398:
	ldrex	ip, [r0]
	add	ip, ip, #1
	strex	r6, ip, [r0]
	cmp	r6, #0
	bne	.L1398
	mcr	p15, 0, r0, c7, c10, 5
	ldr	ip, [r4, #24]
	ldr	r0, [r4, #20]
	cmp	ip, #0
	str	r0, [sp, #24]
	str	ip, [sp, #28]
	beq	.L1352
.L1400:
	add	ip, ip, #28
	mcr	p15, 0, r0, c7, c10, 5
.L1397:
	ldrex	r0, [ip]
	add	r0, r0, #1
	strex	r6, r0, [ip]
	cmp	r6, #0
	bne	.L1397
	mcr	p15, 0, r0, c7, c10, 5
.L1352:
	add	r6, sp, #8
	add	r7, sp, #16
	str	r3, [sp]
	mov	r0, r6
	mov	r3, lr
	str	r7, [sp, #4]
.LEHB15:
	bl	_ZN8opendnp311CommandTask22CreateSelectAndOperateEONS_10CommandSetERNS_18IMasterApplicationERKSt8functionIFvRKNS_18ICommandTaskResultEEERKNS_10TaskConfigEN7openpal6LoggerE(PLT)
.LEHE15:
	mov	r1, r6
	mov	r0, r4
.LEHB16:
	bl	_ZN8opendnp38MContext17ScheduleAdhocTaskERKSt10shared_ptrINS_11IMasterTaskEE(PLT)
.LEHE16:
	ldr	r4, [sp, #12]
	cmp	r4, #0
	beq	.L1356
	ldr	r3, .L1410+4
	ldr	r3, [r5, r3]
	cmp	r3, #0
	beq	.L1357
	add	r3, r4, #28
	mcr	p15, 0, r0, c7, c10, 5
.L1396:
	ldrex	r2, [r3]
	sub	r1, r2, #1
	strex	r0, r1, [r3]
	cmp	r0, #0
	bne	.L1396
	cmp	r2, #1
	mcr	p15, 0, r0, c7, c10, 5
	beq	.L1407
.L1356:
	ldr	r4, [sp, #28]
	cmp	r4, #0
	beq	.L1362
	ldr	r3, .L1410+4
	ldr	r3, [r5, r3]
	cmp	r3, #0
	beq	.L1363
	add	r3, r4, #28
	mcr	p15, 0, r0, c7, c10, 5
.L1395:
	ldrex	r2, [r3]
	sub	r1, r2, #1
	strex	r0, r1, [r3]
	cmp	r0, #0
	bne	.L1395
	cmp	r2, #1
	mcr	p15, 0, r0, c7, c10, 5
	beq	.L1408
.L1362:
	ldr	r4, [sp, #20]
	cmp	r4, #0
	beq	.L1348
	ldr	r3, .L1410+4
	ldr	r3, [r5, r3]
	cmp	r3, #0
	beq	.L1369
	add	r3, r4, #28
	mcr	p15, 0, r0, c7, c10, 5
.L1394:
	ldrex	r2, [r3]
	sub	r1, r2, #1
	strex	r0, r1, [r3]
	cmp	r0, #0
	bne	.L1394
	cmp	r2, #1
	mcr	p15, 0, r0, c7, c10, 5
	beq	.L1409
.L1348:
	add	sp, sp, #36
	@ sp needed
	pop	{r4, r5, r6, r7, pc}
.L1363:
	ldr	r3, [r4, #28]
	cmp	r3, #1
	sub	r3, r3, #1
	str	r3, [r4, #28]
	bne	.L1362
	ldr	r3, [r4]
	mov	r0, r4
	ldr	r3, [r3, #8]
	blx	r3
	mcr	p15, 0, r0, c7, c10, 5
	ldr	r2, [r4, #32]
	sub	r3, r2, #1
	str	r3, [r4, #32]
	b	.L1378
.L1350:
	ldr	r6, [r0, #28]
	ldr	ip, [r4, #24]
	add	r6, r6, #1
	str	r6, [r0, #28]
	ldr	r0, [r4, #20]
	cmp	ip, #0
	str	ip, [sp, #28]
	str	r0, [sp, #24]
	beq	.L1352
.L1353:
	ldr	r0, [ip, #28]
	add	r0, r0, #1
	str	r0, [ip, #28]
	b	.L1352
.L1369:
	ldr	r3, [r4, #28]
	cmp	r3, #1
	sub	r3, r3, #1
	str	r3, [r4, #28]
	bne	.L1348
	ldr	r3, [r4]
	mov	r0, r4
	ldr	r3, [r3, #8]
	blx	r3
	mcr	p15, 0, r0, c7, c10, 5
	ldr	r2, [r4, #32]
	sub	r3, r2, #1
	str	r3, [r4, #32]
	b	.L1379
.L1357:
	ldr	r3, [r4, #28]
	cmp	r3, #1
	sub	r3, r3, #1
	str	r3, [r4, #28]
	bne	.L1356
	ldr	r3, [r4]
	mov	r0, r4
	ldr	r3, [r3, #8]
	blx	r3
	mcr	p15, 0, r0, c7, c10, 5
	ldr	r2, [r4, #32]
	sub	r3, r2, #1
	str	r3, [r4, #32]
	b	.L1377
.L1407:
	ldr	r3, [r4]
	mov	r0, r4
	ldr	r3, [r3, #8]
	blx	r3
	add	r3, r4, #32
	mcr	p15, 0, r0, c7, c10, 5
	mcr	p15, 0, r0, c7, c10, 5
.L1393:
	ldrex	r2, [r3]
	sub	r1, r2, #1
	strex	r0, r1, [r3]
	cmp	r0, #0
	bne	.L1393
	mcr	p15, 0, r0, c7, c10, 5
.L1377:
	cmp	r2, #1
	bne	.L1356
	ldr	r3, [r4]
	mov	r0, r4
	ldr	r3, [r3, #12]
	blx	r3
	b	.L1356
.L1409:
	ldr	r3, [r4]
	mov	r0, r4
	ldr	r3, [r3, #8]
	blx	r3
	add	r3, r4, #32
	mcr	p15, 0, r0, c7, c10, 5
	mcr	p15, 0, r0, c7, c10, 5
.L1391:
	ldrex	r2, [r3]
	sub	r1, r2, #1
	strex	r0, r1, [r3]
	cmp	r0, #0
	bne	.L1391
	mcr	p15, 0, r0, c7, c10, 5
.L1379:
	cmp	r2, #1
	bne	.L1348
	ldr	r3, [r4]
	mov	r0, r4
	ldr	r3, [r3, #12]
	blx	r3
	b	.L1348
.L1408:
	ldr	r3, [r4]
	mov	r0, r4
	ldr	r3, [r3, #8]
	blx	r3
	add	r3, r4, #32
	mcr	p15, 0, r0, c7, c10, 5
	mcr	p15, 0, r0, c7, c10, 5
.L1392:
	ldrex	r2, [r3]
	sub	r1, r2, #1
	strex	r0, r1, [r3]
	cmp	r0, #0
	bne	.L1392
	mcr	p15, 0, r0, c7, c10, 5
.L1378:
	cmp	r2, #1
	bne	.L1362
	ldr	r3, [r4]
	mov	r0, r4
	ldr	r3, [r3, #12]
	blx	r3
	b	.L1362
.L1349:
	ldr	ip, [r4, #24]
	ldr	r0, [r4, #20]
	cmp	ip, #0
	str	ip, [sp, #28]
	str	r0, [sp, #24]
	beq	.L1352
	ldr	r0, .L1410+4
	ldr	r0, [r5, r0]
	cmp	r0, #0
	bne	.L1400
	b	.L1353
.L1381:
	ldr	r0, [sp, #12]
	cmp	r0, #0
	beq	.L1375
	bl	_ZNSt16_Sp_counted_baseILN9__gnu_cxx12_Lock_policyE1EE10_M_releaseEv(PLT)
.L1375:
	mov	r0, r7
	bl	_ZN7openpal6LoggerD1Ev(PLT)
.LEHB17:
	bl	__cxa_end_cleanup(PLT)
.LEHE17:
.L1380:
	b	.L1375
.L1411:
	.align	2
.L1410:
	.word	_GLOBAL_OFFSET_TABLE_-(.LPIC67+8)
	.word	_ZL28__gthrw___pthread_key_createPjPFvPvE(GOT)
	.personality	__gxx_personality_v0
	.handlerdata
.LLSDA3256:
	.byte	0xff
	.byte	0xff
	.byte	0x1
	.uleb128 .LLSDACSE3256-.LLSDACSB3256
.LLSDACSB3256:
	.uleb128 .LEHB15-.LFB3256
	.uleb128 .LEHE15-.LEHB15
	.uleb128 .L1380-.LFB3256
	.uleb128 0
	.uleb128 .LEHB16-.LFB3256
	.uleb128 .LEHE16-.LEHB16
	.uleb128 .L1381-.LFB3256
	.uleb128 0
	.uleb128 .LEHB17-.LFB3256
	.uleb128 .LEHE17-.LEHB17
	.uleb128 0
	.uleb128 0
.LLSDACSE3256:
	.text
	.fnend
	.size	_ZN8opendnp38MContext16SelectAndOperateEONS_10CommandSetERKSt8functionIFvRKNS_18ICommandTaskResultEEERKNS_10TaskConfigE, .-_ZN8opendnp38MContext16SelectAndOperateEONS_10CommandSetERKSt8functionIFvRKNS_18ICommandTaskResultEEERKNS_10TaskConfigE
	.align	2
	.global	_ZN8opendnp38MContextC2ERKN7openpal6LoggerERKSt10shared_ptrINS1_9IExecutorEERKS5_INS_11ILowerLayerEERKS5_INS_11ISOEHandlerEERKS5_INS_18IMasterApplicationEERKNS_12MasterParamsERNS_9ITaskLockE
	.syntax unified
	.arm
	.fpu vfp
	.type	_ZN8opendnp38MContextC2ERKN7openpal6LoggerERKSt10shared_ptrINS1_9IExecutorEERKS5_INS_11ILowerLayerEERKS5_INS_11ISOEHandlerEERKS5_INS_18IMasterApplicationEERKNS_12MasterParamsERNS_9ITaskLockE, %function
_ZN8opendnp38MContextC2ERKN7openpal6LoggerERKSt10shared_ptrINS1_9IExecutorEERKS5_INS_11ILowerLayerEERKS5_INS_11ISOEHandlerEERKS5_INS_18IMasterApplicationEERKNS_12MasterParamsERNS_9ITaskLockE:
	.fnstart
.LFB3243:
	@ args = 16, pretend = 0, frame = 0
	@ frame_needed = 0, uses_anonymous_args = 0
	push	{r4, r5, r6, r7, r8, r9, r10, fp, lr}
	.save {r4, r5, r6, r7, r8, r9, r10, fp, lr}
	mov	r5, r1
	ldr	r10, .L1532
	ldr	ip, .L1532+4
.LPIC68:
	add	r10, pc, r10
	mov	r4, r0
	ldr	r1, [r10, ip]
	ldr	r0, [r5, #4]
	ldr	ip, [r5]
	add	r7, r1, #8
	.pad #12
	sub	sp, sp, #12
	add	lr, r1, #64
	cmp	r0, #0
	add	r1, r1, #76
	stm	r4, {r7, lr}
	mov	r6, r2
	str	r1, [r4, #8]
	str	ip, [r4, #12]
	str	r0, [r4, #16]
	ldr	r7, [sp, #48]
	ldr	r8, [sp, #52]
	beq	.L1413
	ldr	r2, .L1532+8
	ldr	r2, [r10, r2]
	cmp	r2, #0
	beq	.L1414
	add	r0, r0, #28
	mcr	p15, 0, r0, c7, c10, 5
.L1523:
	ldrex	r2, [r0]
	add	r2, r2, #1
	strex	r1, r2, [r0]
	cmp	r1, #0
	bne	.L1523
	mcr	p15, 0, r0, c7, c10, 5
	ldr	r1, [r5, #12]
	ldr	r2, [r5, #8]
	cmp	r1, #0
	str	r2, [r4, #20]
	str	r1, [r4, #24]
	beq	.L1530
.L1525:
	add	r1, r1, #28
	mcr	p15, 0, r0, c7, c10, 5
.L1522:
	ldrex	r2, [r1]
	add	r2, r2, #1
	strex	r0, r2, [r1]
	cmp	r0, #0
	bne	.L1522
	mcr	p15, 0, r0, c7, c10, 5
	ldm	r6, {r1, r2}
	cmp	r2, #0
	str	r1, [r4, #28]
	str	r2, [r4, #32]
	beq	.L1421
.L1457:
	add	r2, r2, #28
	mcr	p15, 0, r0, c7, c10, 5
.L1521:
	ldrex	r1, [r2]
	add	r1, r1, #1
	strex	r0, r1, [r2]
	cmp	r0, #0
	bne	.L1521
	mcr	p15, 0, r0, c7, c10, 5
	ldr	r2, [r3, #4]
	ldr	r3, [r3]
	cmp	r2, #0
	str	r2, [r4, #40]
	str	r3, [r4, #36]
	addne	r2, r2, #28
	beq	.L1424
.L1454:
	mcr	p15, 0, r0, c7, c10, 5
.L1520:
	ldrex	r3, [r2]
	add	r3, r3, #1
	strex	r1, r3, [r2]
	cmp	r1, #0
	bne	.L1520
	mcr	p15, 0, r0, c7, c10, 5
	ldr	lr, [sp, #56]
	add	ip, r4, #48
	ldr	r9, [r7, #4]
	ldmia	lr!, {r0, r1, r2, r3}
	cmp	r9, #0
	ldr	fp, [r7]
	stmia	ip!, {r0, r1, r2, r3}
	ldmia	lr!, {r0, r1, r2, r3}
	stmia	ip!, {r0, r1, r2, r3}
	ldm	lr, {r0, r1}
	stm	ip, {r0, r1}
	str	r9, [r4, #92]
	str	fp, [r4, #88]
	addne	r9, r9, #28
	beq	.L1427
.L1455:
	mcr	p15, 0, r0, c7, c10, 5
.L1519:
	ldrex	r3, [r9]
	add	r3, r3, #1
	strex	r2, r3, [r9]
	cmp	r2, #0
	bne	.L1519
	mcr	p15, 0, r0, c7, c10, 5
	ldm	r8, {r2, r3}
	cmp	r3, #0
	str	r2, [r4, #96]
	str	r3, [r4, #100]
	beq	.L1430
.L1526:
	add	r3, r3, #28
	mcr	p15, 0, r0, c7, c10, 5
.L1518:
	ldrex	r2, [r3]
	add	r2, r2, #1
	strex	r1, r2, [r3]
	cmp	r1, #0
	bne	.L1518
	mcr	p15, 0, r0, c7, c10, 5
.L1430:
	ldr	r2, [sp, #60]
	mov	r3, #0
	add	r9, r4, #120
	strb	r3, [r4, #110]
	strb	r3, [r4, #111]
	str	r2, [r4, #104]
	strb	r3, [r4, #108]
	strb	r3, [r4, #109]
	str	r3, [r4, #112]
	str	r3, [r4, #116]
	ldr	r1, [r6]
	mov	r0, r9
.LEHB18:
	bl	_ZN7openpal8TimerRefC1ERNS_9IExecutorE(PLT)
.LEHE18:
	add	r10, r4, #128
	mov	r0, r10
	ldr	r1, [r6]
.LEHB19:
	bl	_ZN7openpal8TimerRefC1ERNS_9IExecutorE(PLT)
.LEHE19:
	add	fp, r4, #136
	ldr	r1, [r6]
	mov	r0, fp
.LEHB20:
	bl	_ZN7openpal8TimerRefC1ERNS_9IExecutorE(PLT)
.LEHE20:
	ldr	r2, [r7]
	add	r7, r4, #144
	ldr	r3, [r8]
	mov	r0, r7
	str	r2, [sp]
	ldr	r1, [sp, #56]
	mov	r2, r5
.LEHB21:
	bl	_ZN8opendnp311MasterTasksC1ERKNS_12MasterParamsERKN7openpal6LoggerERNS_18IMasterApplicationERNS_11ISOEHandlerE(PLT)
.LEHE21:
	add	r1, r4, #8
	add	r0, r4, #212
.LEHB22:
	bl	_ZN8opendnp315MasterSchedulerC1ERNS_11ITaskFilterE(PLT)
.LEHE22:
	mov	r3, #0
	mov	r2, #8
	str	r3, [r4, #228]
	str	r3, [r4, #236]
	str	r3, [r4, #240]
	str	r3, [r4, #244]
	str	r3, [r4, #248]
	str	r3, [r4, #252]
	str	r3, [r4, #256]
	str	r3, [r4, #260]
	str	r3, [r4, #264]
	str	r2, [r4, #232]
	mov	r0, #32
.LEHB23:
	bl	_Znwj(PLT)
.LEHE23:
	ldr	r5, [r4, #232]
	mov	r6, r0
	sub	r5, r5, #1
	str	r0, [r4, #228]
	lsr	r5, r5, #1
	ldr	r0, .L1532+12
	add	r8, r6, r5, lsl #2
.LEHB24:
	bl	_Znwj(PLT)
.LEHE24:
	add	r2, r0, #508
	add	r2, r2, #2
	str	r2, [r4, #244]
	str	r2, [r4, #260]
	ldr	r2, [sp, #56]
	mov	r3, r0
	str	r0, [r4, #240]
	str	r0, [r4, #256]
	str	r0, [r4, #236]
	str	r0, [r4, #252]
	str	r8, [r4, #248]
	str	r8, [r4, #264]
	ldr	r1, [r2, #32]
	add	r0, r4, #268
	str	r3, [r6, r5, lsl #2]
.LEHB25:
	bl	_ZN7openpal6BufferC1Ej(PLT)
.LEHE25:
	mov	r3, #0
	mov	r0, r4
	str	r3, [r4, #280]
	add	sp, sp, #12
	@ sp needed
	pop	{r4, r5, r6, r7, r8, r9, r10, fp, pc}
.L1414:
	ldr	r2, [r0, #28]
	ldr	r1, [r5, #12]
	add	r2, r2, #1
	str	r2, [r0, #28]
	ldr	r2, [r5, #8]
	cmp	r1, #0
	str	r1, [r4, #24]
	str	r2, [r4, #20]
	beq	.L1531
.L1417:
	ldr	r0, [r1, #28]
	ldr	r2, [r6, #4]
	add	r0, r0, #1
	str	r0, [r1, #28]
	ldr	r1, [r6]
	cmp	r2, #0
	str	r2, [r4, #32]
	str	r1, [r4, #28]
	beq	.L1421
.L1422:
	ldr	r1, [r3, #4]
	ldr	r0, [r2, #28]
	ldr	ip, [r3]
	cmp	r1, #0
	add	r3, r0, #1
	str	r3, [r2, #28]
	str	ip, [r4, #36]
	str	r1, [r4, #40]
	beq	.L1424
.L1425:
	ldr	r3, [r1, #28]
	ldr	r9, [sp, #56]
	add	r3, r3, #1
	str	r3, [r1, #28]
	ldmia	r9!, {r0, r1, r2, r3}
	add	lr, r4, #48
	ldr	ip, [r7, #4]
	ldr	fp, [r7]
	stmia	lr!, {r0, r1, r2, r3}
	cmp	ip, #0
	ldmia	r9!, {r0, r1, r2, r3}
	stmia	lr!, {r0, r1, r2, r3}
	ldm	r9, {r0, r1}
	stm	lr, {r0, r1}
	str	ip, [r4, #92]
	str	fp, [r4, #88]
	beq	.L1427
.L1428:
	ldr	r2, [ip, #28]
	ldr	r3, [r8, #4]
	add	r2, r2, #1
	str	r2, [ip, #28]
	ldr	r2, [r8]
	cmp	r3, #0
	str	r3, [r4, #100]
	str	r2, [r4, #96]
	beq	.L1430
.L1431:
	ldr	r2, [r3, #28]
	add	r2, r2, #1
	str	r2, [r3, #28]
	b	.L1430
.L1427:
	ldm	r8, {r2, r3}
	cmp	r3, #0
	str	r3, [r4, #100]
	str	r2, [r4, #96]
	beq	.L1430
	ldr	r2, .L1532+8
	ldr	r2, [r10, r2]
	cmp	r2, #0
	bne	.L1526
	b	.L1431
.L1530:
	ldm	r6, {r1, r2}
	cmp	r2, #0
	str	r2, [r4, #32]
	str	r1, [r4, #28]
	bne	.L1457
.L1421:
	ldr	r1, [r3, #4]
	ldr	r3, [r3]
	cmp	r1, #0
	str	r3, [r4, #36]
	str	r1, [r4, #40]
	beq	.L1424
	ldr	r3, .L1532+8
	ldr	r3, [r10, r3]
	cmp	r3, #0
	beq	.L1425
	add	r2, r1, #28
	b	.L1454
.L1424:
	ldr	r9, [sp, #56]
	add	lr, r4, #48
	ldr	ip, [r7, #4]
	ldmia	r9!, {r0, r1, r2, r3}
	cmp	ip, #0
	ldr	fp, [r7]
	stmia	lr!, {r0, r1, r2, r3}
	ldmia	r9!, {r0, r1, r2, r3}
	stmia	lr!, {r0, r1, r2, r3}
	ldm	r9, {r0, r1}
	stm	lr, {r0, r1}
	str	ip, [r4, #92]
	str	fp, [r4, #88]
	beq	.L1427
	ldr	r3, .L1532+8
	ldr	r3, [r10, r3]
	cmp	r3, #0
	beq	.L1428
	add	r9, ip, #28
	b	.L1455
.L1413:
	ldr	r1, [r5, #12]
	ldr	r2, [r5, #8]
	cmp	r1, #0
	str	r1, [r4, #24]
	str	r2, [r4, #20]
	beq	.L1419
	ldr	r2, .L1532+8
	ldr	r2, [r10, r2]
	cmp	r2, #0
	bne	.L1525
	b	.L1417
.L1531:
	ldm	r6, {r1, r2}
	cmp	r2, #0
	str	r2, [r4, #32]
	str	r1, [r4, #28]
	bne	.L1422
	b	.L1421
.L1419:
	ldm	r6, {r1, r2}
	cmp	r2, #0
	str	r2, [r4, #32]
	str	r1, [r4, #28]
	beq	.L1421
	ldr	r1, .L1532+8
	ldr	r1, [r10, r1]
	cmp	r1, #0
	bne	.L1457
	b	.L1422
.L1462:
.L1442:
	mov	r0, r7
	bl	_ZN8opendnp311MasterTasksD1Ev(PLT)
.L1443:
	mov	r0, fp
	bl	_ZN7openpal8TimerRefD1Ev(PLT)
.L1444:
	mov	r0, r10
	bl	_ZN7openpal8TimerRefD1Ev(PLT)
.L1445:
	mov	r0, r9
	bl	_ZN7openpal8TimerRefD1Ev(PLT)
.L1446:
	ldr	r0, [r4, #116]
	cmp	r0, #0
	beq	.L1447
	bl	_ZNSt16_Sp_counted_baseILN9__gnu_cxx12_Lock_policyE1EE10_M_releaseEv(PLT)
.L1447:
	ldr	r0, [r4, #100]
	cmp	r0, #0
	beq	.L1448
	bl	_ZNSt16_Sp_counted_baseILN9__gnu_cxx12_Lock_policyE1EE10_M_releaseEv(PLT)
.L1448:
	ldr	r0, [r4, #92]
	cmp	r0, #0
	beq	.L1449
	bl	_ZNSt16_Sp_counted_baseILN9__gnu_cxx12_Lock_policyE1EE10_M_releaseEv(PLT)
.L1449:
	ldr	r0, [r4, #40]
	cmp	r0, #0
	beq	.L1450
	bl	_ZNSt16_Sp_counted_baseILN9__gnu_cxx12_Lock_policyE1EE10_M_releaseEv(PLT)
.L1450:
	ldr	r0, [r4, #32]
	cmp	r0, #0
	beq	.L1451
	bl	_ZNSt16_Sp_counted_baseILN9__gnu_cxx12_Lock_policyE1EE10_M_releaseEv(PLT)
.L1451:
	add	r0, r4, #12
	bl	_ZN7openpal6LoggerD1Ev(PLT)
.LEHB26:
	bl	__cxa_end_cleanup(PLT)
.LEHE26:
.L1461:
	b	.L1443
.L1460:
	b	.L1444
.L1459:
	b	.L1445
.L1466:
	bl	__cxa_begin_catch(PLT)
.LEHB27:
	bl	__cxa_rethrow(PLT)
.LEHE27:
.L1463:
.L1437:
	add	r0, r4, #216
	bl	_ZNSt6vectorISt10shared_ptrIN8opendnp311IMasterTaskEESaIS3_EED1Ev(PLT)
	b	.L1442
.L1467:
	mov	r5, r0
	bl	__cxa_end_catch(PLT)
	mov	r0, r5
	bl	__cxa_begin_catch(PLT)
	ldr	r0, [r4, #228]
	bl	_ZdlPv(PLT)
	mov	r3, #0
	str	r3, [r4, #228]
	str	r3, [r4, #232]
.LEHB28:
	bl	__cxa_rethrow(PLT)
.LEHE28:
.L1458:
	b	.L1446
.L1464:
	ldr	r0, [r4, #228]
	cmp	r0, #0
	beq	.L1437
	ldr	r5, [r4, #264]
	ldr	r6, [r4, #248]
	add	r5, r5, #4
	cmp	r6, r5
	bcs	.L1440
.L1441:
	ldr	r0, [r6], #4
	bl	_ZdlPv(PLT)
	cmp	r5, r6
	bhi	.L1441
	ldr	r0, [r4, #228]
.L1440:
	bl	_ZdlPv(PLT)
	b	.L1437
.L1465:
	bl	__cxa_end_catch(PLT)
	b	.L1437
.L1533:
	.align	2
.L1532:
	.word	_GLOBAL_OFFSET_TABLE_-(.LPIC68+8)
	.word	_ZTVN8opendnp38MContextE(GOT)
	.word	_ZL28__gthrw___pthread_key_createPjPFvPvE(GOT)
	.word	510
	.personality	__gxx_personality_v0
	.handlerdata
	.align	2
.LLSDA3243:
	.byte	0xff
	.byte	0x90
	.uleb128 .LLSDATT3243-.LLSDATTD3243
.LLSDATTD3243:
	.byte	0x1
	.uleb128 .LLSDACSE3243-.LLSDACSB3243
.LLSDACSB3243:
	.uleb128 .LEHB18-.LFB3243
	.uleb128 .LEHE18-.LEHB18
	.uleb128 .L1458-.LFB3243
	.uleb128 0
	.uleb128 .LEHB19-.LFB3243
	.uleb128 .LEHE19-.LEHB19
	.uleb128 .L1459-.LFB3243
	.uleb128 0
	.uleb128 .LEHB20-.LFB3243
	.uleb128 .LEHE20-.LEHB20
	.uleb128 .L1460-.LFB3243
	.uleb128 0
	.uleb128 .LEHB21-.LFB3243
	.uleb128 .LEHE21-.LEHB21
	.uleb128 .L1461-.LFB3243
	.uleb128 0
	.uleb128 .LEHB22-.LFB3243
	.uleb128 .LEHE22-.LEHB22
	.uleb128 .L1462-.LFB3243
	.uleb128 0
	.uleb128 .LEHB23-.LFB3243
	.uleb128 .LEHE23-.LEHB23
	.uleb128 .L1463-.LFB3243
	.uleb128 0
	.uleb128 .LEHB24-.LFB3243
	.uleb128 .LEHE24-.LEHB24
	.uleb128 .L1466-.LFB3243
	.uleb128 0x1
	.uleb128 .LEHB25-.LFB3243
	.uleb128 .LEHE25-.LEHB25
	.uleb128 .L1464-.LFB3243
	.uleb128 0
	.uleb128 .LEHB26-.LFB3243
	.uleb128 .LEHE26-.LEHB26
	.uleb128 0
	.uleb128 0
	.uleb128 .LEHB27-.LFB3243
	.uleb128 .LEHE27-.LEHB27
	.uleb128 .L1467-.LFB3243
	.uleb128 0x1
	.uleb128 .LEHB28-.LFB3243
	.uleb128 .LEHE28-.LEHB28
	.uleb128 .L1465-.LFB3243
	.uleb128 0
.LLSDACSE3243:
	.byte	0x1
	.byte	0
	.align	2
	.word	0
.LLSDATT3243:
	.text
	.fnend
	.size	_ZN8opendnp38MContextC2ERKN7openpal6LoggerERKSt10shared_ptrINS1_9IExecutorEERKS5_INS_11ILowerLayerEERKS5_INS_11ISOEHandlerEERKS5_INS_18IMasterApplicationEERKNS_12MasterParamsERNS_9ITaskLockE, .-_ZN8opendnp38MContextC2ERKN7openpal6LoggerERKSt10shared_ptrINS1_9IExecutorEERKS5_INS_11ILowerLayerEERKS5_INS_11ISOEHandlerEERKS5_INS_18IMasterApplicationEERKNS_12MasterParamsERNS_9ITaskLockE
	.global	_ZN8opendnp38MContextC1ERKN7openpal6LoggerERKSt10shared_ptrINS1_9IExecutorEERKS5_INS_11ILowerLayerEERKS5_INS_11ISOEHandlerEERKS5_INS_18IMasterApplicationEERKNS_12MasterParamsERNS_9ITaskLockE
	.set	_ZN8opendnp38MContextC1ERKN7openpal6LoggerERKSt10shared_ptrINS1_9IExecutorEERKS5_INS_11ILowerLayerEERKS5_INS_11ISOEHandlerEERKS5_INS_18IMasterApplicationEERKNS_12MasterParamsERNS_9ITaskLockE,_ZN8opendnp38MContextC2ERKN7openpal6LoggerERKSt10shared_ptrINS1_9IExecutorEERKS5_INS_11ILowerLayerEERKS5_INS_11ISOEHandlerEERKS5_INS_18IMasterApplicationEERKNS_12MasterParamsERNS_9ITaskLockE
	.align	2
	.global	_ZN8opendnp38MContext7AddScanEN7openpal12TimeDurationERKSt8functionIFbRNS_12HeaderWriterEEENS_10TaskConfigE
	.syntax unified
	.arm
	.fpu vfp
	.type	_ZN8opendnp38MContext7AddScanEN7openpal12TimeDurationERKSt8functionIFbRNS_12HeaderWriterEEENS_10TaskConfigE, %function
_ZN8opendnp38MContext7AddScanEN7openpal12TimeDurationERKSt8functionIFbRNS_12HeaderWriterEEENS_10TaskConfigE:
	.fnstart
.LFB3271:
	@ args = 16, pretend = 0, frame = 48
	@ frame_needed = 0, uses_anonymous_args = 0
	push	{r4, r5, r6, r7, r8, r9, r10, fp, lr}
	.save {r4, r5, r6, r7, r8, r9, r10, fp, lr}
	.pad #92
	sub	sp, sp, #92
	mov	r8, r0
	mov	r0, #152
	mov	r5, r1
	strd	r2, [sp, #48]
	ldr	r10, [r1, #96]
	ldr	fp, [r1, #88]
.LEHB29:
	bl	_Znwj(PLT)
.LEHE29:
	ldr	r6, .L1604
	ldr	r1, .L1604+4
.LPIC69:
	add	r6, pc, r6
	mov	r3, #0
	mov	r4, r0
	mov	r0, #1
	str	r3, [r4, #4]
	str	r3, [r4, #8]
	str	r3, [r4, #12]
	str	r3, [r4, #16]
	str	r3, [r4, #20]
	str	r3, [r4, #24]
	str	r0, [r4, #28]
	str	r0, [r4, #32]
	ldr	r2, [r6, r1]
	ldr	r1, [r5, #12]
	ldr	r3, [r5, #16]
	str	r1, [sp, #72]
	ldrd	r0, [r5, #64]
	mov	ip, r4
	add	r2, r2, #8
	cmp	r3, #0
	str	r2, [ip], #40
	str	r3, [sp, #76]
	strd	r0, [sp, #40]
	beq	.L1535
	ldr	r2, .L1604+8
	ldr	r7, [r6, r2]
	cmp	r7, #0
	beq	.L1536
	add	r3, r3, #28
	mcr	p15, 0, r0, c7, c10, 5
.L1591:
	ldrex	r2, [r3]
	add	r2, r2, #1
	strex	r1, r2, [r3]
	cmp	r1, #0
	bne	.L1591
	mcr	p15, 0, r0, c7, c10, 5
	ldr	r2, [r5, #24]
	ldr	r3, [r5, #20]
	cmp	r2, #0
	str	r3, [sp, #80]
	str	r2, [sp, #84]
	beq	.L1540
.L1593:
	add	r2, r2, #28
	mcr	p15, 0, r0, c7, c10, 5
.L1590:
	ldrex	r3, [r2]
	add	r3, r3, #1
	strex	r1, r3, [r2]
	cmp	r1, #0
	bne	.L1590
	mcr	p15, 0, r0, c7, c10, 5
.L1540:
	add	r3, sp, #132
	add	lr, sp, #28
	ldm	r3, {r0, r1, r2}
	add	r3, sp, #60
	add	r9, sp, #72
	stm	r3, {r0, r1, r2}
	stm	lr, {r0, r1, r2}
	mov	r0, ip
	ldrd	r2, [sp, #40]
	str	fp, [sp, #20]
	str	r10, [sp, #16]
	strd	r2, [sp, #8]
	ldrd	r2, [sp, #48]
	str	r9, [sp, #24]
	ldr	r1, [sp, #128]
	strd	r2, [sp]
	mov	r2, #1
.LEHB30:
	bl	_ZN8opendnp312UserPollTaskC1ERKSt8functionIFbRNS_12HeaderWriterEEEbN7openpal12TimeDurationES9_RNS_18IMasterApplicationERNS_11ISOEHandlerENS8_6LoggerENS_10TaskConfigE(PLT)
.LEHE30:
	ldr	r10, [sp, #84]
	ldr	r3, .L1604+8
	cmp	r10, #0
	ldr	r7, [r6, r3]
	beq	.L1542
	cmp	r7, #0
	beq	.L1543
	add	r3, r10, #28
	mcr	p15, 0, r0, c7, c10, 5
.L1589:
	ldrex	r2, [r3]
	sub	r1, r2, #1
	strex	r0, r1, [r3]
	cmp	r0, #0
	bne	.L1589
	cmp	r2, #1
	mcr	p15, 0, r0, c7, c10, 5
	beq	.L1600
.L1542:
	ldr	r10, [sp, #76]
	cmp	r10, #0
	beq	.L1548
	cmp	r7, #0
	beq	.L1549
	add	r3, r10, #28
	mcr	p15, 0, r0, c7, c10, 5
.L1588:
	ldrex	r2, [r3]
	sub	r1, r2, #1
	strex	r0, r1, [r3]
	cmp	r0, #0
	bne	.L1588
	cmp	r2, #1
	mcr	p15, 0, r0, c7, c10, 5
	beq	.L1601
	ldr	r3, .L1604+12
	ldr	r2, [r4]
	mov	r0, r4
	ldr	r1, [r6, r3]
	ldr	r3, [r2, #16]
	blx	r3
	str	r4, [sp, #76]
	mov	r6, r0
	str	r0, [sp, #72]
.L1555:
	add	r3, r4, #28
	mcr	p15, 0, r0, c7, c10, 5
.L1587:
	ldrex	r2, [r3]
	add	r2, r2, #1
	strex	r1, r2, [r3]
	cmp	r1, #0
	bne	.L1587
	mcr	p15, 0, r0, c7, c10, 5
.L1558:
	mov	r1, r9
	mov	r0, r5
.LEHB31:
	bl	_ZN8opendnp38MContext25ScheduleRecurringPollTaskERKSt10shared_ptrINS_11IMasterTaskEE(PLT)
.LEHE31:
	ldr	r5, [sp, #76]
	cmp	r5, #0
	beq	.L1560
	cmp	r7, #0
	beq	.L1561
	add	r3, r5, #28
	mcr	p15, 0, r0, c7, c10, 5
.L1586:
	ldrex	r2, [r3]
	sub	r1, r2, #1
	strex	r0, r1, [r3]
	cmp	r0, #0
	bne	.L1586
	cmp	r2, #1
	mcr	p15, 0, r0, c7, c10, 5
	beq	.L1602
.L1560:
	mov	r0, r8
	str	r6, [r8]
	str	r4, [r8, #4]
	add	sp, sp, #92
	@ sp needed
	pop	{r4, r5, r6, r7, r8, r9, r10, fp, pc}
.L1536:
	ldr	r1, [r3, #28]
	ldr	r2, [r5, #24]
	add	r1, r1, #1
	str	r1, [r3, #28]
	ldr	r3, [r5, #20]
	cmp	r2, #0
	str	r2, [sp, #84]
	str	r3, [sp, #80]
	beq	.L1540
.L1539:
	ldr	r3, [r2, #28]
	add	r3, r3, #1
	str	r3, [r2, #28]
	b	.L1540
.L1601:
	ldr	r3, [r10]
	mov	r0, r10
	ldr	r3, [r3, #8]
	blx	r3
	add	r3, r10, #32
	mcr	p15, 0, r0, c7, c10, 5
	mcr	p15, 0, r0, c7, c10, 5
.L1584:
	ldrex	r2, [r3]
	sub	r1, r2, #1
	strex	r0, r1, [r3]
	cmp	r0, #0
	bne	.L1584
	mcr	p15, 0, r0, c7, c10, 5
.L1569:
	cmp	r2, #1
	bne	.L1548
	ldr	r3, [r10]
	mov	r0, r10
	ldr	r3, [r3, #12]
	blx	r3
.L1548:
	ldr	r3, .L1604+12
	ldr	r2, [r4]
	mov	r0, r4
	ldr	r1, [r6, r3]
	ldr	r3, [r2, #16]
	blx	r3
	cmp	r7, #0
	str	r4, [sp, #76]
	mov	r6, r0
	str	r0, [sp, #72]
	bne	.L1555
.L1556:
	ldr	r3, [r4, #28]
	add	r3, r3, #1
	str	r3, [r4, #28]
	b	.L1558
.L1561:
	ldr	r3, [r5, #28]
	cmp	r3, #1
	sub	r3, r3, #1
	str	r3, [r5, #28]
	bne	.L1560
	ldr	r3, [r5]
	mov	r0, r5
	ldr	r3, [r3, #8]
	blx	r3
	mcr	p15, 0, r0, c7, c10, 5
	ldr	r2, [r5, #32]
	sub	r3, r2, #1
	str	r3, [r5, #32]
	b	.L1570
.L1549:
	ldr	r3, [r10, #28]
	cmp	r3, #1
	sub	r3, r3, #1
	str	r3, [r10, #28]
	beq	.L1603
	ldr	r3, .L1604+12
	ldr	r2, [r4]
	mov	r0, r4
	ldr	r1, [r6, r3]
	ldr	r3, [r2, #16]
	blx	r3
	str	r4, [sp, #76]
	mov	r6, r0
	str	r0, [sp, #72]
	b	.L1556
.L1543:
	ldr	r3, [r10, #28]
	cmp	r3, #1
	sub	r3, r3, #1
	str	r3, [r10, #28]
	bne	.L1542
	ldr	r3, [r10]
	mov	r0, r10
	ldr	r3, [r3, #8]
	blx	r3
	mcr	p15, 0, r0, c7, c10, 5
	ldr	r2, [r10, #32]
	sub	r3, r2, #1
	str	r3, [r10, #32]
	b	.L1568
.L1602:
	ldr	r3, [r5]
	mov	r0, r5
	ldr	r3, [r3, #8]
	blx	r3
	add	r3, r5, #32
	mcr	p15, 0, r0, c7, c10, 5
	mcr	p15, 0, r0, c7, c10, 5
.L1583:
	ldrex	r2, [r3]
	sub	r1, r2, #1
	strex	r0, r1, [r3]
	cmp	r0, #0
	bne	.L1583
	mcr	p15, 0, r0, c7, c10, 5
.L1570:
	cmp	r2, #1
	bne	.L1560
	ldr	r3, [r5]
	mov	r0, r5
	ldr	r3, [r3, #12]
	blx	r3
	b	.L1560
.L1535:
	ldr	r2, [r5, #24]
	ldr	r3, [r5, #20]
	cmp	r2, #0
	str	r2, [sp, #84]
	str	r3, [sp, #80]
	beq	.L1540
	ldr	r3, .L1604+8
	ldr	r7, [r6, r3]
	cmp	r7, #0
	bne	.L1593
	b	.L1539
.L1600:
	ldr	r3, [r10]
	mov	r0, r10
	ldr	r3, [r3, #8]
	blx	r3
	add	r3, r10, #32
	mcr	p15, 0, r0, c7, c10, 5
	mcr	p15, 0, r0, c7, c10, 5
.L1585:
	ldrex	r2, [r3]
	sub	r1, r2, #1
	strex	r0, r1, [r3]
	cmp	r0, #0
	bne	.L1585
	mcr	p15, 0, r0, c7, c10, 5
.L1568:
	cmp	r2, #1
	bne	.L1542
	ldr	r3, [r10]
	mov	r0, r10
	ldr	r3, [r3, #12]
	blx	r3
	b	.L1542
.L1603:
	ldr	r3, [r10]
	mov	r0, r10
	ldr	r3, [r3, #8]
	blx	r3
	mcr	p15, 0, r0, c7, c10, 5
	ldr	r2, [r10, #32]
	sub	r3, r2, #1
	str	r3, [r10, #32]
	b	.L1569
.L1573:
	mov	r0, r9
	bl	_ZN7openpal6LoggerD1Ev(PLT)
	mov	r0, r4
	bl	_ZdlPv(PLT)
.LEHB32:
	bl	__cxa_end_cleanup(PLT)
.L1572:
	ldr	r0, [sp, #76]
	cmp	r0, #0
	beq	.L1566
	bl	_ZNSt16_Sp_counted_baseILN9__gnu_cxx12_Lock_policyE1EE10_M_releaseEv(PLT)
.L1566:
	mov	r0, r4
	bl	_ZNSt16_Sp_counted_baseILN9__gnu_cxx12_Lock_policyE1EE10_M_releaseEv(PLT)
	bl	__cxa_end_cleanup(PLT)
.LEHE32:
.L1605:
	.align	2
.L1604:
	.word	_GLOBAL_OFFSET_TABLE_-(.LPIC69+8)
	.word	_ZTVSt23_Sp_counted_ptr_inplaceIN8opendnp312UserPollTaskESaIS1_ELN9__gnu_cxx12_Lock_policyE1EE(GOT)
	.word	_ZL28__gthrw___pthread_key_createPjPFvPvE(GOT)
	.word	_ZTISt19_Sp_make_shared_tag(GOT)
	.personality	__gxx_personality_v0
	.handlerdata
.LLSDA3271:
	.byte	0xff
	.byte	0xff
	.byte	0x1
	.uleb128 .LLSDACSE3271-.LLSDACSB3271
.LLSDACSB3271:
	.uleb128 .LEHB29-.LFB3271
	.uleb128 .LEHE29-.LEHB29
	.uleb128 0
	.uleb128 0
	.uleb128 .LEHB30-.LFB3271
	.uleb128 .LEHE30-.LEHB30
	.uleb128 .L1573-.LFB3271
	.uleb128 0
	.uleb128 .LEHB31-.LFB3271
	.uleb128 .LEHE31-.LEHB31
	.uleb128 .L1572-.LFB3271
	.uleb128 0
	.uleb128 .LEHB32-.LFB3271
	.uleb128 .LEHE32-.LEHB32
	.uleb128 0
	.uleb128 0
.LLSDACSE3271:
	.text
	.fnend
	.size	_ZN8opendnp38MContext7AddScanEN7openpal12TimeDurationERKSt8functionIFbRNS_12HeaderWriterEEENS_10TaskConfigE, .-_ZN8opendnp38MContext7AddScanEN7openpal12TimeDurationERKSt8functionIFbRNS_12HeaderWriterEEENS_10TaskConfigE
	.align	2
	.global	_ZN8opendnp38MContext12AddClassScanERKNS_10ClassFieldEN7openpal12TimeDurationENS_10TaskConfigE
	.syntax unified
	.arm
	.fpu vfp
	.type	_ZN8opendnp38MContext12AddClassScanERKNS_10ClassFieldEN7openpal12TimeDurationENS_10TaskConfigE, %function
_ZN8opendnp38MContext12AddClassScanERKNS_10ClassFieldEN7openpal12TimeDurationENS_10TaskConfigE:
	.fnstart
.LFB3278:
	@ args = 20, pretend = 0, frame = 16
	@ frame_needed = 0, uses_anonymous_args = 0
	push	{r4, r5, r6, lr}
	.save {r4, r5, r6, lr}
	.pad #32
	sub	sp, sp, #32
	add	r3, sp, #56
	ldrb	r6, [r2]	@ zero_extendqisi2
	mov	ip, r1
	mov	r4, r0
	ldm	r3, {r0, r1, r2}
	add	r5, sp, #16
	ldr	lr, .L1618
	str	r5, [sp]
	stmib	sp, {r0, r1, r2}
	mov	r1, ip
	ldr	ip, .L1618+4
.LPIC70:
	add	lr, pc, lr
.LPIC71:
	add	ip, pc, ip
	mov	r0, r4
	strb	r6, [sp, #16]
	ldrd	r2, [sp, #48]
	str	lr, [sp, #28]
	str	ip, [sp, #24]
.LEHB33:
	bl	_ZN8opendnp38MContext7AddScanEN7openpal12TimeDurationERKSt8functionIFbRNS_12HeaderWriterEEENS_10TaskConfigE(PLT)
.LEHE33:
	ldr	r3, [sp, #24]
	cmp	r3, #0
	beq	.L1606
	mov	r2, #3
	mov	r1, r5
	mov	r0, r5
	blx	r3
.L1606:
	mov	r0, r4
	add	sp, sp, #32
	@ sp needed
	pop	{r4, r5, r6, pc}
.L1610:
	ldr	r3, [sp, #24]
	cmp	r3, #0
	beq	.L1609
	mov	r2, #3
	mov	r1, r5
	mov	r0, r5
	blx	r3
.L1609:
.LEHB34:
	bl	__cxa_end_cleanup(PLT)
.LEHE34:
.L1619:
	.align	2
.L1618:
	.word	_ZNSt17_Function_handlerIFbRN8opendnp312HeaderWriterEEZNS0_8MContext12AddClassScanERKNS0_10ClassFieldEN7openpal12TimeDurationENS0_10TaskConfigEEUlS2_E_E9_M_invokeERKSt9_Any_dataS2_-(.LPIC70+8)
	.word	_ZNSt14_Function_base13_Base_managerIZN8opendnp38MContext12AddClassScanERKNS1_10ClassFieldEN7openpal12TimeDurationENS1_10TaskConfigEEUlRNS1_12HeaderWriterEE_E10_M_managerERSt9_Any_dataRKSD_St18_Manager_operation-(.LPIC71+8)
	.personality	__gxx_personality_v0
	.handlerdata
.LLSDA3278:
	.byte	0xff
	.byte	0xff
	.byte	0x1
	.uleb128 .LLSDACSE3278-.LLSDACSB3278
.LLSDACSB3278:
	.uleb128 .LEHB33-.LFB3278
	.uleb128 .LEHE33-.LEHB33
	.uleb128 .L1610-.LFB3278
	.uleb128 0
	.uleb128 .LEHB34-.LFB3278
	.uleb128 .LEHE34-.LEHB34
	.uleb128 0
	.uleb128 0
.LLSDACSE3278:
	.text
	.fnend
	.size	_ZN8opendnp38MContext12AddClassScanERKNS_10ClassFieldEN7openpal12TimeDurationENS_10TaskConfigE, .-_ZN8opendnp38MContext12AddClassScanERKNS_10ClassFieldEN7openpal12TimeDurationENS_10TaskConfigE
	.align	2
	.global	_ZN8opendnp38MContext17AddAllObjectsScanENS_16GroupVariationIDEN7openpal12TimeDurationENS_10TaskConfigE
	.syntax unified
	.arm
	.fpu vfp
	.type	_ZN8opendnp38MContext17AddAllObjectsScanENS_16GroupVariationIDEN7openpal12TimeDurationENS_10TaskConfigE, %function
_ZN8opendnp38MContext17AddAllObjectsScanENS_16GroupVariationIDEN7openpal12TimeDurationENS_10TaskConfigE:
	.fnstart
.LFB3283:
	@ args = 20, pretend = 0, frame = 24
	@ frame_needed = 0, uses_anonymous_args = 0
	push	{r4, r5, r6, r7, lr}
	.save {r4, r5, r6, r7, lr}
	.pad #44
	sub	sp, sp, #44
	add	r3, sp, #72
	mov	r4, r0
	mov	r7, r1
	lsr	r6, r2, #8
	strh	r2, [sp, #20]	@ movhi
	strb	r2, [sp, #24]
	ldm	r3, {r0, r1, r2}
	add	r5, sp, #24
	ldr	lr, .L1632
	ldr	ip, .L1632+4
.LPIC72:
	add	lr, pc, lr
.LPIC73:
	add	ip, pc, ip
	stmib	sp, {r0, r1, r2}
	mov	r1, r7
	str	r5, [sp]
	mov	r0, r4
	ldrd	r2, [sp, #64]
	strb	r6, [sp, #25]
	str	lr, [sp, #36]
	str	ip, [sp, #32]
.LEHB35:
	bl	_ZN8opendnp38MContext7AddScanEN7openpal12TimeDurationERKSt8functionIFbRNS_12HeaderWriterEEENS_10TaskConfigE(PLT)
.LEHE35:
	ldr	r3, [sp, #32]
	cmp	r3, #0
	beq	.L1620
	mov	r2, #3
	mov	r1, r5
	mov	r0, r5
	blx	r3
.L1620:
	mov	r0, r4
	add	sp, sp, #44
	@ sp needed
	pop	{r4, r5, r6, r7, pc}
.L1624:
	ldr	r3, [sp, #32]
	cmp	r3, #0
	beq	.L1623
	mov	r2, #3
	mov	r1, r5
	mov	r0, r5
	blx	r3
.L1623:
.LEHB36:
	bl	__cxa_end_cleanup(PLT)
.LEHE36:
.L1633:
	.align	2
.L1632:
	.word	_ZNSt17_Function_handlerIFbRN8opendnp312HeaderWriterEEZNS0_8MContext17AddAllObjectsScanENS0_16GroupVariationIDEN7openpal12TimeDurationENS0_10TaskConfigEEUlS2_E_E9_M_invokeERKSt9_Any_dataS2_-(.LPIC72+8)
	.word	_ZNSt14_Function_base13_Base_managerIZN8opendnp38MContext17AddAllObjectsScanENS1_16GroupVariationIDEN7openpal12TimeDurationENS1_10TaskConfigEEUlRNS1_12HeaderWriterEE_E10_M_managerERSt9_Any_dataRKSB_St18_Manager_operation-(.LPIC73+8)
	.personality	__gxx_personality_v0
	.handlerdata
.LLSDA3283:
	.byte	0xff
	.byte	0xff
	.byte	0x1
	.uleb128 .LLSDACSE3283-.LLSDACSB3283
.LLSDACSB3283:
	.uleb128 .LEHB35-.LFB3283
	.uleb128 .LEHE35-.LEHB35
	.uleb128 .L1624-.LFB3283
	.uleb128 0
	.uleb128 .LEHB36-.LFB3283
	.uleb128 .LEHE36-.LEHB36
	.uleb128 0
	.uleb128 0
.LLSDACSE3283:
	.text
	.fnend
	.size	_ZN8opendnp38MContext17AddAllObjectsScanENS_16GroupVariationIDEN7openpal12TimeDurationENS_10TaskConfigE, .-_ZN8opendnp38MContext17AddAllObjectsScanENS_16GroupVariationIDEN7openpal12TimeDurationENS_10TaskConfigE
	.align	2
	.global	_ZN8opendnp38MContext12AddRangeScanENS_16GroupVariationIDEttN7openpal12TimeDurationENS_10TaskConfigE
	.syntax unified
	.arm
	.fpu vfp
	.type	_ZN8opendnp38MContext12AddRangeScanENS_16GroupVariationIDEttN7openpal12TimeDurationENS_10TaskConfigE, %function
_ZN8opendnp38MContext12AddRangeScanENS_16GroupVariationIDEttN7openpal12TimeDurationENS_10TaskConfigE:
	.fnstart
.LFB3285:
	@ args = 28, pretend = 0, frame = 24
	@ frame_needed = 0, uses_anonymous_args = 0
	push	{r4, r5, r6, lr}
	.save {r4, r5, r6, lr}
	.pad #40
	sub	sp, sp, #40
	add	ip, sp, #72
	mov	lr, r1
	mov	r4, r0
	lsr	r6, r2, #8
	strh	r2, [sp, #20]	@ movhi
	strb	r2, [sp, #24]
	ldm	ip, {r0, r1, r2}
	add	r5, sp, #24
	strh	r3, [sp, #26]	@ movhi
	ldr	ip, .L1646
	stmib	sp, {r0, r1, r2}
	mov	r1, lr
	ldrh	r3, [sp, #56]
	ldr	lr, .L1646+4
.LPIC75:
	add	ip, pc, ip
.LPIC74:
	add	lr, pc, lr
	strh	r3, [sp, #28]	@ movhi
	str	r5, [sp]
	mov	r0, r4
	strb	r6, [sp, #25]
	ldrd	r2, [sp, #64]
	str	lr, [sp, #36]
	str	ip, [sp, #32]
.LEHB37:
	bl	_ZN8opendnp38MContext7AddScanEN7openpal12TimeDurationERKSt8functionIFbRNS_12HeaderWriterEEENS_10TaskConfigE(PLT)
.LEHE37:
	ldr	r3, [sp, #32]
	cmp	r3, #0
	beq	.L1634
	mov	r2, #3
	mov	r1, r5
	mov	r0, r5
	blx	r3
.L1634:
	mov	r0, r4
	add	sp, sp, #40
	@ sp needed
	pop	{r4, r5, r6, pc}
.L1638:
	ldr	r3, [sp, #32]
	cmp	r3, #0
	beq	.L1637
	mov	r2, #3
	mov	r1, r5
	mov	r0, r5
	blx	r3
.L1637:
.LEHB38:
	bl	__cxa_end_cleanup(PLT)
.LEHE38:
.L1647:
	.align	2
.L1646:
	.word	_ZNSt14_Function_base13_Base_managerIZN8opendnp38MContext12AddRangeScanENS1_16GroupVariationIDEttN7openpal12TimeDurationENS1_10TaskConfigEEUlRNS1_12HeaderWriterEE_E10_M_managerERSt9_Any_dataRKSB_St18_Manager_operation-(.LPIC75+8)
	.word	_ZNSt17_Function_handlerIFbRN8opendnp312HeaderWriterEEZNS0_8MContext12AddRangeScanENS0_16GroupVariationIDEttN7openpal12TimeDurationENS0_10TaskConfigEEUlS2_E_E9_M_invokeERKSt9_Any_dataS2_-(.LPIC74+8)
	.personality	__gxx_personality_v0
	.handlerdata
.LLSDA3285:
	.byte	0xff
	.byte	0xff
	.byte	0x1
	.uleb128 .LLSDACSE3285-.LLSDACSB3285
.LLSDACSB3285:
	.uleb128 .LEHB37-.LFB3285
	.uleb128 .LEHE37-.LEHB37
	.uleb128 .L1638-.LFB3285
	.uleb128 0
	.uleb128 .LEHB38-.LFB3285
	.uleb128 .LEHE38-.LEHB38
	.uleb128 0
	.uleb128 0
.LLSDACSE3285:
	.text
	.fnend
	.size	_ZN8opendnp38MContext12AddRangeScanENS_16GroupVariationIDEttN7openpal12TimeDurationENS_10TaskConfigE, .-_ZN8opendnp38MContext12AddRangeScanENS_16GroupVariationIDEttN7openpal12TimeDurationENS_10TaskConfigE
	.align	2
	.global	_ZN8opendnp38MContext4ScanERKSt8functionIFbRNS_12HeaderWriterEEENS_10TaskConfigE
	.syntax unified
	.arm
	.fpu vfp
	.type	_ZN8opendnp38MContext4ScanERKSt8functionIFbRNS_12HeaderWriterEEENS_10TaskConfigE, %function
_ZN8opendnp38MContext4ScanERKSt8functionIFbRNS_12HeaderWriterEEENS_10TaskConfigE:
	.fnstart
.LFB3287:
	@ args = 12, pretend = 8, frame = 56
	@ frame_needed = 0, uses_anonymous_args = 0
	.pad #8
	sub	sp, sp, #8
	push	{r4, r5, r6, r7, r8, r9, r10, fp, lr}
	.save {r4, r5, r6, r7, r8, r9, r10, fp, lr}
	.pad #100
	sub	sp, sp, #100
	add	r7, sp, #136
	mov	r5, r0
	add	r0, sp, #56
	mov	fp, r1
	stm	r7, {r2, r3}
.LEHB39:
	bl	_ZN7openpal12TimeDuration3MaxEv(PLT)
	ldrd	r2, [sp, #56]
	mov	r0, #152
	ldr	r9, [r5, #96]
	strd	r2, [sp, #48]
	ldr	r10, [r5, #88]
	bl	_Znwj(PLT)
.LEHE39:
	ldr	r6, .L1743
	ldr	r1, .L1743+4
.LPIC76:
	add	r6, pc, r6
	mov	r3, #0
	mov	r4, r0
	mov	r0, #1
	str	r3, [r4, #4]
	str	r3, [r4, #8]
	str	r3, [r4, #12]
	str	r3, [r4, #16]
	str	r3, [r4, #20]
	str	r3, [r4, #24]
	str	r0, [r4, #28]
	str	r0, [r4, #32]
	ldr	r2, [r6, r1]
	ldr	r1, [r5, #12]
	ldr	r3, [r5, #16]
	str	r1, [sp, #80]
	ldrd	r0, [r5, #64]
	mov	ip, r4
	add	r2, r2, #8
	cmp	r3, #0
	str	r2, [ip], #40
	str	r3, [sp, #84]
	strd	r0, [sp, #40]
	beq	.L1649
	ldr	r2, .L1743+8
	ldr	r8, [r6, r2]
	cmp	r8, #0
	beq	.L1650
	add	r3, r3, #28
	mcr	p15, 0, r0, c7, c10, 5
.L1727:
	ldrex	r2, [r3]
	add	r2, r2, #1
	strex	r1, r2, [r3]
	cmp	r1, #0
	bne	.L1727
	mcr	p15, 0, r0, c7, c10, 5
	ldr	r2, [r5, #24]
	ldr	r3, [r5, #20]
	cmp	r2, #0
	str	r3, [sp, #88]
	str	r2, [sp, #92]
	beq	.L1654
.L1729:
	add	r2, r2, #28
	mcr	p15, 0, r0, c7, c10, 5
.L1726:
	ldrex	r3, [r2]
	add	r3, r3, #1
	strex	r1, r3, [r2]
	cmp	r1, #0
	bne	.L1726
	mcr	p15, 0, r0, c7, c10, 5
.L1654:
	ldm	r7, {r0, r1, r2}
	add	r3, sp, #68
	add	lr, sp, #28
	add	r7, sp, #80
	stm	r3, {r0, r1, r2}
	stm	lr, {r0, r1, r2}
	mov	r1, fp
	ldrd	r2, [sp, #40]
	str	r10, [sp, #20]
	str	r9, [sp, #16]
	strd	r2, [sp, #8]
	ldrd	r2, [sp, #48]
	mov	r0, ip
	str	r7, [sp, #24]
	strd	r2, [sp]
	mov	r2, #0
.LEHB40:
	bl	_ZN8opendnp312UserPollTaskC1ERKSt8functionIFbRNS_12HeaderWriterEEEbN7openpal12TimeDurationES9_RNS_18IMasterApplicationERNS_11ISOEHandlerENS8_6LoggerENS_10TaskConfigE(PLT)
.LEHE40:
	ldr	r9, [sp, #92]
	ldr	r3, .L1743+8
	cmp	r9, #0
	ldr	r8, [r6, r3]
	beq	.L1656
	cmp	r8, #0
	beq	.L1657
	add	r3, r9, #28
	mcr	p15, 0, r0, c7, c10, 5
.L1725:
	ldrex	r2, [r3]
	sub	r1, r2, #1
	strex	r0, r1, [r3]
	cmp	r0, #0
	bne	.L1725
	cmp	r2, #1
	mcr	p15, 0, r0, c7, c10, 5
	beq	.L1738
.L1656:
	ldr	r9, [sp, #84]
	cmp	r9, #0
	beq	.L1662
	cmp	r8, #0
	beq	.L1663
	add	r3, r9, #28
	mcr	p15, 0, r0, c7, c10, 5
.L1724:
	ldrex	r2, [r3]
	sub	r1, r2, #1
	strex	r0, r1, [r3]
	cmp	r0, #0
	bne	.L1724
	cmp	r2, #1
	mcr	p15, 0, r0, c7, c10, 5
	beq	.L1739
	ldr	r3, .L1743+12
	ldr	r2, [r4]
	mov	r0, r4
	ldr	r1, [r6, r3]
	ldr	r3, [r2, #16]
	blx	r3
	add	r6, r4, #28
	str	r4, [sp, #84]
	str	r0, [sp, #80]
.L1669:
	mcr	p15, 0, r0, c7, c10, 5
.L1723:
	ldrex	r3, [r6]
	add	r3, r3, #1
	strex	r2, r3, [r6]
	cmp	r2, #0
	bne	.L1723
	mcr	p15, 0, r0, c7, c10, 5
.L1672:
	mov	r1, r7
	mov	r0, r5
.LEHB41:
	bl	_ZN8opendnp38MContext17ScheduleAdhocTaskERKSt10shared_ptrINS_11IMasterTaskEE(PLT)
.LEHE41:
	ldr	r5, [sp, #84]
	cmp	r5, #0
	beq	.L1673
	cmp	r8, #0
	beq	.L1674
	add	r3, r5, #28
	mcr	p15, 0, r0, c7, c10, 5
.L1722:
	ldrex	r2, [r3]
	sub	r1, r2, #1
	strex	r0, r1, [r3]
	cmp	r0, #0
	bne	.L1722
	cmp	r2, #1
	mcr	p15, 0, r0, c7, c10, 5
	beq	.L1740
.L1694:
	mcr	p15, 0, r0, c7, c10, 5
.L1721:
	ldrex	r3, [r6]
	sub	r2, r3, #1
	strex	r1, r2, [r6]
	cmp	r1, #0
	bne	.L1721
	cmp	r3, #1
	mcr	p15, 0, r0, c7, c10, 5
	beq	.L1741
.L1648:
	add	sp, sp, #100
	@ sp needed
	pop	{r4, r5, r6, r7, r8, r9, r10, fp, lr}
	add	sp, sp, #8
	bx	lr
.L1650:
	ldr	r1, [r3, #28]
	ldr	r2, [r5, #24]
	add	r1, r1, #1
	str	r1, [r3, #28]
	ldr	r3, [r5, #20]
	cmp	r2, #0
	str	r2, [sp, #92]
	str	r3, [sp, #88]
	beq	.L1654
.L1653:
	ldr	r3, [r2, #28]
	add	r3, r3, #1
	str	r3, [r2, #28]
	b	.L1654
.L1739:
	ldr	r3, [r9]
	mov	r0, r9
	ldr	r3, [r3, #8]
	blx	r3
	add	r3, r9, #32
	mcr	p15, 0, r0, c7, c10, 5
	mcr	p15, 0, r0, c7, c10, 5
.L1719:
	ldrex	r2, [r3]
	sub	r1, r2, #1
	strex	r0, r1, [r3]
	cmp	r0, #0
	bne	.L1719
	mcr	p15, 0, r0, c7, c10, 5
.L1688:
	cmp	r2, #1
	bne	.L1662
	ldr	r3, [r9]
	mov	r0, r9
	ldr	r3, [r3, #12]
	blx	r3
.L1662:
	ldr	r3, .L1743+12
	ldr	r2, [r4]
	mov	r0, r4
	ldr	r1, [r6, r3]
	ldr	r3, [r2, #16]
	blx	r3
	cmp	r8, #0
	str	r4, [sp, #84]
	add	r6, r4, #28
	str	r0, [sp, #80]
	bne	.L1669
.L1670:
	ldr	r3, [r4, #28]
	add	r3, r3, #1
	str	r3, [r4, #28]
	b	.L1672
.L1674:
	ldr	r3, [r5, #28]
	cmp	r3, #1
	sub	r3, r3, #1
	str	r3, [r5, #28]
	bne	.L1679
	ldr	r3, [r5]
	mov	r0, r5
	ldr	r3, [r3, #8]
	blx	r3
	mcr	p15, 0, r0, c7, c10, 5
	ldr	r3, [r5, #32]
	cmp	r3, #1
	sub	r3, r3, #1
	str	r3, [r5, #32]
	bne	.L1679
.L1691:
	ldr	r3, [r5]
	mov	r0, r5
	ldr	r3, [r3, #12]
	blx	r3
.L1673:
	cmp	r8, #0
	bne	.L1694
.L1679:
	ldr	r3, [r4, #28]
	cmp	r3, #1
	sub	r3, r3, #1
	str	r3, [r4, #28]
	bne	.L1648
	ldr	r3, [r4]
	mov	r0, r4
	ldr	r3, [r3, #8]
	blx	r3
	mcr	p15, 0, r0, c7, c10, 5
	ldr	r2, [r4, #32]
	sub	r3, r2, #1
	str	r3, [r4, #32]
	b	.L1689
.L1663:
	ldr	r3, [r9, #28]
	cmp	r3, #1
	sub	r3, r3, #1
	str	r3, [r9, #28]
	beq	.L1742
	ldr	r3, .L1743+12
	ldr	r2, [r4]
	mov	r0, r4
	ldr	r1, [r6, r3]
	ldr	r3, [r2, #16]
	blx	r3
	add	r6, r4, #28
	str	r4, [sp, #84]
	str	r0, [sp, #80]
	b	.L1670
.L1657:
	ldr	r3, [r9, #28]
	cmp	r3, #1
	sub	r3, r3, #1
	str	r3, [r9, #28]
	bne	.L1656
	ldr	r3, [r9]
	mov	r0, r9
	ldr	r3, [r3, #8]
	blx	r3
	mcr	p15, 0, r0, c7, c10, 5
	ldr	r2, [r9, #32]
	sub	r3, r2, #1
	str	r3, [r9, #32]
	b	.L1687
.L1741:
	ldr	r3, [r4]
	mov	r0, r4
	ldr	r3, [r3, #8]
	blx	r3
	add	r3, r4, #32
	mcr	p15, 0, r0, c7, c10, 5
	mcr	p15, 0, r0, c7, c10, 5
.L1718:
	ldrex	r2, [r3]
	sub	r1, r2, #1
	strex	r0, r1, [r3]
	cmp	r0, #0
	bne	.L1718
	mcr	p15, 0, r0, c7, c10, 5
.L1689:
	cmp	r2, #1
	bne	.L1648
	ldr	r3, [r4]
	mov	r0, r4
	ldr	r3, [r3, #12]
	blx	r3
	b	.L1648
.L1740:
	ldr	r3, [r5]
	mov	r0, r5
	ldr	r3, [r3, #8]
	blx	r3
	add	r3, r5, #32
	mcr	p15, 0, r0, c7, c10, 5
	mcr	p15, 0, r0, c7, c10, 5
.L1717:
	ldrex	r2, [r3]
	sub	r1, r2, #1
	strex	r0, r1, [r3]
	cmp	r0, #0
	bne	.L1717
	cmp	r2, #1
	mcr	p15, 0, r0, c7, c10, 5
	bne	.L1694
	b	.L1691
.L1649:
	ldr	r2, [r5, #24]
	ldr	r3, [r5, #20]
	cmp	r2, #0
	str	r2, [sp, #92]
	str	r3, [sp, #88]
	beq	.L1654
	ldr	r3, .L1743+8
	ldr	r8, [r6, r3]
	cmp	r8, #0
	bne	.L1729
	b	.L1653
.L1738:
	ldr	r3, [r9]
	mov	r0, r9
	ldr	r3, [r3, #8]
	blx	r3
	add	r3, r9, #32
	mcr	p15, 0, r0, c7, c10, 5
	mcr	p15, 0, r0, c7, c10, 5
.L1720:
	ldrex	r2, [r3]
	sub	r1, r2, #1
	strex	r0, r1, [r3]
	cmp	r0, #0
	bne	.L1720
	mcr	p15, 0, r0, c7, c10, 5
.L1687:
	cmp	r2, #1
	bne	.L1656
	ldr	r3, [r9]
	mov	r0, r9
	ldr	r3, [r3, #12]
	blx	r3
	b	.L1656
.L1742:
	ldr	r3, [r9]
	mov	r0, r9
	ldr	r3, [r3, #8]
	blx	r3
	mcr	p15, 0, r0, c7, c10, 5
	ldr	r2, [r9, #32]
	sub	r3, r2, #1
	str	r3, [r9, #32]
	b	.L1688
.L1696:
	mov	r0, r7
	bl	_ZN7openpal6LoggerD1Ev(PLT)
	mov	r0, r4
	bl	_ZdlPv(PLT)
.LEHB42:
	bl	__cxa_end_cleanup(PLT)
.L1695:
	ldr	r0, [sp, #84]
	cmp	r0, #0
	beq	.L1685
	bl	_ZNSt16_Sp_counted_baseILN9__gnu_cxx12_Lock_policyE1EE10_M_releaseEv(PLT)
.L1685:
	mov	r0, r4
	bl	_ZNSt16_Sp_counted_baseILN9__gnu_cxx12_Lock_policyE1EE10_M_releaseEv(PLT)
	bl	__cxa_end_cleanup(PLT)
.LEHE42:
.L1744:
	.align	2
.L1743:
	.word	_GLOBAL_OFFSET_TABLE_-(.LPIC76+8)
	.word	_ZTVSt23_Sp_counted_ptr_inplaceIN8opendnp312UserPollTaskESaIS1_ELN9__gnu_cxx12_Lock_policyE1EE(GOT)
	.word	_ZL28__gthrw___pthread_key_createPjPFvPvE(GOT)
	.word	_ZTISt19_Sp_make_shared_tag(GOT)
	.personality	__gxx_personality_v0
	.handlerdata
.LLSDA3287:
	.byte	0xff
	.byte	0xff
	.byte	0x1
	.uleb128 .LLSDACSE3287-.LLSDACSB3287
.LLSDACSB3287:
	.uleb128 .LEHB39-.LFB3287
	.uleb128 .LEHE39-.LEHB39
	.uleb128 0
	.uleb128 0
	.uleb128 .LEHB40-.LFB3287
	.uleb128 .LEHE40-.LEHB40
	.uleb128 .L1696-.LFB3287
	.uleb128 0
	.uleb128 .LEHB41-.LFB3287
	.uleb128 .LEHE41-.LEHB41
	.uleb128 .L1695-.LFB3287
	.uleb128 0
	.uleb128 .LEHB42-.LFB3287
	.uleb128 .LEHE42-.LEHB42
	.uleb128 0
	.uleb128 0
.LLSDACSE3287:
	.text
	.fnend
	.size	_ZN8opendnp38MContext4ScanERKSt8functionIFbRNS_12HeaderWriterEEENS_10TaskConfigE, .-_ZN8opendnp38MContext4ScanERKSt8functionIFbRNS_12HeaderWriterEEENS_10TaskConfigE
	.align	2
	.global	_ZN8opendnp38MContext11ScanClassesERKNS_10ClassFieldENS_10TaskConfigE
	.syntax unified
	.arm
	.fpu vfp
	.type	_ZN8opendnp38MContext11ScanClassesERKNS_10ClassFieldENS_10TaskConfigE, %function
_ZN8opendnp38MContext11ScanClassesERKNS_10ClassFieldENS_10TaskConfigE:
	.fnstart
.LFB3288:
	@ args = 12, pretend = 8, frame = 16
	@ frame_needed = 0, uses_anonymous_args = 0
	.pad #8
	sub	sp, sp, #8
	ldr	ip, .L1757
	push	{r4, r5, r6, lr}
	.save {r4, r5, r6, lr}
	.pad #24
	sub	sp, sp, #24
	ldrb	r5, [r1]	@ zero_extendqisi2
	ldr	r6, [sp, #48]
	add	r1, sp, #40
	ldr	lr, .L1757+4
	add	r4, sp, #8
	stm	r1, {r2, r3}
.LPIC77:
	add	lr, pc, lr
.LPIC78:
	add	ip, pc, ip
	str	r6, [sp]
	ldm	r1, {r2, r3}
	mov	r1, r4
	strb	r5, [sp, #8]
	str	lr, [sp, #20]
	str	ip, [sp, #16]
.LEHB43:
	bl	_ZN8opendnp38MContext4ScanERKSt8functionIFbRNS_12HeaderWriterEEENS_10TaskConfigE(PLT)
.LEHE43:
	ldr	r3, [sp, #16]
	cmp	r3, #0
	beq	.L1745
	mov	r2, #3
	mov	r1, r4
	mov	r0, r4
	blx	r3
.L1745:
	add	sp, sp, #24
	@ sp needed
	pop	{r4, r5, r6, lr}
	add	sp, sp, #8
	bx	lr
.L1749:
	ldr	r3, [sp, #16]
	cmp	r3, #0
	beq	.L1748
	mov	r2, #3
	mov	r1, r4
	mov	r0, r4
	blx	r3
.L1748:
.LEHB44:
	bl	__cxa_end_cleanup(PLT)
.LEHE44:
.L1758:
	.align	2
.L1757:
	.word	_ZNSt14_Function_base13_Base_managerIZN8opendnp38MContext11ScanClassesERKNS1_10ClassFieldENS1_10TaskConfigEEUlRNS1_12HeaderWriterEE_E10_M_managerERSt9_Any_dataRKSB_St18_Manager_operation-(.LPIC78+8)
	.word	_ZNSt17_Function_handlerIFbRN8opendnp312HeaderWriterEEZNS0_8MContext11ScanClassesERKNS0_10ClassFieldENS0_10TaskConfigEEUlS2_E_E9_M_invokeERKSt9_Any_dataS2_-(.LPIC77+8)
	.personality	__gxx_personality_v0
	.handlerdata
.LLSDA3288:
	.byte	0xff
	.byte	0xff
	.byte	0x1
	.uleb128 .LLSDACSE3288-.LLSDACSB3288
.LLSDACSB3288:
	.uleb128 .LEHB43-.LFB3288
	.uleb128 .LEHE43-.LEHB43
	.uleb128 .L1749-.LFB3288
	.uleb128 0
	.uleb128 .LEHB44-.LFB3288
	.uleb128 .LEHE44-.LEHB44
	.uleb128 0
	.uleb128 0
.LLSDACSE3288:
	.text
	.fnend
	.size	_ZN8opendnp38MContext11ScanClassesERKNS_10ClassFieldENS_10TaskConfigE, .-_ZN8opendnp38MContext11ScanClassesERKNS_10ClassFieldENS_10TaskConfigE
	.align	2
	.global	_ZN8opendnp38MContext14ScanAllObjectsENS_16GroupVariationIDENS_10TaskConfigE
	.syntax unified
	.arm
	.fpu vfp
	.type	_ZN8opendnp38MContext14ScanAllObjectsENS_16GroupVariationIDENS_10TaskConfigE, %function
_ZN8opendnp38MContext14ScanAllObjectsENS_16GroupVariationIDENS_10TaskConfigE:
	.fnstart
.LFB3290:
	@ args = 12, pretend = 8, frame = 24
	@ frame_needed = 0, uses_anonymous_args = 0
	.pad #8
	sub	sp, sp, #8
	push	{r4, r5, r6, lr}
	.save {r4, r5, r6, lr}
	.pad #32
	sub	sp, sp, #32
	add	lr, sp, #16
	add	ip, sp, #48
	str	lr, [sp, #8]
	ldr	r6, [sp, #56]
	ldr	r4, .L1771
	ldr	lr, .L1771+4
	strh	r1, [sp, #12]	@ movhi
	lsr	r5, r1, #8
	stm	ip, {r2, r3}
.LPIC79:
	add	r4, pc, r4
.LPIC80:
	add	lr, pc, lr
	strb	r1, [sp, #16]
	str	r6, [sp]
	ldr	r1, [sp, #8]
	ldm	ip, {r2, r3}
	strb	r5, [sp, #17]
	str	r4, [sp, #28]
	str	lr, [sp, #24]
.LEHB45:
	bl	_ZN8opendnp38MContext4ScanERKSt8functionIFbRNS_12HeaderWriterEEENS_10TaskConfigE(PLT)
.LEHE45:
	ldr	r3, [sp, #24]
	cmp	r3, #0
	beq	.L1759
	ldr	r1, [sp, #8]
	mov	r2, #3
	mov	r0, r1
	blx	r3
.L1759:
	add	sp, sp, #32
	@ sp needed
	pop	{r4, r5, r6, lr}
	add	sp, sp, #8
	bx	lr
.L1763:
	ldr	r3, [sp, #24]
	cmp	r3, #0
	beq	.L1762
	ldr	r1, [sp, #8]
	mov	r2, #3
	mov	r0, r1
	blx	r3
.L1762:
.LEHB46:
	bl	__cxa_end_cleanup(PLT)
.LEHE46:
.L1772:
	.align	2
.L1771:
	.word	_ZNSt17_Function_handlerIFbRN8opendnp312HeaderWriterEEZNS0_8MContext14ScanAllObjectsENS0_16GroupVariationIDENS0_10TaskConfigEEUlS2_E_E9_M_invokeERKSt9_Any_dataS2_-(.LPIC79+8)
	.word	_ZNSt14_Function_base13_Base_managerIZN8opendnp38MContext14ScanAllObjectsENS1_16GroupVariationIDENS1_10TaskConfigEEUlRNS1_12HeaderWriterEE_E10_M_managerERSt9_Any_dataRKS9_St18_Manager_operation-(.LPIC80+8)
	.personality	__gxx_personality_v0
	.handlerdata
.LLSDA3290:
	.byte	0xff
	.byte	0xff
	.byte	0x1
	.uleb128 .LLSDACSE3290-.LLSDACSB3290
.LLSDACSB3290:
	.uleb128 .LEHB45-.LFB3290
	.uleb128 .LEHE45-.LEHB45
	.uleb128 .L1763-.LFB3290
	.uleb128 0
	.uleb128 .LEHB46-.LFB3290
	.uleb128 .LEHE46-.LEHB46
	.uleb128 0
	.uleb128 0
.LLSDACSE3290:
	.text
	.fnend
	.size	_ZN8opendnp38MContext14ScanAllObjectsENS_16GroupVariationIDENS_10TaskConfigE, .-_ZN8opendnp38MContext14ScanAllObjectsENS_16GroupVariationIDENS_10TaskConfigE
	.align	2
	.global	_ZN8opendnp38MContext9ScanRangeENS_16GroupVariationIDEttNS_10TaskConfigE
	.syntax unified
	.arm
	.fpu vfp
	.type	_ZN8opendnp38MContext9ScanRangeENS_16GroupVariationIDEttNS_10TaskConfigE, %function
_ZN8opendnp38MContext9ScanRangeENS_16GroupVariationIDEttNS_10TaskConfigE:
	.fnstart
.LFB3292:
	@ args = 12, pretend = 0, frame = 24
	@ frame_needed = 0, uses_anonymous_args = 0
	push	{r4, r5, r6, lr}
	.save {r4, r5, r6, lr}
	.pad #32
	sub	sp, sp, #32
	ldr	lr, .L1785
	ldr	r6, [sp, #56]
	ldr	ip, .L1785+4
	strh	r3, [sp, #20]	@ movhi
	add	r3, sp, #44
	add	r4, sp, #16
	lsr	r5, r1, #8
.LPIC81:
	add	lr, pc, lr
.LPIC82:
	add	ip, pc, ip
	strh	r1, [sp, #12]	@ movhi
	strb	r1, [sp, #16]
	strh	r2, [sp, #18]	@ movhi
	str	r6, [sp]
	mov	r1, r4
	ldmib	r3, {r2, r3}
	strb	r5, [sp, #17]
	str	lr, [sp, #28]
	str	ip, [sp, #24]
.LEHB47:
	bl	_ZN8opendnp38MContext4ScanERKSt8functionIFbRNS_12HeaderWriterEEENS_10TaskConfigE(PLT)
.LEHE47:
	ldr	r3, [sp, #24]
	cmp	r3, #0
	beq	.L1773
	mov	r2, #3
	mov	r1, r4
	mov	r0, r4
	blx	r3
.L1773:
	add	sp, sp, #32
	@ sp needed
	pop	{r4, r5, r6, pc}
.L1777:
	ldr	r3, [sp, #24]
	cmp	r3, #0
	beq	.L1776
	mov	r2, #3
	mov	r1, r4
	mov	r0, r4
	blx	r3
.L1776:
.LEHB48:
	bl	__cxa_end_cleanup(PLT)
.LEHE48:
.L1786:
	.align	2
.L1785:
	.word	_ZNSt17_Function_handlerIFbRN8opendnp312HeaderWriterEEZNS0_8MContext9ScanRangeENS0_16GroupVariationIDEttNS0_10TaskConfigEEUlS2_E_E9_M_invokeERKSt9_Any_dataS2_-(.LPIC81+8)
	.word	_ZNSt14_Function_base13_Base_managerIZN8opendnp38MContext9ScanRangeENS1_16GroupVariationIDEttNS1_10TaskConfigEEUlRNS1_12HeaderWriterEE_E10_M_managerERSt9_Any_dataRKS9_St18_Manager_operation-(.LPIC82+8)
	.personality	__gxx_personality_v0
	.handlerdata
.LLSDA3292:
	.byte	0xff
	.byte	0xff
	.byte	0x1
	.uleb128 .LLSDACSE3292-.LLSDACSB3292
.LLSDACSB3292:
	.uleb128 .LEHB47-.LFB3292
	.uleb128 .LEHE47-.LEHB47
	.uleb128 .L1777-.LFB3292
	.uleb128 0
	.uleb128 .LEHB48-.LFB3292
	.uleb128 .LEHE48-.LEHB48
	.uleb128 0
	.uleb128 0
.LLSDACSE3292:
	.text
	.fnend
	.size	_ZN8opendnp38MContext9ScanRangeENS_16GroupVariationIDEttNS_10TaskConfigE, .-_ZN8opendnp38MContext9ScanRangeENS_16GroupVariationIDEttNS_10TaskConfigE
	.align	2
	.global	_ZN8opendnp38MContext5WriteERKNS_15TimeAndIntervalEtNS_10TaskConfigE
	.syntax unified
	.arm
	.fpu vfp
	.type	_ZN8opendnp38MContext5WriteERKNS_15TimeAndIntervalEtNS_10TaskConfigE, %function
_ZN8opendnp38MContext5WriteERKNS_15TimeAndIntervalEtNS_10TaskConfigE:
	.fnstart
.LFB3294:
	@ args = 16, pretend = 8, frame = 112
	@ frame_needed = 0, uses_anonymous_args = 0
	.pad #8
	sub	sp, sp, #8
	push	{r4, r5, r6, r7, r8, r9, r10, fp, lr}
	.save {r4, r5, r6, r7, r8, r9, r10, fp, lr}
	.pad #132
	sub	sp, sp, #132
	mov	r6, r0
	str	r3, [sp, #172]
	mov	r5, r2
	ldm	r1, {r0, r1, r2, r3}
	add	r10, sp, #56
	ldr	ip, [r6, #96]
	ldr	r7, .L1903
	stm	r10, {r0, r1, r2, r3}
	mov	r0, #152
	str	ip, [sp, #20]
.LEHB49:
	bl	_Znwj(PLT)
.LEHE49:
	ldr	r1, .L1903+4
.LPIC83:
	add	r7, pc, r7
	mov	r2, #0
	add	r8, sp, #128
	add	fp, sp, #104
	add	ip, sp, #112
	mov	r4, r0
	mov	r0, #1
	str	r0, [r4, #28]
	str	r0, [r4, #32]
	str	r2, [r4, #4]
	str	r2, [r4, #8]
	str	r2, [r4, #12]
	str	r2, [r4, #16]
	str	r2, [r4, #20]
	str	r2, [r4, #24]
	ldr	r3, [r7, r1]
	mov	r1, #21
	add	r3, r3, #8
	str	r1, [r8, #-104]!
	mov	r0, fp
	mov	r1, r8
	str	ip, [sp, #16]
	str	r3, [r4]
	str	ip, [sp, #104]
.LEHB50:
	bl	_ZNSt7__cxx1112basic_stringIcSt11char_traitsIcESaIcEE9_M_createERjj(PLT)
.LEHE50:
	ldr	lr, .L1903+8
	str	r0, [sp, #104]
.LPIC84:
	add	lr, pc, lr
	mov	r9, r0
	ldmia	lr!, {r0, r1, r2, r3}
	mov	ip, r10
	ldr	r10, [sp, #24]
	strh	r5, [sp, #72]	@ movhi
	str	r10, [sp, #112]
	str	r0, [r9]	@ unaligned
	ldr	r0, [lr]
	ldrb	lr, [lr, #4]	@ zero_extendqisi2
	str	r1, [r9, #4]	@ unaligned
	str	r2, [r9, #8]	@ unaligned
	str	r3, [r9, #12]	@ unaligned
	str	r0, [r9, #16]	@ unaligned
	ldmia	ip!, {r0, r1, r2, r3}
	add	r5, sp, #80
	strb	lr, [r9, #20]
	mov	lr, r5
	mov	r10, #0
	stmia	lr!, {r0, r1, r2, r3}
	ldm	ip, {r0, r1}
	ldr	r3, [sp, #24]
	ldr	r2, [sp, #104]
	stm	lr, {r0, r1}
	mov	r0, #24
	str	r3, [sp, #108]
	strb	r10, [r2, r3]
	str	r10, [sp, #48]
.LEHB51:
	bl	_Znwj(PLT)
.LEHE51:
	mov	ip, r0
	ldmia	r5!, {r0, r1, r2, r3}
	ldr	lr, [r6, #16]
	str	ip, [sp, #40]
	stmia	ip!, {r0, r1, r2, r3}
	cmp	lr, r10
	ldm	r5, {r0, r1}
	ldr	r3, .L1903+12
	ldr	r5, .L1903+16
	ldr	r2, [r6, #12]
.LPIC85:
	add	r5, pc, r5
.LPIC86:
	add	r3, pc, r3
	stm	ip, {r0, r1}
	str	lr, [sp, #28]
	str	r5, [sp, #52]
	str	r3, [sp, #48]
	str	r2, [sp, #24]
	beq	.L1897
	ldr	r3, .L1903+20
	ldr	r5, [r7, r3]
	cmp	r5, #0
	beq	.L1793
	add	lr, lr, #28
	mcr	p15, 0, r0, c7, c10, 5
.L1884:
	ldrex	r3, [lr]
	add	r3, r3, #1
	strex	r2, r3, [lr]
	cmp	r2, #0
	bne	.L1884
	mcr	p15, 0, r0, c7, c10, 5
	ldr	r3, [r6, #24]
	ldr	r2, [r6, #20]
	cmp	r3, #0
	str	r2, [sp, #32]
	str	r3, [sp, #36]
	beq	.L1795
.L1886:
	add	r3, r3, #28
	mcr	p15, 0, r0, c7, c10, 5
.L1883:
	ldrex	r2, [r3]
	add	r2, r2, #1
	strex	r1, r2, [r3]
	cmp	r1, #0
	bne	.L1883
	mcr	p15, 0, r0, c7, c10, 5
.L1795:
	add	r3, sp, #172
	add	r9, sp, #40
	str	r3, [sp, #8]
	str	r8, [sp, #4]
	ldr	r1, [sp, #20]
	str	r9, [sp]
	mov	r3, #2
	mov	r2, fp
	add	r0, r4, #40
.LEHB52:
	bl	_ZN8opendnp317EmptyResponseTaskC1ERNS_18IMasterApplicationERKNSt7__cxx1112basic_stringIcSt11char_traitsIcESaIcEEENS_12FunctionCodeERKSt8functionIFbRNS_12HeaderWriterEEEN7openpal6LoggerERKNS_10TaskConfigE(PLT)
.LEHE52:
	ldr	r8, [sp, #36]
	ldr	r3, .L1903+20
	cmp	r8, #0
	ldr	r5, [r7, r3]
	beq	.L1799
	cmp	r5, #0
	beq	.L1800
	add	r3, r8, #28
	mcr	p15, 0, r0, c7, c10, 5
.L1882:
	ldrex	r2, [r3]
	sub	r1, r2, #1
	strex	r0, r1, [r3]
	cmp	r0, #0
	bne	.L1882
	cmp	r2, #1
	mcr	p15, 0, r0, c7, c10, 5
	beq	.L1898
.L1799:
	ldr	r8, [sp, #28]
	cmp	r8, #0
	beq	.L1805
	cmp	r5, #0
	beq	.L1806
	add	r3, r8, #28
	mcr	p15, 0, r0, c7, c10, 5
.L1881:
	ldrex	r2, [r3]
	sub	r1, r2, #1
	strex	r0, r1, [r3]
	cmp	r0, #0
	bne	.L1881
	cmp	r2, #1
	mcr	p15, 0, r0, c7, c10, 5
	beq	.L1899
.L1805:
	ldr	r3, [sp, #48]
	cmp	r3, #0
	beq	.L1810
	mov	r2, #3
	mov	r1, r9
	mov	r0, r9
	blx	r3
.L1810:
	ldr	r0, [sp, #104]
	ldr	r3, [sp, #16]
	cmp	r0, r3
	beq	.L1811
	bl	_ZdlPv(PLT)
.L1811:
	ldr	r3, .L1903+24
	ldr	r2, [r4]
	mov	r0, r4
	ldr	r1, [r7, r3]
	ldr	r3, [r2, #16]
	blx	r3
	cmp	r5, #0
	str	r4, [sp, #108]
	add	r7, r4, #28
	str	r0, [sp, #104]
	beq	.L1900
	mcr	p15, 0, r0, c7, c10, 5
.L1880:
	ldrex	r3, [r7]
	add	r3, r3, #1
	strex	r2, r3, [r7]
	cmp	r2, #0
	bne	.L1880
	mcr	p15, 0, r0, c7, c10, 5
.L1818:
	mov	r1, fp
	mov	r0, r6
.LEHB53:
	bl	_ZN8opendnp38MContext17ScheduleAdhocTaskERKSt10shared_ptrINS_11IMasterTaskEE(PLT)
.LEHE53:
	ldr	r6, [sp, #108]
	cmp	r6, #0
	beq	.L1819
	cmp	r5, #0
	beq	.L1820
	add	r3, r6, #28
	mcr	p15, 0, r0, c7, c10, 5
.L1879:
	ldrex	r2, [r3]
	sub	r1, r2, #1
	strex	r0, r1, [r3]
	cmp	r0, #0
	bne	.L1879
	cmp	r2, #1
	mcr	p15, 0, r0, c7, c10, 5
	beq	.L1901
.L1840:
	mcr	p15, 0, r0, c7, c10, 5
.L1878:
	ldrex	r3, [r7]
	sub	r2, r3, #1
	strex	r1, r2, [r7]
	cmp	r1, #0
	bne	.L1878
	cmp	r3, #1
	mcr	p15, 0, r0, c7, c10, 5
	beq	.L1902
.L1787:
	add	sp, sp, #132
	@ sp needed
	pop	{r4, r5, r6, r7, r8, r9, r10, fp, lr}
	add	sp, sp, #8
	bx	lr
.L1793:
	ldr	r2, [lr, #28]
	ldr	r3, [r6, #24]
	add	r2, r2, #1
	str	r2, [lr, #28]
	ldr	r2, [r6, #20]
	cmp	r3, #0
	str	r3, [sp, #36]
	str	r2, [sp, #32]
	beq	.L1795
.L1796:
	ldr	r2, [r3, #28]
	add	r2, r2, #1
	str	r2, [r3, #28]
	b	.L1795
.L1900:
	ldr	r3, [r4, #28]
	add	r3, r3, #1
	str	r3, [r4, #28]
	b	.L1818
.L1820:
	ldr	r3, [r6, #28]
	cmp	r3, #1
	sub	r3, r3, #1
	str	r3, [r6, #28]
	bne	.L1825
	ldr	r3, [r6]
	mov	r0, r6
	ldr	r3, [r3, #8]
	blx	r3
	mcr	p15, 0, r0, c7, c10, 5
	ldr	r3, [r6, #32]
	cmp	r3, #1
	sub	r3, r3, #1
	str	r3, [r6, #32]
	bne	.L1825
.L1837:
	ldr	r3, [r6]
	mov	r0, r6
	ldr	r3, [r3, #12]
	blx	r3
.L1819:
	cmp	r5, #0
	bne	.L1840
.L1825:
	ldr	r3, [r4, #28]
	cmp	r3, #1
	sub	r3, r3, #1
	str	r3, [r4, #28]
	bne	.L1787
	ldr	r3, [r4]
	mov	r0, r4
	ldr	r3, [r3, #8]
	blx	r3
	mcr	p15, 0, r0, c7, c10, 5
	ldr	r2, [r4, #32]
	sub	r3, r2, #1
	str	r3, [r4, #32]
	b	.L1835
.L1806:
	ldr	r3, [r8, #28]
	cmp	r3, #1
	sub	r3, r3, #1
	str	r3, [r8, #28]
	bne	.L1805
	ldr	r3, [r8]
	mov	r0, r8
	ldr	r3, [r3, #8]
	blx	r3
	mcr	p15, 0, r0, c7, c10, 5
	ldr	r2, [r8, #32]
	sub	r3, r2, #1
	str	r3, [r8, #32]
	b	.L1834
.L1800:
	ldr	r3, [r8, #28]
	cmp	r3, #1
	sub	r3, r3, #1
	str	r3, [r8, #28]
	bne	.L1799
	ldr	r3, [r8]
	mov	r0, r8
	ldr	r3, [r3, #8]
	blx	r3
	mcr	p15, 0, r0, c7, c10, 5
	ldr	r2, [r8, #32]
	sub	r3, r2, #1
	str	r3, [r8, #32]
	b	.L1833
.L1902:
	ldr	r3, [r4]
	mov	r0, r4
	ldr	r3, [r3, #8]
	blx	r3
	add	r3, r4, #32
	mcr	p15, 0, r0, c7, c10, 5
	mcr	p15, 0, r0, c7, c10, 5
.L1875:
	ldrex	r2, [r3]
	sub	r1, r2, #1
	strex	r0, r1, [r3]
	cmp	r0, #0
	bne	.L1875
	mcr	p15, 0, r0, c7, c10, 5
.L1835:
	cmp	r2, #1
	bne	.L1787
	ldr	r3, [r4]
	mov	r0, r4
	ldr	r3, [r3, #12]
	blx	r3
	b	.L1787
.L1901:
	ldr	r3, [r6]
	mov	r0, r6
	ldr	r3, [r3, #8]
	blx	r3
	add	r3, r6, #32
	mcr	p15, 0, r0, c7, c10, 5
	mcr	p15, 0, r0, c7, c10, 5
.L1874:
	ldrex	r2, [r3]
	sub	r1, r2, #1
	strex	r0, r1, [r3]
	cmp	r0, #0
	bne	.L1874
	cmp	r2, #1
	mcr	p15, 0, r0, c7, c10, 5
	bne	.L1840
	b	.L1837
.L1899:
	ldr	r3, [r8]
	mov	r0, r8
	ldr	r3, [r3, #8]
	blx	r3
	add	r3, r8, #32
	mcr	p15, 0, r0, c7, c10, 5
	mcr	p15, 0, r0, c7, c10, 5
.L1876:
	ldrex	r2, [r3]
	sub	r1, r2, #1
	strex	r0, r1, [r3]
	cmp	r0, #0
	bne	.L1876
	mcr	p15, 0, r0, c7, c10, 5
.L1834:
	cmp	r2, #1
	bne	.L1805
	ldr	r3, [r8]
	mov	r0, r8
	ldr	r3, [r3, #12]
	blx	r3
	b	.L1805
.L1897:
	ldr	r3, [r6, #24]
	ldr	r2, [r6, #20]
	cmp	r3, #0
	str	r3, [sp, #36]
	str	r2, [sp, #32]
	beq	.L1795
	ldr	r2, .L1903+20
	ldr	r5, [r7, r2]
	cmp	r5, #0
	bne	.L1886
	b	.L1796
.L1898:
	ldr	r3, [r8]
	mov	r0, r8
	ldr	r3, [r3, #8]
	blx	r3
	add	r3, r8, #32
	mcr	p15, 0, r0, c7, c10, 5
	mcr	p15, 0, r0, c7, c10, 5
.L1877:
	ldrex	r2, [r3]
	sub	r1, r2, #1
	strex	r0, r1, [r3]
	cmp	r0, #0
	bne	.L1877
	mcr	p15, 0, r0, c7, c10, 5
.L1833:
	cmp	r2, #1
	bne	.L1799
	ldr	r3, [r8]
	mov	r0, r8
	ldr	r3, [r3, #12]
	blx	r3
	b	.L1799
.L1842:
.L1817:
	mov	r0, r4
	bl	_ZdlPv(PLT)
.LEHB54:
	bl	__cxa_end_cleanup(PLT)
.LEHE54:
.L1843:
	mov	r0, r8
	bl	_ZN7openpal6LoggerD1Ev(PLT)
	ldr	r3, [sp, #48]
	cmp	r3, #0
	beq	.L1792
	mov	r2, #3
	mov	r1, r9
	mov	r0, r9
	blx	r3
.L1792:
	ldr	r0, [sp, #104]
	add	r3, fp, #8
	cmp	r0, r3
	beq	.L1817
	bl	_ZdlPv(PLT)
	b	.L1817
.L1844:
	ldr	r3, [sp, #48]
	cmp	r3, #0
	beq	.L1792
	add	r1, sp, #40
	mov	r0, r1
	mov	r2, #3
	blx	r3
	b	.L1792
.L1841:
	ldr	r0, [sp, #108]
	cmp	r0, #0
	beq	.L1831
	bl	_ZNSt16_Sp_counted_baseILN9__gnu_cxx12_Lock_policyE1EE10_M_releaseEv(PLT)
.L1831:
	mov	r0, r4
	bl	_ZNSt16_Sp_counted_baseILN9__gnu_cxx12_Lock_policyE1EE10_M_releaseEv(PLT)
.LEHB55:
	bl	__cxa_end_cleanup(PLT)
.LEHE55:
.L1904:
	.align	2
.L1903:
	.word	_GLOBAL_OFFSET_TABLE_-(.LPIC83+8)
	.word	_ZTVSt23_Sp_counted_ptr_inplaceIN8opendnp317EmptyResponseTaskESaIS1_ELN9__gnu_cxx12_Lock_policyE1EE(GOT)
	.word	.LC16-(.LPIC84+8)
	.word	_ZNSt14_Function_base13_Base_managerIZN8opendnp38MContext5WriteERKNS1_15TimeAndIntervalEtNS1_10TaskConfigEEUlRNS1_12HeaderWriterEE_E10_M_managerERSt9_Any_dataRKSB_St18_Manager_operation-(.LPIC86+8)
	.word	_ZNSt17_Function_handlerIFbRN8opendnp312HeaderWriterEEZNS0_8MContext5WriteERKNS0_15TimeAndIntervalEtNS0_10TaskConfigEEUlS2_E_E9_M_invokeERKSt9_Any_dataS2_-(.LPIC85+8)
	.word	_ZL28__gthrw___pthread_key_createPjPFvPvE(GOT)
	.word	_ZTISt19_Sp_make_shared_tag(GOT)
	.personality	__gxx_personality_v0
	.handlerdata
.LLSDA3294:
	.byte	0xff
	.byte	0xff
	.byte	0x1
	.uleb128 .LLSDACSE3294-.LLSDACSB3294
.LLSDACSB3294:
	.uleb128 .LEHB49-.LFB3294
	.uleb128 .LEHE49-.LEHB49
	.uleb128 0
	.uleb128 0
	.uleb128 .LEHB50-.LFB3294
	.uleb128 .LEHE50-.LEHB50
	.uleb128 .L1842-.LFB3294
	.uleb128 0
	.uleb128 .LEHB51-.LFB3294
	.uleb128 .LEHE51-.LEHB51
	.uleb128 .L1844-.LFB3294
	.uleb128 0
	.uleb128 .LEHB52-.LFB3294
	.uleb128 .LEHE52-.LEHB52
	.uleb128 .L1843-.LFB3294
	.uleb128 0
	.uleb128 .LEHB53-.LFB3294
	.uleb128 .LEHE53-.LEHB53
	.uleb128 .L1841-.LFB3294
	.uleb128 0
	.uleb128 .LEHB54-.LFB3294
	.uleb128 .LEHE54-.LEHB54
	.uleb128 0
	.uleb128 0
	.uleb128 .LEHB55-.LFB3294
	.uleb128 .LEHE55-.LEHB55
	.uleb128 0
	.uleb128 0
.LLSDACSE3294:
	.text
	.fnend
	.size	_ZN8opendnp38MContext5WriteERKNS_15TimeAndIntervalEtNS_10TaskConfigE, .-_ZN8opendnp38MContext5WriteERKNS_15TimeAndIntervalEtNS_10TaskConfigE
	.align	2
	.global	_ZN8opendnp38MContext15PerformFunctionERKNSt7__cxx1112basic_stringIcSt11char_traitsIcESaIcEEENS_12FunctionCodeERKSt8functionIFbRNS_12HeaderWriterEEENS_10TaskConfigE
	.syntax unified
	.arm
	.fpu vfp
	.type	_ZN8opendnp38MContext15PerformFunctionERKNSt7__cxx1112basic_stringIcSt11char_traitsIcESaIcEEENS_12FunctionCodeERKSt8functionIFbRNS_12HeaderWriterEEENS_10TaskConfigE, %function
_ZN8opendnp38MContext15PerformFunctionERKNSt7__cxx1112basic_stringIcSt11char_traitsIcESaIcEEENS_12FunctionCodeERKSt8functionIFbRNS_12HeaderWriterEEENS_10TaskConfigE:
	.fnstart
.LFB3309:
	@ args = 12, pretend = 0, frame = 16
	@ frame_needed = 0, uses_anonymous_args = 0
	push	{r4, r5, r6, r7, r8, r9, r10, fp, lr}
	.save {r4, r5, r6, r7, r8, r9, r10, fp, lr}
	mov	r5, r0
	.pad #36
	sub	sp, sp, #36
	mov	r0, #152
	mov	r8, r1
	mov	r9, r2
	mov	r10, r3
	ldr	r7, [r5, #96]
.LEHB56:
	bl	_Znwj(PLT)
.LEHE56:
	ldr	r6, .L2000
	ldr	r2, .L2000+4
.LPIC87:
	add	r6, pc, r6
	mov	r1, #1
	ldr	r3, [r5, #16]
	cmp	r3, #0
	mov	r4, r0
	mov	r0, #0
	str	r0, [r4, #4]
	str	r0, [r4, #8]
	str	r0, [r4, #12]
	str	r0, [r4, #16]
	str	r0, [r4, #20]
	str	r0, [r4, #24]
	str	r1, [r4, #28]
	str	r1, [r4, #32]
	ldr	r2, [r6, r2]
	mov	r0, r4
	ldr	r1, [r5, #12]
	add	r2, r2, #8
	str	r2, [r0], #40
	str	r3, [sp, #20]
	str	r1, [sp, #16]
	beq	.L1906
	ldr	r2, .L2000+8
	ldr	fp, [r6, r2]
	cmp	fp, #0
	beq	.L1907
	add	r3, r3, #28
	mcr	p15, 0, r0, c7, c10, 5
.L1984:
	ldrex	r2, [r3]
	add	r2, r2, #1
	strex	r1, r2, [r3]
	cmp	r1, #0
	bne	.L1984
	mcr	p15, 0, r0, c7, c10, 5
	ldr	r2, [r5, #24]
	ldr	r3, [r5, #20]
	cmp	r2, #0
	str	r3, [sp, #24]
	str	r2, [sp, #28]
	beq	.L1909
.L1986:
	add	r2, r2, #28
	mcr	p15, 0, r0, c7, c10, 5
.L1983:
	ldrex	r3, [r2]
	add	r3, r3, #1
	strex	r1, r3, [r2]
	cmp	r1, #0
	bne	.L1983
	mcr	p15, 0, r0, c7, c10, 5
.L1909:
	add	ip, sp, #72
	str	r10, [sp]
	add	r10, sp, #16
	mov	r3, r9
	mov	r2, r8
	mov	r1, r7
	stmib	sp, {r10, ip}
.LEHB57:
	bl	_ZN8opendnp317EmptyResponseTaskC1ERNS_18IMasterApplicationERKNSt7__cxx1112basic_stringIcSt11char_traitsIcESaIcEEENS_12FunctionCodeERKSt8functionIFbRNS_12HeaderWriterEEEN7openpal6LoggerERKNS_10TaskConfigE(PLT)
.LEHE57:
	ldr	r7, [sp, #28]
	ldr	r3, .L2000+8
	cmp	r7, #0
	ldr	fp, [r6, r3]
	beq	.L1913
	cmp	fp, #0
	beq	.L1914
	add	r3, r7, #28
	mcr	p15, 0, r0, c7, c10, 5
.L1982:
	ldrex	r2, [r3]
	sub	r1, r2, #1
	strex	r0, r1, [r3]
	cmp	r0, #0
	bne	.L1982
	cmp	r2, #1
	mcr	p15, 0, r0, c7, c10, 5
	beq	.L1995
.L1913:
	ldr	r7, [sp, #20]
	cmp	r7, #0
	beq	.L1919
	cmp	fp, #0
	beq	.L1920
	add	r3, r7, #28
	mcr	p15, 0, r0, c7, c10, 5
.L1981:
	ldrex	r2, [r3]
	sub	r1, r2, #1
	strex	r0, r1, [r3]
	cmp	r0, #0
	bne	.L1981
	cmp	r2, #1
	mcr	p15, 0, r0, c7, c10, 5
	beq	.L1996
	ldr	r3, .L2000+12
	ldr	r2, [r4]
	mov	r0, r4
	ldr	r1, [r6, r3]
	ldr	r3, [r2, #16]
	blx	r3
	add	r6, r4, #28
	str	r4, [sp, #20]
	str	r0, [sp, #16]
.L1926:
	mcr	p15, 0, r0, c7, c10, 5
.L1980:
	ldrex	r3, [r6]
	add	r3, r3, #1
	strex	r2, r3, [r6]
	cmp	r2, #0
	bne	.L1980
	mcr	p15, 0, r0, c7, c10, 5
.L1929:
	mov	r1, r10
	mov	r0, r5
.LEHB58:
	bl	_ZN8opendnp38MContext17ScheduleAdhocTaskERKSt10shared_ptrINS_11IMasterTaskEE(PLT)
.LEHE58:
	ldr	r5, [sp, #20]
	cmp	r5, #0
	beq	.L1930
	cmp	fp, #0
	beq	.L1931
	add	r3, r5, #28
	mcr	p15, 0, r0, c7, c10, 5
.L1979:
	ldrex	r2, [r3]
	sub	r1, r2, #1
	strex	r0, r1, [r3]
	cmp	r0, #0
	bne	.L1979
	cmp	r2, #1
	mcr	p15, 0, r0, c7, c10, 5
	beq	.L1997
.L1951:
	mcr	p15, 0, r0, c7, c10, 5
.L1978:
	ldrex	r3, [r6]
	sub	r2, r3, #1
	strex	r1, r2, [r6]
	cmp	r1, #0
	bne	.L1978
	cmp	r3, #1
	mcr	p15, 0, r0, c7, c10, 5
	beq	.L1998
.L1905:
	add	sp, sp, #36
	@ sp needed
	pop	{r4, r5, r6, r7, r8, r9, r10, fp, pc}
.L1907:
	ldr	r1, [r3, #28]
	ldr	r2, [r5, #24]
	add	r1, r1, #1
	str	r1, [r3, #28]
	ldr	r3, [r5, #20]
	cmp	r2, #0
	str	r2, [sp, #28]
	str	r3, [sp, #24]
	beq	.L1909
.L1910:
	ldr	r3, [r2, #28]
	add	r3, r3, #1
	str	r3, [r2, #28]
	b	.L1909
.L1996:
	ldr	r3, [r7]
	mov	r0, r7
	ldr	r3, [r3, #8]
	blx	r3
	add	r3, r7, #32
	mcr	p15, 0, r0, c7, c10, 5
	mcr	p15, 0, r0, c7, c10, 5
.L1976:
	ldrex	r2, [r3]
	sub	r1, r2, #1
	strex	r0, r1, [r3]
	cmp	r0, #0
	bne	.L1976
	mcr	p15, 0, r0, c7, c10, 5
.L1945:
	cmp	r2, #1
	bne	.L1919
	ldr	r3, [r7]
	mov	r0, r7
	ldr	r3, [r3, #12]
	blx	r3
.L1919:
	ldr	r3, .L2000+12
	ldr	r2, [r4]
	mov	r0, r4
	ldr	r1, [r6, r3]
	ldr	r3, [r2, #16]
	blx	r3
	cmp	fp, #0
	str	r4, [sp, #20]
	add	r6, r4, #28
	str	r0, [sp, #16]
	bne	.L1926
.L1927:
	ldr	r3, [r4, #28]
	add	r3, r3, #1
	str	r3, [r4, #28]
	b	.L1929
.L1931:
	ldr	r3, [r5, #28]
	cmp	r3, #1
	sub	r3, r3, #1
	str	r3, [r5, #28]
	bne	.L1936
	ldr	r3, [r5]
	mov	r0, r5
	ldr	r3, [r3, #8]
	blx	r3
	mcr	p15, 0, r0, c7, c10, 5
	ldr	r3, [r5, #32]
	cmp	r3, #1
	sub	r3, r3, #1
	str	r3, [r5, #32]
	bne	.L1936
.L1948:
	ldr	r3, [r5]
	mov	r0, r5
	ldr	r3, [r3, #12]
	blx	r3
.L1930:
	cmp	fp, #0
	bne	.L1951
.L1936:
	ldr	r3, [r4, #28]
	cmp	r3, #1
	sub	r3, r3, #1
	str	r3, [r4, #28]
	bne	.L1905
	ldr	r3, [r4]
	mov	r0, r4
	ldr	r3, [r3, #8]
	blx	r3
	mcr	p15, 0, r0, c7, c10, 5
	ldr	r2, [r4, #32]
	sub	r3, r2, #1
	str	r3, [r4, #32]
	b	.L1946
.L1920:
	ldr	r3, [r7, #28]
	cmp	r3, #1
	sub	r3, r3, #1
	str	r3, [r7, #28]
	beq	.L1999
	ldr	r3, .L2000+12
	ldr	r2, [r4]
	mov	r0, r4
	ldr	r1, [r6, r3]
	ldr	r3, [r2, #16]
	blx	r3
	add	r6, r4, #28
	str	r4, [sp, #20]
	str	r0, [sp, #16]
	b	.L1927
.L1914:
	ldr	r3, [r7, #28]
	cmp	r3, #1
	sub	r3, r3, #1
	str	r3, [r7, #28]
	bne	.L1913
	ldr	r3, [r7]
	mov	r0, r7
	ldr	r3, [r3, #8]
	blx	r3
	mcr	p15, 0, r0, c7, c10, 5
	ldr	r2, [r7, #32]
	sub	r3, r2, #1
	str	r3, [r7, #32]
	b	.L1944
.L1998:
	ldr	r3, [r4]
	mov	r0, r4
	ldr	r3, [r3, #8]
	blx	r3
	add	r3, r4, #32
	mcr	p15, 0, r0, c7, c10, 5
	mcr	p15, 0, r0, c7, c10, 5
.L1975:
	ldrex	r2, [r3]
	sub	r1, r2, #1
	strex	r0, r1, [r3]
	cmp	r0, #0
	bne	.L1975
	mcr	p15, 0, r0, c7, c10, 5
.L1946:
	cmp	r2, #1
	bne	.L1905
	ldr	r3, [r4]
	mov	r0, r4
	ldr	r3, [r3, #12]
	blx	r3
	b	.L1905
.L1997:
	ldr	r3, [r5]
	mov	r0, r5
	ldr	r3, [r3, #8]
	blx	r3
	add	r3, r5, #32
	mcr	p15, 0, r0, c7, c10, 5
	mcr	p15, 0, r0, c7, c10, 5
.L1974:
	ldrex	r2, [r3]
	sub	r1, r2, #1
	strex	r0, r1, [r3]
	cmp	r0, #0
	bne	.L1974
	cmp	r2, #1
	mcr	p15, 0, r0, c7, c10, 5
	bne	.L1951
	b	.L1948
.L1906:
	ldr	r2, [r5, #24]
	ldr	r3, [r5, #20]
	cmp	r2, #0
	str	r2, [sp, #28]
	str	r3, [sp, #24]
	beq	.L1909
	ldr	r3, .L2000+8
	ldr	fp, [r6, r3]
	cmp	fp, #0
	bne	.L1986
	b	.L1910
.L1995:
	ldr	r3, [r7]
	mov	r0, r7
	ldr	r3, [r3, #8]
	blx	r3
	add	r3, r7, #32
	mcr	p15, 0, r0, c7, c10, 5
	mcr	p15, 0, r0, c7, c10, 5
.L1977:
	ldrex	r2, [r3]
	sub	r1, r2, #1
	strex	r0, r1, [r3]
	cmp	r0, #0
	bne	.L1977
	mcr	p15, 0, r0, c7, c10, 5
.L1944:
	cmp	r2, #1
	bne	.L1913
	ldr	r3, [r7]
	mov	r0, r7
	ldr	r3, [r3, #12]
	blx	r3
	b	.L1913
.L1999:
	ldr	r3, [r7]
	mov	r0, r7
	ldr	r3, [r3, #8]
	blx	r3
	mcr	p15, 0, r0, c7, c10, 5
	ldr	r2, [r7, #32]
	sub	r3, r2, #1
	str	r3, [r7, #32]
	b	.L1945
.L1953:
	mov	r0, r10
	bl	_ZN7openpal6LoggerD1Ev(PLT)
	mov	r0, r4
	bl	_ZdlPv(PLT)
.LEHB59:
	bl	__cxa_end_cleanup(PLT)
.L1952:
	ldr	r0, [sp, #20]
	cmp	r0, #0
	beq	.L1942
	bl	_ZNSt16_Sp_counted_baseILN9__gnu_cxx12_Lock_policyE1EE10_M_releaseEv(PLT)
.L1942:
	mov	r0, r4
	bl	_ZNSt16_Sp_counted_baseILN9__gnu_cxx12_Lock_policyE1EE10_M_releaseEv(PLT)
	bl	__cxa_end_cleanup(PLT)
.LEHE59:
.L2001:
	.align	2
.L2000:
	.word	_GLOBAL_OFFSET_TABLE_-(.LPIC87+8)
	.word	_ZTVSt23_Sp_counted_ptr_inplaceIN8opendnp317EmptyResponseTaskESaIS1_ELN9__gnu_cxx12_Lock_policyE1EE(GOT)
	.word	_ZL28__gthrw___pthread_key_createPjPFvPvE(GOT)
	.word	_ZTISt19_Sp_make_shared_tag(GOT)
	.personality	__gxx_personality_v0
	.handlerdata
.LLSDA3309:
	.byte	0xff
	.byte	0xff
	.byte	0x1
	.uleb128 .LLSDACSE3309-.LLSDACSB3309
.LLSDACSB3309:
	.uleb128 .LEHB56-.LFB3309
	.uleb128 .LEHE56-.LEHB56
	.uleb128 0
	.uleb128 0
	.uleb128 .LEHB57-.LFB3309
	.uleb128 .LEHE57-.LEHB57
	.uleb128 .L1953-.LFB3309
	.uleb128 0
	.uleb128 .LEHB58-.LFB3309
	.uleb128 .LEHE58-.LEHB58
	.uleb128 .L1952-.LFB3309
	.uleb128 0
	.uleb128 .LEHB59-.LFB3309
	.uleb128 .LEHE59-.LEHB59
	.uleb128 0
	.uleb128 0
.LLSDACSE3309:
	.text
	.fnend
	.size	_ZN8opendnp38MContext15PerformFunctionERKNSt7__cxx1112basic_stringIcSt11char_traitsIcESaIcEEENS_12FunctionCodeERKSt8functionIFbRNS_12HeaderWriterEEENS_10TaskConfigE, .-_ZN8opendnp38MContext15PerformFunctionERKNSt7__cxx1112basic_stringIcSt11char_traitsIcESaIcEEENS_12FunctionCodeERKSt8functionIFbRNS_12HeaderWriterEEENS_10TaskConfigE
	.align	2
	.global	_ZN8opendnp38MContext7RestartENS_11RestartTypeERKSt8functionIFvRKNS_22RestartOperationResultEEENS_10TaskConfigE
	.syntax unified
	.arm
	.fpu vfp
	.type	_ZN8opendnp38MContext7RestartENS_11RestartTypeERKSt8functionIFvRKNS_22RestartOperationResultEEENS_10TaskConfigE, %function
_ZN8opendnp38MContext7RestartENS_11RestartTypeERKSt8functionIFvRKNS_22RestartOperationResultEEENS_10TaskConfigE:
	.fnstart
.LFB3302:
	@ args = 16, pretend = 8, frame = 16
	@ frame_needed = 0, uses_anonymous_args = 0
	.pad #8
	sub	sp, sp, #8
	push	{r4, r5, r6, r7, r8, r9, r10, fp, lr}
	.save {r4, r5, r6, r7, r8, r9, r10, fp, lr}
	mov	r5, r0
	.pad #28
	sub	sp, sp, #28
	mov	r0, #168
	mov	r8, r1
	mov	r9, r2
	str	r3, [sp, #68]
	ldr	r7, [r5, #96]
.LEHB60:
	bl	_Znwj(PLT)
.LEHE60:
	ldr	r6, .L2097
	ldr	r2, .L2097+4
.LPIC88:
	add	r6, pc, r6
	mov	r3, #0
	mov	r1, #1
	str	r3, [r0, #4]
	str	r3, [r0, #8]
	str	r3, [r0, #12]
	str	r3, [r0, #16]
	str	r3, [r0, #20]
	str	r3, [r0, #24]
	str	r1, [r0, #28]
	str	r1, [r0, #32]
	ldr	r3, [r5, #16]
	ldr	r2, [r6, r2]
	ldr	r1, [r5, #12]
	add	r2, r2, #8
	cmp	r3, #0
	mov	r4, r0
	str	r3, [sp, #12]
	str	r2, [r0], #40
	str	r1, [sp, #8]
	beq	.L2003
	ldr	r2, .L2097+8
	ldr	r10, [r6, r2]
	cmp	r10, #0
	beq	.L2004
	add	r3, r3, #28
	mcr	p15, 0, r0, c7, c10, 5
.L2081:
	ldrex	r2, [r3]
	add	r2, r2, #1
	strex	r1, r2, [r3]
	cmp	r1, #0
	bne	.L2081
	mcr	p15, 0, r0, c7, c10, 5
	ldr	r2, [r5, #24]
	ldr	r3, [r5, #20]
	cmp	r2, #0
	str	r3, [sp, #16]
	str	r2, [sp, #20]
	beq	.L2006
.L2083:
	add	r2, r2, #28
	mcr	p15, 0, r0, c7, c10, 5
.L2080:
	ldrex	r3, [r2]
	add	r3, r3, #1
	strex	r1, r3, [r2]
	cmp	r1, #0
	bne	.L2080
	mcr	p15, 0, r0, c7, c10, 5
.L2006:
	add	ip, sp, #68
	add	fp, sp, #8
	mov	r3, r9
	mov	r2, r8
	mov	r1, r7
	stm	sp, {fp, ip}
.LEHB61:
	bl	_ZN8opendnp320RestartOperationTaskC1ERNS_18IMasterApplicationENS_11RestartTypeERKSt8functionIFvRKNS_22RestartOperationResultEEEN7openpal6LoggerERKNS_10TaskConfigE(PLT)
.LEHE61:
	ldr	r7, [sp, #20]
	ldr	r3, .L2097+8
	cmp	r7, #0
	ldr	r10, [r6, r3]
	beq	.L2010
	cmp	r10, #0
	beq	.L2011
	add	r3, r7, #28
	mcr	p15, 0, r0, c7, c10, 5
.L2079:
	ldrex	r2, [r3]
	sub	r1, r2, #1
	strex	r0, r1, [r3]
	cmp	r0, #0
	bne	.L2079
	cmp	r2, #1
	mcr	p15, 0, r0, c7, c10, 5
	beq	.L2092
.L2010:
	ldr	r7, [sp, #12]
	cmp	r7, #0
	beq	.L2016
	cmp	r10, #0
	beq	.L2017
	add	r3, r7, #28
	mcr	p15, 0, r0, c7, c10, 5
.L2078:
	ldrex	r2, [r3]
	sub	r1, r2, #1
	strex	r0, r1, [r3]
	cmp	r0, #0
	bne	.L2078
	cmp	r2, #1
	mcr	p15, 0, r0, c7, c10, 5
	beq	.L2093
	ldr	r3, .L2097+12
	ldr	r2, [r4]
	mov	r0, r4
	ldr	r1, [r6, r3]
	ldr	r3, [r2, #16]
	blx	r3
	add	r6, r4, #28
	str	r4, [sp, #12]
	str	r0, [sp, #8]
.L2023:
	mcr	p15, 0, r0, c7, c10, 5
.L2077:
	ldrex	r3, [r6]
	add	r3, r3, #1
	strex	r2, r3, [r6]
	cmp	r2, #0
	bne	.L2077
	mcr	p15, 0, r0, c7, c10, 5
.L2026:
	mov	r1, fp
	mov	r0, r5
.LEHB62:
	bl	_ZN8opendnp38MContext17ScheduleAdhocTaskERKSt10shared_ptrINS_11IMasterTaskEE(PLT)
.LEHE62:
	ldr	r5, [sp, #12]
	cmp	r5, #0
	beq	.L2027
	cmp	r10, #0
	beq	.L2028
	add	r3, r5, #28
	mcr	p15, 0, r0, c7, c10, 5
.L2076:
	ldrex	r2, [r3]
	sub	r1, r2, #1
	strex	r0, r1, [r3]
	cmp	r0, #0
	bne	.L2076
	cmp	r2, #1
	mcr	p15, 0, r0, c7, c10, 5
	beq	.L2094
.L2048:
	mcr	p15, 0, r0, c7, c10, 5
.L2075:
	ldrex	r3, [r6]
	sub	r2, r3, #1
	strex	r1, r2, [r6]
	cmp	r1, #0
	bne	.L2075
	cmp	r3, #1
	mcr	p15, 0, r0, c7, c10, 5
	beq	.L2095
.L2002:
	add	sp, sp, #28
	@ sp needed
	pop	{r4, r5, r6, r7, r8, r9, r10, fp, lr}
	add	sp, sp, #8
	bx	lr
.L2004:
	ldr	r1, [r3, #28]
	ldr	r2, [r5, #24]
	add	r1, r1, #1
	str	r1, [r3, #28]
	ldr	r3, [r5, #20]
	cmp	r2, #0
	str	r2, [sp, #20]
	str	r3, [sp, #16]
	beq	.L2006
.L2007:
	ldr	r3, [r2, #28]
	add	r3, r3, #1
	str	r3, [r2, #28]
	b	.L2006
.L2093:
	ldr	r3, [r7]
	mov	r0, r7
	ldr	r3, [r3, #8]
	blx	r3
	add	r3, r7, #32
	mcr	p15, 0, r0, c7, c10, 5
	mcr	p15, 0, r0, c7, c10, 5
.L2073:
	ldrex	r2, [r3]
	sub	r1, r2, #1
	strex	r0, r1, [r3]
	cmp	r0, #0
	bne	.L2073
	mcr	p15, 0, r0, c7, c10, 5
.L2042:
	cmp	r2, #1
	bne	.L2016
	ldr	r3, [r7]
	mov	r0, r7
	ldr	r3, [r3, #12]
	blx	r3
.L2016:
	ldr	r3, .L2097+12
	ldr	r2, [r4]
	mov	r0, r4
	ldr	r1, [r6, r3]
	ldr	r3, [r2, #16]
	blx	r3
	cmp	r10, #0
	str	r4, [sp, #12]
	add	r6, r4, #28
	str	r0, [sp, #8]
	bne	.L2023
.L2024:
	ldr	r3, [r4, #28]
	add	r3, r3, #1
	str	r3, [r4, #28]
	b	.L2026
.L2028:
	ldr	r3, [r5, #28]
	cmp	r3, #1
	sub	r3, r3, #1
	str	r3, [r5, #28]
	bne	.L2033
	ldr	r3, [r5]
	mov	r0, r5
	ldr	r3, [r3, #8]
	blx	r3
	mcr	p15, 0, r0, c7, c10, 5
	ldr	r3, [r5, #32]
	cmp	r3, #1
	sub	r3, r3, #1
	str	r3, [r5, #32]
	bne	.L2033
.L2045:
	ldr	r3, [r5]
	mov	r0, r5
	ldr	r3, [r3, #12]
	blx	r3
.L2027:
	cmp	r10, #0
	bne	.L2048
.L2033:
	ldr	r3, [r4, #28]
	cmp	r3, #1
	sub	r3, r3, #1
	str	r3, [r4, #28]
	bne	.L2002
	ldr	r3, [r4]
	mov	r0, r4
	ldr	r3, [r3, #8]
	blx	r3
	mcr	p15, 0, r0, c7, c10, 5
	ldr	r2, [r4, #32]
	sub	r3, r2, #1
	str	r3, [r4, #32]
	b	.L2043
.L2017:
	ldr	r3, [r7, #28]
	cmp	r3, #1
	sub	r3, r3, #1
	str	r3, [r7, #28]
	beq	.L2096
	ldr	r3, .L2097+12
	ldr	r2, [r4]
	mov	r0, r4
	ldr	r1, [r6, r3]
	ldr	r3, [r2, #16]
	blx	r3
	add	r6, r4, #28
	str	r4, [sp, #12]
	str	r0, [sp, #8]
	b	.L2024
.L2011:
	ldr	r3, [r7, #28]
	cmp	r3, #1
	sub	r3, r3, #1
	str	r3, [r7, #28]
	bne	.L2010
	ldr	r3, [r7]
	mov	r0, r7
	ldr	r3, [r3, #8]
	blx	r3
	mcr	p15, 0, r0, c7, c10, 5
	ldr	r2, [r7, #32]
	sub	r3, r2, #1
	str	r3, [r7, #32]
	b	.L2041
.L2095:
	ldr	r3, [r4]
	mov	r0, r4
	ldr	r3, [r3, #8]
	blx	r3
	add	r3, r4, #32
	mcr	p15, 0, r0, c7, c10, 5
	mcr	p15, 0, r0, c7, c10, 5
.L2072:
	ldrex	r2, [r3]
	sub	r1, r2, #1
	strex	r0, r1, [r3]
	cmp	r0, #0
	bne	.L2072
	mcr	p15, 0, r0, c7, c10, 5
.L2043:
	cmp	r2, #1
	bne	.L2002
	ldr	r3, [r4]
	mov	r0, r4
	ldr	r3, [r3, #12]
	blx	r3
	b	.L2002
.L2094:
	ldr	r3, [r5]
	mov	r0, r5
	ldr	r3, [r3, #8]
	blx	r3
	add	r3, r5, #32
	mcr	p15, 0, r0, c7, c10, 5
	mcr	p15, 0, r0, c7, c10, 5
.L2071:
	ldrex	r2, [r3]
	sub	r1, r2, #1
	strex	r0, r1, [r3]
	cmp	r0, #0
	bne	.L2071
	cmp	r2, #1
	mcr	p15, 0, r0, c7, c10, 5
	bne	.L2048
	b	.L2045
.L2003:
	ldr	r2, [r5, #24]
	ldr	r3, [r5, #20]
	cmp	r2, #0
	str	r2, [sp, #20]
	str	r3, [sp, #16]
	beq	.L2006
	ldr	r3, .L2097+8
	ldr	r10, [r6, r3]
	cmp	r10, #0
	bne	.L2083
	b	.L2007
.L2092:
	ldr	r3, [r7]
	mov	r0, r7
	ldr	r3, [r3, #8]
	blx	r3
	add	r3, r7, #32
	mcr	p15, 0, r0, c7, c10, 5
	mcr	p15, 0, r0, c7, c10, 5
.L2074:
	ldrex	r2, [r3]
	sub	r1, r2, #1
	strex	r0, r1, [r3]
	cmp	r0, #0
	bne	.L2074
	mcr	p15, 0, r0, c7, c10, 5
.L2041:
	cmp	r2, #1
	bne	.L2010
	ldr	r3, [r7]
	mov	r0, r7
	ldr	r3, [r3, #12]
	blx	r3
	b	.L2010
.L2096:
	ldr	r3, [r7]
	mov	r0, r7
	ldr	r3, [r3, #8]
	blx	r3
	mcr	p15, 0, r0, c7, c10, 5
	ldr	r2, [r7, #32]
	sub	r3, r2, #1
	str	r3, [r7, #32]
	b	.L2042
.L2050:
	mov	r0, fp
	bl	_ZN7openpal6LoggerD1Ev(PLT)
	mov	r0, r4
	bl	_ZdlPv(PLT)
.LEHB63:
	bl	__cxa_end_cleanup(PLT)
.L2049:
	ldr	r0, [sp, #12]
	cmp	r0, #0
	beq	.L2039
	bl	_ZNSt16_Sp_counted_baseILN9__gnu_cxx12_Lock_policyE1EE10_M_releaseEv(PLT)
.L2039:
	mov	r0, r4
	bl	_ZNSt16_Sp_counted_baseILN9__gnu_cxx12_Lock_policyE1EE10_M_releaseEv(PLT)
	bl	__cxa_end_cleanup(PLT)
.LEHE63:
.L2098:
	.align	2
.L2097:
	.word	_GLOBAL_OFFSET_TABLE_-(.LPIC88+8)
	.word	_ZTVSt23_Sp_counted_ptr_inplaceIN8opendnp320RestartOperationTaskESaIS1_ELN9__gnu_cxx12_Lock_policyE1EE(GOT)
	.word	_ZL28__gthrw___pthread_key_createPjPFvPvE(GOT)
	.word	_ZTISt19_Sp_make_shared_tag(GOT)
	.personality	__gxx_personality_v0
	.handlerdata
.LLSDA3302:
	.byte	0xff
	.byte	0xff
	.byte	0x1
	.uleb128 .LLSDACSE3302-.LLSDACSB3302
.LLSDACSB3302:
	.uleb128 .LEHB60-.LFB3302
	.uleb128 .LEHE60-.LEHB60
	.uleb128 0
	.uleb128 0
	.uleb128 .LEHB61-.LFB3302
	.uleb128 .LEHE61-.LEHB61
	.uleb128 .L2050-.LFB3302
	.uleb128 0
	.uleb128 .LEHB62-.LFB3302
	.uleb128 .LEHE62-.LEHB62
	.uleb128 .L2049-.LFB3302
	.uleb128 0
	.uleb128 .LEHB63-.LFB3302
	.uleb128 .LEHE63-.LEHB63
	.uleb128 0
	.uleb128 0
.LLSDACSE3302:
	.text
	.fnend
	.size	_ZN8opendnp38MContext7RestartENS_11RestartTypeERKSt8functionIFvRKNS_22RestartOperationResultEEENS_10TaskConfigE, .-_ZN8opendnp38MContext7RestartENS_11RestartTypeERKSt8functionIFvRKNS_22RestartOperationResultEEENS_10TaskConfigE
	.section	.text.startup,"ax",%progbits
	.align	2
	.syntax unified
	.arm
	.fpu vfp
	.type	_GLOBAL__sub_I_MasterContext.cpp, %function
_GLOBAL__sub_I_MasterContext.cpp:
	.fnstart
.LFB4823:
	@ args = 0, pretend = 0, frame = 8
	@ frame_needed = 0, uses_anonymous_args = 0
	str	lr, [sp, #-4]!
	sub	sp, sp, #12
	ldr	r2, .L2101
	mov	r3, #0
	mov	r0, sp
	bl	_ZN7openpal12TimeDuration12MillisecondsEx(PLT)
	add	sp, sp, #12
	@ sp needed
	ldr	pc, [sp], #4
.L2102:
	.align	2
.L2101:
	.word	5000
	.cantunwind
	.fnend
	.size	_GLOBAL__sub_I_MasterContext.cpp, .-_GLOBAL__sub_I_MasterContext.cpp
	.section	.init_array,"aw"
	.align	2
	.word	_GLOBAL__sub_I_MasterContext.cpp
	.weak	_ZTSN9__gnu_cxx7__mutexE
	.section	.rodata._ZTSN9__gnu_cxx7__mutexE,"aG",%progbits,_ZTSN9__gnu_cxx7__mutexE,comdat
	.align	2
	.type	_ZTSN9__gnu_cxx7__mutexE, %object
	.size	_ZTSN9__gnu_cxx7__mutexE, 21
_ZTSN9__gnu_cxx7__mutexE:
	.ascii	"N9__gnu_cxx7__mutexE\000"
	.weak	_ZTIN9__gnu_cxx7__mutexE
	.section	.data.rel.ro._ZTIN9__gnu_cxx7__mutexE,"awG",%progbits,_ZTIN9__gnu_cxx7__mutexE,comdat
	.align	2
	.type	_ZTIN9__gnu_cxx7__mutexE, %object
	.size	_ZTIN9__gnu_cxx7__mutexE, 8
_ZTIN9__gnu_cxx7__mutexE:
	.word	_ZTVN10__cxxabiv117__class_type_infoE+8
	.word	_ZTSN9__gnu_cxx7__mutexE
	.weak	_ZTSN7openpal10UncopyableE
	.section	.rodata._ZTSN7openpal10UncopyableE,"aG",%progbits,_ZTSN7openpal10UncopyableE,comdat
	.align	2
	.type	_ZTSN7openpal10UncopyableE, %object
	.size	_ZTSN7openpal10UncopyableE, 23
_ZTSN7openpal10UncopyableE:
	.ascii	"N7openpal10UncopyableE\000"
	.weak	_ZTIN7openpal10UncopyableE
	.section	.data.rel.ro._ZTIN7openpal10UncopyableE,"awG",%progbits,_ZTIN7openpal10UncopyableE,comdat
	.align	2
	.type	_ZTIN7openpal10UncopyableE, %object
	.size	_ZTIN7openpal10UncopyableE, 8
_ZTIN7openpal10UncopyableE:
	.word	_ZTVN10__cxxabiv117__class_type_infoE+8
	.word	_ZTSN7openpal10UncopyableE
	.weak	_ZTSSt11_Mutex_baseILN9__gnu_cxx12_Lock_policyE1EE
	.section	.rodata._ZTSSt11_Mutex_baseILN9__gnu_cxx12_Lock_policyE1EE,"aG",%progbits,_ZTSSt11_Mutex_baseILN9__gnu_cxx12_Lock_policyE1EE,comdat
	.align	2
	.type	_ZTSSt11_Mutex_baseILN9__gnu_cxx12_Lock_policyE1EE, %object
	.size	_ZTSSt11_Mutex_baseILN9__gnu_cxx12_Lock_policyE1EE, 47
_ZTSSt11_Mutex_baseILN9__gnu_cxx12_Lock_policyE1EE:
	.ascii	"St11_Mutex_baseILN9__gnu_cxx12_Lock_policyE1EE\000"
	.weak	_ZTISt11_Mutex_baseILN9__gnu_cxx12_Lock_policyE1EE
	.section	.data.rel.ro._ZTISt11_Mutex_baseILN9__gnu_cxx12_Lock_policyE1EE,"awG",%progbits,_ZTISt11_Mutex_baseILN9__gnu_cxx12_Lock_policyE1EE,comdat
	.align	2
	.type	_ZTISt11_Mutex_baseILN9__gnu_cxx12_Lock_policyE1EE, %object
	.size	_ZTISt11_Mutex_baseILN9__gnu_cxx12_Lock_policyE1EE, 12
_ZTISt11_Mutex_baseILN9__gnu_cxx12_Lock_policyE1EE:
	.word	_ZTVN10__cxxabiv120__si_class_type_infoE+8
	.word	_ZTSSt11_Mutex_baseILN9__gnu_cxx12_Lock_policyE1EE
	.word	_ZTIN9__gnu_cxx7__mutexE
	.weak	_ZTSN7openpal7HasSizeIjEE
	.section	.rodata._ZTSN7openpal7HasSizeIjEE,"aG",%progbits,_ZTSN7openpal7HasSizeIjEE,comdat
	.align	2
	.type	_ZTSN7openpal7HasSizeIjEE, %object
	.size	_ZTSN7openpal7HasSizeIjEE, 22
_ZTSN7openpal7HasSizeIjEE:
	.ascii	"N7openpal7HasSizeIjEE\000"
	.weak	_ZTIN7openpal7HasSizeIjEE
	.section	.data.rel.ro._ZTIN7openpal7HasSizeIjEE,"awG",%progbits,_ZTIN7openpal7HasSizeIjEE,comdat
	.align	2
	.type	_ZTIN7openpal7HasSizeIjEE, %object
	.size	_ZTIN7openpal7HasSizeIjEE, 8
_ZTIN7openpal7HasSizeIjEE:
	.word	_ZTVN10__cxxabiv117__class_type_infoE+8
	.word	_ZTSN7openpal7HasSizeIjEE
	.weak	_ZTSSt16_Sp_counted_baseILN9__gnu_cxx12_Lock_policyE1EE
	.section	.rodata._ZTSSt16_Sp_counted_baseILN9__gnu_cxx12_Lock_policyE1EE,"aG",%progbits,_ZTSSt16_Sp_counted_baseILN9__gnu_cxx12_Lock_policyE1EE,comdat
	.align	2
	.type	_ZTSSt16_Sp_counted_baseILN9__gnu_cxx12_Lock_policyE1EE, %object
	.size	_ZTSSt16_Sp_counted_baseILN9__gnu_cxx12_Lock_policyE1EE, 52
_ZTSSt16_Sp_counted_baseILN9__gnu_cxx12_Lock_policyE1EE:
	.ascii	"St16_Sp_counted_baseILN9__gnu_cxx12_Lock_policyE1EE"
	.ascii	"\000"
	.weak	_ZTISt16_Sp_counted_baseILN9__gnu_cxx12_Lock_policyE1EE
	.section	.data.rel.ro._ZTISt16_Sp_counted_baseILN9__gnu_cxx12_Lock_policyE1EE,"awG",%progbits,_ZTISt16_Sp_counted_baseILN9__gnu_cxx12_Lock_policyE1EE,comdat
	.align	2
	.type	_ZTISt16_Sp_counted_baseILN9__gnu_cxx12_Lock_policyE1EE, %object
	.size	_ZTISt16_Sp_counted_baseILN9__gnu_cxx12_Lock_policyE1EE, 24
_ZTISt16_Sp_counted_baseILN9__gnu_cxx12_Lock_policyE1EE:
	.word	_ZTVN10__cxxabiv121__vmi_class_type_infoE+8
	.word	_ZTSSt16_Sp_counted_baseILN9__gnu_cxx12_Lock_policyE1EE
	.word	0
	.word	1
	.word	_ZTISt11_Mutex_baseILN9__gnu_cxx12_Lock_policyE1EE
	.word	1026
	.weak	_ZTSN7openpal5ArrayIhjEE
	.section	.rodata._ZTSN7openpal5ArrayIhjEE,"aG",%progbits,_ZTSN7openpal5ArrayIhjEE,comdat
	.align	2
	.type	_ZTSN7openpal5ArrayIhjEE, %object
	.size	_ZTSN7openpal5ArrayIhjEE, 21
_ZTSN7openpal5ArrayIhjEE:
	.ascii	"N7openpal5ArrayIhjEE\000"
	.weak	_ZTIN7openpal5ArrayIhjEE
	.section	.data.rel.ro._ZTIN7openpal5ArrayIhjEE,"awG",%progbits,_ZTIN7openpal5ArrayIhjEE,comdat
	.align	2
	.type	_ZTIN7openpal5ArrayIhjEE, %object
	.size	_ZTIN7openpal5ArrayIhjEE, 24
_ZTIN7openpal5ArrayIhjEE:
	.word	_ZTVN10__cxxabiv121__vmi_class_type_infoE+8
	.word	_ZTSN7openpal5ArrayIhjEE
	.word	0
	.word	1
	.word	_ZTIN7openpal7HasSizeIjEE
	.word	1026
	.weak	_ZTSN8opendnp37IUpDownE
	.section	.rodata._ZTSN8opendnp37IUpDownE,"aG",%progbits,_ZTSN8opendnp37IUpDownE,comdat
	.align	2
	.type	_ZTSN8opendnp37IUpDownE, %object
	.size	_ZTSN8opendnp37IUpDownE, 20
_ZTSN8opendnp37IUpDownE:
	.ascii	"N8opendnp37IUpDownE\000"
	.weak	_ZTIN8opendnp37IUpDownE
	.section	.data.rel.ro._ZTIN8opendnp37IUpDownE,"awG",%progbits,_ZTIN8opendnp37IUpDownE,comdat
	.align	2
	.type	_ZTIN8opendnp37IUpDownE, %object
	.size	_ZTIN8opendnp37IUpDownE, 8
_ZTIN8opendnp37IUpDownE:
	.word	_ZTVN10__cxxabiv117__class_type_infoE+8
	.word	_ZTSN8opendnp37IUpDownE
	.weak	_ZTSN8opendnp311IUpperLayerE
	.section	.rodata._ZTSN8opendnp311IUpperLayerE,"aG",%progbits,_ZTSN8opendnp311IUpperLayerE,comdat
	.align	2
	.type	_ZTSN8opendnp311IUpperLayerE, %object
	.size	_ZTSN8opendnp311IUpperLayerE, 25
_ZTSN8opendnp311IUpperLayerE:
	.ascii	"N8opendnp311IUpperLayerE\000"
	.weak	_ZTIN8opendnp311IUpperLayerE
	.section	.data.rel.ro._ZTIN8opendnp311IUpperLayerE,"awG",%progbits,_ZTIN8opendnp311IUpperLayerE,comdat
	.align	2
	.type	_ZTIN8opendnp311IUpperLayerE, %object
	.size	_ZTIN8opendnp311IUpperLayerE, 12
_ZTIN8opendnp311IUpperLayerE:
	.word	_ZTVN10__cxxabiv120__si_class_type_infoE+8
	.word	_ZTSN8opendnp311IUpperLayerE
	.word	_ZTIN8opendnp37IUpDownE
	.weak	_ZTSN8opendnp317IScheduleCallbackE
	.section	.rodata._ZTSN8opendnp317IScheduleCallbackE,"aG",%progbits,_ZTSN8opendnp317IScheduleCallbackE,comdat
	.align	2
	.type	_ZTSN8opendnp317IScheduleCallbackE, %object
	.size	_ZTSN8opendnp317IScheduleCallbackE, 31
_ZTSN8opendnp317IScheduleCallbackE:
	.ascii	"N8opendnp317IScheduleCallbackE\000"
	.weak	_ZTIN8opendnp317IScheduleCallbackE
	.section	.data.rel.ro._ZTIN8opendnp317IScheduleCallbackE,"awG",%progbits,_ZTIN8opendnp317IScheduleCallbackE,comdat
	.align	2
	.type	_ZTIN8opendnp317IScheduleCallbackE, %object
	.size	_ZTIN8opendnp317IScheduleCallbackE, 8
_ZTIN8opendnp317IScheduleCallbackE:
	.word	_ZTVN10__cxxabiv117__class_type_infoE+8
	.word	_ZTSN8opendnp317IScheduleCallbackE
	.weak	_ZTSN8opendnp311ITaskFilterE
	.section	.rodata._ZTSN8opendnp311ITaskFilterE,"aG",%progbits,_ZTSN8opendnp311ITaskFilterE,comdat
	.align	2
	.type	_ZTSN8opendnp311ITaskFilterE, %object
	.size	_ZTSN8opendnp311ITaskFilterE, 25
_ZTSN8opendnp311ITaskFilterE:
	.ascii	"N8opendnp311ITaskFilterE\000"
	.weak	_ZTIN8opendnp311ITaskFilterE
	.section	.data.rel.ro._ZTIN8opendnp311ITaskFilterE,"awG",%progbits,_ZTIN8opendnp311ITaskFilterE,comdat
	.align	2
	.type	_ZTIN8opendnp311ITaskFilterE, %object
	.size	_ZTIN8opendnp311ITaskFilterE, 8
_ZTIN8opendnp311ITaskFilterE:
	.word	_ZTVN10__cxxabiv117__class_type_infoE+8
	.word	_ZTSN8opendnp311ITaskFilterE
	.global	_ZTSN8opendnp38MContextE
	.global	_ZTIN8opendnp38MContextE
	.weak	_ZTSSt19_Sp_make_shared_tag
	.section	.rodata._ZTSSt19_Sp_make_shared_tag,"aG",%progbits,_ZTSSt19_Sp_make_shared_tag,comdat
	.align	2
	.type	_ZTSSt19_Sp_make_shared_tag, %object
	.size	_ZTSSt19_Sp_make_shared_tag, 24
_ZTSSt19_Sp_make_shared_tag:
	.ascii	"St19_Sp_make_shared_tag\000"
	.weak	_ZTISt19_Sp_make_shared_tag
	.section	.data.rel.ro._ZTISt19_Sp_make_shared_tag,"awG",%progbits,_ZTISt19_Sp_make_shared_tag,comdat
	.align	2
	.type	_ZTISt19_Sp_make_shared_tag, %object
	.size	_ZTISt19_Sp_make_shared_tag, 8
_ZTISt19_Sp_make_shared_tag:
	.word	_ZTVN10__cxxabiv117__class_type_infoE+8
	.word	_ZTSSt19_Sp_make_shared_tag
	.weak	_ZTSSt23_Sp_counted_ptr_inplaceIN8opendnp312UserPollTaskESaIS1_ELN9__gnu_cxx12_Lock_policyE1EE
	.section	.rodata._ZTSSt23_Sp_counted_ptr_inplaceIN8opendnp312UserPollTaskESaIS1_ELN9__gnu_cxx12_Lock_policyE1EE,"aG",%progbits,_ZTSSt23_Sp_counted_ptr_inplaceIN8opendnp312UserPollTaskESaIS1_ELN9__gnu_cxx12_Lock_policyE1EE,comdat
	.align	2
	.type	_ZTSSt23_Sp_counted_ptr_inplaceIN8opendnp312UserPollTaskESaIS1_ELN9__gnu_cxx12_Lock_policyE1EE, %object
	.size	_ZTSSt23_Sp_counted_ptr_inplaceIN8opendnp312UserPollTaskESaIS1_ELN9__gnu_cxx12_Lock_policyE1EE, 91
_ZTSSt23_Sp_counted_ptr_inplaceIN8opendnp312UserPollTaskESaIS1_ELN9__gnu_cxx12_Lock_policyE1EE:
	.ascii	"St23_Sp_counted_ptr_inplaceIN8opendnp312UserPollTas"
	.ascii	"kESaIS1_ELN9__gnu_cxx12_Lock_policyE1EE\000"
	.weak	_ZTISt23_Sp_counted_ptr_inplaceIN8opendnp312UserPollTaskESaIS1_ELN9__gnu_cxx12_Lock_policyE1EE
	.section	.data.rel.ro._ZTISt23_Sp_counted_ptr_inplaceIN8opendnp312UserPollTaskESaIS1_ELN9__gnu_cxx12_Lock_policyE1EE,"awG",%progbits,_ZTISt23_Sp_counted_ptr_inplaceIN8opendnp312UserPollTaskESaIS1_ELN9__gnu_cxx12_Lock_policyE1EE,comdat
	.align	2
	.type	_ZTISt23_Sp_counted_ptr_inplaceIN8opendnp312UserPollTaskESaIS1_ELN9__gnu_cxx12_Lock_policyE1EE, %object
	.size	_ZTISt23_Sp_counted_ptr_inplaceIN8opendnp312UserPollTaskESaIS1_ELN9__gnu_cxx12_Lock_policyE1EE, 12
_ZTISt23_Sp_counted_ptr_inplaceIN8opendnp312UserPollTaskESaIS1_ELN9__gnu_cxx12_Lock_policyE1EE:
	.word	_ZTVN10__cxxabiv120__si_class_type_infoE+8
	.word	_ZTSSt23_Sp_counted_ptr_inplaceIN8opendnp312UserPollTaskESaIS1_ELN9__gnu_cxx12_Lock_policyE1EE
	.word	_ZTISt16_Sp_counted_baseILN9__gnu_cxx12_Lock_policyE1EE
	.weak	_ZTSSt23_Sp_counted_ptr_inplaceIN8opendnp317EmptyResponseTaskESaIS1_ELN9__gnu_cxx12_Lock_policyE1EE
	.section	.rodata._ZTSSt23_Sp_counted_ptr_inplaceIN8opendnp317EmptyResponseTaskESaIS1_ELN9__gnu_cxx12_Lock_policyE1EE,"aG",%progbits,_ZTSSt23_Sp_counted_ptr_inplaceIN8opendnp317EmptyResponseTaskESaIS1_ELN9__gnu_cxx12_Lock_policyE1EE,comdat
	.align	2
	.type	_ZTSSt23_Sp_counted_ptr_inplaceIN8opendnp317EmptyResponseTaskESaIS1_ELN9__gnu_cxx12_Lock_policyE1EE, %object
	.size	_ZTSSt23_Sp_counted_ptr_inplaceIN8opendnp317EmptyResponseTaskESaIS1_ELN9__gnu_cxx12_Lock_policyE1EE, 96
_ZTSSt23_Sp_counted_ptr_inplaceIN8opendnp317EmptyResponseTaskESaIS1_ELN9__gnu_cxx12_Lock_policyE1EE:
	.ascii	"St23_Sp_counted_ptr_inplaceIN8opendnp317EmptyRespon"
	.ascii	"seTaskESaIS1_ELN9__gnu_cxx12_Lock_policyE1EE\000"
	.weak	_ZTISt23_Sp_counted_ptr_inplaceIN8opendnp317EmptyResponseTaskESaIS1_ELN9__gnu_cxx12_Lock_policyE1EE
	.section	.data.rel.ro._ZTISt23_Sp_counted_ptr_inplaceIN8opendnp317EmptyResponseTaskESaIS1_ELN9__gnu_cxx12_Lock_policyE1EE,"awG",%progbits,_ZTISt23_Sp_counted_ptr_inplaceIN8opendnp317EmptyResponseTaskESaIS1_ELN9__gnu_cxx12_Lock_policyE1EE,comdat
	.align	2
	.type	_ZTISt23_Sp_counted_ptr_inplaceIN8opendnp317EmptyResponseTaskESaIS1_ELN9__gnu_cxx12_Lock_policyE1EE, %object
	.size	_ZTISt23_Sp_counted_ptr_inplaceIN8opendnp317EmptyResponseTaskESaIS1_ELN9__gnu_cxx12_Lock_policyE1EE, 12
_ZTISt23_Sp_counted_ptr_inplaceIN8opendnp317EmptyResponseTaskESaIS1_ELN9__gnu_cxx12_Lock_policyE1EE:
	.word	_ZTVN10__cxxabiv120__si_class_type_infoE+8
	.word	_ZTSSt23_Sp_counted_ptr_inplaceIN8opendnp317EmptyResponseTaskESaIS1_ELN9__gnu_cxx12_Lock_policyE1EE
	.word	_ZTISt16_Sp_counted_baseILN9__gnu_cxx12_Lock_policyE1EE
	.weak	_ZTSSt23_Sp_counted_ptr_inplaceIN8opendnp320RestartOperationTaskESaIS1_ELN9__gnu_cxx12_Lock_policyE1EE
	.section	.rodata._ZTSSt23_Sp_counted_ptr_inplaceIN8opendnp320RestartOperationTaskESaIS1_ELN9__gnu_cxx12_Lock_policyE1EE,"aG",%progbits,_ZTSSt23_Sp_counted_ptr_inplaceIN8opendnp320RestartOperationTaskESaIS1_ELN9__gnu_cxx12_Lock_policyE1EE,comdat
	.align	2
	.type	_ZTSSt23_Sp_counted_ptr_inplaceIN8opendnp320RestartOperationTaskESaIS1_ELN9__gnu_cxx12_Lock_policyE1EE, %object
	.size	_ZTSSt23_Sp_counted_ptr_inplaceIN8opendnp320RestartOperationTaskESaIS1_ELN9__gnu_cxx12_Lock_policyE1EE, 99
_ZTSSt23_Sp_counted_ptr_inplaceIN8opendnp320RestartOperationTaskESaIS1_ELN9__gnu_cxx12_Lock_policyE1EE:
	.ascii	"St23_Sp_counted_ptr_inplaceIN8opendnp320RestartOper"
	.ascii	"ationTaskESaIS1_ELN9__gnu_cxx12_Lock_policyE1EE\000"
	.weak	_ZTISt23_Sp_counted_ptr_inplaceIN8opendnp320RestartOperationTaskESaIS1_ELN9__gnu_cxx12_Lock_policyE1EE
	.section	.data.rel.ro._ZTISt23_Sp_counted_ptr_inplaceIN8opendnp320RestartOperationTaskESaIS1_ELN9__gnu_cxx12_Lock_policyE1EE,"awG",%progbits,_ZTISt23_Sp_counted_ptr_inplaceIN8opendnp320RestartOperationTaskESaIS1_ELN9__gnu_cxx12_Lock_policyE1EE,comdat
	.align	2
	.type	_ZTISt23_Sp_counted_ptr_inplaceIN8opendnp320RestartOperationTaskESaIS1_ELN9__gnu_cxx12_Lock_policyE1EE, %object
	.size	_ZTISt23_Sp_counted_ptr_inplaceIN8opendnp320RestartOperationTaskESaIS1_ELN9__gnu_cxx12_Lock_policyE1EE, 12
_ZTISt23_Sp_counted_ptr_inplaceIN8opendnp320RestartOperationTaskESaIS1_ELN9__gnu_cxx12_Lock_policyE1EE:
	.word	_ZTVN10__cxxabiv120__si_class_type_infoE+8
	.word	_ZTSSt23_Sp_counted_ptr_inplaceIN8opendnp320RestartOperationTaskESaIS1_ELN9__gnu_cxx12_Lock_policyE1EE
	.word	_ZTISt16_Sp_counted_baseILN9__gnu_cxx12_Lock_policyE1EE
	.weak	_ZTVN7openpal5ArrayIhjEE
	.section	.data.rel.ro._ZTVN7openpal5ArrayIhjEE,"awG",%progbits,_ZTVN7openpal5ArrayIhjEE,comdat
	.align	2
	.type	_ZTVN7openpal5ArrayIhjEE, %object
	.size	_ZTVN7openpal5ArrayIhjEE, 16
_ZTVN7openpal5ArrayIhjEE:
	.word	0
	.word	_ZTIN7openpal5ArrayIhjEE
	.word	_ZN7openpal5ArrayIhjED1Ev
	.word	_ZN7openpal5ArrayIhjED0Ev
	.global	_ZTVN8opendnp38MContextE
	.weak	_ZTVSt23_Sp_counted_ptr_inplaceIN8opendnp312UserPollTaskESaIS1_ELN9__gnu_cxx12_Lock_policyE1EE
	.section	.data.rel.ro._ZTVSt23_Sp_counted_ptr_inplaceIN8opendnp312UserPollTaskESaIS1_ELN9__gnu_cxx12_Lock_policyE1EE,"awG",%progbits,_ZTVSt23_Sp_counted_ptr_inplaceIN8opendnp312UserPollTaskESaIS1_ELN9__gnu_cxx12_Lock_policyE1EE,comdat
	.align	2
	.type	_ZTVSt23_Sp_counted_ptr_inplaceIN8opendnp312UserPollTaskESaIS1_ELN9__gnu_cxx12_Lock_policyE1EE, %object
