	.arch armv6
	.eabi_attribute 28, 1
	.eabi_attribute 20, 1
	.eabi_attribute 21, 1
	.eabi_attribute 23, 3
	.eabi_attribute 24, 1
	.eabi_attribute 25, 1
	.eabi_attribute 26, 2
	.eabi_attribute 30, 2
	.eabi_attribute 34, 1
	.eabi_attribute 18, 4
	.file	"MasterStack.cpp"
	.section	.text._ZNK9__gnu_cxx24__concurrence_lock_error4whatEv,"axG",%progbits,_ZNK9__gnu_cxx24__concurrence_lock_error4whatEv,comdat
	.align	2
	.weak	_ZNK9__gnu_cxx24__concurrence_lock_error4whatEv
	.syntax unified
	.arm
	.fpu vfp
	.type	_ZNK9__gnu_cxx24__concurrence_lock_error4whatEv, %function
_ZNK9__gnu_cxx24__concurrence_lock_error4whatEv:
	.fnstart
.LFB547:
	@ args = 0, pretend = 0, frame = 0
	@ frame_needed = 0, uses_anonymous_args = 0
	@ link register save eliminated.
	ldr	r0, .L2
.LPIC0:
	add	r0, pc, r0
	bx	lr
.L3:
	.align	2
.L2:
	.word	.LC0-(.LPIC0+8)
	.cantunwind
	.fnend
	.size	_ZNK9__gnu_cxx24__concurrence_lock_error4whatEv, .-_ZNK9__gnu_cxx24__concurrence_lock_error4whatEv
	.section	.text._ZNK9__gnu_cxx26__concurrence_unlock_error4whatEv,"axG",%progbits,_ZNK9__gnu_cxx26__concurrence_unlock_error4whatEv,comdat
	.align	2
	.weak	_ZNK9__gnu_cxx26__concurrence_unlock_error4whatEv
	.syntax unified
	.arm
	.fpu vfp
	.type	_ZNK9__gnu_cxx26__concurrence_unlock_error4whatEv, %function
_ZNK9__gnu_cxx26__concurrence_unlock_error4whatEv:
	.fnstart
.LFB548:
	@ args = 0, pretend = 0, frame = 0
	@ frame_needed = 0, uses_anonymous_args = 0
	@ link register save eliminated.
	ldr	r0, .L5
.LPIC1:
	add	r0, pc, r0
	bx	lr
.L6:
	.align	2
.L5:
	.word	.LC1-(.LPIC1+8)
	.cantunwind
	.fnend
	.size	_ZNK9__gnu_cxx26__concurrence_unlock_error4whatEv, .-_ZNK9__gnu_cxx26__concurrence_unlock_error4whatEv
	.section	.text._ZNK4asio6detail15system_category4nameEv,"axG",%progbits,_ZNK4asio6detail15system_category4nameEv,comdat
	.align	2
	.weak	_ZNK4asio6detail15system_category4nameEv
	.syntax unified
	.arm
	.fpu vfp
	.type	_ZNK4asio6detail15system_category4nameEv, %function
_ZNK4asio6detail15system_category4nameEv:
	.fnstart
.LFB2503:
	@ args = 0, pretend = 0, frame = 0
	@ frame_needed = 0, uses_anonymous_args = 0
	@ link register save eliminated.
	ldr	r0, .L8
.LPIC2:
	add	r0, pc, r0
	bx	lr
.L9:
	.align	2
.L8:
	.word	.LC2-(.LPIC2+8)
	.cantunwind
	.fnend
	.size	_ZNK4asio6detail15system_category4nameEv, .-_ZNK4asio6detail15system_category4nameEv
	.section	.text._ZNK4asio5error6detail14netdb_category4nameEv,"axG",%progbits,_ZNK4asio5error6detail14netdb_category4nameEv,comdat
	.align	2
	.weak	_ZNK4asio5error6detail14netdb_category4nameEv
	.syntax unified
	.arm
	.fpu vfp
	.type	_ZNK4asio5error6detail14netdb_category4nameEv, %function
_ZNK4asio5error6detail14netdb_category4nameEv:
	.fnstart
.LFB2524:
	@ args = 0, pretend = 0, frame = 0
	@ frame_needed = 0, uses_anonymous_args = 0
	@ link register save eliminated.
	ldr	r0, .L11
.LPIC3:
	add	r0, pc, r0
	bx	lr
.L12:
	.align	2
.L11:
	.word	.LC3-(.LPIC3+8)
	.cantunwind
	.fnend
	.size	_ZNK4asio5error6detail14netdb_category4nameEv, .-_ZNK4asio5error6detail14netdb_category4nameEv
	.section	.text._ZNK4asio5error6detail17addrinfo_category4nameEv,"axG",%progbits,_ZNK4asio5error6detail17addrinfo_category4nameEv,comdat
	.align	2
	.weak	_ZNK4asio5error6detail17addrinfo_category4nameEv
	.syntax unified
	.arm
	.fpu vfp
	.type	_ZNK4asio5error6detail17addrinfo_category4nameEv, %function
_ZNK4asio5error6detail17addrinfo_category4nameEv:
	.fnstart
.LFB2530:
	@ args = 0, pretend = 0, frame = 0
	@ frame_needed = 0, uses_anonymous_args = 0
	@ link register save eliminated.
	ldr	r0, .L14
.LPIC4:
	add	r0, pc, r0
	bx	lr
.L15:
	.align	2
.L14:
	.word	.LC4-(.LPIC4+8)
	.cantunwind
	.fnend
	.size	_ZNK4asio5error6detail17addrinfo_category4nameEv, .-_ZNK4asio5error6detail17addrinfo_category4nameEv
	.section	.text._ZNK4asio5error6detail13misc_category4nameEv,"axG",%progbits,_ZNK4asio5error6detail13misc_category4nameEv,comdat
	.align	2
	.weak	_ZNK4asio5error6detail13misc_category4nameEv
	.syntax unified
	.arm
	.fpu vfp
	.type	_ZNK4asio5error6detail13misc_category4nameEv, %function
_ZNK4asio5error6detail13misc_category4nameEv:
	.fnstart
.LFB2536:
	@ args = 0, pretend = 0, frame = 0
	@ frame_needed = 0, uses_anonymous_args = 0
	@ link register save eliminated.
	ldr	r0, .L17
.LPIC5:
	add	r0, pc, r0
	bx	lr
.L18:
	.align	2
.L17:
	.word	.LC5-(.LPIC5+8)
	.cantunwind
	.fnend
	.size	_ZNK4asio5error6detail13misc_category4nameEv, .-_ZNK4asio5error6detail13misc_category4nameEv
	.section	.text._ZNSt13__future_base13_State_baseV217_M_complete_asyncEv,"axG",%progbits,_ZNSt13__future_base13_State_baseV217_M_complete_asyncEv,comdat
	.align	2
	.weak	_ZNSt13__future_base13_State_baseV217_M_complete_asyncEv
	.syntax unified
	.arm
	.fpu vfp
	.type	_ZNSt13__future_base13_State_baseV217_M_complete_asyncEv, %function
_ZNSt13__future_base13_State_baseV217_M_complete_asyncEv:
	.fnstart
.LFB6631:
	@ args = 0, pretend = 0, frame = 0
	@ frame_needed = 0, uses_anonymous_args = 0
	@ link register save eliminated.
	bx	lr
	.cantunwind
	.fnend
	.size	_ZNSt13__future_base13_State_baseV217_M_complete_asyncEv, .-_ZNSt13__future_base13_State_baseV217_M_complete_asyncEv
	.section	.text._ZNKSt13__future_base13_State_baseV221_M_is_deferred_futureEv,"axG",%progbits,_ZNKSt13__future_base13_State_baseV221_M_is_deferred_futureEv,comdat
	.align	2
	.weak	_ZNKSt13__future_base13_State_baseV221_M_is_deferred_futureEv
	.syntax unified
	.arm
	.fpu vfp
	.type	_ZNKSt13__future_base13_State_baseV221_M_is_deferred_futureEv, %function
_ZNKSt13__future_base13_State_baseV221_M_is_deferred_futureEv:
	.fnstart
.LFB6632:
	@ args = 0, pretend = 0, frame = 0
	@ frame_needed = 0, uses_anonymous_args = 0
	@ link register save eliminated.
	mov	r0, #0
	bx	lr
	.cantunwind
	.fnend
	.size	_ZNKSt13__future_base13_State_baseV221_M_is_deferred_futureEv, .-_ZNKSt13__future_base13_State_baseV221_M_is_deferred_futureEv
	.global	__tls_get_addr
	.section	.text._ZZSt9call_onceIMNSt13__future_base13_State_baseV2EFvPSt8functionIFSt10unique_ptrINS0_12_Result_baseENS4_8_DeleterEEvEEPbEJPS1_S9_SA_EEvRSt9once_flagOT_DpOT0_ENUlvE0_4_FUNEv,"axG",%progbits,_ZZSt9call_onceIMNSt13__future_base13_State_baseV2EFvPSt8functionIFSt10unique_ptrINS0_12_Result_baseENS4_8_DeleterEEvEEPbEJPS1_S9_SA_EEvRSt9once_flagOT_DpOT0_ENKUlvE0_clEv,comdat
	.align	2
	.weak	_ZZSt9call_onceIMNSt13__future_base13_State_baseV2EFvPSt8functionIFSt10unique_ptrINS0_12_Result_baseENS4_8_DeleterEEvEEPbEJPS1_S9_SA_EEvRSt9once_flagOT_DpOT0_ENUlvE0_4_FUNEv
	.syntax unified
	.arm
	.fpu vfp
	.type	_ZZSt9call_onceIMNSt13__future_base13_State_baseV2EFvPSt8functionIFSt10unique_ptrINS0_12_Result_baseENS4_8_DeleterEEvEEPbEJPS1_S9_SA_EEvRSt9once_flagOT_DpOT0_ENUlvE0_4_FUNEv, %function
_ZZSt9call_onceIMNSt13__future_base13_State_baseV2EFvPSt8functionIFSt10unique_ptrINS0_12_Result_baseENS4_8_DeleterEEvEEPbEJPS1_S9_SA_EEvRSt9once_flagOT_DpOT0_ENUlvE0_4_FUNEv:
	.fnstart
.LFB8832:
	@ args = 0, pretend = 0, frame = 0
	@ frame_needed = 0, uses_anonymous_args = 0
	ldr	r0, .L26
	push	{r4, lr}
.LPIC6:
	add	r0, pc, r0
	bl	__tls_get_addr(PLT)
	ldr	r3, [r0]
	ldr	lr, [r3]
	ldmib	r3, {r1, r2}
	ldr	r3, [r3, #12]
	ldr	ip, [lr, #4]
	ldr	r0, [r1]
	tst	ip, #1
	ldr	r1, [r2]
	ldr	r2, [r3]
	ldr	r3, [lr]
	ldrne	lr, [r0, ip, asr #1]
	addeq	r0, r0, ip, asr #1
	addne	r0, r0, ip, asr #1
	ldrne	r3, [lr, r3]
	pop	{r4, lr}
	bx	r3	@ indirect register sibling call
.L27:
	.align	2
.L26:
	.word	_ZSt15__once_callable(tlsgd) + (. - .LPIC6 - 8)
	.cantunwind
	.fnend
	.size	_ZZSt9call_onceIMNSt13__future_base13_State_baseV2EFvPSt8functionIFSt10unique_ptrINS0_12_Result_baseENS4_8_DeleterEEvEEPbEJPS1_S9_SA_EEvRSt9once_flagOT_DpOT0_ENUlvE0_4_FUNEv, .-_ZZSt9call_onceIMNSt13__future_base13_State_baseV2EFvPSt8functionIFSt10unique_ptrINS0_12_Result_baseENS4_8_DeleterEEvEEPbEJPS1_S9_SA_EEvRSt9once_flagOT_DpOT0_ENUlvE0_4_FUNEv
	.section	.text._ZNSt14_Function_base13_Base_managerINSt13__future_base13_State_baseV27_SetterIbObEEE10_M_managerERSt9_Any_dataRKS7_St18_Manager_operation,"axG",%progbits,_ZNSt14_Function_base13_Base_managerINSt13__future_base13_State_baseV27_SetterIbObEEE10_M_managerERSt9_Any_dataRKS7_St18_Manager_operation,comdat
	.align	2
	.weak	_ZNSt14_Function_base13_Base_managerINSt13__future_base13_State_baseV27_SetterIbObEEE10_M_managerERSt9_Any_dataRKS7_St18_Manager_operation
	.syntax unified
	.arm
	.fpu vfp
	.type	_ZNSt14_Function_base13_Base_managerINSt13__future_base13_State_baseV27_SetterIbObEEE10_M_managerERSt9_Any_dataRKS7_St18_Manager_operation, %function
_ZNSt14_Function_base13_Base_managerINSt13__future_base13_State_baseV27_SetterIbObEEE10_M_managerERSt9_Any_dataRKS7_St18_Manager_operation:
	.fnstart
.LFB10773:
	@ args = 0, pretend = 0, frame = 0
	@ frame_needed = 0, uses_anonymous_args = 0
	@ link register save eliminated.
	ldr	r3, .L33
	cmp	r2, #1
.LPIC7:
	add	r3, pc, r3
	mov	ip, r0
	streq	r1, [r0]
	beq	.L29
	bcc	.L31
	cmp	r2, #2
	ldmeq	r1, {r0, r1}
	stmeq	ip, {r0, r1}
.L29:
	mov	r0, #0
	bx	lr
.L31:
	ldr	r2, .L33+4
	ldr	r3, [r3, r2]
	str	r3, [r0]
	mov	r0, #0
	bx	lr
.L34:
	.align	2
.L33:
	.word	_GLOBAL_OFFSET_TABLE_-(.LPIC7+8)
	.word	_ZTINSt13__future_base13_State_baseV27_SetterIbObEE(GOT)
	.cantunwind
	.fnend
	.size	_ZNSt14_Function_base13_Base_managerINSt13__future_base13_State_baseV27_SetterIbObEEE10_M_managerERSt9_Any_dataRKS7_St18_Manager_operation, .-_ZNSt14_Function_base13_Base_managerINSt13__future_base13_State_baseV27_SetterIbObEEE10_M_managerERSt9_Any_dataRKS7_St18_Manager_operation
	.section	.text._ZNSt14_Function_base13_Base_managerINSt13__future_base13_State_baseV27_SetterIN8opendnp315StackStatisticsEOS5_EEE10_M_managerERSt9_Any_dataRKS9_St18_Manager_operation,"axG",%progbits,_ZNSt14_Function_base13_Base_managerINSt13__future_base13_State_baseV27_SetterIN8opendnp315StackStatisticsEOS5_EEE10_M_managerERSt9_Any_dataRKS9_St18_Manager_operation,comdat
	.align	2
	.weak	_ZNSt14_Function_base13_Base_managerINSt13__future_base13_State_baseV27_SetterIN8opendnp315StackStatisticsEOS5_EEE10_M_managerERSt9_Any_dataRKS9_St18_Manager_operation
	.syntax unified
	.arm
	.fpu vfp
	.type	_ZNSt14_Function_base13_Base_managerINSt13__future_base13_State_baseV27_SetterIN8opendnp315StackStatisticsEOS5_EEE10_M_managerERSt9_Any_dataRKS9_St18_Manager_operation, %function
_ZNSt14_Function_base13_Base_managerINSt13__future_base13_State_baseV27_SetterIN8opendnp315StackStatisticsEOS5_EEE10_M_managerERSt9_Any_dataRKS9_St18_Manager_operation:
	.fnstart
.LFB10820:
	@ args = 0, pretend = 0, frame = 0
	@ frame_needed = 0, uses_anonymous_args = 0
	@ link register save eliminated.
	ldr	r3, .L40
	cmp	r2, #1
.LPIC8:
	add	r3, pc, r3
	mov	ip, r0
	streq	r1, [r0]
	beq	.L36
	bcc	.L38
	cmp	r2, #2
	ldmeq	r1, {r0, r1}
	stmeq	ip, {r0, r1}
.L36:
	mov	r0, #0
	bx	lr
.L38:
	ldr	r2, .L40+4
	ldr	r3, [r3, r2]
	str	r3, [r0]
	mov	r0, #0
	bx	lr
.L41:
	.align	2
.L40:
	.word	_GLOBAL_OFFSET_TABLE_-(.LPIC8+8)
	.word	_ZTINSt13__future_base13_State_baseV27_SetterIN8opendnp315StackStatisticsEOS3_EE(GOT)
	.cantunwind
	.fnend
	.size	_ZNSt14_Function_base13_Base_managerINSt13__future_base13_State_baseV27_SetterIN8opendnp315StackStatisticsEOS5_EEE10_M_managerERSt9_Any_dataRKS9_St18_Manager_operation, .-_ZNSt14_Function_base13_Base_managerINSt13__future_base13_State_baseV27_SetterIN8opendnp315StackStatisticsEOS5_EEE10_M_managerERSt9_Any_dataRKS9_St18_Manager_operation
	.section	.text._ZNSt14_Function_base13_Base_managerINSt13__future_base13_State_baseV27_SetterISt10shared_ptrIN8opendnp311IMasterTaskEEOS7_EEE10_M_managerERSt9_Any_dataRKSB_St18_Manager_operation,"axG",%progbits,_ZNSt14_Function_base13_Base_managerINSt13__future_base13_State_baseV27_SetterISt10shared_ptrIN8opendnp311IMasterTaskEEOS7_EEE10_M_managerERSt9_Any_dataRKSB_St18_Manager_operation,comdat
	.align	2
	.weak	_ZNSt14_Function_base13_Base_managerINSt13__future_base13_State_baseV27_SetterISt10shared_ptrIN8opendnp311IMasterTaskEEOS7_EEE10_M_managerERSt9_Any_dataRKSB_St18_Manager_operation
	.syntax unified
	.arm
	.fpu vfp
	.type	_ZNSt14_Function_base13_Base_managerINSt13__future_base13_State_baseV27_SetterISt10shared_ptrIN8opendnp311IMasterTaskEEOS7_EEE10_M_managerERSt9_Any_dataRKSB_St18_Manager_operation, %function
_ZNSt14_Function_base13_Base_managerINSt13__future_base13_State_baseV27_SetterISt10shared_ptrIN8opendnp311IMasterTaskEEOS7_EEE10_M_managerERSt9_Any_dataRKSB_St18_Manager_operation:
	.fnstart
.LFB10859:
	@ args = 0, pretend = 0, frame = 0
	@ frame_needed = 0, uses_anonymous_args = 0
	@ link register save eliminated.
	ldr	r3, .L47
	cmp	r2, #1
.LPIC9:
	add	r3, pc, r3
	mov	ip, r0
	streq	r1, [r0]
	beq	.L43
	bcc	.L45
	cmp	r2, #2
	ldmeq	r1, {r0, r1}
	stmeq	ip, {r0, r1}
.L43:
	mov	r0, #0
	bx	lr
.L45:
	ldr	r2, .L47+4
	ldr	r3, [r3, r2]
	str	r3, [r0]
	mov	r0, #0
	bx	lr
.L48:
	.align	2
.L47:
	.word	_GLOBAL_OFFSET_TABLE_-(.LPIC9+8)
	.word	_ZTINSt13__future_base13_State_baseV27_SetterISt10shared_ptrIN8opendnp311IMasterTaskEEOS5_EE(GOT)
	.cantunwind
	.fnend
	.size	_ZNSt14_Function_base13_Base_managerINSt13__future_base13_State_baseV27_SetterISt10shared_ptrIN8opendnp311IMasterTaskEEOS7_EEE10_M_managerERSt9_Any_dataRKSB_St18_Manager_operation, .-_ZNSt14_Function_base13_Base_managerINSt13__future_base13_State_baseV27_SetterISt10shared_ptrIN8opendnp311IMasterTaskEEOS7_EEE10_M_managerERSt9_Any_dataRKSB_St18_Manager_operation
	.section	.text._ZNSt13__future_base13_State_baseV2D2Ev,"axG",%progbits,_ZNSt13__future_base13_State_baseV2D5Ev,comdat
	.align	2
	.weak	_ZNSt13__future_base13_State_baseV2D2Ev
	.syntax unified
	.arm
	.fpu vfp
	.type	_ZNSt13__future_base13_State_baseV2D2Ev, %function
_ZNSt13__future_base13_State_baseV2D2Ev:
	.fnstart
.LFB11833:
	@ args = 0, pretend = 0, frame = 0
	@ frame_needed = 0, uses_anonymous_args = 0
	ldr	r3, .L55
	ldr	r2, .L55+4
.LPIC10:
	add	r3, pc, r3
	push	{r4, lr}
	.save {r4, lr}
	mov	r4, r0
	ldr	r3, [r3, r2]
	ldr	r0, [r0, #4]
	add	r3, r3, #8
	cmp	r0, #0
	str	r3, [r4]
	beq	.L50
	ldr	r3, [r0]
	ldr	r3, [r3]
	blx	r3
.L50:
	mov	r0, r4
	pop	{r4, pc}
.L56:
	.align	2
.L55:
	.word	_GLOBAL_OFFSET_TABLE_-(.LPIC10+8)
	.word	_ZTVNSt13__future_base13_State_baseV2E(GOT)
	.global	__gxx_personality_v0
	.personality	__gxx_personality_v0
	.handlerdata
.LLSDA11833:
	.byte	0xff
	.byte	0xff
	.byte	0x1
	.uleb128 .LLSDACSE11833-.LLSDACSB11833
.LLSDACSB11833:
.LLSDACSE11833:
	.section	.text._ZNSt13__future_base13_State_baseV2D2Ev,"axG",%progbits,_ZNSt13__future_base13_State_baseV2D5Ev,comdat
	.fnend
	.size	_ZNSt13__future_base13_State_baseV2D2Ev, .-_ZNSt13__future_base13_State_baseV2D2Ev
	.weak	_ZNSt13__future_base13_State_baseV2D1Ev
	.set	_ZNSt13__future_base13_State_baseV2D1Ev,_ZNSt13__future_base13_State_baseV2D2Ev
	.section	.text._ZN4asio6detail10service_idINS0_13epoll_reactorEED2Ev,"axG",%progbits,_ZN4asio6detail10service_idINS0_13epoll_reactorEED5Ev,comdat
	.align	2
	.weak	_ZN4asio6detail10service_idINS0_13epoll_reactorEED2Ev
	.syntax unified
	.arm
	.fpu vfp
	.type	_ZN4asio6detail10service_idINS0_13epoll_reactorEED2Ev, %function
_ZN4asio6detail10service_idINS0_13epoll_reactorEED2Ev:
	.fnstart
.LFB11901:
	@ args = 0, pretend = 0, frame = 0
	@ frame_needed = 0, uses_anonymous_args = 0
	@ link register save eliminated.
	bx	lr
	.cantunwind
	.fnend
	.size	_ZN4asio6detail10service_idINS0_13epoll_reactorEED2Ev, .-_ZN4asio6detail10service_idINS0_13epoll_reactorEED2Ev
	.weak	_ZN4asio6detail10service_idINS0_13epoll_reactorEED1Ev
	.set	_ZN4asio6detail10service_idINS0_13epoll_reactorEED1Ev,_ZN4asio6detail10service_idINS0_13epoll_reactorEED2Ev
	.section	.text._ZN4asio6detail10service_idINS0_15task_io_serviceEED2Ev,"axG",%progbits,_ZN4asio6detail10service_idINS0_15task_io_serviceEED5Ev,comdat
	.align	2
	.weak	_ZN4asio6detail10service_idINS0_15task_io_serviceEED2Ev
	.syntax unified
	.arm
	.fpu vfp
	.type	_ZN4asio6detail10service_idINS0_15task_io_serviceEED2Ev, %function
_ZN4asio6detail10service_idINS0_15task_io_serviceEED2Ev:
	.fnstart
.LFB11904:
	@ args = 0, pretend = 0, frame = 0
	@ frame_needed = 0, uses_anonymous_args = 0
	@ link register save eliminated.
	bx	lr
	.cantunwind
	.fnend
	.size	_ZN4asio6detail10service_idINS0_15task_io_serviceEED2Ev, .-_ZN4asio6detail10service_idINS0_15task_io_serviceEED2Ev
	.weak	_ZN4asio6detail10service_idINS0_15task_io_serviceEED1Ev
	.set	_ZN4asio6detail10service_idINS0_15task_io_serviceEED1Ev,_ZN4asio6detail10service_idINS0_15task_io_serviceEED2Ev
	.section	.text._ZN4asio6detail10service_idINS0_14strand_serviceEED2Ev,"axG",%progbits,_ZN4asio6detail10service_idINS0_14strand_serviceEED5Ev,comdat
	.align	2
	.weak	_ZN4asio6detail10service_idINS0_14strand_serviceEED2Ev
	.syntax unified
	.arm
	.fpu vfp
	.type	_ZN4asio6detail10service_idINS0_14strand_serviceEED2Ev, %function
_ZN4asio6detail10service_idINS0_14strand_serviceEED2Ev:
	.fnstart
.LFB11910:
	@ args = 0, pretend = 0, frame = 0
	@ frame_needed = 0, uses_anonymous_args = 0
	@ link register save eliminated.
	bx	lr
	.cantunwind
	.fnend
	.size	_ZN4asio6detail10service_idINS0_14strand_serviceEED2Ev, .-_ZN4asio6detail10service_idINS0_14strand_serviceEED2Ev
	.weak	_ZN4asio6detail10service_idINS0_14strand_serviceEED1Ev
	.set	_ZN4asio6detail10service_idINS0_14strand_serviceEED1Ev,_ZN4asio6detail10service_idINS0_14strand_serviceEED2Ev
	.section	.text._ZNSt23_Sp_counted_ptr_inplaceIN8opendnp310CommandSetESaIS1_ELN9__gnu_cxx12_Lock_policyE1EED2Ev,"axG",%progbits,_ZNSt23_Sp_counted_ptr_inplaceIN8opendnp310CommandSetESaIS1_ELN9__gnu_cxx12_Lock_policyE1EED5Ev,comdat
	.align	2
	.weak	_ZNSt23_Sp_counted_ptr_inplaceIN8opendnp310CommandSetESaIS1_ELN9__gnu_cxx12_Lock_policyE1EED2Ev
	.syntax unified
	.arm
	.fpu vfp
	.type	_ZNSt23_Sp_counted_ptr_inplaceIN8opendnp310CommandSetESaIS1_ELN9__gnu_cxx12_Lock_policyE1EED2Ev, %function
_ZNSt23_Sp_counted_ptr_inplaceIN8opendnp310CommandSetESaIS1_ELN9__gnu_cxx12_Lock_policyE1EED2Ev:
	.fnstart
.LFB11977:
	@ args = 0, pretend = 0, frame = 0
	@ frame_needed = 0, uses_anonymous_args = 0
	@ link register save eliminated.
	bx	lr
	.cantunwind
	.fnend
	.size	_ZNSt23_Sp_counted_ptr_inplaceIN8opendnp310CommandSetESaIS1_ELN9__gnu_cxx12_Lock_policyE1EED2Ev, .-_ZNSt23_Sp_counted_ptr_inplaceIN8opendnp310CommandSetESaIS1_ELN9__gnu_cxx12_Lock_policyE1EED2Ev
	.weak	_ZNSt23_Sp_counted_ptr_inplaceIN8opendnp310CommandSetESaIS1_ELN9__gnu_cxx12_Lock_policyE1EED1Ev
	.set	_ZNSt23_Sp_counted_ptr_inplaceIN8opendnp310CommandSetESaIS1_ELN9__gnu_cxx12_Lock_policyE1EED1Ev,_ZNSt23_Sp_counted_ptr_inplaceIN8opendnp310CommandSetESaIS1_ELN9__gnu_cxx12_Lock_policyE1EED2Ev
	.section	.text._ZNSt23_Sp_counted_ptr_inplaceIN8asiodnp310MasterScanESaIS1_ELN9__gnu_cxx12_Lock_policyE1EED2Ev,"axG",%progbits,_ZNSt23_Sp_counted_ptr_inplaceIN8asiodnp310MasterScanESaIS1_ELN9__gnu_cxx12_Lock_policyE1EED5Ev,comdat
	.align	2
	.weak	_ZNSt23_Sp_counted_ptr_inplaceIN8asiodnp310MasterScanESaIS1_ELN9__gnu_cxx12_Lock_policyE1EED2Ev
	.syntax unified
	.arm
	.fpu vfp
	.type	_ZNSt23_Sp_counted_ptr_inplaceIN8asiodnp310MasterScanESaIS1_ELN9__gnu_cxx12_Lock_policyE1EED2Ev, %function
_ZNSt23_Sp_counted_ptr_inplaceIN8asiodnp310MasterScanESaIS1_ELN9__gnu_cxx12_Lock_policyE1EED2Ev:
	.fnstart
.LFB11991:
	@ args = 0, pretend = 0, frame = 0
	@ frame_needed = 0, uses_anonymous_args = 0
	@ link register save eliminated.
	bx	lr
	.cantunwind
	.fnend
	.size	_ZNSt23_Sp_counted_ptr_inplaceIN8asiodnp310MasterScanESaIS1_ELN9__gnu_cxx12_Lock_policyE1EED2Ev, .-_ZNSt23_Sp_counted_ptr_inplaceIN8asiodnp310MasterScanESaIS1_ELN9__gnu_cxx12_Lock_policyE1EED2Ev
	.weak	_ZNSt23_Sp_counted_ptr_inplaceIN8asiodnp310MasterScanESaIS1_ELN9__gnu_cxx12_Lock_policyE1EED1Ev
	.set	_ZNSt23_Sp_counted_ptr_inplaceIN8asiodnp310MasterScanESaIS1_ELN9__gnu_cxx12_Lock_policyE1EED1Ev,_ZNSt23_Sp_counted_ptr_inplaceIN8asiodnp310MasterScanESaIS1_ELN9__gnu_cxx12_Lock_policyE1EED2Ev
	.section	.text._ZNSt23_Sp_counted_ptr_inplaceINSt13__future_base13_State_baseV2ESaIS1_ELN9__gnu_cxx12_Lock_policyE1EED2Ev,"axG",%progbits,_ZNSt23_Sp_counted_ptr_inplaceINSt13__future_base13_State_baseV2ESaIS1_ELN9__gnu_cxx12_Lock_policyE1EED5Ev,comdat
	.align	2
	.weak	_ZNSt23_Sp_counted_ptr_inplaceINSt13__future_base13_State_baseV2ESaIS1_ELN9__gnu_cxx12_Lock_policyE1EED2Ev
	.syntax unified
	.arm
	.fpu vfp
	.type	_ZNSt23_Sp_counted_ptr_inplaceINSt13__future_base13_State_baseV2ESaIS1_ELN9__gnu_cxx12_Lock_policyE1EED2Ev, %function
_ZNSt23_Sp_counted_ptr_inplaceINSt13__future_base13_State_baseV2ESaIS1_ELN9__gnu_cxx12_Lock_policyE1EED2Ev:
	.fnstart
.LFB12012:
	@ args = 0, pretend = 0, frame = 0
	@ frame_needed = 0, uses_anonymous_args = 0
	@ link register save eliminated.
	bx	lr
	.cantunwind
	.fnend
	.size	_ZNSt23_Sp_counted_ptr_inplaceINSt13__future_base13_State_baseV2ESaIS1_ELN9__gnu_cxx12_Lock_policyE1EED2Ev, .-_ZNSt23_Sp_counted_ptr_inplaceINSt13__future_base13_State_baseV2ESaIS1_ELN9__gnu_cxx12_Lock_policyE1EED2Ev
	.weak	_ZNSt23_Sp_counted_ptr_inplaceINSt13__future_base13_State_baseV2ESaIS1_ELN9__gnu_cxx12_Lock_policyE1EED1Ev
	.set	_ZNSt23_Sp_counted_ptr_inplaceINSt13__future_base13_State_baseV2ESaIS1_ELN9__gnu_cxx12_Lock_policyE1EED1Ev,_ZNSt23_Sp_counted_ptr_inplaceINSt13__future_base13_State_baseV2ESaIS1_ELN9__gnu_cxx12_Lock_policyE1EED2Ev
	.section	.text._ZNSt23_Sp_counted_ptr_inplaceINSt13__future_base13_State_baseV2ESaIS1_ELN9__gnu_cxx12_Lock_policyE1EE10_M_disposeEv,"axG",%progbits,_ZNSt23_Sp_counted_ptr_inplaceINSt13__future_base13_State_baseV2ESaIS1_ELN9__gnu_cxx12_Lock_policyE1EE10_M_disposeEv,comdat
	.align	2
	.weak	_ZNSt23_Sp_counted_ptr_inplaceINSt13__future_base13_State_baseV2ESaIS1_ELN9__gnu_cxx12_Lock_policyE1EE10_M_disposeEv
	.syntax unified
	.arm
	.fpu vfp
	.type	_ZNSt23_Sp_counted_ptr_inplaceINSt13__future_base13_State_baseV2ESaIS1_ELN9__gnu_cxx12_Lock_policyE1EE10_M_disposeEv, %function
_ZNSt23_Sp_counted_ptr_inplaceINSt13__future_base13_State_baseV2ESaIS1_ELN9__gnu_cxx12_Lock_policyE1EE10_M_disposeEv:
	.fnstart
.LFB12015:
	@ args = 0, pretend = 0, frame = 0
	@ frame_needed = 0, uses_anonymous_args = 0
	@ link register save eliminated.
	mov	r3, r0
	add	r0, r0, #36
	ldr	r3, [r3, #36]
	ldr	r3, [r3]
	bx	r3
	.cantunwind
	.fnend
	.size	_ZNSt23_Sp_counted_ptr_inplaceINSt13__future_base13_State_baseV2ESaIS1_ELN9__gnu_cxx12_Lock_policyE1EE10_M_disposeEv, .-_ZNSt23_Sp_counted_ptr_inplaceINSt13__future_base13_State_baseV2ESaIS1_ELN9__gnu_cxx12_Lock_policyE1EE10_M_disposeEv
	.section	.text._ZNSt23_Sp_counted_ptr_inplaceIN8opendnp310CommandSetESaIS1_ELN9__gnu_cxx12_Lock_policyE1EE10_M_disposeEv,"axG",%progbits,_ZNSt23_Sp_counted_ptr_inplaceIN8opendnp310CommandSetESaIS1_ELN9__gnu_cxx12_Lock_policyE1EE10_M_disposeEv,comdat
	.align	2
	.weak	_ZNSt23_Sp_counted_ptr_inplaceIN8opendnp310CommandSetESaIS1_ELN9__gnu_cxx12_Lock_policyE1EE10_M_disposeEv
	.syntax unified
	.arm
	.fpu vfp
	.type	_ZNSt23_Sp_counted_ptr_inplaceIN8opendnp310CommandSetESaIS1_ELN9__gnu_cxx12_Lock_policyE1EE10_M_disposeEv, %function
_ZNSt23_Sp_counted_ptr_inplaceIN8opendnp310CommandSetESaIS1_ELN9__gnu_cxx12_Lock_policyE1EE10_M_disposeEv:
	.fnstart
.LFB11980:
	@ args = 0, pretend = 0, frame = 0
	@ frame_needed = 0, uses_anonymous_args = 0
	@ link register save eliminated.
	add	r0, r0, #36
	b	_ZN8opendnp310CommandSetD1Ev(PLT)
	.cantunwind
	.fnend
	.size	_ZNSt23_Sp_counted_ptr_inplaceIN8opendnp310CommandSetESaIS1_ELN9__gnu_cxx12_Lock_policyE1EE10_M_disposeEv, .-_ZNSt23_Sp_counted_ptr_inplaceIN8opendnp310CommandSetESaIS1_ELN9__gnu_cxx12_Lock_policyE1EE10_M_disposeEv
	.section	.text._ZNSt13__future_base13_State_baseV2D0Ev,"axG",%progbits,_ZNSt13__future_base13_State_baseV2D5Ev,comdat
	.align	2
	.weak	_ZNSt13__future_base13_State_baseV2D0Ev
	.syntax unified
	.arm
	.fpu vfp
	.type	_ZNSt13__future_base13_State_baseV2D0Ev, %function
_ZNSt13__future_base13_State_baseV2D0Ev:
	.fnstart
.LFB11835:
	@ args = 0, pretend = 0, frame = 0
	@ frame_needed = 0, uses_anonymous_args = 0
	ldr	r3, .L71
	ldr	r2, .L71+4
.LPIC11:
	add	r3, pc, r3
	push	{r4, lr}
	.save {r4, lr}
	mov	r4, r0
	ldr	r3, [r3, r2]
	ldr	r0, [r0, #4]
	add	r3, r3, #8
	cmp	r0, #0
	str	r3, [r4]
	beq	.L66
	ldr	r3, [r0]
	ldr	r3, [r3]
	blx	r3
.L66:
	mov	r0, r4
	mov	r1, #20
	bl	_ZdlPvj(PLT)
	mov	r0, r4
	pop	{r4, pc}
.L72:
	.align	2
.L71:
	.word	_GLOBAL_OFFSET_TABLE_-(.LPIC11+8)
	.word	_ZTVNSt13__future_base13_State_baseV2E(GOT)
	.personality	__gxx_personality_v0
	.handlerdata
.LLSDA11835:
	.byte	0xff
	.byte	0xff
	.byte	0x1
	.uleb128 .LLSDACSE11835-.LLSDACSB11835
.LLSDACSB11835:
.LLSDACSE11835:
	.section	.text._ZNSt13__future_base13_State_baseV2D0Ev,"axG",%progbits,_ZNSt13__future_base13_State_baseV2D5Ev,comdat
	.fnend
	.size	_ZNSt13__future_base13_State_baseV2D0Ev, .-_ZNSt13__future_base13_State_baseV2D0Ev
	.section	.text._ZNSt23_Sp_counted_ptr_inplaceINSt13__future_base13_State_baseV2ESaIS1_ELN9__gnu_cxx12_Lock_policyE1EED0Ev,"axG",%progbits,_ZNSt23_Sp_counted_ptr_inplaceINSt13__future_base13_State_baseV2ESaIS1_ELN9__gnu_cxx12_Lock_policyE1EED5Ev,comdat
	.align	2
	.weak	_ZNSt23_Sp_counted_ptr_inplaceINSt13__future_base13_State_baseV2ESaIS1_ELN9__gnu_cxx12_Lock_policyE1EED0Ev
	.syntax unified
	.arm
	.fpu vfp
	.type	_ZNSt23_Sp_counted_ptr_inplaceINSt13__future_base13_State_baseV2ESaIS1_ELN9__gnu_cxx12_Lock_policyE1EED0Ev, %function
_ZNSt23_Sp_counted_ptr_inplaceINSt13__future_base13_State_baseV2ESaIS1_ELN9__gnu_cxx12_Lock_policyE1EED0Ev:
	.fnstart
.LFB12014:
	@ args = 0, pretend = 0, frame = 0
	@ frame_needed = 0, uses_anonymous_args = 0
	push	{r4, lr}
	mov	r1, #56
	mov	r4, r0
	bl	_ZdlPvj(PLT)
	mov	r0, r4
	pop	{r4, pc}
	.cantunwind
	.fnend
	.size	_ZNSt23_Sp_counted_ptr_inplaceINSt13__future_base13_State_baseV2ESaIS1_ELN9__gnu_cxx12_Lock_policyE1EED0Ev, .-_ZNSt23_Sp_counted_ptr_inplaceINSt13__future_base13_State_baseV2ESaIS1_ELN9__gnu_cxx12_Lock_policyE1EED0Ev
	.section	.text._ZNSt23_Sp_counted_ptr_inplaceIN8asiodnp310MasterScanESaIS1_ELN9__gnu_cxx12_Lock_policyE1EED0Ev,"axG",%progbits,_ZNSt23_Sp_counted_ptr_inplaceIN8asiodnp310MasterScanESaIS1_ELN9__gnu_cxx12_Lock_policyE1EED5Ev,comdat
	.align	2
	.weak	_ZNSt23_Sp_counted_ptr_inplaceIN8asiodnp310MasterScanESaIS1_ELN9__gnu_cxx12_Lock_policyE1EED0Ev
	.syntax unified
	.arm
	.fpu vfp
	.type	_ZNSt23_Sp_counted_ptr_inplaceIN8asiodnp310MasterScanESaIS1_ELN9__gnu_cxx12_Lock_policyE1EED0Ev, %function
_ZNSt23_Sp_counted_ptr_inplaceIN8asiodnp310MasterScanESaIS1_ELN9__gnu_cxx12_Lock_policyE1EED0Ev:
	.fnstart
.LFB11993:
	@ args = 0, pretend = 0, frame = 0
	@ frame_needed = 0, uses_anonymous_args = 0
	push	{r4, lr}
	mov	r1, #56
	mov	r4, r0
	bl	_ZdlPvj(PLT)
	mov	r0, r4
	pop	{r4, pc}
	.cantunwind
	.fnend
	.size	_ZNSt23_Sp_counted_ptr_inplaceIN8asiodnp310MasterScanESaIS1_ELN9__gnu_cxx12_Lock_policyE1EED0Ev, .-_ZNSt23_Sp_counted_ptr_inplaceIN8asiodnp310MasterScanESaIS1_ELN9__gnu_cxx12_Lock_policyE1EED0Ev
	.section	.text._ZNSt23_Sp_counted_ptr_inplaceIN8opendnp310CommandSetESaIS1_ELN9__gnu_cxx12_Lock_policyE1EED0Ev,"axG",%progbits,_ZNSt23_Sp_counted_ptr_inplaceIN8opendnp310CommandSetESaIS1_ELN9__gnu_cxx12_Lock_policyE1EED5Ev,comdat
	.align	2
	.weak	_ZNSt23_Sp_counted_ptr_inplaceIN8opendnp310CommandSetESaIS1_ELN9__gnu_cxx12_Lock_policyE1EED0Ev
	.syntax unified
	.arm
	.fpu vfp
	.type	_ZNSt23_Sp_counted_ptr_inplaceIN8opendnp310CommandSetESaIS1_ELN9__gnu_cxx12_Lock_policyE1EED0Ev, %function
_ZNSt23_Sp_counted_ptr_inplaceIN8opendnp310CommandSetESaIS1_ELN9__gnu_cxx12_Lock_policyE1EED0Ev:
	.fnstart
.LFB11979:
	@ args = 0, pretend = 0, frame = 0
	@ frame_needed = 0, uses_anonymous_args = 0
	push	{r4, lr}
	mov	r1, #48
	mov	r4, r0
	bl	_ZdlPvj(PLT)
	mov	r0, r4
	pop	{r4, pc}
	.cantunwind
	.fnend
	.size	_ZNSt23_Sp_counted_ptr_inplaceIN8opendnp310CommandSetESaIS1_ELN9__gnu_cxx12_Lock_policyE1EED0Ev, .-_ZNSt23_Sp_counted_ptr_inplaceIN8opendnp310CommandSetESaIS1_ELN9__gnu_cxx12_Lock_policyE1EED0Ev
	.section	.text._ZNSt23_Sp_counted_ptr_inplaceIN8opendnp310CommandSetESaIS1_ELN9__gnu_cxx12_Lock_policyE1EE10_M_destroyEv,"axG",%progbits,_ZNSt23_Sp_counted_ptr_inplaceIN8opendnp310CommandSetESaIS1_ELN9__gnu_cxx12_Lock_policyE1EE10_M_destroyEv,comdat
	.align	2
	.weak	_ZNSt23_Sp_counted_ptr_inplaceIN8opendnp310CommandSetESaIS1_ELN9__gnu_cxx12_Lock_policyE1EE10_M_destroyEv
	.syntax unified
	.arm
	.fpu vfp
	.type	_ZNSt23_Sp_counted_ptr_inplaceIN8opendnp310CommandSetESaIS1_ELN9__gnu_cxx12_Lock_policyE1EE10_M_destroyEv, %function
_ZNSt23_Sp_counted_ptr_inplaceIN8opendnp310CommandSetESaIS1_ELN9__gnu_cxx12_Lock_policyE1EE10_M_destroyEv:
	.fnstart
.LFB11981:
	@ args = 0, pretend = 0, frame = 0
	@ frame_needed = 0, uses_anonymous_args = 0
	@ link register save eliminated.
	b	_ZdlPv(PLT)
	.cantunwind
	.fnend
	.size	_ZNSt23_Sp_counted_ptr_inplaceIN8opendnp310CommandSetESaIS1_ELN9__gnu_cxx12_Lock_policyE1EE10_M_destroyEv, .-_ZNSt23_Sp_counted_ptr_inplaceIN8opendnp310CommandSetESaIS1_ELN9__gnu_cxx12_Lock_policyE1EE10_M_destroyEv
	.section	.text._ZNSt23_Sp_counted_ptr_inplaceIN8asiodnp310MasterScanESaIS1_ELN9__gnu_cxx12_Lock_policyE1EE10_M_destroyEv,"axG",%progbits,_ZNSt23_Sp_counted_ptr_inplaceIN8asiodnp310MasterScanESaIS1_ELN9__gnu_cxx12_Lock_policyE1EE10_M_destroyEv,comdat
	.align	2
	.weak	_ZNSt23_Sp_counted_ptr_inplaceIN8asiodnp310MasterScanESaIS1_ELN9__gnu_cxx12_Lock_policyE1EE10_M_destroyEv
	.syntax unified
	.arm
	.fpu vfp
	.type	_ZNSt23_Sp_counted_ptr_inplaceIN8asiodnp310MasterScanESaIS1_ELN9__gnu_cxx12_Lock_policyE1EE10_M_destroyEv, %function
_ZNSt23_Sp_counted_ptr_inplaceIN8asiodnp310MasterScanESaIS1_ELN9__gnu_cxx12_Lock_policyE1EE10_M_destroyEv:
	.fnstart
.LFB11995:
	@ args = 0, pretend = 0, frame = 0
	@ frame_needed = 0, uses_anonymous_args = 0
	@ link register save eliminated.
	b	_ZdlPv(PLT)
	.cantunwind
	.fnend
	.size	_ZNSt23_Sp_counted_ptr_inplaceIN8asiodnp310MasterScanESaIS1_ELN9__gnu_cxx12_Lock_policyE1EE10_M_destroyEv, .-_ZNSt23_Sp_counted_ptr_inplaceIN8asiodnp310MasterScanESaIS1_ELN9__gnu_cxx12_Lock_policyE1EE10_M_destroyEv
	.section	.text._ZNSt23_Sp_counted_ptr_inplaceINSt13__future_base13_State_baseV2ESaIS1_ELN9__gnu_cxx12_Lock_policyE1EE10_M_destroyEv,"axG",%progbits,_ZNSt23_Sp_counted_ptr_inplaceINSt13__future_base13_State_baseV2ESaIS1_ELN9__gnu_cxx12_Lock_policyE1EE10_M_destroyEv,comdat
	.align	2
	.weak	_ZNSt23_Sp_counted_ptr_inplaceINSt13__future_base13_State_baseV2ESaIS1_ELN9__gnu_cxx12_Lock_policyE1EE10_M_destroyEv
	.syntax unified
	.arm
	.fpu vfp
	.type	_ZNSt23_Sp_counted_ptr_inplaceINSt13__future_base13_State_baseV2ESaIS1_ELN9__gnu_cxx12_Lock_policyE1EE10_M_destroyEv, %function
_ZNSt23_Sp_counted_ptr_inplaceINSt13__future_base13_State_baseV2ESaIS1_ELN9__gnu_cxx12_Lock_policyE1EE10_M_destroyEv:
	.fnstart
.LFB12016:
	@ args = 0, pretend = 0, frame = 0
	@ frame_needed = 0, uses_anonymous_args = 0
	@ link register save eliminated.
	b	_ZdlPv(PLT)
	.cantunwind
	.fnend
	.size	_ZNSt23_Sp_counted_ptr_inplaceINSt13__future_base13_State_baseV2ESaIS1_ELN9__gnu_cxx12_Lock_policyE1EE10_M_destroyEv, .-_ZNSt23_Sp_counted_ptr_inplaceINSt13__future_base13_State_baseV2ESaIS1_ELN9__gnu_cxx12_Lock_policyE1EE10_M_destroyEv
	.section	.text._ZNSt13__future_base7_ResultIbED2Ev,"axG",%progbits,_ZNSt13__future_base7_ResultIbED5Ev,comdat
	.align	2
	.weak	_ZNSt13__future_base7_ResultIbED2Ev
	.syntax unified
	.arm
	.fpu vfp
	.type	_ZNSt13__future_base7_ResultIbED2Ev, %function
_ZNSt13__future_base7_ResultIbED2Ev:
	.fnstart
.LFB12044:
	@ args = 0, pretend = 0, frame = 0
	@ frame_needed = 0, uses_anonymous_args = 0
	ldr	r3, .L84
	ldr	r2, .L84+4
.LPIC12:
	add	r3, pc, r3
	push	{r4, lr}
	mov	r4, r0
	ldr	r3, [r3, r2]
	add	r3, r3, #8
	str	r3, [r0]
	bl	_ZNSt13__future_base12_Result_baseD2Ev(PLT)
	mov	r0, r4
	pop	{r4, pc}
.L85:
	.align	2
.L84:
	.word	_GLOBAL_OFFSET_TABLE_-(.LPIC12+8)
	.word	_ZTVNSt13__future_base7_ResultIbEE(GOT)
	.cantunwind
	.fnend
	.size	_ZNSt13__future_base7_ResultIbED2Ev, .-_ZNSt13__future_base7_ResultIbED2Ev
	.weak	_ZNSt13__future_base7_ResultIbED1Ev
	.set	_ZNSt13__future_base7_ResultIbED1Ev,_ZNSt13__future_base7_ResultIbED2Ev
	.section	.text._ZNSt13__future_base7_ResultIbED0Ev,"axG",%progbits,_ZNSt13__future_base7_ResultIbED5Ev,comdat
	.align	2
	.weak	_ZNSt13__future_base7_ResultIbED0Ev
	.syntax unified
	.arm
	.fpu vfp
	.type	_ZNSt13__future_base7_ResultIbED0Ev, %function
_ZNSt13__future_base7_ResultIbED0Ev:
	.fnstart
.LFB12046:
	@ args = 0, pretend = 0, frame = 0
	@ frame_needed = 0, uses_anonymous_args = 0
	ldr	r3, .L88
	ldr	r2, .L88+4
.LPIC13:
	add	r3, pc, r3
	push	{r4, lr}
	mov	r4, r0
	ldr	r3, [r3, r2]
	add	r3, r3, #8
	str	r3, [r0]
	bl	_ZNSt13__future_base12_Result_baseD2Ev(PLT)
	mov	r0, r4
	mov	r1, #12
	bl	_ZdlPvj(PLT)
	mov	r0, r4
	pop	{r4, pc}
.L89:
	.align	2
.L88:
	.word	_GLOBAL_OFFSET_TABLE_-(.LPIC13+8)
	.word	_ZTVNSt13__future_base7_ResultIbEE(GOT)
	.cantunwind
	.fnend
	.size	_ZNSt13__future_base7_ResultIbED0Ev, .-_ZNSt13__future_base7_ResultIbED0Ev
	.section	.text._ZNSt13__future_base7_ResultIN8opendnp315StackStatisticsEED2Ev,"axG",%progbits,_ZNSt13__future_base7_ResultIN8opendnp315StackStatisticsEED5Ev,comdat
	.align	2
	.weak	_ZNSt13__future_base7_ResultIN8opendnp315StackStatisticsEED2Ev
	.syntax unified
	.arm
	.fpu vfp
	.type	_ZNSt13__future_base7_ResultIN8opendnp315StackStatisticsEED2Ev, %function
_ZNSt13__future_base7_ResultIN8opendnp315StackStatisticsEED2Ev:
	.fnstart
.LFB12039:
	@ args = 0, pretend = 0, frame = 0
	@ frame_needed = 0, uses_anonymous_args = 0
	ldr	r3, .L92
	ldr	r2, .L92+4
.LPIC14:
	add	r3, pc, r3
	push	{r4, lr}
	mov	r4, r0
	ldr	r3, [r3, r2]
	add	r3, r3, #8
	str	r3, [r0]
	bl	_ZNSt13__future_base12_Result_baseD2Ev(PLT)
	mov	r0, r4
	pop	{r4, pc}
.L93:
	.align	2
.L92:
	.word	_GLOBAL_OFFSET_TABLE_-(.LPIC14+8)
	.word	_ZTVNSt13__future_base7_ResultIN8opendnp315StackStatisticsEEE(GOT)
	.cantunwind
	.fnend
	.size	_ZNSt13__future_base7_ResultIN8opendnp315StackStatisticsEED2Ev, .-_ZNSt13__future_base7_ResultIN8opendnp315StackStatisticsEED2Ev
	.weak	_ZNSt13__future_base7_ResultIN8opendnp315StackStatisticsEED1Ev
	.set	_ZNSt13__future_base7_ResultIN8opendnp315StackStatisticsEED1Ev,_ZNSt13__future_base7_ResultIN8opendnp315StackStatisticsEED2Ev
	.section	.text._ZNSt13__future_base7_ResultIN8opendnp315StackStatisticsEED0Ev,"axG",%progbits,_ZNSt13__future_base7_ResultIN8opendnp315StackStatisticsEED5Ev,comdat
	.align	2
	.weak	_ZNSt13__future_base7_ResultIN8opendnp315StackStatisticsEED0Ev
	.syntax unified
	.arm
	.fpu vfp
	.type	_ZNSt13__future_base7_ResultIN8opendnp315StackStatisticsEED0Ev, %function
_ZNSt13__future_base7_ResultIN8opendnp315StackStatisticsEED0Ev:
	.fnstart
.LFB12041:
	@ args = 0, pretend = 0, frame = 0
	@ frame_needed = 0, uses_anonymous_args = 0
	ldr	r3, .L96
	ldr	r2, .L96+4
.LPIC15:
	add	r3, pc, r3
	push	{r4, lr}
	mov	r4, r0
	ldr	r3, [r3, r2]
	add	r3, r3, #8
	str	r3, [r0]
	bl	_ZNSt13__future_base12_Result_baseD2Ev(PLT)
	mov	r0, r4
	mov	r1, #52
	bl	_ZdlPvj(PLT)
	mov	r0, r4
	pop	{r4, pc}
.L97:
	.align	2
.L96:
	.word	_GLOBAL_OFFSET_TABLE_-(.LPIC15+8)
	.word	_ZTVNSt13__future_base7_ResultIN8opendnp315StackStatisticsEEE(GOT)
	.cantunwind
	.fnend
	.size	_ZNSt13__future_base7_ResultIN8opendnp315StackStatisticsEED0Ev, .-_ZNSt13__future_base7_ResultIN8opendnp315StackStatisticsEED0Ev
	.section	.text._ZNSt23_Sp_counted_ptr_inplaceINSt13__future_base13_State_baseV2ESaIS1_ELN9__gnu_cxx12_Lock_policyE1EE14_M_get_deleterERKSt9type_info,"axG",%progbits,_ZNSt23_Sp_counted_ptr_inplaceINSt13__future_base13_State_baseV2ESaIS1_ELN9__gnu_cxx12_Lock_policyE1EE14_M_get_deleterERKSt9type_info,comdat
	.align	2
	.weak	_ZNSt23_Sp_counted_ptr_inplaceINSt13__future_base13_State_baseV2ESaIS1_ELN9__gnu_cxx12_Lock_policyE1EE14_M_get_deleterERKSt9type_info
	.syntax unified
	.arm
	.fpu vfp
	.type	_ZNSt23_Sp_counted_ptr_inplaceINSt13__future_base13_State_baseV2ESaIS1_ELN9__gnu_cxx12_Lock_policyE1EE14_M_get_deleterERKSt9type_info, %function
_ZNSt23_Sp_counted_ptr_inplaceINSt13__future_base13_State_baseV2ESaIS1_ELN9__gnu_cxx12_Lock_policyE1EE14_M_get_deleterERKSt9type_info:
	.fnstart
.LFB12017:
	@ args = 0, pretend = 0, frame = 0
	@ frame_needed = 0, uses_anonymous_args = 0
	ldr	r3, .L102
	ldr	r2, .L102+4
.LPIC16:
	add	r3, pc, r3
	push	{r4, lr}
	mov	r4, r0
	ldr	r2, [r3, r2]
	mov	r0, r1
	mov	r1, r2
	bl	_ZNKSt9type_infoeqERKS_(PLT)
	cmp	r0, #0
	addne	r0, r4, #36
	pop	{r4, pc}
.L103:
	.align	2
.L102:
	.word	_GLOBAL_OFFSET_TABLE_-(.LPIC16+8)
	.word	_ZTISt19_Sp_make_shared_tag(GOT)
	.cantunwind
	.fnend
	.size	_ZNSt23_Sp_counted_ptr_inplaceINSt13__future_base13_State_baseV2ESaIS1_ELN9__gnu_cxx12_Lock_policyE1EE14_M_get_deleterERKSt9type_info, .-_ZNSt23_Sp_counted_ptr_inplaceINSt13__future_base13_State_baseV2ESaIS1_ELN9__gnu_cxx12_Lock_policyE1EE14_M_get_deleterERKSt9type_info
	.section	.text._ZNSt23_Sp_counted_ptr_inplaceIN8asiodnp310MasterScanESaIS1_ELN9__gnu_cxx12_Lock_policyE1EE14_M_get_deleterERKSt9type_info,"axG",%progbits,_ZNSt23_Sp_counted_ptr_inplaceIN8asiodnp310MasterScanESaIS1_ELN9__gnu_cxx12_Lock_policyE1EE14_M_get_deleterERKSt9type_info,comdat
	.align	2
	.weak	_ZNSt23_Sp_counted_ptr_inplaceIN8asiodnp310MasterScanESaIS1_ELN9__gnu_cxx12_Lock_policyE1EE14_M_get_deleterERKSt9type_info
	.syntax unified
	.arm
	.fpu vfp
	.type	_ZNSt23_Sp_counted_ptr_inplaceIN8asiodnp310MasterScanESaIS1_ELN9__gnu_cxx12_Lock_policyE1EE14_M_get_deleterERKSt9type_info, %function
_ZNSt23_Sp_counted_ptr_inplaceIN8asiodnp310MasterScanESaIS1_ELN9__gnu_cxx12_Lock_policyE1EE14_M_get_deleterERKSt9type_info:
	.fnstart
.LFB11996:
	@ args = 0, pretend = 0, frame = 0
	@ frame_needed = 0, uses_anonymous_args = 0
	ldr	r3, .L108
	ldr	r2, .L108+4
.LPIC17:
	add	r3, pc, r3
	push	{r4, lr}
	mov	r4, r0
	ldr	r2, [r3, r2]
	mov	r0, r1
	mov	r1, r2
	bl	_ZNKSt9type_infoeqERKS_(PLT)
	cmp	r0, #0
	addne	r0, r4, #36
	pop	{r4, pc}
.L109:
	.align	2
.L108:
	.word	_GLOBAL_OFFSET_TABLE_-(.LPIC17+8)
	.word	_ZTISt19_Sp_make_shared_tag(GOT)
	.cantunwind
	.fnend
	.size	_ZNSt23_Sp_counted_ptr_inplaceIN8asiodnp310MasterScanESaIS1_ELN9__gnu_cxx12_Lock_policyE1EE14_M_get_deleterERKSt9type_info, .-_ZNSt23_Sp_counted_ptr_inplaceIN8asiodnp310MasterScanESaIS1_ELN9__gnu_cxx12_Lock_policyE1EE14_M_get_deleterERKSt9type_info
	.section	.text._ZNSt23_Sp_counted_ptr_inplaceIN8opendnp310CommandSetESaIS1_ELN9__gnu_cxx12_Lock_policyE1EE14_M_get_deleterERKSt9type_info,"axG",%progbits,_ZNSt23_Sp_counted_ptr_inplaceIN8opendnp310CommandSetESaIS1_ELN9__gnu_cxx12_Lock_policyE1EE14_M_get_deleterERKSt9type_info,comdat
	.align	2
	.weak	_ZNSt23_Sp_counted_ptr_inplaceIN8opendnp310CommandSetESaIS1_ELN9__gnu_cxx12_Lock_policyE1EE14_M_get_deleterERKSt9type_info
	.syntax unified
	.arm
	.fpu vfp
	.type	_ZNSt23_Sp_counted_ptr_inplaceIN8opendnp310CommandSetESaIS1_ELN9__gnu_cxx12_Lock_policyE1EE14_M_get_deleterERKSt9type_info, %function
_ZNSt23_Sp_counted_ptr_inplaceIN8opendnp310CommandSetESaIS1_ELN9__gnu_cxx12_Lock_policyE1EE14_M_get_deleterERKSt9type_info:
	.fnstart
.LFB11982:
	@ args = 0, pretend = 0, frame = 0
	@ frame_needed = 0, uses_anonymous_args = 0
	ldr	r3, .L114
	ldr	r2, .L114+4
.LPIC18:
	add	r3, pc, r3
	push	{r4, lr}
	mov	r4, r0
	ldr	r2, [r3, r2]
	mov	r0, r1
	mov	r1, r2
	bl	_ZNKSt9type_infoeqERKS_(PLT)
	cmp	r0, #0
	addne	r0, r4, #36
	pop	{r4, pc}
.L115:
	.align	2
.L114:
	.word	_GLOBAL_OFFSET_TABLE_-(.LPIC18+8)
	.word	_ZTISt19_Sp_make_shared_tag(GOT)
	.cantunwind
	.fnend
	.size	_ZNSt23_Sp_counted_ptr_inplaceIN8opendnp310CommandSetESaIS1_ELN9__gnu_cxx12_Lock_policyE1EE14_M_get_deleterERKSt9type_info, .-_ZNSt23_Sp_counted_ptr_inplaceIN8opendnp310CommandSetESaIS1_ELN9__gnu_cxx12_Lock_policyE1EE14_M_get_deleterERKSt9type_info
	.section	.text._ZN7openpal5ArrayIhjED2Ev,"axG",%progbits,_ZN7openpal5ArrayIhjED5Ev,comdat
	.align	2
	.weak	_ZN7openpal5ArrayIhjED2Ev
	.syntax unified
	.arm
	.fpu vfp
	.type	_ZN7openpal5ArrayIhjED2Ev, %function
_ZN7openpal5ArrayIhjED2Ev:
	.fnstart
.LFB9092:
	@ args = 0, pretend = 0, frame = 0
	@ frame_needed = 0, uses_anonymous_args = 0
	ldr	r3, .L122
	ldr	r2, .L122+4
.LPIC19:
	add	r3, pc, r3
	push	{r4, lr}
	mov	r4, r0
	ldr	r3, [r3, r2]
	ldr	r0, [r0, #8]
	add	r3, r3, #8
	cmp	r0, #0
	str	r3, [r4]
	beq	.L117
	bl	_ZdaPv(PLT)
.L117:
	mov	r0, r4
	pop	{r4, pc}
.L123:
	.align	2
.L122:
	.word	_GLOBAL_OFFSET_TABLE_-(.LPIC19+8)
	.word	_ZTVN7openpal5ArrayIhjEE(GOT)
	.cantunwind
	.fnend
	.size	_ZN7openpal5ArrayIhjED2Ev, .-_ZN7openpal5ArrayIhjED2Ev
	.weak	_ZN7openpal5ArrayIhjED1Ev
	.set	_ZN7openpal5ArrayIhjED1Ev,_ZN7openpal5ArrayIhjED2Ev
	.section	.text._ZN7openpal5ArrayIhjED0Ev,"axG",%progbits,_ZN7openpal5ArrayIhjED5Ev,comdat
	.align	2
	.weak	_ZN7openpal5ArrayIhjED0Ev
	.syntax unified
	.arm
	.fpu vfp
	.type	_ZN7openpal5ArrayIhjED0Ev, %function
_ZN7openpal5ArrayIhjED0Ev:
	.fnstart
.LFB9094:
	@ args = 0, pretend = 0, frame = 0
	@ frame_needed = 0, uses_anonymous_args = 0
	ldr	r3, .L130
	ldr	r2, .L130+4
.LPIC20:
	add	r3, pc, r3
	push	{r4, lr}
	mov	r4, r0
	ldr	r3, [r3, r2]
	ldr	r0, [r0, #8]
	add	r3, r3, #8
	cmp	r0, #0
	str	r3, [r4]
	beq	.L125
	bl	_ZdaPv(PLT)
.L125:
	mov	r0, r4
	mov	r1, #12
	bl	_ZdlPvj(PLT)
	mov	r0, r4
	pop	{r4, pc}
.L131:
	.align	2
.L130:
	.word	_GLOBAL_OFFSET_TABLE_-(.LPIC20+8)
	.word	_ZTVN7openpal5ArrayIhjEE(GOT)
	.cantunwind
	.fnend
	.size	_ZN7openpal5ArrayIhjED0Ev, .-_ZN7openpal5ArrayIhjED0Ev
	.section	.text._ZN9__gnu_cxx24__concurrence_lock_errorD2Ev,"axG",%progbits,_ZN9__gnu_cxx24__concurrence_lock_errorD5Ev,comdat
	.align	2
	.weak	_ZN9__gnu_cxx24__concurrence_lock_errorD2Ev
	.syntax unified
	.arm
	.fpu vfp
	.type	_ZN9__gnu_cxx24__concurrence_lock_errorD2Ev, %function
_ZN9__gnu_cxx24__concurrence_lock_errorD2Ev:
	.fnstart
.LFB11893:
	@ args = 0, pretend = 0, frame = 0
	@ frame_needed = 0, uses_anonymous_args = 0
	ldr	r3, .L134
	ldr	r2, .L134+4
.LPIC21:
	add	r3, pc, r3
	push	{r4, lr}
	mov	r4, r0
	ldr	r3, [r3, r2]
	add	r3, r3, #8
	str	r3, [r0]
	bl	_ZNSt9exceptionD2Ev(PLT)
	mov	r0, r4
	pop	{r4, pc}
.L135:
	.align	2
.L134:
	.word	_GLOBAL_OFFSET_TABLE_-(.LPIC21+8)
	.word	_ZTVN9__gnu_cxx24__concurrence_lock_errorE(GOT)
	.cantunwind
	.fnend
	.size	_ZN9__gnu_cxx24__concurrence_lock_errorD2Ev, .-_ZN9__gnu_cxx24__concurrence_lock_errorD2Ev
	.weak	_ZN9__gnu_cxx24__concurrence_lock_errorD1Ev
	.set	_ZN9__gnu_cxx24__concurrence_lock_errorD1Ev,_ZN9__gnu_cxx24__concurrence_lock_errorD2Ev
	.section	.text._ZN9__gnu_cxx24__concurrence_lock_errorD0Ev,"axG",%progbits,_ZN9__gnu_cxx24__concurrence_lock_errorD5Ev,comdat
	.align	2
	.weak	_ZN9__gnu_cxx24__concurrence_lock_errorD0Ev
	.syntax unified
	.arm
	.fpu vfp
	.type	_ZN9__gnu_cxx24__concurrence_lock_errorD0Ev, %function
_ZN9__gnu_cxx24__concurrence_lock_errorD0Ev:
	.fnstart
.LFB11895:
	@ args = 0, pretend = 0, frame = 0
	@ frame_needed = 0, uses_anonymous_args = 0
	ldr	r3, .L138
	ldr	r2, .L138+4
.LPIC22:
	add	r3, pc, r3
	push	{r4, lr}
	mov	r4, r0
	ldr	r3, [r3, r2]
	add	r3, r3, #8
	str	r3, [r0]
	bl	_ZNSt9exceptionD2Ev(PLT)
	mov	r0, r4
	mov	r1, #4
	bl	_ZdlPvj(PLT)
	mov	r0, r4
	pop	{r4, pc}
.L139:
	.align	2
.L138:
	.word	_GLOBAL_OFFSET_TABLE_-(.LPIC22+8)
	.word	_ZTVN9__gnu_cxx24__concurrence_lock_errorE(GOT)
	.cantunwind
	.fnend
	.size	_ZN9__gnu_cxx24__concurrence_lock_errorD0Ev, .-_ZN9__gnu_cxx24__concurrence_lock_errorD0Ev
	.section	.text._ZN9__gnu_cxx26__concurrence_unlock_errorD2Ev,"axG",%progbits,_ZN9__gnu_cxx26__concurrence_unlock_errorD5Ev,comdat
	.align	2
	.weak	_ZN9__gnu_cxx26__concurrence_unlock_errorD2Ev
	.syntax unified
	.arm
	.fpu vfp
	.type	_ZN9__gnu_cxx26__concurrence_unlock_errorD2Ev, %function
_ZN9__gnu_cxx26__concurrence_unlock_errorD2Ev:
	.fnstart
.LFB11889:
	@ args = 0, pretend = 0, frame = 0
	@ frame_needed = 0, uses_anonymous_args = 0
	ldr	r3, .L142
	ldr	r2, .L142+4
.LPIC23:
	add	r3, pc, r3
	push	{r4, lr}
	mov	r4, r0
	ldr	r3, [r3, r2]
	add	r3, r3, #8
	str	r3, [r0]
	bl	_ZNSt9exceptionD2Ev(PLT)
	mov	r0, r4
	pop	{r4, pc}
.L143:
	.align	2
.L142:
	.word	_GLOBAL_OFFSET_TABLE_-(.LPIC23+8)
	.word	_ZTVN9__gnu_cxx26__concurrence_unlock_errorE(GOT)
	.cantunwind
	.fnend
	.size	_ZN9__gnu_cxx26__concurrence_unlock_errorD2Ev, .-_ZN9__gnu_cxx26__concurrence_unlock_errorD2Ev
	.weak	_ZN9__gnu_cxx26__concurrence_unlock_errorD1Ev
	.set	_ZN9__gnu_cxx26__concurrence_unlock_errorD1Ev,_ZN9__gnu_cxx26__concurrence_unlock_errorD2Ev
	.section	.text._ZN9__gnu_cxx26__concurrence_unlock_errorD0Ev,"axG",%progbits,_ZN9__gnu_cxx26__concurrence_unlock_errorD5Ev,comdat
	.align	2
	.weak	_ZN9__gnu_cxx26__concurrence_unlock_errorD0Ev
	.syntax unified
	.arm
	.fpu vfp
	.type	_ZN9__gnu_cxx26__concurrence_unlock_errorD0Ev, %function
_ZN9__gnu_cxx26__concurrence_unlock_errorD0Ev:
	.fnstart
.LFB11891:
	@ args = 0, pretend = 0, frame = 0
	@ frame_needed = 0, uses_anonymous_args = 0
	ldr	r3, .L146
	ldr	r2, .L146+4
.LPIC24:
	add	r3, pc, r3
	push	{r4, lr}
	mov	r4, r0
	ldr	r3, [r3, r2]
	add	r3, r3, #8
	str	r3, [r0]
	bl	_ZNSt9exceptionD2Ev(PLT)
	mov	r0, r4
	mov	r1, #4
	bl	_ZdlPvj(PLT)
	mov	r0, r4
	pop	{r4, pc}
.L147:
	.align	2
.L146:
	.word	_GLOBAL_OFFSET_TABLE_-(.LPIC24+8)
	.word	_ZTVN9__gnu_cxx26__concurrence_unlock_errorE(GOT)
	.cantunwind
	.fnend
	.size	_ZN9__gnu_cxx26__concurrence_unlock_errorD0Ev, .-_ZN9__gnu_cxx26__concurrence_unlock_errorD0Ev
	.section	.text._ZNSt13__future_base13_State_baseV29_M_do_setEPSt8functionIFSt10unique_ptrINS_12_Result_baseENS3_8_DeleterEEvEEPb,"axG",%progbits,_ZNSt13__future_base13_State_baseV29_M_do_setEPSt8functionIFSt10unique_ptrINS_12_Result_baseENS3_8_DeleterEEvEEPb,comdat
	.align	2
	.weak	_ZNSt13__future_base13_State_baseV29_M_do_setEPSt8functionIFSt10unique_ptrINS_12_Result_baseENS3_8_DeleterEEvEEPb
	.syntax unified
	.arm
	.fpu vfp
	.type	_ZNSt13__future_base13_State_baseV29_M_do_setEPSt8functionIFSt10unique_ptrINS_12_Result_baseENS3_8_DeleterEEvEEPb, %function
_ZNSt13__future_base13_State_baseV29_M_do_setEPSt8functionIFSt10unique_ptrINS_12_Result_baseENS3_8_DeleterEEvEEPb:
	.fnstart
.LFB6630:
	@ args = 0, pretend = 0, frame = 8
	@ frame_needed = 0, uses_anonymous_args = 0
	push	{r4, r5, lr}
	.save {r4, r5, lr}
	mov	r4, r0
	ldr	r0, [r1, #8]
	.pad #12
	sub	sp, sp, #12
	cmp	r0, #0
	beq	.L155
	ldr	r3, [r1, #12]
	add	r0, sp, #4
	mov	r5, r2
.LEHB0:
	blx	r3
.LEHE0:
	ldr	r0, [r4, #4]
	ldr	r3, [sp, #4]
	mov	r2, #1
	cmp	r0, #0
	strb	r2, [r5]
	str	r0, [sp, #4]
	str	r3, [r4, #4]
	beq	.L148
	ldr	r3, [r0]
	ldr	r3, [r3]
	blx	r3
.L148:
	add	sp, sp, #12
	@ sp needed
	pop	{r4, r5, pc}
.L155:
.LEHB1:
	bl	_ZSt25__throw_bad_function_callv(PLT)
.LEHE1:
	.personality	__gxx_personality_v0
	.handlerdata
.LLSDA6630:
	.byte	0xff
	.byte	0xff
	.byte	0x1
	.uleb128 .LLSDACSE6630-.LLSDACSB6630
.LLSDACSB6630:
	.uleb128 .LEHB0-.LFB6630
	.uleb128 .LEHE0-.LEHB0
	.uleb128 0
	.uleb128 0
	.uleb128 .LEHB1-.LFB6630
	.uleb128 .LEHE1-.LEHB1
	.uleb128 0
	.uleb128 0
.LLSDACSE6630:
	.section	.text._ZNSt13__future_base13_State_baseV29_M_do_setEPSt8functionIFSt10unique_ptrINS_12_Result_baseENS3_8_DeleterEEvEEPb,"axG",%progbits,_ZNSt13__future_base13_State_baseV29_M_do_setEPSt8functionIFSt10unique_ptrINS_12_Result_baseENS3_8_DeleterEEvEEPb,comdat
	.fnend
	.size	_ZNSt13__future_base13_State_baseV29_M_do_setEPSt8functionIFSt10unique_ptrINS_12_Result_baseENS3_8_DeleterEEvEEPb, .-_ZNSt13__future_base13_State_baseV29_M_do_setEPSt8functionIFSt10unique_ptrINS_12_Result_baseENS3_8_DeleterEEvEEPb
	.section	.text._ZNSt17_Function_handlerIFSt10unique_ptrINSt13__future_base12_Result_baseENS2_8_DeleterEEvENS1_13_State_baseV27_SetterIbObEEE9_M_invokeERKSt9_Any_data,"axG",%progbits,_ZNSt17_Function_handlerIFSt10unique_ptrINSt13__future_base12_Result_baseENS2_8_DeleterEEvENS1_13_State_baseV27_SetterIbObEEE9_M_invokeERKSt9_Any_data,comdat
	.align	2
	.weak	_ZNSt17_Function_handlerIFSt10unique_ptrINSt13__future_base12_Result_baseENS2_8_DeleterEEvENS1_13_State_baseV27_SetterIbObEEE9_M_invokeERKSt9_Any_data
	.syntax unified
	.arm
	.fpu vfp
	.type	_ZNSt17_Function_handlerIFSt10unique_ptrINSt13__future_base12_Result_baseENS2_8_DeleterEEvENS1_13_State_baseV27_SetterIbObEEE9_M_invokeERKSt9_Any_data, %function
_ZNSt17_Function_handlerIFSt10unique_ptrINSt13__future_base12_Result_baseENS2_8_DeleterEEvENS1_13_State_baseV27_SetterIbObEEE9_M_invokeERKSt9_Any_data:
	.fnstart
.LFB10772:
	@ args = 0, pretend = 0, frame = 0
	@ frame_needed = 0, uses_anonymous_args = 0
	ldr	r2, [r1]
	ldr	r3, [r2]
	cmp	r3, #0
	beq	.L165
	ldr	r1, [r1, #4]
	ldr	r3, [r2, #8]
	mov	ip, r0
	ldrb	r1, [r1]	@ zero_extendqisi2
	cmn	r3, #8
	mov	r0, #1
	strbne	r1, [r3, #8]
	mov	r1, #0
	strb	r0, [r3, #9]
	str	r1, [r2, #8]
	mov	r0, ip
	str	r3, [ip]
	bx	lr
.L165:
	push	{r4, lr}
	.save {r4, lr}
	mov	r0, #3
	bl	_ZSt20__throw_future_errori(PLT)
	.fnend
	.size	_ZNSt17_Function_handlerIFSt10unique_ptrINSt13__future_base12_Result_baseENS2_8_DeleterEEvENS1_13_State_baseV27_SetterIbObEEE9_M_invokeERKSt9_Any_data, .-_ZNSt17_Function_handlerIFSt10unique_ptrINSt13__future_base12_Result_baseENS2_8_DeleterEEvENS1_13_State_baseV27_SetterIbObEEE9_M_invokeERKSt9_Any_data
	.section	.text._ZNSt17_Function_handlerIFSt10unique_ptrINSt13__future_base12_Result_baseENS2_8_DeleterEEvENS1_13_State_baseV27_SetterIN8opendnp315StackStatisticsEOS9_EEE9_M_invokeERKSt9_Any_data,"axG",%progbits,_ZNSt17_Function_handlerIFSt10unique_ptrINSt13__future_base12_Result_baseENS2_8_DeleterEEvENS1_13_State_baseV27_SetterIN8opendnp315StackStatisticsEOS9_EEE9_M_invokeERKSt9_Any_data,comdat
	.align	2
	.weak	_ZNSt17_Function_handlerIFSt10unique_ptrINSt13__future_base12_Result_baseENS2_8_DeleterEEvENS1_13_State_baseV27_SetterIN8opendnp315StackStatisticsEOS9_EEE9_M_invokeERKSt9_Any_data
	.syntax unified
	.arm
	.fpu vfp
	.type	_ZNSt17_Function_handlerIFSt10unique_ptrINSt13__future_base12_Result_baseENS2_8_DeleterEEvENS1_13_State_baseV27_SetterIN8opendnp315StackStatisticsEOS9_EEE9_M_invokeERKSt9_Any_data, %function
_ZNSt17_Function_handlerIFSt10unique_ptrINSt13__future_base12_Result_baseENS2_8_DeleterEEvENS1_13_State_baseV27_SetterIN8opendnp315StackStatisticsEOS9_EEE9_M_invokeERKSt9_Any_data:
	.fnstart
.LFB10819:
	@ args = 0, pretend = 0, frame = 0
	@ frame_needed = 0, uses_anonymous_args = 0
	push	{r4, r5, r6, lr}
	.save {r4, r5, r6, lr}
	ldr	r5, [r1]
	ldr	r3, [r5]
	cmp	r3, #0
	beq	.L173
	ldr	r4, [r5, #8]
	mov	r6, r0
	adds	ip, r4, #8
	ldr	lr, [r1, #4]
	beq	.L168
	ldmia	lr!, {r0, r1, r2, r3}
	stmia	ip!, {r0, r1, r2, r3}
	ldmia	lr!, {r0, r1, r2, r3}
	stmia	ip!, {r0, r1, r2, r3}
	ldm	lr, {r0, r1}
	stm	ip, {r0, r1}
.L168:
	mov	r2, #1
	mov	r3, #0
	strb	r2, [r4, #48]
	mov	r0, r6
	str	r3, [r5, #8]
	str	r4, [r6]
	pop	{r4, r5, r6, pc}
.L173:
	mov	r0, #3
	bl	_ZSt20__throw_future_errori(PLT)
	.fnend
	.size	_ZNSt17_Function_handlerIFSt10unique_ptrINSt13__future_base12_Result_baseENS2_8_DeleterEEvENS1_13_State_baseV27_SetterIN8opendnp315StackStatisticsEOS9_EEE9_M_invokeERKSt9_Any_data, .-_ZNSt17_Function_handlerIFSt10unique_ptrINSt13__future_base12_Result_baseENS2_8_DeleterEEvENS1_13_State_baseV27_SetterIN8opendnp315StackStatisticsEOS9_EEE9_M_invokeERKSt9_Any_data
	.section	.text._ZNSt17_Function_handlerIFSt10unique_ptrINSt13__future_base12_Result_baseENS2_8_DeleterEEvENS1_13_State_baseV27_SetterISt10shared_ptrIN8opendnp311IMasterTaskEEOSB_EEE9_M_invokeERKSt9_Any_data,"axG",%progbits,_ZNSt17_Function_handlerIFSt10unique_ptrINSt13__future_base12_Result_baseENS2_8_DeleterEEvENS1_13_State_baseV27_SetterISt10shared_ptrIN8opendnp311IMasterTaskEEOSB_EEE9_M_invokeERKSt9_Any_data,comdat
	.align	2
	.weak	_ZNSt17_Function_handlerIFSt10unique_ptrINSt13__future_base12_Result_baseENS2_8_DeleterEEvENS1_13_State_baseV27_SetterISt10shared_ptrIN8opendnp311IMasterTaskEEOSB_EEE9_M_invokeERKSt9_Any_data
	.syntax unified
	.arm
	.fpu vfp
	.type	_ZNSt17_Function_handlerIFSt10unique_ptrINSt13__future_base12_Result_baseENS2_8_DeleterEEvENS1_13_State_baseV27_SetterISt10shared_ptrIN8opendnp311IMasterTaskEEOSB_EEE9_M_invokeERKSt9_Any_data, %function
_ZNSt17_Function_handlerIFSt10unique_ptrINSt13__future_base12_Result_baseENS2_8_DeleterEEvENS1_13_State_baseV27_SetterISt10shared_ptrIN8opendnp311IMasterTaskEEOSB_EEE9_M_invokeERKSt9_Any_data:
	.fnstart
.LFB10858:
	@ args = 0, pretend = 0, frame = 0
	@ frame_needed = 0, uses_anonymous_args = 0
	ldr	ip, [r1]
	push	{r4, lr}
	.save {r4, lr}
	ldr	r3, [ip]
	cmp	r3, #0
	beq	.L181
	ldr	r3, [ip, #8]
	mov	lr, r0
	cmn	r3, #8
	ldr	r2, [r1, #4]
	beq	.L176
	mov	r1, #0
	ldr	r4, [r2]
	str	r1, [r3, #12]
	ldr	r0, [r2, #4]
	str	r4, [r3, #8]
	str	r1, [r2, #4]
	str	r0, [r3, #12]
	str	r1, [r2]
.L176:
	mov	r1, #1
	mov	r2, #0
	strb	r1, [r3, #16]
	mov	r0, lr
	str	r2, [ip, #8]
	str	r3, [lr]
	pop	{r4, pc}
.L181:
	mov	r0, #3
	bl	_ZSt20__throw_future_errori(PLT)
	.fnend
	.size	_ZNSt17_Function_handlerIFSt10unique_ptrINSt13__future_base12_Result_baseENS2_8_DeleterEEvENS1_13_State_baseV27_SetterISt10shared_ptrIN8opendnp311IMasterTaskEEOSB_EEE9_M_invokeERKSt9_Any_data, .-_ZNSt17_Function_handlerIFSt10unique_ptrINSt13__future_base12_Result_baseENS2_8_DeleterEEvENS1_13_State_baseV27_SetterISt10shared_ptrIN8opendnp311IMasterTaskEEOSB_EEE9_M_invokeERKSt9_Any_data
	.text
	.align	2
	.syntax unified
	.arm
	.fpu vfp
	.type	_ZNSt17_Function_handlerIFN8opendnp315StackStatisticsEvEZN8asiodnp311MasterStack18GetStackStatisticsEvEUlvE_E9_M_invokeERKSt9_Any_data, %function
_ZNSt17_Function_handlerIFN8opendnp315StackStatisticsEvEZN8asiodnp311MasterStack18GetStackStatisticsEvEUlvE_E9_M_invokeERKSt9_Any_data:
	.fnstart
.LFB9805:
	@ args = 0, pretend = 0, frame = 24
	@ frame_needed = 0, uses_anonymous_args = 0
	ldr	r3, [r1]
	push	{r4, r5, r6, lr}
	.save {r4, r5, r6, lr}
	mov	r5, r0
	ldr	r4, [r3]
	.pad #24
	sub	sp, sp, #24
	ldr	r0, [r4, #76]
	bl	_ZNK8opendnp39LinkLayer13GetStatisticsEv(PLT)
	ldr	r1, [r4, #68]
	mov	r6, r0
	mov	r0, sp
	bl	_ZNK8opendnp314TransportLayer13GetStatisticsEv(PLT)
	ldm	r6, {r0, r1, r2, r3}
	mov	ip, sp
	add	lr, r5, #16
	stm	r5, {r0, r1, r2, r3}
	ldmia	ip!, {r0, r1, r2, r3}
	stmia	lr!, {r0, r1, r2, r3}
	ldm	ip, {r0, r1}
	stm	lr, {r0, r1}
	mov	r0, r5
	add	sp, sp, #24
	@ sp needed
	pop	{r4, r5, r6, pc}
	.fnend
	.size	_ZNSt17_Function_handlerIFN8opendnp315StackStatisticsEvEZN8asiodnp311MasterStack18GetStackStatisticsEvEUlvE_E9_M_invokeERKSt9_Any_data, .-_ZNSt17_Function_handlerIFN8opendnp315StackStatisticsEvEZN8asiodnp311MasterStack18GetStackStatisticsEvEUlvE_E9_M_invokeERKSt9_Any_data
	.align	2
	.syntax unified
	.arm
	.fpu vfp
	.type	_ZNSt17_Function_handlerIFSt10shared_ptrIN8opendnp311IMasterTaskEEvEZN8asiodnp311MasterStack7AddScanEN7openpal12TimeDurationERKSt6vectorINS1_6HeaderESaISA_EERKNS1_10TaskConfigEEUlvE_E9_M_invokeERKSt9_Any_data, %function
_ZNSt17_Function_handlerIFSt10shared_ptrIN8opendnp311IMasterTaskEEvEZN8asiodnp311MasterStack7AddScanEN7openpal12TimeDurationERKSt6vectorINS1_6HeaderESaISA_EERKNS1_10TaskConfigEEUlvE_E9_M_invokeERKSt9_Any_data:
	.fnstart
.LFB9848:
	@ args = 0, pretend = 0, frame = 0
	@ frame_needed = 0, uses_anonymous_args = 0
	ldr	r3, [r1]
	push	{r4, r6, r7, lr}
	.save {r4, r6, r7, lr}
	mov	r2, r3
	mov	r4, r0
	ldr	ip, [r2], #32
	ldrd	r6, [r3, #24]
	.pad #16
	sub	sp, sp, #16
	ldm	r2, {r0, r1, r2}
	add	r3, r3, #8
	str	r3, [sp]
	mov	r3, r7
	stmib	sp, {r0, r1, r2}
	mov	r0, r4
	add	r1, ip, #88
	mov	r2, r6
	bl	_ZN8opendnp38MContext7AddScanEN7openpal12TimeDurationERKSt8functionIFbRNS_12HeaderWriterEEENS_10TaskConfigE(PLT)
	mov	r0, r4
	add	sp, sp, #16
	@ sp needed
	pop	{r4, r6, r7, pc}
	.fnend
	.size	_ZNSt17_Function_handlerIFSt10shared_ptrIN8opendnp311IMasterTaskEEvEZN8asiodnp311MasterStack7AddScanEN7openpal12TimeDurationERKSt6vectorINS1_6HeaderESaISA_EERKNS1_10TaskConfigEEUlvE_E9_M_invokeERKSt9_Any_data, .-_ZNSt17_Function_handlerIFSt10shared_ptrIN8opendnp311IMasterTaskEEvEZN8asiodnp311MasterStack7AddScanEN7openpal12TimeDurationERKSt6vectorINS1_6HeaderESaISA_EERKNS1_10TaskConfigEEUlvE_E9_M_invokeERKSt9_Any_data
	.align	2
	.syntax unified
	.arm
	.fpu vfp
	.type	_ZNSt17_Function_handlerIFSt10shared_ptrIN8opendnp311IMasterTaskEEvEZN8asiodnp311MasterStack17AddAllObjectsScanENS1_16GroupVariationIDEN7openpal12TimeDurationERKNS1_10TaskConfigEEUlvE_E9_M_invokeERKSt9_Any_data, %function
_ZNSt17_Function_handlerIFSt10shared_ptrIN8opendnp311IMasterTaskEEvEZN8asiodnp311MasterStack17AddAllObjectsScanENS1_16GroupVariationIDEN7openpal12TimeDurationERKNS1_10TaskConfigEEUlvE_E9_M_invokeERKSt9_Any_data:
	.fnstart
.LFB9878:
	@ args = 0, pretend = 0, frame = 0
	@ frame_needed = 0, uses_anonymous_args = 0
	ldr	ip, [r1]
	push	{r4, r5, lr}
	.save {r4, r5, lr}
	mov	r3, ip
	mov	r4, r0
	ldr	r5, [r3], #24
	.pad #28
	sub	sp, sp, #28
	add	lr, sp, #8
	ldm	r3, {r0, r1, r2}
	stm	lr, {r0, r1, r2}
	mov	r0, r4
	ldrd	r2, [ip, #16]
	add	r1, r5, #88
	strd	r2, [sp]
	ldr	r2, [ip, #8]
	bl	_ZN8opendnp38MContext17AddAllObjectsScanENS_16GroupVariationIDEN7openpal12TimeDurationENS_10TaskConfigE(PLT)
	mov	r0, r4
	add	sp, sp, #28
	@ sp needed
	pop	{r4, r5, pc}
	.fnend
	.size	_ZNSt17_Function_handlerIFSt10shared_ptrIN8opendnp311IMasterTaskEEvEZN8asiodnp311MasterStack17AddAllObjectsScanENS1_16GroupVariationIDEN7openpal12TimeDurationERKNS1_10TaskConfigEEUlvE_E9_M_invokeERKSt9_Any_data, .-_ZNSt17_Function_handlerIFSt10shared_ptrIN8opendnp311IMasterTaskEEvEZN8asiodnp311MasterStack17AddAllObjectsScanENS1_16GroupVariationIDEN7openpal12TimeDurationERKNS1_10TaskConfigEEUlvE_E9_M_invokeERKSt9_Any_data
	.align	2
	.syntax unified
	.arm
	.fpu vfp
	.type	_ZNSt17_Function_handlerIFSt10shared_ptrIN8opendnp311IMasterTaskEEvEZN8asiodnp311MasterStack12AddClassScanERKNS1_10ClassFieldEN7openpal12TimeDurationERKNS1_10TaskConfigEEUlvE_E9_M_invokeERKSt9_Any_data, %function
_ZNSt17_Function_handlerIFSt10shared_ptrIN8opendnp311IMasterTaskEEvEZN8asiodnp311MasterStack12AddClassScanERKNS1_10ClassFieldEN7openpal12TimeDurationERKNS1_10TaskConfigEEUlvE_E9_M_invokeERKSt9_Any_data:
	.fnstart
.LFB9882:
	@ args = 0, pretend = 0, frame = 0
	@ frame_needed = 0, uses_anonymous_args = 0
	ldr	ip, [r1]
	push	{r4, r5, r6, lr}
	.save {r4, r5, r6, lr}
	mov	r3, ip
	mov	r6, r0
	ldr	r4, [r3], #24
	.pad #24
	sub	sp, sp, #24
	add	lr, sp, #8
	ldm	r3, {r0, r1, r2}
	stm	lr, {r0, r1, r2}
	add	r1, r4, #88
	ldrd	r4, [ip, #16]
	mov	r0, r6
	add	r2, ip, #8
	strd	r4, [sp]
	bl	_ZN8opendnp38MContext12AddClassScanERKNS_10ClassFieldEN7openpal12TimeDurationENS_10TaskConfigE(PLT)
	mov	r0, r6
	add	sp, sp, #24
	@ sp needed
	pop	{r4, r5, r6, pc}
	.fnend
	.size	_ZNSt17_Function_handlerIFSt10shared_ptrIN8opendnp311IMasterTaskEEvEZN8asiodnp311MasterStack12AddClassScanERKNS1_10ClassFieldEN7openpal12TimeDurationERKNS1_10TaskConfigEEUlvE_E9_M_invokeERKSt9_Any_data, .-_ZNSt17_Function_handlerIFSt10shared_ptrIN8opendnp311IMasterTaskEEvEZN8asiodnp311MasterStack12AddClassScanERKNS1_10ClassFieldEN7openpal12TimeDurationERKNS1_10TaskConfigEEUlvE_E9_M_invokeERKSt9_Any_data
	.align	2
	.syntax unified
	.arm
	.fpu vfp
	.type	_ZNSt17_Function_handlerIFSt10shared_ptrIN8opendnp311IMasterTaskEEvEZN8asiodnp311MasterStack12AddRangeScanENS1_16GroupVariationIDEttN7openpal12TimeDurationERKNS1_10TaskConfigEEUlvE_E9_M_invokeERKSt9_Any_data, %function
_ZNSt17_Function_handlerIFSt10shared_ptrIN8opendnp311IMasterTaskEEvEZN8asiodnp311MasterStack12AddRangeScanENS1_16GroupVariationIDEttN7openpal12TimeDurationERKNS1_10TaskConfigEEUlvE_E9_M_invokeERKSt9_Any_data:
	.fnstart
.LFB9886:
	@ args = 0, pretend = 0, frame = 0
	@ frame_needed = 0, uses_anonymous_args = 0
	ldr	ip, [r1]
	push	{r4, r5, r6, r7, lr}
	.save {r4, r5, r6, r7, lr}
	mov	r2, ip
	mov	r4, r0
	ldr	r5, [r2], #24
	.pad #36
	sub	sp, sp, #36
	add	lr, sp, #16
	ldm	r2, {r0, r1, r2}
	ldrh	r3, [ip, #10]
	stm	lr, {r0, r1, r2}
	mov	r0, r4
	ldrd	r6, [ip, #16]
	add	r1, r5, #88
	strd	r6, [sp, #8]
	ldrh	r2, [ip, #12]
	str	r2, [sp]
	ldr	r2, [ip, #8]
	bl	_ZN8opendnp38MContext12AddRangeScanENS_16GroupVariationIDEttN7openpal12TimeDurationENS_10TaskConfigE(PLT)
	mov	r0, r4
	add	sp, sp, #36
	@ sp needed
	pop	{r4, r5, r6, r7, pc}
	.fnend
	.size	_ZNSt17_Function_handlerIFSt10shared_ptrIN8opendnp311IMasterTaskEEvEZN8asiodnp311MasterStack12AddRangeScanENS1_16GroupVariationIDEttN7openpal12TimeDurationERKNS1_10TaskConfigEEUlvE_E9_M_invokeERKSt9_Any_data, .-_ZNSt17_Function_handlerIFSt10shared_ptrIN8opendnp311IMasterTaskEEvEZN8asiodnp311MasterStack12AddRangeScanENS1_16GroupVariationIDEttN7openpal12TimeDurationERKNS1_10TaskConfigEEUlvE_E9_M_invokeERKSt9_Any_data
	.section	.text._ZN4asio6detail7tss_ptrINS0_10call_stackINS0_15task_io_serviceENS0_27task_io_service_thread_infoEE7contextEED2Ev,"axG",%progbits,_ZN4asio6detail7tss_ptrINS0_10call_stackINS0_15task_io_serviceENS0_27task_io_service_thread_infoEE7contextEED5Ev,comdat
	.align	2
	.weak	_ZN4asio6detail7tss_ptrINS0_10call_stackINS0_15task_io_serviceENS0_27task_io_service_thread_infoEE7contextEED2Ev
	.syntax unified
	.arm
	.fpu vfp
	.type	_ZN4asio6detail7tss_ptrINS0_10call_stackINS0_15task_io_serviceENS0_27task_io_service_thread_infoEE7contextEED2Ev, %function
_ZN4asio6detail7tss_ptrINS0_10call_stackINS0_15task_io_serviceENS0_27task_io_service_thread_infoEE7contextEED2Ev:
	.fnstart
.LFB11898:
	@ args = 0, pretend = 0, frame = 0
	@ frame_needed = 0, uses_anonymous_args = 0
	push	{r4, lr}
	mov	r4, r0
	ldr	r0, [r0]
	bl	pthread_key_delete(PLT)
	mov	r0, r4
	pop	{r4, pc}
	.cantunwind
	.fnend
	.size	_ZN4asio6detail7tss_ptrINS0_10call_stackINS0_15task_io_serviceENS0_27task_io_service_thread_infoEE7contextEED2Ev, .-_ZN4asio6detail7tss_ptrINS0_10call_stackINS0_15task_io_serviceENS0_27task_io_service_thread_infoEE7contextEED2Ev
	.weak	_ZN4asio6detail7tss_ptrINS0_10call_stackINS0_15task_io_serviceENS0_27task_io_service_thread_infoEE7contextEED1Ev
	.set	_ZN4asio6detail7tss_ptrINS0_10call_stackINS0_15task_io_serviceENS0_27task_io_service_thread_infoEE7contextEED1Ev,_ZN4asio6detail7tss_ptrINS0_10call_stackINS0_15task_io_serviceENS0_27task_io_service_thread_infoEE7contextEED2Ev
	.section	.text._ZN4asio6detail7tss_ptrINS0_10call_stackINS0_14strand_service11strand_implEhE7contextEED2Ev,"axG",%progbits,_ZN4asio6detail7tss_ptrINS0_10call_stackINS0_14strand_service11strand_implEhE7contextEED5Ev,comdat
	.align	2
	.weak	_ZN4asio6detail7tss_ptrINS0_10call_stackINS0_14strand_service11strand_implEhE7contextEED2Ev
	.syntax unified
	.arm
	.fpu vfp
	.type	_ZN4asio6detail7tss_ptrINS0_10call_stackINS0_14strand_service11strand_implEhE7contextEED2Ev, %function
_ZN4asio6detail7tss_ptrINS0_10call_stackINS0_14strand_service11strand_implEhE7contextEED2Ev:
	.fnstart
.LFB11907:
	@ args = 0, pretend = 0, frame = 0
	@ frame_needed = 0, uses_anonymous_args = 0
	push	{r4, lr}
	mov	r4, r0
	ldr	r0, [r0]
	bl	pthread_key_delete(PLT)
	mov	r0, r4
	pop	{r4, pc}
	.cantunwind
	.fnend
	.size	_ZN4asio6detail7tss_ptrINS0_10call_stackINS0_14strand_service11strand_implEhE7contextEED2Ev, .-_ZN4asio6detail7tss_ptrINS0_10call_stackINS0_14strand_service11strand_implEhE7contextEED2Ev
	.weak	_ZN4asio6detail7tss_ptrINS0_10call_stackINS0_14strand_service11strand_implEhE7contextEED1Ev
	.set	_ZN4asio6detail7tss_ptrINS0_10call_stackINS0_14strand_service11strand_implEhE7contextEED1Ev,_ZN4asio6detail7tss_ptrINS0_10call_stackINS0_14strand_service11strand_implEhE7contextEED2Ev
	.section	.text._ZN4asio6detail15system_categoryD2Ev,"axG",%progbits,_ZN4asio6detail15system_categoryD5Ev,comdat
	.align	2
	.weak	_ZN4asio6detail15system_categoryD2Ev
	.syntax unified
	.arm
	.fpu vfp
	.type	_ZN4asio6detail15system_categoryD2Ev, %function
_ZN4asio6detail15system_categoryD2Ev:
	.fnstart
.LFB11877:
	@ args = 0, pretend = 0, frame = 0
	@ frame_needed = 0, uses_anonymous_args = 0
	ldr	r3, .L198
	ldr	r2, .L198+4
.LPIC25:
	add	r3, pc, r3
	push	{r4, lr}
	mov	r4, r0
	ldr	r3, [r3, r2]
	add	r3, r3, #8
	str	r3, [r0]
	bl	_ZNSt3_V214error_categoryD2Ev(PLT)
	mov	r0, r4
	pop	{r4, pc}
.L199:
	.align	2
.L198:
	.word	_GLOBAL_OFFSET_TABLE_-(.LPIC25+8)
	.word	_ZTVN4asio6detail15system_categoryE(GOT)
	.cantunwind
	.fnend
	.size	_ZN4asio6detail15system_categoryD2Ev, .-_ZN4asio6detail15system_categoryD2Ev
	.weak	_ZN4asio6detail15system_categoryD1Ev
	.set	_ZN4asio6detail15system_categoryD1Ev,_ZN4asio6detail15system_categoryD2Ev
	.section	.text._ZN4asio6detail15system_categoryD0Ev,"axG",%progbits,_ZN4asio6detail15system_categoryD5Ev,comdat
	.align	2
	.weak	_ZN4asio6detail15system_categoryD0Ev
	.syntax unified
	.arm
	.fpu vfp
	.type	_ZN4asio6detail15system_categoryD0Ev, %function
_ZN4asio6detail15system_categoryD0Ev:
	.fnstart
.LFB11879:
	@ args = 0, pretend = 0, frame = 0
	@ frame_needed = 0, uses_anonymous_args = 0
	ldr	r3, .L202
	ldr	r2, .L202+4
.LPIC26:
	add	r3, pc, r3
	push	{r4, lr}
	mov	r4, r0
	ldr	r3, [r3, r2]
	add	r3, r3, #8
	str	r3, [r0]
	bl	_ZNSt3_V214error_categoryD2Ev(PLT)
	mov	r0, r4
	mov	r1, #4
	bl	_ZdlPvj(PLT)
	mov	r0, r4
	pop	{r4, pc}
.L203:
	.align	2
.L202:
	.word	_GLOBAL_OFFSET_TABLE_-(.LPIC26+8)
	.word	_ZTVN4asio6detail15system_categoryE(GOT)
	.cantunwind
	.fnend
	.size	_ZN4asio6detail15system_categoryD0Ev, .-_ZN4asio6detail15system_categoryD0Ev
	.section	.text._ZN4asio5error6detail14netdb_categoryD2Ev,"axG",%progbits,_ZN4asio5error6detail14netdb_categoryD5Ev,comdat
	.align	2
	.weak	_ZN4asio5error6detail14netdb_categoryD2Ev
	.syntax unified
	.arm
	.fpu vfp
	.type	_ZN4asio5error6detail14netdb_categoryD2Ev, %function
_ZN4asio5error6detail14netdb_categoryD2Ev:
	.fnstart
.LFB11873:
	@ args = 0, pretend = 0, frame = 0
	@ frame_needed = 0, uses_anonymous_args = 0
	ldr	r3, .L206
	ldr	r2, .L206+4
.LPIC27:
	add	r3, pc, r3
	push	{r4, lr}
	mov	r4, r0
	ldr	r3, [r3, r2]
	add	r3, r3, #8
	str	r3, [r0]
	bl	_ZNSt3_V214error_categoryD2Ev(PLT)
	mov	r0, r4
	pop	{r4, pc}
.L207:
	.align	2
.L206:
	.word	_GLOBAL_OFFSET_TABLE_-(.LPIC27+8)
	.word	_ZTVN4asio5error6detail14netdb_categoryE(GOT)
	.cantunwind
	.fnend
	.size	_ZN4asio5error6detail14netdb_categoryD2Ev, .-_ZN4asio5error6detail14netdb_categoryD2Ev
	.weak	_ZN4asio5error6detail14netdb_categoryD1Ev
	.set	_ZN4asio5error6detail14netdb_categoryD1Ev,_ZN4asio5error6detail14netdb_categoryD2Ev
	.section	.text._ZN4asio5error6detail14netdb_categoryD0Ev,"axG",%progbits,_ZN4asio5error6detail14netdb_categoryD5Ev,comdat
	.align	2
	.weak	_ZN4asio5error6detail14netdb_categoryD0Ev
	.syntax unified
	.arm
	.fpu vfp
	.type	_ZN4asio5error6detail14netdb_categoryD0Ev, %function
_ZN4asio5error6detail14netdb_categoryD0Ev:
	.fnstart
.LFB11875:
	@ args = 0, pretend = 0, frame = 0
	@ frame_needed = 0, uses_anonymous_args = 0
	ldr	r3, .L210
	ldr	r2, .L210+4
.LPIC28:
	add	r3, pc, r3
	push	{r4, lr}
	mov	r4, r0
	ldr	r3, [r3, r2]
	add	r3, r3, #8
	str	r3, [r0]
	bl	_ZNSt3_V214error_categoryD2Ev(PLT)
	mov	r0, r4
	mov	r1, #4
	bl	_ZdlPvj(PLT)
	mov	r0, r4
	pop	{r4, pc}
.L211:
	.align	2
.L210:
	.word	_GLOBAL_OFFSET_TABLE_-(.LPIC28+8)
	.word	_ZTVN4asio5error6detail14netdb_categoryE(GOT)
	.cantunwind
	.fnend
	.size	_ZN4asio5error6detail14netdb_categoryD0Ev, .-_ZN4asio5error6detail14netdb_categoryD0Ev
	.section	.text._ZN4asio5error6detail17addrinfo_categoryD2Ev,"axG",%progbits,_ZN4asio5error6detail17addrinfo_categoryD5Ev,comdat
	.align	2
	.weak	_ZN4asio5error6detail17addrinfo_categoryD2Ev
	.syntax unified
	.arm
	.fpu vfp
	.type	_ZN4asio5error6detail17addrinfo_categoryD2Ev, %function
_ZN4asio5error6detail17addrinfo_categoryD2Ev:
	.fnstart
.LFB11869:
	@ args = 0, pretend = 0, frame = 0
	@ frame_needed = 0, uses_anonymous_args = 0
	ldr	r3, .L214
	ldr	r2, .L214+4
.LPIC29:
	add	r3, pc, r3
	push	{r4, lr}
	mov	r4, r0
	ldr	r3, [r3, r2]
	add	r3, r3, #8
	str	r3, [r0]
	bl	_ZNSt3_V214error_categoryD2Ev(PLT)
	mov	r0, r4
	pop	{r4, pc}
.L215:
	.align	2
.L214:
	.word	_GLOBAL_OFFSET_TABLE_-(.LPIC29+8)
	.word	_ZTVN4asio5error6detail17addrinfo_categoryE(GOT)
	.cantunwind
	.fnend
	.size	_ZN4asio5error6detail17addrinfo_categoryD2Ev, .-_ZN4asio5error6detail17addrinfo_categoryD2Ev
	.weak	_ZN4asio5error6detail17addrinfo_categoryD1Ev
	.set	_ZN4asio5error6detail17addrinfo_categoryD1Ev,_ZN4asio5error6detail17addrinfo_categoryD2Ev
	.section	.text._ZN4asio5error6detail17addrinfo_categoryD0Ev,"axG",%progbits,_ZN4asio5error6detail17addrinfo_categoryD5Ev,comdat
	.align	2
	.weak	_ZN4asio5error6detail17addrinfo_categoryD0Ev
	.syntax unified
	.arm
	.fpu vfp
	.type	_ZN4asio5error6detail17addrinfo_categoryD0Ev, %function
_ZN4asio5error6detail17addrinfo_categoryD0Ev:
	.fnstart
.LFB11871:
	@ args = 0, pretend = 0, frame = 0
	@ frame_needed = 0, uses_anonymous_args = 0
	ldr	r3, .L218
	ldr	r2, .L218+4
.LPIC30:
	add	r3, pc, r3
	push	{r4, lr}
	mov	r4, r0
	ldr	r3, [r3, r2]
	add	r3, r3, #8
	str	r3, [r0]
	bl	_ZNSt3_V214error_categoryD2Ev(PLT)
	mov	r0, r4
	mov	r1, #4
	bl	_ZdlPvj(PLT)
	mov	r0, r4
	pop	{r4, pc}
.L219:
	.align	2
.L218:
	.word	_GLOBAL_OFFSET_TABLE_-(.LPIC30+8)
	.word	_ZTVN4asio5error6detail17addrinfo_categoryE(GOT)
	.cantunwind
	.fnend
	.size	_ZN4asio5error6detail17addrinfo_categoryD0Ev, .-_ZN4asio5error6detail17addrinfo_categoryD0Ev
	.section	.text._ZN4asio5error6detail13misc_categoryD2Ev,"axG",%progbits,_ZN4asio5error6detail13misc_categoryD5Ev,comdat
	.align	2
	.weak	_ZN4asio5error6detail13misc_categoryD2Ev
	.syntax unified
	.arm
	.fpu vfp
	.type	_ZN4asio5error6detail13misc_categoryD2Ev, %function
_ZN4asio5error6detail13misc_categoryD2Ev:
	.fnstart
.LFB11865:
	@ args = 0, pretend = 0, frame = 0
	@ frame_needed = 0, uses_anonymous_args = 0
	ldr	r3, .L222
	ldr	r2, .L222+4
.LPIC31:
	add	r3, pc, r3
	push	{r4, lr}
	mov	r4, r0
	ldr	r3, [r3, r2]
	add	r3, r3, #8
	str	r3, [r0]
	bl	_ZNSt3_V214error_categoryD2Ev(PLT)
	mov	r0, r4
	pop	{r4, pc}
.L223:
	.align	2
.L222:
	.word	_GLOBAL_OFFSET_TABLE_-(.LPIC31+8)
	.word	_ZTVN4asio5error6detail13misc_categoryE(GOT)
	.cantunwind
	.fnend
	.size	_ZN4asio5error6detail13misc_categoryD2Ev, .-_ZN4asio5error6detail13misc_categoryD2Ev
	.weak	_ZN4asio5error6detail13misc_categoryD1Ev
	.set	_ZN4asio5error6detail13misc_categoryD1Ev,_ZN4asio5error6detail13misc_categoryD2Ev
	.section	.text._ZN4asio5error6detail13misc_categoryD0Ev,"axG",%progbits,_ZN4asio5error6detail13misc_categoryD5Ev,comdat
	.align	2
	.weak	_ZN4asio5error6detail13misc_categoryD0Ev
	.syntax unified
	.arm
	.fpu vfp
	.type	_ZN4asio5error6detail13misc_categoryD0Ev, %function
_ZN4asio5error6detail13misc_categoryD0Ev:
	.fnstart
.LFB11867:
	@ args = 0, pretend = 0, frame = 0
	@ frame_needed = 0, uses_anonymous_args = 0
	ldr	r3, .L226
	ldr	r2, .L226+4
.LPIC32:
	add	r3, pc, r3
	push	{r4, lr}
	mov	r4, r0
	ldr	r3, [r3, r2]
	add	r3, r3, #8
	str	r3, [r0]
	bl	_ZNSt3_V214error_categoryD2Ev(PLT)
	mov	r0, r4
	mov	r1, #4
	bl	_ZdlPvj(PLT)
	mov	r0, r4
	pop	{r4, pc}
.L227:
	.align	2
.L226:
	.word	_GLOBAL_OFFSET_TABLE_-(.LPIC32+8)
	.word	_ZTVN4asio5error6detail13misc_categoryE(GOT)
	.cantunwind
	.fnend
	.size	_ZN4asio5error6detail13misc_categoryD0Ev, .-_ZN4asio5error6detail13misc_categoryD0Ev
	.text
	.align	2
	.syntax unified
	.arm
	.fpu vfp
	.type	_ZN4asio6detail14strand_service7do_postERPNS1_11strand_implEPNS0_25task_io_service_operationEb.isra.77, %function
_ZN4asio6detail14strand_service7do_postERPNS1_11strand_implEPNS0_25task_io_service_operationEb.isra.77:
	.fnstart
.LFB12262:
	@ args = 0, pretend = 0, frame = 16
	@ frame_needed = 0, uses_anonymous_args = 0
	push	{r4, r5, r6, r7, r8, r9, lr}
	mov	r9, r0
	ldr	r0, [r1]
	mov	r5, r1
	sub	sp, sp, #20
	add	r0, r0, #12
	mov	r4, r2
	mov	r8, r3
	bl	pthread_mutex_lock(PLT)
	ldr	r0, [r5]
	ldr	r7, .L267
	ldrb	r6, [r0, #36]	@ zero_extendqisi2
.LPIC33:
	add	r7, pc, r7
	cmp	r6, #0
	beq	.L229
	ldr	r3, [r0, #44]
	mov	r2, #0
	cmp	r3, r2
	str	r2, [r4]
	add	r0, r0, #12
	strne	r4, [r3]
	streq	r4, [r0, #32]
	strne	r4, [r0, #32]
	streq	r4, [r0, #28]
	bl	pthread_mutex_unlock(PLT)
.L228:
	add	sp, sp, #20
	@ sp needed
	pop	{r4, r5, r6, r7, r8, r9, pc}
.L229:
	mov	r3, #1
	strb	r3, [r0, #36]
	add	r0, r0, #12
	bl	pthread_mutex_unlock(PLT)
	ldr	r5, [r5]
	str	r6, [r4]
	ldr	r3, [r5, #52]
	cmp	r3, #0
	strne	r4, [r3]
	streq	r4, [r5, #52]
	strne	r4, [r5, #52]
	streq	r4, [r5, #48]
	ldr	r4, [r9]
	ldrb	r3, [r4, #20]	@ zero_extendqisi2
	orrs	r3, r8, r3
	beq	.L235
	ldr	r3, .L267+4
	ldr	r3, [r7, r3]
	ldr	r0, [r3]
	bl	pthread_getspecific(PLT)
	cmp	r0, #0
	bne	.L261
	b	.L235
.L238:
	ldr	r0, [r0, #8]
	cmp	r0, #0
	beq	.L235
.L261:
	ldr	r3, [r0]
	cmp	r4, r3
	bne	.L238
	ldr	r3, [r0, #4]
	cmp	r3, #0
	beq	.L235
	ldr	r1, [r3, #8]
	ldr	r2, [r3, #12]
	cmp	r1, #0
	add	r2, r2, #1
	mov	r0, #0
	str	r2, [r3, #12]
	str	r0, [r5]
	strne	r5, [r1]
	streq	r5, [r3, #8]
	strne	r5, [r3, #8]
	streq	r5, [r3, #4]
	add	sp, sp, #20
	@ sp needed
	pop	{r4, r5, r6, r7, r8, r9, pc}
.L235:
	add	r3, r4, #124
	mcr	p15, 0, r0, c7, c10, 5
.L263:
	ldrex	r2, [r3]
	add	r2, r2, #1
	strex	r1, r2, [r3]
	cmp	r1, #0
	bne	.L263
	add	r6, r4, #24
	mcr	p15, 0, r0, c7, c10, 5
	mov	r0, r6
	bl	pthread_mutex_lock(PLT)
	ldr	r3, [r4, #132]
	mov	r2, #0
	cmp	r3, r2
	str	r2, [r5]
	strne	r5, [r3]
	ldr	r3, [r4, #96]
	strne	r5, [r4, #132]
	orr	r3, r3, #1
	streq	r5, [r4, #132]
	streq	r5, [r4, #128]
	cmp	r3, #1
	add	r5, r4, #48
	str	r3, [r4, #96]
	beq	.L244
	mov	r0, r6
	bl	pthread_mutex_unlock(PLT)
	mov	r0, r5
	bl	pthread_cond_signal(PLT)
	add	sp, sp, #20
	@ sp needed
	pop	{r4, r5, r6, r7, r8, r9, pc}
.L244:
	ldrb	r1, [r4, #120]	@ zero_extendqisi2
	cmp	r1, #0
	bne	.L246
	ldr	r0, [r4, #104]
	cmp	r0, #0
	beq	.L246
	strb	r3, [r4, #120]
	add	lr, r0, #48
	mov	r4, #-2147483639
	ldr	r2, [r0, #48]
	str	r1, [sp, #4]
	str	r1, [sp, #12]
	mov	r3, sp
	ldr	r0, [r0, #56]
	mov	r1, #3
	str	r4, [sp]
	str	lr, [sp, #8]
	bl	epoll_ctl(PLT)
.L246:
	mov	r0, r6
	bl	pthread_mutex_unlock(PLT)
	b	.L228
.L268:
	.align	2
.L267:
	.word	_GLOBAL_OFFSET_TABLE_-(.LPIC33+8)
	.word	_ZN4asio6detail10call_stackINS0_15task_io_serviceENS0_27task_io_service_thread_infoEE4top_E(GOT)
	.cantunwind
	.fnend
	.size	_ZN4asio6detail14strand_service7do_postERPNS1_11strand_implEPNS0_25task_io_service_operationEb.isra.77, .-_ZN4asio6detail14strand_service7do_postERPNS1_11strand_implEPNS0_25task_io_service_operationEb.isra.77
	.align	2
	.syntax unified
	.arm
	.fpu vfp
	.type	_ZNSt7__cxx1112basic_stringIcSt11char_traitsIcESaIcEE12_M_constructIPcEEvT_S7_St20forward_iterator_tag.isra.145, %function
_ZNSt7__cxx1112basic_stringIcSt11char_traitsIcESaIcEE12_M_constructIPcEEvT_S7_St20forward_iterator_tag.isra.145:
	.fnstart
.LFB12330:
	@ args = 0, pretend = 0, frame = 8
	@ frame_needed = 0, uses_anonymous_args = 0
	cmp	r2, #0
	clz	r3, r1
	lsr	r3, r3, #5
	moveq	r3, #0
	cmp	r3, #0
	push	{r4, r5, r6, lr}
	.save {r4, r5, r6, lr}
	.pad #8
	sub	sp, sp, #8
	beq	.L286
	ldr	r0, .L289
.LPIC34:
	add	r0, pc, r0
	bl	_ZSt19__throw_logic_errorPKc(PLT)
.L286:
	sub	r4, r2, r1
	cmp	r4, #15
	mov	r6, r1
	mov	r5, r0
	str	r4, [sp, #4]
	bhi	.L287
	cmp	r4, #1
	ldr	r0, [r5]
	beq	.L288
	cmp	r4, #0
	bne	.L272
.L274:
	mov	r3, #0
	str	r4, [r5, #4]
	strb	r3, [r0, r4]
	add	sp, sp, #8
	@ sp needed
	pop	{r4, r5, r6, pc}
.L287:
	mov	r2, r3
	add	r1, sp, #4
	bl	_ZNSt7__cxx1112basic_stringIcSt11char_traitsIcESaIcEE9_M_createERjj(PLT)
	ldr	r3, [sp, #4]
	str	r3, [r5, #8]
	str	r0, [r5]
.L272:
	mov	r2, r4
	mov	r1, r6
	bl	memcpy(PLT)
	ldr	r4, [sp, #4]
	ldr	r0, [r5]
	b	.L274
.L288:
	ldrb	r3, [r6]	@ zero_extendqisi2
	strb	r3, [r0]
	ldr	r4, [sp, #4]
	ldr	r0, [r5]
	b	.L274
.L290:
	.align	2
.L289:
	.word	.LC6-(.LPIC34+8)
	.fnend
	.size	_ZNSt7__cxx1112basic_stringIcSt11char_traitsIcESaIcEE12_M_constructIPcEEvT_S7_St20forward_iterator_tag.isra.145, .-_ZNSt7__cxx1112basic_stringIcSt11char_traitsIcESaIcEE12_M_constructIPcEEvT_S7_St20forward_iterator_tag.isra.145
	.set	_ZNSt7__cxx1112basic_stringIcSt11char_traitsIcESaIcEE12_M_constructIPKcEEvT_S8_St20forward_iterator_tag.isra.137,_ZNSt7__cxx1112basic_stringIcSt11char_traitsIcESaIcEE12_M_constructIPcEEvT_S7_St20forward_iterator_tag.isra.145
	.section	.text._ZNSt13__future_base7_ResultIN8opendnp315StackStatisticsEE10_M_destroyEv,"axG",%progbits,_ZNSt13__future_base7_ResultIN8opendnp315StackStatisticsEE10_M_destroyEv,comdat
	.align	2
	.weak	_ZNSt13__future_base7_ResultIN8opendnp315StackStatisticsEE10_M_destroyEv
	.syntax unified
	.arm
	.fpu vfp
	.type	_ZNSt13__future_base7_ResultIN8opendnp315StackStatisticsEE10_M_destroyEv, %function
_ZNSt13__future_base7_ResultIN8opendnp315StackStatisticsEE10_M_destroyEv:
	.fnstart
.LFB12037:
	@ args = 0, pretend = 0, frame = 0
	@ frame_needed = 0, uses_anonymous_args = 0
	ldr	r1, .L294
	ldr	ip, [r0]
	ldr	r2, .L294+4
.LPIC35:
	add	r1, pc, r1
	push	{r4, lr}
	ldr	lr, [ip, #8]
	ldr	r2, [r1, r2]
	cmp	lr, r2
	bne	.L292
	ldr	r3, .L294+8
	mov	r4, r0
	ldr	r3, [r1, r3]
	add	r3, r3, #8
	str	r3, [r0]
	bl	_ZNSt13__future_base12_Result_baseD2Ev(PLT)
	mov	r0, r4
	mov	r1, #52
	pop	{r4, lr}
	b	_ZdlPvj(PLT)
.L292:
	mov	r3, lr
	pop	{r4, lr}
	bx	r3
.L295:
	.align	2
.L294:
	.word	_GLOBAL_OFFSET_TABLE_-(.LPIC35+8)
	.word	_ZNSt13__future_base7_ResultIN8opendnp315StackStatisticsEED0Ev(GOT)
	.word	_ZTVNSt13__future_base7_ResultIN8opendnp315StackStatisticsEEE(GOT)
	.cantunwind
	.fnend
	.size	_ZNSt13__future_base7_ResultIN8opendnp315StackStatisticsEE10_M_destroyEv, .-_ZNSt13__future_base7_ResultIN8opendnp315StackStatisticsEE10_M_destroyEv
	.section	.text._ZNSt13__future_base7_ResultIbE10_M_destroyEv,"axG",%progbits,_ZNSt13__future_base7_ResultIbE10_M_destroyEv,comdat
	.align	2
	.weak	_ZNSt13__future_base7_ResultIbE10_M_destroyEv
	.syntax unified
	.arm
	.fpu vfp
	.type	_ZNSt13__future_base7_ResultIbE10_M_destroyEv, %function
_ZNSt13__future_base7_ResultIbE10_M_destroyEv:
	.fnstart
.LFB12042:
	@ args = 0, pretend = 0, frame = 0
	@ frame_needed = 0, uses_anonymous_args = 0
	ldr	r1, .L299
	ldr	ip, [r0]
	ldr	r2, .L299+4
.LPIC36:
	add	r1, pc, r1
	push	{r4, lr}
	ldr	lr, [ip, #8]
	ldr	r2, [r1, r2]
	cmp	lr, r2
	bne	.L297
	ldr	r3, .L299+8
	mov	r4, r0
	ldr	r3, [r1, r3]
	add	r3, r3, #8
	str	r3, [r0]
	bl	_ZNSt13__future_base12_Result_baseD2Ev(PLT)
	mov	r0, r4
	mov	r1, #12
	pop	{r4, lr}
	b	_ZdlPvj(PLT)
.L297:
	mov	r3, lr
	pop	{r4, lr}
	bx	r3
.L300:
	.align	2
.L299:
	.word	_GLOBAL_OFFSET_TABLE_-(.LPIC36+8)
	.word	_ZNSt13__future_base7_ResultIbED0Ev(GOT)
	.word	_ZTVNSt13__future_base7_ResultIbEE(GOT)
	.cantunwind
	.fnend
	.size	_ZNSt13__future_base7_ResultIbE10_M_destroyEv, .-_ZNSt13__future_base7_ResultIbE10_M_destroyEv
	.section	.text._ZNK4asio6detail15system_category7messageB5cxx11Ei,"axG",%progbits,_ZNK4asio6detail15system_category7messageB5cxx11Ei,comdat
	.align	2
	.weak	_ZNK4asio6detail15system_category7messageB5cxx11Ei
	.syntax unified
	.arm
	.fpu vfp
	.type	_ZNK4asio6detail15system_category7messageB5cxx11Ei, %function
_ZNK4asio6detail15system_category7messageB5cxx11Ei:
	.fnstart
.LFB2504:
	@ args = 0, pretend = 0, frame = 256
	@ frame_needed = 0, uses_anonymous_args = 0
	cmp	r2, #125
	push	{r4, r5, lr}
	.save {r4, r5, lr}
	mov	r4, r0
	.pad #260
	sub	sp, sp, #260
	beq	.L307
	mov	r3, #0
	mov	r1, r3
	mov	r5, r2
	add	r0, sp, #4
	mov	r2, #252
	str	r3, [sp]
	bl	memset(PLT)
	mov	r0, r5
	mov	r2, #256
	mov	r1, sp
	bl	strerror_r(PLT)
	add	r3, r4, #8
	str	r3, [r4]
	subs	r5, r0, #0
	mvneq	r2, #0
	beq	.L304
	bl	strlen(PLT)
	add	r2, r5, r0
.L304:
	mov	r0, r4
	mov	r1, r5
	bl	_ZNSt7__cxx1112basic_stringIcSt11char_traitsIcESaIcEE12_M_constructIPKcEEvT_S8_St20forward_iterator_tag.isra.137(PLT)
	mov	r0, r4
	add	sp, sp, #260
	@ sp needed
	pop	{r4, r5, pc}
.L307:
	ldr	r1, .L308
	add	r3, r0, #8
.LPIC37:
	add	r1, pc, r1
	str	r3, [r0]
	add	r2, r1, #18
	bl	_ZNSt7__cxx1112basic_stringIcSt11char_traitsIcESaIcEE12_M_constructIPKcEEvT_S8_St20forward_iterator_tag.isra.137(PLT)
	mov	r0, r4
	add	sp, sp, #260
	@ sp needed
	pop	{r4, r5, pc}
.L309:
	.align	2
.L308:
	.word	.LC7-(.LPIC37+8)
	.fnend
	.size	_ZNK4asio6detail15system_category7messageB5cxx11Ei, .-_ZNK4asio6detail15system_category7messageB5cxx11Ei
	.section	.text._ZNK4asio5error6detail17addrinfo_category7messageB5cxx11Ei,"axG",%progbits,_ZNK4asio5error6detail17addrinfo_category7messageB5cxx11Ei,comdat
	.align	2
	.weak	_ZNK4asio5error6detail17addrinfo_category7messageB5cxx11Ei
	.syntax unified
	.arm
	.fpu vfp
	.type	_ZNK4asio5error6detail17addrinfo_category7messageB5cxx11Ei, %function
_ZNK4asio5error6detail17addrinfo_category7messageB5cxx11Ei:
	.fnstart
.LFB2531:
	@ args = 0, pretend = 0, frame = 0
	@ frame_needed = 0, uses_anonymous_args = 0
	cmn	r2, #8
	push	{r4, lr}
	.save {r4, lr}
	mov	r4, r0
	beq	.L315
	cmn	r2, #7
	beq	.L316
	ldr	r1, .L317
	add	r3, r0, #8
.LPIC43:
	add	r1, pc, r1
	add	r2, r1, #19
	str	r3, [r0]
	bl	_ZNSt7__cxx1112basic_stringIcSt11char_traitsIcESaIcEE12_M_constructIPKcEEvT_S8_St20forward_iterator_tag.isra.137(PLT)
.L310:
	mov	r0, r4
	pop	{r4, pc}
.L316:
	ldr	r1, .L317+4
	add	r3, r0, #8
.LPIC41:
	add	r1, pc, r1
	str	r3, [r0]
	add	r2, r1, #25
	bl	_ZNSt7__cxx1112basic_stringIcSt11char_traitsIcESaIcEE12_M_constructIPKcEEvT_S8_St20forward_iterator_tag.isra.137(PLT)
	mov	r0, r4
	pop	{r4, pc}
.L315:
	ldr	r1, .L317+8
	add	r3, r0, #8
.LPIC39:
	add	r1, pc, r1
	add	r2, r1, #17
	str	r3, [r0]
	bl	_ZNSt7__cxx1112basic_stringIcSt11char_traitsIcESaIcEE12_M_constructIPKcEEvT_S8_St20forward_iterator_tag.isra.137(PLT)
	b	.L310
.L318:
	.align	2
.L317:
	.word	.LC10-(.LPIC43+8)
	.word	.LC9-(.LPIC41+8)
	.word	.LC8-(.LPIC39+8)
	.fnend
	.size	_ZNK4asio5error6detail17addrinfo_category7messageB5cxx11Ei, .-_ZNK4asio5error6detail17addrinfo_category7messageB5cxx11Ei
	.section	.text._ZNK4asio5error6detail13misc_category7messageB5cxx11Ei,"axG",%progbits,_ZNK4asio5error6detail13misc_category7messageB5cxx11Ei,comdat
	.align	2
	.weak	_ZNK4asio5error6detail13misc_category7messageB5cxx11Ei
	.syntax unified
	.arm
	.fpu vfp
	.type	_ZNK4asio5error6detail13misc_category7messageB5cxx11Ei, %function
_ZNK4asio5error6detail13misc_category7messageB5cxx11Ei:
	.fnstart
.LFB2537:
	@ args = 0, pretend = 0, frame = 0
	@ frame_needed = 0, uses_anonymous_args = 0
	cmp	r2, #1
	push	{r4, lr}
	.save {r4, lr}
	mov	r4, r0
	beq	.L326
	cmp	r2, #2
	beq	.L327
	cmp	r2, #3
	beq	.L328
	cmp	r2, #4
	beq	.L329
	ldr	r1, .L330
	add	r3, r0, #8
.LPIC53:
	add	r1, pc, r1
	add	r2, r1, #15
	str	r3, [r0]
	bl	_ZNSt7__cxx1112basic_stringIcSt11char_traitsIcESaIcEE12_M_constructIPKcEEvT_S8_St20forward_iterator_tag.isra.137(PLT)
.L319:
	mov	r0, r4
	pop	{r4, pc}
.L329:
	ldr	r1, .L330+4
	add	r3, r0, #8
.LPIC51:
	add	r1, pc, r1
	str	r3, [r0]
	add	r2, r1, #57
	bl	_ZNSt7__cxx1112basic_stringIcSt11char_traitsIcESaIcEE12_M_constructIPKcEEvT_S8_St20forward_iterator_tag.isra.137(PLT)
	mov	r0, r4
	pop	{r4, pc}
.L326:
	ldr	r1, .L330+8
	add	r3, r0, #8
.LPIC45:
	add	r1, pc, r1
	add	r2, r1, #12
	str	r3, [r0]
	bl	_ZNSt7__cxx1112basic_stringIcSt11char_traitsIcESaIcEE12_M_constructIPKcEEvT_S8_St20forward_iterator_tag.isra.137(PLT)
	b	.L319
.L327:
	ldr	r1, .L330+12
	add	r3, r0, #8
.LPIC47:
	add	r1, pc, r1
	add	r2, r1, #11
	str	r3, [r0]
	bl	_ZNSt7__cxx1112basic_stringIcSt11char_traitsIcESaIcEE12_M_constructIPKcEEvT_S8_St20forward_iterator_tag.isra.137(PLT)
	b	.L319
.L328:
	ldr	r1, .L330+16
	add	r3, r0, #8
.LPIC49:
	add	r1, pc, r1
	add	r2, r1, #17
	str	r3, [r0]
	bl	_ZNSt7__cxx1112basic_stringIcSt11char_traitsIcESaIcEE12_M_constructIPKcEEvT_S8_St20forward_iterator_tag.isra.137(PLT)
	b	.L319
.L331:
	.align	2
.L330:
	.word	.LC15-(.LPIC53+8)
	.word	.LC14-(.LPIC51+8)
	.word	.LC11-(.LPIC45+8)
	.word	.LC12-(.LPIC47+8)
	.word	.LC13-(.LPIC49+8)
	.fnend
	.size	_ZNK4asio5error6detail13misc_category7messageB5cxx11Ei, .-_ZNK4asio5error6detail13misc_category7messageB5cxx11Ei
	.section	.text._ZNSt23_Sp_counted_ptr_inplaceIN8asiodnp310MasterScanESaIS1_ELN9__gnu_cxx12_Lock_policyE1EE10_M_disposeEv,"axG",%progbits,_ZNSt23_Sp_counted_ptr_inplaceIN8asiodnp310MasterScanESaIS1_ELN9__gnu_cxx12_Lock_policyE1EE10_M_disposeEv,comdat
	.align	2
	.weak	_ZNSt23_Sp_counted_ptr_inplaceIN8asiodnp310MasterScanESaIS1_ELN9__gnu_cxx12_Lock_policyE1EE10_M_disposeEv
	.syntax unified
	.arm
	.fpu vfp
	.type	_ZNSt23_Sp_counted_ptr_inplaceIN8asiodnp310MasterScanESaIS1_ELN9__gnu_cxx12_Lock_policyE1EE10_M_disposeEv, %function
_ZNSt23_Sp_counted_ptr_inplaceIN8asiodnp310MasterScanESaIS1_ELN9__gnu_cxx12_Lock_policyE1EE10_M_disposeEv:
	.fnstart
.LFB11994:
	@ args = 0, pretend = 0, frame = 0
	@ frame_needed = 0, uses_anonymous_args = 0
	push	{r4, r5, r6, lr}
	mov	r5, r0
	ldr	r4, .L357
	ldr	r3, .L357+4
.LPIC55:
	add	r4, pc, r4
	ldr	r6, [r0, #52]
	ldr	r3, [r4, r3]
	cmp	r6, #0
	add	r3, r3, #8
	str	r3, [r0, #36]
	beq	.L334
	ldr	r3, .L357+8
	ldr	r3, [r4, r3]
	cmp	r3, #0
	beq	.L335
	add	r3, r6, #28
	mcr	p15, 0, r0, c7, c10, 5
.L350:
	ldrex	r2, [r3]
	sub	r1, r2, #1
	strex	r0, r1, [r3]
	cmp	r0, #0
	bne	.L350
	cmp	r2, #1
	mcr	p15, 0, r0, c7, c10, 5
	beq	.L356
.L334:
	ldr	r5, [r5, #44]
	cmp	r5, #0
	popeq	{r4, r5, r6, pc}
	ldr	r3, .L357+8
	ldr	r3, [r4, r3]
	cmp	r3, #0
	beq	.L341
	add	r3, r5, #28
	mcr	p15, 0, r0, c7, c10, 5
.L349:
	ldrex	r2, [r3]
	sub	r1, r2, #1
	strex	r0, r1, [r3]
	cmp	r0, #0
	bne	.L349
	cmp	r2, #1
	mcr	p15, 0, r0, c7, c10, 5
	popne	{r4, r5, r6, pc}
	ldr	r3, [r5]
	mov	r0, r5
	ldr	r3, [r3, #8]
	blx	r3
	add	r3, r5, #32
	mcr	p15, 0, r0, c7, c10, 5
	mcr	p15, 0, r0, c7, c10, 5
.L347:
	ldrex	r2, [r3]
	sub	r1, r2, #1
	strex	r0, r1, [r3]
	cmp	r0, #0
	bne	.L347
	mcr	p15, 0, r0, c7, c10, 5
.L346:
	cmp	r2, #1
	popne	{r4, r5, r6, pc}
	ldr	r3, [r5]
	mov	r0, r5
	pop	{r4, r5, r6, lr}
	ldr	r3, [r3, #12]
	bx	r3	@ indirect register sibling call
.L335:
	ldr	r3, [r6, #28]
	cmp	r3, #1
	sub	r3, r3, #1
	str	r3, [r6, #28]
	bne	.L334
	ldr	r3, [r6]
	mov	r0, r6
	ldr	r3, [r3, #8]
	blx	r3
	mcr	p15, 0, r0, c7, c10, 5
	ldr	r2, [r6, #32]
	sub	r3, r2, #1
	str	r3, [r6, #32]
	b	.L345
.L341:
	ldr	r3, [r5, #28]
	cmp	r3, #1
	sub	r3, r3, #1
	str	r3, [r5, #28]
	popne	{r4, r5, r6, pc}
	ldr	r3, [r5]
	mov	r0, r5
	ldr	r3, [r3, #8]
	blx	r3
	mcr	p15, 0, r0, c7, c10, 5
	ldr	r2, [r5, #32]
	sub	r3, r2, #1
	str	r3, [r5, #32]
	b	.L346
.L356:
	ldr	r3, [r6]
	mov	r0, r6
	ldr	r3, [r3, #8]
	blx	r3
	add	r3, r6, #32
	mcr	p15, 0, r0, c7, c10, 5
	mcr	p15, 0, r0, c7, c10, 5
.L348:
	ldrex	r2, [r3]
	sub	r1, r2, #1
	strex	r0, r1, [r3]
	cmp	r0, #0
	bne	.L348
	mcr	p15, 0, r0, c7, c10, 5
.L345:
	cmp	r2, #1
	bne	.L334
	ldr	r3, [r6]
	mov	r0, r6
	ldr	r3, [r3, #12]
	blx	r3
	b	.L334
.L358:
	.align	2
.L357:
	.word	_GLOBAL_OFFSET_TABLE_-(.LPIC55+8)
	.word	_ZTVN8asiodnp310MasterScanE(GOT)
	.word	_ZL28__gthrw___pthread_key_createPjPFvPvE(GOT)
	.cantunwind
	.fnend
	.size	_ZNSt23_Sp_counted_ptr_inplaceIN8asiodnp310MasterScanESaIS1_ELN9__gnu_cxx12_Lock_policyE1EE10_M_disposeEv, .-_ZNSt23_Sp_counted_ptr_inplaceIN8asiodnp310MasterScanESaIS1_ELN9__gnu_cxx12_Lock_policyE1EE10_M_disposeEv
	.section	.text._ZNK4asio5error6detail14netdb_category7messageB5cxx11Ei,"axG",%progbits,_ZNK4asio5error6detail14netdb_category7messageB5cxx11Ei,comdat
	.align	2
	.weak	_ZNK4asio5error6detail14netdb_category7messageB5cxx11Ei
	.syntax unified
	.arm
	.fpu vfp
	.type	_ZNK4asio5error6detail14netdb_category7messageB5cxx11Ei, %function
_ZNK4asio5error6detail14netdb_category7messageB5cxx11Ei:
	.fnstart
.LFB2525:
	@ args = 0, pretend = 0, frame = 0
	@ frame_needed = 0, uses_anonymous_args = 0
	cmp	r2, #1
	push	{r4, lr}
	.save {r4, lr}
	mov	r4, r0
	beq	.L366
	cmp	r2, #2
	beq	.L367
	cmp	r2, #4
	beq	.L368
	cmp	r2, #3
	beq	.L369
	ldr	r1, .L370
	add	r3, r0, #8
.LPIC64:
	add	r1, pc, r1
	add	r2, r1, #16
	str	r3, [r0]
	bl	_ZNSt7__cxx1112basic_stringIcSt11char_traitsIcESaIcEE12_M_constructIPKcEEvT_S8_St20forward_iterator_tag.isra.137(PLT)
.L359:
	mov	r0, r4
	pop	{r4, pc}
.L369:
	ldr	r1, .L370+4
	add	r3, r0, #8
.LPIC62:
	add	r1, pc, r1
	str	r3, [r0]
	add	r2, r1, #55
	bl	_ZNSt7__cxx1112basic_stringIcSt11char_traitsIcESaIcEE12_M_constructIPKcEEvT_S8_St20forward_iterator_tag.isra.137(PLT)
	mov	r0, r4
	pop	{r4, pc}
.L366:
	ldr	r1, .L370+8
	add	r3, r0, #8
.LPIC56:
	add	r1, pc, r1
	add	r2, r1, #30
	str	r3, [r0]
	bl	_ZNSt7__cxx1112basic_stringIcSt11char_traitsIcESaIcEE12_M_constructIPKcEEvT_S8_St20forward_iterator_tag.isra.137(PLT)
	b	.L359
.L367:
	ldr	r1, .L370+12
	add	r3, r0, #8
.LPIC58:
	add	r1, pc, r1
	add	r2, r1, #51
	str	r3, [r0]
	bl	_ZNSt7__cxx1112basic_stringIcSt11char_traitsIcESaIcEE12_M_constructIPKcEEvT_S8_St20forward_iterator_tag.isra.137(PLT)
	b	.L359
.L368:
	ldr	r1, .L370+16
	add	r3, r0, #8
.LPIC60:
	add	r1, pc, r1
	add	r2, r1, #56
	str	r3, [r0]
	bl	_ZNSt7__cxx1112basic_stringIcSt11char_traitsIcESaIcEE12_M_constructIPKcEEvT_S8_St20forward_iterator_tag.isra.137(PLT)
	b	.L359
.L371:
	.align	2
.L370:
	.word	.LC20-(.LPIC64+8)
	.word	.LC19-(.LPIC62+8)
	.word	.LC16-(.LPIC56+8)
	.word	.LC17-(.LPIC58+8)
	.word	.LC18-(.LPIC60+8)
	.fnend
	.size	_ZNK4asio5error6detail14netdb_category7messageB5cxx11Ei, .-_ZNK4asio5error6detail14netdb_category7messageB5cxx11Ei
	.section	.text.unlikely,"ax",%progbits
	.align	2
	.syntax unified
	.arm
	.fpu vfp
	.type	_ZZN8asiodnp311MasterStack6DemandERKSt10shared_ptrIN8opendnp311IMasterTaskEEENUlvE_D2Ev, %function
_ZZN8asiodnp311MasterStack6DemandERKSt10shared_ptrIN8opendnp311IMasterTaskEEENUlvE_D2Ev:
	.fnstart
.LFB8098:
	@ args = 0, pretend = 0, frame = 0
	@ frame_needed = 0, uses_anonymous_args = 0
	push	{r4, r5, r6, lr}
	mov	r5, r0
	ldr	r4, [r0, #12]
	ldr	r6, .L395
	cmp	r4, #0
.LPIC66:
	add	r6, pc, r6
	beq	.L374
	ldr	r3, .L395+4
	ldr	r3, [r6, r3]
	cmp	r3, #0
	beq	.L375
	add	r3, r4, #28
	mcr	p15, 0, r0, c7, c10, 5
.L391:
	ldrex	r2, [r3]
	sub	r1, r2, #1
	strex	r0, r1, [r3]
	cmp	r0, #0
	bne	.L391
	cmp	r2, #1
	mcr	p15, 0, r0, c7, c10, 5
	bne	.L374
	b	.L393
.L375:
	ldr	r3, [r4, #28]
	cmp	r3, #1
	sub	r3, r3, #1
	str	r3, [r4, #28]
	bne	.L374
	b	.L394
.L393:
	ldr	r3, [r4]
	mov	r0, r4
	ldr	r3, [r3, #8]
	blx	r3
	add	r2, r4, #32
	mcr	p15, 0, r0, c7, c10, 5
	mcr	p15, 0, r0, c7, c10, 5
.L389:
	ldrex	r3, [r2]
	sub	r1, r3, #1
	strex	r0, r1, [r2]
	cmp	r0, #0
	bne	.L389
	mcr	p15, 0, r0, c7, c10, 5
.L385:
	cmp	r3, #1
	bne	.L374
	ldr	r3, [r4]
	mov	r0, r4
	ldr	r3, [r3, #12]
	blx	r3
.L374:
	ldr	r4, [r5, #4]
	cmp	r4, #0
	beq	.L387
	ldr	r3, .L395+4
	ldr	r3, [r6, r3]
	cmp	r3, #0
	beq	.L381
	add	r3, r4, #28
	mcr	p15, 0, r0, c7, c10, 5
.L390:
	ldrex	r2, [r3]
	sub	r1, r2, #1
	strex	r0, r1, [r3]
	cmp	r0, #0
	bne	.L390
	cmp	r2, #1
	mcr	p15, 0, r0, c7, c10, 5
	bne	.L387
	ldr	r3, [r4]
	mov	r0, r4
	ldr	r3, [r3, #8]
	blx	r3
	mcr	p15, 0, r0, c7, c10, 5
	add	r2, r4, #32
	mcr	p15, 0, r0, c7, c10, 5
	b	.L388
.L381:
	ldr	r3, [r4, #28]
	cmp	r3, #1
	sub	r3, r3, #1
	str	r3, [r4, #28]
	bne	.L387
	ldr	r3, [r4]
	mov	r0, r4
	ldr	r3, [r3, #8]
	blx	r3
	mcr	p15, 0, r0, c7, c10, 5
	ldr	r3, [r4, #32]
	sub	r2, r3, #1
	str	r2, [r4, #32]
.L386:
	cmp	r3, #1
	bne	.L387
	ldr	r3, [r4]
	mov	r0, r4
	ldr	r3, [r3, #12]
	blx	r3
	b	.L387
.L394:
	ldr	r3, [r4]
	mov	r0, r4
	ldr	r3, [r3, #8]
	blx	r3
	mcr	p15, 0, r0, c7, c10, 5
	ldr	r3, [r4, #32]
	sub	r2, r3, #1
	str	r2, [r4, #32]
	b	.L385
.L388:
	ldrex	r3, [r2]
	sub	r1, r3, #1
	strex	r0, r1, [r2]
	cmp	r0, #0
	bne	.L388
	mcr	p15, 0, r0, c7, c10, 5
	b	.L386
.L387:
	mov	r0, r5
	pop	{r4, r5, r6, pc}
.L396:
	.align	2
.L395:
	.word	_GLOBAL_OFFSET_TABLE_-(.LPIC66+8)
	.word	_ZL28__gthrw___pthread_key_createPjPFvPvE(GOT)
	.cantunwind
	.fnend
	.size	_ZZN8asiodnp311MasterStack6DemandERKSt10shared_ptrIN8opendnp311IMasterTaskEEENUlvE_D2Ev, .-_ZZN8asiodnp311MasterStack6DemandERKSt10shared_ptrIN8opendnp311IMasterTaskEEENUlvE_D2Ev
	.set	_ZZN8asiodnp311MasterStack6DemandERKSt10shared_ptrIN8opendnp311IMasterTaskEEENUlvE_D1Ev,_ZZN8asiodnp311MasterStack6DemandERKSt10shared_ptrIN8opendnp311IMasterTaskEEENUlvE_D2Ev
	.align	2
	.syntax unified
	.arm
	.fpu vfp
	.type	_ZZN8asiodnp311MasterStack7AddScanEN7openpal12TimeDurationERKSt6vectorIN8opendnp36HeaderESaIS5_EERKNS4_10TaskConfigEENUlvE_D2Ev, %function
_ZZN8asiodnp311MasterStack7AddScanEN7openpal12TimeDurationERKSt6vectorIN8opendnp36HeaderESaIS5_EERKNS4_10TaskConfigEENUlvE_D2Ev:
	.fnstart
.LFB8117:
	@ args = 0, pretend = 0, frame = 0
	@ frame_needed = 0, uses_anonymous_args = 0
	ldr	r3, [r0, #16]
	push	{r4, r5, r6, lr}
	.save {r4, r5, r6, lr}
	cmp	r3, #0
	ldr	r6, .L413
	mov	r5, r0
.LPIC67:
	add	r6, pc, r6
	beq	.L398
	add	r1, r0, #8
	mov	r0, r1
	mov	r2, #3
	blx	r3
.L398:
	ldr	r4, [r5, #4]
	cmp	r4, #0
	beq	.L407
	ldr	r3, .L413+4
	ldr	r3, [r6, r3]
	cmp	r3, #0
	beq	.L401
	add	r3, r4, #28
	mcr	p15, 0, r0, c7, c10, 5
.L411:
	ldrex	r2, [r3]
	sub	r1, r2, #1
	strex	r0, r1, [r3]
	cmp	r0, #0
	bne	.L411
	cmp	r2, #1
	mcr	p15, 0, r0, c7, c10, 5
	bne	.L407
	ldr	r3, [r4]
	mov	r0, r4
	ldr	r3, [r3, #8]
	blx	r3
	mcr	p15, 0, r0, c7, c10, 5
	add	r2, r4, #32
	mcr	p15, 0, r0, c7, c10, 5
	b	.L410
.L401:
	ldr	r3, [r4, #28]
	cmp	r3, #1
	sub	r3, r3, #1
	str	r3, [r4, #28]
	bne	.L407
	ldr	r3, [r4]
	mov	r0, r4
	ldr	r3, [r3, #8]
	blx	r3
	mcr	p15, 0, r0, c7, c10, 5
	ldr	r3, [r4, #32]
	sub	r2, r3, #1
	str	r2, [r4, #32]
.L405:
	cmp	r3, #1
	bne	.L407
	ldr	r3, [r4]
	mov	r0, r4
	ldr	r3, [r3, #12]
	blx	r3
	b	.L407
.L410:
	ldrex	r3, [r2]
	sub	r1, r3, #1
	strex	r0, r1, [r2]
	cmp	r0, #0
	bne	.L410
	mcr	p15, 0, r0, c7, c10, 5
	b	.L405
.L407:
	mov	r0, r5
	pop	{r4, r5, r6, pc}
.L414:
	.align	2
.L413:
	.word	_GLOBAL_OFFSET_TABLE_-(.LPIC67+8)
	.word	_ZL28__gthrw___pthread_key_createPjPFvPvE(GOT)
	.personality	__gxx_personality_v0
	.handlerdata
.LLSDA8117:
	.byte	0xff
	.byte	0xff
	.byte	0x1
	.uleb128 .LLSDACSE8117-.LLSDACSB8117
.LLSDACSB8117:
.LLSDACSE8117:
	.section	.text.unlikely
	.fnend
	.size	_ZZN8asiodnp311MasterStack7AddScanEN7openpal12TimeDurationERKSt6vectorIN8opendnp36HeaderESaIS5_EERKNS4_10TaskConfigEENUlvE_D2Ev, .-_ZZN8asiodnp311MasterStack7AddScanEN7openpal12TimeDurationERKSt6vectorIN8opendnp36HeaderESaIS5_EERKNS4_10TaskConfigEENUlvE_D2Ev
	.set	_ZZN8asiodnp311MasterStack7AddScanEN7openpal12TimeDurationERKSt6vectorIN8opendnp36HeaderESaIS5_EERKNS4_10TaskConfigEENUlvE_D1Ev,_ZZN8asiodnp311MasterStack7AddScanEN7openpal12TimeDurationERKSt6vectorIN8opendnp36HeaderESaIS5_EERKNS4_10TaskConfigEENUlvE_D2Ev
	.align	2
	.syntax unified
	.arm
	.fpu vfp
	.type	_ZZN8asiodnp311MasterStack7RestartEN8opendnp311RestartTypeERKSt8functionIFvRKNS1_22RestartOperationResultEEENS1_10TaskConfigEENUlvE_D2Ev, %function
_ZZN8asiodnp311MasterStack7RestartEN8opendnp311RestartTypeERKSt8functionIFvRKNS1_22RestartOperationResultEEENS1_10TaskConfigEENUlvE_D2Ev:
	.fnstart
.LFB8219:
	@ args = 0, pretend = 0, frame = 0
	@ frame_needed = 0, uses_anonymous_args = 0
	ldr	r3, [r0, #20]
	push	{r4, r5, r6, lr}
	.save {r4, r5, r6, lr}
	cmp	r3, #0
	ldr	r6, .L431
	mov	r5, r0
.LPIC68:
	add	r6, pc, r6
	beq	.L416
	add	r1, r0, #12
	mov	r0, r1
	mov	r2, #3
	blx	r3
.L416:
	ldr	r4, [r5, #4]
	cmp	r4, #0
	beq	.L425
	ldr	r3, .L431+4
	ldr	r3, [r6, r3]
	cmp	r3, #0
	beq	.L419
	add	r3, r4, #28
	mcr	p15, 0, r0, c7, c10, 5
.L429:
	ldrex	r2, [r3]
	sub	r1, r2, #1
	strex	r0, r1, [r3]
	cmp	r0, #0
	bne	.L429
	cmp	r2, #1
	mcr	p15, 0, r0, c7, c10, 5
	bne	.L425
	ldr	r3, [r4]
	mov	r0, r4
	ldr	r3, [r3, #8]
	blx	r3
	mcr	p15, 0, r0, c7, c10, 5
	add	r2, r4, #32
	mcr	p15, 0, r0, c7, c10, 5
	b	.L428
.L419:
	ldr	r3, [r4, #28]
	cmp	r3, #1
	sub	r3, r3, #1
	str	r3, [r4, #28]
	bne	.L425
	ldr	r3, [r4]
	mov	r0, r4
	ldr	r3, [r3, #8]
	blx	r3
	mcr	p15, 0, r0, c7, c10, 5
	ldr	r3, [r4, #32]
	sub	r2, r3, #1
	str	r2, [r4, #32]
.L423:
	cmp	r3, #1
	bne	.L425
	ldr	r3, [r4]
	mov	r0, r4
	ldr	r3, [r3, #12]
	blx	r3
	b	.L425
.L428:
	ldrex	r3, [r2]
	sub	r1, r3, #1
	strex	r0, r1, [r2]
	cmp	r0, #0
	bne	.L428
	mcr	p15, 0, r0, c7, c10, 5
	b	.L423
.L425:
	mov	r0, r5
	pop	{r4, r5, r6, pc}
.L432:
	.align	2
.L431:
	.word	_GLOBAL_OFFSET_TABLE_-(.LPIC68+8)
	.word	_ZL28__gthrw___pthread_key_createPjPFvPvE(GOT)
	.personality	__gxx_personality_v0
	.handlerdata
.LLSDA8219:
	.byte	0xff
	.byte	0xff
	.byte	0x1
	.uleb128 .LLSDACSE8219-.LLSDACSB8219
.LLSDACSB8219:
.LLSDACSE8219:
	.section	.text.unlikely
	.fnend
	.size	_ZZN8asiodnp311MasterStack7RestartEN8opendnp311RestartTypeERKSt8functionIFvRKNS1_22RestartOperationResultEEENS1_10TaskConfigEENUlvE_D2Ev, .-_ZZN8asiodnp311MasterStack7RestartEN8opendnp311RestartTypeERKSt8functionIFvRKNS1_22RestartOperationResultEEENS1_10TaskConfigEENUlvE_D2Ev
	.set	_ZZN8asiodnp311MasterStack7RestartEN8opendnp311RestartTypeERKSt8functionIFvRKNS1_22RestartOperationResultEEENS1_10TaskConfigEENUlvE_D1Ev,_ZZN8asiodnp311MasterStack7RestartEN8opendnp311RestartTypeERKSt8functionIFvRKNS1_22RestartOperationResultEEENS1_10TaskConfigEENUlvE_D2Ev
	.align	2
	.syntax unified
	.arm
	.fpu vfp
	.type	_ZZN8asiodnp311MasterStack4ScanERKSt6vectorIN8opendnp36HeaderESaIS3_EERKNS2_10TaskConfigEENUlvE_D2Ev, %function
_ZZN8asiodnp311MasterStack4ScanERKSt6vectorIN8opendnp36HeaderESaIS3_EERKNS2_10TaskConfigEENUlvE_D2Ev:
	.fnstart
.LFB8176:
	@ args = 0, pretend = 0, frame = 0
	@ frame_needed = 0, uses_anonymous_args = 0
	ldr	r3, [r0, #16]
	push	{r4, r5, r6, lr}
	.save {r4, r5, r6, lr}
	cmp	r3, #0
	ldr	r6, .L449
	mov	r5, r0
.LPIC69:
	add	r6, pc, r6
	beq	.L434
	add	r1, r0, #8
	mov	r0, r1
	mov	r2, #3
	blx	r3
.L434:
	ldr	r4, [r5, #4]
	cmp	r4, #0
	beq	.L443
	ldr	r3, .L449+4
	ldr	r3, [r6, r3]
	cmp	r3, #0
	beq	.L437
	add	r3, r4, #28
	mcr	p15, 0, r0, c7, c10, 5
.L447:
	ldrex	r2, [r3]
	sub	r1, r2, #1
	strex	r0, r1, [r3]
	cmp	r0, #0
	bne	.L447
	cmp	r2, #1
	mcr	p15, 0, r0, c7, c10, 5
	bne	.L443
	ldr	r3, [r4]
	mov	r0, r4
	ldr	r3, [r3, #8]
	blx	r3
	mcr	p15, 0, r0, c7, c10, 5
	add	r2, r4, #32
	mcr	p15, 0, r0, c7, c10, 5
	b	.L446
.L437:
	ldr	r3, [r4, #28]
	cmp	r3, #1
	sub	r3, r3, #1
	str	r3, [r4, #28]
	bne	.L443
	ldr	r3, [r4]
	mov	r0, r4
	ldr	r3, [r3, #8]
	blx	r3
	mcr	p15, 0, r0, c7, c10, 5
	ldr	r3, [r4, #32]
	sub	r2, r3, #1
	str	r2, [r4, #32]
.L441:
	cmp	r3, #1
	bne	.L443
	ldr	r3, [r4]
	mov	r0, r4
	ldr	r3, [r3, #12]
	blx	r3
	b	.L443
.L446:
	ldrex	r3, [r2]
	sub	r1, r3, #1
	strex	r0, r1, [r2]
	cmp	r0, #0
	bne	.L446
	mcr	p15, 0, r0, c7, c10, 5
	b	.L441
.L443:
	mov	r0, r5
	pop	{r4, r5, r6, pc}
.L450:
	.align	2
.L449:
	.word	_GLOBAL_OFFSET_TABLE_-(.LPIC69+8)
	.word	_ZL28__gthrw___pthread_key_createPjPFvPvE(GOT)
	.personality	__gxx_personality_v0
	.handlerdata
.LLSDA8176:
	.byte	0xff
	.byte	0xff
	.byte	0x1
	.uleb128 .LLSDACSE8176-.LLSDACSB8176
.LLSDACSB8176:
.LLSDACSE8176:
	.section	.text.unlikely
	.fnend
	.size	_ZZN8asiodnp311MasterStack4ScanERKSt6vectorIN8opendnp36HeaderESaIS3_EERKNS2_10TaskConfigEENUlvE_D2Ev, .-_ZZN8asiodnp311MasterStack4ScanERKSt6vectorIN8opendnp36HeaderESaIS3_EERKNS2_10TaskConfigEENUlvE_D2Ev
	.set	_ZZN8asiodnp311MasterStack4ScanERKSt6vectorIN8opendnp36HeaderESaIS3_EERKNS2_10TaskConfigEENUlvE_D1Ev,_ZZN8asiodnp311MasterStack4ScanERKSt6vectorIN8opendnp36HeaderESaIS3_EERKNS2_10TaskConfigEENUlvE_D2Ev
	.align	2
	.syntax unified
	.arm
	.fpu vfp
	.type	_ZZN8asiodnp311MasterStack15PerformFunctionERKNSt7__cxx1112basic_stringIcSt11char_traitsIcESaIcEEEN8opendnp312FunctionCodeERKSt6vectorINS9_6HeaderESaISC_EERKNS9_10TaskConfigEENUlvE_D2Ev, %function
_ZZN8asiodnp311MasterStack15PerformFunctionERKNSt7__cxx1112basic_stringIcSt11char_traitsIcESaIcEEEN8opendnp312FunctionCodeERKSt6vectorINS9_6HeaderESaISC_EERKNS9_10TaskConfigEENUlvE_D2Ev:
	.fnstart
.LFB8227:
	@ args = 0, pretend = 0, frame = 0
	@ frame_needed = 0, uses_anonymous_args = 0
	ldr	r3, [r0, #44]
	push	{r4, r5, r6, lr}
	.save {r4, r5, r6, lr}
	cmp	r3, #0
	ldr	r6, .L468
	mov	r5, r0
.LPIC70:
	add	r6, pc, r6
	beq	.L452
	add	r1, r0, #36
	mov	r0, r1
	mov	r2, #3
	blx	r3
.L452:
	mov	r3, r5
	ldr	r0, [r3, #8]!
	add	r3, r3, #8
	cmp	r0, r3
	beq	.L453
	bl	_ZdlPv(PLT)
.L453:
	ldr	r4, [r5, #4]
	cmp	r4, #0
	beq	.L462
	ldr	r3, .L468+4
	ldr	r3, [r6, r3]
	cmp	r3, #0
	beq	.L456
	add	r3, r4, #28
	mcr	p15, 0, r0, c7, c10, 5
.L466:
	ldrex	r2, [r3]
	sub	r1, r2, #1
	strex	r0, r1, [r3]
	cmp	r0, #0
	bne	.L466
	cmp	r2, #1
	mcr	p15, 0, r0, c7, c10, 5
	bne	.L462
	ldr	r3, [r4]
	mov	r0, r4
	ldr	r3, [r3, #8]
	blx	r3
	mcr	p15, 0, r0, c7, c10, 5
	add	r2, r4, #32
	mcr	p15, 0, r0, c7, c10, 5
	b	.L465
.L456:
	ldr	r3, [r4, #28]
	cmp	r3, #1
	sub	r3, r3, #1
	str	r3, [r4, #28]
	bne	.L462
	ldr	r3, [r4]
	mov	r0, r4
	ldr	r3, [r3, #8]
	blx	r3
	mcr	p15, 0, r0, c7, c10, 5
	ldr	r3, [r4, #32]
	sub	r2, r3, #1
	str	r2, [r4, #32]
.L460:
	cmp	r3, #1
	bne	.L462
	ldr	r3, [r4]
	mov	r0, r4
	ldr	r3, [r3, #12]
	blx	r3
	b	.L462
.L465:
	ldrex	r3, [r2]
	sub	r1, r3, #1
	strex	r0, r1, [r2]
	cmp	r0, #0
	bne	.L465
	mcr	p15, 0, r0, c7, c10, 5
	b	.L460
.L462:
	mov	r0, r5
	pop	{r4, r5, r6, pc}
.L469:
	.align	2
.L468:
	.word	_GLOBAL_OFFSET_TABLE_-(.LPIC70+8)
	.word	_ZL28__gthrw___pthread_key_createPjPFvPvE(GOT)
	.personality	__gxx_personality_v0
	.handlerdata
.LLSDA8227:
	.byte	0xff
	.byte	0xff
	.byte	0x1
	.uleb128 .LLSDACSE8227-.LLSDACSB8227
.LLSDACSB8227:
.LLSDACSE8227:
	.section	.text.unlikely
	.fnend
	.size	_ZZN8asiodnp311MasterStack15PerformFunctionERKNSt7__cxx1112basic_stringIcSt11char_traitsIcESaIcEEEN8opendnp312FunctionCodeERKSt6vectorINS9_6HeaderESaISC_EERKNS9_10TaskConfigEENUlvE_D2Ev, .-_ZZN8asiodnp311MasterStack15PerformFunctionERKNSt7__cxx1112basic_stringIcSt11char_traitsIcESaIcEEEN8opendnp312FunctionCodeERKSt6vectorINS9_6HeaderESaISC_EERKNS9_10TaskConfigEENUlvE_D2Ev
	.set	_ZZN8asiodnp311MasterStack15PerformFunctionERKNSt7__cxx1112basic_stringIcSt11char_traitsIcESaIcEEEN8opendnp312FunctionCodeERKSt6vectorINS9_6HeaderESaISC_EERKNS9_10TaskConfigEENUlvE_D1Ev,_ZZN8asiodnp311MasterStack15PerformFunctionERKNSt7__cxx1112basic_stringIcSt11char_traitsIcESaIcEEEN8opendnp312FunctionCodeERKSt6vectorINS9_6HeaderESaISC_EERKNS9_10TaskConfigEENUlvE_D2Ev
	.section	.text._ZNSt13__future_base7_ResultISt10shared_ptrIN8opendnp311IMasterTaskEEED0Ev,"axG",%progbits,_ZNSt13__future_base7_ResultISt10shared_ptrIN8opendnp311IMasterTaskEEED5Ev,comdat
	.align	2
	.weak	_ZNSt13__future_base7_ResultISt10shared_ptrIN8opendnp311IMasterTaskEEED0Ev
	.syntax unified
	.arm
	.fpu vfp
	.type	_ZNSt13__future_base7_ResultISt10shared_ptrIN8opendnp311IMasterTaskEEED0Ev, %function
_ZNSt13__future_base7_ResultISt10shared_ptrIN8opendnp311IMasterTaskEEED0Ev:
	.fnstart
.LFB12036:
	@ args = 0, pretend = 0, frame = 0
	@ frame_needed = 0, uses_anonymous_args = 0
	ldr	r2, .L489
	ldr	r3, .L489+4
.LPIC71:
	add	r2, pc, r2
	ldrb	r1, [r0, #16]	@ zero_extendqisi2
	push	{r4, r5, r6, lr}
	mov	r4, r0
	ldr	r3, [r2, r3]
	cmp	r1, #0
	add	r3, r3, #8
	str	r3, [r0]
	beq	.L471
	ldr	r5, [r0, #12]
	cmp	r5, #0
	beq	.L471
	ldr	r3, .L489+8
	ldr	r3, [r2, r3]
	cmp	r3, #0
	beq	.L474
	add	r3, r5, #28
	mcr	p15, 0, r0, c7, c10, 5
.L484:
	ldrex	r2, [r3]
	sub	r1, r2, #1
	strex	r0, r1, [r3]
	cmp	r0, #0
	bne	.L484
	cmp	r2, #1
	mcr	p15, 0, r0, c7, c10, 5
	beq	.L488
.L471:
	mov	r0, r4
	bl	_ZNSt13__future_base12_Result_baseD2Ev(PLT)
	mov	r0, r4
	mov	r1, #20
	bl	_ZdlPvj(PLT)
	mov	r0, r4
	pop	{r4, r5, r6, pc}
.L488:
	ldr	r3, [r5]
	mov	r0, r5
	ldr	r3, [r3, #8]
	blx	r3
	add	r3, r5, #32
	mcr	p15, 0, r0, c7, c10, 5
	mcr	p15, 0, r0, c7, c10, 5
.L483:
	ldrex	r2, [r3]
	sub	r1, r2, #1
	strex	r0, r1, [r3]
	cmp	r0, #0
	bne	.L483
	mcr	p15, 0, r0, c7, c10, 5
.L478:
	cmp	r2, #1
	bne	.L471
	ldr	r3, [r5]
	mov	r0, r5
	ldr	r3, [r3, #12]
	blx	r3
	b	.L471
.L474:
	ldr	r3, [r5, #28]
	cmp	r3, #1
	sub	r3, r3, #1
	str	r3, [r5, #28]
	bne	.L471
	ldr	r3, [r5]
	mov	r0, r5
	ldr	r3, [r3, #8]
	blx	r3
	mcr	p15, 0, r0, c7, c10, 5
	ldr	r2, [r5, #32]
	sub	r3, r2, #1
	str	r3, [r5, #32]
	b	.L478
.L490:
	.align	2
.L489:
	.word	_GLOBAL_OFFSET_TABLE_-(.LPIC71+8)
	.word	_ZTVNSt13__future_base7_ResultISt10shared_ptrIN8opendnp311IMasterTaskEEEE(GOT)
	.word	_ZL28__gthrw___pthread_key_createPjPFvPvE(GOT)
	.cantunwind
	.fnend
	.size	_ZNSt13__future_base7_ResultISt10shared_ptrIN8opendnp311IMasterTaskEEED0Ev, .-_ZNSt13__future_base7_ResultISt10shared_ptrIN8opendnp311IMasterTaskEEED0Ev
	.section	.text.unlikely
	.align	2
	.syntax unified
	.arm
	.fpu vfp
	.type	_ZZN8asiodnp311MasterStack13DirectOperateEON8opendnp310CommandSetERKSt8functionIFvRKNS1_18ICommandTaskResultEEERKNS1_10TaskConfigEENUlvE_D2Ev, %function
_ZZN8asiodnp311MasterStack13DirectOperateEON8opendnp310CommandSetERKSt8functionIFvRKNS1_18ICommandTaskResultEEERKNS1_10TaskConfigEENUlvE_D2Ev:
	.fnstart
.LFB8259:
	@ args = 0, pretend = 0, frame = 0
	@ frame_needed = 0, uses_anonymous_args = 0
	ldr	r3, [r0, #36]
	push	{r4, r5, r6, lr}
	.save {r4, r5, r6, lr}
	cmp	r3, #0
	ldr	r6, .L518
	mov	r5, r0
.LPIC72:
	add	r6, pc, r6
	beq	.L492
	add	r1, r0, #28
	mov	r0, r1
	mov	r2, #3
	blx	r3
.L492:
	ldr	r4, [r5, #12]
	cmp	r4, #0
	beq	.L494
	ldr	r3, .L518+4
	ldr	r3, [r6, r3]
	cmp	r3, #0
	beq	.L495
	add	r3, r4, #28
	mcr	p15, 0, r0, c7, c10, 5
.L514:
	ldrex	r2, [r3]
	sub	r1, r2, #1
	strex	r0, r1, [r3]
	cmp	r0, #0
	bne	.L514
	cmp	r2, #1
	mcr	p15, 0, r0, c7, c10, 5
	bne	.L494
	b	.L516
.L495:
	ldr	r3, [r4, #28]
	cmp	r3, #1
	sub	r3, r3, #1
	str	r3, [r4, #28]
	bne	.L494
	b	.L517
.L516:
	ldr	r3, [r4]
	mov	r0, r4
	ldr	r3, [r3, #8]
	blx	r3
	add	r2, r4, #32
	mcr	p15, 0, r0, c7, c10, 5
	mcr	p15, 0, r0, c7, c10, 5
.L512:
	ldrex	r3, [r2]
	sub	r1, r3, #1
	strex	r0, r1, [r2]
	cmp	r0, #0
	bne	.L512
	mcr	p15, 0, r0, c7, c10, 5
.L505:
	cmp	r3, #1
	bne	.L494
	ldr	r3, [r4]
	mov	r0, r4
	ldr	r3, [r3, #12]
	blx	r3
.L494:
	ldr	r4, [r5, #4]
	cmp	r4, #0
	beq	.L508
	ldr	r3, .L518+4
	ldr	r3, [r6, r3]
	cmp	r3, #0
	beq	.L501
	add	r3, r4, #28
	mcr	p15, 0, r0, c7, c10, 5
.L513:
	ldrex	r2, [r3]
	sub	r1, r2, #1
	strex	r0, r1, [r3]
	cmp	r0, #0
	bne	.L513
	cmp	r2, #1
	mcr	p15, 0, r0, c7, c10, 5
	bne	.L508
	ldr	r3, [r4]
	mov	r0, r4
	ldr	r3, [r3, #8]
	blx	r3
	mcr	p15, 0, r0, c7, c10, 5
	add	r2, r4, #32
	mcr	p15, 0, r0, c7, c10, 5
	b	.L511
.L501:
	ldr	r3, [r4, #28]
	cmp	r3, #1
	sub	r3, r3, #1
	str	r3, [r4, #28]
	bne	.L508
	ldr	r3, [r4]
	mov	r0, r4
	ldr	r3, [r3, #8]
	blx	r3
	mcr	p15, 0, r0, c7, c10, 5
	ldr	r3, [r4, #32]
	sub	r2, r3, #1
	str	r2, [r4, #32]
.L506:
	cmp	r3, #1
	bne	.L508
	ldr	r3, [r4]
	mov	r0, r4
	ldr	r3, [r3, #12]
	blx	r3
	b	.L508
.L517:
	ldr	r3, [r4]
	mov	r0, r4
	ldr	r3, [r3, #8]
	blx	r3
	mcr	p15, 0, r0, c7, c10, 5
	ldr	r3, [r4, #32]
	sub	r2, r3, #1
	str	r2, [r4, #32]
	b	.L505
.L511:
	ldrex	r3, [r2]
	sub	r1, r3, #1
	strex	r0, r1, [r2]
	cmp	r0, #0
	bne	.L511
	mcr	p15, 0, r0, c7, c10, 5
	b	.L506
.L508:
	mov	r0, r5
	pop	{r4, r5, r6, pc}
.L519:
	.align	2
.L518:
	.word	_GLOBAL_OFFSET_TABLE_-(.LPIC72+8)
	.word	_ZL28__gthrw___pthread_key_createPjPFvPvE(GOT)
	.personality	__gxx_personality_v0
	.handlerdata
.LLSDA8259:
	.byte	0xff
	.byte	0xff
	.byte	0x1
	.uleb128 .LLSDACSE8259-.LLSDACSB8259
.LLSDACSB8259:
.LLSDACSE8259:
	.section	.text.unlikely
	.fnend
	.size	_ZZN8asiodnp311MasterStack13DirectOperateEON8opendnp310CommandSetERKSt8functionIFvRKNS1_18ICommandTaskResultEEERKNS1_10TaskConfigEENUlvE_D2Ev, .-_ZZN8asiodnp311MasterStack13DirectOperateEON8opendnp310CommandSetERKSt8functionIFvRKNS1_18ICommandTaskResultEEERKNS1_10TaskConfigEENUlvE_D2Ev
	.set	_ZZN8asiodnp311MasterStack13DirectOperateEON8opendnp310CommandSetERKSt8functionIFvRKNS1_18ICommandTaskResultEEERKNS1_10TaskConfigEENUlvE_D1Ev,_ZZN8asiodnp311MasterStack13DirectOperateEON8opendnp310CommandSetERKSt8functionIFvRKNS1_18ICommandTaskResultEEERKNS1_10TaskConfigEENUlvE_D2Ev
	.align	2
	.syntax unified
	.arm
	.fpu vfp
	.type	_ZZN8asiodnp311MasterStack16SelectAndOperateEON8opendnp310CommandSetERKSt8functionIFvRKNS1_18ICommandTaskResultEEERKNS1_10TaskConfigEENUlvE_D2Ev, %function
_ZZN8asiodnp311MasterStack16SelectAndOperateEON8opendnp310CommandSetERKSt8functionIFvRKNS1_18ICommandTaskResultEEERKNS1_10TaskConfigEENUlvE_D2Ev:
	.fnstart
.LFB8251:
	@ args = 0, pretend = 0, frame = 0
	@ frame_needed = 0, uses_anonymous_args = 0
	ldr	r3, [r0, #36]
	push	{r4, r5, r6, lr}
	.save {r4, r5, r6, lr}
	cmp	r3, #0
	ldr	r6, .L547
	mov	r5, r0
.LPIC73:
	add	r6, pc, r6
	beq	.L521
	add	r1, r0, #28
	mov	r0, r1
	mov	r2, #3
	blx	r3
.L521:
	ldr	r4, [r5, #12]
	cmp	r4, #0
	beq	.L523
	ldr	r3, .L547+4
	ldr	r3, [r6, r3]
	cmp	r3, #0
	beq	.L524
	add	r3, r4, #28
	mcr	p15, 0, r0, c7, c10, 5
.L543:
	ldrex	r2, [r3]
	sub	r1, r2, #1
	strex	r0, r1, [r3]
	cmp	r0, #0
	bne	.L543
	cmp	r2, #1
	mcr	p15, 0, r0, c7, c10, 5
	bne	.L523
	b	.L545
.L524:
	ldr	r3, [r4, #28]
	cmp	r3, #1
	sub	r3, r3, #1
	str	r3, [r4, #28]
	bne	.L523
	b	.L546
.L545:
	ldr	r3, [r4]
	mov	r0, r4
	ldr	r3, [r3, #8]
	blx	r3
	add	r2, r4, #32
	mcr	p15, 0, r0, c7, c10, 5
	mcr	p15, 0, r0, c7, c10, 5
.L541:
	ldrex	r3, [r2]
	sub	r1, r3, #1
	strex	r0, r1, [r2]
	cmp	r0, #0
	bne	.L541
	mcr	p15, 0, r0, c7, c10, 5
.L534:
	cmp	r3, #1
	bne	.L523
	ldr	r3, [r4]
	mov	r0, r4
	ldr	r3, [r3, #12]
	blx	r3
.L523:
	ldr	r4, [r5, #4]
	cmp	r4, #0
	beq	.L537
	ldr	r3, .L547+4
	ldr	r3, [r6, r3]
	cmp	r3, #0
	beq	.L530
	add	r3, r4, #28
	mcr	p15, 0, r0, c7, c10, 5
.L542:
	ldrex	r2, [r3]
	sub	r1, r2, #1
	strex	r0, r1, [r3]
	cmp	r0, #0
	bne	.L542
	cmp	r2, #1
	mcr	p15, 0, r0, c7, c10, 5
	bne	.L537
	ldr	r3, [r4]
	mov	r0, r4
	ldr	r3, [r3, #8]
	blx	r3
	mcr	p15, 0, r0, c7, c10, 5
	add	r2, r4, #32
	mcr	p15, 0, r0, c7, c10, 5
	b	.L540
.L530:
	ldr	r3, [r4, #28]
	cmp	r3, #1
	sub	r3, r3, #1
	str	r3, [r4, #28]
	bne	.L537
	ldr	r3, [r4]
	mov	r0, r4
	ldr	r3, [r3, #8]
	blx	r3
	mcr	p15, 0, r0, c7, c10, 5
	ldr	r3, [r4, #32]
	sub	r2, r3, #1
	str	r2, [r4, #32]
.L535:
	cmp	r3, #1
	bne	.L537
	ldr	r3, [r4]
	mov	r0, r4
	ldr	r3, [r3, #12]
	blx	r3
	b	.L537
.L546:
	ldr	r3, [r4]
	mov	r0, r4
	ldr	r3, [r3, #8]
	blx	r3
	mcr	p15, 0, r0, c7, c10, 5
	ldr	r3, [r4, #32]
	sub	r2, r3, #1
	str	r2, [r4, #32]
	b	.L534
.L540:
	ldrex	r3, [r2]
	sub	r1, r3, #1
	strex	r0, r1, [r2]
	cmp	r0, #0
	bne	.L540
	mcr	p15, 0, r0, c7, c10, 5
	b	.L535
.L537:
	mov	r0, r5
	pop	{r4, r5, r6, pc}
.L548:
	.align	2
.L547:
	.word	_GLOBAL_OFFSET_TABLE_-(.LPIC73+8)
	.word	_ZL28__gthrw___pthread_key_createPjPFvPvE(GOT)
	.personality	__gxx_personality_v0
	.handlerdata
.LLSDA8251:
	.byte	0xff
	.byte	0xff
	.byte	0x1
	.uleb128 .LLSDACSE8251-.LLSDACSB8251
.LLSDACSB8251:
.LLSDACSE8251:
	.section	.text.unlikely
	.fnend
	.size	_ZZN8asiodnp311MasterStack16SelectAndOperateEON8opendnp310CommandSetERKSt8functionIFvRKNS1_18ICommandTaskResultEEERKNS1_10TaskConfigEENUlvE_D2Ev, .-_ZZN8asiodnp311MasterStack16SelectAndOperateEON8opendnp310CommandSetERKSt8functionIFvRKNS1_18ICommandTaskResultEEERKNS1_10TaskConfigEENUlvE_D2Ev
	.set	_ZZN8asiodnp311MasterStack16SelectAndOperateEON8opendnp310CommandSetERKSt8functionIFvRKNS1_18ICommandTaskResultEEERKNS1_10TaskConfigEENUlvE_D1Ev,_ZZN8asiodnp311MasterStack16SelectAndOperateEON8opendnp310CommandSetERKSt8functionIFvRKNS1_18ICommandTaskResultEEERKNS1_10TaskConfigEENUlvE_D2Ev
	.align	2
	.syntax unified
	.arm
	.fpu vfp
	.type	_ZN4asio6detail18completion_handlerIZN8asiodnp311MasterStack7RestartEN8opendnp311RestartTypeERKSt8functionIFvRKNS4_22RestartOperationResultEEENS4_10TaskConfigEEUlvE_E3ptr5resetEv, %function
_ZN4asio6detail18completion_handlerIZN8asiodnp311MasterStack7RestartEN8opendnp311RestartTypeERKSt8functionIFvRKNS4_22RestartOperationResultEEENS4_10TaskConfigEEUlvE_E3ptr5resetEv:
	.fnstart
.LFB10913:
	@ args = 0, pretend = 0, frame = 0
	@ frame_needed = 0, uses_anonymous_args = 0
	push	{r4, r5, r6, lr}
	.save {r4, r5, r6, lr}
	mov	r5, r0
	ldr	r4, [r0, #8]
	ldr	r6, .L582
	cmp	r4, #0
.LPIC74:
	add	r6, pc, r6
	beq	.L550
	ldr	r3, [r4, #32]
	cmp	r3, #0
	beq	.L551
	add	r1, r4, #24
	mov	r0, r1
	mov	r2, #3
	blx	r3
.L551:
	ldr	r4, [r4, #16]
	cmp	r4, #0
	beq	.L553
	ldr	r3, .L582+4
	ldr	r3, [r6, r3]
	cmp	r3, #0
	beq	.L554
	add	r3, r4, #28
	mcr	p15, 0, r0, c7, c10, 5
.L578:
	ldrex	r2, [r3]
	sub	r1, r2, #1
	strex	r0, r1, [r3]
	cmp	r0, #0
	bne	.L578
	cmp	r2, #1
	mcr	p15, 0, r0, c7, c10, 5
	bne	.L553
	b	.L580
.L554:
	ldr	r3, [r4, #28]
	cmp	r3, #1
	sub	r3, r3, #1
	str	r3, [r4, #28]
	bne	.L553
	b	.L581
.L580:
	ldr	r3, [r4]
	mov	r0, r4
	ldr	r3, [r3, #8]
	blx	r3
	add	r2, r4, #32
	mcr	p15, 0, r0, c7, c10, 5
	mcr	p15, 0, r0, c7, c10, 5
.L577:
	ldrex	r3, [r2]
	sub	r1, r3, #1
	strex	r0, r1, [r2]
	cmp	r0, #0
	bne	.L577
	mcr	p15, 0, r0, c7, c10, 5
.L561:
	cmp	r3, #1
	bne	.L553
	ldr	r3, [r4]
	mov	r0, r4
	ldr	r3, [r3, #12]
	blx	r3
.L553:
	mov	r3, #0
	str	r3, [r5, #8]
.L550:
	ldr	r4, [r5, #4]
	cmp	r4, #0
	popeq	{r4, r5, r6, pc}
	ldr	r3, .L582+8
	ldr	r3, [r6, r3]
	ldr	r0, [r3]
	bl	pthread_getspecific(PLT)
	cmp	r0, #0
	beq	.L559
	ldr	r3, [r0, #4]
	cmp	r3, #0
	beq	.L559
	ldr	r2, [r3]
	cmp	r2, #0
	ldrbeq	r2, [r4, #52]	@ zero_extendqisi2
	strbeq	r2, [r4]
	streq	r4, [r3]
	beq	.L560
.L559:
	mov	r0, r4
	bl	_ZdlPv(PLT)
.L560:
	mov	r3, #0
	str	r3, [r5, #4]
	pop	{r4, r5, r6, pc}
.L581:
	ldr	r3, [r4]
	mov	r0, r4
	ldr	r3, [r3, #8]
	blx	r3
	mcr	p15, 0, r0, c7, c10, 5
	ldr	r3, [r4, #32]
	sub	r2, r3, #1
	str	r2, [r4, #32]
	b	.L561
.L583:
	.align	2
.L582:
	.word	_GLOBAL_OFFSET_TABLE_-(.LPIC74+8)
	.word	_ZL28__gthrw___pthread_key_createPjPFvPvE(GOT)
	.word	_ZN4asio6detail10call_stackINS0_15task_io_serviceENS0_27task_io_service_thread_infoEE4top_E(GOT)
	.personality	__gxx_personality_v0
	.handlerdata
.LLSDA10913:
	.byte	0xff
	.byte	0xff
	.byte	0x1
	.uleb128 .LLSDACSE10913-.LLSDACSB10913
.LLSDACSB10913:
.LLSDACSE10913:
	.section	.text.unlikely
	.fnend
	.size	_ZN4asio6detail18completion_handlerIZN8asiodnp311MasterStack7RestartEN8opendnp311RestartTypeERKSt8functionIFvRKNS4_22RestartOperationResultEEENS4_10TaskConfigEEUlvE_E3ptr5resetEv, .-_ZN4asio6detail18completion_handlerIZN8asiodnp311MasterStack7RestartEN8opendnp311RestartTypeERKSt8functionIFvRKNS4_22RestartOperationResultEEENS4_10TaskConfigEEUlvE_E3ptr5resetEv
	.align	2
	.syntax unified
	.arm
	.fpu vfp
	.type	_ZN4asio6detail18completion_handlerIZN8asiodnp311MasterStack15PerformFunctionERKNSt7__cxx1112basic_stringIcSt11char_traitsIcESaIcEEEN8opendnp312FunctionCodeERKSt6vectorINSC_6HeaderESaISF_EERKNSC_10TaskConfigEEUlvE_E3ptr5resetEv, %function
_ZN4asio6detail18completion_handlerIZN8asiodnp311MasterStack15PerformFunctionERKNSt7__cxx1112basic_stringIcSt11char_traitsIcESaIcEEEN8opendnp312FunctionCodeERKSt6vectorINSC_6HeaderESaISF_EERKNSC_10TaskConfigEEUlvE_E3ptr5resetEv:
	.fnstart
.LFB10919:
	@ args = 0, pretend = 0, frame = 0
	@ frame_needed = 0, uses_anonymous_args = 0
	push	{r4, r5, r6, lr}
	.save {r4, r5, r6, lr}
	mov	r5, r0
	ldr	r4, [r0, #8]
	ldr	r6, .L617
	cmp	r4, #0
.LPIC75:
	add	r6, pc, r6
	beq	.L585
	ldr	r3, [r4, #56]
	cmp	r3, #0
	beq	.L586
	add	r1, r4, #48
	mov	r0, r1
	mov	r2, #3
	blx	r3
.L586:
	ldr	r0, [r4, #20]
	add	r3, r4, #28
	cmp	r0, r3
	beq	.L587
	bl	_ZdlPv(PLT)
.L587:
	ldr	r4, [r4, #16]
	cmp	r4, #0
	beq	.L589
	ldr	r3, .L617+4
	ldr	r3, [r6, r3]
	cmp	r3, #0
	beq	.L590
	add	r3, r4, #28
	mcr	p15, 0, r0, c7, c10, 5
.L614:
	ldrex	r2, [r3]
	sub	r1, r2, #1
	strex	r0, r1, [r3]
	cmp	r0, #0
	bne	.L614
	cmp	r2, #1
	mcr	p15, 0, r0, c7, c10, 5
	bne	.L589
	b	.L616
.L590:
	ldr	r3, [r4, #28]
	cmp	r3, #1
	sub	r3, r3, #1
	str	r3, [r4, #28]
	bne	.L589
	ldr	r3, [r4]
	mov	r0, r4
	ldr	r3, [r3, #8]
	blx	r3
	mcr	p15, 0, r0, c7, c10, 5
	ldr	r3, [r4, #32]
	sub	r2, r3, #1
	str	r2, [r4, #32]
.L597:
	cmp	r3, #1
	bne	.L589
	ldr	r3, [r4]
	mov	r0, r4
	ldr	r3, [r3, #12]
	blx	r3
.L589:
	mov	r3, #0
	str	r3, [r5, #8]
.L585:
	ldr	r4, [r5, #4]
	cmp	r4, #0
	popeq	{r4, r5, r6, pc}
	ldr	r3, .L617+8
	ldr	r3, [r6, r3]
	ldr	r0, [r3]
	bl	pthread_getspecific(PLT)
	cmp	r0, #0
	beq	.L595
	ldr	r3, [r0, #4]
	cmp	r3, #0
	beq	.L595
	ldr	r2, [r3]
	cmp	r2, #0
	ldrbeq	r2, [r4, #76]	@ zero_extendqisi2
	strbeq	r2, [r4]
	streq	r4, [r3]
	beq	.L596
.L595:
	mov	r0, r4
	bl	_ZdlPv(PLT)
.L596:
	mov	r3, #0
	str	r3, [r5, #4]
	pop	{r4, r5, r6, pc}
.L616:
	ldr	r3, [r4]
	mov	r0, r4
	ldr	r3, [r3, #8]
	blx	r3
	add	r2, r4, #32
	mcr	p15, 0, r0, c7, c10, 5
	mcr	p15, 0, r0, c7, c10, 5
.L613:
	ldrex	r3, [r2]
	sub	r1, r3, #1
	strex	r0, r1, [r2]
	cmp	r0, #0
	bne	.L613
	mcr	p15, 0, r0, c7, c10, 5
	b	.L597
.L618:
	.align	2
.L617:
	.word	_GLOBAL_OFFSET_TABLE_-(.LPIC75+8)
	.word	_ZL28__gthrw___pthread_key_createPjPFvPvE(GOT)
	.word	_ZN4asio6detail10call_stackINS0_15task_io_serviceENS0_27task_io_service_thread_infoEE4top_E(GOT)
	.personality	__gxx_personality_v0
	.handlerdata
.LLSDA10919:
	.byte	0xff
	.byte	0xff
	.byte	0x1
	.uleb128 .LLSDACSE10919-.LLSDACSB10919
.LLSDACSB10919:
.LLSDACSE10919:
	.section	.text.unlikely
	.fnend
	.size	_ZN4asio6detail18completion_handlerIZN8asiodnp311MasterStack15PerformFunctionERKNSt7__cxx1112basic_stringIcSt11char_traitsIcESaIcEEEN8opendnp312FunctionCodeERKSt6vectorINSC_6HeaderESaISF_EERKNSC_10TaskConfigEEUlvE_E3ptr5resetEv, .-_ZN4asio6detail18completion_handlerIZN8asiodnp311MasterStack15PerformFunctionERKNSt7__cxx1112basic_stringIcSt11char_traitsIcESaIcEEEN8opendnp312FunctionCodeERKSt6vectorINSC_6HeaderESaISF_EERKNSC_10TaskConfigEEUlvE_E3ptr5resetEv
	.section	.text._ZN4asio6detail18completion_handlerIZN7asiopal8Executor10ReturnFromIN8opendnp315StackStatisticsEEET_RKSt8functionIFS7_vEEEUlvE_E11do_completeEPNS0_15task_io_serviceEPNS0_25task_io_service_operationERKSt10error_codej,"axG",%progbits,_ZN4asio6detail18completion_handlerIZN7asiopal8Executor10ReturnFromIN8opendnp315StackStatisticsEEET_RKSt8functionIFS7_vEEEUlvE_E11do_completeEPNS0_15task_io_serviceEPNS0_25task_io_service_operationERKSt10error_codej,comdat
	.align	2
	.weak	_ZN4asio6detail18completion_handlerIZN7asiopal8Executor10ReturnFromIN8opendnp315StackStatisticsEEET_RKSt8functionIFS7_vEEEUlvE_E11do_completeEPNS0_15task_io_serviceEPNS0_25task_io_service_operationERKSt10error_codej
	.syntax unified
	.arm
	.fpu vfp
	.type	_ZN4asio6detail18completion_handlerIZN7asiopal8Executor10ReturnFromIN8opendnp315StackStatisticsEEET_RKSt8functionIFS7_vEEEUlvE_E11do_completeEPNS0_15task_io_serviceEPNS0_25task_io_service_operationERKSt10error_codej, %function
_ZN4asio6detail18completion_handlerIZN7asiopal8Executor10ReturnFromIN8opendnp315StackStatisticsEEET_RKSt8functionIFS7_vEEEUlvE_E11do_completeEPNS0_15task_io_serviceEPNS0_25task_io_service_operationERKSt10error_codej:
	.fnstart
.LFB11127:
	@ args = 0, pretend = 0, frame = 104
	@ frame_needed = 0, uses_anonymous_args = 0
	push	{r4, r5, r6, r7, r8, lr}
	.save {r4, r5, r6, r7, r8, lr}
	mov	r8, r0
	ldr	r4, .L655
	ldr	r3, .L655+4
.LPIC76:
	add	r4, pc, r4
	.pad #104
	sub	sp, sp, #104
	ldr	r3, [r4, r3]
	mov	r5, r1
	ldr	r7, [r1, #12]
	ldr	r0, [r3]
	ldr	r6, [r1, #16]
	bl	pthread_getspecific(PLT)
	cmp	r0, #0
	beq	.L620
	ldr	r3, [r0, #4]
	cmp	r3, #0
	beq	.L620
	ldr	r2, [r3]
	cmp	r2, #0
	beq	.L652
.L620:
	mov	r0, r5
	bl	_ZdlPv(PLT)
.L621:
	cmp	r8, #0
	beq	.L619
	add	r3, sp, #104
	mov	r2, #0
	str	r2, [r3, #-96]!
	mov	r2, #1
.L650:
	ldrex	r1, [r3]
	strex	r0, r2, [r3]
	cmp	r0, #0
	bne	.L650
	mcr	p15, 0, r0, c7, c10, 5
	ldr	r3, [r6, #8]
	cmp	r3, #0
	beq	.L653
	add	r8, sp, #64
	mov	r0, r8
	ldr	r3, [r6, #12]
	mov	r1, r6
.LEHB2:
	blx	r3
.LEHE2:
	ldr	r3, .L655+8
	ldr	r2, .L655+12
	ldr	r5, [r7]
	str	r7, [sp, #32]
	str	r8, [sp, #36]
	ldr	r1, [r4, r3]
	ldr	r3, .L655+16
	str	r1, [sp, #44]
	ldr	r1, [r4, r2]
	mov	r2, #0
	str	r1, [sp, #40]
	strb	r2, [sp, #7]
	ldr	r3, [r4, r3]
	ldr	r0, .L655+20
	str	r3, [sp, #24]
	add	r3, sp, #7
	str	r3, [sp, #12]
	add	r3, sp, #24
	str	r3, [sp, #48]
	add	r3, sp, #20
	str	r3, [sp, #52]
	add	r3, sp, #16
	str	r3, [sp, #56]
.LPIC77:
	add	r0, pc, r0
	add	r3, sp, #12
	add	r6, sp, #32
	str	r2, [sp, #28]
	str	r3, [sp, #60]
	str	r5, [sp, #20]
	str	r6, [sp, #16]
	bl	__tls_get_addr(PLT)
	ldr	r3, .L655+24
	add	r2, sp, #48
	str	r2, [r0]
.LPIC78:
	add	r0, pc, r3
	bl	__tls_get_addr(PLT)
	ldr	r2, .L655+28
	ldr	r3, .L655+32
	ldr	r2, [r4, r2]
	str	r2, [r0]
	ldr	r3, [r4, r3]
	cmp	r3, #0
	beq	.L634
	ldr	r3, .L655+36
	add	r0, r5, #16
	ldr	r1, [r4, r3]
.LEHB3:
	bl	_ZL20__gthrw_pthread_oncePiPFvvE(PLT)
	cmp	r0, #0
	bne	.L624
	ldrb	r3, [sp, #7]	@ zero_extendqisi2
	cmp	r3, #0
	bne	.L654
	mov	r0, #2
	bl	_ZSt20__throw_future_errori(PLT)
.LEHE3:
.L654:
	add	r0, r5, #8
	mov	r2, #1
	mcr	p15, 0, r0, c7, c10, 5
.L649:
	ldrex	r3, [r0]
	strex	r1, r2, [r0]
	cmp	r1, #0
	bne	.L649
	cmp	r3, #0
	blt	.L627
.L630:
	ldr	r3, [sp, #40]
	cmp	r3, #0
	beq	.L629
	mov	r2, #3
	mov	r1, r6
	mov	r0, r6
	blx	r3
.L629:
	mov	r3, #0
	mcr	p15, 0, r0, c7, c10, 5
	str	r3, [sp, #8]
.L619:
	add	sp, sp, #104
	@ sp needed
	pop	{r4, r5, r6, r7, r8, pc}
.L634:
	mvn	r0, #0
.L624:
.LEHB4:
	bl	_ZSt20__throw_system_errori(PLT)
.LEHE4:
.L652:
	ldrb	r2, [r5, #20]	@ zero_extendqisi2
	strb	r2, [r5]
	str	r5, [r3]
	b	.L621
.L636:
	ldr	r3, [sp, #40]
	cmp	r3, #0
	beq	.L633
	mov	r2, #3
	mov	r1, r6
	mov	r0, r6
	blx	r3
.L633:
	mov	r3, #0
	mcr	p15, 0, r0, c7, c10, 5
	str	r3, [sp, #8]
.LEHB5:
	bl	__cxa_end_cleanup(PLT)
.LEHE5:
.L627:
.LEHB6:
	bl	_ZNSt28__atomic_futex_unsigned_base19_M_futex_notify_allEPj(PLT)
.LEHE6:
	b	.L630
.L653:
.LEHB7:
	bl	_ZSt25__throw_bad_function_callv(PLT)
.LEHE7:
.L635:
	b	.L633
.L656:
	.align	2
.L655:
	.word	_GLOBAL_OFFSET_TABLE_-(.LPIC76+8)
	.word	_ZN4asio6detail10call_stackINS0_15task_io_serviceENS0_27task_io_service_thread_infoEE4top_E(GOT)
	.word	_ZNSt17_Function_handlerIFSt10unique_ptrINSt13__future_base12_Result_baseENS2_8_DeleterEEvENS1_13_State_baseV27_SetterIN8opendnp315StackStatisticsEOS9_EEE9_M_invokeERKSt9_Any_data(GOT)
	.word	_ZNSt14_Function_base13_Base_managerINSt13__future_base13_State_baseV27_SetterIN8opendnp315StackStatisticsEOS5_EEE10_M_managerERSt9_Any_dataRKS9_St18_Manager_operation(GOT)
	.word	_ZNSt13__future_base13_State_baseV29_M_do_setEPSt8functionIFSt10unique_ptrINS_12_Result_baseENS3_8_DeleterEEvEEPb(GOT)
	.word	_ZSt15__once_callable(tlsgd) + (. - .LPIC77 - 8)
	.word	_ZSt11__once_call(tlsgd) + (. - .LPIC78 - 8)
	.word	_ZZSt9call_onceIMNSt13__future_base13_State_baseV2EFvPSt8functionIFSt10unique_ptrINS0_12_Result_baseENS4_8_DeleterEEvEEPbEJPS1_S9_SA_EEvRSt9once_flagOT_DpOT0_ENUlvE0_4_FUNEv(GOT)
	.word	_ZL28__gthrw___pthread_key_createPjPFvPvE(GOT)
	.word	__once_proxy(GOT)
	.personality	__gxx_personality_v0
	.handlerdata
.LLSDA11127:
	.byte	0xff
	.byte	0xff
	.byte	0x1
	.uleb128 .LLSDACSE11127-.LLSDACSB11127
.LLSDACSB11127:
	.uleb128 .LEHB2-.LFB11127
	.uleb128 .LEHE2-.LEHB2
	.uleb128 .L635-.LFB11127
	.uleb128 0
	.uleb128 .LEHB3-.LFB11127
	.uleb128 .LEHE3-.LEHB3
	.uleb128 .L636-.LFB11127
	.uleb128 0
	.uleb128 .LEHB4-.LFB11127
	.uleb128 .LEHE4-.LEHB4
	.uleb128 .L636-.LFB11127
	.uleb128 0
	.uleb128 .LEHB5-.LFB11127
	.uleb128 .LEHE5-.LEHB5
	.uleb128 0
	.uleb128 0
	.uleb128 .LEHB6-.LFB11127
	.uleb128 .LEHE6-.LEHB6
	.uleb128 .L636-.LFB11127
	.uleb128 0
	.uleb128 .LEHB7-.LFB11127
	.uleb128 .LEHE7-.LEHB7
	.uleb128 .L635-.LFB11127
	.uleb128 0
.LLSDACSE11127:
	.section	.text._ZN4asio6detail18completion_handlerIZN7asiopal8Executor10ReturnFromIN8opendnp315StackStatisticsEEET_RKSt8functionIFS7_vEEEUlvE_E11do_completeEPNS0_15task_io_serviceEPNS0_25task_io_service_operationERKSt10error_codej,"axG",%progbits,_ZN4asio6detail18completion_handlerIZN7asiopal8Executor10ReturnFromIN8opendnp315StackStatisticsEEET_RKSt8functionIFS7_vEEEUlvE_E11do_completeEPNS0_15task_io_serviceEPNS0_25task_io_service_operationERKSt10error_codej,comdat
	.fnend
	.size	_ZN4asio6detail18completion_handlerIZN7asiopal8Executor10ReturnFromIN8opendnp315StackStatisticsEEET_RKSt8functionIFS7_vEEEUlvE_E11do_completeEPNS0_15task_io_serviceEPNS0_25task_io_service_operationERKSt10error_codej, .-_ZN4asio6detail18completion_handlerIZN7asiopal8Executor10ReturnFromIN8opendnp315StackStatisticsEEET_RKSt8functionIFS7_vEEEUlvE_E11do_completeEPNS0_15task_io_serviceEPNS0_25task_io_service_operationERKSt10error_codej
	.section	.text._ZN4asio6detail18completion_handlerIZN7asiopal8Executor10ReturnFromIbEET_RKSt8functionIFS5_vEEEUlvE_E11do_completeEPNS0_15task_io_serviceEPNS0_25task_io_service_operationERKSt10error_codej,"axG",%progbits,_ZN4asio6detail18completion_handlerIZN7asiopal8Executor10ReturnFromIbEET_RKSt8functionIFS5_vEEEUlvE_E11do_completeEPNS0_15task_io_serviceEPNS0_25task_io_service_operationERKSt10error_codej,comdat
	.align	2
	.weak	_ZN4asio6detail18completion_handlerIZN7asiopal8Executor10ReturnFromIbEET_RKSt8functionIFS5_vEEEUlvE_E11do_completeEPNS0_15task_io_serviceEPNS0_25task_io_service_operationERKSt10error_codej
	.syntax unified
	.arm
	.fpu vfp
	.type	_ZN4asio6detail18completion_handlerIZN7asiopal8Executor10ReturnFromIbEET_RKSt8functionIFS5_vEEEUlvE_E11do_completeEPNS0_15task_io_serviceEPNS0_25task_io_service_operationERKSt10error_codej, %function
_ZN4asio6detail18completion_handlerIZN7asiopal8Executor10ReturnFromIbEET_RKSt8functionIFS5_vEEEUlvE_E11do_completeEPNS0_15task_io_serviceEPNS0_25task_io_service_operationERKSt10error_codej:
	.fnstart
.LFB11100:
	@ args = 0, pretend = 0, frame = 64
	@ frame_needed = 0, uses_anonymous_args = 0
	push	{r4, r5, r6, r7, r8, lr}
	.save {r4, r5, r6, r7, r8, lr}
	mov	r8, r0
	ldr	r4, .L693
	ldr	r3, .L693+4
.LPIC79:
	add	r4, pc, r4
	.pad #64
	sub	sp, sp, #64
	ldr	r3, [r4, r3]
	mov	r5, r1
	ldr	r7, [r1, #12]
	ldr	r0, [r3]
	ldr	r6, [r1, #16]
	bl	pthread_getspecific(PLT)
	cmp	r0, #0
	beq	.L658
	ldr	r3, [r0, #4]
	cmp	r3, #0
	beq	.L658
	ldr	r2, [r3]
	cmp	r2, #0
	beq	.L690
.L658:
	mov	r0, r5
	bl	_ZdlPv(PLT)
.L659:
	cmp	r8, #0
	beq	.L657
	add	r3, sp, #64
	mov	r2, #0
	str	r2, [r3, #-56]!
	mov	r2, #1
.L688:
	ldrex	r1, [r3]
	strex	r0, r2, [r3]
	cmp	r0, #0
	bne	.L688
	mcr	p15, 0, r0, c7, c10, 5
	ldr	r3, [r6, #8]
	cmp	r3, #0
	beq	.L691
	ldr	r3, [r6, #12]
	mov	r0, r6
.LEHB8:
	blx	r3
.LEHE8:
	ldr	r3, .L693+8
	ldr	r2, .L693+12
	add	r1, sp, #6
	ldr	r5, [r7]
	strb	r0, [sp, #6]
	str	r1, [sp, #36]
	str	r7, [sp, #32]
	ldr	r1, [r4, r3]
	ldr	r3, .L693+16
	str	r1, [sp, #44]
	ldr	r1, [r4, r2]
	mov	r2, #0
	str	r1, [sp, #40]
	strb	r2, [sp, #7]
	ldr	r3, [r4, r3]
	ldr	r0, .L693+20
	str	r3, [sp, #24]
	add	r3, sp, #7
	str	r3, [sp, #12]
	add	r3, sp, #24
	str	r3, [sp, #48]
	add	r3, sp, #20
	str	r3, [sp, #52]
	add	r3, sp, #16
	str	r3, [sp, #56]
.LPIC80:
	add	r0, pc, r0
	add	r3, sp, #12
	add	r6, sp, #32
	str	r2, [sp, #28]
	str	r3, [sp, #60]
	str	r5, [sp, #20]
	str	r6, [sp, #16]
	bl	__tls_get_addr(PLT)
	ldr	r3, .L693+24
	add	r2, sp, #48
	str	r2, [r0]
.LPIC81:
	add	r0, pc, r3
	bl	__tls_get_addr(PLT)
	ldr	r2, .L693+28
	ldr	r3, .L693+32
	ldr	r2, [r4, r2]
	str	r2, [r0]
	ldr	r3, [r4, r3]
	cmp	r3, #0
	beq	.L672
	ldr	r3, .L693+36
	add	r0, r5, #16
	ldr	r1, [r4, r3]
.LEHB9:
	bl	_ZL20__gthrw_pthread_oncePiPFvvE(PLT)
	cmp	r0, #0
	bne	.L662
	ldrb	r3, [sp, #7]	@ zero_extendqisi2
	cmp	r3, #0
	bne	.L692
	mov	r0, #2
	bl	_ZSt20__throw_future_errori(PLT)
.LEHE9:
.L692:
	add	r0, r5, #8
	mov	r2, #1
	mcr	p15, 0, r0, c7, c10, 5
.L687:
	ldrex	r3, [r0]
	strex	r1, r2, [r0]
	cmp	r1, #0
	bne	.L687
	cmp	r3, #0
	blt	.L665
.L668:
	ldr	r3, [sp, #40]
	cmp	r3, #0
	beq	.L667
	mov	r2, #3
	mov	r1, r6
	mov	r0, r6
	blx	r3
.L667:
	mov	r3, #0
	mcr	p15, 0, r0, c7, c10, 5
	str	r3, [sp, #8]
.L657:
	add	sp, sp, #64
	@ sp needed
	pop	{r4, r5, r6, r7, r8, pc}
.L672:
	mvn	r0, #0
.L662:
.LEHB10:
	bl	_ZSt20__throw_system_errori(PLT)
.LEHE10:
.L690:
	ldrb	r2, [r5, #20]	@ zero_extendqisi2
	strb	r2, [r5]
	str	r5, [r3]
	b	.L659
.L674:
	ldr	r3, [sp, #40]
	cmp	r3, #0
	beq	.L671
	mov	r2, #3
	mov	r1, r6
	mov	r0, r6
	blx	r3
.L671:
	mov	r3, #0
	mcr	p15, 0, r0, c7, c10, 5
	str	r3, [sp, #8]
.LEHB11:
	bl	__cxa_end_cleanup(PLT)
.LEHE11:
.L665:
.LEHB12:
	bl	_ZNSt28__atomic_futex_unsigned_base19_M_futex_notify_allEPj(PLT)
.LEHE12:
	b	.L668
.L691:
.LEHB13:
	bl	_ZSt25__throw_bad_function_callv(PLT)
.LEHE13:
.L673:
	b	.L671
.L694:
	.align	2
.L693:
	.word	_GLOBAL_OFFSET_TABLE_-(.LPIC79+8)
	.word	_ZN4asio6detail10call_stackINS0_15task_io_serviceENS0_27task_io_service_thread_infoEE4top_E(GOT)
	.word	_ZNSt17_Function_handlerIFSt10unique_ptrINSt13__future_base12_Result_baseENS2_8_DeleterEEvENS1_13_State_baseV27_SetterIbObEEE9_M_invokeERKSt9_Any_data(GOT)
	.word	_ZNSt14_Function_base13_Base_managerINSt13__future_base13_State_baseV27_SetterIbObEEE10_M_managerERSt9_Any_dataRKS7_St18_Manager_operation(GOT)
	.word	_ZNSt13__future_base13_State_baseV29_M_do_setEPSt8functionIFSt10unique_ptrINS_12_Result_baseENS3_8_DeleterEEvEEPb(GOT)
	.word	_ZSt15__once_callable(tlsgd) + (. - .LPIC80 - 8)
	.word	_ZSt11__once_call(tlsgd) + (. - .LPIC81 - 8)
	.word	_ZZSt9call_onceIMNSt13__future_base13_State_baseV2EFvPSt8functionIFSt10unique_ptrINS0_12_Result_baseENS4_8_DeleterEEvEEPbEJPS1_S9_SA_EEvRSt9once_flagOT_DpOT0_ENUlvE0_4_FUNEv(GOT)
	.word	_ZL28__gthrw___pthread_key_createPjPFvPvE(GOT)
	.word	__once_proxy(GOT)
	.personality	__gxx_personality_v0
	.handlerdata
.LLSDA11100:
	.byte	0xff
	.byte	0xff
	.byte	0x1
	.uleb128 .LLSDACSE11100-.LLSDACSB11100
.LLSDACSB11100:
	.uleb128 .LEHB8-.LFB11100
	.uleb128 .LEHE8-.LEHB8
	.uleb128 .L673-.LFB11100
	.uleb128 0
	.uleb128 .LEHB9-.LFB11100
	.uleb128 .LEHE9-.LEHB9
	.uleb128 .L674-.LFB11100
	.uleb128 0
	.uleb128 .LEHB10-.LFB11100
	.uleb128 .LEHE10-.LEHB10
	.uleb128 .L674-.LFB11100
	.uleb128 0
	.uleb128 .LEHB11-.LFB11100
	.uleb128 .LEHE11-.LEHB11
	.uleb128 0
	.uleb128 0
	.uleb128 .LEHB12-.LFB11100
	.uleb128 .LEHE12-.LEHB12
	.uleb128 .L674-.LFB11100
	.uleb128 0
	.uleb128 .LEHB13-.LFB11100
	.uleb128 .LEHE13-.LEHB13
	.uleb128 .L673-.LFB11100
	.uleb128 0
.LLSDACSE11100:
	.section	.text._ZN4asio6detail18completion_handlerIZN7asiopal8Executor10ReturnFromIbEET_RKSt8functionIFS5_vEEEUlvE_E11do_completeEPNS0_15task_io_serviceEPNS0_25task_io_service_operationERKSt10error_codej,"axG",%progbits,_ZN4asio6detail18completion_handlerIZN7asiopal8Executor10ReturnFromIbEET_RKSt8functionIFS5_vEEEUlvE_E11do_completeEPNS0_15task_io_serviceEPNS0_25task_io_service_operationERKSt10error_codej,comdat
	.fnend
	.size	_ZN4asio6detail18completion_handlerIZN7asiopal8Executor10ReturnFromIbEET_RKSt8functionIFS5_vEEEUlvE_E11do_completeEPNS0_15task_io_serviceEPNS0_25task_io_service_operationERKSt10error_codej, .-_ZN4asio6detail18completion_handlerIZN7asiopal8Executor10ReturnFromIbEET_RKSt8functionIFS5_vEEEUlvE_E11do_completeEPNS0_15task_io_serviceEPNS0_25task_io_service_operationERKSt10error_codej
	.section	.text._ZN9__gnu_cxx13__scoped_lockD2Ev,"axG",%progbits,_ZN9__gnu_cxx13__scoped_lockD5Ev,comdat
	.align	2
	.weak	_ZN9__gnu_cxx13__scoped_lockD2Ev
	.syntax unified
	.arm
	.fpu vfp
	.type	_ZN9__gnu_cxx13__scoped_lockD2Ev, %function
_ZN9__gnu_cxx13__scoped_lockD2Ev:
	.fnstart
.LFB598:
	@ args = 0, pretend = 0, frame = 0
	@ frame_needed = 0, uses_anonymous_args = 0
	push	{r4, r5, r6, lr}
	.save {r4, r5, r6, lr}
	mov	r5, r0
	ldr	r4, .L709
	ldr	r3, .L709+4
.LPIC82:
	add	r4, pc, r4
	ldr	r3, [r4, r3]
	cmp	r3, #0
	beq	.L702
	ldr	r0, [r0]
	bl	_ZL28__gthrw_pthread_mutex_unlockP15pthread_mutex_t(PLT)
	cmp	r0, #0
	bne	.L708
.L702:
	mov	r0, r5
	pop	{r4, r5, r6, pc}
.L708:
	mov	r0, #4
	bl	__cxa_allocate_exception(PLT)
	ldr	r1, .L709+8
	ldr	r2, .L709+12
	ldr	r3, .L709+16
	ldr	r1, [r4, r1]
	add	r1, r1, #8
	str	r1, [r0]
	ldr	r2, [r4, r2]
	ldr	r1, [r4, r3]
.LEHB14:
	bl	__cxa_throw(PLT)
.LEHE14:
.L699:
	cmn	r1, #1
	beq	.L698
.LEHB15:
	bl	__cxa_end_cleanup(PLT)
.L698:
	bl	__cxa_call_unexpected(PLT)
.LEHE15:
.L710:
	.align	2
.L709:
	.word	_GLOBAL_OFFSET_TABLE_-(.LPIC82+8)
	.word	_ZL28__gthrw___pthread_key_createPjPFvPvE(GOT)
	.word	_ZTVN9__gnu_cxx26__concurrence_unlock_errorE(GOT)
	.word	_ZN9__gnu_cxx26__concurrence_unlock_errorD1Ev(GOT)
	.word	_ZTIN9__gnu_cxx26__concurrence_unlock_errorE(GOT)
	.personality	__gxx_personality_v0
	.handlerdata
	.align	2
.LLSDA598:
	.byte	0xff
	.byte	0x90
	.uleb128 .LLSDATT598-.LLSDATTD598
.LLSDATTD598:
	.byte	0x1
	.uleb128 .LLSDACSE598-.LLSDACSB598
.LLSDACSB598:
	.uleb128 .LEHB14-.LFB598
	.uleb128 .LEHE14-.LEHB14
	.uleb128 .L699-.LFB598
	.uleb128 0x1
	.uleb128 .LEHB15-.LFB598
	.uleb128 .LEHE15-.LEHB15
	.uleb128 0
	.uleb128 0
.LLSDACSE598:
	.byte	0x7f
	.byte	0
	.align	2
.LLSDATT598:
	.word	0
	.section	.text._ZN9__gnu_cxx13__scoped_lockD2Ev,"axG",%progbits,_ZN9__gnu_cxx13__scoped_lockD5Ev,comdat
	.fnend
	.size	_ZN9__gnu_cxx13__scoped_lockD2Ev, .-_ZN9__gnu_cxx13__scoped_lockD2Ev
	.weak	_ZN9__gnu_cxx13__scoped_lockD1Ev
	.set	_ZN9__gnu_cxx13__scoped_lockD1Ev,_ZN9__gnu_cxx13__scoped_lockD2Ev
	.section	.text._ZSt20__throw_bad_weak_ptrv,"axG",%progbits,_ZSt20__throw_bad_weak_ptrv,comdat
	.align	2
	.weak	_ZSt20__throw_bad_weak_ptrv
	.syntax unified
	.arm
	.fpu vfp
	.type	_ZSt20__throw_bad_weak_ptrv, %function
_ZSt20__throw_bad_weak_ptrv:
	.fnstart
.LFB1550:
	@ args = 0, pretend = 0, frame = 0
	@ frame_needed = 0, uses_anonymous_args = 0
	push	{r4, lr}
	.save {r4, lr}
	mov	r0, #4
	bl	__cxa_allocate_exception(PLT)
	ldr	r3, .L713
	ldr	ip, .L713+4
.LPIC83:
	add	r3, pc, r3
	ldr	r2, .L713+8
	ldr	ip, [r3, ip]
	ldr	r1, .L713+12
	add	ip, ip, #8
	str	ip, [r0]
	ldr	r2, [r3, r2]
	ldr	r1, [r3, r1]
	bl	__cxa_throw(PLT)
.L714:
	.align	2
.L713:
	.word	_GLOBAL_OFFSET_TABLE_-(.LPIC83+8)
	.word	_ZTVSt12bad_weak_ptr(GOT)
	.word	_ZNSt12bad_weak_ptrD1Ev(GOT)
	.word	_ZTISt12bad_weak_ptr(GOT)
	.fnend
	.size	_ZSt20__throw_bad_weak_ptrv, .-_ZSt20__throw_bad_weak_ptrv
	.section	.text._ZNSt16_Sp_counted_baseILN9__gnu_cxx12_Lock_policyE1EE15_M_add_ref_lockEv,"axG",%progbits,_ZNSt16_Sp_counted_baseILN9__gnu_cxx12_Lock_policyE1EE15_M_add_ref_lockEv,comdat
	.align	2
	.weak	_ZNSt16_Sp_counted_baseILN9__gnu_cxx12_Lock_policyE1EE15_M_add_ref_lockEv
	.syntax unified
	.arm
	.fpu vfp
	.type	_ZNSt16_Sp_counted_baseILN9__gnu_cxx12_Lock_policyE1EE15_M_add_ref_lockEv, %function
_ZNSt16_Sp_counted_baseILN9__gnu_cxx12_Lock_policyE1EE15_M_add_ref_lockEv:
	.fnstart
.LFB1566:
	@ args = 0, pretend = 0, frame = 8
	@ frame_needed = 0, uses_anonymous_args = 0
	push	{r4, r5, lr}
	.save {r4, r5, lr}
	.pad #12
	sub	sp, sp, #12
	ldr	r5, .L736
	ldr	r3, .L736+4
.LPIC84:
	add	r5, pc, r5
	mov	r4, r0
	add	r0, r0, #4
	str	r0, [sp, #4]
	ldr	r3, [r5, r3]
	cmp	r3, #0
	beq	.L716
	bl	_ZL26__gthrw_pthread_mutex_lockP15pthread_mutex_t(PLT)
	cmp	r0, #0
	bne	.L735
	add	r3, r4, #28
	mcr	p15, 0, r0, c7, c10, 5
.L732:
	ldrex	r2, [r3]
	add	r1, r2, #1
	strex	r0, r1, [r3]
	cmp	r0, #0
	bne	.L732
	cmp	r2, #0
	mcr	p15, 0, r0, c7, c10, 5
	beq	.L721
	ldr	r0, [sp, #4]
	bl	_ZL28__gthrw_pthread_mutex_unlockP15pthread_mutex_t(PLT)
	cmp	r0, #0
	bne	.L723
.L715:
	add	sp, sp, #12
	@ sp needed
	pop	{r4, r5, pc}
.L716:
	ldr	r3, [r4, #28]
	cmp	r3, #0
	add	r3, r3, #1
	str	r3, [r4, #28]
	bne	.L715
.L721:
	mov	r3, #0
	str	r3, [r4, #28]
.LEHB16:
	bl	_ZSt20__throw_bad_weak_ptrv(PLT)
.LEHE16:
.L724:
	add	r0, sp, #4
	bl	_ZN9__gnu_cxx13__scoped_lockD1Ev(PLT)
.L734:
.LEHB17:
	bl	__cxa_end_cleanup(PLT)
.LEHE17:
.L723:
	mov	r0, #4
	bl	__cxa_allocate_exception(PLT)
	ldr	r1, .L736+8
	ldr	r2, .L736+12
	ldr	r3, .L736+16
	ldr	r1, [r5, r1]
	add	r1, r1, #8
	str	r1, [r0]
	ldr	r2, [r5, r2]
	ldr	r1, [r5, r3]
.LEHB18:
	bl	__cxa_throw(PLT)
.LEHE18:
.L725:
	cmn	r1, #1
	bne	.L734
.LEHB19:
	bl	__cxa_call_unexpected(PLT)
.L735:
	mov	r0, #4
	bl	__cxa_allocate_exception(PLT)
	ldr	r1, .L736+20
	ldr	r2, .L736+24
	ldr	r3, .L736+28
	ldr	r1, [r5, r1]
	add	r1, r1, #8
	str	r1, [r0]
	ldr	r2, [r5, r2]
	ldr	r1, [r5, r3]
	bl	__cxa_throw(PLT)
.LEHE19:
.L737:
	.align	2
.L736:
	.word	_GLOBAL_OFFSET_TABLE_-(.LPIC84+8)
	.word	_ZL28__gthrw___pthread_key_createPjPFvPvE(GOT)
	.word	_ZTVN9__gnu_cxx26__concurrence_unlock_errorE(GOT)
	.word	_ZN9__gnu_cxx26__concurrence_unlock_errorD1Ev(GOT)
	.word	_ZTIN9__gnu_cxx26__concurrence_unlock_errorE(GOT)
	.word	_ZTVN9__gnu_cxx24__concurrence_lock_errorE(GOT)
	.word	_ZN9__gnu_cxx24__concurrence_lock_errorD1Ev(GOT)
	.word	_ZTIN9__gnu_cxx24__concurrence_lock_errorE(GOT)
	.personality	__gxx_personality_v0
	.handlerdata
	.align	2
.LLSDA1566:
	.byte	0xff
	.byte	0x90
	.uleb128 .LLSDATT1566-.LLSDATTD1566
.LLSDATTD1566:
	.byte	0x1
	.uleb128 .LLSDACSE1566-.LLSDACSB1566
.LLSDACSB1566:
	.uleb128 .LEHB16-.LFB1566
	.uleb128 .LEHE16-.LEHB16
	.uleb128 .L724-.LFB1566
	.uleb128 0
	.uleb128 .LEHB17-.LFB1566
	.uleb128 .LEHE17-.LEHB17
	.uleb128 0
	.uleb128 0
	.uleb128 .LEHB18-.LFB1566
	.uleb128 .LEHE18-.LEHB18
	.uleb128 .L725-.LFB1566
	.uleb128 0x1
	.uleb128 .LEHB19-.LFB1566
	.uleb128 .LEHE19-.LEHB19
	.uleb128 0
	.uleb128 0
.LLSDACSE1566:
	.byte	0x7f
	.byte	0
	.align	2
.LLSDATT1566:
	.word	0
	.section	.text._ZNSt16_Sp_counted_baseILN9__gnu_cxx12_Lock_policyE1EE15_M_add_ref_lockEv,"axG",%progbits,_ZNSt16_Sp_counted_baseILN9__gnu_cxx12_Lock_policyE1EE15_M_add_ref_lockEv,comdat
	.fnend
	.size	_ZNSt16_Sp_counted_baseILN9__gnu_cxx12_Lock_policyE1EE15_M_add_ref_lockEv, .-_ZNSt16_Sp_counted_baseILN9__gnu_cxx12_Lock_policyE1EE15_M_add_ref_lockEv
	.section	.text._ZNSt12system_errorC2ESt10error_codePKc,"axG",%progbits,_ZNSt12system_errorC5ESt10error_codePKc,comdat
	.align	2
	.weak	_ZNSt12system_errorC2ESt10error_codePKc
	.syntax unified
	.arm
	.fpu vfp
	.type	_ZNSt12system_errorC2ESt10error_codePKc, %function
_ZNSt12system_errorC2ESt10error_codePKc:
	.fnstart
.LFB2464:
	@ args = 0, pretend = 0, frame = 80
	@ frame_needed = 0, uses_anonymous_args = 0
	push	{r4, r5, r6, r7, r8, r9, r10, fp, lr}
	.save {r4, r5, r6, r7, r8, r9, r10, fp, lr}
	.pad #92
	sub	sp, sp, #92
	add	r4, sp, #8
	add	r8, sp, #64
	stm	r4, {r1, r2}
	ldr	r2, [sp, #12]
	mov	r5, r0
	mov	r1, r2
	ldr	ip, [r2]
	mov	r0, r8
	ldr	r2, [sp, #8]
	ldr	r6, [ip, #16]
	mov	r7, r3
.LEHB20:
	blx	r6
.LEHE20:
	mov	r3, #2
	str	r3, [sp]
	ldr	r3, .L757
	mov	r2, #0
	ldr	r9, .L757+4
	mov	r0, r8
	mov	r1, r2
.LPIC85:
	add	r3, pc, r3
.LPIC86:
	add	r9, pc, r9
.LEHB21:
	bl	_ZNSt7__cxx1112basic_stringIcSt11char_traitsIcESaIcEE10_M_replaceEjjPKcj(PLT)
.LEHE21:
	mov	lr, r0
	add	r6, sp, #48
	str	r6, [sp, #40]
	ldr	r3, [lr], #8
	mov	ip, r0
	cmp	r3, lr
	moveq	r10, r6
	ldreq	r0, [lr]	@ unaligned
	ldreq	r1, [lr, #4]	@ unaligned
	ldreq	r2, [lr, #8]	@ unaligned
	ldreq	r3, [lr, #12]	@ unaligned
	ldrne	r2, [ip, #8]
	strne	r3, [sp, #40]
	stmiaeq	r10!, {r0, r1, r2, r3}
	mov	fp, #0
	strne	r2, [sp, #48]
	ldr	r3, [ip, #4]
	strb	fp, [ip, #8]
	str	r3, [sp, #44]
	mov	r0, r7
	str	lr, [ip]
	str	fp, [ip, #4]
	bl	strlen(PLT)
	add	r10, sp, #40
	mov	r3, r7
	mov	r2, fp
	mov	r1, fp
	str	r0, [sp]
	mov	r0, r10
.LEHB22:
	bl	_ZNSt7__cxx1112basic_stringIcSt11char_traitsIcESaIcEE10_M_replaceEjjPKcj(PLT)
.LEHE22:
	mov	lr, r0
	add	r7, sp, #24
	str	r7, [sp, #16]
	ldr	r3, [lr], #8
	mov	ip, r0
	cmp	r3, lr
	moveq	fp, r7
	ldreq	r0, [lr]	@ unaligned
	ldreq	r1, [lr, #4]	@ unaligned
	ldreq	r2, [lr, #8]	@ unaligned
	ldreq	r3, [lr, #12]	@ unaligned
	ldrne	r2, [ip, #8]
	strne	r3, [sp, #16]
	stmiaeq	fp!, {r0, r1, r2, r3}
	mov	r3, #0
	strne	r2, [sp, #24]
	ldr	r2, [ip, #4]
	add	fp, sp, #16
	str	r2, [sp, #20]
	strb	r3, [ip, #8]
	str	lr, [ip]
	str	r3, [ip, #4]
	mov	r1, fp
	mov	r0, r5
.LEHB23:
	bl	_ZNSt13runtime_errorC2ERKNSt7__cxx1112basic_stringIcSt11char_traitsIcESaIcEEE(PLT)
.LEHE23:
	ldr	r0, [sp, #16]
	cmp	r0, r7
	beq	.L743
	bl	_ZdlPv(PLT)
.L743:
	ldr	r0, [sp, #40]
	cmp	r0, r6
	beq	.L744
	bl	_ZdlPv(PLT)
.L744:
	ldr	r0, [sp, #64]
	add	r3, sp, #72
	cmp	r0, r3
	beq	.L745
	bl	_ZdlPv(PLT)
.L745:
	ldr	r2, .L757+8
	ldm	r4, {r0, r1}
	mov	r3, r5
	ldr	r2, [r9, r2]
	add	r2, r2, #8
	str	r2, [r3], #8
	stm	r3, {r0, r1}
	mov	r0, r5
	add	sp, sp, #92
	@ sp needed
	pop	{r4, r5, r6, r7, r8, r9, r10, fp, pc}
.L752:
.L750:
	ldr	r0, [sp, #64]
	add	r8, r8, #8
	cmp	r0, r8
	beq	.L751
	bl	_ZdlPv(PLT)
.L751:
.LEHB24:
	bl	__cxa_end_cleanup(PLT)
.LEHE24:
.L754:
	ldr	r0, [sp, #16]
	add	fp, fp, #8
	cmp	r0, fp
	beq	.L748
	bl	_ZdlPv(PLT)
.L748:
	ldr	r0, [sp, #40]
	add	r10, r10, #8
	cmp	r0, r10
	beq	.L750
	bl	_ZdlPv(PLT)
	b	.L750
.L753:
	b	.L748
.L758:
	.align	2
.L757:
	.word	.LC21-(.LPIC85+8)
	.word	_GLOBAL_OFFSET_TABLE_-(.LPIC86+8)
	.word	_ZTVSt12system_error(GOT)
	.personality	__gxx_personality_v0
	.handlerdata
.LLSDA2464:
	.byte	0xff
	.byte	0xff
	.byte	0x1
	.uleb128 .LLSDACSE2464-.LLSDACSB2464
.LLSDACSB2464:
	.uleb128 .LEHB20-.LFB2464
	.uleb128 .LEHE20-.LEHB20
	.uleb128 0
	.uleb128 0
	.uleb128 .LEHB21-.LFB2464
	.uleb128 .LEHE21-.LEHB21
	.uleb128 .L752-.LFB2464
	.uleb128 0
	.uleb128 .LEHB22-.LFB2464
	.uleb128 .LEHE22-.LEHB22
	.uleb128 .L753-.LFB2464
	.uleb128 0
	.uleb128 .LEHB23-.LFB2464
	.uleb128 .LEHE23-.LEHB23
	.uleb128 .L754-.LFB2464
	.uleb128 0
	.uleb128 .LEHB24-.LFB2464
	.uleb128 .LEHE24-.LEHB24
	.uleb128 0
	.uleb128 0
.LLSDACSE2464:
	.section	.text._ZNSt12system_errorC2ESt10error_codePKc,"axG",%progbits,_ZNSt12system_errorC5ESt10error_codePKc,comdat
	.fnend
	.size	_ZNSt12system_errorC2ESt10error_codePKc, .-_ZNSt12system_errorC2ESt10error_codePKc
	.weak	_ZNSt12system_errorC1ESt10error_codePKc
	.set	_ZNSt12system_errorC1ESt10error_codePKc,_ZNSt12system_errorC2ESt10error_codePKc
	.section	.text._ZN4asio6detail20posix_tss_ptr_createERj,"axG",%progbits,_ZN4asio6detail20posix_tss_ptr_createERj,comdat
	.align	2
	.weak	_ZN4asio6detail20posix_tss_ptr_createERj
	.syntax unified
	.arm
	.fpu vfp
	.type	_ZN4asio6detail20posix_tss_ptr_createERj, %function
_ZN4asio6detail20posix_tss_ptr_createERj:
	.fnstart
.LFB2542:
	@ args = 0, pretend = 0, frame = 24
	@ frame_needed = 0, uses_anonymous_args = 0
	push	{r4, r5, r6, lr}
	.save {r4, r5, r6, lr}
	mov	r1, #0
	.pad #24
	sub	sp, sp, #24
	bl	pthread_key_create(PLT)
	ldr	r4, .L773
	ldr	r3, .L773+4
.LPIC87:
	add	r4, pc, r4
	ldr	r6, [r4, r3]
	ldrb	r3, [r6]	@ zero_extendqisi2
	mcr	p15, 0, r0, c7, c10, 5
	tst	r3, #1
	mov	r5, r0
	beq	.L771
.L770:
	ldr	r3, .L773+8
	ldr	r6, [r4, r3]
.L761:
	cmp	r5, #0
	stm	sp, {r5, r6}
	bne	.L772
	add	sp, sp, #24
	@ sp needed
	pop	{r4, r5, r6, pc}
.L771:
	mov	r0, r6
	bl	__cxa_guard_acquire(PLT)
	cmp	r0, #0
	beq	.L770
	mov	r0, r6
	bl	__cxa_guard_release(PLT)
	ldr	r3, .L773+8
	ldr	r1, .L773+12
	ldr	r2, .L773+16
	ldr	r6, [r4, r3]
.LPIC88:
	add	r2, pc, r2
	ldr	r1, [r4, r1]
	mov	r0, r6
	bl	__aeabi_atexit(PLT)
	b	.L761
.L772:
	ldr	r3, .L773+20
	add	r5, sp, #8
	ldm	sp, {r1, r2}
.LPIC89:
	add	r3, pc, r3
	mov	r0, r5
.LEHB25:
	bl	_ZNSt12system_errorC1ESt10error_codePKc(PLT)
.LEHE25:
	mov	r0, #16
	bl	__cxa_allocate_exception(PLT)
	mov	r1, r5
	mov	r6, r0
	bl	_ZNSt13runtime_errorC2ERKS_(PLT)
	ldr	r3, .L773+24
	add	r2, sp, #24
	ldr	ip, .L773+28
	ldmdb	r2, {r0, r1}
	ldr	lr, [r4, r3]
	ldr	r2, .L773+32
	mov	r3, r6
	add	lr, lr, #8
	str	lr, [r3], #8
	stm	r3, {r0, r1}
	mov	r0, r6
	ldr	r2, [r4, r2]
	ldr	r1, [r4, ip]
.LEHB26:
	bl	__cxa_throw(PLT)
.LEHE26:
.L765:
	mov	r0, r5
	bl	_ZNSt12system_errorD1Ev(PLT)
.LEHB27:
	bl	__cxa_end_cleanup(PLT)
.LEHE27:
.L774:
	.align	2
.L773:
	.word	_GLOBAL_OFFSET_TABLE_-(.LPIC87+8)
	.word	_ZGVZN4asio15system_categoryEvE8instance(GOT)
	.word	_ZZN4asio15system_categoryEvE8instance(GOT)
	.word	_ZN4asio6detail15system_categoryD1Ev(GOT)
	.word	__dso_handle-(.LPIC88+8)
	.word	.LC22-(.LPIC89+8)
	.word	_ZTVSt12system_error(GOT)
	.word	_ZTISt12system_error(GOT)
	.word	_ZNSt12system_errorD1Ev(GOT)
	.personality	__gxx_personality_v0
	.handlerdata
.LLSDA2542:
	.byte	0xff
	.byte	0xff
	.byte	0x1
	.uleb128 .LLSDACSE2542-.LLSDACSB2542
.LLSDACSB2542:
	.uleb128 .LEHB25-.LFB2542
	.uleb128 .LEHE25-.LEHB25
	.uleb128 0
	.uleb128 0
	.uleb128 .LEHB26-.LFB2542
	.uleb128 .LEHE26-.LEHB26
	.uleb128 .L765-.LFB2542
	.uleb128 0
	.uleb128 .LEHB27-.LFB2542
	.uleb128 .LEHE27-.LEHB27
	.uleb128 0
	.uleb128 0
.LLSDACSE2542:
	.section	.text._ZN4asio6detail20posix_tss_ptr_createERj,"axG",%progbits,_ZN4asio6detail20posix_tss_ptr_createERj,comdat
	.fnend
	.size	_ZN4asio6detail20posix_tss_ptr_createERj, .-_ZN4asio6detail20posix_tss_ptr_createERj
	.section	.text._ZN4asio21asio_handler_allocateEjz,"axG",%progbits,_ZN4asio21asio_handler_allocateEjz,comdat
	.align	2
	.weak	_ZN4asio21asio_handler_allocateEjz
	.syntax unified
	.arm
	.fpu vfp
	.type	_ZN4asio21asio_handler_allocateEjz, %function
_ZN4asio21asio_handler_allocateEjz:
	.fnstart
.LFB2570:
	@ args = 4, pretend = 16, frame = 0
	@ frame_needed = 0, uses_anonymous_args = 1
	push	{r0, r1, r2, r3}
	.save {r0, r1, r2, r3}
	ldr	r3, .L791
	ldr	r2, .L791+4
.LPIC90:
	add	r3, pc, r3
	push	{r4, lr}
	.save {r4, lr}
	ldr	r3, [r3, r2]
	ldr	r4, [sp, #8]
	ldr	r0, [r3]
	bl	pthread_getspecific(PLT)
	cmp	r0, #0
	beq	.L776
	ldr	r3, [r0, #4]
	cmp	r3, #0
	beq	.L776
	ldr	r0, [r3]
	cmp	r0, #0
	beq	.L776
	mov	r2, #0
	str	r2, [r3]
	ldrb	r3, [r0]	@ zero_extendqisi2
	cmp	r4, r3
	strbls	r3, [r0, r4]
	bhi	.L790
	pop	{r4, lr}
	add	sp, sp, #16
	bx	lr
.L790:
	bl	_ZdlPv(PLT)
.L776:
	add	r0, r4, #1
	bl	_Znwj(PLT)
	cmp	r4, #255
	add	r3, r0, r4
	movhi	r4, #0
	strb	r4, [r3]
	pop	{r4, lr}
	add	sp, sp, #16
	bx	lr
.L792:
	.align	2
.L791:
	.word	_GLOBAL_OFFSET_TABLE_-(.LPIC90+8)
	.word	_ZN4asio6detail10call_stackINS0_15task_io_serviceENS0_27task_io_service_thread_infoEE4top_E(GOT)
	.fnend
	.size	_ZN4asio21asio_handler_allocateEjz, .-_ZN4asio21asio_handler_allocateEjz
	.section	.text._ZN4asio23asio_handler_deallocateEPvjz,"axG",%progbits,_ZN4asio23asio_handler_deallocateEPvjz,comdat
	.align	2
	.weak	_ZN4asio23asio_handler_deallocateEPvjz
	.syntax unified
	.arm
	.fpu vfp
	.type	_ZN4asio23asio_handler_deallocateEPvjz, %function
_ZN4asio23asio_handler_deallocateEPvjz:
	.fnstart
.LFB2571:
	@ args = 4, pretend = 12, frame = 0
	@ frame_needed = 0, uses_anonymous_args = 1
	push	{r1, r2, r3}
	ldr	r3, .L804
	ldr	r2, .L804+4
.LPIC91:
	add	r3, pc, r3
	push	{r4, r5, lr}
	mov	r4, r0
	ldr	r2, [r3, r2]
	ldr	r0, [r2]
	bl	pthread_getspecific(PLT)
	cmp	r0, #0
	beq	.L794
	ldr	r3, [r0, #4]
	ldr	r1, [sp, #12]
	adds	r2, r3, #0
	movne	r2, #1
	cmp	r1, #255
	movhi	r2, #0
	cmp	r2, #0
	beq	.L794
	ldr	r2, [r3]
	cmp	r2, #0
	beq	.L803
.L794:
	mov	r0, r4
	bl	_ZdlPv(PLT)
.L793:
	pop	{r4, r5, lr}
	add	sp, sp, #12
	bx	lr
.L803:
	ldrb	r2, [r4, r1]	@ zero_extendqisi2
	strb	r2, [r4]
	str	r4, [r3]
	b	.L793
.L805:
	.align	2
.L804:
	.word	_GLOBAL_OFFSET_TABLE_-(.LPIC91+8)
	.word	_ZN4asio6detail10call_stackINS0_15task_io_serviceENS0_27task_io_service_thread_infoEE4top_E(GOT)
	.cantunwind
	.fnend
	.size	_ZN4asio23asio_handler_deallocateEPvjz, .-_ZN4asio23asio_handler_deallocateEPvjz
	.section	.text._ZN4asio28asio_handler_is_continuationEz,"axG",%progbits,_ZN4asio28asio_handler_is_continuationEz,comdat
	.align	2
	.weak	_ZN4asio28asio_handler_is_continuationEz
	.syntax unified
	.arm
	.fpu vfp
	.type	_ZN4asio28asio_handler_is_continuationEz, %function
_ZN4asio28asio_handler_is_continuationEz:
	.fnstart
.LFB2574:
	@ args = 0, pretend = 0, frame = 0
	@ frame_needed = 0, uses_anonymous_args = 0
	@ link register save eliminated.
	mov	r0, #0
	bx	lr
	.cantunwind
	.fnend
	.size	_ZN4asio28asio_handler_is_continuationEz, .-_ZN4asio28asio_handler_is_continuationEz
	.section	.text._ZNSt13__future_base13_State_baseV24waitEv,"axG",%progbits,_ZNSt13__future_base13_State_baseV24waitEv,comdat
	.align	2
	.weak	_ZNSt13__future_base13_State_baseV24waitEv
	.syntax unified
	.arm
	.fpu vfp
	.type	_ZNSt13__future_base13_State_baseV24waitEv, %function
_ZNSt13__future_base13_State_baseV24waitEv:
	.fnstart
.LFB6591:
	@ args = 0, pretend = 0, frame = 0
	@ frame_needed = 0, uses_anonymous_args = 0
	push	{r4, r5, r6, r7, r8, r9, r10, lr}
	.save {r4, r5, r6, r7, r8, r9, r10, lr}
	mov	r4, r0
	mov	r10, r0
	ldr	r3, [r4], #8
	.pad #16
	sub	sp, sp, #16
	ldr	r3, [r3, #8]
	blx	r3
	ldr	r2, [r10, #8]
	mcr	p15, 0, r0, c7, c10, 5
	bic	r2, r2, #-2147483648
	cmp	r2, #1
	beq	.L809
	mov	r6, #0
	mov	r5, r6
	mov	r9, r6
	mov	r8, r6
	mov	r7, r6
.L812:
	ldrex	r3, [r4]
	orr	r3, r3, #-2147483648
	strex	r1, r3, [r4]
	cmp	r1, #0
	bne	.L812
	orr	r2, r2, #-2147483648
	str	r9, [sp, #8]
	str	r8, [sp, #12]
	str	r6, [sp]
	str	r5, [sp, #4]
	mov	r3, r7
	mov	r1, r4
	mov	r0, r4
	bl	_ZNSt28__atomic_futex_unsigned_base19_M_futex_wait_untilEPjjbNSt6chrono8durationIxSt5ratioILx1ELx1EEEENS2_IxS3_ILx1ELx1000000000EEEE(PLT)
	ldr	r2, [r4]
	mcr	p15, 0, r0, c7, c10, 5
	bic	r2, r2, #-2147483648
	eor	r0, r0, #1
	cmp	r2, #1
	orreq	r0, r0, #1
	tst	r0, #255
	beq	.L812
.L809:
	ldr	r0, [r10, #4]
	add	sp, sp, #16
	@ sp needed
	pop	{r4, r5, r6, r7, r8, r9, r10, pc}
	.fnend
	.size	_ZNSt13__future_base13_State_baseV24waitEv, .-_ZNSt13__future_base13_State_baseV24waitEv
	.section	.text._ZN7openpal6LoggerD2Ev,"axG",%progbits,_ZN7openpal6LoggerD5Ev,comdat
	.align	2
	.weak	_ZN7openpal6LoggerD2Ev
	.syntax unified
	.arm
	.fpu vfp
	.type	_ZN7openpal6LoggerD2Ev, %function
_ZN7openpal6LoggerD2Ev:
	.fnstart
.LFB6902:
	@ args = 0, pretend = 0, frame = 0
	@ frame_needed = 0, uses_anonymous_args = 0
	push	{r4, r5, r6, lr}
	mov	r4, r0
	ldr	r5, [r0, #12]
	ldr	r6, .L841
	cmp	r5, #0
.LPIC92:
	add	r6, pc, r6
	beq	.L816
	ldr	r3, .L841+4
	ldr	r3, [r6, r3]
	cmp	r3, #0
	beq	.L817
	add	r3, r5, #28
	mcr	p15, 0, r0, c7, c10, 5
.L833:
	ldrex	r2, [r3]
	sub	r1, r2, #1
	strex	r0, r1, [r3]
	cmp	r0, #0
	bne	.L833
	cmp	r2, #1
	mcr	p15, 0, r0, c7, c10, 5
	beq	.L839
.L816:
	ldr	r5, [r4, #4]
	cmp	r5, #0
	beq	.L829
	ldr	r3, .L841+4
	ldr	r3, [r6, r3]
	cmp	r3, #0
	beq	.L823
	add	r3, r5, #28
	mcr	p15, 0, r0, c7, c10, 5
.L832:
	ldrex	r2, [r3]
	sub	r1, r2, #1
	strex	r0, r1, [r3]
	cmp	r0, #0
	bne	.L832
	cmp	r2, #1
	mcr	p15, 0, r0, c7, c10, 5
	beq	.L840
.L829:
	mov	r0, r4
	pop	{r4, r5, r6, pc}
.L817:
	ldr	r3, [r5, #28]
	cmp	r3, #1
	sub	r3, r3, #1
	str	r3, [r5, #28]
	bne	.L816
	ldr	r3, [r5]
	mov	r0, r5
	ldr	r3, [r3, #8]
	blx	r3
	mcr	p15, 0, r0, c7, c10, 5
	ldr	r2, [r5, #32]
	sub	r3, r2, #1
	str	r3, [r5, #32]
	b	.L827
.L823:
	ldr	r3, [r5, #28]
	cmp	r3, #1
	sub	r3, r3, #1
	str	r3, [r5, #28]
	bne	.L829
	ldr	r3, [r5]
	mov	r0, r5
	ldr	r3, [r3, #8]
	blx	r3
	mcr	p15, 0, r0, c7, c10, 5
	ldr	r2, [r5, #32]
	sub	r3, r2, #1
	str	r3, [r5, #32]
	b	.L828
.L840:
	ldr	r3, [r5]
	mov	r0, r5
	ldr	r3, [r3, #8]
	blx	r3
	add	r3, r5, #32
	mcr	p15, 0, r0, c7, c10, 5
	mcr	p15, 0, r0, c7, c10, 5
.L830:
	ldrex	r2, [r3]
	sub	r1, r2, #1
	strex	r0, r1, [r3]
	cmp	r0, #0
	bne	.L830
	mcr	p15, 0, r0, c7, c10, 5
.L828:
	cmp	r2, #1
	bne	.L829
	ldr	r3, [r5]
	mov	r0, r5
	ldr	r3, [r3, #12]
	blx	r3
	b	.L829
.L839:
	ldr	r3, [r5]
	mov	r0, r5
	ldr	r3, [r3, #8]
	blx	r3
	add	r3, r5, #32
	mcr	p15, 0, r0, c7, c10, 5
	mcr	p15, 0, r0, c7, c10, 5
.L831:
	ldrex	r2, [r3]
	sub	r1, r2, #1
	strex	r0, r1, [r3]
	cmp	r0, #0
	bne	.L831
	mcr	p15, 0, r0, c7, c10, 5
.L827:
	cmp	r2, #1
	bne	.L816
	ldr	r3, [r5]
	mov	r0, r5
	ldr	r3, [r3, #12]
	blx	r3
	b	.L816
.L842:
	.align	2
.L841:
	.word	_GLOBAL_OFFSET_TABLE_-(.LPIC92+8)
	.word	_ZL28__gthrw___pthread_key_createPjPFvPvE(GOT)
	.cantunwind
	.fnend
	.size	_ZN7openpal6LoggerD2Ev, .-_ZN7openpal6LoggerD2Ev
	.weak	_ZN7openpal6LoggerD1Ev
	.set	_ZN7openpal6LoggerD1Ev,_ZN7openpal6LoggerD2Ev
	.section	.text._ZN8asiodnp39StackBaseD2Ev,"axG",%progbits,_ZN8asiodnp39StackBaseD5Ev,comdat
	.align	2
	.weak	_ZN8asiodnp39StackBaseD2Ev
	.syntax unified
	.arm
	.fpu vfp
	.type	_ZN8asiodnp39StackBaseD2Ev, %function
_ZN8asiodnp39StackBaseD2Ev:
	.fnstart
.LFB8027:
	@ args = 0, pretend = 0, frame = 0
	@ frame_needed = 0, uses_anonymous_args = 0
	push	{r4, r5, r6, lr}
	mov	r4, r0
	ldr	r6, [r0, #52]
	ldr	r5, .L930
	cmp	r6, #0
.LPIC93:
	add	r5, pc, r5
	beq	.L845
	ldr	r3, .L930+4
	ldr	r3, [r5, r3]
	cmp	r3, #0
	beq	.L846
	add	r3, r6, #28
	mcr	p15, 0, r0, c7, c10, 5
.L907:
	ldrex	r2, [r3]
	sub	r1, r2, #1
	strex	r0, r1, [r3]
	cmp	r0, #0
	bne	.L907
	cmp	r2, #1
	mcr	p15, 0, r0, c7, c10, 5
	beq	.L923
.L845:
	ldr	r6, [r4, #44]
	cmp	r6, #0
	beq	.L851
	ldr	r3, .L930+4
	ldr	r3, [r5, r3]
	cmp	r3, #0
	beq	.L852
	add	r3, r6, #28
	mcr	p15, 0, r0, c7, c10, 5
.L906:
	ldrex	r2, [r3]
	sub	r1, r2, #1
	strex	r0, r1, [r3]
	cmp	r0, #0
	bne	.L906
	cmp	r2, #1
	mcr	p15, 0, r0, c7, c10, 5
	beq	.L924
.L851:
	ldr	r6, [r4, #36]
	cmp	r6, #0
	beq	.L857
	ldr	r3, .L930+4
	ldr	r3, [r5, r3]
	cmp	r3, #0
	beq	.L858
	add	r3, r6, #28
	mcr	p15, 0, r0, c7, c10, 5
.L905:
	ldrex	r2, [r3]
	sub	r1, r2, #1
	strex	r0, r1, [r3]
	cmp	r0, #0
	bne	.L905
	cmp	r2, #1
	mcr	p15, 0, r0, c7, c10, 5
	beq	.L925
.L857:
	ldr	r6, [r4, #28]
	cmp	r6, #0
	beq	.L863
	ldr	r3, .L930+4
	ldr	r3, [r5, r3]
	cmp	r3, #0
	beq	.L864
	add	r3, r6, #28
	mcr	p15, 0, r0, c7, c10, 5
.L904:
	ldrex	r2, [r3]
	sub	r1, r2, #1
	strex	r0, r1, [r3]
	cmp	r0, #0
	bne	.L904
	cmp	r2, #1
	mcr	p15, 0, r0, c7, c10, 5
	beq	.L926
.L863:
	ldr	r6, [r4, #20]
	cmp	r6, #0
	beq	.L869
	ldr	r3, .L930+4
	ldr	r3, [r5, r3]
	cmp	r3, #0
	beq	.L870
	add	r3, r6, #28
	mcr	p15, 0, r0, c7, c10, 5
.L903:
	ldrex	r2, [r3]
	sub	r1, r2, #1
	strex	r0, r1, [r3]
	cmp	r0, #0
	bne	.L903
	cmp	r2, #1
	mcr	p15, 0, r0, c7, c10, 5
	beq	.L927
.L869:
	ldr	r6, [r4, #12]
	cmp	r6, #0
	beq	.L875
	ldr	r3, .L930+4
	ldr	r3, [r5, r3]
	cmp	r3, #0
	beq	.L876
	add	r3, r6, #28
	mcr	p15, 0, r0, c7, c10, 5
.L902:
	ldrex	r2, [r3]
	sub	r1, r2, #1
	strex	r0, r1, [r3]
	cmp	r0, #0
	bne	.L902
	cmp	r2, #1
	mcr	p15, 0, r0, c7, c10, 5
	beq	.L928
.L875:
	ldr	r6, [r4, #4]
	cmp	r6, #0
	beq	.L893
	ldr	r3, .L930+4
	ldr	r3, [r5, r3]
	cmp	r3, #0
	beq	.L882
	add	r3, r6, #28
	mcr	p15, 0, r0, c7, c10, 5
.L901:
	ldrex	r2, [r3]
	sub	r1, r2, #1
	strex	r0, r1, [r3]
	cmp	r0, #0
	bne	.L901
	cmp	r2, #1
	mcr	p15, 0, r0, c7, c10, 5
	beq	.L929
.L893:
	mov	r0, r4
	pop	{r4, r5, r6, pc}
.L846:
	ldr	r3, [r6, #28]
	cmp	r3, #1
	sub	r3, r3, #1
	str	r3, [r6, #28]
	bne	.L845
	ldr	r3, [r6]
	mov	r0, r6
	ldr	r3, [r3, #8]
	blx	r3
	mcr	p15, 0, r0, c7, c10, 5
	ldr	r2, [r6, #32]
	sub	r3, r2, #1
	str	r3, [r6, #32]
	b	.L886
.L876:
	ldr	r3, [r6, #28]
	cmp	r3, #1
	sub	r3, r3, #1
	str	r3, [r6, #28]
	bne	.L875
	ldr	r3, [r6]
	mov	r0, r6
	ldr	r3, [r3, #8]
	blx	r3
	mcr	p15, 0, r0, c7, c10, 5
	ldr	r2, [r6, #32]
	sub	r3, r2, #1
	str	r3, [r6, #32]
	b	.L891
.L858:
	ldr	r3, [r6, #28]
	cmp	r3, #1
	sub	r3, r3, #1
	str	r3, [r6, #28]
	bne	.L857
	ldr	r3, [r6]
	mov	r0, r6
	ldr	r3, [r3, #8]
	blx	r3
	mcr	p15, 0, r0, c7, c10, 5
	ldr	r2, [r6, #32]
	sub	r3, r2, #1
	str	r3, [r6, #32]
	b	.L888
.L864:
	ldr	r3, [r6, #28]
	cmp	r3, #1
	sub	r3, r3, #1
	str	r3, [r6, #28]
	bne	.L863
	ldr	r3, [r6]
	mov	r0, r6
	ldr	r3, [r3, #8]
	blx	r3
	mcr	p15, 0, r0, c7, c10, 5
	ldr	r2, [r6, #32]
	sub	r3, r2, #1
	str	r3, [r6, #32]
	b	.L889
.L870:
	ldr	r3, [r6, #28]
	cmp	r3, #1
	sub	r3, r3, #1
	str	r3, [r6, #28]
	bne	.L869
	ldr	r3, [r6]
	mov	r0, r6
	ldr	r3, [r3, #8]
	blx	r3
	mcr	p15, 0, r0, c7, c10, 5
	ldr	r2, [r6, #32]
	sub	r3, r2, #1
	str	r3, [r6, #32]
	b	.L890
.L852:
	ldr	r3, [r6, #28]
	cmp	r3, #1
	sub	r3, r3, #1
	str	r3, [r6, #28]
	bne	.L851
	ldr	r3, [r6]
	mov	r0, r6
	ldr	r3, [r3, #8]
	blx	r3
	mcr	p15, 0, r0, c7, c10, 5
	ldr	r2, [r6, #32]
	sub	r3, r2, #1
	str	r3, [r6, #32]
	b	.L887
.L882:
	ldr	r3, [r6, #28]
	cmp	r3, #1
	sub	r3, r3, #1
	str	r3, [r6, #28]
	bne	.L893
	ldr	r3, [r6]
	mov	r0, r6
	ldr	r3, [r3, #8]
	blx	r3
	mcr	p15, 0, r0, c7, c10, 5
	ldr	r2, [r6, #32]
	sub	r3, r2, #1
	str	r3, [r6, #32]
	b	.L892
.L927:
	ldr	r3, [r6]
	mov	r0, r6
	ldr	r3, [r3, #8]
	blx	r3
	add	r3, r6, #32
	mcr	p15, 0, r0, c7, c10, 5
	mcr	p15, 0, r0, c7, c10, 5
.L896:
	ldrex	r2, [r3]
	sub	r1, r2, #1
	strex	r0, r1, [r3]
	cmp	r0, #0
	bne	.L896
	mcr	p15, 0, r0, c7, c10, 5
.L890:
	cmp	r2, #1
	bne	.L869
	ldr	r3, [r6]
	mov	r0, r6
	ldr	r3, [r3, #12]
	blx	r3
	b	.L869
.L929:
	ldr	r3, [r6]
	mov	r0, r6
	ldr	r3, [r3, #8]
	blx	r3
	add	r3, r6, #32
	mcr	p15, 0, r0, c7, c10, 5
	mcr	p15, 0, r0, c7, c10, 5
.L894:
	ldrex	r2, [r3]
	sub	r1, r2, #1
	strex	r0, r1, [r3]
	cmp	r0, #0
	bne	.L894
	mcr	p15, 0, r0, c7, c10, 5
.L892:
	cmp	r2, #1
	bne	.L893
	ldr	r3, [r6]
	mov	r0, r6
	ldr	r3, [r3, #12]
	blx	r3
	b	.L893
.L924:
	ldr	r3, [r6]
	mov	r0, r6
	ldr	r3, [r3, #8]
	blx	r3
	add	r3, r6, #32
	mcr	p15, 0, r0, c7, c10, 5
	mcr	p15, 0, r0, c7, c10, 5
.L899:
	ldrex	r2, [r3]
	sub	r1, r2, #1
	strex	r0, r1, [r3]
	cmp	r0, #0
	bne	.L899
	mcr	p15, 0, r0, c7, c10, 5
.L887:
	cmp	r2, #1
	bne	.L851
	ldr	r3, [r6]
	mov	r0, r6
	ldr	r3, [r3, #12]
	blx	r3
	b	.L851
.L923:
	ldr	r3, [r6]
	mov	r0, r6
	ldr	r3, [r3, #8]
	blx	r3
	add	r3, r6, #32
	mcr	p15, 0, r0, c7, c10, 5
	mcr	p15, 0, r0, c7, c10, 5
.L900:
	ldrex	r2, [r3]
	sub	r1, r2, #1
	strex	r0, r1, [r3]
	cmp	r0, #0
	bne	.L900
	mcr	p15, 0, r0, c7, c10, 5
.L886:
	cmp	r2, #1
	bne	.L845
	ldr	r3, [r6]
	mov	r0, r6
	ldr	r3, [r3, #12]
	blx	r3
	b	.L845
.L925:
	ldr	r3, [r6]
	mov	r0, r6
	ldr	r3, [r3, #8]
	blx	r3
	add	r3, r6, #32
	mcr	p15, 0, r0, c7, c10, 5
	mcr	p15, 0, r0, c7, c10, 5
.L898:
	ldrex	r2, [r3]
	sub	r1, r2, #1
	strex	r0, r1, [r3]
	cmp	r0, #0
	bne	.L898
	mcr	p15, 0, r0, c7, c10, 5
.L888:
	cmp	r2, #1
	bne	.L857
	ldr	r3, [r6]
	mov	r0, r6
	ldr	r3, [r3, #12]
	blx	r3
	b	.L857
.L926:
	ldr	r3, [r6]
	mov	r0, r6
	ldr	r3, [r3, #8]
	blx	r3
	add	r3, r6, #32
	mcr	p15, 0, r0, c7, c10, 5
	mcr	p15, 0, r0, c7, c10, 5
.L897:
	ldrex	r2, [r3]
	sub	r1, r2, #1
	strex	r0, r1, [r3]
	cmp	r0, #0
	bne	.L897
	mcr	p15, 0, r0, c7, c10, 5
.L889:
	cmp	r2, #1
	bne	.L863
	ldr	r3, [r6]
	mov	r0, r6
	ldr	r3, [r3, #12]
	blx	r3
	b	.L863
.L928:
	ldr	r3, [r6]
	mov	r0, r6
	ldr	r3, [r3, #8]
	blx	r3
	add	r3, r6, #32
	mcr	p15, 0, r0, c7, c10, 5
	mcr	p15, 0, r0, c7, c10, 5
.L895:
	ldrex	r2, [r3]
	sub	r1, r2, #1
	strex	r0, r1, [r3]
	cmp	r0, #0
	bne	.L895
	mcr	p15, 0, r0, c7, c10, 5
.L891:
	cmp	r2, #1
	bne	.L875
	ldr	r3, [r6]
	mov	r0, r6
	ldr	r3, [r3, #12]
	blx	r3
	b	.L875
.L931:
	.align	2
.L930:
	.word	_GLOBAL_OFFSET_TABLE_-(.LPIC93+8)
	.word	_ZL28__gthrw___pthread_key_createPjPFvPvE(GOT)
	.cantunwind
	.fnend
	.size	_ZN8asiodnp39StackBaseD2Ev, .-_ZN8asiodnp39StackBaseD2Ev
	.weak	_ZN8asiodnp39StackBaseD1Ev
	.set	_ZN8asiodnp39StackBaseD1Ev,_ZN8asiodnp39StackBaseD2Ev
	.section	.text._ZNSt12__shared_ptrIN8asiodnp311MasterStackELN9__gnu_cxx12_Lock_policyE1EEC2ERKS4_,"axG",%progbits,_ZNSt12__shared_ptrIN8asiodnp311MasterStackELN9__gnu_cxx12_Lock_policyE1EEC5ERKS4_,comdat
	.align	2
	.weak	_ZNSt12__shared_ptrIN8asiodnp311MasterStackELN9__gnu_cxx12_Lock_policyE1EEC2ERKS4_
	.syntax unified
	.arm
	.fpu vfp
	.type	_ZNSt12__shared_ptrIN8asiodnp311MasterStackELN9__gnu_cxx12_Lock_policyE1EEC2ERKS4_, %function
_ZNSt12__shared_ptrIN8asiodnp311MasterStackELN9__gnu_cxx12_Lock_policyE1EEC2ERKS4_:
	.fnstart
.LFB8048:
	@ args = 0, pretend = 0, frame = 0
	@ frame_needed = 0, uses_anonymous_args = 0
	@ link register save eliminated.
	ldm	r1, {r2, r3}
	stm	r0, {r2, r3}
	cmp	r3, #0
	ldr	r2, .L939
.LPIC94:
	add	r2, pc, r2
	bxeq	lr
	ldr	r1, .L939+4
	ldr	r2, [r2, r1]
	cmp	r2, #0
	beq	.L934
	add	r3, r3, #28
	mcr	p15, 0, r0, c7, c10, 5
.L938:
	ldrex	r2, [r3]
	add	r2, r2, #1
	strex	r1, r2, [r3]
	cmp	r1, #0
	bne	.L938
	mcr	p15, 0, r0, c7, c10, 5
	bx	lr
.L934:
	ldr	r2, [r3, #28]
	add	r2, r2, #1
	str	r2, [r3, #28]
	bx	lr
.L940:
	.align	2
.L939:
	.word	_GLOBAL_OFFSET_TABLE_-(.LPIC94+8)
	.word	_ZL28__gthrw___pthread_key_createPjPFvPvE(GOT)
	.cantunwind
	.fnend
	.size	_ZNSt12__shared_ptrIN8asiodnp311MasterStackELN9__gnu_cxx12_Lock_policyE1EEC2ERKS4_, .-_ZNSt12__shared_ptrIN8asiodnp311MasterStackELN9__gnu_cxx12_Lock_policyE1EEC2ERKS4_
	.weak	_ZNSt12__shared_ptrIN8asiodnp311MasterStackELN9__gnu_cxx12_Lock_policyE1EEC1ERKS4_
	.set	_ZNSt12__shared_ptrIN8asiodnp311MasterStackELN9__gnu_cxx12_Lock_policyE1EEC1ERKS4_,_ZNSt12__shared_ptrIN8asiodnp311MasterStackELN9__gnu_cxx12_Lock_policyE1EEC2ERKS4_
	.section	.text._ZZSt9call_onceIMNSt13__future_base13_State_baseV2EFvPSt8functionIFSt10unique_ptrINS0_12_Result_baseENS4_8_DeleterEEvEEPbEJPS1_S9_SA_EEvRSt9once_flagOT_DpOT0_ENKUlvE0_clEv,"axG",%progbits,_ZZSt9call_onceIMNSt13__future_base13_State_baseV2EFvPSt8functionIFSt10unique_ptrINS0_12_Result_baseENS4_8_DeleterEEvEEPbEJPS1_S9_SA_EEvRSt9once_flagOT_DpOT0_ENKUlvE0_clEv,comdat
	.align	2
	.weak	_ZZSt9call_onceIMNSt13__future_base13_State_baseV2EFvPSt8functionIFSt10unique_ptrINS0_12_Result_baseENS4_8_DeleterEEvEEPbEJPS1_S9_SA_EEvRSt9once_flagOT_DpOT0_ENKUlvE0_clEv
	.syntax unified
	.arm
	.fpu vfp
	.type	_ZZSt9call_onceIMNSt13__future_base13_State_baseV2EFvPSt8functionIFSt10unique_ptrINS0_12_Result_baseENS4_8_DeleterEEvEEPbEJPS1_S9_SA_EEvRSt9once_flagOT_DpOT0_ENKUlvE0_clEv, %function
_ZZSt9call_onceIMNSt13__future_base13_State_baseV2EFvPSt8functionIFSt10unique_ptrINS0_12_Result_baseENS4_8_DeleterEEvEEPbEJPS1_S9_SA_EEvRSt9once_flagOT_DpOT0_ENKUlvE0_clEv:
	.fnstart
.LFB8831:
	@ args = 0, pretend = 0, frame = 0
	@ frame_needed = 0, uses_anonymous_args = 0
	ldr	r0, .L945
	push	{r4, lr}
.LPIC95:
	add	r0, pc, r0
	bl	__tls_get_addr(PLT)
	ldr	r3, [r0]
	ldr	lr, [r3]
	ldmib	r3, {r1, r2}
	ldr	r3, [r3, #12]
	ldr	ip, [lr, #4]
	ldr	r0, [r1]
	tst	ip, #1
	ldr	r1, [r2]
	ldr	r2, [r3]
	ldr	r3, [lr]
	ldrne	lr, [r0, ip, asr #1]
	addeq	r0, r0, ip, asr #1
	addne	r0, r0, ip, asr #1
	ldrne	r3, [lr, r3]
	pop	{r4, lr}
	bx	r3	@ indirect register sibling call
.L946:
	.align	2
.L945:
	.word	_ZSt15__once_callable(tlsgd) + (. - .LPIC95 - 8)
	.cantunwind
	.fnend
	.size	_ZZSt9call_onceIMNSt13__future_base13_State_baseV2EFvPSt8functionIFSt10unique_ptrINS0_12_Result_baseENS4_8_DeleterEEvEEPbEJPS1_S9_SA_EEvRSt9once_flagOT_DpOT0_ENKUlvE0_clEv, .-_ZZSt9call_onceIMNSt13__future_base13_State_baseV2EFvPSt8functionIFSt10unique_ptrINS0_12_Result_baseENS4_8_DeleterEEvEEPbEJPS1_S9_SA_EEvRSt9once_flagOT_DpOT0_ENKUlvE0_clEv
	.section	.text._ZSt18make_exception_ptrISt12future_errorENSt15__exception_ptr13exception_ptrET_,"axG",%progbits,_ZSt18make_exception_ptrISt12future_errorENSt15__exception_ptr13exception_ptrET_,comdat
	.align	2
	.weak	_ZSt18make_exception_ptrISt12future_errorENSt15__exception_ptr13exception_ptrET_
	.syntax unified
	.arm
	.fpu vfp
	.type	_ZSt18make_exception_ptrISt12future_errorENSt15__exception_ptr13exception_ptrET_, %function
_ZSt18make_exception_ptrISt12future_errorENSt15__exception_ptr13exception_ptrET_:
	.fnstart
.LFB8872:
	@ args = 0, pretend = 0, frame = 0
	@ frame_needed = 0, uses_anonymous_args = 0
	push	{r4, r5, r6, r7, r8, lr}
	.save {r4, r5, r6, r7, r8, lr}
	mov	r5, r0
	mov	r0, #16
	mov	r4, r1
	bl	__cxa_allocate_exception(PLT)
	mov	r1, r4
	add	r4, r4, #8
	mov	r6, r0
	bl	_ZNSt11logic_errorC2ERKS_(PLT)
	ldr	r3, .L951
	ldr	r2, .L951+4
.LPIC96:
	add	r3, pc, r3
	ldm	r4, {r0, r1}
	ldr	r7, [r3, r2]
	ldr	lr, .L951+8
	ldr	ip, .L951+12
	mov	r2, r6
	add	r4, r7, #8
	str	r4, [r2], #8
	stm	r2, {r0, r1}
	mov	r0, r6
	ldr	r2, [r3, lr]
	ldr	r1, [r3, ip]
.LEHB28:
	bl	__cxa_throw(PLT)
.LEHE28:
.L949:
	bl	__cxa_begin_catch(PLT)
	mov	r0, r5
	bl	_ZSt17current_exceptionv(PLT)
	bl	__cxa_end_catch(PLT)
	mov	r0, r5
	pop	{r4, r5, r6, r7, r8, pc}
.L952:
	.align	2
.L951:
	.word	_GLOBAL_OFFSET_TABLE_-(.LPIC96+8)
	.word	_ZTVSt12future_error(GOT)
	.word	_ZNSt12future_errorD1Ev(GOT)
	.word	_ZTISt12future_error(GOT)
	.personality	__gxx_personality_v0
	.handlerdata
	.align	2
.LLSDA8872:
	.byte	0xff
	.byte	0x90
	.uleb128 .LLSDATT8872-.LLSDATTD8872
.LLSDATTD8872:
	.byte	0x1
	.uleb128 .LLSDACSE8872-.LLSDACSB8872
.LLSDACSB8872:
	.uleb128 .LEHB28-.LFB8872
	.uleb128 .LEHE28-.LEHB28
	.uleb128 .L949-.LFB8872
	.uleb128 0x1
.LLSDACSE8872:
	.byte	0x1
	.byte	0
	.align	2
	.word	0
.LLSDATT8872:
	.section	.text._ZSt18make_exception_ptrISt12future_errorENSt15__exception_ptr13exception_ptrET_,"axG",%progbits,_ZSt18make_exception_ptrISt12future_errorENSt15__exception_ptr13exception_ptrET_,comdat
	.fnend
	.size	_ZSt18make_exception_ptrISt12future_errorENSt15__exception_ptr13exception_ptrET_, .-_ZSt18make_exception_ptrISt12future_errorENSt15__exception_ptr13exception_ptrET_
	.section	.text._ZNSt13__future_base13_State_baseV216_M_break_promiseESt10unique_ptrINS_12_Result_baseENS2_8_DeleterEE,"axG",%progbits,_ZNSt13__future_base13_State_baseV216_M_break_promiseESt10unique_ptrINS_12_Result_baseENS2_8_DeleterEE,comdat
	.align	2
	.weak	_ZNSt13__future_base13_State_baseV216_M_break_promiseESt10unique_ptrINS_12_Result_baseENS2_8_DeleterEE
	.syntax unified
	.arm
	.fpu vfp
	.type	_ZNSt13__future_base13_State_baseV216_M_break_promiseESt10unique_ptrINS_12_Result_baseENS2_8_DeleterEE, %function
_ZNSt13__future_base13_State_baseV216_M_break_promiseESt10unique_ptrINS_12_Result_baseENS2_8_DeleterEE:
	.fnstart
.LFB6619:
	@ args = 0, pretend = 0, frame = 72
	@ frame_needed = 0, uses_anonymous_args = 0
	ldr	r3, [r1]
	push	{r4, r5, r6, r7, r8, r9, r10, fp, lr}
	.save {r4, r5, r6, r7, r8, r9, r10, fp, lr}
	cmp	r3, #0
	ldr	r10, .L973
	.pad #84
	sub	sp, sp, #84
.LPIC98:
	add	r10, pc, r10
	beq	.L953
	mov	r4, r1
	mov	r5, r0
	bl	_ZSt15future_categoryv(PLT)
	ldr	ip, [r4]
	mov	r2, #4
	add	ip, ip, r2
	add	r6, sp, #32
	str	ip, [sp, #12]
	ldr	r3, [r0]
	mov	r1, r0
	mov	r9, r0
	ldr	r3, [r3, #16]
	mov	r0, r6
.LEHB29:
	blx	r3
.LEHE29:
	mov	r3, #19
	str	r3, [sp]
	ldr	r3, .L973+4
	mov	r2, #0
	mov	r0, r6
	mov	r1, r2
.LPIC97:
	add	r3, pc, r3
.LEHB30:
	bl	_ZNSt7__cxx1112basic_stringIcSt11char_traitsIcESaIcEE10_M_replaceEjjPKcj(PLT)
.LEHE30:
	mov	lr, r0
	add	fp, sp, #64
	str	fp, [sp, #56]
	ldr	r3, [lr], #8
	mov	ip, r0
	cmp	r3, lr
	strne	r3, [sp, #56]
	ldreq	r0, [lr]	@ unaligned
	ldreq	r1, [lr, #4]	@ unaligned
	ldreq	r2, [lr, #8]	@ unaligned
	ldreq	r3, [lr, #12]	@ unaligned
	ldrne	r3, [ip, #8]
	moveq	r7, fp
	strne	r3, [sp, #64]
	stmiaeq	r7!, {r0, r1, r2, r3}
	add	r8, sp, #16
	ldr	r2, [ip, #4]
	mov	r3, #0
	add	r7, sp, #56
	str	r2, [sp, #60]
	mov	r1, r7
	str	lr, [ip]
	str	r3, [ip, #4]
	strb	r3, [ip, #8]
	mov	r0, r8
.LEHB31:
	bl	_ZNSt11logic_errorC2ERKNSt7__cxx1112basic_stringIcSt11char_traitsIcESaIcEEE(PLT)
.LEHE31:
	ldr	r0, [sp, #56]
	cmp	r0, fp
	beq	.L957
	bl	_ZdlPv(PLT)
.L957:
	ldr	r0, [sp, #32]
	add	r3, sp, #40
	cmp	r0, r3
	beq	.L958
	bl	_ZdlPv(PLT)
.L958:
	ldr	r3, .L973+8
	mov	r2, #4
	mov	r1, r8
	ldr	r3, [r10, r3]
	mov	r0, r6
	add	r3, r3, #8
	str	r3, [sp, #16]
	str	r2, [sp, #24]
	str	r9, [sp, #28]
	bl	_ZSt18make_exception_ptrISt12future_errorENSt15__exception_ptr13exception_ptrET_(PLT)
	ldr	r2, [sp, #32]
	mov	r3, #0
	ldr	r1, [sp, #12]
	mov	r0, r7
	str	r2, [sp, #56]
	str	r3, [sp, #32]
	bl	_ZNSt15__exception_ptr13exception_ptr4swapERS0_(PLT)
	mov	r0, r7
	bl	_ZNSt15__exception_ptr13exception_ptrD1Ev(PLT)
	mov	r0, r6
	bl	_ZNSt15__exception_ptr13exception_ptrD1Ev(PLT)
	mov	r0, r8
	bl	_ZNSt12future_errorD1Ev(PLT)
	ldr	r2, [r5, #4]
	ldr	r3, [r4]
	add	r0, r5, #8
	str	r2, [r4]
	mov	r2, #1
	str	r3, [r5, #4]
	mcr	p15, 0, r0, c7, c10, 5
.L969:
	ldrex	r3, [r0]
	strex	r1, r2, [r0]
	cmp	r1, #0
	bne	.L969
	cmp	r3, #0
	blt	.L972
.L953:
	add	sp, sp, #84
	@ sp needed
	pop	{r4, r5, r6, r7, r8, r9, r10, fp, pc}
.L972:
.LEHB32:
	bl	_ZNSt28__atomic_futex_unsigned_base19_M_futex_notify_allEPj(PLT)
	add	sp, sp, #84
	@ sp needed
	pop	{r4, r5, r6, r7, r8, r9, r10, fp, pc}
.L964:
.L962:
	ldr	r0, [sp, #32]
	add	r6, r6, #8
	cmp	r0, r6
	beq	.L963
	bl	_ZdlPv(PLT)
.L963:
	bl	__cxa_end_cleanup(PLT)
.LEHE32:
.L965:
	ldr	r0, [sp, #56]
	add	r7, r7, #8
	cmp	r0, r7
	beq	.L962
	bl	_ZdlPv(PLT)
	b	.L962
.L974:
	.align	2
.L973:
	.word	_GLOBAL_OFFSET_TABLE_-(.LPIC98+8)
	.word	.LC23-(.LPIC97+8)
	.word	_ZTVSt12future_error(GOT)
	.personality	__gxx_personality_v0
	.handlerdata
.LLSDA6619:
	.byte	0xff
	.byte	0xff
	.byte	0x1
	.uleb128 .LLSDACSE6619-.LLSDACSB6619
.LLSDACSB6619:
	.uleb128 .LEHB29-.LFB6619
	.uleb128 .LEHE29-.LEHB29
	.uleb128 0
	.uleb128 0
	.uleb128 .LEHB30-.LFB6619
	.uleb128 .LEHE30-.LEHB30
	.uleb128 .L964-.LFB6619
	.uleb128 0
	.uleb128 .LEHB31-.LFB6619
	.uleb128 .LEHE31-.LEHB31
	.uleb128 .L965-.LFB6619
	.uleb128 0
	.uleb128 .LEHB32-.LFB6619
	.uleb128 .LEHE32-.LEHB32
	.uleb128 0
	.uleb128 0
.LLSDACSE6619:
	.section	.text._ZNSt13__future_base13_State_baseV216_M_break_promiseESt10unique_ptrINS_12_Result_baseENS2_8_DeleterEE,"axG",%progbits,_ZNSt13__future_base13_State_baseV216_M_break_promiseESt10unique_ptrINS_12_Result_baseENS2_8_DeleterEE,comdat
	.fnend
	.size	_ZNSt13__future_base13_State_baseV216_M_break_promiseESt10unique_ptrINS_12_Result_baseENS2_8_DeleterEE, .-_ZNSt13__future_base13_State_baseV216_M_break_promiseESt10unique_ptrINS_12_Result_baseENS2_8_DeleterEE
	.section	.text._ZNSt8functionIFbRN8opendnp312HeaderWriterEEEC2ERKS4_,"axG",%progbits,_ZNSt8functionIFbRN8opendnp312HeaderWriterEEEC5ERKS4_,comdat
	.align	2
	.weak	_ZNSt8functionIFbRN8opendnp312HeaderWriterEEEC2ERKS4_
	.syntax unified
	.arm
	.fpu vfp
	.type	_ZNSt8functionIFbRN8opendnp312HeaderWriterEEEC2ERKS4_, %function
_ZNSt8functionIFbRN8opendnp312HeaderWriterEEEC2ERKS4_:
	.fnstart
.LFB9225:
	@ args = 0, pretend = 0, frame = 0
	@ frame_needed = 0, uses_anonymous_args = 0
	mov	r3, #0
	push	{r4, r5, r6, lr}
	.save {r4, r5, r6, lr}
	mov	r4, r0
	str	r3, [r0, #8]
	ldr	r3, [r1, #8]
	cmp	r3, #0
	beq	.L982
	mov	r2, #2
	mov	r5, r1
.LEHB33:
	blx	r3
.LEHE33:
	ldr	r2, [r5, #12]
	ldr	r3, [r5, #8]
	str	r2, [r4, #12]
	str	r3, [r4, #8]
.L982:
	mov	r0, r4
	pop	{r4, r5, r6, pc}
.L979:
	ldr	r3, [r4, #8]
	cmp	r3, #0
	beq	.L978
	mov	r2, #3
	mov	r1, r4
	mov	r0, r4
	blx	r3
.L978:
.LEHB34:
	bl	__cxa_end_cleanup(PLT)
.LEHE34:
	.personality	__gxx_personality_v0
	.handlerdata
.LLSDA9225:
	.byte	0xff
	.byte	0xff
	.byte	0x1
	.uleb128 .LLSDACSE9225-.LLSDACSB9225
.LLSDACSB9225:
	.uleb128 .LEHB33-.LFB9225
	.uleb128 .LEHE33-.LEHB33
	.uleb128 .L979-.LFB9225
	.uleb128 0
	.uleb128 .LEHB34-.LFB9225
	.uleb128 .LEHE34-.LEHB34
	.uleb128 0
	.uleb128 0
.LLSDACSE9225:
	.section	.text._ZNSt8functionIFbRN8opendnp312HeaderWriterEEEC2ERKS4_,"axG",%progbits,_ZNSt8functionIFbRN8opendnp312HeaderWriterEEEC5ERKS4_,comdat
	.fnend
	.size	_ZNSt8functionIFbRN8opendnp312HeaderWriterEEEC2ERKS4_, .-_ZNSt8functionIFbRN8opendnp312HeaderWriterEEEC2ERKS4_
	.weak	_ZNSt8functionIFbRN8opendnp312HeaderWriterEEEC1ERKS4_
	.set	_ZNSt8functionIFbRN8opendnp312HeaderWriterEEEC1ERKS4_,_ZNSt8functionIFbRN8opendnp312HeaderWriterEEEC2ERKS4_
	.section	.text._ZNSt8functionIFvRKN8opendnp318ICommandTaskResultEEEC2ERKS5_,"axG",%progbits,_ZNSt8functionIFvRKN8opendnp318ICommandTaskResultEEEC5ERKS5_,comdat
	.align	2
	.weak	_ZNSt8functionIFvRKN8opendnp318ICommandTaskResultEEEC2ERKS5_
	.syntax unified
	.arm
	.fpu vfp
	.type	_ZNSt8functionIFvRKN8opendnp318ICommandTaskResultEEEC2ERKS5_, %function
_ZNSt8functionIFvRKN8opendnp318ICommandTaskResultEEEC2ERKS5_:
	.fnstart
.LFB9318:
	@ args = 0, pretend = 0, frame = 0
	@ frame_needed = 0, uses_anonymous_args = 0
	mov	r3, #0
	push	{r4, r5, r6, lr}
	.save {r4, r5, r6, lr}
	mov	r4, r0
	str	r3, [r0, #8]
	ldr	r3, [r1, #8]
	cmp	r3, #0
	beq	.L995
	mov	r2, #2
	mov	r5, r1
.LEHB35:
	blx	r3
.LEHE35:
	ldr	r2, [r5, #12]
	ldr	r3, [r5, #8]
	str	r2, [r4, #12]
	str	r3, [r4, #8]
.L995:
	mov	r0, r4
	pop	{r4, r5, r6, pc}
.L992:
	ldr	r3, [r4, #8]
	cmp	r3, #0
	beq	.L991
	mov	r2, #3
	mov	r1, r4
	mov	r0, r4
	blx	r3
.L991:
.LEHB36:
	bl	__cxa_end_cleanup(PLT)
.LEHE36:
	.personality	__gxx_personality_v0
	.handlerdata
.LLSDA9318:
	.byte	0xff
	.byte	0xff
	.byte	0x1
	.uleb128 .LLSDACSE9318-.LLSDACSB9318
.LLSDACSB9318:
	.uleb128 .LEHB35-.LFB9318
	.uleb128 .LEHE35-.LEHB35
	.uleb128 .L992-.LFB9318
	.uleb128 0
	.uleb128 .LEHB36-.LFB9318
	.uleb128 .LEHE36-.LEHB36
	.uleb128 0
	.uleb128 0
.LLSDACSE9318:
	.section	.text._ZNSt8functionIFvRKN8opendnp318ICommandTaskResultEEEC2ERKS5_,"axG",%progbits,_ZNSt8functionIFvRKN8opendnp318ICommandTaskResultEEEC5ERKS5_,comdat
	.fnend
	.size	_ZNSt8functionIFvRKN8opendnp318ICommandTaskResultEEEC2ERKS5_, .-_ZNSt8functionIFvRKN8opendnp318ICommandTaskResultEEEC2ERKS5_
	.weak	_ZNSt8functionIFvRKN8opendnp318ICommandTaskResultEEEC1ERKS5_
	.set	_ZNSt8functionIFvRKN8opendnp318ICommandTaskResultEEEC1ERKS5_,_ZNSt8functionIFvRKN8opendnp318ICommandTaskResultEEEC2ERKS5_
	.section	.text._ZNSt16_Sp_counted_baseILN9__gnu_cxx12_Lock_policyE1EE10_M_releaseEv,"axG",%progbits,_ZNSt16_Sp_counted_baseILN9__gnu_cxx12_Lock_policyE1EE10_M_releaseEv,comdat
	.align	2
	.weak	_ZNSt16_Sp_counted_baseILN9__gnu_cxx12_Lock_policyE1EE10_M_releaseEv
	.syntax unified
	.arm
	.fpu vfp
	.type	_ZNSt16_Sp_counted_baseILN9__gnu_cxx12_Lock_policyE1EE10_M_releaseEv, %function
_ZNSt16_Sp_counted_baseILN9__gnu_cxx12_Lock_policyE1EE10_M_releaseEv:
	.fnstart
.LFB9550:
	@ args = 0, pretend = 0, frame = 0
	@ frame_needed = 0, uses_anonymous_args = 0
	ldr	r3, .L1013
	ldr	r2, .L1013+4
.LPIC99:
	add	r3, pc, r3
	push	{r4, r5, r6, lr}
	mov	r4, r0
	ldr	r3, [r3, r2]
	cmp	r3, #0
	beq	.L1002
	add	r3, r0, #28
	mcr	p15, 0, r0, c7, c10, 5
.L1009:
	ldrex	r2, [r3]
	sub	r1, r2, #1
	strex	ip, r1, [r3]
	cmp	ip, #0
	bne	.L1009
	cmp	r2, #1
	mcr	p15, 0, r0, c7, c10, 5
	popne	{r4, r5, r6, pc}
	mov	r5, r4
	ldr	r3, [r5], #32
	ldr	r3, [r3, #8]
	blx	r3
	mcr	p15, 0, r0, c7, c10, 5
	mcr	p15, 0, r0, c7, c10, 5
.L1008:
	ldrex	r3, [r5]
	sub	r2, r3, #1
	strex	r1, r2, [r5]
	cmp	r1, #0
	bne	.L1008
	mcr	p15, 0, r0, c7, c10, 5
.L1007:
	cmp	r3, #1
	popne	{r4, r5, r6, pc}
	ldr	r3, [r4]
	mov	r0, r4
	pop	{r4, r5, r6, lr}
	ldr	r3, [r3, #12]
	bx	r3	@ indirect register sibling call
.L1002:
	ldr	r3, [r0, #28]
	cmp	r3, #1
	sub	r3, r3, #1
	str	r3, [r0, #28]
	popne	{r4, r5, r6, pc}
	ldr	r3, [r0]
	ldr	r3, [r3, #8]
	blx	r3
	mcr	p15, 0, r0, c7, c10, 5
	ldr	r3, [r4, #32]
	sub	r2, r3, #1
	str	r2, [r4, #32]
	b	.L1007
.L1014:
	.align	2
.L1013:
	.word	_GLOBAL_OFFSET_TABLE_-(.LPIC99+8)
	.word	_ZL28__gthrw___pthread_key_createPjPFvPvE(GOT)
	.cantunwind
	.fnend
	.size	_ZNSt16_Sp_counted_baseILN9__gnu_cxx12_Lock_policyE1EE10_M_releaseEv, .-_ZNSt16_Sp_counted_baseILN9__gnu_cxx12_Lock_policyE1EE10_M_releaseEv
	.text
	.align	2
	.syntax unified
	.arm
	.fpu vfp
	.type	_ZNSt14_Function_base13_Base_managerIZN8asiodnp311MasterStack6EnableEvEUlvE_E10_M_managerERSt9_Any_dataRKS5_St18_Manager_operation, %function
_ZNSt14_Function_base13_Base_managerIZN8asiodnp311MasterStack6EnableEvEUlvE_E10_M_managerERSt9_Any_dataRKS5_St18_Manager_operation:
	.fnstart
.LFB9765:
	@ args = 0, pretend = 0, frame = 0
	@ frame_needed = 0, uses_anonymous_args = 0
	push	{r4, r5, r6, lr}
	.save {r4, r5, r6, lr}
	mov	r4, r0
	cmp	r2, #3
	addls	pc, pc, r2, asl #2
	b	.L1016
.L1018:
	b	.L1017
	b	.L1019
	b	.L1020
	b	.L1021
	.p2align 1
.L1021:
	ldr	r4, [r0]
	cmp	r4, #0
	beq	.L1016
	ldr	r0, [r4, #4]
	cmp	r0, #0
	beq	.L1022
	bl	_ZNSt16_Sp_counted_baseILN9__gnu_cxx12_Lock_policyE1EE10_M_releaseEv(PLT)
.L1022:
	mov	r0, r4
	mov	r1, #8
	bl	_ZdlPvj(PLT)
.L1016:
	mov	r0, #0
	pop	{r4, r5, r6, pc}
.L1020:
	mov	r0, #8
	ldr	r6, [r1]
	bl	_Znwj(PLT)
	mov	r1, r6
	mov	r5, r0
	bl	_ZNSt12__shared_ptrIN8asiodnp311MasterStackELN9__gnu_cxx12_Lock_policyE1EEC2ERKS4_(PLT)
	str	r5, [r4]
	mov	r0, #0
	pop	{r4, r5, r6, pc}
.L1019:
	ldr	r3, [r1]
	str	r3, [r0]
	mov	r0, #0
	pop	{r4, r5, r6, pc}
.L1017:
	ldr	r3, .L1030
.LPIC100:
	add	r3, pc, r3
	str	r3, [r0]
	mov	r0, #0
	pop	{r4, r5, r6, pc}
.L1031:
	.align	2
.L1030:
	.word	.LANCHOR0-(.LPIC100+8)
	.fnend
	.size	_ZNSt14_Function_base13_Base_managerIZN8asiodnp311MasterStack6EnableEvEUlvE_E10_M_managerERSt9_Any_dataRKS5_St18_Manager_operation, .-_ZNSt14_Function_base13_Base_managerIZN8asiodnp311MasterStack6EnableEvEUlvE_E10_M_managerERSt9_Any_dataRKS5_St18_Manager_operation
	.align	2
	.syntax unified
	.arm
	.fpu vfp
	.type	_ZNSt14_Function_base13_Base_managerIZN8asiodnp311MasterStack7DisableEvEUlvE_E10_M_managerERSt9_Any_dataRKS5_St18_Manager_operation, %function
_ZNSt14_Function_base13_Base_managerIZN8asiodnp311MasterStack7DisableEvEUlvE_E10_M_managerERSt9_Any_dataRKS5_St18_Manager_operation:
	.fnstart
.LFB9787:
	@ args = 0, pretend = 0, frame = 0
	@ frame_needed = 0, uses_anonymous_args = 0
	push	{r4, r5, r6, lr}
	.save {r4, r5, r6, lr}
	mov	r4, r0
	cmp	r2, #3
	addls	pc, pc, r2, asl #2
	b	.L1033
.L1035:
	b	.L1034
	b	.L1036
	b	.L1037
	b	.L1038
	.p2align 1
.L1038:
	ldr	r4, [r0]
	cmp	r4, #0
	beq	.L1033
	ldr	r0, [r4, #4]
	cmp	r0, #0
	beq	.L1039
	bl	_ZNSt16_Sp_counted_baseILN9__gnu_cxx12_Lock_policyE1EE10_M_releaseEv(PLT)
.L1039:
	mov	r0, r4
	mov	r1, #8
	bl	_ZdlPvj(PLT)
.L1033:
	mov	r0, #0
	pop	{r4, r5, r6, pc}
.L1037:
	mov	r0, #8
	ldr	r6, [r1]
	bl	_Znwj(PLT)
	mov	r1, r6
	mov	r5, r0
	bl	_ZNSt12__shared_ptrIN8asiodnp311MasterStackELN9__gnu_cxx12_Lock_policyE1EEC2ERKS4_(PLT)
	str	r5, [r4]
	mov	r0, #0
	pop	{r4, r5, r6, pc}
.L1036:
	ldr	r3, [r1]
	str	r3, [r0]
	mov	r0, #0
	pop	{r4, r5, r6, pc}
.L1034:
	ldr	r3, .L1047
.LPIC101:
	add	r3, pc, r3
	add	r3, r3, #8
	str	r3, [r0]
	mov	r0, #0
	pop	{r4, r5, r6, pc}
.L1048:
	.align	2
.L1047:
	.word	.LANCHOR0-(.LPIC101+8)
	.fnend
	.size	_ZNSt14_Function_base13_Base_managerIZN8asiodnp311MasterStack7DisableEvEUlvE_E10_M_managerERSt9_Any_dataRKS5_St18_Manager_operation, .-_ZNSt14_Function_base13_Base_managerIZN8asiodnp311MasterStack7DisableEvEUlvE_E10_M_managerERSt9_Any_dataRKS5_St18_Manager_operation
	.align	2
	.syntax unified
	.arm
	.fpu vfp
	.type	_ZNSt14_Function_base13_Base_managerIZN8asiodnp311MasterStack18GetStackStatisticsEvEUlvE_E10_M_managerERSt9_Any_dataRKS5_St18_Manager_operation, %function
_ZNSt14_Function_base13_Base_managerIZN8asiodnp311MasterStack18GetStackStatisticsEvEUlvE_E10_M_managerERSt9_Any_dataRKS5_St18_Manager_operation:
	.fnstart
.LFB9806:
	@ args = 0, pretend = 0, frame = 0
	@ frame_needed = 0, uses_anonymous_args = 0
	push	{r4, r5, r6, lr}
	.save {r4, r5, r6, lr}
	mov	r4, r0
	cmp	r2, #3
	addls	pc, pc, r2, asl #2
	b	.L1050
.L1052:
	b	.L1051
	b	.L1053
	b	.L1054
	b	.L1055
	.p2align 1
.L1055:
	ldr	r4, [r0]
	cmp	r4, #0
	beq	.L1050
	ldr	r0, [r4, #4]
	cmp	r0, #0
	beq	.L1056
	bl	_ZNSt16_Sp_counted_baseILN9__gnu_cxx12_Lock_policyE1EE10_M_releaseEv(PLT)
.L1056:
	mov	r0, r4
	mov	r1, #8
	bl	_ZdlPvj(PLT)
.L1050:
	mov	r0, #0
	pop	{r4, r5, r6, pc}
.L1054:
	mov	r0, #8
	ldr	r6, [r1]
	bl	_Znwj(PLT)
	mov	r1, r6
	mov	r5, r0
	bl	_ZNSt12__shared_ptrIN8asiodnp311MasterStackELN9__gnu_cxx12_Lock_policyE1EEC2ERKS4_(PLT)
	str	r5, [r4]
	mov	r0, #0
	pop	{r4, r5, r6, pc}
.L1053:
	ldr	r3, [r1]
	str	r3, [r0]
	mov	r0, #0
	pop	{r4, r5, r6, pc}
.L1051:
	ldr	r3, .L1064
.LPIC102:
	add	r3, pc, r3
	add	r3, r3, #16
	str	r3, [r0]
	mov	r0, #0
	pop	{r4, r5, r6, pc}
.L1065:
	.align	2
.L1064:
	.word	.LANCHOR0-(.LPIC102+8)
	.fnend
	.size	_ZNSt14_Function_base13_Base_managerIZN8asiodnp311MasterStack18GetStackStatisticsEvEUlvE_E10_M_managerERSt9_Any_dataRKS5_St18_Manager_operation, .-_ZNSt14_Function_base13_Base_managerIZN8asiodnp311MasterStack18GetStackStatisticsEvEUlvE_E10_M_managerERSt9_Any_dataRKS5_St18_Manager_operation
	.align	2
	.syntax unified
	.arm
	.fpu vfp
	.type	_ZNSt14_Function_base13_Base_managerIZN8asiodnp311MasterStack17AddAllObjectsScanEN8opendnp316GroupVariationIDEN7openpal12TimeDurationERKNS3_10TaskConfigEEUlvE_E10_M_managerERSt9_Any_dataRKSC_St18_Manager_operation, %function
_ZNSt14_Function_base13_Base_managerIZN8asiodnp311MasterStack17AddAllObjectsScanEN8opendnp316GroupVariationIDEN7openpal12TimeDurationERKNS3_10TaskConfigEEUlvE_E10_M_managerERSt9_Any_dataRKSC_St18_Manager_operation:
	.fnstart
.LFB9879:
	@ args = 0, pretend = 0, frame = 0
	@ frame_needed = 0, uses_anonymous_args = 0
	push	{r4, r5, r6, r7, r8, lr}
	.save {r4, r5, r6, r7, r8, lr}
	mov	r4, r0
	cmp	r2, #3
	addls	pc, pc, r2, asl #2
	b	.L1067
.L1069:
	b	.L1068
	b	.L1070
	b	.L1071
	b	.L1072
	.p2align 1
.L1072:
	ldr	r4, [r0]
	cmp	r4, #0
	beq	.L1067
	ldr	r0, [r4, #4]
	cmp	r0, #0
	beq	.L1073
	bl	_ZNSt16_Sp_counted_baseILN9__gnu_cxx12_Lock_policyE1EE10_M_releaseEv(PLT)
.L1073:
	mov	r0, r4
	mov	r1, #40
	bl	_ZdlPvj(PLT)
.L1067:
	mov	r0, #0
	pop	{r4, r5, r6, r7, r8, pc}
.L1071:
	mov	r0, #40
	ldr	r6, [r1]
	bl	_Znwj(PLT)
	mov	r1, r6
	mov	r5, r0
	bl	_ZNSt12__shared_ptrIN8asiodnp311MasterStackELN9__gnu_cxx12_Lock_policyE1EEC2ERKS4_(PLT)
	add	r3, r6, #24
	ldrh	ip, [r6, #8]
	ldm	r3, {r0, r1, r2}
	add	r3, r5, #24
	ldrd	r6, [r6, #16]
	strh	ip, [r5, #8]	@ movhi
	str	r5, [r4]
	strd	r6, [r5, #16]
	stm	r3, {r0, r1, r2}
	mov	r0, #0
	pop	{r4, r5, r6, r7, r8, pc}
.L1070:
	ldr	r3, [r1]
	str	r3, [r0]
	mov	r0, #0
	pop	{r4, r5, r6, r7, r8, pc}
.L1068:
	ldr	r3, .L1081
.LPIC103:
	add	r3, pc, r3
	add	r3, r3, #24
	str	r3, [r0]
	mov	r0, #0
	pop	{r4, r5, r6, r7, r8, pc}
.L1082:
	.align	2
.L1081:
	.word	.LANCHOR0-(.LPIC103+8)
	.fnend
	.size	_ZNSt14_Function_base13_Base_managerIZN8asiodnp311MasterStack17AddAllObjectsScanEN8opendnp316GroupVariationIDEN7openpal12TimeDurationERKNS3_10TaskConfigEEUlvE_E10_M_managerERSt9_Any_dataRKSC_St18_Manager_operation, .-_ZNSt14_Function_base13_Base_managerIZN8asiodnp311MasterStack17AddAllObjectsScanEN8opendnp316GroupVariationIDEN7openpal12TimeDurationERKNS3_10TaskConfigEEUlvE_E10_M_managerERSt9_Any_dataRKSC_St18_Manager_operation
	.align	2
	.syntax unified
	.arm
	.fpu vfp
	.type	_ZNSt14_Function_base13_Base_managerIZN8asiodnp311MasterStack12AddClassScanERKN8opendnp310ClassFieldEN7openpal12TimeDurationERKNS3_10TaskConfigEEUlvE_E10_M_managerERSt9_Any_dataRKSE_St18_Manager_operation, %function
_ZNSt14_Function_base13_Base_managerIZN8asiodnp311MasterStack12AddClassScanERKN8opendnp310ClassFieldEN7openpal12TimeDurationERKNS3_10TaskConfigEEUlvE_E10_M_managerERSt9_Any_dataRKSE_St18_Manager_operation:
	.fnstart
.LFB9883:
	@ args = 0, pretend = 0, frame = 0
	@ frame_needed = 0, uses_anonymous_args = 0
	push	{r4, r5, r6, r7, r8, lr}
	.save {r4, r5, r6, r7, r8, lr}
	mov	r4, r0
	cmp	r2, #3
	addls	pc, pc, r2, asl #2
	b	.L1084
.L1086:
	b	.L1085
	b	.L1087
	b	.L1088
	b	.L1089
	.p2align 1
.L1089:
	ldr	r4, [r0]
	cmp	r4, #0
	beq	.L1084
	ldr	r0, [r4, #4]
	cmp	r0, #0
	beq	.L1090
	bl	_ZNSt16_Sp_counted_baseILN9__gnu_cxx12_Lock_policyE1EE10_M_releaseEv(PLT)
.L1090:
	mov	r0, r4
	mov	r1, #40
	bl	_ZdlPvj(PLT)
.L1084:
	mov	r0, #0
	pop	{r4, r5, r6, r7, r8, pc}
.L1088:
	mov	r0, #40
	ldr	r6, [r1]
	bl	_Znwj(PLT)
	mov	r1, r6
	mov	r5, r0
	bl	_ZNSt12__shared_ptrIN8asiodnp311MasterStackELN9__gnu_cxx12_Lock_policyE1EEC2ERKS4_(PLT)
	add	r3, r6, #24
	ldrb	ip, [r6, #8]	@ zero_extendqisi2
	ldm	r3, {r0, r1, r2}
	add	r3, r5, #24
	ldrd	r6, [r6, #16]
	strb	ip, [r5, #8]
	str	r5, [r4]
	strd	r6, [r5, #16]
	stm	r3, {r0, r1, r2}
	mov	r0, #0
	pop	{r4, r5, r6, r7, r8, pc}
.L1087:
	ldr	r3, [r1]
	str	r3, [r0]
	mov	r0, #0
	pop	{r4, r5, r6, r7, r8, pc}
.L1085:
	ldr	r3, .L1098
.LPIC104:
	add	r3, pc, r3
	add	r3, r3, #32
	str	r3, [r0]
	mov	r0, #0
	pop	{r4, r5, r6, r7, r8, pc}
.L1099:
	.align	2
.L1098:
	.word	.LANCHOR0-(.LPIC104+8)
	.fnend
	.size	_ZNSt14_Function_base13_Base_managerIZN8asiodnp311MasterStack12AddClassScanERKN8opendnp310ClassFieldEN7openpal12TimeDurationERKNS3_10TaskConfigEEUlvE_E10_M_managerERSt9_Any_dataRKSE_St18_Manager_operation, .-_ZNSt14_Function_base13_Base_managerIZN8asiodnp311MasterStack12AddClassScanERKN8opendnp310ClassFieldEN7openpal12TimeDurationERKNS3_10TaskConfigEEUlvE_E10_M_managerERSt9_Any_dataRKSE_St18_Manager_operation
	.align	2
	.syntax unified
	.arm
	.fpu vfp
	.type	_ZNSt14_Function_base13_Base_managerIZN8asiodnp311MasterStack12AddRangeScanEN8opendnp316GroupVariationIDEttN7openpal12TimeDurationERKNS3_10TaskConfigEEUlvE_E10_M_managerERSt9_Any_dataRKSC_St18_Manager_operation, %function
_ZNSt14_Function_base13_Base_managerIZN8asiodnp311MasterStack12AddRangeScanEN8opendnp316GroupVariationIDEttN7openpal12TimeDurationERKNS3_10TaskConfigEEUlvE_E10_M_managerERSt9_Any_dataRKSC_St18_Manager_operation:
	.fnstart
.LFB9887:
	@ args = 0, pretend = 0, frame = 0
	@ frame_needed = 0, uses_anonymous_args = 0
	push	{r4, r5, r6, r7, r8, lr}
	.save {r4, r5, r6, r7, r8, lr}
	mov	r4, r0
	cmp	r2, #3
	addls	pc, pc, r2, asl #2
	b	.L1101
.L1103:
	b	.L1102
	b	.L1104
	b	.L1105
	b	.L1106
	.p2align 1
.L1106:
	ldr	r4, [r0]
	cmp	r4, #0
	beq	.L1101
	ldr	r0, [r4, #4]
	cmp	r0, #0
	beq	.L1107
	bl	_ZNSt16_Sp_counted_baseILN9__gnu_cxx12_Lock_policyE1EE10_M_releaseEv(PLT)
.L1107:
	mov	r0, r4
	mov	r1, #40
	bl	_ZdlPvj(PLT)
.L1101:
	mov	r0, #0
	pop	{r4, r5, r6, r7, r8, pc}
.L1105:
	mov	r0, #40
	ldr	r6, [r1]
	bl	_Znwj(PLT)
	mov	r1, r6
	mov	r5, r0
	bl	_ZNSt12__shared_ptrIN8asiodnp311MasterStackELN9__gnu_cxx12_Lock_policyE1EEC2ERKS4_(PLT)
	ldrh	ip, [r6, #8]
	add	r3, r6, #24
	ldrh	lr, [r6, #10]
	ldm	r3, {r0, r1, r2}
	add	r3, r5, #24
	strh	ip, [r5, #8]	@ movhi
	ldrh	ip, [r6, #12]
	ldrd	r6, [r6, #16]
	strh	lr, [r5, #10]	@ movhi
	strh	ip, [r5, #12]	@ movhi
	strd	r6, [r5, #16]
	str	r5, [r4]
	stm	r3, {r0, r1, r2}
	mov	r0, #0
	pop	{r4, r5, r6, r7, r8, pc}
.L1104:
	ldr	r3, [r1]
	str	r3, [r0]
	mov	r0, #0
	pop	{r4, r5, r6, r7, r8, pc}
.L1102:
	ldr	r3, .L1115
.LPIC105:
	add	r3, pc, r3
	add	r3, r3, #40
	str	r3, [r0]
	mov	r0, #0
	pop	{r4, r5, r6, r7, r8, pc}
.L1116:
	.align	2
.L1115:
	.word	.LANCHOR0-(.LPIC105+8)
	.fnend
	.size	_ZNSt14_Function_base13_Base_managerIZN8asiodnp311MasterStack12AddRangeScanEN8opendnp316GroupVariationIDEttN7openpal12TimeDurationERKNS3_10TaskConfigEEUlvE_E10_M_managerERSt9_Any_dataRKSC_St18_Manager_operation, .-_ZNSt14_Function_base13_Base_managerIZN8asiodnp311MasterStack12AddRangeScanEN8opendnp316GroupVariationIDEttN7openpal12TimeDurationERKNS3_10TaskConfigEEUlvE_E10_M_managerERSt9_Any_dataRKSC_St18_Manager_operation
	.align	2
	.syntax unified
	.arm
	.fpu vfp
	.type	_ZNSt17_Function_handlerIFbvEZN8asiodnp311MasterStack6EnableEvEUlvE_E9_M_invokeERKSt9_Any_data, %function
_ZNSt17_Function_handlerIFbvEZN8asiodnp311MasterStack6EnableEvEUlvE_E9_M_invokeERKSt9_Any_data:
	.fnstart
.LFB9764:
	@ args = 0, pretend = 0, frame = 8
	@ frame_needed = 0, uses_anonymous_args = 0
	ldr	r3, [r0]
	push	{r4, r5, r6, lr}
	.save {r4, r5, r6, lr}
	.pad #8
	sub	sp, sp, #8
	ldm	r3, {r2, r3}
	ldr	r4, .L1144
	add	r1, r2, #8
	cmp	r3, #0
.LPIC106:
	add	r4, pc, r4
	stm	sp, {r1, r3}
	ldr	r0, [r2, #52]
	beq	.L1118
	ldr	r2, .L1144+4
	ldr	r2, [r4, r2]
	cmp	r2, #0
	beq	.L1119
	add	r3, r3, #28
	mcr	p15, 0, r0, c7, c10, 5
.L1139:
	ldrex	r2, [r3]
	add	r2, r2, #1
	strex	r1, r2, [r3]
	cmp	r1, #0
	bne	.L1139
	mcr	p15, 0, r0, c7, c10, 5
.L1118:
	mov	r1, sp
.LEHB37:
	bl	_ZN8asiodnp39IOHandler6EnableERKSt10shared_ptrIN8opendnp312ILinkSessionEE(PLT)
.LEHE37:
	ldr	r5, [sp, #4]
	mov	r6, r0
	cmp	r5, #0
	beq	.L1130
	ldr	r3, .L1144+4
	ldr	r3, [r4, r3]
	cmp	r3, #0
	beq	.L1122
	add	r3, r5, #28
	mcr	p15, 0, r0, c7, c10, 5
.L1138:
	ldrex	r2, [r3]
	sub	r1, r2, #1
	strex	r0, r1, [r3]
	cmp	r0, #0
	bne	.L1138
	cmp	r2, #1
	mcr	p15, 0, r0, c7, c10, 5
	beq	.L1143
.L1130:
	mov	r0, r6
	add	sp, sp, #8
	@ sp needed
	pop	{r4, r5, r6, pc}
.L1119:
	ldr	r2, [r3, #28]
	add	r2, r2, #1
	str	r2, [r3, #28]
	b	.L1118
.L1122:
	ldr	r3, [r5, #28]
	cmp	r3, #1
	sub	r3, r3, #1
	str	r3, [r5, #28]
	bne	.L1130
	ldr	r3, [r5]
	mov	r0, r5
	ldr	r3, [r3, #8]
	blx	r3
	mcr	p15, 0, r0, c7, c10, 5
	ldr	r2, [r5, #32]
	sub	r3, r2, #1
	str	r3, [r5, #32]
	b	.L1128
.L1143:
	ldr	r3, [r5]
	mov	r0, r5
	ldr	r3, [r3, #8]
	blx	r3
	add	r3, r5, #32
	mcr	p15, 0, r0, c7, c10, 5
	mcr	p15, 0, r0, c7, c10, 5
.L1137:
	ldrex	r2, [r3]
	sub	r1, r2, #1
	strex	r0, r1, [r3]
	cmp	r0, #0
	bne	.L1137
	mcr	p15, 0, r0, c7, c10, 5
.L1128:
	cmp	r2, #1
	bne	.L1130
	ldr	r3, [r5]
	mov	r0, r5
	ldr	r3, [r3, #12]
	blx	r3
	b	.L1130
.L1129:
	ldr	r0, [sp, #4]
	cmp	r0, #0
	beq	.L1127
	bl	_ZNSt16_Sp_counted_baseILN9__gnu_cxx12_Lock_policyE1EE10_M_releaseEv(PLT)
.L1127:
.LEHB38:
	bl	__cxa_end_cleanup(PLT)
.LEHE38:
.L1145:
	.align	2
.L1144:
	.word	_GLOBAL_OFFSET_TABLE_-(.LPIC106+8)
	.word	_ZL28__gthrw___pthread_key_createPjPFvPvE(GOT)
	.personality	__gxx_personality_v0
	.handlerdata
.LLSDA9764:
	.byte	0xff
	.byte	0xff
	.byte	0x1
	.uleb128 .LLSDACSE9764-.LLSDACSB9764
.LLSDACSB9764:
	.uleb128 .LEHB37-.LFB9764
	.uleb128 .LEHE37-.LEHB37
	.uleb128 .L1129-.LFB9764
	.uleb128 0
	.uleb128 .LEHB38-.LFB9764
	.uleb128 .LEHE38-.LEHB38
	.uleb128 0
	.uleb128 0
.LLSDACSE9764:
	.text
	.fnend
	.size	_ZNSt17_Function_handlerIFbvEZN8asiodnp311MasterStack6EnableEvEUlvE_E9_M_invokeERKSt9_Any_data, .-_ZNSt17_Function_handlerIFbvEZN8asiodnp311MasterStack6EnableEvEUlvE_E9_M_invokeERKSt9_Any_data
	.align	2
	.syntax unified
	.arm
	.fpu vfp
	.type	_ZNSt17_Function_handlerIFbvEZN8asiodnp311MasterStack7DisableEvEUlvE_E9_M_invokeERKSt9_Any_data, %function
_ZNSt17_Function_handlerIFbvEZN8asiodnp311MasterStack7DisableEvEUlvE_E9_M_invokeERKSt9_Any_data:
	.fnstart
.LFB9786:
	@ args = 0, pretend = 0, frame = 8
	@ frame_needed = 0, uses_anonymous_args = 0
	ldr	r3, [r0]
	push	{r4, r5, r6, lr}
	.save {r4, r5, r6, lr}
	.pad #8
	sub	sp, sp, #8
	ldm	r3, {r2, r3}
	ldr	r4, .L1173
	add	r1, r2, #8
	cmp	r3, #0
.LPIC107:
	add	r4, pc, r4
	stm	sp, {r1, r3}
	ldr	r0, [r2, #52]
	beq	.L1147
	ldr	r2, .L1173+4
	ldr	r2, [r4, r2]
	cmp	r2, #0
	beq	.L1148
	add	r3, r3, #28
	mcr	p15, 0, r0, c7, c10, 5
.L1168:
	ldrex	r2, [r3]
	add	r2, r2, #1
	strex	r1, r2, [r3]
	cmp	r1, #0
	bne	.L1168
	mcr	p15, 0, r0, c7, c10, 5
.L1147:
	mov	r1, sp
.LEHB39:
	bl	_ZN8asiodnp39IOHandler7DisableERKSt10shared_ptrIN8opendnp312ILinkSessionEE(PLT)
.LEHE39:
	ldr	r5, [sp, #4]
	mov	r6, r0
	cmp	r5, #0
	beq	.L1159
	ldr	r3, .L1173+4
	ldr	r3, [r4, r3]
	cmp	r3, #0
	beq	.L1151
	add	r3, r5, #28
	mcr	p15, 0, r0, c7, c10, 5
.L1167:
	ldrex	r2, [r3]
	sub	r1, r2, #1
	strex	r0, r1, [r3]
	cmp	r0, #0
	bne	.L1167
	cmp	r2, #1
	mcr	p15, 0, r0, c7, c10, 5
	beq	.L1172
.L1159:
	mov	r0, r6
	add	sp, sp, #8
	@ sp needed
	pop	{r4, r5, r6, pc}
.L1148:
	ldr	r2, [r3, #28]
	add	r2, r2, #1
	str	r2, [r3, #28]
	b	.L1147
.L1151:
	ldr	r3, [r5, #28]
	cmp	r3, #1
	sub	r3, r3, #1
	str	r3, [r5, #28]
	bne	.L1159
	ldr	r3, [r5]
	mov	r0, r5
	ldr	r3, [r3, #8]
	blx	r3
	mcr	p15, 0, r0, c7, c10, 5
	ldr	r2, [r5, #32]
	sub	r3, r2, #1
	str	r3, [r5, #32]
	b	.L1157
.L1172:
	ldr	r3, [r5]
	mov	r0, r5
	ldr	r3, [r3, #8]
	blx	r3
	add	r3, r5, #32
	mcr	p15, 0, r0, c7, c10, 5
	mcr	p15, 0, r0, c7, c10, 5
.L1166:
	ldrex	r2, [r3]
	sub	r1, r2, #1
	strex	r0, r1, [r3]
	cmp	r0, #0
	bne	.L1166
	mcr	p15, 0, r0, c7, c10, 5
.L1157:
	cmp	r2, #1
	bne	.L1159
	ldr	r3, [r5]
	mov	r0, r5
	ldr	r3, [r3, #12]
	blx	r3
	b	.L1159
.L1158:
	ldr	r0, [sp, #4]
	cmp	r0, #0
	beq	.L1156
	bl	_ZNSt16_Sp_counted_baseILN9__gnu_cxx12_Lock_policyE1EE10_M_releaseEv(PLT)
.L1156:
.LEHB40:
	bl	__cxa_end_cleanup(PLT)
.LEHE40:
.L1174:
	.align	2
.L1173:
	.word	_GLOBAL_OFFSET_TABLE_-(.LPIC107+8)
	.word	_ZL28__gthrw___pthread_key_createPjPFvPvE(GOT)
	.personality	__gxx_personality_v0
	.handlerdata
.LLSDA9786:
	.byte	0xff
	.byte	0xff
	.byte	0x1
	.uleb128 .LLSDACSE9786-.LLSDACSB9786
.LLSDACSB9786:
	.uleb128 .LEHB39-.LFB9786
	.uleb128 .LEHE39-.LEHB39
	.uleb128 .L1158-.LFB9786
	.uleb128 0
	.uleb128 .LEHB40-.LFB9786
	.uleb128 .LEHE40-.LEHB40
	.uleb128 0
	.uleb128 0
.LLSDACSE9786:
	.text
	.fnend
	.size	_ZNSt17_Function_handlerIFbvEZN8asiodnp311MasterStack7DisableEvEUlvE_E9_M_invokeERKSt9_Any_data, .-_ZNSt17_Function_handlerIFbvEZN8asiodnp311MasterStack7DisableEvEUlvE_E9_M_invokeERKSt9_Any_data
	.align	2
	.global	_ZN8asiodnp311MasterStack13SetLogFiltersERKN7openpal10LogFiltersE
	.syntax unified
	.arm
	.fpu vfp
	.type	_ZN8asiodnp311MasterStack13SetLogFiltersERKN7openpal10LogFiltersE, %function
_ZN8asiodnp311MasterStack13SetLogFiltersERKN7openpal10LogFiltersE:
	.fnstart
.LFB8103:
	@ args = 0, pretend = 0, frame = 32
	@ frame_needed = 0, uses_anonymous_args = 0
	push	{r4, r5, r6, r7, r8, r9, r10, lr}
	.save {r4, r5, r6, r7, r8, r9, r10, lr}
	.pad #32
	sub	sp, sp, #32
	ldr	r4, [r0, #24]
	ldr	r6, .L1228
	cmp	r4, #0
.LPIC108:
	add	r6, pc, r6
	beq	.L1176
	mov	r5, r0
	mov	r7, r1
	mov	r0, r4
.LEHB41:
	bl	_ZNSt16_Sp_counted_baseILN9__gnu_cxx12_Lock_policyE1EE15_M_add_ref_lockEv(PLT)
.LEHE41:
	ldr	r3, .L1228+4
	ldr	r1, [r7]
	ldr	r2, [r5, #20]
	str	r1, [sp, #12]
	str	r4, [sp, #20]
	str	r2, [sp, #16]
	ldr	r7, [r6, r3]
	ldr	r5, [r5, #44]
	cmp	r7, #0
	add	r8, r4, #28
	beq	.L1177
	mcr	p15, 0, r0, c7, c10, 5
.L1217:
	ldrex	r3, [r8]
	add	r3, r3, #1
	strex	r2, r3, [r8]
	cmp	r2, #0
	bne	.L1217
	mcr	p15, 0, r0, c7, c10, 5
	ldr	r3, [sp, #12]
.L1178:
	add	r0, sp, #16
	str	r3, [sp, #24]
	bl	_ZN4asio28asio_handler_is_continuationEz(PLT)
	ldr	r3, .L1228+8
	ldr	r9, [r5, #20]
	add	r5, r5, #24
	ldr	r3, [r6, r3]
	mov	r10, r0
	ldr	r0, [r3]
	bl	pthread_getspecific(PLT)
	cmp	r0, #0
	beq	.L1179
	ldr	r3, [r0, #4]
	cmp	r3, #0
	beq	.L1179
	ldr	r2, [r3]
	cmp	r2, #0
	beq	.L1179
	mov	r1, #0
	str	r1, [r3]
	ldrb	r3, [r2]	@ zero_extendqisi2
	cmp	r3, #23
	bls	.L1224
.L1219:
	ldr	ip, .L1228+12
	strb	r3, [r2, #24]
	ldr	r6, [sp, #20]
	ldr	lr, [sp, #16]
.LPIC109:
	add	ip, pc, ip
	mov	r1, r5
	ldr	r5, [sp, #24]
	str	ip, [r2, #4]
	mov	ip, #0
	str	ip, [r2]
	str	r5, [r2, #20]
	mov	r3, r10
	add	r0, r9, #20
	str	ip, [r2, #8]
	str	r6, [r2, #16]
	str	lr, [r2, #12]
	str	ip, [sp, #20]
	str	ip, [sp, #16]
	bl	_ZN4asio6detail14strand_service7do_postERPNS1_11strand_implEPNS0_25task_io_service_operationEb.isra.77(PLT)
	ldr	r5, [sp, #20]
	cmp	r5, #0
	beq	.L1183
	cmp	r7, #0
	beq	.L1184
	add	r3, r5, #28
	mcr	p15, 0, r0, c7, c10, 5
.L1216:
	ldrex	r2, [r3]
	sub	r1, r2, #1
	strex	r0, r1, [r3]
	cmp	r0, #0
	bne	.L1216
	cmp	r2, #1
	mcr	p15, 0, r0, c7, c10, 5
	beq	.L1225
.L1190:
	mcr	p15, 0, r0, c7, c10, 5
.L1215:
	ldrex	r3, [r8]
	sub	r2, r3, #1
	strex	r1, r2, [r8]
	cmp	r1, #0
	bne	.L1215
	cmp	r3, #1
	mcr	p15, 0, r0, c7, c10, 5
	beq	.L1226
.L1175:
	add	sp, sp, #32
	@ sp needed
	pop	{r4, r5, r6, r7, r8, r9, r10, pc}
.L1224:
	mov	r0, r2
	bl	_ZdlPv(PLT)
.L1179:
	mov	r0, #25
.LEHB42:
	bl	_Znwj(PLT)
.LEHE42:
	mov	r2, r0
	mov	r3, #24
	b	.L1219
.L1177:
	ldr	r3, [r4, #28]
	add	r3, r3, #1
	str	r3, [r4, #28]
	mov	r3, r1
	b	.L1178
.L1184:
	ldr	r3, [r5, #28]
	cmp	r3, #1
	sub	r3, r3, #1
	str	r3, [r5, #28]
	beq	.L1227
.L1191:
	ldr	r3, [r4, #28]
	cmp	r3, #1
	sub	r3, r3, #1
	str	r3, [r4, #28]
	bne	.L1175
	ldr	r3, [r4]
	mov	r0, r4
	ldr	r3, [r3, #8]
	blx	r3
	mcr	p15, 0, r0, c7, c10, 5
	ldr	r2, [r4, #32]
	sub	r3, r2, #1
	str	r3, [r4, #32]
	b	.L1199
.L1225:
	ldr	r3, [r5]
	mov	r0, r5
	ldr	r3, [r3, #8]
	blx	r3
	add	r3, r5, #32
	mcr	p15, 0, r0, c7, c10, 5
	mcr	p15, 0, r0, c7, c10, 5
.L1214:
	ldrex	r2, [r3]
	sub	r1, r2, #1
	strex	r0, r1, [r3]
	cmp	r0, #0
	bne	.L1214
	mcr	p15, 0, r0, c7, c10, 5
.L1198:
	cmp	r2, #1
	bne	.L1183
	ldr	r3, [r5]
	mov	r0, r5
	ldr	r3, [r3, #12]
	blx	r3
.L1183:
	cmp	r7, #0
	bne	.L1190
	b	.L1191
.L1226:
	ldr	r3, [r4]
	mov	r0, r4
	ldr	r3, [r3, #8]
	blx	r3
	add	r3, r4, #32
	mcr	p15, 0, r0, c7, c10, 5
	mcr	p15, 0, r0, c7, c10, 5
.L1213:
	ldrex	r2, [r3]
	sub	r1, r2, #1
	strex	r0, r1, [r3]
	cmp	r0, #0
	bne	.L1213
	mcr	p15, 0, r0, c7, c10, 5
.L1199:
	cmp	r2, #1
	bne	.L1175
	ldr	r3, [r4]
	mov	r0, r4
	ldr	r3, [r3, #12]
	blx	r3
	b	.L1175
.L1227:
	ldr	r3, [r5]
	mov	r0, r5
	ldr	r3, [r3, #8]
	blx	r3
	mcr	p15, 0, r0, c7, c10, 5
	ldr	r2, [r5, #32]
	sub	r3, r2, #1
	str	r3, [r5, #32]
	b	.L1198
.L1176:
.LEHB43:
	bl	_ZSt20__throw_bad_weak_ptrv(PLT)
.L1200:
	ldr	r0, [sp, #20]
	cmp	r0, #0
	beq	.L1193
	bl	_ZNSt16_Sp_counted_baseILN9__gnu_cxx12_Lock_policyE1EE10_M_releaseEv(PLT)
.L1193:
	mov	r0, r4
	bl	_ZNSt16_Sp_counted_baseILN9__gnu_cxx12_Lock_policyE1EE10_M_releaseEv(PLT)
	bl	__cxa_end_cleanup(PLT)
.LEHE43:
.L1229:
	.align	2
.L1228:
	.word	_GLOBAL_OFFSET_TABLE_-(.LPIC108+8)
	.word	_ZL28__gthrw___pthread_key_createPjPFvPvE(GOT)
	.word	_ZN4asio6detail10call_stackINS0_15task_io_serviceENS0_27task_io_service_thread_infoEE4top_E(GOT)
	.word	_ZN4asio6detail18completion_handlerIZN8asiodnp311MasterStack13SetLogFiltersERKN7openpal10LogFiltersEEUlvE_E11do_completeEPNS0_15task_io_serviceEPNS0_25task_io_service_operationERKSt10error_codej-(.LPIC109+8)
	.personality	__gxx_personality_v0
	.handlerdata
.LLSDA8103:
	.byte	0xff
	.byte	0xff
	.byte	0x1
	.uleb128 .LLSDACSE8103-.LLSDACSB8103
.LLSDACSB8103:
	.uleb128 .LEHB41-.LFB8103
	.uleb128 .LEHE41-.LEHB41
	.uleb128 0
	.uleb128 0
	.uleb128 .LEHB42-.LFB8103
	.uleb128 .LEHE42-.LEHB42
	.uleb128 .L1200-.LFB8103
	.uleb128 0
	.uleb128 .LEHB43-.LFB8103
	.uleb128 .LEHE43-.LEHB43
	.uleb128 0
	.uleb128 0
.LLSDACSE8103:
	.text
	.fnend
	.size	_ZN8asiodnp311MasterStack13SetLogFiltersERKN7openpal10LogFiltersE, .-_ZN8asiodnp311MasterStack13SetLogFiltersERKN7openpal10LogFiltersE
	.align	2
	.global	_ZN8asiodnp311MasterStack14ScanAllObjectsEN8opendnp316GroupVariationIDERKNS1_10TaskConfigE
	.syntax unified
	.arm
	.fpu vfp
	.type	_ZN8asiodnp311MasterStack14ScanAllObjectsEN8opendnp316GroupVariationIDERKNS1_10TaskConfigE, %function
_ZN8asiodnp311MasterStack14ScanAllObjectsEN8opendnp316GroupVariationIDERKNS1_10TaskConfigE:
	.fnstart
.LFB8181:
	@ args = 0, pretend = 0, frame = 64
	@ frame_needed = 0, uses_anonymous_args = 0
	push	{r4, r5, r6, r7, r8, r9, lr}
	.save {r4, r5, r6, r7, r8, r9, lr}
	.pad #68
	sub	sp, sp, #68
	ldr	r5, [r0, #24]
	ldr	r7, .L1261
	cmp	r5, #0
	strh	r1, [sp, #4]	@ movhi
.LPIC110:
	add	r7, pc, r7
	beq	.L1231
	mov	r6, r2
	mov	r4, r0
	mov	r0, r5
.LEHB44:
	bl	_ZNSt16_Sp_counted_baseILN9__gnu_cxx12_Lock_policyE1EE15_M_add_ref_lockEv(PLT)
.LEHE44:
	ldm	r6, {r0, r1, r2}
	add	r3, sp, #24
	ldrh	lr, [sp, #4]
	ldr	ip, .L1261+4
	stm	r3, {r0, r1, r2}
	ldr	r2, [r4, #20]
	str	r5, [sp, #40]
	strh	lr, [sp, #20]	@ movhi
	str	r2, [sp, #36]
	ldr	r2, [r7, ip]
	ldr	r6, [r4, #44]
	cmp	r2, #0
	beq	.L1232
	add	r2, r5, #28
	mcr	p15, 0, r0, c7, c10, 5
.L1257:
	ldrex	r1, [r2]
	add	r1, r1, #1
	strex	r0, r1, [r2]
	cmp	r0, #0
	bne	.L1257
	mcr	p15, 0, r0, c7, c10, 5
.L1233:
	ldm	r3, {r0, r1, r2}
	add	r4, sp, #48
	ldrh	r3, [sp, #20]
	ldr	r8, [r6, #20]
	stm	r4, {r0, r1, r2}
	add	r0, sp, #36
	strh	r3, [sp, #44]	@ movhi
	bl	_ZN4asio28asio_handler_is_continuationEz(PLT)
	ldr	r3, .L1261+8
	add	r6, r6, #24
	ldr	r3, [r7, r3]
	mov	r9, r0
	ldr	r0, [r3]
	bl	pthread_getspecific(PLT)
	cmp	r0, #0
	beq	.L1234
	ldr	r3, [r0, #4]
	cmp	r3, #0
	beq	.L1234
	ldr	ip, [r3]
	cmp	ip, #0
	beq	.L1234
	mov	r2, #0
	str	r2, [r3]
	ldrb	r3, [ip]	@ zero_extendqisi2
	cmp	r3, #35
	bls	.L1260
.L1259:
	ldr	lr, .L1261+12
	strb	r3, [ip, #36]
.LPIC111:
	add	lr, pc, lr
	ldm	r4, {r0, r1, r2}
	mov	r3, r9
	ldr	r4, [sp, #36]
	ldrh	r7, [sp, #44]
	str	lr, [ip, #4]
	ldr	lr, [sp, #40]
	str	r4, [ip, #12]
	add	r4, ip, #24
	str	lr, [ip, #16]
	mov	lr, #0
	str	lr, [ip]
	strh	r7, [ip, #20]	@ movhi
	str	lr, [ip, #8]
	stm	r4, {r0, r1, r2}
	add	r0, r8, #20
	mov	r2, ip
	mov	r1, r6
	str	lr, [sp, #40]
	str	lr, [sp, #36]
	bl	_ZN4asio6detail14strand_service7do_postERPNS1_11strand_implEPNS0_25task_io_service_operationEb.isra.77(PLT)
	ldr	r0, [sp, #40]
	cmp	r0, #0
	beq	.L1237
	bl	_ZNSt16_Sp_counted_baseILN9__gnu_cxx12_Lock_policyE1EE10_M_releaseEv(PLT)
.L1237:
	mov	r0, r5
	bl	_ZNSt16_Sp_counted_baseILN9__gnu_cxx12_Lock_policyE1EE10_M_releaseEv(PLT)
	add	sp, sp, #68
	@ sp needed
	pop	{r4, r5, r6, r7, r8, r9, pc}
.L1260:
	mov	r0, ip
	bl	_ZdlPv(PLT)
.L1234:
	mov	r0, #37
.LEHB45:
	bl	_Znwj(PLT)
.LEHE45:
	mov	ip, r0
	mov	r3, #36
	b	.L1259
.L1232:
	ldr	r2, [r5, #28]
	add	r2, r2, #1
	str	r2, [r5, #28]
	b	.L1233
.L1231:
.LEHB46:
	bl	_ZSt20__throw_bad_weak_ptrv(PLT)
.L1240:
	ldr	r0, [sp, #40]
	cmp	r0, #0
	beq	.L1239
	bl	_ZNSt16_Sp_counted_baseILN9__gnu_cxx12_Lock_policyE1EE10_M_releaseEv(PLT)
.L1239:
	mov	r0, r5
	bl	_ZNSt16_Sp_counted_baseILN9__gnu_cxx12_Lock_policyE1EE10_M_releaseEv(PLT)
	bl	__cxa_end_cleanup(PLT)
.LEHE46:
.L1262:
	.align	2
.L1261:
	.word	_GLOBAL_OFFSET_TABLE_-(.LPIC110+8)
	.word	_ZL28__gthrw___pthread_key_createPjPFvPvE(GOT)
	.word	_ZN4asio6detail10call_stackINS0_15task_io_serviceENS0_27task_io_service_thread_infoEE4top_E(GOT)
	.word	_ZN4asio6detail18completion_handlerIZN8asiodnp311MasterStack14ScanAllObjectsEN8opendnp316GroupVariationIDERKNS4_10TaskConfigEEUlvE_E11do_completeEPNS0_15task_io_serviceEPNS0_25task_io_service_operationERKSt10error_codej-(.LPIC111+8)
	.personality	__gxx_personality_v0
	.handlerdata
.LLSDA8181:
	.byte	0xff
	.byte	0xff
	.byte	0x1
	.uleb128 .LLSDACSE8181-.LLSDACSB8181
.LLSDACSB8181:
	.uleb128 .LEHB44-.LFB8181
	.uleb128 .LEHE44-.LEHB44
	.uleb128 0
	.uleb128 0
	.uleb128 .LEHB45-.LFB8181
	.uleb128 .LEHE45-.LEHB45
	.uleb128 .L1240-.LFB8181
	.uleb128 0
	.uleb128 .LEHB46-.LFB8181
	.uleb128 .LEHE46-.LEHB46
	.uleb128 0
	.uleb128 0
.LLSDACSE8181:
	.text
	.fnend
	.size	_ZN8asiodnp311MasterStack14ScanAllObjectsEN8opendnp316GroupVariationIDERKNS1_10TaskConfigE, .-_ZN8asiodnp311MasterStack14ScanAllObjectsEN8opendnp316GroupVariationIDERKNS1_10TaskConfigE
	.align	2
	.global	_ZN8asiodnp311MasterStack11ScanClassesERKN8opendnp310ClassFieldERKNS1_10TaskConfigE
	.syntax unified
	.arm
	.fpu vfp
	.type	_ZN8asiodnp311MasterStack11ScanClassesERKN8opendnp310ClassFieldERKNS1_10TaskConfigE, %function
_ZN8asiodnp311MasterStack11ScanClassesERKN8opendnp310ClassFieldERKNS1_10TaskConfigE:
	.fnstart
.LFB8189:
	@ args = 0, pretend = 0, frame = 56
	@ frame_needed = 0, uses_anonymous_args = 0
	push	{r4, r5, r6, r7, r8, r9, lr}
	.save {r4, r5, r6, r7, r8, r9, lr}
	.pad #60
	sub	sp, sp, #60
	ldr	r5, [r0, #24]
	ldr	r7, .L1294
	cmp	r5, #0
.LPIC112:
	add	r7, pc, r7
	beq	.L1264
	mov	r6, r2
	mov	r4, r0
	mov	r0, r5
	mov	r8, r1
.LEHB47:
	bl	_ZNSt16_Sp_counted_baseILN9__gnu_cxx12_Lock_policyE1EE15_M_add_ref_lockEv(PLT)
.LEHE47:
	ldm	r6, {r0, r1, r2}
	add	r3, sp, #16
	ldrb	lr, [r8]	@ zero_extendqisi2
	ldr	ip, .L1294+4
	stm	r3, {r0, r1, r2}
	ldr	r2, [r4, #20]
	str	r5, [sp, #32]
	strb	lr, [sp, #12]
	str	r2, [sp, #28]
	ldr	r2, [r7, ip]
	ldr	r6, [r4, #44]
	cmp	r2, #0
	beq	.L1265
	add	r2, r5, #28
	mcr	p15, 0, r0, c7, c10, 5
.L1290:
	ldrex	r1, [r2]
	add	r1, r1, #1
	strex	r0, r1, [r2]
	cmp	r0, #0
	bne	.L1290
	mcr	p15, 0, r0, c7, c10, 5
.L1266:
	ldm	r3, {r0, r1, r2}
	add	r4, sp, #40
	ldrb	r3, [sp, #12]	@ zero_extendqisi2
	ldr	r8, [r6, #20]
	stm	r4, {r0, r1, r2}
	add	r0, sp, #28
	strb	r3, [sp, #36]
	bl	_ZN4asio28asio_handler_is_continuationEz(PLT)
	ldr	r3, .L1294+8
	add	r6, r6, #24
	ldr	r3, [r7, r3]
	mov	r9, r0
	ldr	r0, [r3]
	bl	pthread_getspecific(PLT)
	cmp	r0, #0
	beq	.L1267
	ldr	r3, [r0, #4]
	cmp	r3, #0
	beq	.L1267
	ldr	ip, [r3]
	cmp	ip, #0
	beq	.L1267
	mov	r2, #0
	str	r2, [r3]
	ldrb	r3, [ip]	@ zero_extendqisi2
	cmp	r3, #35
	bls	.L1293
.L1292:
	ldr	lr, .L1294+12
	strb	r3, [ip, #36]
.LPIC113:
	add	lr, pc, lr
	ldm	r4, {r0, r1, r2}
	mov	r3, r9
	ldr	r4, [sp, #28]
	ldrb	r7, [sp, #36]	@ zero_extendqisi2
	str	lr, [ip, #4]
	ldr	lr, [sp, #32]
	str	r4, [ip, #12]
	add	r4, ip, #24
	str	lr, [ip, #16]
	mov	lr, #0
	str	lr, [ip]
	strb	r7, [ip, #20]
	str	lr, [ip, #8]
	stm	r4, {r0, r1, r2}
	add	r0, r8, #20
	mov	r2, ip
	mov	r1, r6
	str	lr, [sp, #32]
	str	lr, [sp, #28]
	bl	_ZN4asio6detail14strand_service7do_postERPNS1_11strand_implEPNS0_25task_io_service_operationEb.isra.77(PLT)
	ldr	r0, [sp, #32]
	cmp	r0, #0
	beq	.L1270
	bl	_ZNSt16_Sp_counted_baseILN9__gnu_cxx12_Lock_policyE1EE10_M_releaseEv(PLT)
.L1270:
	mov	r0, r5
	bl	_ZNSt16_Sp_counted_baseILN9__gnu_cxx12_Lock_policyE1EE10_M_releaseEv(PLT)
	add	sp, sp, #60
	@ sp needed
	pop	{r4, r5, r6, r7, r8, r9, pc}
.L1293:
	mov	r0, ip
	bl	_ZdlPv(PLT)
.L1267:
	mov	r0, #37
.LEHB48:
	bl	_Znwj(PLT)
.LEHE48:
	mov	ip, r0
	mov	r3, #36
	b	.L1292
.L1265:
	ldr	r2, [r5, #28]
	add	r2, r2, #1
	str	r2, [r5, #28]
	b	.L1266
.L1264:
.LEHB49:
	bl	_ZSt20__throw_bad_weak_ptrv(PLT)
.L1273:
	ldr	r0, [sp, #32]
	cmp	r0, #0
	beq	.L1272
	bl	_ZNSt16_Sp_counted_baseILN9__gnu_cxx12_Lock_policyE1EE10_M_releaseEv(PLT)
.L1272:
	mov	r0, r5
	bl	_ZNSt16_Sp_counted_baseILN9__gnu_cxx12_Lock_policyE1EE10_M_releaseEv(PLT)
	bl	__cxa_end_cleanup(PLT)
.LEHE49:
.L1295:
	.align	2
.L1294:
	.word	_GLOBAL_OFFSET_TABLE_-(.LPIC112+8)
	.word	_ZL28__gthrw___pthread_key_createPjPFvPvE(GOT)
	.word	_ZN4asio6detail10call_stackINS0_15task_io_serviceENS0_27task_io_service_thread_infoEE4top_E(GOT)
	.word	_ZN4asio6detail18completion_handlerIZN8asiodnp311MasterStack11ScanClassesERKN8opendnp310ClassFieldERKNS4_10TaskConfigEEUlvE_E11do_completeEPNS0_15task_io_serviceEPNS0_25task_io_service_operationERKSt10error_codej-(.LPIC113+8)
	.personality	__gxx_personality_v0
	.handlerdata
.LLSDA8189:
	.byte	0xff
	.byte	0xff
	.byte	0x1
	.uleb128 .LLSDACSE8189-.LLSDACSB8189
.LLSDACSB8189:
	.uleb128 .LEHB47-.LFB8189
	.uleb128 .LEHE47-.LEHB47
	.uleb128 0
	.uleb128 0
	.uleb128 .LEHB48-.LFB8189
	.uleb128 .LEHE48-.LEHB48
	.uleb128 .L1273-.LFB8189
	.uleb128 0
	.uleb128 .LEHB49-.LFB8189
	.uleb128 .LEHE49-.LEHB49
	.uleb128 0
	.uleb128 0
.LLSDACSE8189:
	.text
	.fnend
	.size	_ZN8asiodnp311MasterStack11ScanClassesERKN8opendnp310ClassFieldERKNS1_10TaskConfigE, .-_ZN8asiodnp311MasterStack11ScanClassesERKN8opendnp310ClassFieldERKNS1_10TaskConfigE
	.align	2
	.global	_ZN8asiodnp311MasterStack9ScanRangeEN8opendnp316GroupVariationIDEttRKNS1_10TaskConfigE
	.syntax unified
	.arm
	.fpu vfp
	.type	_ZN8asiodnp311MasterStack9ScanRangeEN8opendnp316GroupVariationIDEttRKNS1_10TaskConfigE, %function
_ZN8asiodnp311MasterStack9ScanRangeEN8opendnp316GroupVariationIDEttRKNS1_10TaskConfigE:
	.fnstart
.LFB8197:
	@ args = 4, pretend = 0, frame = 72
	@ frame_needed = 0, uses_anonymous_args = 0
	push	{r4, r5, r6, r7, r8, r9, lr}
	.save {r4, r5, r6, r7, r8, r9, lr}
	.pad #76
	sub	sp, sp, #76
	ldr	r5, [r0, #24]
	ldr	r7, .L1327
	cmp	r5, #0
	strh	r1, [sp, #4]	@ movhi
.LPIC114:
	add	r7, pc, r7
	beq	.L1297
	mov	r4, r0
	mov	r0, r5
	mov	r8, r2
	mov	r9, r3
.LEHB50:
	bl	_ZNSt16_Sp_counted_baseILN9__gnu_cxx12_Lock_policyE1EE15_M_add_ref_lockEv(PLT)
.LEHE50:
	ldr	r3, [sp, #104]
	ldrh	r6, [sp, #4]
	ldr	lr, .L1327+4
	ldm	r3, {r0, r1, r2}
	add	ip, sp, #28
	ldr	r3, [r4, #20]
	strh	r6, [sp, #20]	@ movhi
	str	r5, [sp, #44]
	stm	ip, {r0, r1, r2}
	str	r3, [sp, #40]
	ldr	r3, [r7, lr]
	ldr	r6, [r4, #44]
	cmp	r3, #0
	beq	.L1298
	add	r3, r5, #28
	mcr	p15, 0, r0, c7, c10, 5
.L1323:
	ldrex	r2, [r3]
	add	r2, r2, #1
	strex	r1, r2, [r3]
	cmp	r1, #0
	bne	.L1323
	mcr	p15, 0, r0, c7, c10, 5
.L1299:
	ldm	ip, {r0, r1, r2}
	add	r4, sp, #56
	ldrh	r3, [sp, #20]
	strh	r8, [sp, #50]	@ movhi
	stm	r4, {r0, r1, r2}
	add	r0, sp, #40
	strh	r9, [sp, #52]	@ movhi
	strh	r3, [sp, #48]	@ movhi
	bl	_ZN4asio28asio_handler_is_continuationEz(PLT)
	ldr	r3, .L1327+8
	ldr	r8, [r6, #20]
	add	r6, r6, #24
	ldr	r3, [r7, r3]
	mov	r9, r0
	ldr	r0, [r3]
	bl	pthread_getspecific(PLT)
	cmp	r0, #0
	beq	.L1300
	ldr	r3, [r0, #4]
	cmp	r3, #0
	beq	.L1300
	ldr	ip, [r3]
	cmp	ip, #0
	beq	.L1300
	mov	r2, #0
	str	r2, [r3]
	ldrb	r3, [ip]	@ zero_extendqisi2
	cmp	r3, #39
	bls	.L1326
.L1325:
	strb	r3, [ip, #40]
	ldrh	lr, [sp, #50]
	ldm	r4, {r0, r1, r2}
	mov	r3, r9
	ldrh	r4, [sp, #52]
	strh	lr, [ip, #22]	@ movhi
	ldr	lr, .L1327+12
	strh	r4, [ip, #24]	@ movhi
.LPIC115:
	add	lr, pc, lr
	ldr	r4, [sp, #40]
	ldrh	r7, [sp, #48]
	str	lr, [ip, #4]
	ldr	lr, [sp, #44]
	str	r4, [ip, #12]
	add	r4, ip, #28
	str	lr, [ip, #16]
	mov	lr, #0
	str	lr, [ip]
	strh	r7, [ip, #20]	@ movhi
	str	lr, [ip, #8]
	stm	r4, {r0, r1, r2}
	add	r0, r8, #20
	mov	r2, ip
	mov	r1, r6
	str	lr, [sp, #44]
	str	lr, [sp, #40]
	bl	_ZN4asio6detail14strand_service7do_postERPNS1_11strand_implEPNS0_25task_io_service_operationEb.isra.77(PLT)
	ldr	r0, [sp, #44]
	cmp	r0, #0
	beq	.L1303
	bl	_ZNSt16_Sp_counted_baseILN9__gnu_cxx12_Lock_policyE1EE10_M_releaseEv(PLT)
.L1303:
	mov	r0, r5
	bl	_ZNSt16_Sp_counted_baseILN9__gnu_cxx12_Lock_policyE1EE10_M_releaseEv(PLT)
	add	sp, sp, #76
	@ sp needed
	pop	{r4, r5, r6, r7, r8, r9, pc}
.L1326:
	mov	r0, ip
	bl	_ZdlPv(PLT)
.L1300:
	mov	r0, #41
.LEHB51:
	bl	_Znwj(PLT)
.LEHE51:
	mov	ip, r0
	mov	r3, #40
	b	.L1325
.L1298:
	ldr	r3, [r5, #28]
	add	r3, r3, #1
	str	r3, [r5, #28]
	b	.L1299
.L1297:
.LEHB52:
	bl	_ZSt20__throw_bad_weak_ptrv(PLT)
.L1306:
	ldr	r0, [sp, #44]
	cmp	r0, #0
	beq	.L1305
	bl	_ZNSt16_Sp_counted_baseILN9__gnu_cxx12_Lock_policyE1EE10_M_releaseEv(PLT)
.L1305:
	mov	r0, r5
	bl	_ZNSt16_Sp_counted_baseILN9__gnu_cxx12_Lock_policyE1EE10_M_releaseEv(PLT)
	bl	__cxa_end_cleanup(PLT)
.LEHE52:
.L1328:
	.align	2
.L1327:
	.word	_GLOBAL_OFFSET_TABLE_-(.LPIC114+8)
	.word	_ZL28__gthrw___pthread_key_createPjPFvPvE(GOT)
	.word	_ZN4asio6detail10call_stackINS0_15task_io_serviceENS0_27task_io_service_thread_infoEE4top_E(GOT)
	.word	_ZN4asio6detail18completion_handlerIZN8asiodnp311MasterStack9ScanRangeEN8opendnp316GroupVariationIDEttRKNS4_10TaskConfigEEUlvE_E11do_completeEPNS0_15task_io_serviceEPNS0_25task_io_service_operationERKSt10error_codej-(.LPIC115+8)
	.personality	__gxx_personality_v0
	.handlerdata
.LLSDA8197:
	.byte	0xff
	.byte	0xff
	.byte	0x1
	.uleb128 .LLSDACSE8197-.LLSDACSB8197
.LLSDACSB8197:
	.uleb128 .LEHB50-.LFB8197
	.uleb128 .LEHE50-.LEHB50
	.uleb128 0
	.uleb128 0
	.uleb128 .LEHB51-.LFB8197
	.uleb128 .LEHE51-.LEHB51
	.uleb128 .L1306-.LFB8197
	.uleb128 0
	.uleb128 .LEHB52-.LFB8197
	.uleb128 .LEHE52-.LEHB52
	.uleb128 0
	.uleb128 0
.LLSDACSE8197:
	.text
	.fnend
	.size	_ZN8asiodnp311MasterStack9ScanRangeEN8opendnp316GroupVariationIDEttRKNS1_10TaskConfigE, .-_ZN8asiodnp311MasterStack9ScanRangeEN8opendnp316GroupVariationIDEttRKNS1_10TaskConfigE
	.align	2
	.global	_ZN8asiodnp311MasterStack5WriteERKN8opendnp315TimeAndIntervalEtRKNS1_10TaskConfigE
	.syntax unified
	.arm
	.fpu vfp
	.type	_ZN8asiodnp311MasterStack5WriteERKN8opendnp315TimeAndIntervalEtRKNS1_10TaskConfigE, %function
_ZN8asiodnp311MasterStack5WriteERKN8opendnp315TimeAndIntervalEtRKNS1_10TaskConfigE:
	.fnstart
.LFB8205:
	@ args = 0, pretend = 0, frame = 88
	@ frame_needed = 0, uses_anonymous_args = 0
	push	{r4, r5, r6, r7, r8, r9, r10, lr}
	.save {r4, r5, r6, r7, r8, r9, r10, lr}
	.pad #88
	sub	sp, sp, #88
	ldr	r6, [r0, #24]
	ldr	r7, .L1360
	cmp	r6, #0
.LPIC116:
	add	r7, pc, r7
	beq	.L1330
	mov	r4, r1
	mov	r5, r0
	mov	r0, r6
	mov	r9, r3
	mov	r8, r2
.LEHB53:
	bl	_ZNSt16_Sp_counted_baseILN9__gnu_cxx12_Lock_policyE1EE15_M_add_ref_lockEv(PLT)
.LEHE53:
	ldm	r4, {r0, r1, r2, r3}
	add	ip, sp, #8
	ldr	r4, .L1360+4
	add	lr, sp, #28
	stm	ip, {r0, r1, r2, r3}
	ldm	r9, {r0, r1, r2}
	ldr	r3, [r5, #20]
	str	r6, [sp, #44]
	stm	lr, {r0, r1, r2}
	str	r3, [sp, #40]
	ldr	r3, [r7, r4]
	ldr	r10, [r5, #44]
	cmp	r3, #0
	beq	.L1331
	add	r3, r6, #28
	mcr	p15, 0, r0, c7, c10, 5
.L1356:
	ldrex	r2, [r3]
	add	r2, r2, #1
	strex	r1, r2, [r3]
	cmp	r1, #0
	bne	.L1356
	mcr	p15, 0, r0, c7, c10, 5
.L1332:
	ldm	ip, {r0, r1, r2, r3}
	add	r4, sp, #48
	strh	r8, [sp, #64]	@ movhi
	add	r5, sp, #68
	stm	r4, {r0, r1, r2, r3}
	add	r9, r10, #24
	ldm	lr, {r0, r1, r2}
	ldr	r8, [r10, #20]
	stm	r5, {r0, r1, r2}
	add	r0, sp, #40
	bl	_ZN4asio28asio_handler_is_continuationEz(PLT)
	ldr	r3, .L1360+8
	ldr	r3, [r7, r3]
	mov	r10, r0
	ldr	r0, [r3]
	bl	pthread_getspecific(PLT)
	cmp	r0, #0
	beq	.L1333
	ldr	r3, [r0, #4]
	cmp	r3, #0
	beq	.L1333
	ldr	ip, [r3]
	cmp	ip, #0
	beq	.L1333
	mov	r2, #0
	str	r2, [r3]
	ldrb	r3, [ip]	@ zero_extendqisi2
	cmp	r3, #55
	bls	.L1359
.L1358:
	strb	r3, [ip, #56]
	ldr	r7, [sp, #40]
	ldm	r4, {r0, r1, r2, r3}
	add	r4, ip, #24
	ldr	lr, .L1360+12
	str	r7, [ip, #16]
.LPIC117:
	add	lr, pc, lr
	ldr	r7, [sp, #44]
	str	lr, [ip, #4]
	mov	lr, #0
	str	lr, [ip]
	str	r7, [ip, #20]
	str	lr, [ip, #8]
	stm	r4, {r0, r1, r2, r3}
	add	r4, ip, #44
	ldm	r5, {r0, r1, r2}
	mov	r3, r10
	ldrh	r5, [sp, #64]
	str	lr, [sp, #44]
	str	lr, [sp, #40]
	strh	r5, [ip, #40]	@ movhi
	stm	r4, {r0, r1, r2}
	add	r0, r8, #20
	mov	r2, ip
	mov	r1, r9
	bl	_ZN4asio6detail14strand_service7do_postERPNS1_11strand_implEPNS0_25task_io_service_operationEb.isra.77(PLT)
	ldr	r0, [sp, #44]
	cmp	r0, #0
	beq	.L1336
	bl	_ZNSt16_Sp_counted_baseILN9__gnu_cxx12_Lock_policyE1EE10_M_releaseEv(PLT)
.L1336:
	mov	r0, r6
	bl	_ZNSt16_Sp_counted_baseILN9__gnu_cxx12_Lock_policyE1EE10_M_releaseEv(PLT)
	add	sp, sp, #88
	@ sp needed
	pop	{r4, r5, r6, r7, r8, r9, r10, pc}
.L1359:
	mov	r0, ip
	bl	_ZdlPv(PLT)
.L1333:
	mov	r0, #57
.LEHB54:
	bl	_Znwj(PLT)
.LEHE54:
	mov	ip, r0
	mov	r3, #56
	b	.L1358
.L1331:
	ldr	r3, [r6, #28]
	add	r3, r3, #1
	str	r3, [r6, #28]
	b	.L1332
.L1330:
.LEHB55:
	bl	_ZSt20__throw_bad_weak_ptrv(PLT)
.L1339:
	ldr	r0, [sp, #44]
	cmp	r0, #0
	beq	.L1338
	bl	_ZNSt16_Sp_counted_baseILN9__gnu_cxx12_Lock_policyE1EE10_M_releaseEv(PLT)
.L1338:
	mov	r0, r6
	bl	_ZNSt16_Sp_counted_baseILN9__gnu_cxx12_Lock_policyE1EE10_M_releaseEv(PLT)
	bl	__cxa_end_cleanup(PLT)
.LEHE55:
.L1361:
	.align	2
.L1360:
	.word	_GLOBAL_OFFSET_TABLE_-(.LPIC116+8)
	.word	_ZL28__gthrw___pthread_key_createPjPFvPvE(GOT)
	.word	_ZN4asio6detail10call_stackINS0_15task_io_serviceENS0_27task_io_service_thread_infoEE4top_E(GOT)
	.word	_ZN4asio6detail18completion_handlerIZN8asiodnp311MasterStack5WriteERKN8opendnp315TimeAndIntervalEtRKNS4_10TaskConfigEEUlvE_E11do_completeEPNS0_15task_io_serviceEPNS0_25task_io_service_operationERKSt10error_codej-(.LPIC117+8)
	.personality	__gxx_personality_v0
	.handlerdata
.LLSDA8205:
	.byte	0xff
	.byte	0xff
	.byte	0x1
	.uleb128 .LLSDACSE8205-.LLSDACSB8205
.LLSDACSB8205:
	.uleb128 .LEHB53-.LFB8205
	.uleb128 .LEHE53-.LEHB53
	.uleb128 0
	.uleb128 0
	.uleb128 .LEHB54-.LFB8205
	.uleb128 .LEHE54-.LEHB54
	.uleb128 .L1339-.LFB8205
	.uleb128 0
	.uleb128 .LEHB55-.LFB8205
	.uleb128 .LEHE55-.LEHB55
	.uleb128 0
	.uleb128 0
.LLSDACSE8205:
	.text
	.fnend
	.size	_ZN8asiodnp311MasterStack5WriteERKN8opendnp315TimeAndIntervalEtRKNS1_10TaskConfigE, .-_ZN8asiodnp311MasterStack5WriteERKN8opendnp315TimeAndIntervalEtRKNS1_10TaskConfigE
	.section	.text._ZN8asiodnp311MasterStack13BeginTransmitERKN7openpal6RSliceERN8opendnp312ILinkSessionE,"axG",%progbits,_ZN8asiodnp311MasterStack13BeginTransmitERKN7openpal6RSliceERN8opendnp312ILinkSessionE,comdat
	.align	2
	.weak	_ZN8asiodnp311MasterStack13BeginTransmitERKN7openpal6RSliceERN8opendnp312ILinkSessionE
	.syntax unified
	.arm
	.fpu vfp
	.type	_ZN8asiodnp311MasterStack13BeginTransmitERKN7openpal6RSliceERN8opendnp312ILinkSessionE, %function
_ZN8asiodnp311MasterStack13BeginTransmitERKN7openpal6RSliceERN8opendnp312ILinkSessionE:
	.fnstart
.LFB7976:
	@ args = 0, pretend = 0, frame = 8
	@ frame_needed = 0, uses_anonymous_args = 0
	push	{r4, r5, r6, r7, lr}
	.save {r4, r5, r6, r7, lr}
	.pad #12
	sub	sp, sp, #12
	ldr	r5, [r0, #24]
	ldr	r6, [r0, #52]
	cmp	r5, #0
	beq	.L1363
	mov	r4, r0
	mov	r0, r5
	mov	r7, r1
.LEHB56:
	bl	_ZNSt16_Sp_counted_baseILN9__gnu_cxx12_Lock_policyE1EE15_M_add_ref_lockEv(PLT)
.LEHE56:
	ldr	r3, [r4, #20]
	mov	r2, r7
	cmp	r3, #0
	addne	r3, r3, #8
	mov	r0, r6
	mov	r1, sp
	stm	sp, {r3, r5}
.LEHB57:
	bl	_ZN8asiodnp39IOHandler13BeginTransmitERKSt10shared_ptrIN8opendnp312ILinkSessionEERKN7openpal6RSliceE(PLT)
.LEHE57:
	ldr	r0, [sp, #4]
	cmp	r0, #0
	beq	.L1362
	bl	_ZNSt16_Sp_counted_baseILN9__gnu_cxx12_Lock_policyE1EE10_M_releaseEv(PLT)
.L1362:
	add	sp, sp, #12
	@ sp needed
	pop	{r4, r5, r6, r7, pc}
.L1363:
.LEHB58:
	bl	_ZSt20__throw_bad_weak_ptrv(PLT)
.L1369:
	ldr	r0, [sp, #4]
	cmp	r0, #0
	beq	.L1368
	bl	_ZNSt16_Sp_counted_baseILN9__gnu_cxx12_Lock_policyE1EE10_M_releaseEv(PLT)
.L1368:
	bl	__cxa_end_cleanup(PLT)
.LEHE58:
	.personality	__gxx_personality_v0
	.handlerdata
.LLSDA7976:
	.byte	0xff
	.byte	0xff
	.byte	0x1
	.uleb128 .LLSDACSE7976-.LLSDACSB7976
.LLSDACSB7976:
	.uleb128 .LEHB56-.LFB7976
	.uleb128 .LEHE56-.LEHB56
	.uleb128 0
	.uleb128 0
	.uleb128 .LEHB57-.LFB7976
	.uleb128 .LEHE57-.LEHB57
	.uleb128 .L1369-.LFB7976
	.uleb128 0
	.uleb128 .LEHB58-.LFB7976
	.uleb128 .LEHE58-.LEHB58
	.uleb128 0
	.uleb128 0
.LLSDACSE7976:
	.section	.text._ZN8asiodnp311MasterStack13BeginTransmitERKN7openpal6RSliceERN8opendnp312ILinkSessionE,"axG",%progbits,_ZN8asiodnp311MasterStack13BeginTransmitERKN7openpal6RSliceERN8opendnp312ILinkSessionE,comdat
	.fnend
	.size	_ZN8asiodnp311MasterStack13BeginTransmitERKN7openpal6RSliceERN8opendnp312ILinkSessionE, .-_ZN8asiodnp311MasterStack13BeginTransmitERKN7openpal6RSliceERN8opendnp312ILinkSessionE
	.set	.LTHUNK10,_ZN8asiodnp311MasterStack13BeginTransmitERKN7openpal6RSliceERN8opendnp312ILinkSessionE
	.align	2
	.weak	_ZThn12_N8asiodnp311MasterStack13BeginTransmitERKN7openpal6RSliceERN8opendnp312ILinkSessionE
	.syntax unified
	.arm
	.fpu vfp
	.type	_ZThn12_N8asiodnp311MasterStack13BeginTransmitERKN7openpal6RSliceERN8opendnp312ILinkSessionE, %function
_ZThn12_N8asiodnp311MasterStack13BeginTransmitERKN7openpal6RSliceERN8opendnp312ILinkSessionE:
	.fnstart
.LFB12447:
	@ args = 0, pretend = 0, frame = 0
	@ frame_needed = 0, uses_anonymous_args = 0
	sub	r0, r0, #12
	b	.LTHUNK10(PLT)
	.fnend
	.size	_ZThn12_N8asiodnp311MasterStack13BeginTransmitERKN7openpal6RSliceERN8opendnp312ILinkSessionE, .-_ZThn12_N8asiodnp311MasterStack13BeginTransmitERKN7openpal6RSliceERN8opendnp312ILinkSessionE
	.text
	.align	2
	.global	_ZN8asiodnp311MasterStack8ShutdownEv
	.syntax unified
	.arm
	.fpu vfp
	.type	_ZN8asiodnp311MasterStack8ShutdownEv, %function
_ZN8asiodnp311MasterStack8ShutdownEv:
	.fnstart
.LFB8068:
	@ args = 0, pretend = 0, frame = 16
	@ frame_needed = 0, uses_anonymous_args = 0
	push	{r4, r5, r6, r7, r8, r9, lr}
	.save {r4, r5, r6, r7, r8, r9, lr}
	.pad #20
	sub	sp, sp, #20
	ldr	r4, [r0, #24]
	ldr	r6, .L1441
	cmp	r4, #0
.LPIC118:
	add	r6, pc, r6
	beq	.L1378
	mov	r8, r0
	mov	r0, r4
.LEHB59:
	bl	_ZNSt16_Sp_counted_baseILN9__gnu_cxx12_Lock_policyE1EE15_M_add_ref_lockEv(PLT)
.LEHE59:
	ldr	r3, .L1441+4
	ldr	r9, [r8, #20]
	add	r5, r4, #28
	ldr	r7, [r6, r3]
	cmp	r7, #0
	beq	.L1379
	mcr	p15, 0, r0, c7, c10, 5
.L1428:
	ldrex	r3, [r5]
	add	r3, r3, #1
	strex	r2, r3, [r5]
	cmp	r2, #0
	bne	.L1428
	mcr	p15, 0, r0, c7, c10, 5
	ldr	r8, [r8, #44]
	mcr	p15, 0, r0, c7, c10, 5
.L1429:
	ldrex	r3, [r5]
	add	r3, r3, #1
	strex	r2, r3, [r5]
	cmp	r2, #0
	bne	.L1429
	mcr	p15, 0, r0, c7, c10, 5
.L1380:
	mov	r3, #0
	mov	r0, #8
	str	r3, [sp, #8]
.LEHB60:
	bl	_Znwj(PLT)
.LEHE60:
	cmp	r7, #0
	str	r9, [r0]
	str	r4, [r0, #4]
	beq	.L1381
	mcr	p15, 0, r0, c7, c10, 5
.L1427:
	ldrex	r3, [r5]
	add	r3, r3, #1
	strex	r2, r3, [r5]
	cmp	r2, #0
	bne	.L1427
	mcr	p15, 0, r0, c7, c10, 5
.L1382:
	ldr	r2, .L1441+8
	ldr	r3, .L1441+12
	str	r0, [sp]
	ldr	r2, [r6, r2]
	mov	r0, r8
	str	r2, [sp, #12]
	ldr	r3, [r6, r3]
	mov	r1, sp
	mov	r9, sp
	str	r3, [sp, #8]
.LEHB61:
	bl	_ZN7asiopal8Executor18BlockUntilAndFlushERKSt8functionIFvvEE(PLT)
.LEHE61:
	ldr	r3, [sp, #8]
	cmp	r3, #0
	beq	.L1387
	mov	r2, #3
	mov	r1, sp
	mov	r0, r9
	blx	r3
.L1387:
	mov	r0, r4
	bl	_ZNSt16_Sp_counted_baseILN9__gnu_cxx12_Lock_policyE1EE10_M_releaseEv(PLT)
	cmp	r7, #0
	beq	.L1388
	mcr	p15, 0, r0, c7, c10, 5
.L1426:
	ldrex	r3, [r5]
	sub	r2, r3, #1
	strex	r1, r2, [r5]
	cmp	r1, #0
	bne	.L1426
	cmp	r3, #1
	mcr	p15, 0, r0, c7, c10, 5
	beq	.L1437
.L1393:
	mcr	p15, 0, r0, c7, c10, 5
.L1425:
	ldrex	r3, [r5]
	sub	r2, r3, #1
	strex	r1, r2, [r5]
	cmp	r1, #0
	bne	.L1425
	cmp	r3, #1
	mcr	p15, 0, r0, c7, c10, 5
	beq	.L1438
.L1377:
	add	sp, sp, #20
	@ sp needed
	pop	{r4, r5, r6, r7, r8, r9, pc}
.L1381:
	ldr	r3, [r4, #28]
	add	r3, r3, #1
	str	r3, [r4, #28]
	b	.L1382
.L1379:
	ldr	r3, [r4, #28]
	ldr	r8, [r8, #44]
	add	r3, r3, #2
	str	r3, [r4, #28]
	b	.L1380
.L1388:
	ldr	r3, [r4, #28]
	cmp	r3, #1
	sub	r3, r3, #1
	str	r3, [r4, #28]
	beq	.L1439
	cmp	r3, #1
	sub	r3, r3, #1
	str	r3, [r4, #28]
	bne	.L1377
.L1440:
	ldr	r3, [r4]
	mov	r0, r4
	ldr	r3, [r3, #8]
	blx	r3
	mcr	p15, 0, r0, c7, c10, 5
	ldr	r2, [r4, #32]
	sub	r3, r2, #1
	str	r3, [r4, #32]
	b	.L1404
.L1438:
	ldr	r3, [r4]
	mov	r0, r4
	ldr	r3, [r3, #8]
	blx	r3
	add	r3, r4, #32
	mcr	p15, 0, r0, c7, c10, 5
	mcr	p15, 0, r0, c7, c10, 5
.L1423:
	ldrex	r2, [r3]
	sub	r1, r2, #1
	strex	r0, r1, [r3]
	cmp	r0, #0
	bne	.L1423
	mcr	p15, 0, r0, c7, c10, 5
.L1404:
	cmp	r2, #1
	bne	.L1377
	ldr	r3, [r4]
	mov	r0, r4
	ldr	r3, [r3, #12]
	blx	r3
	b	.L1377
.L1437:
	ldr	r3, [r4]
	mov	r0, r4
	ldr	r3, [r3, #8]
	blx	r3
	add	r3, r4, #32
	mcr	p15, 0, r0, c7, c10, 5
	mcr	p15, 0, r0, c7, c10, 5
.L1424:
	ldrex	r2, [r3]
	sub	r1, r2, #1
	strex	r0, r1, [r3]
	cmp	r0, #0
	bne	.L1424
	cmp	r2, #1
	mcr	p15, 0, r0, c7, c10, 5
	bne	.L1393
.L1401:
	ldr	r3, [r4]
	mov	r0, r4
	ldr	r3, [r3, #12]
	blx	r3
	cmp	r7, #0
	bne	.L1393
.L1431:
	ldr	r3, [r4, #28]
	cmp	r3, #1
	sub	r3, r3, #1
	str	r3, [r4, #28]
	bne	.L1377
	b	.L1440
.L1439:
	ldr	r3, [r4]
	mov	r0, r4
	ldr	r3, [r3, #8]
	blx	r3
	mcr	p15, 0, r0, c7, c10, 5
	ldr	r3, [r4, #32]
	cmp	r3, #1
	sub	r3, r3, #1
	str	r3, [r4, #32]
	bne	.L1431
	b	.L1401
.L1378:
.LEHB62:
	bl	_ZSt20__throw_bad_weak_ptrv(PLT)
.LEHE62:
.L1405:
	ldr	r3, [sp, #8]
	cmp	r3, #0
	beq	.L1386
	mov	r2, #3
	mov	r1, r9
	mov	r0, r9
	blx	r3
.L1386:
	mov	r0, r4
	bl	_ZNSt16_Sp_counted_baseILN9__gnu_cxx12_Lock_policyE1EE10_M_releaseEv(PLT)
	mov	r0, r4
	bl	_ZNSt16_Sp_counted_baseILN9__gnu_cxx12_Lock_policyE1EE10_M_releaseEv(PLT)
	mov	r0, r4
	bl	_ZNSt16_Sp_counted_baseILN9__gnu_cxx12_Lock_policyE1EE10_M_releaseEv(PLT)
.LEHB63:
	bl	__cxa_end_cleanup(PLT)
.LEHE63:
.L1406:
	ldr	r3, [sp, #8]
	cmp	r3, #0
	beq	.L1386
	mov	r1, sp
	mov	r0, sp
	mov	r2, #3
	blx	r3
	b	.L1386
.L1442:
	.align	2
.L1441:
	.word	_GLOBAL_OFFSET_TABLE_-(.LPIC118+8)
	.word	_ZL28__gthrw___pthread_key_createPjPFvPvE(GOT)
	.word	_ZNSt17_Function_handlerIFvvEZN8asiodnp39StackBase15PerformShutdownINS1_11MasterStackEEEvRKSt10shared_ptrIT_EEUlvE_E9_M_invokeERKSt9_Any_data(GOT)
	.word	_ZNSt14_Function_base13_Base_managerIZN8asiodnp39StackBase15PerformShutdownINS1_11MasterStackEEEvRKSt10shared_ptrIT_EEUlvE_E10_M_managerERSt9_Any_dataRKSC_St18_Manager_operation(GOT)
	.personality	__gxx_personality_v0
	.handlerdata
.LLSDA8068:
	.byte	0xff
	.byte	0xff
	.byte	0x1
	.uleb128 .LLSDACSE8068-.LLSDACSB8068
.LLSDACSB8068:
	.uleb128 .LEHB59-.LFB8068
	.uleb128 .LEHE59-.LEHB59
	.uleb128 0
	.uleb128 0
	.uleb128 .LEHB60-.LFB8068
	.uleb128 .LEHE60-.LEHB60
	.uleb128 .L1406-.LFB8068
	.uleb128 0
	.uleb128 .LEHB61-.LFB8068
	.uleb128 .LEHE61-.LEHB61
	.uleb128 .L1405-.LFB8068
	.uleb128 0
	.uleb128 .LEHB62-.LFB8068
	.uleb128 .LEHE62-.LEHB62
	.uleb128 0
	.uleb128 0
	.uleb128 .LEHB63-.LFB8068
	.uleb128 .LEHE63-.LEHB63
	.uleb128 0
	.uleb128 0
.LLSDACSE8068:
	.text
	.fnend
	.size	_ZN8asiodnp311MasterStack8ShutdownEv, .-_ZN8asiodnp311MasterStack8ShutdownEv
	.set	.LTHUNK13,_ZN8asiodnp311MasterStack8ShutdownEv
	.align	2
	.global	_ZThn4_N8asiodnp311MasterStack8ShutdownEv
	.syntax unified
	.arm
	.fpu vfp
	.type	_ZThn4_N8asiodnp311MasterStack8ShutdownEv, %function
_ZThn4_N8asiodnp311MasterStack8ShutdownEv:
	.fnstart
.LFB12448:
	@ args = 0, pretend = 0, frame = 0
	@ frame_needed = 0, uses_anonymous_args = 0
	sub	r0, r0, #4
	b	.LTHUNK13(PLT)
	.fnend
	.size	_ZThn4_N8asiodnp311MasterStack8ShutdownEv, .-_ZThn4_N8asiodnp311MasterStack8ShutdownEv
	.section	.text._ZNSt14_Function_base13_Base_managerIZN8asiodnp39StackBase15PerformShutdownINS1_11MasterStackEEEvRKSt10shared_ptrIT_EEUlvE_E10_M_managerERSt9_Any_dataRKSC_St18_Manager_operation,"axG",%progbits,_ZNSt14_Function_base13_Base_managerIZN8asiodnp39StackBase15PerformShutdownINS1_11MasterStackEEEvRKSt10shared_ptrIT_EEUlvE_E10_M_managerERSt9_Any_dataRKSC_St18_Manager_operation,comdat
	.align	2
	.weak	_ZNSt14_Function_base13_Base_managerIZN8asiodnp39StackBase15PerformShutdownINS1_11MasterStackEEEvRKSt10shared_ptrIT_EEUlvE_E10_M_managerERSt9_Any_dataRKSC_St18_Manager_operation
	.syntax unified
	.arm
	.fpu vfp
	.type	_ZNSt14_Function_base13_Base_managerIZN8asiodnp39StackBase15PerformShutdownINS1_11MasterStackEEEvRKSt10shared_ptrIT_EEUlvE_E10_M_managerERSt9_Any_dataRKSC_St18_Manager_operation, %function
_ZNSt14_Function_base13_Base_managerIZN8asiodnp39StackBase15PerformShutdownINS1_11MasterStackEEEvRKSt10shared_ptrIT_EEUlvE_E10_M_managerERSt9_Any_dataRKSC_St18_Manager_operation:
	.fnstart
.LFB10305:
	@ args = 0, pretend = 0, frame = 0
	@ frame_needed = 0, uses_anonymous_args = 0
	ldr	r3, .L1458
	push	{r4, r5, r6, lr}
	.save {r4, r5, r6, lr}
.LPIC119:
	add	r3, pc, r3
	mov	r4, r0
	cmp	r2, #3
	addls	pc, pc, r2, asl #2
	b	.L1444
.L1446:
	b	.L1445
	b	.L1447
	b	.L1448
	b	.L1449
	.p2align 1
.L1449:
	ldr	r4, [r0]
	cmp	r4, #0
	beq	.L1444
	ldr	r0, [r4, #4]
	cmp	r0, #0
	beq	.L1450
	bl	_ZNSt16_Sp_counted_baseILN9__gnu_cxx12_Lock_policyE1EE10_M_releaseEv(PLT)
.L1450:
	mov	r0, r4
	mov	r1, #8
	bl	_ZdlPvj(PLT)
.L1444:
	mov	r0, #0
	pop	{r4, r5, r6, pc}
.L1448:
	mov	r0, #8
	ldr	r6, [r1]
	bl	_Znwj(PLT)
	mov	r1, r6
	mov	r5, r0
	bl	_ZNSt12__shared_ptrIN8asiodnp311MasterStackELN9__gnu_cxx12_Lock_policyE1EEC2ERKS4_(PLT)
	str	r5, [r4]
	mov	r0, #0
	pop	{r4, r5, r6, pc}
.L1447:
	ldr	r3, [r1]
	str	r3, [r0]
	mov	r0, #0
	pop	{r4, r5, r6, pc}
.L1445:
	ldr	r2, .L1458+4
	ldr	r3, [r3, r2]
	str	r3, [r0]
	mov	r0, #0
	pop	{r4, r5, r6, pc}
.L1459:
	.align	2
.L1458:
	.word	_GLOBAL_OFFSET_TABLE_-(.LPIC119+8)
	.word	_ZTIZN8asiodnp39StackBase15PerformShutdownINS_11MasterStackEEEvRKSt10shared_ptrIT_EEUlvE_(GOT)
	.fnend
	.size	_ZNSt14_Function_base13_Base_managerIZN8asiodnp39StackBase15PerformShutdownINS1_11MasterStackEEEvRKSt10shared_ptrIT_EEUlvE_E10_M_managerERSt9_Any_dataRKSC_St18_Manager_operation, .-_ZNSt14_Function_base13_Base_managerIZN8asiodnp39StackBase15PerformShutdownINS1_11MasterStackEEEvRKSt10shared_ptrIT_EEUlvE_E10_M_managerERSt9_Any_dataRKSC_St18_Manager_operation
	.section	.text._ZN4asio6detail18completion_handlerIZN7asiopal8Executor10ReturnFromISt10shared_ptrIN8opendnp311IMasterTaskEEEET_RKSt8functionIFS9_vEEEUlvE_E11do_completeEPNS0_15task_io_serviceEPNS0_25task_io_service_operationERKSt10error_codej,"axG",%progbits,_ZN4asio6detail18completion_handlerIZN7asiopal8Executor10ReturnFromISt10shared_ptrIN8opendnp311IMasterTaskEEEET_RKSt8functionIFS9_vEEEUlvE_E11do_completeEPNS0_15task_io_serviceEPNS0_25task_io_service_operationERKSt10error_codej,comdat
	.align	2
	.weak	_ZN4asio6detail18completion_handlerIZN7asiopal8Executor10ReturnFromISt10shared_ptrIN8opendnp311IMasterTaskEEEET_RKSt8functionIFS9_vEEEUlvE_E11do_completeEPNS0_15task_io_serviceEPNS0_25task_io_service_operationERKSt10error_codej
	.syntax unified
	.arm
	.fpu vfp
	.type	_ZN4asio6detail18completion_handlerIZN7asiopal8Executor10ReturnFromISt10shared_ptrIN8opendnp311IMasterTaskEEEET_RKSt8functionIFS9_vEEEUlvE_E11do_completeEPNS0_15task_io_serviceEPNS0_25task_io_service_operationERKSt10error_codej, %function
_ZN4asio6detail18completion_handlerIZN7asiopal8Executor10ReturnFromISt10shared_ptrIN8opendnp311IMasterTaskEEEET_RKSt8functionIFS9_vEEEUlvE_E11do_completeEPNS0_15task_io_serviceEPNS0_25task_io_service_operationERKSt10error_codej:
	.fnstart
.LFB11149:
	@ args = 0, pretend = 0, frame = 72
	@ frame_needed = 0, uses_anonymous_args = 0
	push	{r4, r5, r6, r7, r8, lr}
	.save {r4, r5, r6, r7, r8, lr}
	mov	r8, r0
	ldr	r4, .L1500
	ldr	r3, .L1500+4
.LPIC120:
	add	r4, pc, r4
	.pad #72
	sub	sp, sp, #72
	ldr	r3, [r4, r3]
	mov	r5, r1
	ldr	r7, [r1, #12]
	ldr	r0, [r3]
	ldr	r6, [r1, #16]
	bl	pthread_getspecific(PLT)
	cmp	r0, #0
	beq	.L1461
	ldr	r3, [r0, #4]
	cmp	r3, #0
	beq	.L1461
	ldr	r2, [r3]
	cmp	r2, #0
	beq	.L1497
.L1461:
	mov	r0, r5
	bl	_ZdlPv(PLT)
.L1462:
	cmp	r8, #0
	beq	.L1460
	add	r3, sp, #72
	mov	r2, #0
	str	r2, [r3, #-64]!
	mov	r2, #1
.L1495:
	ldrex	r1, [r3]
	strex	r0, r2, [r3]
	cmp	r0, #0
	bne	.L1495
	mcr	p15, 0, r0, c7, c10, 5
	ldr	r3, [r6, #8]
	cmp	r3, #0
	beq	.L1498
	add	r8, sp, #24
	mov	r0, r8
	ldr	r3, [r6, #12]
	mov	r1, r6
.LEHB64:
	blx	r3
.LEHE64:
	ldr	r3, .L1500+8
	ldr	r2, .L1500+12
	ldr	r5, [r7]
	str	r7, [sp, #40]
	str	r8, [sp, #44]
	ldr	r1, [r4, r3]
	ldr	r3, .L1500+16
	str	r1, [sp, #52]
	ldr	r1, [r4, r2]
	mov	r2, #0
	str	r1, [sp, #48]
	strb	r2, [sp, #7]
	ldr	r3, [r4, r3]
	ldr	r0, .L1500+20
	str	r3, [sp, #32]
	add	r3, sp, #7
	str	r3, [sp, #12]
	add	r3, sp, #32
	str	r3, [sp, #56]
	add	r3, sp, #20
	str	r3, [sp, #60]
	add	r3, sp, #16
	str	r3, [sp, #64]
.LPIC121:
	add	r0, pc, r0
	add	r3, sp, #12
	add	r6, sp, #40
	str	r2, [sp, #36]
	str	r3, [sp, #68]
	str	r5, [sp, #20]
	str	r6, [sp, #16]
	bl	__tls_get_addr(PLT)
	ldr	r3, .L1500+24
	add	r2, sp, #56
	str	r2, [r0]
.LPIC122:
	add	r0, pc, r3
	bl	__tls_get_addr(PLT)
	ldr	r2, .L1500+28
	ldr	r3, .L1500+32
	ldr	r2, [r4, r2]
	str	r2, [r0]
	ldr	r3, [r4, r3]
	cmp	r3, #0
	beq	.L1479
	ldr	r3, .L1500+36
	add	r0, r5, #16
	ldr	r1, [r4, r3]
.LEHB65:
	bl	_ZL20__gthrw_pthread_oncePiPFvvE(PLT)
	cmp	r0, #0
	bne	.L1465
	ldrb	r3, [sp, #7]	@ zero_extendqisi2
	cmp	r3, #0
	bne	.L1499
	mov	r0, #2
	bl	_ZSt20__throw_future_errori(PLT)
.LEHE65:
.L1499:
	add	r0, r5, #8
	mov	r2, #1
	mcr	p15, 0, r0, c7, c10, 5
.L1494:
	ldrex	r3, [r0]
	strex	r1, r2, [r0]
	cmp	r1, #0
	bne	.L1494
	cmp	r3, #0
	blt	.L1468
.L1471:
	ldr	r3, [sp, #48]
	cmp	r3, #0
	beq	.L1470
	mov	r2, #3
	mov	r1, r6
	mov	r0, r6
	blx	r3
.L1470:
	ldr	r0, [sp, #28]
	cmp	r0, #0
	beq	.L1473
	bl	_ZNSt16_Sp_counted_baseILN9__gnu_cxx12_Lock_policyE1EE10_M_releaseEv(PLT)
.L1473:
	mov	r3, #0
	mcr	p15, 0, r0, c7, c10, 5
	str	r3, [sp, #8]
.L1460:
	add	sp, sp, #72
	@ sp needed
	pop	{r4, r5, r6, r7, r8, pc}
.L1479:
	mvn	r0, #0
.L1465:
.LEHB66:
	bl	_ZSt20__throw_system_errori(PLT)
.LEHE66:
.L1497:
	ldrb	r2, [r5, #20]	@ zero_extendqisi2
	strb	r2, [r5]
	str	r5, [r3]
	b	.L1462
.L1481:
	ldr	r3, [sp, #48]
	cmp	r3, #0
	beq	.L1475
	mov	r2, #3
	mov	r1, r6
	mov	r0, r6
	blx	r3
.L1475:
	ldr	r0, [sp, #28]
	cmp	r0, #0
	beq	.L1478
	bl	_ZNSt16_Sp_counted_baseILN9__gnu_cxx12_Lock_policyE1EE10_M_releaseEv(PLT)
.L1478:
	mov	r3, #0
	mcr	p15, 0, r0, c7, c10, 5
	str	r3, [sp, #8]
.LEHB67:
	bl	__cxa_end_cleanup(PLT)
.LEHE67:
.L1468:
.LEHB68:
	bl	_ZNSt28__atomic_futex_unsigned_base19_M_futex_notify_allEPj(PLT)
.LEHE68:
	b	.L1471
.L1498:
.LEHB69:
	bl	_ZSt25__throw_bad_function_callv(PLT)
.LEHE69:
.L1480:
	b	.L1478
.L1501:
	.align	2
.L1500:
	.word	_GLOBAL_OFFSET_TABLE_-(.LPIC120+8)
	.word	_ZN4asio6detail10call_stackINS0_15task_io_serviceENS0_27task_io_service_thread_infoEE4top_E(GOT)
	.word	_ZNSt17_Function_handlerIFSt10unique_ptrINSt13__future_base12_Result_baseENS2_8_DeleterEEvENS1_13_State_baseV27_SetterISt10shared_ptrIN8opendnp311IMasterTaskEEOSB_EEE9_M_invokeERKSt9_Any_data(GOT)
	.word	_ZNSt14_Function_base13_Base_managerINSt13__future_base13_State_baseV27_SetterISt10shared_ptrIN8opendnp311IMasterTaskEEOS7_EEE10_M_managerERSt9_Any_dataRKSB_St18_Manager_operation(GOT)
	.word	_ZNSt13__future_base13_State_baseV29_M_do_setEPSt8functionIFSt10unique_ptrINS_12_Result_baseENS3_8_DeleterEEvEEPb(GOT)
	.word	_ZSt15__once_callable(tlsgd) + (. - .LPIC121 - 8)
	.word	_ZSt11__once_call(tlsgd) + (. - .LPIC122 - 8)
	.word	_ZZSt9call_onceIMNSt13__future_base13_State_baseV2EFvPSt8functionIFSt10unique_ptrINS0_12_Result_baseENS4_8_DeleterEEvEEPbEJPS1_S9_SA_EEvRSt9once_flagOT_DpOT0_ENUlvE0_4_FUNEv(GOT)
	.word	_ZL28__gthrw___pthread_key_createPjPFvPvE(GOT)
	.word	__once_proxy(GOT)
	.personality	__gxx_personality_v0
	.handlerdata
.LLSDA11149:
	.byte	0xff
	.byte	0xff
	.byte	0x1
	.uleb128 .LLSDACSE11149-.LLSDACSB11149
.LLSDACSB11149:
	.uleb128 .LEHB64-.LFB11149
	.uleb128 .LEHE64-.LEHB64
	.uleb128 .L1480-.LFB11149
	.uleb128 0
	.uleb128 .LEHB65-.LFB11149
	.uleb128 .LEHE65-.LEHB65
	.uleb128 .L1481-.LFB11149
	.uleb128 0
	.uleb128 .LEHB66-.LFB11149
	.uleb128 .LEHE66-.LEHB66
	.uleb128 .L1481-.LFB11149
	.uleb128 0
	.uleb128 .LEHB67-.LFB11149
	.uleb128 .LEHE67-.LEHB67
	.uleb128 0
	.uleb128 0
	.uleb128 .LEHB68-.LFB11149
	.uleb128 .LEHE68-.LEHB68
	.uleb128 .L1481-.LFB11149
	.uleb128 0
	.uleb128 .LEHB69-.LFB11149
	.uleb128 .LEHE69-.LEHB69
	.uleb128 .L1480-.LFB11149
	.uleb128 0
.LLSDACSE11149:
	.section	.text._ZN4asio6detail18completion_handlerIZN7asiopal8Executor10ReturnFromISt10shared_ptrIN8opendnp311IMasterTaskEEEET_RKSt8functionIFS9_vEEEUlvE_E11do_completeEPNS0_15task_io_serviceEPNS0_25task_io_service_operationERKSt10error_codej,"axG",%progbits,_ZN4asio6detail18completion_handlerIZN7asiopal8Executor10ReturnFromISt10shared_ptrIN8opendnp311IMasterTaskEEEET_RKSt8functionIFS9_vEEEUlvE_E11do_completeEPNS0_15task_io_serviceEPNS0_25task_io_service_operationERKSt10error_codej,comdat
	.fnend
	.size	_ZN4asio6detail18completion_handlerIZN7asiopal8Executor10ReturnFromISt10shared_ptrIN8opendnp311IMasterTaskEEEET_RKSt8functionIFS9_vEEEUlvE_E11do_completeEPNS0_15task_io_serviceEPNS0_25task_io_service_operationERKSt10error_codej, .-_ZN4asio6detail18completion_handlerIZN7asiopal8Executor10ReturnFromISt10shared_ptrIN8opendnp311IMasterTaskEEEET_RKSt8functionIFS9_vEEEUlvE_E11do_completeEPNS0_15task_io_serviceEPNS0_25task_io_service_operationERKSt10error_codej
	.section	.text._ZNSt13__future_base7_ResultISt10shared_ptrIN8opendnp311IMasterTaskEEED2Ev,"axG",%progbits,_ZNSt13__future_base7_ResultISt10shared_ptrIN8opendnp311IMasterTaskEEED5Ev,comdat
	.align	2
	.weak	_ZNSt13__future_base7_ResultISt10shared_ptrIN8opendnp311IMasterTaskEEED2Ev
	.syntax unified
	.arm
	.fpu vfp
	.type	_ZNSt13__future_base7_ResultISt10shared_ptrIN8opendnp311IMasterTaskEEED2Ev, %function
_ZNSt13__future_base7_ResultISt10shared_ptrIN8opendnp311IMasterTaskEEED2Ev:
	.fnstart
.LFB12034:
	@ args = 0, pretend = 0, frame = 0
	@ frame_needed = 0, uses_anonymous_args = 0
	ldr	r3, .L1512
	ldr	r2, .L1512+4
.LPIC123:
	add	r3, pc, r3
	ldrb	r1, [r0, #16]	@ zero_extendqisi2
	push	{r4, lr}
	mov	r4, r0
	ldr	r3, [r3, r2]
	cmp	r1, #0
	add	r3, r3, #8
	str	r3, [r0]
	beq	.L1503
	ldr	r0, [r0, #12]
	cmp	r0, #0
	beq	.L1503
	bl	_ZNSt16_Sp_counted_baseILN9__gnu_cxx12_Lock_policyE1EE10_M_releaseEv(PLT)
.L1503:
	mov	r0, r4
	bl	_ZNSt13__future_base12_Result_baseD2Ev(PLT)
	mov	r0, r4
	pop	{r4, pc}
.L1513:
	.align	2
.L1512:
	.word	_GLOBAL_OFFSET_TABLE_-(.LPIC123+8)
	.word	_ZTVNSt13__future_base7_ResultISt10shared_ptrIN8opendnp311IMasterTaskEEEE(GOT)
	.cantunwind
	.fnend
	.size	_ZNSt13__future_base7_ResultISt10shared_ptrIN8opendnp311IMasterTaskEEED2Ev, .-_ZNSt13__future_base7_ResultISt10shared_ptrIN8opendnp311IMasterTaskEEED2Ev
	.weak	_ZNSt13__future_base7_ResultISt10shared_ptrIN8opendnp311IMasterTaskEEED1Ev
	.set	_ZNSt13__future_base7_ResultISt10shared_ptrIN8opendnp311IMasterTaskEEED1Ev,_ZNSt13__future_base7_ResultISt10shared_ptrIN8opendnp311IMasterTaskEEED2Ev
	.section	.text._ZNSt17_Function_handlerIFvvEZN8asiodnp39StackBase15PerformShutdownINS1_11MasterStackEEEvRKSt10shared_ptrIT_EEUlvE_E9_M_invokeERKSt9_Any_data,"axG",%progbits,_ZNSt17_Function_handlerIFvvEZN8asiodnp39StackBase15PerformShutdownINS1_11MasterStackEEEvRKSt10shared_ptrIT_EEUlvE_E9_M_invokeERKSt9_Any_data,comdat
	.align	2
	.weak	_ZNSt17_Function_handlerIFvvEZN8asiodnp39StackBase15PerformShutdownINS1_11MasterStackEEEvRKSt10shared_ptrIT_EEUlvE_E9_M_invokeERKSt9_Any_data
	.syntax unified
	.arm
	.fpu vfp
	.type	_ZNSt17_Function_handlerIFvvEZN8asiodnp39StackBase15PerformShutdownINS1_11MasterStackEEEvRKSt10shared_ptrIT_EEUlvE_E9_M_invokeERKSt9_Any_data, %function
_ZNSt17_Function_handlerIFvvEZN8asiodnp39StackBase15PerformShutdownINS1_11MasterStackEEEvRKSt10shared_ptrIT_EEUlvE_E9_M_invokeERKSt9_Any_data:
	.fnstart
.LFB10304:
	@ args = 0, pretend = 0, frame = 16
	@ frame_needed = 0, uses_anonymous_args = 0
	push	{r4, r5, r6, r7, r8, lr}
	.save {r4, r5, r6, r7, r8, lr}
	.pad #16
	sub	sp, sp, #16
	ldr	r5, [r0]
	ldr	r4, .L1602
	ldm	r5, {r2, r3}
.LPIC124:
	add	r4, pc, r4
	add	r1, r2, #8
	cmp	r3, #0
	ldr	r0, [r2, #52]
	stmib	sp, {r1, r3}
	beq	.L1515
	ldr	r2, .L1602+4
	ldr	r2, [r4, r2]
	cmp	r2, #0
	beq	.L1516
	add	r3, r3, #28
	mcr	p15, 0, r0, c7, c10, 5
.L1588:
	ldrex	r2, [r3]
	add	r2, r2, #1
	strex	r1, r2, [r3]
	cmp	r1, #0
	bne	.L1588
	mcr	p15, 0, r0, c7, c10, 5
.L1515:
	add	r7, sp, #4
	mov	r1, r7
.LEHB70:
	bl	_ZN8asiodnp39IOHandler6RemoveERKSt10shared_ptrIN8opendnp312ILinkSessionEE(PLT)
.LEHE70:
	ldr	r6, [sp, #8]
	cmp	r6, #0
	beq	.L1518
	ldr	r3, .L1602+4
	ldr	r3, [r4, r3]
	cmp	r3, #0
	beq	.L1519
	add	r3, r6, #28
	mcr	p15, 0, r0, c7, c10, 5
.L1587:
	ldrex	r2, [r3]
	sub	r1, r2, #1
	strex	r0, r1, [r3]
	cmp	r0, #0
	bne	.L1587
	cmp	r2, #1
	mcr	p15, 0, r0, c7, c10, 5
	beq	.L1598
.L1518:
	ldm	r5, {r2, r6}
	cmp	r6, #0
	beq	.L1523
	ldr	r3, .L1602+4
	ldr	r3, [r4, r3]
	cmp	r3, #0
	beq	.L1524
	add	r3, r6, #28
	mcr	p15, 0, r0, c7, c10, 5
.L1585:
	ldrex	r1, [r3]
	add	r1, r1, #1
	strex	r0, r1, [r3]
	cmp	r0, #0
	bne	.L1585
	mcr	p15, 0, r0, c7, c10, 5
	ldr	r1, [r5]
	ldr	r1, [r1, #44]
	stmib	sp, {r2, r6}
	mcr	p15, 0, r0, c7, c10, 5
.L1586:
	ldrex	r2, [r3]
	add	r2, r2, #1
	strex	r0, r2, [r3]
	cmp	r0, #0
	bne	.L1586
	mcr	p15, 0, r0, c7, c10, 5
.L1525:
	mov	r0, r7
	add	r5, r1, #24
	ldr	r7, [r1, #20]
	bl	_ZN4asio28asio_handler_is_continuationEz(PLT)
	ldr	r3, .L1602+8
	ldr	r3, [r4, r3]
	mov	r8, r0
	ldr	r0, [r3]
	bl	pthread_getspecific(PLT)
	cmp	r0, #0
	beq	.L1526
	ldr	r3, [r0, #4]
	cmp	r3, #0
	beq	.L1526
	ldr	r2, [r3]
	cmp	r2, #0
	beq	.L1526
	mov	r1, #0
	str	r1, [r3]
	ldrb	r3, [r2]	@ zero_extendqisi2
	cmp	r3, #19
	bls	.L1599
.L1590:
	strb	r3, [r2, #20]
	ldr	r3, .L1602+12
	ldr	ip, [sp, #8]
	mov	r1, #0
	str	r1, [r2]
	ldr	r0, [r4, r3]
	ldr	r3, [sp, #4]
	cmp	ip, r1
	str	r1, [r2, #8]
	str	r0, [r2, #4]
	str	ip, [r2, #16]
	str	r3, [r2, #12]
	beq	.L1529
	ldr	r3, .L1602+4
	ldr	r3, [r4, r3]
	cmp	r3, r1
	beq	.L1530
	add	ip, ip, #28
	mcr	p15, 0, r0, c7, c10, 5
.L1584:
	ldrex	r3, [ip]
	add	r3, r3, #1
	strex	r1, r3, [ip]
	cmp	r1, #0
	bne	.L1584
	mov	r3, r8
	mov	r1, r5
	mcr	p15, 0, r0, c7, c10, 5
	add	r0, r7, #20
	bl	_ZN4asio6detail14strand_service7do_postERPNS1_11strand_implEPNS0_25task_io_service_operationEb.isra.77(PLT)
	ldr	r5, [sp, #8]
	cmp	r5, #0
	addne	r3, r5, #28
	beq	.L1532
.L1550:
	mcr	p15, 0, r0, c7, c10, 5
.L1583:
	ldrex	r2, [r3]
	sub	r1, r2, #1
	strex	r0, r1, [r3]
	cmp	r0, #0
	bne	.L1583
	cmp	r2, #1
	mcr	p15, 0, r0, c7, c10, 5
	beq	.L1600
.L1532:
	cmp	r6, #0
	beq	.L1514
	ldr	r3, .L1602+4
	ldr	r3, [r4, r3]
	cmp	r3, #0
	beq	.L1543
	add	r3, r6, #28
	mcr	p15, 0, r0, c7, c10, 5
.L1582:
	ldrex	r2, [r3]
	sub	r1, r2, #1
	strex	r0, r1, [r3]
	cmp	r0, #0
	bne	.L1582
	cmp	r2, #1
	mcr	p15, 0, r0, c7, c10, 5
	beq	.L1601
.L1514:
	add	sp, sp, #16
	@ sp needed
	pop	{r4, r5, r6, r7, r8, pc}
.L1599:
	mov	r0, r2
	bl	_ZdlPv(PLT)
.L1526:
	mov	r0, #21
.LEHB71:
	bl	_Znwj(PLT)
.LEHE71:
	mov	r2, r0
	mov	r3, #20
	b	.L1590
.L1530:
	ldr	lr, [ip, #28]
	mov	r1, r5
	add	lr, lr, #1
	mov	r3, r8
	add	r0, r7, #20
	str	lr, [ip, #28]
	bl	_ZN4asio6detail14strand_service7do_postERPNS1_11strand_implEPNS0_25task_io_service_operationEb.isra.77(PLT)
	ldr	r5, [sp, #8]
	cmp	r5, #0
	beq	.L1532
.L1533:
	ldr	r3, [r5, #28]
	cmp	r3, #1
	sub	r3, r3, #1
	str	r3, [r5, #28]
	bne	.L1532
	ldr	r3, [r5]
	mov	r0, r5
	ldr	r3, [r3, #8]
	blx	r3
	mcr	p15, 0, r0, c7, c10, 5
	ldr	r2, [r5, #32]
	sub	r3, r2, #1
	str	r3, [r5, #32]
	b	.L1551
.L1519:
	ldr	r3, [r6, #28]
	cmp	r3, #1
	sub	r3, r3, #1
	str	r3, [r6, #28]
	bne	.L1518
	ldr	r3, [r6]
	mov	r0, r6
	ldr	r3, [r3, #8]
	blx	r3
	mcr	p15, 0, r0, c7, c10, 5
	ldr	r2, [r6, #32]
	sub	r3, r2, #1
	str	r3, [r6, #32]
	b	.L1549
.L1524:
	ldr	r3, [r6, #28]
	ldr	r1, [r2, #44]
	add	r3, r3, #2
	stmib	sp, {r2, r6}
	str	r3, [r6, #28]
	b	.L1525
.L1516:
	ldr	r2, [r3, #28]
	add	r2, r2, #1
	str	r2, [r3, #28]
	b	.L1515
.L1529:
	mov	r1, r5
	mov	r3, r8
	add	r0, r7, #20
	bl	_ZN4asio6detail14strand_service7do_postERPNS1_11strand_implEPNS0_25task_io_service_operationEb.isra.77(PLT)
	ldr	r5, [sp, #8]
	cmp	r5, #0
	beq	.L1532
	ldr	r2, .L1602+4
	add	r3, r5, #28
	ldr	r2, [r4, r2]
	cmp	r2, #0
	bne	.L1550
	b	.L1533
.L1598:
	ldr	r3, [r6]
	mov	r0, r6
	ldr	r3, [r3, #8]
	blx	r3
	add	r3, r6, #32
	mcr	p15, 0, r0, c7, c10, 5
	mcr	p15, 0, r0, c7, c10, 5
.L1581:
	ldrex	r2, [r3]
	sub	r1, r2, #1
	strex	r0, r1, [r3]
	cmp	r0, #0
	bne	.L1581
	mcr	p15, 0, r0, c7, c10, 5
.L1549:
	cmp	r2, #1
	bne	.L1518
	ldr	r3, [r6]
	mov	r0, r6
	ldr	r3, [r3, #12]
	blx	r3
	b	.L1518
.L1523:
	ldr	r1, [r2, #44]
	stmib	sp, {r2, r6}
	b	.L1525
.L1543:
	ldr	r3, [r6, #28]
	cmp	r3, #1
	sub	r3, r3, #1
	str	r3, [r6, #28]
	bne	.L1514
	ldr	r3, [r6]
	mov	r0, r6
	ldr	r3, [r3, #8]
	blx	r3
	mcr	p15, 0, r0, c7, c10, 5
	ldr	r2, [r6, #32]
	sub	r3, r2, #1
	str	r3, [r6, #32]
	b	.L1552
.L1600:
	ldr	r3, [r5]
	mov	r0, r5
	ldr	r3, [r3, #8]
	blx	r3
	add	r3, r5, #32
	mcr	p15, 0, r0, c7, c10, 5
	mcr	p15, 0, r0, c7, c10, 5
.L1580:
	ldrex	r2, [r3]
	sub	r1, r2, #1
	strex	r0, r1, [r3]
	cmp	r0, #0
	bne	.L1580
	mcr	p15, 0, r0, c7, c10, 5
.L1551:
	cmp	r2, #1
	bne	.L1532
	ldr	r3, [r5]
	mov	r0, r5
	ldr	r3, [r3, #12]
	blx	r3
	b	.L1532
.L1601:
	ldr	r3, [r6]
	mov	r0, r6
	ldr	r3, [r3, #8]
	blx	r3
	add	r3, r6, #32
	mcr	p15, 0, r0, c7, c10, 5
	mcr	p15, 0, r0, c7, c10, 5
.L1579:
	ldrex	r2, [r3]
	sub	r1, r2, #1
	strex	r0, r1, [r3]
	cmp	r0, #0
	bne	.L1579
	mcr	p15, 0, r0, c7, c10, 5
.L1552:
	cmp	r2, #1
	bne	.L1514
	ldr	r3, [r6]
	mov	r0, r6
	ldr	r3, [r3, #12]
	blx	r3
	b	.L1514
.L1554:
	ldr	r0, [sp, #8]
	cmp	r0, #0
	beq	.L1540
	bl	_ZNSt16_Sp_counted_baseILN9__gnu_cxx12_Lock_policyE1EE10_M_releaseEv(PLT)
.L1540:
	cmp	r6, #0
	movne	r0, r6
	beq	.L1542
.L1591:
	bl	_ZNSt16_Sp_counted_baseILN9__gnu_cxx12_Lock_policyE1EE10_M_releaseEv(PLT)
.L1542:
.LEHB72:
	bl	__cxa_end_cleanup(PLT)
.LEHE72:
.L1553:
	ldr	r0, [sp, #8]
	cmp	r0, #0
	bne	.L1591
	b	.L1542
.L1603:
	.align	2
.L1602:
	.word	_GLOBAL_OFFSET_TABLE_-(.LPIC124+8)
	.word	_ZL28__gthrw___pthread_key_createPjPFvPvE(GOT)
	.word	_ZN4asio6detail10call_stackINS0_15task_io_serviceENS0_27task_io_service_thread_infoEE4top_E(GOT)
	.word	_ZN4asio6detail18completion_handlerIZZN8asiodnp39StackBase15PerformShutdownINS2_11MasterStackEEEvRKSt10shared_ptrIT_EENKUlvE_clEvEUlvE_E11do_completeEPNS0_15task_io_serviceEPNS0_25task_io_service_operationERKSt10error_codej(GOT)
	.personality	__gxx_personality_v0
	.handlerdata
.LLSDA10304:
	.byte	0xff
	.byte	0xff
	.byte	0x1
	.uleb128 .LLSDACSE10304-.LLSDACSB10304
.LLSDACSB10304:
	.uleb128 .LEHB70-.LFB10304
	.uleb128 .LEHE70-.LEHB70
	.uleb128 .L1553-.LFB10304
	.uleb128 0
	.uleb128 .LEHB71-.LFB10304
	.uleb128 .LEHE71-.LEHB71
	.uleb128 .L1554-.LFB10304
	.uleb128 0
	.uleb128 .LEHB72-.LFB10304
	.uleb128 .LEHE72-.LEHB72
	.uleb128 0
	.uleb128 0
.LLSDACSE10304:
	.section	.text._ZNSt17_Function_handlerIFvvEZN8asiodnp39StackBase15PerformShutdownINS1_11MasterStackEEEvRKSt10shared_ptrIT_EEUlvE_E9_M_invokeERKSt9_Any_data,"axG",%progbits,_ZNSt17_Function_handlerIFvvEZN8asiodnp39StackBase15PerformShutdownINS1_11MasterStackEEEvRKSt10shared_ptrIT_EEUlvE_E9_M_invokeERKSt9_Any_data,comdat
	.fnend
	.size	_ZNSt17_Function_handlerIFvvEZN8asiodnp39StackBase15PerformShutdownINS1_11MasterStackEEEvRKSt10shared_ptrIT_EEUlvE_E9_M_invokeERKSt9_Any_data, .-_ZNSt17_Function_handlerIFvvEZN8asiodnp39StackBase15PerformShutdownINS1_11MasterStackEEEvRKSt10shared_ptrIT_EEUlvE_E9_M_invokeERKSt9_Any_data
	.section	.text._ZNSt13__future_base7_ResultISt10shared_ptrIN8opendnp311IMasterTaskEEE10_M_destroyEv,"axG",%progbits,_ZNSt13__future_base7_ResultISt10shared_ptrIN8opendnp311IMasterTaskEEE10_M_destroyEv,comdat
	.align	2
	.weak	_ZNSt13__future_base7_ResultISt10shared_ptrIN8opendnp311IMasterTaskEEE10_M_destroyEv
	.syntax unified
	.arm
	.fpu vfp
	.type	_ZNSt13__future_base7_ResultISt10shared_ptrIN8opendnp311IMasterTaskEEE10_M_destroyEv, %function
_ZNSt13__future_base7_ResultISt10shared_ptrIN8opendnp311IMasterTaskEEE10_M_destroyEv:
	.fnstart
.LFB12032:
	@ args = 0, pretend = 0, frame = 0
	@ frame_needed = 0, uses_anonymous_args = 0
	ldr	r2, .L1617
	ldr	r1, [r0]
	ldr	r3, .L1617+4
.LPIC125:
	add	r2, pc, r2
	ldr	r1, [r1, #8]
	ldr	r3, [r2, r3]
	cmp	r1, r3
	bne	.L1605
	ldr	r3, .L1617+8
	ldrb	r1, [r0, #16]	@ zero_extendqisi2
	push	{r4, lr}
	mov	r4, r0
	ldr	r3, [r2, r3]
	cmp	r1, #0
	add	r3, r3, #8
	str	r3, [r0]
	beq	.L1606
	ldr	r0, [r0, #12]
	cmp	r0, #0
	beq	.L1606
	bl	_ZNSt16_Sp_counted_baseILN9__gnu_cxx12_Lock_policyE1EE10_M_releaseEv(PLT)
.L1606:
	mov	r0, r4
	bl	_ZNSt13__future_base12_Result_baseD2Ev(PLT)
	mov	r0, r4
	mov	r1, #20
	pop	{r4, lr}
	b	_ZdlPvj(PLT)
.L1605:
	bx	r1
.L1618:
	.align	2
.L1617:
	.word	_GLOBAL_OFFSET_TABLE_-(.LPIC125+8)
	.word	_ZNSt13__future_base7_ResultISt10shared_ptrIN8opendnp311IMasterTaskEEED0Ev(GOT)
	.word	_ZTVNSt13__future_base7_ResultISt10shared_ptrIN8opendnp311IMasterTaskEEEE(GOT)
	.cantunwind
	.fnend
	.size	_ZNSt13__future_base7_ResultISt10shared_ptrIN8opendnp311IMasterTaskEEE10_M_destroyEv, .-_ZNSt13__future_base7_ResultISt10shared_ptrIN8opendnp311IMasterTaskEEE10_M_destroyEv
	.text
	.align	2
	.syntax unified
	.arm
	.fpu vfp
	.type	_ZN4asio6detail18completion_handlerIZN8asiodnp311MasterStack13SetLogFiltersERKN7openpal10LogFiltersEEUlvE_E11do_completeEPNS0_15task_io_serviceEPNS0_25task_io_service_operationERKSt10error_codej, %function
_ZN4asio6detail18completion_handlerIZN8asiodnp311MasterStack13SetLogFiltersERKN7openpal10LogFiltersEEUlvE_E11do_completeEPNS0_15task_io_serviceEPNS0_25task_io_service_operationERKSt10error_codej:
	.fnstart
.LFB10845:
	@ args = 0, pretend = 0, frame = 16
	@ frame_needed = 0, uses_anonymous_args = 0
	ldr	r3, .L1639
	ldr	r2, .L1639+4
	push	{r4, r5, r6, r7, lr}
.LPIC126:
	add	r3, pc, r3
	mov	r4, r1
	sub	sp, sp, #20
	ldr	r1, [r1, #20]
	mov	r6, r0
	str	r1, [sp, #12]
	ldr	r2, [r3, r2]
	ldr	r7, [r4, #12]
	ldr	r5, [r4, #16]
	ldr	r0, [r2]
	bl	pthread_getspecific(PLT)
	cmp	r0, #0
	beq	.L1620
	ldr	r3, [r0, #4]
	cmp	r3, #0
	beq	.L1620
	ldr	r2, [r3]
	cmp	r2, #0
	beq	.L1638
.L1620:
	mov	r0, r4
	bl	_ZdlPv(PLT)
.L1621:
	cmp	r6, #0
	beq	.L1622
	add	r3, sp, #16
	mov	r1, #1
	mov	r2, #0
	str	r2, [r3, #-16]!
.L1636:
	ldrex	r0, [r3]
	strex	ip, r1, [r3]
	cmp	ip, #0
	bne	.L1636
	mcr	p15, 0, r0, c7, c10, 5
	ldr	r3, [r7, #36]
	ldr	r1, [sp, #12]
	str	r1, [r3, #24]
	mcr	p15, 0, r0, c7, c10, 5
	str	r2, [sp]
.L1622:
	cmp	r5, #0
	beq	.L1619
	mov	r0, r5
	bl	_ZNSt16_Sp_counted_baseILN9__gnu_cxx12_Lock_policyE1EE10_M_releaseEv(PLT)
.L1619:
	add	sp, sp, #20
	@ sp needed
	pop	{r4, r5, r6, r7, pc}
.L1638:
	ldrb	r2, [r4, #24]	@ zero_extendqisi2
	strb	r2, [r4]
	str	r4, [r3]
	b	.L1621
.L1640:
	.align	2
.L1639:
	.word	_GLOBAL_OFFSET_TABLE_-(.LPIC126+8)
	.word	_ZN4asio6detail10call_stackINS0_15task_io_serviceENS0_27task_io_service_thread_infoEE4top_E(GOT)
	.cantunwind
	.fnend
	.size	_ZN4asio6detail18completion_handlerIZN8asiodnp311MasterStack13SetLogFiltersERKN7openpal10LogFiltersEEUlvE_E11do_completeEPNS0_15task_io_serviceEPNS0_25task_io_service_operationERKSt10error_codej, .-_ZN4asio6detail18completion_handlerIZN8asiodnp311MasterStack13SetLogFiltersERKN7openpal10LogFiltersEEUlvE_E11do_completeEPNS0_15task_io_serviceEPNS0_25task_io_service_operationERKSt10error_codej
	.align	2
	.syntax unified
	.arm
	.fpu vfp
	.type	_ZN4asio6detail18completion_handlerIZN8asiodnp311MasterStack9ScanRangeEN8opendnp316GroupVariationIDEttRKNS4_10TaskConfigEEUlvE_E11do_completeEPNS0_15task_io_serviceEPNS0_25task_io_service_operationERKSt10error_codej, %function
_ZN4asio6detail18completion_handlerIZN8asiodnp311MasterStack9ScanRangeEN8opendnp316GroupVariationIDEttRKNS4_10TaskConfigEEUlvE_E11do_completeEPNS0_15task_io_serviceEPNS0_25task_io_service_operationERKSt10error_codej:
	.fnstart
.LFB10905:
	@ args = 0, pretend = 0, frame = 32
	@ frame_needed = 0, uses_anonymous_args = 0
	add	r2, r1, #28
	push	{r4, r5, r6, r7, lr}
	.save {r4, r5, r6, r7, lr}
	mov	r3, r1
	mov	r5, r0
	ldm	r2, {r0, r1, r2}
	.pad #52
	sub	sp, sp, #52
	add	r4, sp, #36
	ldrh	r7, [r3, #20]
	ldrh	r6, [r3, #22]
	ldrh	lr, [r3, #24]
	stm	r4, {r0, r1, r2}
	mov	r0, r3
	ldr	ip, [r3, #12]
	ldr	r3, [r3, #16]
	add	r2, sp, #20
	mov	r1, #40
	strh	r7, [sp, #28]	@ movhi
	strh	r6, [sp, #30]	@ movhi
	strh	lr, [sp, #32]	@ movhi
	str	ip, [sp, #20]
	str	r3, [sp, #24]
	bl	_ZN4asio23asio_handler_deallocateEPvjz(PLT)
	cmp	r5, #0
	beq	.L1642
	add	r3, sp, #48
	mov	r2, #0
	str	r2, [r3, #-32]!
	mov	r2, #1
.L1656:
	ldrex	r1, [r3]
	strex	r0, r2, [r3]
	cmp	r0, #0
	bne	.L1656
	mcr	p15, 0, r0, c7, c10, 5
	ldm	r4, {r0, r1, r2}
	ldrh	lr, [sp, #30]
	ldr	ip, [sp, #20]
	stm	sp, {r0, r1, r2}
	mov	r2, lr
	ldrh	r3, [sp, #32]
	add	r0, ip, #88
	ldr	r1, [sp, #28]
.LEHB73:
	bl	_ZN8opendnp38MContext9ScanRangeENS_16GroupVariationIDEttNS_10TaskConfigE(PLT)
.LEHE73:
	mov	r3, #0
	mcr	p15, 0, r0, c7, c10, 5
	str	r3, [sp, #16]
.L1642:
	ldr	r0, [sp, #24]
	cmp	r0, #0
	beq	.L1641
	bl	_ZNSt16_Sp_counted_baseILN9__gnu_cxx12_Lock_policyE1EE10_M_releaseEv(PLT)
.L1641:
	add	sp, sp, #52
	@ sp needed
	pop	{r4, r5, r6, r7, pc}
.L1646:
	mov	r3, #0
	mcr	p15, 0, r0, c7, c10, 5
	str	r3, [sp, #16]
	ldr	r0, [sp, #24]
	cmp	r0, r3
	beq	.L1645
	bl	_ZNSt16_Sp_counted_baseILN9__gnu_cxx12_Lock_policyE1EE10_M_releaseEv(PLT)
.L1645:
.LEHB74:
	bl	__cxa_end_cleanup(PLT)
.LEHE74:
	.personality	__gxx_personality_v0
	.handlerdata
.LLSDA10905:
	.byte	0xff
	.byte	0xff
	.byte	0x1
	.uleb128 .LLSDACSE10905-.LLSDACSB10905
.LLSDACSB10905:
	.uleb128 .LEHB73-.LFB10905
	.uleb128 .LEHE73-.LEHB73
	.uleb128 .L1646-.LFB10905
	.uleb128 0
	.uleb128 .LEHB74-.LFB10905
	.uleb128 .LEHE74-.LEHB74
	.uleb128 0
	.uleb128 0
.LLSDACSE10905:
	.text
	.fnend
	.size	_ZN4asio6detail18completion_handlerIZN8asiodnp311MasterStack9ScanRangeEN8opendnp316GroupVariationIDEttRKNS4_10TaskConfigEEUlvE_E11do_completeEPNS0_15task_io_serviceEPNS0_25task_io_service_operationERKSt10error_codej, .-_ZN4asio6detail18completion_handlerIZN8asiodnp311MasterStack9ScanRangeEN8opendnp316GroupVariationIDEttRKNS4_10TaskConfigEEUlvE_E11do_completeEPNS0_15task_io_serviceEPNS0_25task_io_service_operationERKSt10error_codej
	.align	2
	.syntax unified
	.arm
	.fpu vfp
	.type	_ZN4asio6detail18completion_handlerIZN8asiodnp311MasterStack14ScanAllObjectsEN8opendnp316GroupVariationIDERKNS4_10TaskConfigEEUlvE_E11do_completeEPNS0_15task_io_serviceEPNS0_25task_io_service_operationERKSt10error_codej, %function
_ZN4asio6detail18completion_handlerIZN8asiodnp311MasterStack14ScanAllObjectsEN8opendnp316GroupVariationIDERKNS4_10TaskConfigEEUlvE_E11do_completeEPNS0_15task_io_serviceEPNS0_25task_io_service_operationERKSt10error_codej:
	.fnstart
.LFB10893:
	@ args = 0, pretend = 0, frame = 32
	@ frame_needed = 0, uses_anonymous_args = 0
	add	r2, r1, #24
	push	{r4, r5, lr}
	.save {r4, r5, lr}
	mov	r3, r1
	mov	r5, r0
	ldm	r2, {r0, r1, r2}
	.pad #44
	sub	sp, sp, #44
	add	r4, sp, #28
	ldrh	lr, [r3, #20]
	stm	r4, {r0, r1, r2}
	mov	r0, r3
	ldr	ip, [r3, #12]
	ldr	r3, [r3, #16]
	add	r2, sp, #16
	mov	r1, #36
	strh	lr, [sp, #24]	@ movhi
	str	ip, [sp, #16]
	str	r3, [sp, #20]
	bl	_ZN4asio23asio_handler_deallocateEPvjz(PLT)
	cmp	r5, #0
	beq	.L1659
	add	r3, sp, #40
	mov	r2, #0
	str	r2, [r3, #-28]!
	mov	r2, #1
.L1673:
	ldrex	r1, [r3]
	strex	r0, r2, [r3]
	cmp	r0, #0
	bne	.L1673
	mcr	p15, 0, r0, c7, c10, 5
	ldr	r3, [sp, #36]
	ldr	r0, [sp, #16]
	str	r3, [sp]
	add	r0, r0, #88
	ldm	r4, {r2, r3}
	ldr	r1, [sp, #24]
.LEHB75:
	bl	_ZN8opendnp38MContext14ScanAllObjectsENS_16GroupVariationIDENS_10TaskConfigE(PLT)
.LEHE75:
	mov	r3, #0
	mcr	p15, 0, r0, c7, c10, 5
	str	r3, [sp, #12]
.L1659:
	ldr	r0, [sp, #20]
	cmp	r0, #0
	beq	.L1658
	bl	_ZNSt16_Sp_counted_baseILN9__gnu_cxx12_Lock_policyE1EE10_M_releaseEv(PLT)
.L1658:
	add	sp, sp, #44
	@ sp needed
	pop	{r4, r5, pc}
.L1663:
	mov	r3, #0
	mcr	p15, 0, r0, c7, c10, 5
	str	r3, [sp, #12]
	ldr	r0, [sp, #20]
	cmp	r0, r3
	beq	.L1662
	bl	_ZNSt16_Sp_counted_baseILN9__gnu_cxx12_Lock_policyE1EE10_M_releaseEv(PLT)
.L1662:
.LEHB76:
	bl	__cxa_end_cleanup(PLT)
.LEHE76:
	.personality	__gxx_personality_v0
	.handlerdata
.LLSDA10893:
	.byte	0xff
	.byte	0xff
	.byte	0x1
	.uleb128 .LLSDACSE10893-.LLSDACSB10893
.LLSDACSB10893:
	.uleb128 .LEHB75-.LFB10893
	.uleb128 .LEHE75-.LEHB75
	.uleb128 .L1663-.LFB10893
	.uleb128 0
	.uleb128 .LEHB76-.LFB10893
	.uleb128 .LEHE76-.LEHB76
	.uleb128 0
	.uleb128 0
.LLSDACSE10893:
	.text
	.fnend
	.size	_ZN4asio6detail18completion_handlerIZN8asiodnp311MasterStack14ScanAllObjectsEN8opendnp316GroupVariationIDERKNS4_10TaskConfigEEUlvE_E11do_completeEPNS0_15task_io_serviceEPNS0_25task_io_service_operationERKSt10error_codej, .-_ZN4asio6detail18completion_handlerIZN8asiodnp311MasterStack14ScanAllObjectsEN8opendnp316GroupVariationIDERKNS4_10TaskConfigEEUlvE_E11do_completeEPNS0_15task_io_serviceEPNS0_25task_io_service_operationERKSt10error_codej
	.align	2
	.syntax unified
	.arm
	.fpu vfp
	.type	_ZN4asio6detail18completion_handlerIZN8asiodnp311MasterStack11ScanClassesERKN8opendnp310ClassFieldERKNS4_10TaskConfigEEUlvE_E11do_completeEPNS0_15task_io_serviceEPNS0_25task_io_service_operationERKSt10error_codej, %function
_ZN4asio6detail18completion_handlerIZN8asiodnp311MasterStack11ScanClassesERKN8opendnp310ClassFieldERKNS4_10TaskConfigEEUlvE_E11do_completeEPNS0_15task_io_serviceEPNS0_25task_io_service_operationERKSt10error_codej:
	.fnstart
.LFB10899:
	@ args = 0, pretend = 0, frame = 32
	@ frame_needed = 0, uses_anonymous_args = 0
	add	r2, r1, #24
	push	{r4, r5, lr}
	.save {r4, r5, lr}
	mov	r3, r1
	mov	r5, r0
	ldm	r2, {r0, r1, r2}
	.pad #44
	sub	sp, sp, #44
	add	r4, sp, #28
	ldrb	lr, [r3, #20]	@ zero_extendqisi2
	stm	r4, {r0, r1, r2}
	mov	r0, r3
	ldr	ip, [r3, #12]
	ldr	r3, [r3, #16]
	add	r2, sp, #16
	mov	r1, #36
	strb	lr, [sp, #24]
	str	ip, [sp, #16]
	str	r3, [sp, #20]
	bl	_ZN4asio23asio_handler_deallocateEPvjz(PLT)
	cmp	r5, #0
	beq	.L1676
	add	r3, sp, #40
	mov	r2, #0
	str	r2, [r3, #-28]!
	mov	r2, #1
.L1690:
	ldrex	r1, [r3]
	strex	r0, r2, [r3]
	cmp	r0, #0
	bne	.L1690
	mcr	p15, 0, r0, c7, c10, 5
	ldr	r3, [sp, #36]
	ldr	r0, [sp, #16]
	str	r3, [sp]
	add	r0, r0, #88
	ldm	r4, {r2, r3}
	add	r1, sp, #24
.LEHB77:
	bl	_ZN8opendnp38MContext11ScanClassesERKNS_10ClassFieldENS_10TaskConfigE(PLT)
.LEHE77:
	mov	r3, #0
	mcr	p15, 0, r0, c7, c10, 5
	str	r3, [sp, #12]
.L1676:
	ldr	r0, [sp, #20]
	cmp	r0, #0
	beq	.L1675
	bl	_ZNSt16_Sp_counted_baseILN9__gnu_cxx12_Lock_policyE1EE10_M_releaseEv(PLT)
.L1675:
	add	sp, sp, #44
	@ sp needed
	pop	{r4, r5, pc}
.L1680:
	mov	r3, #0
	mcr	p15, 0, r0, c7, c10, 5
	str	r3, [sp, #12]
	ldr	r0, [sp, #20]
	cmp	r0, r3
	beq	.L1679
	bl	_ZNSt16_Sp_counted_baseILN9__gnu_cxx12_Lock_policyE1EE10_M_releaseEv(PLT)
.L1679:
.LEHB78:
	bl	__cxa_end_cleanup(PLT)
.LEHE78:
	.personality	__gxx_personality_v0
	.handlerdata
.LLSDA10899:
	.byte	0xff
	.byte	0xff
	.byte	0x1
	.uleb128 .LLSDACSE10899-.LLSDACSB10899
.LLSDACSB10899:
	.uleb128 .LEHB77-.LFB10899
	.uleb128 .LEHE77-.LEHB77
	.uleb128 .L1680-.LFB10899
	.uleb128 0
	.uleb128 .LEHB78-.LFB10899
	.uleb128 .LEHE78-.LEHB78
	.uleb128 0
	.uleb128 0
.LLSDACSE10899:
	.text
	.fnend
	.size	_ZN4asio6detail18completion_handlerIZN8asiodnp311MasterStack11ScanClassesERKN8opendnp310ClassFieldERKNS4_10TaskConfigEEUlvE_E11do_completeEPNS0_15task_io_serviceEPNS0_25task_io_service_operationERKSt10error_codej, .-_ZN4asio6detail18completion_handlerIZN8asiodnp311MasterStack11ScanClassesERKN8opendnp310ClassFieldERKNS4_10TaskConfigEEUlvE_E11do_completeEPNS0_15task_io_serviceEPNS0_25task_io_service_operationERKSt10error_codej
	.align	2
	.syntax unified
	.arm
	.fpu vfp
	.type	_ZN4asio6detail18completion_handlerIZN8asiodnp311MasterStack5WriteERKN8opendnp315TimeAndIntervalEtRKNS4_10TaskConfigEEUlvE_E11do_completeEPNS0_15task_io_serviceEPNS0_25task_io_service_operationERKSt10error_codej, %function
_ZN4asio6detail18completion_handlerIZN8asiodnp311MasterStack5WriteERKN8opendnp315TimeAndIntervalEtRKNS4_10TaskConfigEEUlvE_E11do_completeEPNS0_15task_io_serviceEPNS0_25task_io_service_operationERKSt10error_codej:
	.fnstart
.LFB10911:
	@ args = 0, pretend = 0, frame = 48
	@ frame_needed = 0, uses_anonymous_args = 0
	add	r3, r1, #24
	push	{r4, r5, r6, lr}
	.save {r4, r5, r6, lr}
	mov	ip, r1
	mov	r5, r0
	ldm	r3, {r0, r1, r2, r3}
	.pad #56
	sub	sp, sp, #56
	add	lr, ip, #44
	add	r4, sp, #24
	ldrh	r6, [ip, #40]
	stm	r4, {r0, r1, r2, r3}
	add	r3, sp, #56
	ldm	lr, {r0, r1, r2}
	ldr	lr, [ip, #16]
	strh	r6, [sp, #40]	@ movhi
	stmdb	r3, {r0, r1, r2}
	mov	r0, ip
	ldr	r3, [ip, #20]
	add	r2, sp, #16
	mov	r1, #56
	str	lr, [sp, #16]
	str	r3, [sp, #20]
	bl	_ZN4asio23asio_handler_deallocateEPvjz(PLT)
	cmp	r5, #0
	beq	.L1693
	add	r3, sp, #56
	mov	r2, #0
	str	r2, [r3, #-44]!
	mov	r2, #1
.L1707:
	ldrex	r1, [r3]
	strex	r0, r2, [r3]
	cmp	r0, #0
	bne	.L1707
	add	r3, sp, #56
	mcr	p15, 0, r0, c7, c10, 5
	ldmdb	r3, {r0, r1}
	ldr	r3, [sp, #16]
	ldrh	r2, [sp, #40]
	stm	sp, {r0, r1}
	add	r0, r3, #88
	mov	r1, r4
	ldr	r3, [sp, #44]
.LEHB79:
	bl	_ZN8opendnp38MContext5WriteERKNS_15TimeAndIntervalEtNS_10TaskConfigE(PLT)
.LEHE79:
	mov	r3, #0
	mcr	p15, 0, r0, c7, c10, 5
	str	r3, [sp, #12]
.L1693:
	ldr	r0, [sp, #20]
	cmp	r0, #0
	beq	.L1692
	bl	_ZNSt16_Sp_counted_baseILN9__gnu_cxx12_Lock_policyE1EE10_M_releaseEv(PLT)
.L1692:
	add	sp, sp, #56
	@ sp needed
	pop	{r4, r5, r6, pc}
.L1697:
	mov	r3, #0
	mcr	p15, 0, r0, c7, c10, 5
	str	r3, [sp, #12]
	ldr	r0, [sp, #20]
	cmp	r0, r3
	beq	.L1696
	bl	_ZNSt16_Sp_counted_baseILN9__gnu_cxx12_Lock_policyE1EE10_M_releaseEv(PLT)
.L1696:
.LEHB80:
	bl	__cxa_end_cleanup(PLT)
.LEHE80:
	.personality	__gxx_personality_v0
	.handlerdata
.LLSDA10911:
	.byte	0xff
	.byte	0xff
	.byte	0x1
	.uleb128 .LLSDACSE10911-.LLSDACSB10911
.LLSDACSB10911:
