	.arch armv6
	.eabi_attribute 28, 1
	.eabi_attribute 20, 1
	.eabi_attribute 21, 1
	.eabi_attribute 23, 3
	.eabi_attribute 24, 1
	.eabi_attribute 25, 1
	.eabi_attribute 26, 2
	.eabi_attribute 30, 2
	.eabi_attribute 34, 1
	.eabi_attribute 18, 4
	.file	"OutstationStack.cpp"
	.section	.text._ZNK9__gnu_cxx24__concurrence_lock_error4whatEv,"axG",%progbits,_ZNK9__gnu_cxx24__concurrence_lock_error4whatEv,comdat
	.align	2
	.weak	_ZNK9__gnu_cxx24__concurrence_lock_error4whatEv
	.syntax unified
	.arm
	.fpu vfp
	.type	_ZNK9__gnu_cxx24__concurrence_lock_error4whatEv, %function
_ZNK9__gnu_cxx24__concurrence_lock_error4whatEv:
	.fnstart
.LFB547:
	@ args = 0, pretend = 0, frame = 0
	@ frame_needed = 0, uses_anonymous_args = 0
	@ link register save eliminated.
	ldr	r0, .L2
.LPIC0:
	add	r0, pc, r0
	bx	lr
.L3:
	.align	2
.L2:
	.word	.LC0-(.LPIC0+8)
	.cantunwind
	.fnend
	.size	_ZNK9__gnu_cxx24__concurrence_lock_error4whatEv, .-_ZNK9__gnu_cxx24__concurrence_lock_error4whatEv
	.section	.text._ZNK9__gnu_cxx26__concurrence_unlock_error4whatEv,"axG",%progbits,_ZNK9__gnu_cxx26__concurrence_unlock_error4whatEv,comdat
	.align	2
	.weak	_ZNK9__gnu_cxx26__concurrence_unlock_error4whatEv
	.syntax unified
	.arm
	.fpu vfp
	.type	_ZNK9__gnu_cxx26__concurrence_unlock_error4whatEv, %function
_ZNK9__gnu_cxx26__concurrence_unlock_error4whatEv:
	.fnstart
.LFB548:
	@ args = 0, pretend = 0, frame = 0
	@ frame_needed = 0, uses_anonymous_args = 0
	@ link register save eliminated.
	ldr	r0, .L5
.LPIC1:
	add	r0, pc, r0
	bx	lr
.L6:
	.align	2
.L5:
	.word	.LC1-(.LPIC1+8)
	.cantunwind
	.fnend
	.size	_ZNK9__gnu_cxx26__concurrence_unlock_error4whatEv, .-_ZNK9__gnu_cxx26__concurrence_unlock_error4whatEv
	.section	.text._ZNK4asio6detail15system_category4nameEv,"axG",%progbits,_ZNK4asio6detail15system_category4nameEv,comdat
	.align	2
	.weak	_ZNK4asio6detail15system_category4nameEv
	.syntax unified
	.arm
	.fpu vfp
	.type	_ZNK4asio6detail15system_category4nameEv, %function
_ZNK4asio6detail15system_category4nameEv:
	.fnstart
.LFB2437:
	@ args = 0, pretend = 0, frame = 0
	@ frame_needed = 0, uses_anonymous_args = 0
	@ link register save eliminated.
	ldr	r0, .L8
.LPIC2:
	add	r0, pc, r0
	bx	lr
.L9:
	.align	2
.L8:
	.word	.LC2-(.LPIC2+8)
	.cantunwind
	.fnend
	.size	_ZNK4asio6detail15system_category4nameEv, .-_ZNK4asio6detail15system_category4nameEv
	.section	.text._ZNK4asio5error6detail14netdb_category4nameEv,"axG",%progbits,_ZNK4asio5error6detail14netdb_category4nameEv,comdat
	.align	2
	.weak	_ZNK4asio5error6detail14netdb_category4nameEv
	.syntax unified
	.arm
	.fpu vfp
	.type	_ZNK4asio5error6detail14netdb_category4nameEv, %function
_ZNK4asio5error6detail14netdb_category4nameEv:
	.fnstart
.LFB2458:
	@ args = 0, pretend = 0, frame = 0
	@ frame_needed = 0, uses_anonymous_args = 0
	@ link register save eliminated.
	ldr	r0, .L11
.LPIC3:
	add	r0, pc, r0
	bx	lr
.L12:
	.align	2
.L11:
	.word	.LC3-(.LPIC3+8)
	.cantunwind
	.fnend
	.size	_ZNK4asio5error6detail14netdb_category4nameEv, .-_ZNK4asio5error6detail14netdb_category4nameEv
	.section	.text._ZNK4asio5error6detail17addrinfo_category4nameEv,"axG",%progbits,_ZNK4asio5error6detail17addrinfo_category4nameEv,comdat
	.align	2
	.weak	_ZNK4asio5error6detail17addrinfo_category4nameEv
	.syntax unified
	.arm
	.fpu vfp
	.type	_ZNK4asio5error6detail17addrinfo_category4nameEv, %function
_ZNK4asio5error6detail17addrinfo_category4nameEv:
	.fnstart
.LFB2464:
	@ args = 0, pretend = 0, frame = 0
	@ frame_needed = 0, uses_anonymous_args = 0
	@ link register save eliminated.
	ldr	r0, .L14
.LPIC4:
	add	r0, pc, r0
	bx	lr
.L15:
	.align	2
.L14:
	.word	.LC4-(.LPIC4+8)
	.cantunwind
	.fnend
	.size	_ZNK4asio5error6detail17addrinfo_category4nameEv, .-_ZNK4asio5error6detail17addrinfo_category4nameEv
	.section	.text._ZNK4asio5error6detail13misc_category4nameEv,"axG",%progbits,_ZNK4asio5error6detail13misc_category4nameEv,comdat
	.align	2
	.weak	_ZNK4asio5error6detail13misc_category4nameEv
	.syntax unified
	.arm
	.fpu vfp
	.type	_ZNK4asio5error6detail13misc_category4nameEv, %function
_ZNK4asio5error6detail13misc_category4nameEv:
	.fnstart
.LFB2470:
	@ args = 0, pretend = 0, frame = 0
	@ frame_needed = 0, uses_anonymous_args = 0
	@ link register save eliminated.
	ldr	r0, .L17
.LPIC5:
	add	r0, pc, r0
	bx	lr
.L18:
	.align	2
.L17:
	.word	.LC5-(.LPIC5+8)
	.cantunwind
	.fnend
	.size	_ZNK4asio5error6detail13misc_category4nameEv, .-_ZNK4asio5error6detail13misc_category4nameEv
	.section	.text._ZNSt13__future_base13_State_baseV217_M_complete_asyncEv,"axG",%progbits,_ZNSt13__future_base13_State_baseV217_M_complete_asyncEv,comdat
	.align	2
	.weak	_ZNSt13__future_base13_State_baseV217_M_complete_asyncEv
	.syntax unified
	.arm
	.fpu vfp
	.type	_ZNSt13__future_base13_State_baseV217_M_complete_asyncEv, %function
_ZNSt13__future_base13_State_baseV217_M_complete_asyncEv:
	.fnstart
.LFB6565:
	@ args = 0, pretend = 0, frame = 0
	@ frame_needed = 0, uses_anonymous_args = 0
	@ link register save eliminated.
	bx	lr
	.cantunwind
	.fnend
	.size	_ZNSt13__future_base13_State_baseV217_M_complete_asyncEv, .-_ZNSt13__future_base13_State_baseV217_M_complete_asyncEv
	.section	.text._ZNKSt13__future_base13_State_baseV221_M_is_deferred_futureEv,"axG",%progbits,_ZNKSt13__future_base13_State_baseV221_M_is_deferred_futureEv,comdat
	.align	2
	.weak	_ZNKSt13__future_base13_State_baseV221_M_is_deferred_futureEv
	.syntax unified
	.arm
	.fpu vfp
	.type	_ZNKSt13__future_base13_State_baseV221_M_is_deferred_futureEv, %function
_ZNKSt13__future_base13_State_baseV221_M_is_deferred_futureEv:
	.fnstart
.LFB6566:
	@ args = 0, pretend = 0, frame = 0
	@ frame_needed = 0, uses_anonymous_args = 0
	@ link register save eliminated.
	mov	r0, #0
	bx	lr
	.cantunwind
	.fnend
	.size	_ZNKSt13__future_base13_State_baseV221_M_is_deferred_futureEv, .-_ZNKSt13__future_base13_State_baseV221_M_is_deferred_futureEv
	.section	.text._ZNSt14_Function_base13_Base_managerINSt13__future_base13_State_baseV27_SetterIbObEEE10_M_managerERSt9_Any_dataRKS7_St18_Manager_operation,"axG",%progbits,_ZNSt14_Function_base13_Base_managerINSt13__future_base13_State_baseV27_SetterIbObEEE10_M_managerERSt9_Any_dataRKS7_St18_Manager_operation,comdat
	.align	2
	.weak	_ZNSt14_Function_base13_Base_managerINSt13__future_base13_State_baseV27_SetterIbObEEE10_M_managerERSt9_Any_dataRKS7_St18_Manager_operation
	.syntax unified
	.arm
	.fpu vfp
	.type	_ZNSt14_Function_base13_Base_managerINSt13__future_base13_State_baseV27_SetterIbObEEE10_M_managerERSt9_Any_dataRKS7_St18_Manager_operation, %function
_ZNSt14_Function_base13_Base_managerINSt13__future_base13_State_baseV27_SetterIbObEEE10_M_managerERSt9_Any_dataRKS7_St18_Manager_operation:
	.fnstart
.LFB10501:
	@ args = 0, pretend = 0, frame = 0
	@ frame_needed = 0, uses_anonymous_args = 0
	@ link register save eliminated.
	ldr	r3, .L27
	cmp	r2, #1
.LPIC6:
	add	r3, pc, r3
	mov	ip, r0
	streq	r1, [r0]
	beq	.L22
	bcc	.L24
	cmp	r2, #2
	ldmeq	r1, {r0, r1}
	stmeq	ip, {r0, r1}
.L22:
	mov	r0, #0
	bx	lr
.L24:
	ldr	r2, .L27+4
	ldr	r3, [r3, r2]
	str	r3, [r0]
	mov	r0, #0
	bx	lr
.L28:
	.align	2
.L27:
	.word	_GLOBAL_OFFSET_TABLE_-(.LPIC6+8)
	.word	_ZTINSt13__future_base13_State_baseV27_SetterIbObEE(GOT)
	.cantunwind
	.fnend
	.size	_ZNSt14_Function_base13_Base_managerINSt13__future_base13_State_baseV27_SetterIbObEEE10_M_managerERSt9_Any_dataRKS7_St18_Manager_operation, .-_ZNSt14_Function_base13_Base_managerINSt13__future_base13_State_baseV27_SetterIbObEEE10_M_managerERSt9_Any_dataRKS7_St18_Manager_operation
	.section	.text._ZNSt14_Function_base13_Base_managerINSt13__future_base13_State_baseV27_SetterIN8opendnp315StackStatisticsEOS5_EEE10_M_managerERSt9_Any_dataRKS9_St18_Manager_operation,"axG",%progbits,_ZNSt14_Function_base13_Base_managerINSt13__future_base13_State_baseV27_SetterIN8opendnp315StackStatisticsEOS5_EEE10_M_managerERSt9_Any_dataRKS9_St18_Manager_operation,comdat
	.align	2
	.weak	_ZNSt14_Function_base13_Base_managerINSt13__future_base13_State_baseV27_SetterIN8opendnp315StackStatisticsEOS5_EEE10_M_managerERSt9_Any_dataRKS9_St18_Manager_operation
	.syntax unified
	.arm
	.fpu vfp
	.type	_ZNSt14_Function_base13_Base_managerINSt13__future_base13_State_baseV27_SetterIN8opendnp315StackStatisticsEOS5_EEE10_M_managerERSt9_Any_dataRKS9_St18_Manager_operation, %function
_ZNSt14_Function_base13_Base_managerINSt13__future_base13_State_baseV27_SetterIN8opendnp315StackStatisticsEOS5_EEE10_M_managerERSt9_Any_dataRKS9_St18_Manager_operation:
	.fnstart
.LFB10548:
	@ args = 0, pretend = 0, frame = 0
	@ frame_needed = 0, uses_anonymous_args = 0
	@ link register save eliminated.
	ldr	r3, .L34
	cmp	r2, #1
.LPIC7:
	add	r3, pc, r3
	mov	ip, r0
	streq	r1, [r0]
	beq	.L30
	bcc	.L32
	cmp	r2, #2
	ldmeq	r1, {r0, r1}
	stmeq	ip, {r0, r1}
.L30:
	mov	r0, #0
	bx	lr
.L32:
	ldr	r2, .L34+4
	ldr	r3, [r3, r2]
	str	r3, [r0]
	mov	r0, #0
	bx	lr
.L35:
	.align	2
.L34:
	.word	_GLOBAL_OFFSET_TABLE_-(.LPIC7+8)
	.word	_ZTINSt13__future_base13_State_baseV27_SetterIN8opendnp315StackStatisticsEOS3_EE(GOT)
	.cantunwind
	.fnend
	.size	_ZNSt14_Function_base13_Base_managerINSt13__future_base13_State_baseV27_SetterIN8opendnp315StackStatisticsEOS5_EEE10_M_managerERSt9_Any_dataRKS9_St18_Manager_operation, .-_ZNSt14_Function_base13_Base_managerINSt13__future_base13_State_baseV27_SetterIN8opendnp315StackStatisticsEOS5_EEE10_M_managerERSt9_Any_dataRKS9_St18_Manager_operation
	.section	.text._ZNSt13__future_base13_State_baseV2D2Ev,"axG",%progbits,_ZNSt13__future_base13_State_baseV2D5Ev,comdat
	.align	2
	.weak	_ZNSt13__future_base13_State_baseV2D2Ev
	.syntax unified
	.arm
	.fpu vfp
	.type	_ZNSt13__future_base13_State_baseV2D2Ev, %function
_ZNSt13__future_base13_State_baseV2D2Ev:
	.fnstart
.LFB11352:
	@ args = 0, pretend = 0, frame = 0
	@ frame_needed = 0, uses_anonymous_args = 0
	ldr	r3, .L42
	ldr	r2, .L42+4
.LPIC8:
	add	r3, pc, r3
	push	{r4, lr}
	.save {r4, lr}
	mov	r4, r0
	ldr	r3, [r3, r2]
	ldr	r0, [r0, #4]
	add	r3, r3, #8
	cmp	r0, #0
	str	r3, [r4]
	beq	.L37
	ldr	r3, [r0]
	ldr	r3, [r3]
	blx	r3
.L37:
	mov	r0, r4
	pop	{r4, pc}
.L43:
	.align	2
.L42:
	.word	_GLOBAL_OFFSET_TABLE_-(.LPIC8+8)
	.word	_ZTVNSt13__future_base13_State_baseV2E(GOT)
	.global	__gxx_personality_v0
	.personality	__gxx_personality_v0
	.handlerdata
.LLSDA11352:
	.byte	0xff
	.byte	0xff
	.byte	0x1
	.uleb128 .LLSDACSE11352-.LLSDACSB11352
.LLSDACSB11352:
.LLSDACSE11352:
	.section	.text._ZNSt13__future_base13_State_baseV2D2Ev,"axG",%progbits,_ZNSt13__future_base13_State_baseV2D5Ev,comdat
	.fnend
	.size	_ZNSt13__future_base13_State_baseV2D2Ev, .-_ZNSt13__future_base13_State_baseV2D2Ev
	.weak	_ZNSt13__future_base13_State_baseV2D1Ev
	.set	_ZNSt13__future_base13_State_baseV2D1Ev,_ZNSt13__future_base13_State_baseV2D2Ev
	.section	.text._ZN4asio6detail10service_idINS0_13epoll_reactorEED2Ev,"axG",%progbits,_ZN4asio6detail10service_idINS0_13epoll_reactorEED5Ev,comdat
	.align	2
	.weak	_ZN4asio6detail10service_idINS0_13epoll_reactorEED2Ev
	.syntax unified
	.arm
	.fpu vfp
	.type	_ZN4asio6detail10service_idINS0_13epoll_reactorEED2Ev, %function
_ZN4asio6detail10service_idINS0_13epoll_reactorEED2Ev:
	.fnstart
.LFB11420:
	@ args = 0, pretend = 0, frame = 0
	@ frame_needed = 0, uses_anonymous_args = 0
	@ link register save eliminated.
	bx	lr
	.cantunwind
	.fnend
	.size	_ZN4asio6detail10service_idINS0_13epoll_reactorEED2Ev, .-_ZN4asio6detail10service_idINS0_13epoll_reactorEED2Ev
	.weak	_ZN4asio6detail10service_idINS0_13epoll_reactorEED1Ev
	.set	_ZN4asio6detail10service_idINS0_13epoll_reactorEED1Ev,_ZN4asio6detail10service_idINS0_13epoll_reactorEED2Ev
	.section	.text._ZN4asio6detail10service_idINS0_15task_io_serviceEED2Ev,"axG",%progbits,_ZN4asio6detail10service_idINS0_15task_io_serviceEED5Ev,comdat
	.align	2
	.weak	_ZN4asio6detail10service_idINS0_15task_io_serviceEED2Ev
	.syntax unified
	.arm
	.fpu vfp
	.type	_ZN4asio6detail10service_idINS0_15task_io_serviceEED2Ev, %function
_ZN4asio6detail10service_idINS0_15task_io_serviceEED2Ev:
	.fnstart
.LFB11423:
	@ args = 0, pretend = 0, frame = 0
	@ frame_needed = 0, uses_anonymous_args = 0
	@ link register save eliminated.
	bx	lr
	.cantunwind
	.fnend
	.size	_ZN4asio6detail10service_idINS0_15task_io_serviceEED2Ev, .-_ZN4asio6detail10service_idINS0_15task_io_serviceEED2Ev
	.weak	_ZN4asio6detail10service_idINS0_15task_io_serviceEED1Ev
	.set	_ZN4asio6detail10service_idINS0_15task_io_serviceEED1Ev,_ZN4asio6detail10service_idINS0_15task_io_serviceEED2Ev
	.section	.text._ZN4asio6detail10service_idINS0_14strand_serviceEED2Ev,"axG",%progbits,_ZN4asio6detail10service_idINS0_14strand_serviceEED5Ev,comdat
	.align	2
	.weak	_ZN4asio6detail10service_idINS0_14strand_serviceEED2Ev
	.syntax unified
	.arm
	.fpu vfp
	.type	_ZN4asio6detail10service_idINS0_14strand_serviceEED2Ev, %function
_ZN4asio6detail10service_idINS0_14strand_serviceEED2Ev:
	.fnstart
.LFB11429:
	@ args = 0, pretend = 0, frame = 0
	@ frame_needed = 0, uses_anonymous_args = 0
	@ link register save eliminated.
	bx	lr
	.cantunwind
	.fnend
	.size	_ZN4asio6detail10service_idINS0_14strand_serviceEED2Ev, .-_ZN4asio6detail10service_idINS0_14strand_serviceEED2Ev
	.weak	_ZN4asio6detail10service_idINS0_14strand_serviceEED1Ev
	.set	_ZN4asio6detail10service_idINS0_14strand_serviceEED1Ev,_ZN4asio6detail10service_idINS0_14strand_serviceEED2Ev
	.section	.text._ZNSt23_Sp_counted_ptr_inplaceINSt13__future_base13_State_baseV2ESaIS1_ELN9__gnu_cxx12_Lock_policyE1EED2Ev,"axG",%progbits,_ZNSt23_Sp_counted_ptr_inplaceINSt13__future_base13_State_baseV2ESaIS1_ELN9__gnu_cxx12_Lock_policyE1EED5Ev,comdat
	.align	2
	.weak	_ZNSt23_Sp_counted_ptr_inplaceINSt13__future_base13_State_baseV2ESaIS1_ELN9__gnu_cxx12_Lock_policyE1EED2Ev
	.syntax unified
	.arm
	.fpu vfp
	.type	_ZNSt23_Sp_counted_ptr_inplaceINSt13__future_base13_State_baseV2ESaIS1_ELN9__gnu_cxx12_Lock_policyE1EED2Ev, %function
_ZNSt23_Sp_counted_ptr_inplaceINSt13__future_base13_State_baseV2ESaIS1_ELN9__gnu_cxx12_Lock_policyE1EED2Ev:
	.fnstart
.LFB11502:
	@ args = 0, pretend = 0, frame = 0
	@ frame_needed = 0, uses_anonymous_args = 0
	@ link register save eliminated.
	bx	lr
	.cantunwind
	.fnend
	.size	_ZNSt23_Sp_counted_ptr_inplaceINSt13__future_base13_State_baseV2ESaIS1_ELN9__gnu_cxx12_Lock_policyE1EED2Ev, .-_ZNSt23_Sp_counted_ptr_inplaceINSt13__future_base13_State_baseV2ESaIS1_ELN9__gnu_cxx12_Lock_policyE1EED2Ev
	.weak	_ZNSt23_Sp_counted_ptr_inplaceINSt13__future_base13_State_baseV2ESaIS1_ELN9__gnu_cxx12_Lock_policyE1EED1Ev
	.set	_ZNSt23_Sp_counted_ptr_inplaceINSt13__future_base13_State_baseV2ESaIS1_ELN9__gnu_cxx12_Lock_policyE1EED1Ev,_ZNSt23_Sp_counted_ptr_inplaceINSt13__future_base13_State_baseV2ESaIS1_ELN9__gnu_cxx12_Lock_policyE1EED2Ev
	.section	.text._ZNSt23_Sp_counted_ptr_inplaceINSt13__future_base13_State_baseV2ESaIS1_ELN9__gnu_cxx12_Lock_policyE1EE10_M_disposeEv,"axG",%progbits,_ZNSt23_Sp_counted_ptr_inplaceINSt13__future_base13_State_baseV2ESaIS1_ELN9__gnu_cxx12_Lock_policyE1EE10_M_disposeEv,comdat
	.align	2
	.weak	_ZNSt23_Sp_counted_ptr_inplaceINSt13__future_base13_State_baseV2ESaIS1_ELN9__gnu_cxx12_Lock_policyE1EE10_M_disposeEv
	.syntax unified
	.arm
	.fpu vfp
	.type	_ZNSt23_Sp_counted_ptr_inplaceINSt13__future_base13_State_baseV2ESaIS1_ELN9__gnu_cxx12_Lock_policyE1EE10_M_disposeEv, %function
_ZNSt23_Sp_counted_ptr_inplaceINSt13__future_base13_State_baseV2ESaIS1_ELN9__gnu_cxx12_Lock_policyE1EE10_M_disposeEv:
	.fnstart
.LFB11505:
	@ args = 0, pretend = 0, frame = 0
	@ frame_needed = 0, uses_anonymous_args = 0
	@ link register save eliminated.
	mov	r3, r0
	add	r0, r0, #36
	ldr	r3, [r3, #36]
	ldr	r3, [r3]
	bx	r3
	.cantunwind
	.fnend
	.size	_ZNSt23_Sp_counted_ptr_inplaceINSt13__future_base13_State_baseV2ESaIS1_ELN9__gnu_cxx12_Lock_policyE1EE10_M_disposeEv, .-_ZNSt23_Sp_counted_ptr_inplaceINSt13__future_base13_State_baseV2ESaIS1_ELN9__gnu_cxx12_Lock_policyE1EE10_M_disposeEv
	.section	.text._ZNSt13__future_base13_State_baseV2D0Ev,"axG",%progbits,_ZNSt13__future_base13_State_baseV2D5Ev,comdat
	.align	2
	.weak	_ZNSt13__future_base13_State_baseV2D0Ev
	.syntax unified
	.arm
	.fpu vfp
	.type	_ZNSt13__future_base13_State_baseV2D0Ev, %function
_ZNSt13__future_base13_State_baseV2D0Ev:
	.fnstart
.LFB11354:
	@ args = 0, pretend = 0, frame = 0
	@ frame_needed = 0, uses_anonymous_args = 0
	ldr	r3, .L55
	ldr	r2, .L55+4
.LPIC9:
	add	r3, pc, r3
	push	{r4, lr}
	.save {r4, lr}
	mov	r4, r0
	ldr	r3, [r3, r2]
	ldr	r0, [r0, #4]
	add	r3, r3, #8
	cmp	r0, #0
	str	r3, [r4]
	beq	.L50
	ldr	r3, [r0]
	ldr	r3, [r3]
	blx	r3
.L50:
	mov	r0, r4
	mov	r1, #20
	bl	_ZdlPvj(PLT)
	mov	r0, r4
	pop	{r4, pc}
.L56:
	.align	2
.L55:
	.word	_GLOBAL_OFFSET_TABLE_-(.LPIC9+8)
	.word	_ZTVNSt13__future_base13_State_baseV2E(GOT)
	.personality	__gxx_personality_v0
	.handlerdata
.LLSDA11354:
	.byte	0xff
	.byte	0xff
	.byte	0x1
	.uleb128 .LLSDACSE11354-.LLSDACSB11354
.LLSDACSB11354:
.LLSDACSE11354:
	.section	.text._ZNSt13__future_base13_State_baseV2D0Ev,"axG",%progbits,_ZNSt13__future_base13_State_baseV2D5Ev,comdat
	.fnend
	.size	_ZNSt13__future_base13_State_baseV2D0Ev, .-_ZNSt13__future_base13_State_baseV2D0Ev
	.section	.text._ZNSt23_Sp_counted_ptr_inplaceINSt13__future_base13_State_baseV2ESaIS1_ELN9__gnu_cxx12_Lock_policyE1EED0Ev,"axG",%progbits,_ZNSt23_Sp_counted_ptr_inplaceINSt13__future_base13_State_baseV2ESaIS1_ELN9__gnu_cxx12_Lock_policyE1EED5Ev,comdat
	.align	2
	.weak	_ZNSt23_Sp_counted_ptr_inplaceINSt13__future_base13_State_baseV2ESaIS1_ELN9__gnu_cxx12_Lock_policyE1EED0Ev
	.syntax unified
	.arm
	.fpu vfp
	.type	_ZNSt23_Sp_counted_ptr_inplaceINSt13__future_base13_State_baseV2ESaIS1_ELN9__gnu_cxx12_Lock_policyE1EED0Ev, %function
_ZNSt23_Sp_counted_ptr_inplaceINSt13__future_base13_State_baseV2ESaIS1_ELN9__gnu_cxx12_Lock_policyE1EED0Ev:
	.fnstart
.LFB11504:
	@ args = 0, pretend = 0, frame = 0
	@ frame_needed = 0, uses_anonymous_args = 0
	push	{r4, lr}
	mov	r1, #56
	mov	r4, r0
	bl	_ZdlPvj(PLT)
	mov	r0, r4
	pop	{r4, pc}
	.cantunwind
	.fnend
	.size	_ZNSt23_Sp_counted_ptr_inplaceINSt13__future_base13_State_baseV2ESaIS1_ELN9__gnu_cxx12_Lock_policyE1EED0Ev, .-_ZNSt23_Sp_counted_ptr_inplaceINSt13__future_base13_State_baseV2ESaIS1_ELN9__gnu_cxx12_Lock_policyE1EED0Ev
	.section	.text._ZNSt23_Sp_counted_ptr_inplaceINSt13__future_base13_State_baseV2ESaIS1_ELN9__gnu_cxx12_Lock_policyE1EE10_M_destroyEv,"axG",%progbits,_ZNSt23_Sp_counted_ptr_inplaceINSt13__future_base13_State_baseV2ESaIS1_ELN9__gnu_cxx12_Lock_policyE1EE10_M_destroyEv,comdat
	.align	2
	.weak	_ZNSt23_Sp_counted_ptr_inplaceINSt13__future_base13_State_baseV2ESaIS1_ELN9__gnu_cxx12_Lock_policyE1EE10_M_destroyEv
	.syntax unified
	.arm
	.fpu vfp
	.type	_ZNSt23_Sp_counted_ptr_inplaceINSt13__future_base13_State_baseV2ESaIS1_ELN9__gnu_cxx12_Lock_policyE1EE10_M_destroyEv, %function
_ZNSt23_Sp_counted_ptr_inplaceINSt13__future_base13_State_baseV2ESaIS1_ELN9__gnu_cxx12_Lock_policyE1EE10_M_destroyEv:
	.fnstart
.LFB11506:
	@ args = 0, pretend = 0, frame = 0
	@ frame_needed = 0, uses_anonymous_args = 0
	@ link register save eliminated.
	b	_ZdlPv(PLT)
	.cantunwind
	.fnend
	.size	_ZNSt23_Sp_counted_ptr_inplaceINSt13__future_base13_State_baseV2ESaIS1_ELN9__gnu_cxx12_Lock_policyE1EE10_M_destroyEv, .-_ZNSt23_Sp_counted_ptr_inplaceINSt13__future_base13_State_baseV2ESaIS1_ELN9__gnu_cxx12_Lock_policyE1EE10_M_destroyEv
	.section	.text._ZNSt13__future_base7_ResultIbED2Ev,"axG",%progbits,_ZNSt13__future_base7_ResultIbED5Ev,comdat
	.align	2
	.weak	_ZNSt13__future_base7_ResultIbED2Ev
	.syntax unified
	.arm
	.fpu vfp
	.type	_ZNSt13__future_base7_ResultIbED2Ev, %function
_ZNSt13__future_base7_ResultIbED2Ev:
	.fnstart
.LFB11529:
	@ args = 0, pretend = 0, frame = 0
	@ frame_needed = 0, uses_anonymous_args = 0
	ldr	r3, .L62
	ldr	r2, .L62+4
.LPIC10:
	add	r3, pc, r3
	push	{r4, lr}
	mov	r4, r0
	ldr	r3, [r3, r2]
	add	r3, r3, #8
	str	r3, [r0]
	bl	_ZNSt13__future_base12_Result_baseD2Ev(PLT)
	mov	r0, r4
	pop	{r4, pc}
.L63:
	.align	2
.L62:
	.word	_GLOBAL_OFFSET_TABLE_-(.LPIC10+8)
	.word	_ZTVNSt13__future_base7_ResultIbEE(GOT)
	.cantunwind
	.fnend
	.size	_ZNSt13__future_base7_ResultIbED2Ev, .-_ZNSt13__future_base7_ResultIbED2Ev
	.weak	_ZNSt13__future_base7_ResultIbED1Ev
	.set	_ZNSt13__future_base7_ResultIbED1Ev,_ZNSt13__future_base7_ResultIbED2Ev
	.section	.text._ZNSt13__future_base7_ResultIbED0Ev,"axG",%progbits,_ZNSt13__future_base7_ResultIbED5Ev,comdat
	.align	2
	.weak	_ZNSt13__future_base7_ResultIbED0Ev
	.syntax unified
	.arm
	.fpu vfp
	.type	_ZNSt13__future_base7_ResultIbED0Ev, %function
_ZNSt13__future_base7_ResultIbED0Ev:
	.fnstart
.LFB11531:
	@ args = 0, pretend = 0, frame = 0
	@ frame_needed = 0, uses_anonymous_args = 0
	ldr	r3, .L66
	ldr	r2, .L66+4
.LPIC11:
	add	r3, pc, r3
	push	{r4, lr}
	mov	r4, r0
	ldr	r3, [r3, r2]
	add	r3, r3, #8
	str	r3, [r0]
	bl	_ZNSt13__future_base12_Result_baseD2Ev(PLT)
	mov	r0, r4
	mov	r1, #12
	bl	_ZdlPvj(PLT)
	mov	r0, r4
	pop	{r4, pc}
.L67:
	.align	2
.L66:
	.word	_GLOBAL_OFFSET_TABLE_-(.LPIC11+8)
	.word	_ZTVNSt13__future_base7_ResultIbEE(GOT)
	.cantunwind
	.fnend
	.size	_ZNSt13__future_base7_ResultIbED0Ev, .-_ZNSt13__future_base7_ResultIbED0Ev
	.section	.text._ZNSt13__future_base7_ResultIN8opendnp315StackStatisticsEED2Ev,"axG",%progbits,_ZNSt13__future_base7_ResultIN8opendnp315StackStatisticsEED5Ev,comdat
	.align	2
	.weak	_ZNSt13__future_base7_ResultIN8opendnp315StackStatisticsEED2Ev
	.syntax unified
	.arm
	.fpu vfp
	.type	_ZNSt13__future_base7_ResultIN8opendnp315StackStatisticsEED2Ev, %function
_ZNSt13__future_base7_ResultIN8opendnp315StackStatisticsEED2Ev:
	.fnstart
.LFB11524:
	@ args = 0, pretend = 0, frame = 0
	@ frame_needed = 0, uses_anonymous_args = 0
	ldr	r3, .L70
	ldr	r2, .L70+4
.LPIC12:
	add	r3, pc, r3
	push	{r4, lr}
	mov	r4, r0
	ldr	r3, [r3, r2]
	add	r3, r3, #8
	str	r3, [r0]
	bl	_ZNSt13__future_base12_Result_baseD2Ev(PLT)
	mov	r0, r4
	pop	{r4, pc}
.L71:
	.align	2
.L70:
	.word	_GLOBAL_OFFSET_TABLE_-(.LPIC12+8)
	.word	_ZTVNSt13__future_base7_ResultIN8opendnp315StackStatisticsEEE(GOT)
	.cantunwind
	.fnend
	.size	_ZNSt13__future_base7_ResultIN8opendnp315StackStatisticsEED2Ev, .-_ZNSt13__future_base7_ResultIN8opendnp315StackStatisticsEED2Ev
	.weak	_ZNSt13__future_base7_ResultIN8opendnp315StackStatisticsEED1Ev
	.set	_ZNSt13__future_base7_ResultIN8opendnp315StackStatisticsEED1Ev,_ZNSt13__future_base7_ResultIN8opendnp315StackStatisticsEED2Ev
	.section	.text._ZNSt13__future_base7_ResultIN8opendnp315StackStatisticsEED0Ev,"axG",%progbits,_ZNSt13__future_base7_ResultIN8opendnp315StackStatisticsEED5Ev,comdat
	.align	2
	.weak	_ZNSt13__future_base7_ResultIN8opendnp315StackStatisticsEED0Ev
	.syntax unified
	.arm
	.fpu vfp
	.type	_ZNSt13__future_base7_ResultIN8opendnp315StackStatisticsEED0Ev, %function
_ZNSt13__future_base7_ResultIN8opendnp315StackStatisticsEED0Ev:
	.fnstart
.LFB11526:
	@ args = 0, pretend = 0, frame = 0
	@ frame_needed = 0, uses_anonymous_args = 0
	ldr	r3, .L74
	ldr	r2, .L74+4
.LPIC13:
	add	r3, pc, r3
	push	{r4, lr}
	mov	r4, r0
	ldr	r3, [r3, r2]
	add	r3, r3, #8
	str	r3, [r0]
	bl	_ZNSt13__future_base12_Result_baseD2Ev(PLT)
	mov	r0, r4
	mov	r1, #52
	bl	_ZdlPvj(PLT)
	mov	r0, r4
	pop	{r4, pc}
.L75:
	.align	2
.L74:
	.word	_GLOBAL_OFFSET_TABLE_-(.LPIC13+8)
	.word	_ZTVNSt13__future_base7_ResultIN8opendnp315StackStatisticsEEE(GOT)
	.cantunwind
	.fnend
	.size	_ZNSt13__future_base7_ResultIN8opendnp315StackStatisticsEED0Ev, .-_ZNSt13__future_base7_ResultIN8opendnp315StackStatisticsEED0Ev
	.section	.text._ZNSt23_Sp_counted_ptr_inplaceINSt13__future_base13_State_baseV2ESaIS1_ELN9__gnu_cxx12_Lock_policyE1EE14_M_get_deleterERKSt9type_info,"axG",%progbits,_ZNSt23_Sp_counted_ptr_inplaceINSt13__future_base13_State_baseV2ESaIS1_ELN9__gnu_cxx12_Lock_policyE1EE14_M_get_deleterERKSt9type_info,comdat
	.align	2
	.weak	_ZNSt23_Sp_counted_ptr_inplaceINSt13__future_base13_State_baseV2ESaIS1_ELN9__gnu_cxx12_Lock_policyE1EE14_M_get_deleterERKSt9type_info
	.syntax unified
	.arm
	.fpu vfp
	.type	_ZNSt23_Sp_counted_ptr_inplaceINSt13__future_base13_State_baseV2ESaIS1_ELN9__gnu_cxx12_Lock_policyE1EE14_M_get_deleterERKSt9type_info, %function
_ZNSt23_Sp_counted_ptr_inplaceINSt13__future_base13_State_baseV2ESaIS1_ELN9__gnu_cxx12_Lock_policyE1EE14_M_get_deleterERKSt9type_info:
	.fnstart
.LFB11507:
	@ args = 0, pretend = 0, frame = 0
	@ frame_needed = 0, uses_anonymous_args = 0
	ldr	r3, .L80
	ldr	r2, .L80+4
.LPIC14:
	add	r3, pc, r3
	push	{r4, lr}
	mov	r4, r0
	ldr	r2, [r3, r2]
	mov	r0, r1
	mov	r1, r2
	bl	_ZNKSt9type_infoeqERKS_(PLT)
	cmp	r0, #0
	addne	r0, r4, #36
	pop	{r4, pc}
.L81:
	.align	2
.L80:
	.word	_GLOBAL_OFFSET_TABLE_-(.LPIC14+8)
	.word	_ZTISt19_Sp_make_shared_tag(GOT)
	.cantunwind
	.fnend
	.size	_ZNSt23_Sp_counted_ptr_inplaceINSt13__future_base13_State_baseV2ESaIS1_ELN9__gnu_cxx12_Lock_policyE1EE14_M_get_deleterERKSt9type_info, .-_ZNSt23_Sp_counted_ptr_inplaceINSt13__future_base13_State_baseV2ESaIS1_ELN9__gnu_cxx12_Lock_policyE1EE14_M_get_deleterERKSt9type_info
	.section	.text._ZN7openpal5ArrayIhjED2Ev,"axG",%progbits,_ZN7openpal5ArrayIhjED5Ev,comdat
	.align	2
	.weak	_ZN7openpal5ArrayIhjED2Ev
	.syntax unified
	.arm
	.fpu vfp
	.type	_ZN7openpal5ArrayIhjED2Ev, %function
_ZN7openpal5ArrayIhjED2Ev:
	.fnstart
.LFB8990:
	@ args = 0, pretend = 0, frame = 0
	@ frame_needed = 0, uses_anonymous_args = 0
	ldr	r3, .L88
	ldr	r2, .L88+4
.LPIC15:
	add	r3, pc, r3
	push	{r4, lr}
	mov	r4, r0
	ldr	r3, [r3, r2]
	ldr	r0, [r0, #8]
	add	r3, r3, #8
	cmp	r0, #0
	str	r3, [r4]
	beq	.L83
	bl	_ZdaPv(PLT)
.L83:
	mov	r0, r4
	pop	{r4, pc}
.L89:
	.align	2
.L88:
	.word	_GLOBAL_OFFSET_TABLE_-(.LPIC15+8)
	.word	_ZTVN7openpal5ArrayIhjEE(GOT)
	.cantunwind
	.fnend
	.size	_ZN7openpal5ArrayIhjED2Ev, .-_ZN7openpal5ArrayIhjED2Ev
	.weak	_ZN7openpal5ArrayIhjED1Ev
	.set	_ZN7openpal5ArrayIhjED1Ev,_ZN7openpal5ArrayIhjED2Ev
	.section	.text._ZN7openpal5ArrayIhjED0Ev,"axG",%progbits,_ZN7openpal5ArrayIhjED5Ev,comdat
	.align	2
	.weak	_ZN7openpal5ArrayIhjED0Ev
	.syntax unified
	.arm
	.fpu vfp
	.type	_ZN7openpal5ArrayIhjED0Ev, %function
_ZN7openpal5ArrayIhjED0Ev:
	.fnstart
.LFB8992:
	@ args = 0, pretend = 0, frame = 0
	@ frame_needed = 0, uses_anonymous_args = 0
	ldr	r3, .L96
	ldr	r2, .L96+4
.LPIC16:
	add	r3, pc, r3
	push	{r4, lr}
	mov	r4, r0
	ldr	r3, [r3, r2]
	ldr	r0, [r0, #8]
	add	r3, r3, #8
	cmp	r0, #0
	str	r3, [r4]
	beq	.L91
	bl	_ZdaPv(PLT)
.L91:
	mov	r0, r4
	mov	r1, #12
	bl	_ZdlPvj(PLT)
	mov	r0, r4
	pop	{r4, pc}
.L97:
	.align	2
.L96:
	.word	_GLOBAL_OFFSET_TABLE_-(.LPIC16+8)
	.word	_ZTVN7openpal5ArrayIhjEE(GOT)
	.cantunwind
	.fnend
	.size	_ZN7openpal5ArrayIhjED0Ev, .-_ZN7openpal5ArrayIhjED0Ev
	.section	.text._ZN7openpal5ArrayIN8opendnp34CellINS1_19TimeAndIntervalSpecEEEtED2Ev,"axG",%progbits,_ZN7openpal5ArrayIN8opendnp34CellINS1_19TimeAndIntervalSpecEEEtED5Ev,comdat
	.align	2
	.weak	_ZN7openpal5ArrayIN8opendnp34CellINS1_19TimeAndIntervalSpecEEEtED2Ev
	.syntax unified
	.arm
	.fpu vfp
	.type	_ZN7openpal5ArrayIN8opendnp34CellINS1_19TimeAndIntervalSpecEEEtED2Ev, %function
_ZN7openpal5ArrayIN8opendnp34CellINS1_19TimeAndIntervalSpecEEEtED2Ev:
	.fnstart
.LFB11566:
	@ args = 0, pretend = 0, frame = 0
	@ frame_needed = 0, uses_anonymous_args = 0
	ldr	r3, .L104
	ldr	r2, .L104+4
.LPIC17:
	add	r3, pc, r3
	push	{r4, lr}
	mov	r4, r0
	ldr	r3, [r3, r2]
	ldr	r0, [r0, #8]
	add	r3, r3, #8
	cmp	r0, #0
	str	r3, [r4]
	beq	.L99
	bl	_ZdaPv(PLT)
.L99:
	mov	r0, r4
	pop	{r4, pc}
.L105:
	.align	2
.L104:
	.word	_GLOBAL_OFFSET_TABLE_-(.LPIC17+8)
	.word	_ZTVN7openpal5ArrayIN8opendnp34CellINS1_19TimeAndIntervalSpecEEEtEE(GOT)
	.cantunwind
	.fnend
	.size	_ZN7openpal5ArrayIN8opendnp34CellINS1_19TimeAndIntervalSpecEEEtED2Ev, .-_ZN7openpal5ArrayIN8opendnp34CellINS1_19TimeAndIntervalSpecEEEtED2Ev
	.weak	_ZN7openpal5ArrayIN8opendnp34CellINS1_19TimeAndIntervalSpecEEEtED1Ev
	.set	_ZN7openpal5ArrayIN8opendnp34CellINS1_19TimeAndIntervalSpecEEEtED1Ev,_ZN7openpal5ArrayIN8opendnp34CellINS1_19TimeAndIntervalSpecEEEtED2Ev
	.section	.text._ZN7openpal5ArrayIN8opendnp34CellINS1_19TimeAndIntervalSpecEEEtED0Ev,"axG",%progbits,_ZN7openpal5ArrayIN8opendnp34CellINS1_19TimeAndIntervalSpecEEEtED5Ev,comdat
	.align	2
	.weak	_ZN7openpal5ArrayIN8opendnp34CellINS1_19TimeAndIntervalSpecEEEtED0Ev
	.syntax unified
	.arm
	.fpu vfp
	.type	_ZN7openpal5ArrayIN8opendnp34CellINS1_19TimeAndIntervalSpecEEEtED0Ev, %function
_ZN7openpal5ArrayIN8opendnp34CellINS1_19TimeAndIntervalSpecEEEtED0Ev:
	.fnstart
.LFB11568:
	@ args = 0, pretend = 0, frame = 0
	@ frame_needed = 0, uses_anonymous_args = 0
	ldr	r3, .L112
	ldr	r2, .L112+4
.LPIC18:
	add	r3, pc, r3
	push	{r4, lr}
	mov	r4, r0
	ldr	r3, [r3, r2]
	ldr	r0, [r0, #8]
	add	r3, r3, #8
	cmp	r0, #0
	str	r3, [r4]
	beq	.L107
	bl	_ZdaPv(PLT)
.L107:
	mov	r0, r4
	mov	r1, #12
	bl	_ZdlPvj(PLT)
	mov	r0, r4
	pop	{r4, pc}
.L113:
	.align	2
.L112:
	.word	_GLOBAL_OFFSET_TABLE_-(.LPIC18+8)
	.word	_ZTVN7openpal5ArrayIN8opendnp34CellINS1_19TimeAndIntervalSpecEEEtEE(GOT)
	.cantunwind
	.fnend
	.size	_ZN7openpal5ArrayIN8opendnp34CellINS1_19TimeAndIntervalSpecEEEtED0Ev, .-_ZN7openpal5ArrayIN8opendnp34CellINS1_19TimeAndIntervalSpecEEEtED0Ev
	.section	.text._ZN7openpal5ArrayIN8opendnp34CellINS1_22AnalogOutputStatusSpecEEEtED2Ev,"axG",%progbits,_ZN7openpal5ArrayIN8opendnp34CellINS1_22AnalogOutputStatusSpecEEEtED5Ev,comdat
	.align	2
	.weak	_ZN7openpal5ArrayIN8opendnp34CellINS1_22AnalogOutputStatusSpecEEEtED2Ev
	.syntax unified
	.arm
	.fpu vfp
	.type	_ZN7openpal5ArrayIN8opendnp34CellINS1_22AnalogOutputStatusSpecEEEtED2Ev, %function
_ZN7openpal5ArrayIN8opendnp34CellINS1_22AnalogOutputStatusSpecEEEtED2Ev:
	.fnstart
.LFB11562:
	@ args = 0, pretend = 0, frame = 0
	@ frame_needed = 0, uses_anonymous_args = 0
	ldr	r3, .L120
	ldr	r2, .L120+4
.LPIC19:
	add	r3, pc, r3
	push	{r4, lr}
	mov	r4, r0
	ldr	r3, [r3, r2]
	ldr	r0, [r0, #8]
	add	r3, r3, #8
	cmp	r0, #0
	str	r3, [r4]
	beq	.L115
	bl	_ZdaPv(PLT)
.L115:
	mov	r0, r4
	pop	{r4, pc}
.L121:
	.align	2
.L120:
	.word	_GLOBAL_OFFSET_TABLE_-(.LPIC19+8)
	.word	_ZTVN7openpal5ArrayIN8opendnp34CellINS1_22AnalogOutputStatusSpecEEEtEE(GOT)
	.cantunwind
	.fnend
	.size	_ZN7openpal5ArrayIN8opendnp34CellINS1_22AnalogOutputStatusSpecEEEtED2Ev, .-_ZN7openpal5ArrayIN8opendnp34CellINS1_22AnalogOutputStatusSpecEEEtED2Ev
	.weak	_ZN7openpal5ArrayIN8opendnp34CellINS1_22AnalogOutputStatusSpecEEEtED1Ev
	.set	_ZN7openpal5ArrayIN8opendnp34CellINS1_22AnalogOutputStatusSpecEEEtED1Ev,_ZN7openpal5ArrayIN8opendnp34CellINS1_22AnalogOutputStatusSpecEEEtED2Ev
	.section	.text._ZN7openpal5ArrayIN8opendnp34CellINS1_22AnalogOutputStatusSpecEEEtED0Ev,"axG",%progbits,_ZN7openpal5ArrayIN8opendnp34CellINS1_22AnalogOutputStatusSpecEEEtED5Ev,comdat
	.align	2
	.weak	_ZN7openpal5ArrayIN8opendnp34CellINS1_22AnalogOutputStatusSpecEEEtED0Ev
	.syntax unified
	.arm
	.fpu vfp
	.type	_ZN7openpal5ArrayIN8opendnp34CellINS1_22AnalogOutputStatusSpecEEEtED0Ev, %function
_ZN7openpal5ArrayIN8opendnp34CellINS1_22AnalogOutputStatusSpecEEEtED0Ev:
	.fnstart
.LFB11564:
	@ args = 0, pretend = 0, frame = 0
	@ frame_needed = 0, uses_anonymous_args = 0
	ldr	r3, .L128
	ldr	r2, .L128+4
.LPIC20:
	add	r3, pc, r3
	push	{r4, lr}
	mov	r4, r0
	ldr	r3, [r3, r2]
	ldr	r0, [r0, #8]
	add	r3, r3, #8
	cmp	r0, #0
	str	r3, [r4]
	beq	.L123
	bl	_ZdaPv(PLT)
.L123:
	mov	r0, r4
	mov	r1, #12
	bl	_ZdlPvj(PLT)
	mov	r0, r4
	pop	{r4, pc}
.L129:
	.align	2
.L128:
	.word	_GLOBAL_OFFSET_TABLE_-(.LPIC20+8)
	.word	_ZTVN7openpal5ArrayIN8opendnp34CellINS1_22AnalogOutputStatusSpecEEEtEE(GOT)
	.cantunwind
	.fnend
	.size	_ZN7openpal5ArrayIN8opendnp34CellINS1_22AnalogOutputStatusSpecEEEtED0Ev, .-_ZN7openpal5ArrayIN8opendnp34CellINS1_22AnalogOutputStatusSpecEEEtED0Ev
	.section	.text._ZN7openpal5ArrayIN8opendnp34CellINS1_22BinaryOutputStatusSpecEEEtED2Ev,"axG",%progbits,_ZN7openpal5ArrayIN8opendnp34CellINS1_22BinaryOutputStatusSpecEEEtED5Ev,comdat
	.align	2
	.weak	_ZN7openpal5ArrayIN8opendnp34CellINS1_22BinaryOutputStatusSpecEEEtED2Ev
	.syntax unified
	.arm
	.fpu vfp
	.type	_ZN7openpal5ArrayIN8opendnp34CellINS1_22BinaryOutputStatusSpecEEEtED2Ev, %function
_ZN7openpal5ArrayIN8opendnp34CellINS1_22BinaryOutputStatusSpecEEEtED2Ev:
	.fnstart
.LFB11558:
	@ args = 0, pretend = 0, frame = 0
	@ frame_needed = 0, uses_anonymous_args = 0
	ldr	r3, .L136
	ldr	r2, .L136+4
.LPIC21:
	add	r3, pc, r3
	push	{r4, lr}
	mov	r4, r0
	ldr	r3, [r3, r2]
	ldr	r0, [r0, #8]
	add	r3, r3, #8
	cmp	r0, #0
	str	r3, [r4]
	beq	.L131
	bl	_ZdaPv(PLT)
.L131:
	mov	r0, r4
	pop	{r4, pc}
.L137:
	.align	2
.L136:
	.word	_GLOBAL_OFFSET_TABLE_-(.LPIC21+8)
	.word	_ZTVN7openpal5ArrayIN8opendnp34CellINS1_22BinaryOutputStatusSpecEEEtEE(GOT)
	.cantunwind
	.fnend
	.size	_ZN7openpal5ArrayIN8opendnp34CellINS1_22BinaryOutputStatusSpecEEEtED2Ev, .-_ZN7openpal5ArrayIN8opendnp34CellINS1_22BinaryOutputStatusSpecEEEtED2Ev
	.weak	_ZN7openpal5ArrayIN8opendnp34CellINS1_22BinaryOutputStatusSpecEEEtED1Ev
	.set	_ZN7openpal5ArrayIN8opendnp34CellINS1_22BinaryOutputStatusSpecEEEtED1Ev,_ZN7openpal5ArrayIN8opendnp34CellINS1_22BinaryOutputStatusSpecEEEtED2Ev
	.section	.text._ZN7openpal5ArrayIN8opendnp34CellINS1_22BinaryOutputStatusSpecEEEtED0Ev,"axG",%progbits,_ZN7openpal5ArrayIN8opendnp34CellINS1_22BinaryOutputStatusSpecEEEtED5Ev,comdat
	.align	2
	.weak	_ZN7openpal5ArrayIN8opendnp34CellINS1_22BinaryOutputStatusSpecEEEtED0Ev
	.syntax unified
	.arm
	.fpu vfp
	.type	_ZN7openpal5ArrayIN8opendnp34CellINS1_22BinaryOutputStatusSpecEEEtED0Ev, %function
_ZN7openpal5ArrayIN8opendnp34CellINS1_22BinaryOutputStatusSpecEEEtED0Ev:
	.fnstart
.LFB11560:
	@ args = 0, pretend = 0, frame = 0
	@ frame_needed = 0, uses_anonymous_args = 0
	ldr	r3, .L144
	ldr	r2, .L144+4
.LPIC22:
	add	r3, pc, r3
	push	{r4, lr}
	mov	r4, r0
	ldr	r3, [r3, r2]
	ldr	r0, [r0, #8]
	add	r3, r3, #8
	cmp	r0, #0
	str	r3, [r4]
	beq	.L139
	bl	_ZdaPv(PLT)
.L139:
	mov	r0, r4
	mov	r1, #12
	bl	_ZdlPvj(PLT)
	mov	r0, r4
	pop	{r4, pc}
.L145:
	.align	2
.L144:
	.word	_GLOBAL_OFFSET_TABLE_-(.LPIC22+8)
	.word	_ZTVN7openpal5ArrayIN8opendnp34CellINS1_22BinaryOutputStatusSpecEEEtEE(GOT)
	.cantunwind
	.fnend
	.size	_ZN7openpal5ArrayIN8opendnp34CellINS1_22BinaryOutputStatusSpecEEEtED0Ev, .-_ZN7openpal5ArrayIN8opendnp34CellINS1_22BinaryOutputStatusSpecEEEtED0Ev
	.section	.text._ZN7openpal5ArrayIN8opendnp34CellINS1_17FrozenCounterSpecEEEtED2Ev,"axG",%progbits,_ZN7openpal5ArrayIN8opendnp34CellINS1_17FrozenCounterSpecEEEtED5Ev,comdat
	.align	2
	.weak	_ZN7openpal5ArrayIN8opendnp34CellINS1_17FrozenCounterSpecEEEtED2Ev
	.syntax unified
	.arm
	.fpu vfp
	.type	_ZN7openpal5ArrayIN8opendnp34CellINS1_17FrozenCounterSpecEEEtED2Ev, %function
_ZN7openpal5ArrayIN8opendnp34CellINS1_17FrozenCounterSpecEEEtED2Ev:
	.fnstart
.LFB11554:
	@ args = 0, pretend = 0, frame = 0
	@ frame_needed = 0, uses_anonymous_args = 0
	ldr	r3, .L152
	ldr	r2, .L152+4
.LPIC23:
	add	r3, pc, r3
	push	{r4, lr}
	mov	r4, r0
	ldr	r3, [r3, r2]
	ldr	r0, [r0, #8]
	add	r3, r3, #8
	cmp	r0, #0
	str	r3, [r4]
	beq	.L147
	bl	_ZdaPv(PLT)
.L147:
	mov	r0, r4
	pop	{r4, pc}
.L153:
	.align	2
.L152:
	.word	_GLOBAL_OFFSET_TABLE_-(.LPIC23+8)
	.word	_ZTVN7openpal5ArrayIN8opendnp34CellINS1_17FrozenCounterSpecEEEtEE(GOT)
	.cantunwind
	.fnend
	.size	_ZN7openpal5ArrayIN8opendnp34CellINS1_17FrozenCounterSpecEEEtED2Ev, .-_ZN7openpal5ArrayIN8opendnp34CellINS1_17FrozenCounterSpecEEEtED2Ev
	.weak	_ZN7openpal5ArrayIN8opendnp34CellINS1_17FrozenCounterSpecEEEtED1Ev
	.set	_ZN7openpal5ArrayIN8opendnp34CellINS1_17FrozenCounterSpecEEEtED1Ev,_ZN7openpal5ArrayIN8opendnp34CellINS1_17FrozenCounterSpecEEEtED2Ev
	.section	.text._ZN7openpal5ArrayIN8opendnp34CellINS1_17FrozenCounterSpecEEEtED0Ev,"axG",%progbits,_ZN7openpal5ArrayIN8opendnp34CellINS1_17FrozenCounterSpecEEEtED5Ev,comdat
	.align	2
	.weak	_ZN7openpal5ArrayIN8opendnp34CellINS1_17FrozenCounterSpecEEEtED0Ev
	.syntax unified
	.arm
	.fpu vfp
	.type	_ZN7openpal5ArrayIN8opendnp34CellINS1_17FrozenCounterSpecEEEtED0Ev, %function
_ZN7openpal5ArrayIN8opendnp34CellINS1_17FrozenCounterSpecEEEtED0Ev:
	.fnstart
.LFB11556:
	@ args = 0, pretend = 0, frame = 0
	@ frame_needed = 0, uses_anonymous_args = 0
	ldr	r3, .L160
	ldr	r2, .L160+4
.LPIC24:
	add	r3, pc, r3
	push	{r4, lr}
	mov	r4, r0
	ldr	r3, [r3, r2]
	ldr	r0, [r0, #8]
	add	r3, r3, #8
	cmp	r0, #0
	str	r3, [r4]
	beq	.L155
	bl	_ZdaPv(PLT)
.L155:
	mov	r0, r4
	mov	r1, #12
	bl	_ZdlPvj(PLT)
	mov	r0, r4
	pop	{r4, pc}
.L161:
	.align	2
.L160:
	.word	_GLOBAL_OFFSET_TABLE_-(.LPIC24+8)
	.word	_ZTVN7openpal5ArrayIN8opendnp34CellINS1_17FrozenCounterSpecEEEtEE(GOT)
	.cantunwind
	.fnend
	.size	_ZN7openpal5ArrayIN8opendnp34CellINS1_17FrozenCounterSpecEEEtED0Ev, .-_ZN7openpal5ArrayIN8opendnp34CellINS1_17FrozenCounterSpecEEEtED0Ev
	.section	.text._ZN7openpal5ArrayIN8opendnp34CellINS1_11CounterSpecEEEtED2Ev,"axG",%progbits,_ZN7openpal5ArrayIN8opendnp34CellINS1_11CounterSpecEEEtED5Ev,comdat
	.align	2
	.weak	_ZN7openpal5ArrayIN8opendnp34CellINS1_11CounterSpecEEEtED2Ev
	.syntax unified
	.arm
	.fpu vfp
	.type	_ZN7openpal5ArrayIN8opendnp34CellINS1_11CounterSpecEEEtED2Ev, %function
_ZN7openpal5ArrayIN8opendnp34CellINS1_11CounterSpecEEEtED2Ev:
	.fnstart
.LFB11550:
	@ args = 0, pretend = 0, frame = 0
	@ frame_needed = 0, uses_anonymous_args = 0
	ldr	r3, .L168
	ldr	r2, .L168+4
.LPIC25:
	add	r3, pc, r3
	push	{r4, lr}
	mov	r4, r0
	ldr	r3, [r3, r2]
	ldr	r0, [r0, #8]
	add	r3, r3, #8
	cmp	r0, #0
	str	r3, [r4]
	beq	.L163
	bl	_ZdaPv(PLT)
.L163:
	mov	r0, r4
	pop	{r4, pc}
.L169:
	.align	2
.L168:
	.word	_GLOBAL_OFFSET_TABLE_-(.LPIC25+8)
	.word	_ZTVN7openpal5ArrayIN8opendnp34CellINS1_11CounterSpecEEEtEE(GOT)
	.cantunwind
	.fnend
	.size	_ZN7openpal5ArrayIN8opendnp34CellINS1_11CounterSpecEEEtED2Ev, .-_ZN7openpal5ArrayIN8opendnp34CellINS1_11CounterSpecEEEtED2Ev
	.weak	_ZN7openpal5ArrayIN8opendnp34CellINS1_11CounterSpecEEEtED1Ev
	.set	_ZN7openpal5ArrayIN8opendnp34CellINS1_11CounterSpecEEEtED1Ev,_ZN7openpal5ArrayIN8opendnp34CellINS1_11CounterSpecEEEtED2Ev
	.section	.text._ZN7openpal5ArrayIN8opendnp34CellINS1_11CounterSpecEEEtED0Ev,"axG",%progbits,_ZN7openpal5ArrayIN8opendnp34CellINS1_11CounterSpecEEEtED5Ev,comdat
	.align	2
	.weak	_ZN7openpal5ArrayIN8opendnp34CellINS1_11CounterSpecEEEtED0Ev
	.syntax unified
	.arm
	.fpu vfp
	.type	_ZN7openpal5ArrayIN8opendnp34CellINS1_11CounterSpecEEEtED0Ev, %function
_ZN7openpal5ArrayIN8opendnp34CellINS1_11CounterSpecEEEtED0Ev:
	.fnstart
.LFB11552:
	@ args = 0, pretend = 0, frame = 0
	@ frame_needed = 0, uses_anonymous_args = 0
	ldr	r3, .L176
	ldr	r2, .L176+4
.LPIC26:
	add	r3, pc, r3
	push	{r4, lr}
	mov	r4, r0
	ldr	r3, [r3, r2]
	ldr	r0, [r0, #8]
	add	r3, r3, #8
	cmp	r0, #0
	str	r3, [r4]
	beq	.L171
	bl	_ZdaPv(PLT)
.L171:
	mov	r0, r4
	mov	r1, #12
	bl	_ZdlPvj(PLT)
	mov	r0, r4
	pop	{r4, pc}
.L177:
	.align	2
.L176:
	.word	_GLOBAL_OFFSET_TABLE_-(.LPIC26+8)
	.word	_ZTVN7openpal5ArrayIN8opendnp34CellINS1_11CounterSpecEEEtEE(GOT)
	.cantunwind
	.fnend
	.size	_ZN7openpal5ArrayIN8opendnp34CellINS1_11CounterSpecEEEtED0Ev, .-_ZN7openpal5ArrayIN8opendnp34CellINS1_11CounterSpecEEEtED0Ev
	.section	.text._ZN7openpal5ArrayIN8opendnp34CellINS1_10AnalogSpecEEEtED2Ev,"axG",%progbits,_ZN7openpal5ArrayIN8opendnp34CellINS1_10AnalogSpecEEEtED5Ev,comdat
	.align	2
	.weak	_ZN7openpal5ArrayIN8opendnp34CellINS1_10AnalogSpecEEEtED2Ev
	.syntax unified
	.arm
	.fpu vfp
	.type	_ZN7openpal5ArrayIN8opendnp34CellINS1_10AnalogSpecEEEtED2Ev, %function
_ZN7openpal5ArrayIN8opendnp34CellINS1_10AnalogSpecEEEtED2Ev:
	.fnstart
.LFB11546:
	@ args = 0, pretend = 0, frame = 0
	@ frame_needed = 0, uses_anonymous_args = 0
	ldr	r3, .L184
	ldr	r2, .L184+4
.LPIC27:
	add	r3, pc, r3
	push	{r4, lr}
	mov	r4, r0
	ldr	r3, [r3, r2]
	ldr	r0, [r0, #8]
	add	r3, r3, #8
	cmp	r0, #0
	str	r3, [r4]
	beq	.L179
	bl	_ZdaPv(PLT)
.L179:
	mov	r0, r4
	pop	{r4, pc}
.L185:
	.align	2
.L184:
	.word	_GLOBAL_OFFSET_TABLE_-(.LPIC27+8)
	.word	_ZTVN7openpal5ArrayIN8opendnp34CellINS1_10AnalogSpecEEEtEE(GOT)
	.cantunwind
	.fnend
	.size	_ZN7openpal5ArrayIN8opendnp34CellINS1_10AnalogSpecEEEtED2Ev, .-_ZN7openpal5ArrayIN8opendnp34CellINS1_10AnalogSpecEEEtED2Ev
	.weak	_ZN7openpal5ArrayIN8opendnp34CellINS1_10AnalogSpecEEEtED1Ev
	.set	_ZN7openpal5ArrayIN8opendnp34CellINS1_10AnalogSpecEEEtED1Ev,_ZN7openpal5ArrayIN8opendnp34CellINS1_10AnalogSpecEEEtED2Ev
	.section	.text._ZN7openpal5ArrayIN8opendnp34CellINS1_10AnalogSpecEEEtED0Ev,"axG",%progbits,_ZN7openpal5ArrayIN8opendnp34CellINS1_10AnalogSpecEEEtED5Ev,comdat
	.align	2
	.weak	_ZN7openpal5ArrayIN8opendnp34CellINS1_10AnalogSpecEEEtED0Ev
	.syntax unified
	.arm
	.fpu vfp
	.type	_ZN7openpal5ArrayIN8opendnp34CellINS1_10AnalogSpecEEEtED0Ev, %function
_ZN7openpal5ArrayIN8opendnp34CellINS1_10AnalogSpecEEEtED0Ev:
	.fnstart
.LFB11548:
	@ args = 0, pretend = 0, frame = 0
	@ frame_needed = 0, uses_anonymous_args = 0
	ldr	r3, .L192
	ldr	r2, .L192+4
.LPIC28:
	add	r3, pc, r3
	push	{r4, lr}
	mov	r4, r0
	ldr	r3, [r3, r2]
	ldr	r0, [r0, #8]
	add	r3, r3, #8
	cmp	r0, #0
	str	r3, [r4]
	beq	.L187
	bl	_ZdaPv(PLT)
.L187:
	mov	r0, r4
	mov	r1, #12
	bl	_ZdlPvj(PLT)
	mov	r0, r4
	pop	{r4, pc}
.L193:
	.align	2
.L192:
	.word	_GLOBAL_OFFSET_TABLE_-(.LPIC28+8)
	.word	_ZTVN7openpal5ArrayIN8opendnp34CellINS1_10AnalogSpecEEEtEE(GOT)
	.cantunwind
	.fnend
	.size	_ZN7openpal5ArrayIN8opendnp34CellINS1_10AnalogSpecEEEtED0Ev, .-_ZN7openpal5ArrayIN8opendnp34CellINS1_10AnalogSpecEEEtED0Ev
	.section	.text._ZN7openpal5ArrayIN8opendnp34CellINS1_19DoubleBitBinarySpecEEEtED2Ev,"axG",%progbits,_ZN7openpal5ArrayIN8opendnp34CellINS1_19DoubleBitBinarySpecEEEtED5Ev,comdat
	.align	2
	.weak	_ZN7openpal5ArrayIN8opendnp34CellINS1_19DoubleBitBinarySpecEEEtED2Ev
	.syntax unified
	.arm
	.fpu vfp
	.type	_ZN7openpal5ArrayIN8opendnp34CellINS1_19DoubleBitBinarySpecEEEtED2Ev, %function
_ZN7openpal5ArrayIN8opendnp34CellINS1_19DoubleBitBinarySpecEEEtED2Ev:
	.fnstart
.LFB11542:
	@ args = 0, pretend = 0, frame = 0
	@ frame_needed = 0, uses_anonymous_args = 0
	ldr	r3, .L200
	ldr	r2, .L200+4
.LPIC29:
	add	r3, pc, r3
	push	{r4, lr}
	mov	r4, r0
	ldr	r3, [r3, r2]
	ldr	r0, [r0, #8]
	add	r3, r3, #8
	cmp	r0, #0
	str	r3, [r4]
	beq	.L195
	bl	_ZdaPv(PLT)
.L195:
	mov	r0, r4
	pop	{r4, pc}
.L201:
	.align	2
.L200:
	.word	_GLOBAL_OFFSET_TABLE_-(.LPIC29+8)
	.word	_ZTVN7openpal5ArrayIN8opendnp34CellINS1_19DoubleBitBinarySpecEEEtEE(GOT)
	.cantunwind
	.fnend
	.size	_ZN7openpal5ArrayIN8opendnp34CellINS1_19DoubleBitBinarySpecEEEtED2Ev, .-_ZN7openpal5ArrayIN8opendnp34CellINS1_19DoubleBitBinarySpecEEEtED2Ev
	.weak	_ZN7openpal5ArrayIN8opendnp34CellINS1_19DoubleBitBinarySpecEEEtED1Ev
	.set	_ZN7openpal5ArrayIN8opendnp34CellINS1_19DoubleBitBinarySpecEEEtED1Ev,_ZN7openpal5ArrayIN8opendnp34CellINS1_19DoubleBitBinarySpecEEEtED2Ev
	.section	.text._ZN7openpal5ArrayIN8opendnp34CellINS1_19DoubleBitBinarySpecEEEtED0Ev,"axG",%progbits,_ZN7openpal5ArrayIN8opendnp34CellINS1_19DoubleBitBinarySpecEEEtED5Ev,comdat
	.align	2
	.weak	_ZN7openpal5ArrayIN8opendnp34CellINS1_19DoubleBitBinarySpecEEEtED0Ev
	.syntax unified
	.arm
	.fpu vfp
	.type	_ZN7openpal5ArrayIN8opendnp34CellINS1_19DoubleBitBinarySpecEEEtED0Ev, %function
_ZN7openpal5ArrayIN8opendnp34CellINS1_19DoubleBitBinarySpecEEEtED0Ev:
	.fnstart
.LFB11544:
	@ args = 0, pretend = 0, frame = 0
	@ frame_needed = 0, uses_anonymous_args = 0
	ldr	r3, .L208
	ldr	r2, .L208+4
.LPIC30:
	add	r3, pc, r3
	push	{r4, lr}
	mov	r4, r0
	ldr	r3, [r3, r2]
	ldr	r0, [r0, #8]
	add	r3, r3, #8
	cmp	r0, #0
	str	r3, [r4]
	beq	.L203
	bl	_ZdaPv(PLT)
.L203:
	mov	r0, r4
	mov	r1, #12
	bl	_ZdlPvj(PLT)
	mov	r0, r4
	pop	{r4, pc}
.L209:
	.align	2
.L208:
	.word	_GLOBAL_OFFSET_TABLE_-(.LPIC30+8)
	.word	_ZTVN7openpal5ArrayIN8opendnp34CellINS1_19DoubleBitBinarySpecEEEtEE(GOT)
	.cantunwind
	.fnend
	.size	_ZN7openpal5ArrayIN8opendnp34CellINS1_19DoubleBitBinarySpecEEEtED0Ev, .-_ZN7openpal5ArrayIN8opendnp34CellINS1_19DoubleBitBinarySpecEEEtED0Ev
	.section	.text._ZN7openpal5ArrayIN8opendnp34CellINS1_10BinarySpecEEEtED2Ev,"axG",%progbits,_ZN7openpal5ArrayIN8opendnp34CellINS1_10BinarySpecEEEtED5Ev,comdat
	.align	2
	.weak	_ZN7openpal5ArrayIN8opendnp34CellINS1_10BinarySpecEEEtED2Ev
	.syntax unified
	.arm
	.fpu vfp
	.type	_ZN7openpal5ArrayIN8opendnp34CellINS1_10BinarySpecEEEtED2Ev, %function
_ZN7openpal5ArrayIN8opendnp34CellINS1_10BinarySpecEEEtED2Ev:
	.fnstart
.LFB11538:
	@ args = 0, pretend = 0, frame = 0
	@ frame_needed = 0, uses_anonymous_args = 0
	ldr	r3, .L216
	ldr	r2, .L216+4
.LPIC31:
	add	r3, pc, r3
	push	{r4, lr}
	mov	r4, r0
	ldr	r3, [r3, r2]
	ldr	r0, [r0, #8]
	add	r3, r3, #8
	cmp	r0, #0
	str	r3, [r4]
	beq	.L211
	bl	_ZdaPv(PLT)
.L211:
	mov	r0, r4
	pop	{r4, pc}
.L217:
	.align	2
.L216:
	.word	_GLOBAL_OFFSET_TABLE_-(.LPIC31+8)
	.word	_ZTVN7openpal5ArrayIN8opendnp34CellINS1_10BinarySpecEEEtEE(GOT)
	.cantunwind
	.fnend
	.size	_ZN7openpal5ArrayIN8opendnp34CellINS1_10BinarySpecEEEtED2Ev, .-_ZN7openpal5ArrayIN8opendnp34CellINS1_10BinarySpecEEEtED2Ev
	.weak	_ZN7openpal5ArrayIN8opendnp34CellINS1_10BinarySpecEEEtED1Ev
	.set	_ZN7openpal5ArrayIN8opendnp34CellINS1_10BinarySpecEEEtED1Ev,_ZN7openpal5ArrayIN8opendnp34CellINS1_10BinarySpecEEEtED2Ev
	.section	.text._ZN7openpal5ArrayIN8opendnp34CellINS1_10BinarySpecEEEtED0Ev,"axG",%progbits,_ZN7openpal5ArrayIN8opendnp34CellINS1_10BinarySpecEEEtED5Ev,comdat
	.align	2
	.weak	_ZN7openpal5ArrayIN8opendnp34CellINS1_10BinarySpecEEEtED0Ev
	.syntax unified
	.arm
	.fpu vfp
	.type	_ZN7openpal5ArrayIN8opendnp34CellINS1_10BinarySpecEEEtED0Ev, %function
_ZN7openpal5ArrayIN8opendnp34CellINS1_10BinarySpecEEEtED0Ev:
	.fnstart
.LFB11540:
	@ args = 0, pretend = 0, frame = 0
	@ frame_needed = 0, uses_anonymous_args = 0
	ldr	r3, .L224
	ldr	r2, .L224+4
.LPIC32:
	add	r3, pc, r3
	push	{r4, lr}
	mov	r4, r0
	ldr	r3, [r3, r2]
	ldr	r0, [r0, #8]
	add	r3, r3, #8
	cmp	r0, #0
	str	r3, [r4]
	beq	.L219
	bl	_ZdaPv(PLT)
.L219:
	mov	r0, r4
	mov	r1, #12
	bl	_ZdlPvj(PLT)
	mov	r0, r4
	pop	{r4, pc}
.L225:
	.align	2
.L224:
	.word	_GLOBAL_OFFSET_TABLE_-(.LPIC32+8)
	.word	_ZTVN7openpal5ArrayIN8opendnp34CellINS1_10BinarySpecEEEtEE(GOT)
	.cantunwind
	.fnend
	.size	_ZN7openpal5ArrayIN8opendnp34CellINS1_10BinarySpecEEEtED0Ev, .-_ZN7openpal5ArrayIN8opendnp34CellINS1_10BinarySpecEEEtED0Ev
	.section	.text._ZN7openpal5ArrayINS_8ListNodeIN8opendnp39SOERecordEEEjED2Ev,"axG",%progbits,_ZN7openpal5ArrayINS_8ListNodeIN8opendnp39SOERecordEEEjED5Ev,comdat
	.align	2
	.weak	_ZN7openpal5ArrayINS_8ListNodeIN8opendnp39SOERecordEEEjED2Ev
	.syntax unified
	.arm
	.fpu vfp
	.type	_ZN7openpal5ArrayINS_8ListNodeIN8opendnp39SOERecordEEEjED2Ev, %function
_ZN7openpal5ArrayINS_8ListNodeIN8opendnp39SOERecordEEEjED2Ev:
	.fnstart
.LFB11534:
	@ args = 0, pretend = 0, frame = 0
	@ frame_needed = 0, uses_anonymous_args = 0
	ldr	r3, .L232
	ldr	r2, .L232+4
.LPIC33:
	add	r3, pc, r3
	push	{r4, lr}
	mov	r4, r0
	ldr	r3, [r3, r2]
	ldr	r0, [r0, #8]
	add	r3, r3, #8
	cmp	r0, #0
	str	r3, [r4]
	beq	.L227
	bl	_ZdaPv(PLT)
.L227:
	mov	r0, r4
	pop	{r4, pc}
.L233:
	.align	2
.L232:
	.word	_GLOBAL_OFFSET_TABLE_-(.LPIC33+8)
	.word	_ZTVN7openpal5ArrayINS_8ListNodeIN8opendnp39SOERecordEEEjEE(GOT)
	.cantunwind
	.fnend
	.size	_ZN7openpal5ArrayINS_8ListNodeIN8opendnp39SOERecordEEEjED2Ev, .-_ZN7openpal5ArrayINS_8ListNodeIN8opendnp39SOERecordEEEjED2Ev
	.weak	_ZN7openpal5ArrayINS_8ListNodeIN8opendnp39SOERecordEEEjED1Ev
	.set	_ZN7openpal5ArrayINS_8ListNodeIN8opendnp39SOERecordEEEjED1Ev,_ZN7openpal5ArrayINS_8ListNodeIN8opendnp39SOERecordEEEjED2Ev
	.section	.text._ZN7openpal5ArrayINS_8ListNodeIN8opendnp39SOERecordEEEjED0Ev,"axG",%progbits,_ZN7openpal5ArrayINS_8ListNodeIN8opendnp39SOERecordEEEjED5Ev,comdat
	.align	2
	.weak	_ZN7openpal5ArrayINS_8ListNodeIN8opendnp39SOERecordEEEjED0Ev
	.syntax unified
	.arm
	.fpu vfp
	.type	_ZN7openpal5ArrayINS_8ListNodeIN8opendnp39SOERecordEEEjED0Ev, %function
_ZN7openpal5ArrayINS_8ListNodeIN8opendnp39SOERecordEEEjED0Ev:
	.fnstart
.LFB11536:
	@ args = 0, pretend = 0, frame = 0
	@ frame_needed = 0, uses_anonymous_args = 0
	ldr	r3, .L240
	ldr	r2, .L240+4
.LPIC34:
	add	r3, pc, r3
	push	{r4, lr}
	mov	r4, r0
	ldr	r3, [r3, r2]
	ldr	r0, [r0, #8]
	add	r3, r3, #8
	cmp	r0, #0
	str	r3, [r4]
	beq	.L235
	bl	_ZdaPv(PLT)
.L235:
	mov	r0, r4
	mov	r1, #12
	bl	_ZdlPvj(PLT)
	mov	r0, r4
	pop	{r4, pc}
.L241:
	.align	2
.L240:
	.word	_GLOBAL_OFFSET_TABLE_-(.LPIC34+8)
	.word	_ZTVN7openpal5ArrayINS_8ListNodeIN8opendnp39SOERecordEEEjEE(GOT)
	.cantunwind
	.fnend
	.size	_ZN7openpal5ArrayINS_8ListNodeIN8opendnp39SOERecordEEEjED0Ev, .-_ZN7openpal5ArrayINS_8ListNodeIN8opendnp39SOERecordEEEjED0Ev
	.section	.text._ZN9__gnu_cxx24__concurrence_lock_errorD2Ev,"axG",%progbits,_ZN9__gnu_cxx24__concurrence_lock_errorD5Ev,comdat
	.align	2
	.weak	_ZN9__gnu_cxx24__concurrence_lock_errorD2Ev
	.syntax unified
	.arm
	.fpu vfp
	.type	_ZN9__gnu_cxx24__concurrence_lock_errorD2Ev, %function
_ZN9__gnu_cxx24__concurrence_lock_errorD2Ev:
	.fnstart
.LFB11412:
	@ args = 0, pretend = 0, frame = 0
	@ frame_needed = 0, uses_anonymous_args = 0
	ldr	r3, .L244
	ldr	r2, .L244+4
.LPIC35:
	add	r3, pc, r3
	push	{r4, lr}
	mov	r4, r0
	ldr	r3, [r3, r2]
	add	r3, r3, #8
	str	r3, [r0]
	bl	_ZNSt9exceptionD2Ev(PLT)
	mov	r0, r4
	pop	{r4, pc}
.L245:
	.align	2
.L244:
	.word	_GLOBAL_OFFSET_TABLE_-(.LPIC35+8)
	.word	_ZTVN9__gnu_cxx24__concurrence_lock_errorE(GOT)
	.cantunwind
	.fnend
	.size	_ZN9__gnu_cxx24__concurrence_lock_errorD2Ev, .-_ZN9__gnu_cxx24__concurrence_lock_errorD2Ev
	.weak	_ZN9__gnu_cxx24__concurrence_lock_errorD1Ev
	.set	_ZN9__gnu_cxx24__concurrence_lock_errorD1Ev,_ZN9__gnu_cxx24__concurrence_lock_errorD2Ev
	.section	.text._ZN9__gnu_cxx24__concurrence_lock_errorD0Ev,"axG",%progbits,_ZN9__gnu_cxx24__concurrence_lock_errorD5Ev,comdat
	.align	2
	.weak	_ZN9__gnu_cxx24__concurrence_lock_errorD0Ev
	.syntax unified
	.arm
	.fpu vfp
	.type	_ZN9__gnu_cxx24__concurrence_lock_errorD0Ev, %function
_ZN9__gnu_cxx24__concurrence_lock_errorD0Ev:
	.fnstart
.LFB11414:
	@ args = 0, pretend = 0, frame = 0
	@ frame_needed = 0, uses_anonymous_args = 0
	ldr	r3, .L248
	ldr	r2, .L248+4
.LPIC36:
	add	r3, pc, r3
	push	{r4, lr}
	mov	r4, r0
	ldr	r3, [r3, r2]
	add	r3, r3, #8
	str	r3, [r0]
	bl	_ZNSt9exceptionD2Ev(PLT)
	mov	r0, r4
	mov	r1, #4
	bl	_ZdlPvj(PLT)
	mov	r0, r4
	pop	{r4, pc}
.L249:
	.align	2
.L248:
	.word	_GLOBAL_OFFSET_TABLE_-(.LPIC36+8)
	.word	_ZTVN9__gnu_cxx24__concurrence_lock_errorE(GOT)
	.cantunwind
	.fnend
	.size	_ZN9__gnu_cxx24__concurrence_lock_errorD0Ev, .-_ZN9__gnu_cxx24__concurrence_lock_errorD0Ev
	.section	.text._ZN9__gnu_cxx26__concurrence_unlock_errorD2Ev,"axG",%progbits,_ZN9__gnu_cxx26__concurrence_unlock_errorD5Ev,comdat
	.align	2
	.weak	_ZN9__gnu_cxx26__concurrence_unlock_errorD2Ev
	.syntax unified
	.arm
	.fpu vfp
	.type	_ZN9__gnu_cxx26__concurrence_unlock_errorD2Ev, %function
_ZN9__gnu_cxx26__concurrence_unlock_errorD2Ev:
	.fnstart
.LFB11408:
	@ args = 0, pretend = 0, frame = 0
	@ frame_needed = 0, uses_anonymous_args = 0
	ldr	r3, .L252
	ldr	r2, .L252+4
.LPIC37:
	add	r3, pc, r3
	push	{r4, lr}
	mov	r4, r0
	ldr	r3, [r3, r2]
	add	r3, r3, #8
	str	r3, [r0]
	bl	_ZNSt9exceptionD2Ev(PLT)
	mov	r0, r4
	pop	{r4, pc}
.L253:
	.align	2
.L252:
	.word	_GLOBAL_OFFSET_TABLE_-(.LPIC37+8)
	.word	_ZTVN9__gnu_cxx26__concurrence_unlock_errorE(GOT)
	.cantunwind
	.fnend
	.size	_ZN9__gnu_cxx26__concurrence_unlock_errorD2Ev, .-_ZN9__gnu_cxx26__concurrence_unlock_errorD2Ev
	.weak	_ZN9__gnu_cxx26__concurrence_unlock_errorD1Ev
	.set	_ZN9__gnu_cxx26__concurrence_unlock_errorD1Ev,_ZN9__gnu_cxx26__concurrence_unlock_errorD2Ev
	.section	.text._ZN9__gnu_cxx26__concurrence_unlock_errorD0Ev,"axG",%progbits,_ZN9__gnu_cxx26__concurrence_unlock_errorD5Ev,comdat
	.align	2
	.weak	_ZN9__gnu_cxx26__concurrence_unlock_errorD0Ev
	.syntax unified
	.arm
	.fpu vfp
	.type	_ZN9__gnu_cxx26__concurrence_unlock_errorD0Ev, %function
_ZN9__gnu_cxx26__concurrence_unlock_errorD0Ev:
	.fnstart
.LFB11410:
	@ args = 0, pretend = 0, frame = 0
	@ frame_needed = 0, uses_anonymous_args = 0
	ldr	r3, .L256
	ldr	r2, .L256+4
.LPIC38:
	add	r3, pc, r3
	push	{r4, lr}
	mov	r4, r0
	ldr	r3, [r3, r2]
	add	r3, r3, #8
	str	r3, [r0]
	bl	_ZNSt9exceptionD2Ev(PLT)
	mov	r0, r4
	mov	r1, #4
	bl	_ZdlPvj(PLT)
	mov	r0, r4
	pop	{r4, pc}
.L257:
	.align	2
.L256:
	.word	_GLOBAL_OFFSET_TABLE_-(.LPIC38+8)
	.word	_ZTVN9__gnu_cxx26__concurrence_unlock_errorE(GOT)
	.cantunwind
	.fnend
	.size	_ZN9__gnu_cxx26__concurrence_unlock_errorD0Ev, .-_ZN9__gnu_cxx26__concurrence_unlock_errorD0Ev
	.section	.text._ZNSt13__future_base13_State_baseV29_M_do_setEPSt8functionIFSt10unique_ptrINS_12_Result_baseENS3_8_DeleterEEvEEPb,"axG",%progbits,_ZNSt13__future_base13_State_baseV29_M_do_setEPSt8functionIFSt10unique_ptrINS_12_Result_baseENS3_8_DeleterEEvEEPb,comdat
	.align	2
	.weak	_ZNSt13__future_base13_State_baseV29_M_do_setEPSt8functionIFSt10unique_ptrINS_12_Result_baseENS3_8_DeleterEEvEEPb
	.syntax unified
	.arm
	.fpu vfp
	.type	_ZNSt13__future_base13_State_baseV29_M_do_setEPSt8functionIFSt10unique_ptrINS_12_Result_baseENS3_8_DeleterEEvEEPb, %function
_ZNSt13__future_base13_State_baseV29_M_do_setEPSt8functionIFSt10unique_ptrINS_12_Result_baseENS3_8_DeleterEEvEEPb:
	.fnstart
.LFB6564:
	@ args = 0, pretend = 0, frame = 8
	@ frame_needed = 0, uses_anonymous_args = 0
	push	{r4, r5, lr}
	.save {r4, r5, lr}
	mov	r4, r0
	ldr	r0, [r1, #8]
	.pad #12
	sub	sp, sp, #12
	cmp	r0, #0
	beq	.L265
	ldr	r3, [r1, #12]
	add	r0, sp, #4
	mov	r5, r2
.LEHB0:
	blx	r3
.LEHE0:
	ldr	r0, [r4, #4]
	ldr	r3, [sp, #4]
	mov	r2, #1
	cmp	r0, #0
	strb	r2, [r5]
	str	r0, [sp, #4]
	str	r3, [r4, #4]
	beq	.L258
	ldr	r3, [r0]
	ldr	r3, [r3]
	blx	r3
.L258:
	add	sp, sp, #12
	@ sp needed
	pop	{r4, r5, pc}
.L265:
.LEHB1:
	bl	_ZSt25__throw_bad_function_callv(PLT)
.LEHE1:
	.personality	__gxx_personality_v0
	.handlerdata
.LLSDA6564:
	.byte	0xff
	.byte	0xff
	.byte	0x1
	.uleb128 .LLSDACSE6564-.LLSDACSB6564
.LLSDACSB6564:
	.uleb128 .LEHB0-.LFB6564
	.uleb128 .LEHE0-.LEHB0
	.uleb128 0
	.uleb128 0
	.uleb128 .LEHB1-.LFB6564
	.uleb128 .LEHE1-.LEHB1
	.uleb128 0
	.uleb128 0
.LLSDACSE6564:
	.section	.text._ZNSt13__future_base13_State_baseV29_M_do_setEPSt8functionIFSt10unique_ptrINS_12_Result_baseENS3_8_DeleterEEvEEPb,"axG",%progbits,_ZNSt13__future_base13_State_baseV29_M_do_setEPSt8functionIFSt10unique_ptrINS_12_Result_baseENS3_8_DeleterEEvEEPb,comdat
	.fnend
	.size	_ZNSt13__future_base13_State_baseV29_M_do_setEPSt8functionIFSt10unique_ptrINS_12_Result_baseENS3_8_DeleterEEvEEPb, .-_ZNSt13__future_base13_State_baseV29_M_do_setEPSt8functionIFSt10unique_ptrINS_12_Result_baseENS3_8_DeleterEEvEEPb
	.section	.text._ZNSt17_Function_handlerIFSt10unique_ptrINSt13__future_base12_Result_baseENS2_8_DeleterEEvENS1_13_State_baseV27_SetterIbObEEE9_M_invokeERKSt9_Any_data,"axG",%progbits,_ZNSt17_Function_handlerIFSt10unique_ptrINSt13__future_base12_Result_baseENS2_8_DeleterEEvENS1_13_State_baseV27_SetterIbObEEE9_M_invokeERKSt9_Any_data,comdat
	.align	2
	.weak	_ZNSt17_Function_handlerIFSt10unique_ptrINSt13__future_base12_Result_baseENS2_8_DeleterEEvENS1_13_State_baseV27_SetterIbObEEE9_M_invokeERKSt9_Any_data
	.syntax unified
	.arm
	.fpu vfp
	.type	_ZNSt17_Function_handlerIFSt10unique_ptrINSt13__future_base12_Result_baseENS2_8_DeleterEEvENS1_13_State_baseV27_SetterIbObEEE9_M_invokeERKSt9_Any_data, %function
_ZNSt17_Function_handlerIFSt10unique_ptrINSt13__future_base12_Result_baseENS2_8_DeleterEEvENS1_13_State_baseV27_SetterIbObEEE9_M_invokeERKSt9_Any_data:
	.fnstart
.LFB10500:
	@ args = 0, pretend = 0, frame = 0
	@ frame_needed = 0, uses_anonymous_args = 0
	ldr	r2, [r1]
	ldr	r3, [r2]
	cmp	r3, #0
	beq	.L275
	ldr	r1, [r1, #4]
	ldr	r3, [r2, #8]
	mov	ip, r0
	ldrb	r1, [r1]	@ zero_extendqisi2
	cmn	r3, #8
	mov	r0, #1
	strbne	r1, [r3, #8]
	mov	r1, #0
	strb	r0, [r3, #9]
	str	r1, [r2, #8]
	mov	r0, ip
	str	r3, [ip]
	bx	lr
.L275:
	push	{r4, lr}
	.save {r4, lr}
	mov	r0, #3
	bl	_ZSt20__throw_future_errori(PLT)
	.fnend
	.size	_ZNSt17_Function_handlerIFSt10unique_ptrINSt13__future_base12_Result_baseENS2_8_DeleterEEvENS1_13_State_baseV27_SetterIbObEEE9_M_invokeERKSt9_Any_data, .-_ZNSt17_Function_handlerIFSt10unique_ptrINSt13__future_base12_Result_baseENS2_8_DeleterEEvENS1_13_State_baseV27_SetterIbObEEE9_M_invokeERKSt9_Any_data
	.section	.text._ZNSt17_Function_handlerIFSt10unique_ptrINSt13__future_base12_Result_baseENS2_8_DeleterEEvENS1_13_State_baseV27_SetterIN8opendnp315StackStatisticsEOS9_EEE9_M_invokeERKSt9_Any_data,"axG",%progbits,_ZNSt17_Function_handlerIFSt10unique_ptrINSt13__future_base12_Result_baseENS2_8_DeleterEEvENS1_13_State_baseV27_SetterIN8opendnp315StackStatisticsEOS9_EEE9_M_invokeERKSt9_Any_data,comdat
	.align	2
	.weak	_ZNSt17_Function_handlerIFSt10unique_ptrINSt13__future_base12_Result_baseENS2_8_DeleterEEvENS1_13_State_baseV27_SetterIN8opendnp315StackStatisticsEOS9_EEE9_M_invokeERKSt9_Any_data
	.syntax unified
	.arm
	.fpu vfp
	.type	_ZNSt17_Function_handlerIFSt10unique_ptrINSt13__future_base12_Result_baseENS2_8_DeleterEEvENS1_13_State_baseV27_SetterIN8opendnp315StackStatisticsEOS9_EEE9_M_invokeERKSt9_Any_data, %function
_ZNSt17_Function_handlerIFSt10unique_ptrINSt13__future_base12_Result_baseENS2_8_DeleterEEvENS1_13_State_baseV27_SetterIN8opendnp315StackStatisticsEOS9_EEE9_M_invokeERKSt9_Any_data:
	.fnstart
.LFB10547:
	@ args = 0, pretend = 0, frame = 0
	@ frame_needed = 0, uses_anonymous_args = 0
	push	{r4, r5, r6, lr}
	.save {r4, r5, r6, lr}
	ldr	r5, [r1]
	ldr	r3, [r5]
	cmp	r3, #0
	beq	.L283
	ldr	r4, [r5, #8]
	mov	r6, r0
	adds	ip, r4, #8
	ldr	lr, [r1, #4]
	beq	.L278
	ldmia	lr!, {r0, r1, r2, r3}
	stmia	ip!, {r0, r1, r2, r3}
	ldmia	lr!, {r0, r1, r2, r3}
	stmia	ip!, {r0, r1, r2, r3}
	ldm	lr, {r0, r1}
	stm	ip, {r0, r1}
.L278:
	mov	r2, #1
	mov	r3, #0
	strb	r2, [r4, #48]
	mov	r0, r6
	str	r3, [r5, #8]
	str	r4, [r6]
	pop	{r4, r5, r6, pc}
.L283:
	mov	r0, #3
	bl	_ZSt20__throw_future_errori(PLT)
	.fnend
	.size	_ZNSt17_Function_handlerIFSt10unique_ptrINSt13__future_base12_Result_baseENS2_8_DeleterEEvENS1_13_State_baseV27_SetterIN8opendnp315StackStatisticsEOS9_EEE9_M_invokeERKSt9_Any_data, .-_ZNSt17_Function_handlerIFSt10unique_ptrINSt13__future_base12_Result_baseENS2_8_DeleterEEvENS1_13_State_baseV27_SetterIN8opendnp315StackStatisticsEOS9_EEE9_M_invokeERKSt9_Any_data
	.text
	.align	2
	.syntax unified
	.arm
	.fpu vfp
	.type	_ZNSt17_Function_handlerIFN8opendnp315StackStatisticsEvEZN8asiodnp315OutstationStack18GetStackStatisticsEvEUlvE_E9_M_invokeERKSt9_Any_data, %function
_ZNSt17_Function_handlerIFN8opendnp315StackStatisticsEvEZN8asiodnp315OutstationStack18GetStackStatisticsEvEUlvE_E9_M_invokeERKSt9_Any_data:
	.fnstart
.LFB9860:
	@ args = 0, pretend = 0, frame = 24
	@ frame_needed = 0, uses_anonymous_args = 0
	ldr	r3, [r1]
	push	{r4, r5, r6, lr}
	.save {r4, r5, r6, lr}
	mov	r5, r0
	ldr	r4, [r3]
	.pad #24
	sub	sp, sp, #24
	ldr	r0, [r4, #68]
	bl	_ZNK8opendnp39LinkLayer13GetStatisticsEv(PLT)
	ldr	r1, [r4, #60]
	mov	r6, r0
	mov	r0, sp
	bl	_ZNK8opendnp314TransportLayer13GetStatisticsEv(PLT)
	ldm	r6, {r0, r1, r2, r3}
	mov	ip, sp
	add	lr, r5, #16
	stm	r5, {r0, r1, r2, r3}
	ldmia	ip!, {r0, r1, r2, r3}
	stmia	lr!, {r0, r1, r2, r3}
	ldm	ip, {r0, r1}
	stm	lr, {r0, r1}
	mov	r0, r5
	add	sp, sp, #24
	@ sp needed
	pop	{r4, r5, r6, pc}
	.fnend
	.size	_ZNSt17_Function_handlerIFN8opendnp315StackStatisticsEvEZN8asiodnp315OutstationStack18GetStackStatisticsEvEUlvE_E9_M_invokeERKSt9_Any_data, .-_ZNSt17_Function_handlerIFN8opendnp315StackStatisticsEvEZN8asiodnp315OutstationStack18GetStackStatisticsEvEUlvE_E9_M_invokeERKSt9_Any_data
	.section	.text._ZN4asio6detail7tss_ptrINS0_10call_stackINS0_15task_io_serviceENS0_27task_io_service_thread_infoEE7contextEED2Ev,"axG",%progbits,_ZN4asio6detail7tss_ptrINS0_10call_stackINS0_15task_io_serviceENS0_27task_io_service_thread_infoEE7contextEED5Ev,comdat
	.align	2
	.weak	_ZN4asio6detail7tss_ptrINS0_10call_stackINS0_15task_io_serviceENS0_27task_io_service_thread_infoEE7contextEED2Ev
	.syntax unified
	.arm
	.fpu vfp
	.type	_ZN4asio6detail7tss_ptrINS0_10call_stackINS0_15task_io_serviceENS0_27task_io_service_thread_infoEE7contextEED2Ev, %function
_ZN4asio6detail7tss_ptrINS0_10call_stackINS0_15task_io_serviceENS0_27task_io_service_thread_infoEE7contextEED2Ev:
	.fnstart
.LFB11417:
	@ args = 0, pretend = 0, frame = 0
	@ frame_needed = 0, uses_anonymous_args = 0
	push	{r4, lr}
	mov	r4, r0
	ldr	r0, [r0]
	bl	pthread_key_delete(PLT)
	mov	r0, r4
	pop	{r4, pc}
	.cantunwind
	.fnend
	.size	_ZN4asio6detail7tss_ptrINS0_10call_stackINS0_15task_io_serviceENS0_27task_io_service_thread_infoEE7contextEED2Ev, .-_ZN4asio6detail7tss_ptrINS0_10call_stackINS0_15task_io_serviceENS0_27task_io_service_thread_infoEE7contextEED2Ev
	.weak	_ZN4asio6detail7tss_ptrINS0_10call_stackINS0_15task_io_serviceENS0_27task_io_service_thread_infoEE7contextEED1Ev
	.set	_ZN4asio6detail7tss_ptrINS0_10call_stackINS0_15task_io_serviceENS0_27task_io_service_thread_infoEE7contextEED1Ev,_ZN4asio6detail7tss_ptrINS0_10call_stackINS0_15task_io_serviceENS0_27task_io_service_thread_infoEE7contextEED2Ev
	.section	.text._ZN4asio6detail7tss_ptrINS0_10call_stackINS0_14strand_service11strand_implEhE7contextEED2Ev,"axG",%progbits,_ZN4asio6detail7tss_ptrINS0_10call_stackINS0_14strand_service11strand_implEhE7contextEED5Ev,comdat
	.align	2
	.weak	_ZN4asio6detail7tss_ptrINS0_10call_stackINS0_14strand_service11strand_implEhE7contextEED2Ev
	.syntax unified
	.arm
	.fpu vfp
	.type	_ZN4asio6detail7tss_ptrINS0_10call_stackINS0_14strand_service11strand_implEhE7contextEED2Ev, %function
_ZN4asio6detail7tss_ptrINS0_10call_stackINS0_14strand_service11strand_implEhE7contextEED2Ev:
	.fnstart
.LFB11426:
	@ args = 0, pretend = 0, frame = 0
	@ frame_needed = 0, uses_anonymous_args = 0
	push	{r4, lr}
	mov	r4, r0
	ldr	r0, [r0]
	bl	pthread_key_delete(PLT)
	mov	r0, r4
	pop	{r4, pc}
	.cantunwind
	.fnend
	.size	_ZN4asio6detail7tss_ptrINS0_10call_stackINS0_14strand_service11strand_implEhE7contextEED2Ev, .-_ZN4asio6detail7tss_ptrINS0_10call_stackINS0_14strand_service11strand_implEhE7contextEED2Ev
	.weak	_ZN4asio6detail7tss_ptrINS0_10call_stackINS0_14strand_service11strand_implEhE7contextEED1Ev
	.set	_ZN4asio6detail7tss_ptrINS0_10call_stackINS0_14strand_service11strand_implEhE7contextEED1Ev,_ZN4asio6detail7tss_ptrINS0_10call_stackINS0_14strand_service11strand_implEhE7contextEED2Ev
	.section	.text._ZN4asio6detail15system_categoryD2Ev,"axG",%progbits,_ZN4asio6detail15system_categoryD5Ev,comdat
	.align	2
	.weak	_ZN4asio6detail15system_categoryD2Ev
	.syntax unified
	.arm
	.fpu vfp
	.type	_ZN4asio6detail15system_categoryD2Ev, %function
_ZN4asio6detail15system_categoryD2Ev:
	.fnstart
.LFB11396:
	@ args = 0, pretend = 0, frame = 0
	@ frame_needed = 0, uses_anonymous_args = 0
	ldr	r3, .L292
	ldr	r2, .L292+4
.LPIC39:
	add	r3, pc, r3
	push	{r4, lr}
	mov	r4, r0
	ldr	r3, [r3, r2]
	add	r3, r3, #8
	str	r3, [r0]
	bl	_ZNSt3_V214error_categoryD2Ev(PLT)
	mov	r0, r4
	pop	{r4, pc}
.L293:
	.align	2
.L292:
	.word	_GLOBAL_OFFSET_TABLE_-(.LPIC39+8)
	.word	_ZTVN4asio6detail15system_categoryE(GOT)
	.cantunwind
	.fnend
	.size	_ZN4asio6detail15system_categoryD2Ev, .-_ZN4asio6detail15system_categoryD2Ev
	.weak	_ZN4asio6detail15system_categoryD1Ev
	.set	_ZN4asio6detail15system_categoryD1Ev,_ZN4asio6detail15system_categoryD2Ev
	.section	.text._ZN4asio6detail15system_categoryD0Ev,"axG",%progbits,_ZN4asio6detail15system_categoryD5Ev,comdat
	.align	2
	.weak	_ZN4asio6detail15system_categoryD0Ev
	.syntax unified
	.arm
	.fpu vfp
	.type	_ZN4asio6detail15system_categoryD0Ev, %function
_ZN4asio6detail15system_categoryD0Ev:
	.fnstart
.LFB11398:
	@ args = 0, pretend = 0, frame = 0
	@ frame_needed = 0, uses_anonymous_args = 0
	ldr	r3, .L296
	ldr	r2, .L296+4
.LPIC40:
	add	r3, pc, r3
	push	{r4, lr}
	mov	r4, r0
	ldr	r3, [r3, r2]
	add	r3, r3, #8
	str	r3, [r0]
	bl	_ZNSt3_V214error_categoryD2Ev(PLT)
	mov	r0, r4
	mov	r1, #4
	bl	_ZdlPvj(PLT)
	mov	r0, r4
	pop	{r4, pc}
.L297:
	.align	2
.L296:
	.word	_GLOBAL_OFFSET_TABLE_-(.LPIC40+8)
	.word	_ZTVN4asio6detail15system_categoryE(GOT)
	.cantunwind
	.fnend
	.size	_ZN4asio6detail15system_categoryD0Ev, .-_ZN4asio6detail15system_categoryD0Ev
	.section	.text._ZN4asio5error6detail14netdb_categoryD2Ev,"axG",%progbits,_ZN4asio5error6detail14netdb_categoryD5Ev,comdat
	.align	2
	.weak	_ZN4asio5error6detail14netdb_categoryD2Ev
	.syntax unified
	.arm
	.fpu vfp
	.type	_ZN4asio5error6detail14netdb_categoryD2Ev, %function
_ZN4asio5error6detail14netdb_categoryD2Ev:
	.fnstart
.LFB11392:
	@ args = 0, pretend = 0, frame = 0
	@ frame_needed = 0, uses_anonymous_args = 0
	ldr	r3, .L300
	ldr	r2, .L300+4
.LPIC41:
	add	r3, pc, r3
	push	{r4, lr}
	mov	r4, r0
	ldr	r3, [r3, r2]
	add	r3, r3, #8
	str	r3, [r0]
	bl	_ZNSt3_V214error_categoryD2Ev(PLT)
	mov	r0, r4
	pop	{r4, pc}
.L301:
	.align	2
.L300:
	.word	_GLOBAL_OFFSET_TABLE_-(.LPIC41+8)
	.word	_ZTVN4asio5error6detail14netdb_categoryE(GOT)
	.cantunwind
	.fnend
	.size	_ZN4asio5error6detail14netdb_categoryD2Ev, .-_ZN4asio5error6detail14netdb_categoryD2Ev
	.weak	_ZN4asio5error6detail14netdb_categoryD1Ev
	.set	_ZN4asio5error6detail14netdb_categoryD1Ev,_ZN4asio5error6detail14netdb_categoryD2Ev
	.section	.text._ZN4asio5error6detail14netdb_categoryD0Ev,"axG",%progbits,_ZN4asio5error6detail14netdb_categoryD5Ev,comdat
	.align	2
	.weak	_ZN4asio5error6detail14netdb_categoryD0Ev
	.syntax unified
	.arm
	.fpu vfp
	.type	_ZN4asio5error6detail14netdb_categoryD0Ev, %function
_ZN4asio5error6detail14netdb_categoryD0Ev:
	.fnstart
.LFB11394:
	@ args = 0, pretend = 0, frame = 0
	@ frame_needed = 0, uses_anonymous_args = 0
	ldr	r3, .L304
	ldr	r2, .L304+4
.LPIC42:
	add	r3, pc, r3
	push	{r4, lr}
	mov	r4, r0
	ldr	r3, [r3, r2]
	add	r3, r3, #8
	str	r3, [r0]
	bl	_ZNSt3_V214error_categoryD2Ev(PLT)
	mov	r0, r4
	mov	r1, #4
	bl	_ZdlPvj(PLT)
	mov	r0, r4
	pop	{r4, pc}
.L305:
	.align	2
.L304:
	.word	_GLOBAL_OFFSET_TABLE_-(.LPIC42+8)
	.word	_ZTVN4asio5error6detail14netdb_categoryE(GOT)
	.cantunwind
	.fnend
	.size	_ZN4asio5error6detail14netdb_categoryD0Ev, .-_ZN4asio5error6detail14netdb_categoryD0Ev
	.section	.text._ZN4asio5error6detail17addrinfo_categoryD2Ev,"axG",%progbits,_ZN4asio5error6detail17addrinfo_categoryD5Ev,comdat
	.align	2
	.weak	_ZN4asio5error6detail17addrinfo_categoryD2Ev
	.syntax unified
	.arm
	.fpu vfp
	.type	_ZN4asio5error6detail17addrinfo_categoryD2Ev, %function
_ZN4asio5error6detail17addrinfo_categoryD2Ev:
	.fnstart
.LFB11388:
	@ args = 0, pretend = 0, frame = 0
	@ frame_needed = 0, uses_anonymous_args = 0
	ldr	r3, .L308
	ldr	r2, .L308+4
.LPIC43:
	add	r3, pc, r3
	push	{r4, lr}
	mov	r4, r0
	ldr	r3, [r3, r2]
	add	r3, r3, #8
	str	r3, [r0]
	bl	_ZNSt3_V214error_categoryD2Ev(PLT)
	mov	r0, r4
	pop	{r4, pc}
.L309:
	.align	2
.L308:
	.word	_GLOBAL_OFFSET_TABLE_-(.LPIC43+8)
	.word	_ZTVN4asio5error6detail17addrinfo_categoryE(GOT)
	.cantunwind
	.fnend
	.size	_ZN4asio5error6detail17addrinfo_categoryD2Ev, .-_ZN4asio5error6detail17addrinfo_categoryD2Ev
	.weak	_ZN4asio5error6detail17addrinfo_categoryD1Ev
	.set	_ZN4asio5error6detail17addrinfo_categoryD1Ev,_ZN4asio5error6detail17addrinfo_categoryD2Ev
	.section	.text._ZN4asio5error6detail17addrinfo_categoryD0Ev,"axG",%progbits,_ZN4asio5error6detail17addrinfo_categoryD5Ev,comdat
	.align	2
	.weak	_ZN4asio5error6detail17addrinfo_categoryD0Ev
	.syntax unified
	.arm
	.fpu vfp
	.type	_ZN4asio5error6detail17addrinfo_categoryD0Ev, %function
_ZN4asio5error6detail17addrinfo_categoryD0Ev:
	.fnstart
.LFB11390:
	@ args = 0, pretend = 0, frame = 0
	@ frame_needed = 0, uses_anonymous_args = 0
	ldr	r3, .L312
	ldr	r2, .L312+4
.LPIC44:
	add	r3, pc, r3
	push	{r4, lr}
	mov	r4, r0
	ldr	r3, [r3, r2]
	add	r3, r3, #8
	str	r3, [r0]
	bl	_ZNSt3_V214error_categoryD2Ev(PLT)
	mov	r0, r4
	mov	r1, #4
	bl	_ZdlPvj(PLT)
	mov	r0, r4
	pop	{r4, pc}
.L313:
	.align	2
.L312:
	.word	_GLOBAL_OFFSET_TABLE_-(.LPIC44+8)
	.word	_ZTVN4asio5error6detail17addrinfo_categoryE(GOT)
	.cantunwind
	.fnend
	.size	_ZN4asio5error6detail17addrinfo_categoryD0Ev, .-_ZN4asio5error6detail17addrinfo_categoryD0Ev
	.section	.text._ZN4asio5error6detail13misc_categoryD2Ev,"axG",%progbits,_ZN4asio5error6detail13misc_categoryD5Ev,comdat
	.align	2
	.weak	_ZN4asio5error6detail13misc_categoryD2Ev
	.syntax unified
	.arm
	.fpu vfp
	.type	_ZN4asio5error6detail13misc_categoryD2Ev, %function
_ZN4asio5error6detail13misc_categoryD2Ev:
	.fnstart
.LFB11384:
	@ args = 0, pretend = 0, frame = 0
	@ frame_needed = 0, uses_anonymous_args = 0
	ldr	r3, .L316
	ldr	r2, .L316+4
.LPIC45:
	add	r3, pc, r3
	push	{r4, lr}
	mov	r4, r0
	ldr	r3, [r3, r2]
	add	r3, r3, #8
	str	r3, [r0]
	bl	_ZNSt3_V214error_categoryD2Ev(PLT)
	mov	r0, r4
	pop	{r4, pc}
.L317:
	.align	2
.L316:
	.word	_GLOBAL_OFFSET_TABLE_-(.LPIC45+8)
	.word	_ZTVN4asio5error6detail13misc_categoryE(GOT)
	.cantunwind
	.fnend
	.size	_ZN4asio5error6detail13misc_categoryD2Ev, .-_ZN4asio5error6detail13misc_categoryD2Ev
	.weak	_ZN4asio5error6detail13misc_categoryD1Ev
	.set	_ZN4asio5error6detail13misc_categoryD1Ev,_ZN4asio5error6detail13misc_categoryD2Ev
	.section	.text._ZN4asio5error6detail13misc_categoryD0Ev,"axG",%progbits,_ZN4asio5error6detail13misc_categoryD5Ev,comdat
	.align	2
	.weak	_ZN4asio5error6detail13misc_categoryD0Ev
	.syntax unified
	.arm
	.fpu vfp
	.type	_ZN4asio5error6detail13misc_categoryD0Ev, %function
_ZN4asio5error6detail13misc_categoryD0Ev:
	.fnstart
.LFB11386:
	@ args = 0, pretend = 0, frame = 0
	@ frame_needed = 0, uses_anonymous_args = 0
	ldr	r3, .L320
	ldr	r2, .L320+4
.LPIC46:
	add	r3, pc, r3
	push	{r4, lr}
	mov	r4, r0
	ldr	r3, [r3, r2]
	add	r3, r3, #8
	str	r3, [r0]
	bl	_ZNSt3_V214error_categoryD2Ev(PLT)
	mov	r0, r4
	mov	r1, #4
	bl	_ZdlPvj(PLT)
	mov	r0, r4
	pop	{r4, pc}
.L321:
	.align	2
.L320:
	.word	_GLOBAL_OFFSET_TABLE_-(.LPIC46+8)
	.word	_ZTVN4asio5error6detail13misc_categoryE(GOT)
	.cantunwind
	.fnend
	.size	_ZN4asio5error6detail13misc_categoryD0Ev, .-_ZN4asio5error6detail13misc_categoryD0Ev
	.section	.text._ZNSt13__future_base7_ResultIN8opendnp315StackStatisticsEE10_M_destroyEv,"axG",%progbits,_ZNSt13__future_base7_ResultIN8opendnp315StackStatisticsEE10_M_destroyEv,comdat
	.align	2
	.weak	_ZNSt13__future_base7_ResultIN8opendnp315StackStatisticsEE10_M_destroyEv
	.syntax unified
	.arm
	.fpu vfp
	.type	_ZNSt13__future_base7_ResultIN8opendnp315StackStatisticsEE10_M_destroyEv, %function
_ZNSt13__future_base7_ResultIN8opendnp315StackStatisticsEE10_M_destroyEv:
	.fnstart
.LFB11522:
	@ args = 0, pretend = 0, frame = 0
	@ frame_needed = 0, uses_anonymous_args = 0
	ldr	r1, .L325
	ldr	ip, [r0]
	ldr	r2, .L325+4
.LPIC47:
	add	r1, pc, r1
	push	{r4, lr}
	ldr	lr, [ip, #8]
	ldr	r2, [r1, r2]
	cmp	lr, r2
	bne	.L323
	ldr	r3, .L325+8
	mov	r4, r0
	ldr	r3, [r1, r3]
	add	r3, r3, #8
	str	r3, [r0]
	bl	_ZNSt13__future_base12_Result_baseD2Ev(PLT)
	mov	r0, r4
	mov	r1, #52
	pop	{r4, lr}
	b	_ZdlPvj(PLT)
.L323:
	mov	r3, lr
	pop	{r4, lr}
	bx	r3
.L326:
	.align	2
.L325:
	.word	_GLOBAL_OFFSET_TABLE_-(.LPIC47+8)
	.word	_ZNSt13__future_base7_ResultIN8opendnp315StackStatisticsEED0Ev(GOT)
	.word	_ZTVNSt13__future_base7_ResultIN8opendnp315StackStatisticsEEE(GOT)
	.cantunwind
	.fnend
	.size	_ZNSt13__future_base7_ResultIN8opendnp315StackStatisticsEE10_M_destroyEv, .-_ZNSt13__future_base7_ResultIN8opendnp315StackStatisticsEE10_M_destroyEv
	.section	.text._ZNSt13__future_base7_ResultIbE10_M_destroyEv,"axG",%progbits,_ZNSt13__future_base7_ResultIbE10_M_destroyEv,comdat
	.align	2
	.weak	_ZNSt13__future_base7_ResultIbE10_M_destroyEv
	.syntax unified
	.arm
	.fpu vfp
	.type	_ZNSt13__future_base7_ResultIbE10_M_destroyEv, %function
_ZNSt13__future_base7_ResultIbE10_M_destroyEv:
	.fnstart
.LFB11527:
	@ args = 0, pretend = 0, frame = 0
	@ frame_needed = 0, uses_anonymous_args = 0
	ldr	r1, .L330
	ldr	ip, [r0]
	ldr	r2, .L330+4
.LPIC48:
	add	r1, pc, r1
	push	{r4, lr}
	ldr	lr, [ip, #8]
	ldr	r2, [r1, r2]
	cmp	lr, r2
	bne	.L328
	ldr	r3, .L330+8
	mov	r4, r0
	ldr	r3, [r1, r3]
	add	r3, r3, #8
	str	r3, [r0]
	bl	_ZNSt13__future_base12_Result_baseD2Ev(PLT)
	mov	r0, r4
	mov	r1, #12
	pop	{r4, lr}
	b	_ZdlPvj(PLT)
.L328:
	mov	r3, lr
	pop	{r4, lr}
	bx	r3
.L331:
	.align	2
.L330:
	.word	_GLOBAL_OFFSET_TABLE_-(.LPIC48+8)
	.word	_ZNSt13__future_base7_ResultIbED0Ev(GOT)
	.word	_ZTVNSt13__future_base7_ResultIbEE(GOT)
	.cantunwind
	.fnend
	.size	_ZNSt13__future_base7_ResultIbE10_M_destroyEv, .-_ZNSt13__future_base7_ResultIbE10_M_destroyEv
	.global	__tls_get_addr
	.section	.text._ZZSt9call_onceIMNSt13__future_base13_State_baseV2EFvPSt8functionIFSt10unique_ptrINS0_12_Result_baseENS4_8_DeleterEEvEEPbEJPS1_S9_SA_EEvRSt9once_flagOT_DpOT0_ENUlvE0_4_FUNEv,"axG",%progbits,_ZZSt9call_onceIMNSt13__future_base13_State_baseV2EFvPSt8functionIFSt10unique_ptrINS0_12_Result_baseENS4_8_DeleterEEvEEPbEJPS1_S9_SA_EEvRSt9once_flagOT_DpOT0_ENKUlvE0_clEv,comdat
	.align	2
	.weak	_ZZSt9call_onceIMNSt13__future_base13_State_baseV2EFvPSt8functionIFSt10unique_ptrINS0_12_Result_baseENS4_8_DeleterEEvEEPbEJPS1_S9_SA_EEvRSt9once_flagOT_DpOT0_ENUlvE0_4_FUNEv
	.syntax unified
	.arm
	.fpu vfp
	.type	_ZZSt9call_onceIMNSt13__future_base13_State_baseV2EFvPSt8functionIFSt10unique_ptrINS0_12_Result_baseENS4_8_DeleterEEvEEPbEJPS1_S9_SA_EEvRSt9once_flagOT_DpOT0_ENUlvE0_4_FUNEv, %function
_ZZSt9call_onceIMNSt13__future_base13_State_baseV2EFvPSt8functionIFSt10unique_ptrINS0_12_Result_baseENS4_8_DeleterEEvEEPbEJPS1_S9_SA_EEvRSt9once_flagOT_DpOT0_ENUlvE0_4_FUNEv:
	.fnstart
.LFB8795:
	@ args = 0, pretend = 0, frame = 0
	@ frame_needed = 0, uses_anonymous_args = 0
	ldr	r0, .L336
	push	{r4, lr}
.LPIC49:
	add	r0, pc, r0
	bl	__tls_get_addr(PLT)
	ldr	r3, [r0]
	ldr	lr, [r3]
	ldmib	r3, {r1, r2}
	ldr	r3, [r3, #12]
	ldr	ip, [lr, #4]
	ldr	r0, [r1]
	tst	ip, #1
	ldr	r1, [r2]
	ldr	r2, [r3]
	ldr	r3, [lr]
	ldrne	lr, [r0, ip, asr #1]
	addeq	r0, r0, ip, asr #1
	addne	r0, r0, ip, asr #1
	ldrne	r3, [lr, r3]
	pop	{r4, lr}
	bx	r3	@ indirect register sibling call
.L337:
	.align	2
.L336:
	.word	_ZSt15__once_callable(tlsgd) + (. - .LPIC49 - 8)
	.cantunwind
	.fnend
	.size	_ZZSt9call_onceIMNSt13__future_base13_State_baseV2EFvPSt8functionIFSt10unique_ptrINS0_12_Result_baseENS4_8_DeleterEEvEEPbEJPS1_S9_SA_EEvRSt9once_flagOT_DpOT0_ENUlvE0_4_FUNEv, .-_ZZSt9call_onceIMNSt13__future_base13_State_baseV2EFvPSt8functionIFSt10unique_ptrINS0_12_Result_baseENS4_8_DeleterEEvEEPbEJPS1_S9_SA_EEvRSt9once_flagOT_DpOT0_ENUlvE0_4_FUNEv
	.section	.text.unlikely,"ax",%progbits
	.align	2
	.syntax unified
	.arm
	.fpu vfp
	.type	_ZZN8asiodnp315OutstationStack5ApplyERKNS_7UpdatesEENUlvE_D2Ev, %function
_ZZN8asiodnp315OutstationStack5ApplyERKNS_7UpdatesEENUlvE_D2Ev:
	.fnstart
.LFB8214:
	@ args = 0, pretend = 0, frame = 0
	@ frame_needed = 0, uses_anonymous_args = 0
	push	{r4, r5, r6, lr}
	mov	r5, r0
	ldr	r4, [r0, #12]
	ldr	r6, .L361
	cmp	r4, #0
.LPIC50:
	add	r6, pc, r6
	beq	.L340
	ldr	r3, .L361+4
	ldr	r3, [r6, r3]
	cmp	r3, #0
	beq	.L341
	add	r3, r4, #28
	mcr	p15, 0, r0, c7, c10, 5
.L357:
	ldrex	r2, [r3]
	sub	r1, r2, #1
	strex	r0, r1, [r3]
	cmp	r0, #0
	bne	.L357
	cmp	r2, #1
	mcr	p15, 0, r0, c7, c10, 5
	bne	.L340
	b	.L359
.L341:
	ldr	r3, [r4, #28]
	cmp	r3, #1
	sub	r3, r3, #1
	str	r3, [r4, #28]
	bne	.L340
	b	.L360
.L359:
	ldr	r3, [r4]
	mov	r0, r4
	ldr	r3, [r3, #8]
	blx	r3
	add	r2, r4, #32
	mcr	p15, 0, r0, c7, c10, 5
	mcr	p15, 0, r0, c7, c10, 5
.L355:
	ldrex	r3, [r2]
	sub	r1, r3, #1
	strex	r0, r1, [r2]
	cmp	r0, #0
	bne	.L355
	mcr	p15, 0, r0, c7, c10, 5
.L351:
	cmp	r3, #1
	bne	.L340
	ldr	r3, [r4]
	mov	r0, r4
	ldr	r3, [r3, #12]
	blx	r3
.L340:
	ldr	r4, [r5, #4]
	cmp	r4, #0
	beq	.L353
	ldr	r3, .L361+4
	ldr	r3, [r6, r3]
	cmp	r3, #0
	beq	.L347
	add	r3, r4, #28
	mcr	p15, 0, r0, c7, c10, 5
.L356:
	ldrex	r2, [r3]
	sub	r1, r2, #1
	strex	r0, r1, [r3]
	cmp	r0, #0
	bne	.L356
	cmp	r2, #1
	mcr	p15, 0, r0, c7, c10, 5
	bne	.L353
	ldr	r3, [r4]
	mov	r0, r4
	ldr	r3, [r3, #8]
	blx	r3
	mcr	p15, 0, r0, c7, c10, 5
	add	r2, r4, #32
	mcr	p15, 0, r0, c7, c10, 5
	b	.L354
.L347:
	ldr	r3, [r4, #28]
	cmp	r3, #1
	sub	r3, r3, #1
	str	r3, [r4, #28]
	bne	.L353
	ldr	r3, [r4]
	mov	r0, r4
	ldr	r3, [r3, #8]
	blx	r3
	mcr	p15, 0, r0, c7, c10, 5
	ldr	r3, [r4, #32]
	sub	r2, r3, #1
	str	r2, [r4, #32]
.L352:
	cmp	r3, #1
	bne	.L353
	ldr	r3, [r4]
	mov	r0, r4
	ldr	r3, [r3, #12]
	blx	r3
	b	.L353
.L360:
	ldr	r3, [r4]
	mov	r0, r4
	ldr	r3, [r3, #8]
	blx	r3
	mcr	p15, 0, r0, c7, c10, 5
	ldr	r3, [r4, #32]
	sub	r2, r3, #1
	str	r2, [r4, #32]
	b	.L351
.L354:
	ldrex	r3, [r2]
	sub	r1, r3, #1
	strex	r0, r1, [r2]
	cmp	r0, #0
	bne	.L354
	mcr	p15, 0, r0, c7, c10, 5
	b	.L352
.L353:
	mov	r0, r5
	pop	{r4, r5, r6, pc}
.L362:
	.align	2
.L361:
	.word	_GLOBAL_OFFSET_TABLE_-(.LPIC50+8)
	.word	_ZL28__gthrw___pthread_key_createPjPFvPvE(GOT)
	.cantunwind
	.fnend
	.size	_ZZN8asiodnp315OutstationStack5ApplyERKNS_7UpdatesEENUlvE_D2Ev, .-_ZZN8asiodnp315OutstationStack5ApplyERKNS_7UpdatesEENUlvE_D2Ev
	.set	_ZZN8asiodnp315OutstationStack5ApplyERKNS_7UpdatesEENUlvE_D1Ev,_ZZN8asiodnp315OutstationStack5ApplyERKNS_7UpdatesEENUlvE_D2Ev
	.section	.text._ZNK4asio6detail15system_category7messageB5cxx11Ei,"axG",%progbits,_ZNK4asio6detail15system_category7messageB5cxx11Ei,comdat
	.align	2
	.weak	_ZNK4asio6detail15system_category7messageB5cxx11Ei
	.syntax unified
	.arm
	.fpu vfp
	.type	_ZNK4asio6detail15system_category7messageB5cxx11Ei, %function
_ZNK4asio6detail15system_category7messageB5cxx11Ei:
	.fnstart
.LFB2438:
	@ args = 0, pretend = 0, frame = 264
	@ frame_needed = 0, uses_anonymous_args = 0
	cmp	r2, #125
	push	{r4, r5, r6, r7, r8, lr}
	.save {r4, r5, r6, r7, r8, lr}
	mov	r4, r0
	.pad #264
	sub	sp, sp, #264
	beq	.L373
	mov	r7, #0
	mov	r5, r2
	mov	r1, r7
	mov	r2, #252
	add	r0, sp, #12
	str	r7, [sp, #8]
	bl	memset(PLT)
	mov	r0, r5
	mov	r2, #256
	add	r1, sp, #8
	bl	strerror_r(PLT)
	add	r6, r4, #8
	str	r6, [r4]
	subs	r8, r0, #0
	beq	.L366
	bl	strlen(PLT)
	cmp	r0, #15
	mov	r5, r0
	str	r0, [sp, #4]
	bhi	.L374
	cmp	r0, #1
	beq	.L375
	cmp	r0, #0
	bne	.L376
.L370:
	mov	r3, #0
	str	r5, [r4, #4]
	mov	r0, r4
	strb	r3, [r6, r5]
	add	sp, sp, #264
	@ sp needed
	pop	{r4, r5, r6, r7, r8, pc}
.L374:
	mov	r2, r7
	add	r1, sp, #4
	mov	r0, r4
	bl	_ZNSt7__cxx1112basic_stringIcSt11char_traitsIcESaIcEE9_M_createERjj(PLT)
	ldr	r3, [sp, #4]
	str	r3, [r4, #8]
	str	r0, [r4]
.L368:
	mov	r2, r5
	mov	r1, r8
	bl	memcpy(PLT)
	ldr	r5, [sp, #4]
	ldr	r6, [r4]
	b	.L370
.L375:
	ldrb	r3, [r8]	@ zero_extendqisi2
	strb	r3, [r4, #8]
	b	.L370
.L373:
	add	r1, sp, #264
	add	r3, r0, #8
	mov	r2, #18
	str	r2, [r1, #-256]!
	str	r3, [r0]
	mov	r2, #0
	bl	_ZNSt7__cxx1112basic_stringIcSt11char_traitsIcESaIcEE9_M_createERjj(PLT)
	ldr	ip, .L377
	ldr	r6, [sp, #8]
.LPIC51:
	add	ip, pc, ip
	str	r6, [r4, #8]
	mov	r5, #0
	str	r0, [r4]
	mov	lr, r0
	ldmia	ip!, {r0, r1, r2, r3}
	ldrh	ip, [ip]	@ unaligned
	str	r0, [lr]	@ unaligned
	str	r1, [lr, #4]	@ unaligned
	strh	ip, [lr, #16]	@ unaligned
	str	r2, [lr, #8]	@ unaligned
	str	r3, [lr, #12]	@ unaligned
	ldr	r3, [sp, #8]
	ldr	r2, [r4]
	str	r3, [r4, #4]
	mov	r0, r4
	strb	r5, [r2, r3]
	add	sp, sp, #264
	@ sp needed
	pop	{r4, r5, r6, r7, r8, pc}
.L366:
	ldr	r0, .L377+4
.LPIC52:
	add	r0, pc, r0
	bl	_ZSt19__throw_logic_errorPKc(PLT)
.L376:
	mov	r0, r6
	b	.L368
.L378:
	.align	2
.L377:
	.word	.LC6-(.LPIC51+8)
	.word	.LC7-(.LPIC52+8)
	.fnend
	.size	_ZNK4asio6detail15system_category7messageB5cxx11Ei, .-_ZNK4asio6detail15system_category7messageB5cxx11Ei
	.text
	.align	2
	.syntax unified
	.arm
	.fpu vfp
	.type	_ZN4asio6detail18completion_handlerIZN8asiodnp315OutstationStack13SetLogFiltersERKN7openpal10LogFiltersEEUlvE_E11do_completeEPNS0_15task_io_serviceEPNS0_25task_io_service_operationERKSt10error_codej, %function
_ZN4asio6detail18completion_handlerIZN8asiodnp315OutstationStack13SetLogFiltersERKN7openpal10LogFiltersEEUlvE_E11do_completeEPNS0_15task_io_serviceEPNS0_25task_io_service_operationERKSt10error_codej:
	.fnstart
.LFB10567:
	@ args = 0, pretend = 0, frame = 16
	@ frame_needed = 0, uses_anonymous_args = 0
	push	{r4, r5, r6, r7, r8, lr}
	sub	sp, sp, #16
	ldr	r5, .L407
	ldr	r3, .L407+4
.LPIC53:
	add	r5, pc, r5
	ldr	r2, [r1, #20]
	mov	r7, r0
	str	r2, [sp, #12]
	ldr	r3, [r5, r3]
	mov	r4, r1
	ldr	r8, [r1, #12]
	ldr	r0, [r3]
	ldr	r6, [r1, #16]
	bl	pthread_getspecific(PLT)
	cmp	r0, #0
	beq	.L380
	ldr	r3, [r0, #4]
	cmp	r3, #0
	beq	.L380
	ldr	r2, [r3]
	cmp	r2, #0
	beq	.L405
.L380:
	mov	r0, r4
	bl	_ZdlPv(PLT)
.L381:
	cmp	r7, #0
	beq	.L382
	add	r3, sp, #16
	mov	r1, #1
	mov	r2, #0
	str	r2, [r3, #-16]!
.L401:
	ldrex	r0, [r3]
	strex	ip, r1, [r3]
	cmp	ip, #0
	bne	.L401
	mcr	p15, 0, r0, c7, c10, 5
	ldr	r3, [r8, #28]
	ldr	r1, [sp, #12]
	str	r1, [r3, #24]
	mcr	p15, 0, r0, c7, c10, 5
	str	r2, [sp]
.L382:
	cmp	r6, #0
	beq	.L379
	ldr	r3, .L407+8
	ldr	r3, [r5, r3]
	cmp	r3, #0
	beq	.L385
	add	r3, r6, #28
	mcr	p15, 0, r0, c7, c10, 5
.L400:
	ldrex	r2, [r3]
	sub	r1, r2, #1
	strex	r0, r1, [r3]
	cmp	r0, #0
	bne	.L400
	cmp	r2, #1
	mcr	p15, 0, r0, c7, c10, 5
	beq	.L406
.L379:
	add	sp, sp, #16
	@ sp needed
	pop	{r4, r5, r6, r7, r8, pc}
.L385:
	ldr	r3, [r6, #28]
	cmp	r3, #1
	sub	r3, r3, #1
	str	r3, [r6, #28]
	bne	.L379
	ldr	r3, [r6]
	mov	r0, r6
	ldr	r3, [r3, #8]
	blx	r3
	mcr	p15, 0, r0, c7, c10, 5
	ldr	r2, [r6, #32]
	sub	r3, r2, #1
	str	r3, [r6, #32]
	b	.L389
.L406:
	ldr	r3, [r6]
	mov	r0, r6
	ldr	r3, [r3, #8]
	blx	r3
	add	r3, r6, #32
	mcr	p15, 0, r0, c7, c10, 5
	mcr	p15, 0, r0, c7, c10, 5
.L399:
	ldrex	r2, [r3]
	sub	r1, r2, #1
	strex	r0, r1, [r3]
	cmp	r0, #0
	bne	.L399
	mcr	p15, 0, r0, c7, c10, 5
.L389:
	cmp	r2, #1
	bne	.L379
	ldr	r3, [r6]
	mov	r0, r6
	ldr	r3, [r3, #12]
	blx	r3
	b	.L379
.L405:
	ldrb	r2, [r4, #24]	@ zero_extendqisi2
	strb	r2, [r4]
	str	r4, [r3]
	b	.L381
.L408:
	.align	2
.L407:
	.word	_GLOBAL_OFFSET_TABLE_-(.LPIC53+8)
	.word	_ZN4asio6detail10call_stackINS0_15task_io_serviceENS0_27task_io_service_thread_infoEE4top_E(GOT)
	.word	_ZL28__gthrw___pthread_key_createPjPFvPvE(GOT)
	.cantunwind
	.fnend
	.size	_ZN4asio6detail18completion_handlerIZN8asiodnp315OutstationStack13SetLogFiltersERKN7openpal10LogFiltersEEUlvE_E11do_completeEPNS0_15task_io_serviceEPNS0_25task_io_service_operationERKSt10error_codej, .-_ZN4asio6detail18completion_handlerIZN8asiodnp315OutstationStack13SetLogFiltersERKN7openpal10LogFiltersEEUlvE_E11do_completeEPNS0_15task_io_serviceEPNS0_25task_io_service_operationERKSt10error_codej
	.section	.text._ZNK4asio5error6detail17addrinfo_category7messageB5cxx11Ei,"axG",%progbits,_ZNK4asio5error6detail17addrinfo_category7messageB5cxx11Ei,comdat
	.align	2
	.weak	_ZNK4asio5error6detail17addrinfo_category7messageB5cxx11Ei
	.syntax unified
	.arm
	.fpu vfp
	.type	_ZNK4asio5error6detail17addrinfo_category7messageB5cxx11Ei, %function
_ZNK4asio5error6detail17addrinfo_category7messageB5cxx11Ei:
	.fnstart
.LFB2465:
	@ args = 0, pretend = 0, frame = 8
	@ frame_needed = 0, uses_anonymous_args = 0
	push	{r4, r5, r6, lr}
	.save {r4, r5, r6, lr}
	cmn	r2, #8
	.pad #8
	sub	sp, sp, #8
	add	r1, sp, #8
	mov	r4, r0
	beq	.L414
	cmn	r2, #7
	beq	.L415
	add	r3, r0, #8
	mov	r2, #19
	str	r2, [r1, #-4]!
	str	r3, [r0]
	mov	r2, #0
	bl	_ZNSt7__cxx1112basic_stringIcSt11char_traitsIcESaIcEE9_M_createERjj(PLT)
	ldr	ip, .L416
	ldr	r6, [sp, #4]
.LPIC56:
	add	ip, pc, ip
	str	r6, [r4, #8]
	mov	r5, #0
	str	r0, [r4]
	mov	lr, r0
	ldmia	ip!, {r0, r1, r2, r3}
	ldrh	r6, [ip]	@ unaligned
	ldrb	ip, [ip, #2]	@ zero_extendqisi2
	str	r0, [lr]	@ unaligned
	str	r1, [lr, #4]	@ unaligned
	str	r2, [lr, #8]	@ unaligned
	str	r3, [lr, #12]	@ unaligned
	strh	r6, [lr, #16]	@ unaligned
	strb	ip, [lr, #18]
	ldr	r3, [sp, #4]
	ldr	r2, [r4]
	str	r3, [r4, #4]
	strb	r5, [r2, r3]
.L409:
	mov	r0, r4
	add	sp, sp, #8
	@ sp needed
	pop	{r4, r5, r6, pc}
.L415:
	add	r3, r0, #8
	mov	r2, #25
	str	r2, [r1, #-4]!
	str	r3, [r0]
	mov	r2, #0
	bl	_ZNSt7__cxx1112basic_stringIcSt11char_traitsIcESaIcEE9_M_createERjj(PLT)
	ldr	ip, .L416+4
	ldr	r6, [sp, #4]
.LPIC55:
	add	ip, pc, ip
	str	r6, [r4, #8]
	mov	r5, #0
	str	r0, [r4]
	mov	lr, r0
	ldmia	ip!, {r0, r1, r2, r3}
	str	r0, [lr]	@ unaligned
	str	r1, [lr, #4]	@ unaligned
	ldmia	ip!, {r0, r1}
	str	r3, [lr, #12]	@ unaligned
	str	r2, [lr, #8]	@ unaligned
	ldrb	r3, [ip]	@ zero_extendqisi2
	str	r0, [lr, #16]	@ unaligned
	str	r1, [lr, #20]	@ unaligned
	strb	r3, [lr, #24]
	ldr	r3, [sp, #4]
	ldr	r2, [r4]
	str	r3, [r4, #4]
	mov	r0, r4
	strb	r5, [r2, r3]
	add	sp, sp, #8
	@ sp needed
	pop	{r4, r5, r6, pc}
.L414:
	add	r3, r0, #8
	mov	r2, #17
	str	r2, [r1, #-4]!
	str	r3, [r0]
	mov	r2, #0
	bl	_ZNSt7__cxx1112basic_stringIcSt11char_traitsIcESaIcEE9_M_createERjj(PLT)
	ldr	ip, .L416+8
	ldr	r6, [sp, #4]
.LPIC54:
	add	ip, pc, ip
	str	r6, [r4, #8]
	mov	r5, #0
	str	r0, [r4]
	mov	lr, r0
	ldmia	ip!, {r0, r1, r2, r3}
	ldrb	ip, [ip]	@ zero_extendqisi2
	str	r0, [lr]	@ unaligned
	str	r1, [lr, #4]	@ unaligned
	strb	ip, [lr, #16]
	str	r2, [lr, #8]	@ unaligned
	str	r3, [lr, #12]	@ unaligned
	ldr	r3, [sp, #4]
	ldr	r2, [r4]
	str	r3, [r4, #4]
	strb	r5, [r2, r3]
	b	.L409
.L417:
	.align	2
.L416:
	.word	.LC10-(.LPIC56+8)
	.word	.LC9-(.LPIC55+8)
	.word	.LC8-(.LPIC54+8)
	.fnend
	.size	_ZNK4asio5error6detail17addrinfo_category7messageB5cxx11Ei, .-_ZNK4asio5error6detail17addrinfo_category7messageB5cxx11Ei
	.section	.text._ZNK4asio5error6detail13misc_category7messageB5cxx11Ei,"axG",%progbits,_ZNK4asio5error6detail13misc_category7messageB5cxx11Ei,comdat
	.align	2
	.weak	_ZNK4asio5error6detail13misc_category7messageB5cxx11Ei
	.syntax unified
	.arm
	.fpu vfp
	.type	_ZNK4asio5error6detail13misc_category7messageB5cxx11Ei, %function
_ZNK4asio5error6detail13misc_category7messageB5cxx11Ei:
	.fnstart
.LFB2471:
	@ args = 0, pretend = 0, frame = 8
	@ frame_needed = 0, uses_anonymous_args = 0
	cmp	r2, #1
	push	{r4, r5, r6, lr}
	.save {r4, r5, r6, lr}
	mov	r4, r0
	.pad #8
	sub	sp, sp, #8
	beq	.L427
	cmp	r2, #2
	beq	.L428
	cmp	r2, #3
	beq	.L429
	cmp	r2, #4
	beq	.L430
	ldr	ip, .L431
	add	r3, r0, #8
.LPIC61:
	add	ip, pc, ip
	mov	r5, #15
	ldmia	ip!, {r0, r1, r2}
	mov	lr, #0
	str	r3, [r4]
	str	r5, [r4, #4]
	ldrh	r6, [ip]	@ unaligned
	ldrb	ip, [ip, #2]	@ zero_extendqisi2
	str	r0, [r4, #8]	@ unaligned
	str	r1, [r4, #12]	@ unaligned
	str	r2, [r4, #16]	@ unaligned
	strh	r6, [r4, #20]	@ unaligned
	strb	ip, [r4, #22]
	strb	lr, [r4, #23]
.L418:
	mov	r0, r4
	add	sp, sp, #8
	@ sp needed
	pop	{r4, r5, r6, pc}
.L430:
	add	r1, sp, #8
	add	r3, r0, #8
	mov	r2, #57
	str	r2, [r1, #-4]!
	str	r3, [r0]
	mov	r2, #0
	bl	_ZNSt7__cxx1112basic_stringIcSt11char_traitsIcESaIcEE9_M_createERjj(PLT)
	ldr	r5, .L431+4
	ldr	r3, [sp, #4]
.LPIC60:
	add	r5, pc, r5
	add	r6, r5, #48
	str	r3, [r4, #8]
	mov	lr, r0
	str	r0, [r4]
.L424:
	mov	ip, r5
	add	lr, lr, #16
	ldmia	ip!, {r0, r1, r2, r3}
	add	r5, r5, #16
	cmp	ip, r6
	str	r0, [lr, #-16]	@ unaligned
	str	r1, [lr, #-12]	@ unaligned
	str	r2, [lr, #-8]	@ unaligned
	str	r3, [lr, #-4]	@ unaligned
	bne	.L424
	ldmia	r5!, {r0, r1}
	mov	ip, #0
	ldrb	r3, [r5]	@ zero_extendqisi2
	str	r0, [lr]	@ unaligned
	str	r1, [lr, #4]	@ unaligned
	strb	r3, [lr, #8]
	ldr	r3, [sp, #4]
	ldr	r2, [r4]
	str	r3, [r4, #4]
	strb	ip, [r2, r3]
	b	.L418
.L427:
	ldr	ip, .L431+8
	add	r3, r0, #8
.LPIC57:
	add	ip, pc, ip
	mov	lr, #12
	ldmia	ip!, {r0, r1, r2}
	mov	ip, #0
	str	r3, [r4]
	str	lr, [r4, #4]
	str	r0, [r4, #8]	@ unaligned
	str	r1, [r4, #12]	@ unaligned
	str	r2, [r4, #16]	@ unaligned
	strb	ip, [r4, #20]
	b	.L418
.L428:
	ldr	r2, .L431+12
	add	r3, r0, #8
.LPIC58:
	add	r2, pc, r2
	mov	lr, #11
	ldmia	r2!, {r0, r1}
	mov	ip, #0
	str	r3, [r4]
	ldrh	r5, [r2]	@ unaligned
	ldrb	r2, [r2, #2]	@ zero_extendqisi2
	str	r0, [r4, #8]	@ unaligned
	str	r1, [r4, #12]	@ unaligned
	strh	r5, [r4, #16]	@ unaligned
	strb	r2, [r4, #18]
	str	lr, [r4, #4]
	strb	ip, [r4, #19]
	b	.L418
.L429:
	add	r1, sp, #8
	add	r3, r0, #8
	mov	r2, #17
	str	r2, [r1, #-4]!
	str	r3, [r0]
	mov	r2, #0
	bl	_ZNSt7__cxx1112basic_stringIcSt11char_traitsIcESaIcEE9_M_createERjj(PLT)
	ldr	ip, .L431+16
	ldr	r6, [sp, #4]
.LPIC59:
	add	ip, pc, ip
	str	r6, [r4, #8]
	mov	r5, #0
	str	r0, [r4]
	mov	lr, r0
	ldmia	ip!, {r0, r1, r2, r3}
	ldrb	ip, [ip]	@ zero_extendqisi2
	str	r0, [lr]	@ unaligned
	str	r1, [lr, #4]	@ unaligned
	strb	ip, [lr, #16]
	str	r2, [lr, #8]	@ unaligned
	str	r3, [lr, #12]	@ unaligned
	ldr	r3, [sp, #4]
	ldr	r2, [r4]
	str	r3, [r4, #4]
	strb	r5, [r2, r3]
	b	.L418
.L432:
	.align	2
.L431:
	.word	.LC15-(.LPIC61+8)
	.word	.LC14-(.LPIC60+8)
	.word	.LC11-(.LPIC57+8)
	.word	.LC12-(.LPIC58+8)
	.word	.LC13-(.LPIC59+8)
	.fnend
	.size	_ZNK4asio5error6detail13misc_category7messageB5cxx11Ei, .-_ZNK4asio5error6detail13misc_category7messageB5cxx11Ei
	.section	.text._ZNK4asio5error6detail14netdb_category7messageB5cxx11Ei,"axG",%progbits,_ZNK4asio5error6detail14netdb_category7messageB5cxx11Ei,comdat
	.align	2
	.weak	_ZNK4asio5error6detail14netdb_category7messageB5cxx11Ei
	.syntax unified
	.arm
	.fpu vfp
	.type	_ZNK4asio5error6detail14netdb_category7messageB5cxx11Ei, %function
_ZNK4asio5error6detail14netdb_category7messageB5cxx11Ei:
	.fnstart
.LFB2459:
	@ args = 0, pretend = 0, frame = 8
	@ frame_needed = 0, uses_anonymous_args = 0
	push	{r4, r5, r6, lr}
	.save {r4, r5, r6, lr}
	cmp	r2, #1
	.pad #8
	sub	sp, sp, #8
	add	r1, sp, #8
	mov	r4, r0
	beq	.L446
	cmp	r2, #2
	beq	.L447
	cmp	r2, #4
	beq	.L448
	cmp	r2, #3
	beq	.L449
	add	r3, r0, #8
	mov	r2, #16
	str	r2, [r1, #-4]!
	str	r3, [r0]
	mov	r2, #0
	bl	_ZNSt7__cxx1112basic_stringIcSt11char_traitsIcESaIcEE9_M_createERjj(PLT)
	ldr	ip, .L450
	ldr	r5, [sp, #4]
.LPIC66:
	add	ip, pc, ip
	str	r5, [r4, #8]
	str	r0, [r4]
	mov	lr, r0
	ldmia	ip!, {r0, r1, r2, r3}
	mov	ip, #0
	str	r0, [lr]	@ unaligned
	str	r1, [lr, #4]	@ unaligned
	str	r2, [lr, #8]	@ unaligned
	str	r3, [lr, #12]	@ unaligned
	ldr	r3, [sp, #4]
	ldr	r2, [r4]
	str	r3, [r4, #4]
	strb	ip, [r2, r3]
.L433:
	mov	r0, r4
	add	sp, sp, #8
	@ sp needed
	pop	{r4, r5, r6, pc}
.L449:
	add	r3, r0, #8
	mov	r2, #55
	str	r2, [r1, #-4]!
	str	r3, [r0]
	mov	r2, #0
	bl	_ZNSt7__cxx1112basic_stringIcSt11char_traitsIcESaIcEE9_M_createERjj(PLT)
	ldr	r5, .L450+4
	ldr	r3, [sp, #4]
.LPIC65:
	add	r5, pc, r5
	add	r6, r5, #48
	str	r3, [r4, #8]
	mov	lr, r0
	str	r0, [r4]
.L441:
	mov	ip, r5
	add	lr, lr, #16
	ldmia	ip!, {r0, r1, r2, r3}
	add	r5, r5, #16
	cmp	ip, r6
	str	r0, [lr, #-16]	@ unaligned
	str	r1, [lr, #-12]	@ unaligned
	str	r2, [lr, #-8]	@ unaligned
	str	r3, [lr, #-4]	@ unaligned
	bne	.L441
	ldrh	r2, [r5, #4]	@ unaligned
	ldrb	r3, [r5, #6]	@ zero_extendqisi2
	ldr	r0, [r5]
	strh	r2, [lr, #4]	@ unaligned
	strb	r3, [lr, #6]
	str	r0, [lr]	@ unaligned
	ldr	r3, [sp, #4]
	ldr	r2, [r4]
	mov	r1, #0
	str	r3, [r4, #4]
	strb	r1, [r2, r3]
	b	.L433
.L446:
	add	r3, r0, #8
	mov	r2, #30
	str	r2, [r1, #-4]!
	str	r3, [r0]
	mov	r2, #0
	bl	_ZNSt7__cxx1112basic_stringIcSt11char_traitsIcESaIcEE9_M_createERjj(PLT)
	ldr	ip, .L450+8
	ldr	r6, [sp, #4]
.LPIC62:
	add	ip, pc, ip
	str	r6, [r4, #8]
	mov	r5, #0
	str	r0, [r4]
	mov	lr, r0
	ldmia	ip!, {r0, r1, r2, r3}
	str	r0, [lr]	@ unaligned
	str	r1, [lr, #4]	@ unaligned
	str	r2, [lr, #8]	@ unaligned
	ldmia	ip!, {r0, r1, r2}
	str	r3, [lr, #12]	@ unaligned
	ldrh	r3, [ip]	@ unaligned
	str	r0, [lr, #16]	@ unaligned
	str	r1, [lr, #20]	@ unaligned
	strh	r3, [lr, #28]	@ unaligned
	str	r2, [lr, #24]	@ unaligned
	ldr	r3, [sp, #4]
	ldr	r2, [r4]
	str	r3, [r4, #4]
	strb	r5, [r2, r3]
	b	.L433
.L447:
	add	r3, r0, #8
	mov	r2, #51
	str	r2, [r1, #-4]!
	str	r3, [r0]
	mov	r2, #0
	bl	_ZNSt7__cxx1112basic_stringIcSt11char_traitsIcESaIcEE9_M_createERjj(PLT)
	ldr	r5, .L450+12
	ldr	r3, [sp, #4]
.LPIC63:
	add	r5, pc, r5
	add	r6, r5, #48
	str	r3, [r4, #8]
	mov	lr, r0
	str	r0, [r4]
.L437:
	mov	ip, r5
	add	lr, lr, #16
	ldmia	ip!, {r0, r1, r2, r3}
	add	r5, r5, #16
	cmp	ip, r6
	str	r0, [lr, #-16]	@ unaligned
	str	r1, [lr, #-12]	@ unaligned
	str	r2, [lr, #-8]	@ unaligned
	str	r3, [lr, #-4]	@ unaligned
	bne	.L437
	ldrh	r2, [r5]	@ unaligned
	ldrb	r3, [r5, #2]	@ zero_extendqisi2
	mov	r1, #0
	strh	r2, [lr]	@ unaligned
	strb	r3, [lr, #2]
	ldr	r3, [sp, #4]
	ldr	r2, [r4]
	str	r3, [r4, #4]
	strb	r1, [r2, r3]
	b	.L433
.L448:
	add	r3, r0, #8
	mov	r2, #56
	str	r2, [r1, #-4]!
	str	r3, [r0]
	mov	r2, #0
	bl	_ZNSt7__cxx1112basic_stringIcSt11char_traitsIcESaIcEE9_M_createERjj(PLT)
	ldr	r5, .L450+16
	ldr	r3, [sp, #4]
.LPIC64:
	add	r5, pc, r5
	add	r6, r5, #48
	str	r3, [r4, #8]
	mov	lr, r0
	str	r0, [r4]
.L439:
	mov	ip, r5
	add	lr, lr, #16
	ldmia	ip!, {r0, r1, r2, r3}
	add	r5, r5, #16
	cmp	ip, r6
	str	r0, [lr, #-16]	@ unaligned
	str	r1, [lr, #-12]	@ unaligned
	str	r2, [lr, #-8]	@ unaligned
	str	r3, [lr, #-4]	@ unaligned
	bne	.L439
	ldmia	r5!, {r0, r1}
	mov	ip, #0
	str	r0, [lr]	@ unaligned
	str	r1, [lr, #4]	@ unaligned
	ldr	r3, [sp, #4]
	ldr	r2, [r4]
	str	r3, [r4, #4]
	strb	ip, [r2, r3]
	b	.L433
.L451:
	.align	2
.L450:
	.word	.LC20-(.LPIC66+8)
	.word	.LC19-(.LPIC65+8)
	.word	.LC16-(.LPIC62+8)
	.word	.LC17-(.LPIC63+8)
	.word	.LC18-(.LPIC64+8)
	.fnend
	.size	_ZNK4asio5error6detail14netdb_category7messageB5cxx11Ei, .-_ZNK4asio5error6detail14netdb_category7messageB5cxx11Ei
	.section	.text._ZN8asiodnp315OutstationStackD0Ev,"axG",%progbits,_ZN8asiodnp315OutstationStackD5Ev,comdat
	.align	2
	.weak	_ZN8asiodnp315OutstationStackD0Ev
	.syntax unified
	.arm
	.fpu vfp
	.type	_ZN8asiodnp315OutstationStackD0Ev, %function
_ZN8asiodnp315OutstationStackD0Ev:
	.fnstart
.LFB11342:
	@ args = 0, pretend = 0, frame = 0
	@ frame_needed = 0, uses_anonymous_args = 0
	push	{r4, r5, r6, lr}
	mov	r4, r0
	ldr	r5, .L666
	ldr	r3, .L666+4
.LPIC67:
	add	r5, pc, r5
	ldr	r1, .L666+8
	ldr	r3, [r5, r3]
	ldr	r2, .L666+12
	add	r0, r3, #72
	add	ip, r3, #8
	add	r3, r3, #104
	str	ip, [r4]
	stmib	r4, {r0, r3}
	ldr	r3, [r5, r1]
	ldr	r0, [r4, #708]
	add	r3, r3, #8
	str	r3, [r4, #80]
	ldr	r6, [r5, r2]
	cmp	r0, #0
	add	r3, r6, #8
	str	r3, [r4, #700]
	beq	.L453
	bl	_ZdaPv(PLT)
.L453:
	ldr	r0, [r4, #676]
	add	r3, r6, #8
	cmp	r0, #0
	str	r3, [r4, #668]
	beq	.L454
	bl	_ZdaPv(PLT)
.L454:
	ldr	r0, [r4, #620]
	add	r6, r6, #8
	cmp	r0, #0
	str	r6, [r4, #612]
	beq	.L455
	bl	_ZdaPv(PLT)
.L455:
	add	r0, r4, #572
	bl	_ZN7openpal8TimerRefD1Ev(PLT)
	ldr	r1, .L666+16
	ldr	r3, .L666+20
	ldr	r2, .L666+24
	ldr	r1, [r5, r1]
	ldr	r0, [r4, #456]
	add	r1, r1, #8
	str	r1, [r4, #340]
	ldr	r3, [r5, r3]
	cmp	r0, #0
	add	ip, r3, #8
	add	r1, r3, #44
	add	r3, r3, #60
	str	ip, [r4, #352]
	str	r1, [r4, #356]
	str	r3, [r4, #360]
	ldr	r3, [r5, r2]
	add	r3, r3, #8
	str	r3, [r4, #448]
	beq	.L456
	bl	_ZdaPv(PLT)
.L456:
	ldr	r3, .L666+28
	ldr	r0, [r4, #444]
	ldr	r3, [r5, r3]
	cmp	r0, #0
	add	r3, r3, #8
	str	r3, [r4, #436]
	beq	.L457
	bl	_ZdaPv(PLT)
.L457:
	ldr	r3, .L666+32
	ldr	r0, [r4, #432]
	ldr	r3, [r5, r3]
	cmp	r0, #0
	add	r3, r3, #8
	str	r3, [r4, #424]
	beq	.L458
	bl	_ZdaPv(PLT)
.L458:
	ldr	r3, .L666+36
	ldr	r0, [r4, #420]
	ldr	r3, [r5, r3]
	cmp	r0, #0
	add	r3, r3, #8
	str	r3, [r4, #412]
	beq	.L459
	bl	_ZdaPv(PLT)
.L459:
	ldr	r3, .L666+40
	ldr	r0, [r4, #408]
	ldr	r3, [r5, r3]
	cmp	r0, #0
	add	r3, r3, #8
	str	r3, [r4, #400]
	beq	.L460
	bl	_ZdaPv(PLT)
.L460:
	ldr	r3, .L666+44
	ldr	r0, [r4, #396]
	ldr	r3, [r5, r3]
	cmp	r0, #0
	add	r3, r3, #8
	str	r3, [r4, #388]
	beq	.L461
	bl	_ZdaPv(PLT)
.L461:
	ldr	r3, .L666+48
	ldr	r0, [r4, #384]
	ldr	r3, [r5, r3]
	cmp	r0, #0
	add	r3, r3, #8
	str	r3, [r4, #376]
	beq	.L462
	bl	_ZdaPv(PLT)
.L462:
	ldr	r3, .L666+52
	ldr	r0, [r4, #372]
	ldr	r3, [r5, r3]
	cmp	r0, #0
	add	r3, r3, #8
	str	r3, [r4, #364]
	beq	.L463
	bl	_ZdaPv(PLT)
.L463:
	ldr	r3, .L666+56
	ldr	r2, .L666+60
	ldr	r0, [r4, #192]
	ldr	r3, [r5, r3]
	cmp	r0, #0
	add	lr, r3, #8
	add	ip, r3, #80
	add	r1, r3, #96
	add	r3, r3, #112
	str	lr, [r4, #132]
	str	ip, [r4, #136]
	str	r1, [r4, #140]
	str	r3, [r4, #144]
	ldr	r3, [r5, r2]
	add	r3, r3, #8
	str	r3, [r4, #184]
	beq	.L464
	bl	_ZdaPv(PLT)
.L464:
	ldr	r6, [r4, #128]
	cmp	r6, #0
	beq	.L466
	ldr	r3, .L666+64
	ldr	r3, [r5, r3]
	cmp	r3, #0
	beq	.L467
	add	r3, r6, #28
	mcr	p15, 0, r0, c7, c10, 5
.L624:
	ldrex	r2, [r3]
	sub	r1, r2, #1
	strex	r0, r1, [r3]
	cmp	r0, #0
	bne	.L624
	cmp	r2, #1
	mcr	p15, 0, r0, c7, c10, 5
	beq	.L652
.L466:
	ldr	r6, [r4, #120]
	cmp	r6, #0
	beq	.L472
	ldr	r3, .L666+64
	ldr	r3, [r5, r3]
	cmp	r3, #0
	beq	.L473
	add	r3, r6, #28
	mcr	p15, 0, r0, c7, c10, 5
.L623:
	ldrex	r2, [r3]
	sub	r1, r2, #1
	strex	r0, r1, [r3]
	cmp	r0, #0
	bne	.L623
	cmp	r2, #1
	mcr	p15, 0, r0, c7, c10, 5
	beq	.L653
.L472:
	ldr	r6, [r4, #112]
	cmp	r6, #0
	beq	.L478
	ldr	r3, .L666+64
	ldr	r3, [r5, r3]
	cmp	r3, #0
	beq	.L479
	add	r3, r6, #28
	mcr	p15, 0, r0, c7, c10, 5
.L622:
	ldrex	r2, [r3]
	sub	r1, r2, #1
	strex	r0, r1, [r3]
	cmp	r0, #0
	bne	.L622
	cmp	r2, #1
	mcr	p15, 0, r0, c7, c10, 5
	beq	.L654
.L478:
	ldr	r6, [r4, #104]
	cmp	r6, #0
	beq	.L484
	ldr	r3, .L666+64
	ldr	r3, [r5, r3]
	cmp	r3, #0
	beq	.L485
	add	r3, r6, #28
	mcr	p15, 0, r0, c7, c10, 5
.L621:
	ldrex	r2, [r3]
	sub	r1, r2, #1
	strex	r0, r1, [r3]
	cmp	r0, #0
	bne	.L621
	cmp	r2, #1
	mcr	p15, 0, r0, c7, c10, 5
	beq	.L655
.L484:
	ldr	r6, [r4, #96]
	cmp	r6, #0
	beq	.L490
	ldr	r3, .L666+64
	ldr	r3, [r5, r3]
	cmp	r3, #0
	beq	.L491
	add	r3, r6, #28
	mcr	p15, 0, r0, c7, c10, 5
.L620:
	ldrex	r2, [r3]
	sub	r1, r2, #1
	strex	r0, r1, [r3]
	cmp	r0, #0
	bne	.L620
	cmp	r2, #1
	mcr	p15, 0, r0, c7, c10, 5
	beq	.L656
.L490:
	ldr	r6, [r4, #88]
	cmp	r6, #0
	beq	.L496
	ldr	r3, .L666+64
	ldr	r3, [r5, r3]
	cmp	r3, #0
	beq	.L497
	add	r3, r6, #28
	mcr	p15, 0, r0, c7, c10, 5
.L619:
	ldrex	r2, [r3]
	sub	r1, r2, #1
	strex	r0, r1, [r3]
	cmp	r0, #0
	bne	.L619
	cmp	r2, #1
	mcr	p15, 0, r0, c7, c10, 5
	beq	.L657
.L496:
	ldr	r6, [r4, #72]
	cmp	r6, #0
	beq	.L502
	ldr	r3, .L666+64
	ldr	r3, [r5, r3]
	cmp	r3, #0
	beq	.L503
	add	r3, r6, #28
	mcr	p15, 0, r0, c7, c10, 5
.L618:
	ldrex	r2, [r3]
	sub	r1, r2, #1
	strex	r0, r1, [r3]
	cmp	r0, #0
	bne	.L618
	cmp	r2, #1
	mcr	p15, 0, r0, c7, c10, 5
	beq	.L658
.L502:
	ldr	r6, [r4, #64]
	cmp	r6, #0
	beq	.L508
	ldr	r3, .L666+64
	ldr	r3, [r5, r3]
	cmp	r3, #0
	beq	.L509
	add	r3, r6, #28
	mcr	p15, 0, r0, c7, c10, 5
.L617:
	ldrex	r2, [r3]
	sub	r1, r2, #1
	strex	r0, r1, [r3]
	cmp	r0, #0
	bne	.L617
	cmp	r2, #1
	mcr	p15, 0, r0, c7, c10, 5
	beq	.L659
.L508:
	ldr	r6, [r4, #56]
	cmp	r6, #0
	beq	.L514
	ldr	r3, .L666+64
	ldr	r3, [r5, r3]
	cmp	r3, #0
	beq	.L515
	add	r3, r6, #28
	mcr	p15, 0, r0, c7, c10, 5
.L616:
	ldrex	r2, [r3]
	sub	r1, r2, #1
	strex	r0, r1, [r3]
	cmp	r0, #0
	bne	.L616
	cmp	r2, #1
	mcr	p15, 0, r0, c7, c10, 5
	beq	.L660
.L514:
	ldr	r6, [r4, #48]
	cmp	r6, #0
	beq	.L520
	ldr	r3, .L666+64
	ldr	r3, [r5, r3]
	cmp	r3, #0
	beq	.L521
	add	r3, r6, #28
	mcr	p15, 0, r0, c7, c10, 5
.L615:
	ldrex	r2, [r3]
	sub	r1, r2, #1
	strex	r0, r1, [r3]
	cmp	r0, #0
	bne	.L615
	cmp	r2, #1
	mcr	p15, 0, r0, c7, c10, 5
	beq	.L661
.L520:
	ldr	r6, [r4, #40]
	cmp	r6, #0
	beq	.L526
	ldr	r3, .L666+64
	ldr	r3, [r5, r3]
	cmp	r3, #0
	beq	.L527
	add	r3, r6, #28
	mcr	p15, 0, r0, c7, c10, 5
.L614:
	ldrex	r2, [r3]
	sub	r1, r2, #1
	strex	r0, r1, [r3]
	cmp	r0, #0
	bne	.L614
	cmp	r2, #1
	mcr	p15, 0, r0, c7, c10, 5
	beq	.L662
.L526:
	ldr	r6, [r4, #32]
	cmp	r6, #0
	beq	.L532
	ldr	r3, .L666+64
	ldr	r3, [r5, r3]
	cmp	r3, #0
	beq	.L533
	add	r3, r6, #28
	mcr	p15, 0, r0, c7, c10, 5
.L613:
	ldrex	r2, [r3]
	sub	r1, r2, #1
	strex	r0, r1, [r3]
	cmp	r0, #0
	bne	.L613
	cmp	r2, #1
	mcr	p15, 0, r0, c7, c10, 5
	beq	.L663
.L532:
	ldr	r6, [r4, #24]
	cmp	r6, #0
	beq	.L538
	ldr	r3, .L666+64
	ldr	r3, [r5, r3]
	cmp	r3, #0
	beq	.L539
	add	r3, r6, #28
	mcr	p15, 0, r0, c7, c10, 5
.L612:
	ldrex	r2, [r3]
	sub	r1, r2, #1
	strex	r0, r1, [r3]
	cmp	r0, #0
	bne	.L612
	cmp	r2, #1
	mcr	p15, 0, r0, c7, c10, 5
	beq	.L664
.L538:
	ldr	r0, [r4, #16]
	cmp	r0, #0
	beq	.L544
	ldr	r3, .L666+64
	ldr	r3, [r5, r3]
	cmp	r3, #0
	beq	.L545
	add	r3, r0, #32
	mcr	p15, 0, r0, c7, c10, 5
.L611:
	ldrex	r2, [r3]
	sub	r1, r2, #1
	strex	ip, r1, [r3]
	cmp	ip, #0
	bne	.L611
	cmp	r2, #1
	mcr	p15, 0, r0, c7, c10, 5
	beq	.L665
.L544:
	mov	r0, r4
	mov	r1, #720
	bl	_ZdlPvj(PLT)
	mov	r0, r4
	pop	{r4, r5, r6, pc}
.L473:
	ldr	r3, [r6, #28]
	cmp	r3, #1
	sub	r3, r3, #1
	str	r3, [r6, #28]
	bne	.L472
	ldr	r3, [r6]
	mov	r0, r6
	ldr	r3, [r3, #8]
	blx	r3
	mcr	p15, 0, r0, c7, c10, 5
	ldr	r2, [r6, #32]
	sub	r3, r2, #1
	str	r3, [r6, #32]
	b	.L549
.L479:
	ldr	r3, [r6, #28]
	cmp	r3, #1
	sub	r3, r3, #1
	str	r3, [r6, #28]
	bne	.L478
	ldr	r3, [r6]
	mov	r0, r6
	ldr	r3, [r3, #8]
	blx	r3
	mcr	p15, 0, r0, c7, c10, 5
	ldr	r2, [r6, #32]
	sub	r3, r2, #1
	str	r3, [r6, #32]
	b	.L550
.L467:
	ldr	r3, [r6, #28]
	cmp	r3, #1
	sub	r3, r3, #1
	str	r3, [r6, #28]
	bne	.L466
	ldr	r3, [r6]
	mov	r0, r6
	ldr	r3, [r3, #8]
	blx	r3
	mcr	p15, 0, r0, c7, c10, 5
	ldr	r2, [r6, #32]
	sub	r3, r2, #1
	str	r3, [r6, #32]
	b	.L548
.L491:
	ldr	r3, [r6, #28]
	cmp	r3, #1
	sub	r3, r3, #1
	str	r3, [r6, #28]
	bne	.L490
	ldr	r3, [r6]
	mov	r0, r6
	ldr	r3, [r3, #8]
	blx	r3
	mcr	p15, 0, r0, c7, c10, 5
	ldr	r2, [r6, #32]
	sub	r3, r2, #1
	str	r3, [r6, #32]
	b	.L552
.L533:
	ldr	r3, [r6, #28]
	cmp	r3, #1
	sub	r3, r3, #1
	str	r3, [r6, #28]
	bne	.L532
	ldr	r3, [r6]
	mov	r0, r6
	ldr	r3, [r3, #8]
	blx	r3
	mcr	p15, 0, r0, c7, c10, 5
	ldr	r2, [r6, #32]
	sub	r3, r2, #1
	str	r3, [r6, #32]
	b	.L559
.L503:
	ldr	r3, [r6, #28]
	cmp	r3, #1
	sub	r3, r3, #1
	str	r3, [r6, #28]
	bne	.L502
	ldr	r3, [r6]
	mov	r0, r6
	ldr	r3, [r3, #8]
	blx	r3
	mcr	p15, 0, r0, c7, c10, 5
	ldr	r2, [r6, #32]
	sub	r3, r2, #1
	str	r3, [r6, #32]
	b	.L554
.L521:
	ldr	r3, [r6, #28]
	cmp	r3, #1
	sub	r3, r3, #1
	str	r3, [r6, #28]
	bne	.L520
	ldr	r3, [r6]
	mov	r0, r6
	ldr	r3, [r3, #8]
	blx	r3
	mcr	p15, 0, r0, c7, c10, 5
	ldr	r2, [r6, #32]
	sub	r3, r2, #1
	str	r3, [r6, #32]
	b	.L557
.L515:
	ldr	r3, [r6, #28]
	cmp	r3, #1
	sub	r3, r3, #1
	str	r3, [r6, #28]
	bne	.L514
	ldr	r3, [r6]
	mov	r0, r6
	ldr	r3, [r3, #8]
	blx	r3
	mcr	p15, 0, r0, c7, c10, 5
	ldr	r2, [r6, #32]
	sub	r3, r2, #1
	str	r3, [r6, #32]
	b	.L556
.L545:
	ldr	r2, [r0, #32]
	sub	r3, r2, #1
	cmp	r2, #1
	str	r3, [r0, #32]
	bne	.L544
.L665:
	mcr	p15, 0, r0, c7, c10, 5
	ldr	r3, [r0]
	ldr	r3, [r3, #12]
	blx	r3
	b	.L544
.L539:
	ldr	r3, [r6, #28]
	cmp	r3, #1
	sub	r3, r3, #1
	str	r3, [r6, #28]
	bne	.L538
	ldr	r3, [r6]
	mov	r0, r6
	ldr	r3, [r3, #8]
	blx	r3
	mcr	p15, 0, r0, c7, c10, 5
	ldr	r2, [r6, #32]
	sub	r3, r2, #1
	str	r3, [r6, #32]
	b	.L560
.L509:
	ldr	r3, [r6, #28]
	cmp	r3, #1
	sub	r3, r3, #1
	str	r3, [r6, #28]
	bne	.L508
	ldr	r3, [r6]
	mov	r0, r6
	ldr	r3, [r3, #8]
	blx	r3
	mcr	p15, 0, r0, c7, c10, 5
	ldr	r2, [r6, #32]
	sub	r3, r2, #1
	str	r3, [r6, #32]
	b	.L555
.L497:
	ldr	r3, [r6, #28]
	cmp	r3, #1
	sub	r3, r3, #1
	str	r3, [r6, #28]
	bne	.L496
	ldr	r3, [r6]
	mov	r0, r6
	ldr	r3, [r3, #8]
	blx	r3
	mcr	p15, 0, r0, c7, c10, 5
	ldr	r2, [r6, #32]
	sub	r3, r2, #1
	str	r3, [r6, #32]
	b	.L553
.L485:
	ldr	r3, [r6, #28]
	cmp	r3, #1
	sub	r3, r3, #1
	str	r3, [r6, #28]
	bne	.L484
	ldr	r3, [r6]
	mov	r0, r6
	ldr	r3, [r3, #8]
	blx	r3
	mcr	p15, 0, r0, c7, c10, 5
	ldr	r2, [r6, #32]
	sub	r3, r2, #1
	str	r3, [r6, #32]
	b	.L551
.L527:
	ldr	r3, [r6, #28]
	cmp	r3, #1
	sub	r3, r3, #1
	str	r3, [r6, #28]
	bne	.L526
	ldr	r3, [r6]
	mov	r0, r6
	ldr	r3, [r3, #8]
	blx	r3
	mcr	p15, 0, r0, c7, c10, 5
	ldr	r2, [r6, #32]
	sub	r3, r2, #1
	str	r3, [r6, #32]
	b	.L558
.L655:
	ldr	r3, [r6]
	mov	r0, r6
	ldr	r3, [r3, #8]
	blx	r3
	add	r3, r6, #32
	mcr	p15, 0, r0, c7, c10, 5
	mcr	p15, 0, r0, c7, c10, 5
.L607:
	ldrex	r2, [r3]
	sub	r1, r2, #1
	strex	r0, r1, [r3]
	cmp	r0, #0
	bne	.L607
	mcr	p15, 0, r0, c7, c10, 5
.L551:
	cmp	r2, #1
	bne	.L484
	ldr	r3, [r6]
	mov	r0, r6
	ldr	r3, [r3, #12]
	blx	r3
	b	.L484
.L657:
	ldr	r3, [r6]
	mov	r0, r6
	ldr	r3, [r3, #8]
	blx	r3
	add	r3, r6, #32
	mcr	p15, 0, r0, c7, c10, 5
	mcr	p15, 0, r0, c7, c10, 5
.L605:
	ldrex	r2, [r3]
	sub	r1, r2, #1
	strex	r0, r1, [r3]
	cmp	r0, #0
	bne	.L605
	mcr	p15, 0, r0, c7, c10, 5
.L553:
	cmp	r2, #1
	bne	.L496
	ldr	r3, [r6]
	mov	r0, r6
	ldr	r3, [r3, #12]
	blx	r3
	b	.L496
.L659:
	ldr	r3, [r6]
	mov	r0, r6
	ldr	r3, [r3, #8]
	blx	r3
	add	r3, r6, #32
	mcr	p15, 0, r0, c7, c10, 5
	mcr	p15, 0, r0, c7, c10, 5
.L603:
	ldrex	r2, [r3]
	sub	r1, r2, #1
	strex	r0, r1, [r3]
	cmp	r0, #0
	bne	.L603
	mcr	p15, 0, r0, c7, c10, 5
.L555:
	cmp	r2, #1
	bne	.L508
	ldr	r3, [r6]
	mov	r0, r6
	ldr	r3, [r3, #12]
	blx	r3
	b	.L508
.L664:
	ldr	r3, [r6]
	mov	r0, r6
	ldr	r3, [r3, #8]
	blx	r3
	add	r3, r6, #32
	mcr	p15, 0, r0, c7, c10, 5
	mcr	p15, 0, r0, c7, c10, 5
.L598:
	ldrex	r2, [r3]
	sub	r1, r2, #1
	strex	r0, r1, [r3]
	cmp	r0, #0
	bne	.L598
	mcr	p15, 0, r0, c7, c10, 5
.L560:
	cmp	r2, #1
	bne	.L538
	ldr	r3, [r6]
	mov	r0, r6
	ldr	r3, [r3, #12]
	blx	r3
	b	.L538
.L662:
	ldr	r3, [r6]
	mov	r0, r6
	ldr	r3, [r3, #8]
	blx	r3
	add	r3, r6, #32
	mcr	p15, 0, r0, c7, c10, 5
	mcr	p15, 0, r0, c7, c10, 5
.L600:
	ldrex	r2, [r3]
	sub	r1, r2, #1
	strex	r0, r1, [r3]
	cmp	r0, #0
	bne	.L600
	mcr	p15, 0, r0, c7, c10, 5
.L558:
	cmp	r2, #1
	bne	.L526
	ldr	r3, [r6]
	mov	r0, r6
	ldr	r3, [r3, #12]
	blx	r3
	b	.L526
.L652:
	ldr	r3, [r6]
	mov	r0, r6
	ldr	r3, [r3, #8]
	blx	r3
	add	r3, r6, #32
	mcr	p15, 0, r0, c7, c10, 5
	mcr	p15, 0, r0, c7, c10, 5
.L610:
	ldrex	r2, [r3]
	sub	r1, r2, #1
	strex	r0, r1, [r3]
	cmp	r0, #0
	bne	.L610
	mcr	p15, 0, r0, c7, c10, 5
.L548:
	cmp	r2, #1
	bne	.L466
	ldr	r3, [r6]
	mov	r0, r6
	ldr	r3, [r3, #12]
	blx	r3
	b	.L466
.L653:
	ldr	r3, [r6]
	mov	r0, r6
	ldr	r3, [r3, #8]
	blx	r3
	add	r3, r6, #32
	mcr	p15, 0, r0, c7, c10, 5
	mcr	p15, 0, r0, c7, c10, 5
.L609:
	ldrex	r2, [r3]
	sub	r1, r2, #1
	strex	r0, r1, [r3]
	cmp	r0, #0
	bne	.L609
	mcr	p15, 0, r0, c7, c10, 5
.L549:
	cmp	r2, #1
	bne	.L472
	ldr	r3, [r6]
	mov	r0, r6
	ldr	r3, [r3, #12]
	blx	r3
	b	.L472
.L654:
	ldr	r3, [r6]
	mov	r0, r6
	ldr	r3, [r3, #8]
	blx	r3
	add	r3, r6, #32
	mcr	p15, 0, r0, c7, c10, 5
	mcr	p15, 0, r0, c7, c10, 5
.L608:
	ldrex	r2, [r3]
	sub	r1, r2, #1
	strex	r0, r1, [r3]
	cmp	r0, #0
	bne	.L608
	mcr	p15, 0, r0, c7, c10, 5
.L550:
	cmp	r2, #1
	bne	.L478
	ldr	r3, [r6]
	mov	r0, r6
	ldr	r3, [r3, #12]
	blx	r3
	b	.L478
.L656:
	ldr	r3, [r6]
	mov	r0, r6
	ldr	r3, [r3, #8]
	blx	r3
	add	r3, r6, #32
	mcr	p15, 0, r0, c7, c10, 5
	mcr	p15, 0, r0, c7, c10, 5
.L606:
	ldrex	r2, [r3]
	sub	r1, r2, #1
	strex	r0, r1, [r3]
	cmp	r0, #0
	bne	.L606
	mcr	p15, 0, r0, c7, c10, 5
.L552:
	cmp	r2, #1
	bne	.L490
	ldr	r3, [r6]
	mov	r0, r6
	ldr	r3, [r3, #12]
	blx	r3
	b	.L490
.L658:
	ldr	r3, [r6]
	mov	r0, r6
	ldr	r3, [r3, #8]
	blx	r3
	add	r3, r6, #32
	mcr	p15, 0, r0, c7, c10, 5
	mcr	p15, 0, r0, c7, c10, 5
.L604:
	ldrex	r2, [r3]
	sub	r1, r2, #1
	strex	r0, r1, [r3]
	cmp	r0, #0
	bne	.L604
	mcr	p15, 0, r0, c7, c10, 5
.L554:
	cmp	r2, #1
	bne	.L502
	ldr	r3, [r6]
	mov	r0, r6
	ldr	r3, [r3, #12]
	blx	r3
	b	.L502
.L660:
	ldr	r3, [r6]
	mov	r0, r6
	ldr	r3, [r3, #8]
	blx	r3
	add	r3, r6, #32
	mcr	p15, 0, r0, c7, c10, 5
	mcr	p15, 0, r0, c7, c10, 5
.L602:
	ldrex	r2, [r3]
	sub	r1, r2, #1
	strex	r0, r1, [r3]
	cmp	r0, #0
	bne	.L602
	mcr	p15, 0, r0, c7, c10, 5
.L556:
	cmp	r2, #1
	bne	.L514
	ldr	r3, [r6]
	mov	r0, r6
	ldr	r3, [r3, #12]
	blx	r3
	b	.L514
.L661:
	ldr	r3, [r6]
	mov	r0, r6
	ldr	r3, [r3, #8]
	blx	r3
	add	r3, r6, #32
	mcr	p15, 0, r0, c7, c10, 5
	mcr	p15, 0, r0, c7, c10, 5
.L601:
	ldrex	r2, [r3]
	sub	r1, r2, #1
	strex	r0, r1, [r3]
	cmp	r0, #0
	bne	.L601
	mcr	p15, 0, r0, c7, c10, 5
.L557:
	cmp	r2, #1
	bne	.L520
	ldr	r3, [r6]
	mov	r0, r6
	ldr	r3, [r3, #12]
	blx	r3
	b	.L520
.L663:
	ldr	r3, [r6]
	mov	r0, r6
	ldr	r3, [r3, #8]
	blx	r3
	add	r3, r6, #32
	mcr	p15, 0, r0, c7, c10, 5
	mcr	p15, 0, r0, c7, c10, 5
.L599:
	ldrex	r2, [r3]
	sub	r1, r2, #1
	strex	r0, r1, [r3]
	cmp	r0, #0
	bne	.L599
	mcr	p15, 0, r0, c7, c10, 5
.L559:
	cmp	r2, #1
	bne	.L532
	ldr	r3, [r6]
	mov	r0, r6
	ldr	r3, [r3, #12]
	blx	r3
	b	.L532
.L667:
	.align	2
.L666:
	.word	_GLOBAL_OFFSET_TABLE_-(.LPIC67+8)
	.word	_ZTVN8asiodnp315OutstationStackE(GOT)
	.word	_ZTVN8opendnp38OContextE(GOT)
	.word	_ZTVN7openpal5ArrayIhjEE(GOT)
	.word	_ZTVN8opendnp38DatabaseE(GOT)
	.word	_ZTVN8opendnp315DatabaseBuffersE(GOT)
	.word	_ZTVN7openpal5ArrayIN8opendnp34CellINS1_19TimeAndIntervalSpecEEEtEE(GOT)
	.word	_ZTVN7openpal5ArrayIN8opendnp34CellINS1_22AnalogOutputStatusSpecEEEtEE(GOT)
	.word	_ZTVN7openpal5ArrayIN8opendnp34CellINS1_22BinaryOutputStatusSpecEEEtEE(GOT)
	.word	_ZTVN7openpal5ArrayIN8opendnp34CellINS1_17FrozenCounterSpecEEEtEE(GOT)
	.word	_ZTVN7openpal5ArrayIN8opendnp34CellINS1_11CounterSpecEEEtEE(GOT)
	.word	_ZTVN7openpal5ArrayIN8opendnp34CellINS1_10AnalogSpecEEEtEE(GOT)
	.word	_ZTVN7openpal5ArrayIN8opendnp34CellINS1_19DoubleBitBinarySpecEEEtEE(GOT)
	.word	_ZTVN7openpal5ArrayIN8opendnp34CellINS1_10BinarySpecEEEtEE(GOT)
	.word	_ZTVN8opendnp311EventBufferE(GOT)
	.word	_ZTVN7openpal5ArrayINS_8ListNodeIN8opendnp39SOERecordEEEjEE(GOT)
	.word	_ZL28__gthrw___pthread_key_createPjPFvPvE(GOT)
	.cantunwind
	.fnend
	.size	_ZN8asiodnp315OutstationStackD0Ev, .-_ZN8asiodnp315OutstationStackD0Ev
	.set	.LTHUNK11,_ZN8asiodnp315OutstationStackD0Ev
	.align	2
	.weak	_ZThn4_N8asiodnp315OutstationStackD0Ev
	.syntax unified
	.arm
	.fpu vfp
	.type	_ZThn4_N8asiodnp315OutstationStackD0Ev, %function
_ZThn4_N8asiodnp315OutstationStackD0Ev:
	.fnstart
.LFB11793:
	@ args = 0, pretend = 0, frame = 0
	@ frame_needed = 0, uses_anonymous_args = 0
	sub	r0, r0, #4
	b	.LTHUNK11(PLT)
	.cantunwind
	.fnend
	.size	_ZThn4_N8asiodnp315OutstationStackD0Ev, .-_ZThn4_N8asiodnp315OutstationStackD0Ev
	.set	.LTHUNK10,_ZN8asiodnp315OutstationStackD0Ev
	.align	2
	.weak	_ZThn8_N8asiodnp315OutstationStackD0Ev
	.syntax unified
	.arm
	.fpu vfp
	.type	_ZThn8_N8asiodnp315OutstationStackD0Ev, %function
_ZThn8_N8asiodnp315OutstationStackD0Ev:
	.fnstart
.LFB11794:
	@ args = 0, pretend = 0, frame = 0
	@ frame_needed = 0, uses_anonymous_args = 0
	sub	r0, r0, #8
	b	.LTHUNK10(PLT)
	.cantunwind
	.fnend
	.size	_ZThn8_N8asiodnp315OutstationStackD0Ev, .-_ZThn8_N8asiodnp315OutstationStackD0Ev
	.section	.text._ZN8asiodnp315OutstationStackD2Ev,"axG",%progbits,_ZN8asiodnp315OutstationStackD5Ev,comdat
	.align	2
	.weak	_ZN8asiodnp315OutstationStackD2Ev
	.syntax unified
	.arm
	.fpu vfp
	.type	_ZN8asiodnp315OutstationStackD2Ev, %function
_ZN8asiodnp315OutstationStackD2Ev:
	.fnstart
.LFB11340:
	@ args = 0, pretend = 0, frame = 0
	@ frame_needed = 0, uses_anonymous_args = 0
	push	{r4, r5, r6, lr}
	mov	r4, r0
	ldr	r5, .L882
	ldr	r3, .L882+4
.LPIC68:
	add	r5, pc, r5
	ldr	r1, .L882+8
	ldr	r3, [r5, r3]
	ldr	r2, .L882+12
	add	r0, r3, #72
	add	ip, r3, #8
	add	r3, r3, #104
	str	ip, [r4]
	stmib	r4, {r0, r3}
	ldr	r3, [r5, r1]
	ldr	r0, [r4, #708]
	add	r3, r3, #8
	str	r3, [r4, #80]
	ldr	r6, [r5, r2]
	cmp	r0, #0
	add	r3, r6, #8
	str	r3, [r4, #700]
	beq	.L669
	bl	_ZdaPv(PLT)
.L669:
	ldr	r0, [r4, #676]
	add	r3, r6, #8
	cmp	r0, #0
	str	r3, [r4, #668]
	beq	.L670
	bl	_ZdaPv(PLT)
.L670:
	ldr	r0, [r4, #620]
	add	r6, r6, #8
	cmp	r0, #0
	str	r6, [r4, #612]
	beq	.L671
	bl	_ZdaPv(PLT)
.L671:
	add	r0, r4, #572
	bl	_ZN7openpal8TimerRefD1Ev(PLT)
	ldr	r1, .L882+16
	ldr	r3, .L882+20
	ldr	r2, .L882+24
	ldr	r1, [r5, r1]
	ldr	r0, [r4, #456]
	add	r1, r1, #8
	str	r1, [r4, #340]
	ldr	r3, [r5, r3]
	cmp	r0, #0
	add	ip, r3, #8
	add	r1, r3, #44
	add	r3, r3, #60
	str	ip, [r4, #352]
	str	r1, [r4, #356]
	str	r3, [r4, #360]
	ldr	r3, [r5, r2]
	add	r3, r3, #8
	str	r3, [r4, #448]
	beq	.L672
	bl	_ZdaPv(PLT)
.L672:
	ldr	r3, .L882+28
	ldr	r0, [r4, #444]
	ldr	r3, [r5, r3]
	cmp	r0, #0
	add	r3, r3, #8
	str	r3, [r4, #436]
	beq	.L673
	bl	_ZdaPv(PLT)
.L673:
	ldr	r3, .L882+32
	ldr	r0, [r4, #432]
	ldr	r3, [r5, r3]
	cmp	r0, #0
	add	r3, r3, #8
	str	r3, [r4, #424]
	beq	.L674
	bl	_ZdaPv(PLT)
.L674:
	ldr	r3, .L882+36
	ldr	r0, [r4, #420]
	ldr	r3, [r5, r3]
	cmp	r0, #0
	add	r3, r3, #8
	str	r3, [r4, #412]
	beq	.L675
	bl	_ZdaPv(PLT)
.L675:
	ldr	r3, .L882+40
	ldr	r0, [r4, #408]
	ldr	r3, [r5, r3]
	cmp	r0, #0
	add	r3, r3, #8
	str	r3, [r4, #400]
	beq	.L676
	bl	_ZdaPv(PLT)
.L676:
	ldr	r3, .L882+44
	ldr	r0, [r4, #396]
	ldr	r3, [r5, r3]
	cmp	r0, #0
	add	r3, r3, #8
	str	r3, [r4, #388]
	beq	.L677
	bl	_ZdaPv(PLT)
.L677:
	ldr	r3, .L882+48
	ldr	r0, [r4, #384]
	ldr	r3, [r5, r3]
	cmp	r0, #0
	add	r3, r3, #8
	str	r3, [r4, #376]
	beq	.L678
	bl	_ZdaPv(PLT)
.L678:
	ldr	r3, .L882+52
	ldr	r0, [r4, #372]
	ldr	r3, [r5, r3]
	cmp	r0, #0
	add	r3, r3, #8
	str	r3, [r4, #364]
	beq	.L679
	bl	_ZdaPv(PLT)
.L679:
	ldr	r3, .L882+56
	ldr	r2, .L882+60
	ldr	r0, [r4, #192]
	ldr	r3, [r5, r3]
	cmp	r0, #0
	add	lr, r3, #8
	add	ip, r3, #80
	add	r1, r3, #96
	add	r3, r3, #112
	str	lr, [r4, #132]
	str	ip, [r4, #136]
	str	r1, [r4, #140]
	str	r3, [r4, #144]
	ldr	r3, [r5, r2]
	add	r3, r3, #8
	str	r3, [r4, #184]
	beq	.L680
	bl	_ZdaPv(PLT)
.L680:
	ldr	r6, [r4, #128]
	cmp	r6, #0
	beq	.L682
	ldr	r3, .L882+64
	ldr	r3, [r5, r3]
	cmp	r3, #0
	beq	.L683
	add	r3, r6, #28
	mcr	p15, 0, r0, c7, c10, 5
.L840:
	ldrex	r2, [r3]
	sub	r1, r2, #1
	strex	r0, r1, [r3]
	cmp	r0, #0
	bne	.L840
	cmp	r2, #1
	mcr	p15, 0, r0, c7, c10, 5
	beq	.L868
.L682:
	ldr	r6, [r4, #120]
	cmp	r6, #0
	beq	.L688
	ldr	r3, .L882+64
	ldr	r3, [r5, r3]
	cmp	r3, #0
	beq	.L689
	add	r3, r6, #28
	mcr	p15, 0, r0, c7, c10, 5
.L839:
	ldrex	r2, [r3]
	sub	r1, r2, #1
	strex	r0, r1, [r3]
	cmp	r0, #0
	bne	.L839
	cmp	r2, #1
	mcr	p15, 0, r0, c7, c10, 5
	beq	.L869
.L688:
	ldr	r6, [r4, #112]
	cmp	r6, #0
	beq	.L694
	ldr	r3, .L882+64
	ldr	r3, [r5, r3]
	cmp	r3, #0
	beq	.L695
	add	r3, r6, #28
	mcr	p15, 0, r0, c7, c10, 5
.L838:
	ldrex	r2, [r3]
	sub	r1, r2, #1
	strex	r0, r1, [r3]
	cmp	r0, #0
	bne	.L838
	cmp	r2, #1
	mcr	p15, 0, r0, c7, c10, 5
	beq	.L870
.L694:
	ldr	r6, [r4, #104]
	cmp	r6, #0
	beq	.L700
	ldr	r3, .L882+64
	ldr	r3, [r5, r3]
	cmp	r3, #0
	beq	.L701
	add	r3, r6, #28
	mcr	p15, 0, r0, c7, c10, 5
.L837:
	ldrex	r2, [r3]
	sub	r1, r2, #1
	strex	r0, r1, [r3]
	cmp	r0, #0
	bne	.L837
	cmp	r2, #1
	mcr	p15, 0, r0, c7, c10, 5
	beq	.L871
.L700:
	ldr	r6, [r4, #96]
	cmp	r6, #0
	beq	.L706
	ldr	r3, .L882+64
	ldr	r3, [r5, r3]
	cmp	r3, #0
	beq	.L707
	add	r3, r6, #28
	mcr	p15, 0, r0, c7, c10, 5
.L836:
	ldrex	r2, [r3]
	sub	r1, r2, #1
	strex	r0, r1, [r3]
	cmp	r0, #0
	bne	.L836
	cmp	r2, #1
	mcr	p15, 0, r0, c7, c10, 5
	beq	.L872
.L706:
	ldr	r6, [r4, #88]
	cmp	r6, #0
	beq	.L712
	ldr	r3, .L882+64
	ldr	r3, [r5, r3]
	cmp	r3, #0
	beq	.L713
	add	r3, r6, #28
	mcr	p15, 0, r0, c7, c10, 5
.L835:
	ldrex	r2, [r3]
	sub	r1, r2, #1
	strex	r0, r1, [r3]
	cmp	r0, #0
	bne	.L835
	cmp	r2, #1
	mcr	p15, 0, r0, c7, c10, 5
	beq	.L873
.L712:
	ldr	r6, [r4, #72]
	cmp	r6, #0
	beq	.L718
	ldr	r3, .L882+64
	ldr	r3, [r5, r3]
	cmp	r3, #0
	beq	.L719
	add	r3, r6, #28
	mcr	p15, 0, r0, c7, c10, 5
.L834:
	ldrex	r2, [r3]
	sub	r1, r2, #1
	strex	r0, r1, [r3]
	cmp	r0, #0
	bne	.L834
	cmp	r2, #1
	mcr	p15, 0, r0, c7, c10, 5
	beq	.L874
.L718:
	ldr	r6, [r4, #64]
	cmp	r6, #0
	beq	.L724
	ldr	r3, .L882+64
	ldr	r3, [r5, r3]
	cmp	r3, #0
	beq	.L725
	add	r3, r6, #28
	mcr	p15, 0, r0, c7, c10, 5
.L833:
	ldrex	r2, [r3]
	sub	r1, r2, #1
	strex	r0, r1, [r3]
	cmp	r0, #0
	bne	.L833
	cmp	r2, #1
	mcr	p15, 0, r0, c7, c10, 5
	beq	.L875
.L724:
	ldr	r6, [r4, #56]
	cmp	r6, #0
	beq	.L730
	ldr	r3, .L882+64
	ldr	r3, [r5, r3]
	cmp	r3, #0
	beq	.L731
	add	r3, r6, #28
	mcr	p15, 0, r0, c7, c10, 5
.L832:
	ldrex	r2, [r3]
	sub	r1, r2, #1
	strex	r0, r1, [r3]
	cmp	r0, #0
	bne	.L832
	cmp	r2, #1
	mcr	p15, 0, r0, c7, c10, 5
	beq	.L876
.L730:
	ldr	r6, [r4, #48]
	cmp	r6, #0
	beq	.L736
	ldr	r3, .L882+64
	ldr	r3, [r5, r3]
	cmp	r3, #0
	beq	.L737
	add	r3, r6, #28
	mcr	p15, 0, r0, c7, c10, 5
.L831:
	ldrex	r2, [r3]
	sub	r1, r2, #1
	strex	r0, r1, [r3]
	cmp	r0, #0
	bne	.L831
	cmp	r2, #1
	mcr	p15, 0, r0, c7, c10, 5
	beq	.L877
.L736:
	ldr	r6, [r4, #40]
	cmp	r6, #0
	beq	.L742
	ldr	r3, .L882+64
	ldr	r3, [r5, r3]
	cmp	r3, #0
	beq	.L743
	add	r3, r6, #28
	mcr	p15, 0, r0, c7, c10, 5
.L830:
	ldrex	r2, [r3]
	sub	r1, r2, #1
	strex	r0, r1, [r3]
	cmp	r0, #0
	bne	.L830
	cmp	r2, #1
	mcr	p15, 0, r0, c7, c10, 5
	beq	.L878
.L742:
	ldr	r6, [r4, #32]
	cmp	r6, #0
	beq	.L748
	ldr	r3, .L882+64
	ldr	r3, [r5, r3]
	cmp	r3, #0
	beq	.L749
	add	r3, r6, #28
	mcr	p15, 0, r0, c7, c10, 5
.L829:
	ldrex	r2, [r3]
	sub	r1, r2, #1
	strex	r0, r1, [r3]
	cmp	r0, #0
	bne	.L829
	cmp	r2, #1
	mcr	p15, 0, r0, c7, c10, 5
	beq	.L879
.L748:
	ldr	r6, [r4, #24]
	cmp	r6, #0
	beq	.L754
	ldr	r3, .L882+64
	ldr	r3, [r5, r3]
	cmp	r3, #0
	beq	.L755
	add	r3, r6, #28
	mcr	p15, 0, r0, c7, c10, 5
.L828:
	ldrex	r2, [r3]
	sub	r1, r2, #1
	strex	r0, r1, [r3]
	cmp	r0, #0
	bne	.L828
	cmp	r2, #1
	mcr	p15, 0, r0, c7, c10, 5
	beq	.L880
.L754:
	ldr	r0, [r4, #16]
	cmp	r0, #0
	beq	.L789
	ldr	r3, .L882+64
	ldr	r3, [r5, r3]
	cmp	r3, #0
	beq	.L761
	add	r3, r0, #32
	mcr	p15, 0, r0, c7, c10, 5
.L827:
	ldrex	r2, [r3]
	sub	r1, r2, #1
	strex	ip, r1, [r3]
	cmp	ip, #0
	bne	.L827
	cmp	r2, #1
	mcr	p15, 0, r0, c7, c10, 5
	beq	.L881
.L789:
	mov	r0, r4
	pop	{r4, r5, r6, pc}
.L689:
	ldr	r3, [r6, #28]
	cmp	r3, #1
	sub	r3, r3, #1
	str	r3, [r6, #28]
	bne	.L688
	ldr	r3, [r6]
	mov	r0, r6
	ldr	r3, [r3, #8]
	blx	r3
	mcr	p15, 0, r0, c7, c10, 5
	ldr	r2, [r6, #32]
	sub	r3, r2, #1
	str	r3, [r6, #32]
	b	.L765
.L695:
	ldr	r3, [r6, #28]
	cmp	r3, #1
	sub	r3, r3, #1
	str	r3, [r6, #28]
	bne	.L694
	ldr	r3, [r6]
	mov	r0, r6
	ldr	r3, [r3, #8]
	blx	r3
	mcr	p15, 0, r0, c7, c10, 5
	ldr	r2, [r6, #32]
	sub	r3, r2, #1
	str	r3, [r6, #32]
	b	.L766
.L683:
	ldr	r3, [r6, #28]
	cmp	r3, #1
	sub	r3, r3, #1
	str	r3, [r6, #28]
	bne	.L682
	ldr	r3, [r6]
	mov	r0, r6
	ldr	r3, [r3, #8]
	blx	r3
	mcr	p15, 0, r0, c7, c10, 5
	ldr	r2, [r6, #32]
	sub	r3, r2, #1
	str	r3, [r6, #32]
	b	.L764
.L707:
	ldr	r3, [r6, #28]
	cmp	r3, #1
	sub	r3, r3, #1
	str	r3, [r6, #28]
	bne	.L706
	ldr	r3, [r6]
	mov	r0, r6
	ldr	r3, [r3, #8]
	blx	r3
	mcr	p15, 0, r0, c7, c10, 5
	ldr	r2, [r6, #32]
	sub	r3, r2, #1
	str	r3, [r6, #32]
	b	.L768
.L749:
	ldr	r3, [r6, #28]
	cmp	r3, #1
	sub	r3, r3, #1
	str	r3, [r6, #28]
	bne	.L748
	ldr	r3, [r6]
	mov	r0, r6
	ldr	r3, [r3, #8]
	blx	r3
	mcr	p15, 0, r0, c7, c10, 5
	ldr	r2, [r6, #32]
	sub	r3, r2, #1
	str	r3, [r6, #32]
	b	.L775
.L719:
	ldr	r3, [r6, #28]
	cmp	r3, #1
	sub	r3, r3, #1
	str	r3, [r6, #28]
	bne	.L718
	ldr	r3, [r6]
	mov	r0, r6
	ldr	r3, [r3, #8]
	blx	r3
	mcr	p15, 0, r0, c7, c10, 5
	ldr	r2, [r6, #32]
	sub	r3, r2, #1
	str	r3, [r6, #32]
	b	.L770
.L737:
	ldr	r3, [r6, #28]
	cmp	r3, #1
	sub	r3, r3, #1
	str	r3, [r6, #28]
	bne	.L736
	ldr	r3, [r6]
	mov	r0, r6
	ldr	r3, [r3, #8]
	blx	r3
	mcr	p15, 0, r0, c7, c10, 5
	ldr	r2, [r6, #32]
	sub	r3, r2, #1
	str	r3, [r6, #32]
	b	.L773
.L731:
	ldr	r3, [r6, #28]
	cmp	r3, #1
	sub	r3, r3, #1
	str	r3, [r6, #28]
	bne	.L730
	ldr	r3, [r6]
	mov	r0, r6
	ldr	r3, [r3, #8]
	blx	r3
	mcr	p15, 0, r0, c7, c10, 5
	ldr	r2, [r6, #32]
	sub	r3, r2, #1
	str	r3, [r6, #32]
	b	.L772
.L761:
	ldr	r2, [r0, #32]
	sub	r3, r2, #1
	cmp	r2, #1
	str	r3, [r0, #32]
	bne	.L789
.L881:
	mcr	p15, 0, r0, c7, c10, 5
	ldr	r3, [r0]
	ldr	r3, [r3, #12]
	blx	r3
	mov	r0, r4
	pop	{r4, r5, r6, pc}
.L755:
	ldr	r3, [r6, #28]
	cmp	r3, #1
	sub	r3, r3, #1
	str	r3, [r6, #28]
	bne	.L754
	ldr	r3, [r6]
	mov	r0, r6
	ldr	r3, [r3, #8]
	blx	r3
	mcr	p15, 0, r0, c7, c10, 5
	ldr	r2, [r6, #32]
	sub	r3, r2, #1
	str	r3, [r6, #32]
	b	.L776
.L725:
	ldr	r3, [r6, #28]
	cmp	r3, #1
	sub	r3, r3, #1
	str	r3, [r6, #28]
	bne	.L724
	ldr	r3, [r6]
	mov	r0, r6
	ldr	r3, [r3, #8]
	blx	r3
	mcr	p15, 0, r0, c7, c10, 5
	ldr	r2, [r6, #32]
	sub	r3, r2, #1
	str	r3, [r6, #32]
	b	.L771
.L713:
	ldr	r3, [r6, #28]
	cmp	r3, #1
	sub	r3, r3, #1
	str	r3, [r6, #28]
	bne	.L712
	ldr	r3, [r6]
	mov	r0, r6
	ldr	r3, [r3, #8]
	blx	r3
	mcr	p15, 0, r0, c7, c10, 5
	ldr	r2, [r6, #32]
	sub	r3, r2, #1
	str	r3, [r6, #32]
	b	.L769
.L701:
	ldr	r3, [r6, #28]
	cmp	r3, #1
	sub	r3, r3, #1
	str	r3, [r6, #28]
	bne	.L700
	ldr	r3, [r6]
	mov	r0, r6
	ldr	r3, [r3, #8]
	blx	r3
	mcr	p15, 0, r0, c7, c10, 5
	ldr	r2, [r6, #32]
	sub	r3, r2, #1
	str	r3, [r6, #32]
	b	.L767
.L743:
	ldr	r3, [r6, #28]
	cmp	r3, #1
	sub	r3, r3, #1
	str	r3, [r6, #28]
	bne	.L742
	ldr	r3, [r6]
	mov	r0, r6
	ldr	r3, [r3, #8]
	blx	r3
	mcr	p15, 0, r0, c7, c10, 5
	ldr	r2, [r6, #32]
	sub	r3, r2, #1
	str	r3, [r6, #32]
	b	.L774
.L871:
	ldr	r3, [r6]
	mov	r0, r6
	ldr	r3, [r3, #8]
	blx	r3
	add	r3, r6, #32
	mcr	p15, 0, r0, c7, c10, 5
	mcr	p15, 0, r0, c7, c10, 5
.L823:
	ldrex	r2, [r3]
	sub	r1, r2, #1
	strex	r0, r1, [r3]
	cmp	r0, #0
	bne	.L823
	mcr	p15, 0, r0, c7, c10, 5
.L767:
	cmp	r2, #1
	bne	.L700
	ldr	r3, [r6]
	mov	r0, r6
	ldr	r3, [r3, #12]
	blx	r3
	b	.L700
.L873:
	ldr	r3, [r6]
	mov	r0, r6
	ldr	r3, [r3, #8]
	blx	r3
	add	r3, r6, #32
	mcr	p15, 0, r0, c7, c10, 5
	mcr	p15, 0, r0, c7, c10, 5
.L821:
	ldrex	r2, [r3]
	sub	r1, r2, #1
	strex	r0, r1, [r3]
	cmp	r0, #0
	bne	.L821
	mcr	p15, 0, r0, c7, c10, 5
.L769:
	cmp	r2, #1
	bne	.L712
	ldr	r3, [r6]
	mov	r0, r6
	ldr	r3, [r3, #12]
	blx	r3
	b	.L712
.L875:
	ldr	r3, [r6]
	mov	r0, r6
	ldr	r3, [r3, #8]
	blx	r3
	add	r3, r6, #32
	mcr	p15, 0, r0, c7, c10, 5
	mcr	p15, 0, r0, c7, c10, 5
.L819:
	ldrex	r2, [r3]
	sub	r1, r2, #1
	strex	r0, r1, [r3]
	cmp	r0, #0
	bne	.L819
	mcr	p15, 0, r0, c7, c10, 5
.L771:
	cmp	r2, #1
	bne	.L724
	ldr	r3, [r6]
	mov	r0, r6
	ldr	r3, [r3, #12]
	blx	r3
	b	.L724
.L880:
	ldr	r3, [r6]
	mov	r0, r6
	ldr	r3, [r3, #8]
	blx	r3
	add	r3, r6, #32
	mcr	p15, 0, r0, c7, c10, 5
	mcr	p15, 0, r0, c7, c10, 5
.L814:
	ldrex	r2, [r3]
	sub	r1, r2, #1
	strex	r0, r1, [r3]
	cmp	r0, #0
	bne	.L814
	mcr	p15, 0, r0, c7, c10, 5
.L776:
	cmp	r2, #1
	bne	.L754
	ldr	r3, [r6]
	mov	r0, r6
	ldr	r3, [r3, #12]
	blx	r3
	b	.L754
.L878:
	ldr	r3, [r6]
	mov	r0, r6
	ldr	r3, [r3, #8]
	blx	r3
	add	r3, r6, #32
	mcr	p15, 0, r0, c7, c10, 5
	mcr	p15, 0, r0, c7, c10, 5
.L816:
	ldrex	r2, [r3]
	sub	r1, r2, #1
	strex	r0, r1, [r3]
	cmp	r0, #0
	bne	.L816
	mcr	p15, 0, r0, c7, c10, 5
.L774:
	cmp	r2, #1
	bne	.L742
	ldr	r3, [r6]
	mov	r0, r6
	ldr	r3, [r3, #12]
	blx	r3
	b	.L742
.L868:
	ldr	r3, [r6]
	mov	r0, r6
	ldr	r3, [r3, #8]
	blx	r3
	add	r3, r6, #32
	mcr	p15, 0, r0, c7, c10, 5
	mcr	p15, 0, r0, c7, c10, 5
.L826:
	ldrex	r2, [r3]
	sub	r1, r2, #1
	strex	r0, r1, [r3]
	cmp	r0, #0
	bne	.L826
	mcr	p15, 0, r0, c7, c10, 5
.L764:
	cmp	r2, #1
	bne	.L682
	ldr	r3, [r6]
	mov	r0, r6
	ldr	r3, [r3, #12]
	blx	r3
	b	.L682
.L869:
	ldr	r3, [r6]
	mov	r0, r6
	ldr	r3, [r3, #8]
	blx	r3
	add	r3, r6, #32
	mcr	p15, 0, r0, c7, c10, 5
	mcr	p15, 0, r0, c7, c10, 5
.L825:
	ldrex	r2, [r3]
	sub	r1, r2, #1
	strex	r0, r1, [r3]
	cmp	r0, #0
	bne	.L825
	mcr	p15, 0, r0, c7, c10, 5
.L765:
	cmp	r2, #1
	bne	.L688
	ldr	r3, [r6]
	mov	r0, r6
	ldr	r3, [r3, #12]
	blx	r3
	b	.L688
.L870:
	ldr	r3, [r6]
	mov	r0, r6
	ldr	r3, [r3, #8]
	blx	r3
	add	r3, r6, #32
	mcr	p15, 0, r0, c7, c10, 5
	mcr	p15, 0, r0, c7, c10, 5
.L824:
	ldrex	r2, [r3]
	sub	r1, r2, #1
	strex	r0, r1, [r3]
	cmp	r0, #0
	bne	.L824
	mcr	p15, 0, r0, c7, c10, 5
.L766:
	cmp	r2, #1
	bne	.L694
	ldr	r3, [r6]
	mov	r0, r6
	ldr	r3, [r3, #12]
	blx	r3
	b	.L694
.L872:
	ldr	r3, [r6]
	mov	r0, r6
	ldr	r3, [r3, #8]
	blx	r3
	add	r3, r6, #32
	mcr	p15, 0, r0, c7, c10, 5
	mcr	p15, 0, r0, c7, c10, 5
.L822:
	ldrex	r2, [r3]
	sub	r1, r2, #1
	strex	r0, r1, [r3]
	cmp	r0, #0
	bne	.L822
	mcr	p15, 0, r0, c7, c10, 5
.L768:
	cmp	r2, #1
	bne	.L706
	ldr	r3, [r6]
	mov	r0, r6
	ldr	r3, [r3, #12]
	blx	r3
	b	.L706
.L874:
	ldr	r3, [r6]
	mov	r0, r6
	ldr	r3, [r3, #8]
	blx	r3
	add	r3, r6, #32
	mcr	p15, 0, r0, c7, c10, 5
	mcr	p15, 0, r0, c7, c10, 5
.L820:
	ldrex	r2, [r3]
	sub	r1, r2, #1
	strex	r0, r1, [r3]
	cmp	r0, #0
	bne	.L820
	mcr	p15, 0, r0, c7, c10, 5
.L770:
	cmp	r2, #1
	bne	.L718
	ldr	r3, [r6]
	mov	r0, r6
	ldr	r3, [r3, #12]
	blx	r3
	b	.L718
.L876:
	ldr	r3, [r6]
	mov	r0, r6
	ldr	r3, [r3, #8]
	blx	r3
	add	r3, r6, #32
	mcr	p15, 0, r0, c7, c10, 5
	mcr	p15, 0, r0, c7, c10, 5
.L818:
	ldrex	r2, [r3]
	sub	r1, r2, #1
	strex	r0, r1, [r3]
	cmp	r0, #0
	bne	.L818
	mcr	p15, 0, r0, c7, c10, 5
.L772:
	cmp	r2, #1
	bne	.L730
	ldr	r3, [r6]
	mov	r0, r6
	ldr	r3, [r3, #12]
	blx	r3
	b	.L730
.L877:
	ldr	r3, [r6]
	mov	r0, r6
	ldr	r3, [r3, #8]
	blx	r3
	add	r3, r6, #32
	mcr	p15, 0, r0, c7, c10, 5
	mcr	p15, 0, r0, c7, c10, 5
.L817:
	ldrex	r2, [r3]
	sub	r1, r2, #1
	strex	r0, r1, [r3]
	cmp	r0, #0
	bne	.L817
	mcr	p15, 0, r0, c7, c10, 5
.L773:
	cmp	r2, #1
	bne	.L736
	ldr	r3, [r6]
	mov	r0, r6
	ldr	r3, [r3, #12]
	blx	r3
	b	.L736
.L879:
	ldr	r3, [r6]
	mov	r0, r6
	ldr	r3, [r3, #8]
	blx	r3
	add	r3, r6, #32
	mcr	p15, 0, r0, c7, c10, 5
	mcr	p15, 0, r0, c7, c10, 5
.L815:
	ldrex	r2, [r3]
	sub	r1, r2, #1
	strex	r0, r1, [r3]
	cmp	r0, #0
	bne	.L815
	mcr	p15, 0, r0, c7, c10, 5
.L775:
	cmp	r2, #1
	bne	.L748
	ldr	r3, [r6]
	mov	r0, r6
	ldr	r3, [r3, #12]
	blx	r3
	b	.L748
.L883:
	.align	2
.L882:
	.word	_GLOBAL_OFFSET_TABLE_-(.LPIC68+8)
	.word	_ZTVN8asiodnp315OutstationStackE(GOT)
	.word	_ZTVN8opendnp38OContextE(GOT)
	.word	_ZTVN7openpal5ArrayIhjEE(GOT)
	.word	_ZTVN8opendnp38DatabaseE(GOT)
	.word	_ZTVN8opendnp315DatabaseBuffersE(GOT)
	.word	_ZTVN7openpal5ArrayIN8opendnp34CellINS1_19TimeAndIntervalSpecEEEtEE(GOT)
	.word	_ZTVN7openpal5ArrayIN8opendnp34CellINS1_22AnalogOutputStatusSpecEEEtEE(GOT)
	.word	_ZTVN7openpal5ArrayIN8opendnp34CellINS1_22BinaryOutputStatusSpecEEEtEE(GOT)
	.word	_ZTVN7openpal5ArrayIN8opendnp34CellINS1_17FrozenCounterSpecEEEtEE(GOT)
	.word	_ZTVN7openpal5ArrayIN8opendnp34CellINS1_11CounterSpecEEEtEE(GOT)
	.word	_ZTVN7openpal5ArrayIN8opendnp34CellINS1_10AnalogSpecEEEtEE(GOT)
	.word	_ZTVN7openpal5ArrayIN8opendnp34CellINS1_19DoubleBitBinarySpecEEEtEE(GOT)
	.word	_ZTVN7openpal5ArrayIN8opendnp34CellINS1_10BinarySpecEEEtEE(GOT)
	.word	_ZTVN8opendnp311EventBufferE(GOT)
	.word	_ZTVN7openpal5ArrayINS_8ListNodeIN8opendnp39SOERecordEEEjEE(GOT)
	.word	_ZL28__gthrw___pthread_key_createPjPFvPvE(GOT)
	.cantunwind
	.fnend
	.size	_ZN8asiodnp315OutstationStackD2Ev, .-_ZN8asiodnp315OutstationStackD2Ev
	.weak	_ZN8asiodnp315OutstationStackD1Ev
	.set	_ZN8asiodnp315OutstationStackD1Ev,_ZN8asiodnp315OutstationStackD2Ev
	.set	.LTHUNK9,_ZN8asiodnp315OutstationStackD1Ev
	.align	2
	.weak	_ZThn4_N8asiodnp315OutstationStackD1Ev
	.syntax unified
	.arm
	.fpu vfp
	.type	_ZThn4_N8asiodnp315OutstationStackD1Ev, %function
_ZThn4_N8asiodnp315OutstationStackD1Ev:
	.fnstart
.LFB11795:
	@ args = 0, pretend = 0, frame = 0
	@ frame_needed = 0, uses_anonymous_args = 0
	sub	r0, r0, #4
	b	.LTHUNK9(PLT)
	.cantunwind
	.fnend
	.size	_ZThn4_N8asiodnp315OutstationStackD1Ev, .-_ZThn4_N8asiodnp315OutstationStackD1Ev
	.set	.LTHUNK8,_ZN8asiodnp315OutstationStackD1Ev
	.align	2
	.weak	_ZThn8_N8asiodnp315OutstationStackD1Ev
	.syntax unified
	.arm
	.fpu vfp
	.type	_ZThn8_N8asiodnp315OutstationStackD1Ev, %function
_ZThn8_N8asiodnp315OutstationStackD1Ev:
	.fnstart
.LFB11796:
	@ args = 0, pretend = 0, frame = 0
	@ frame_needed = 0, uses_anonymous_args = 0
	sub	r0, r0, #8
	b	.LTHUNK8(PLT)
	.cantunwind
	.fnend
	.size	_ZThn8_N8asiodnp315OutstationStackD1Ev, .-_ZThn8_N8asiodnp315OutstationStackD1Ev
	.section	.text._ZN4asio6detail18completion_handlerIZN7asiopal8Executor10ReturnFromIN8opendnp315StackStatisticsEEET_RKSt8functionIFS7_vEEEUlvE_E11do_completeEPNS0_15task_io_serviceEPNS0_25task_io_service_operationERKSt10error_codej,"axG",%progbits,_ZN4asio6detail18completion_handlerIZN7asiopal8Executor10ReturnFromIN8opendnp315StackStatisticsEEET_RKSt8functionIFS7_vEEEUlvE_E11do_completeEPNS0_15task_io_serviceEPNS0_25task_io_service_operationERKSt10error_codej,comdat
	.align	2
	.weak	_ZN4asio6detail18completion_handlerIZN7asiopal8Executor10ReturnFromIN8opendnp315StackStatisticsEEET_RKSt8functionIFS7_vEEEUlvE_E11do_completeEPNS0_15task_io_serviceEPNS0_25task_io_service_operationERKSt10error_codej
	.syntax unified
	.arm
	.fpu vfp
	.type	_ZN4asio6detail18completion_handlerIZN7asiopal8Executor10ReturnFromIN8opendnp315StackStatisticsEEET_RKSt8functionIFS7_vEEEUlvE_E11do_completeEPNS0_15task_io_serviceEPNS0_25task_io_service_operationERKSt10error_codej, %function
_ZN4asio6detail18completion_handlerIZN7asiopal8Executor10ReturnFromIN8opendnp315StackStatisticsEEET_RKSt8functionIFS7_vEEEUlvE_E11do_completeEPNS0_15task_io_serviceEPNS0_25task_io_service_operationERKSt10error_codej:
	.fnstart
.LFB10764:
	@ args = 0, pretend = 0, frame = 104
	@ frame_needed = 0, uses_anonymous_args = 0
	push	{r4, r5, r6, r7, r8, lr}
	.save {r4, r5, r6, r7, r8, lr}
	mov	r8, r0
	ldr	r4, .L920
	ldr	r3, .L920+4
.LPIC69:
	add	r4, pc, r4
	.pad #104
	sub	sp, sp, #104
	ldr	r3, [r4, r3]
	mov	r5, r1
	ldr	r7, [r1, #12]
	ldr	r0, [r3]
	ldr	r6, [r1, #16]
	bl	pthread_getspecific(PLT)
	cmp	r0, #0
	beq	.L885
	ldr	r3, [r0, #4]
	cmp	r3, #0
	beq	.L885
	ldr	r2, [r3]
	cmp	r2, #0
	beq	.L917
.L885:
	mov	r0, r5
	bl	_ZdlPv(PLT)
.L886:
	cmp	r8, #0
	beq	.L884
	add	r3, sp, #104
	mov	r2, #0
	str	r2, [r3, #-96]!
	mov	r2, #1
.L915:
	ldrex	r1, [r3]
	strex	r0, r2, [r3]
	cmp	r0, #0
	bne	.L915
	mcr	p15, 0, r0, c7, c10, 5
	ldr	r3, [r6, #8]
	cmp	r3, #0
	beq	.L918
	add	r8, sp, #64
	mov	r0, r8
	ldr	r3, [r6, #12]
	mov	r1, r6
.LEHB2:
	blx	r3
.LEHE2:
	ldr	r3, .L920+8
	ldr	r2, .L920+12
	ldr	r5, [r7]
	str	r7, [sp, #32]
	str	r8, [sp, #36]
	ldr	r1, [r4, r3]
	ldr	r3, .L920+16
	str	r1, [sp, #44]
	ldr	r1, [r4, r2]
	mov	r2, #0
	str	r1, [sp, #40]
	strb	r2, [sp, #7]
	ldr	r3, [r4, r3]
	ldr	r0, .L920+20
	str	r3, [sp, #24]
	add	r3, sp, #7
	str	r3, [sp, #12]
	add	r3, sp, #24
	str	r3, [sp, #48]
	add	r3, sp, #20
	str	r3, [sp, #52]
	add	r3, sp, #16
	str	r3, [sp, #56]
.LPIC70:
	add	r0, pc, r0
	add	r3, sp, #12
	add	r6, sp, #32
	str	r2, [sp, #28]
	str	r3, [sp, #60]
	str	r5, [sp, #20]
	str	r6, [sp, #16]
	bl	__tls_get_addr(PLT)
	ldr	r3, .L920+24
	add	r2, sp, #48
	str	r2, [r0]
.LPIC71:
	add	r0, pc, r3
	bl	__tls_get_addr(PLT)
	ldr	r2, .L920+28
	ldr	r3, .L920+32
	ldr	r2, [r4, r2]
	str	r2, [r0]
	ldr	r3, [r4, r3]
	cmp	r3, #0
	beq	.L899
	ldr	r3, .L920+36
	add	r0, r5, #16
	ldr	r1, [r4, r3]
.LEHB3:
	bl	_ZL20__gthrw_pthread_oncePiPFvvE(PLT)
	cmp	r0, #0
	bne	.L889
	ldrb	r3, [sp, #7]	@ zero_extendqisi2
	cmp	r3, #0
	bne	.L919
	mov	r0, #2
	bl	_ZSt20__throw_future_errori(PLT)
.LEHE3:
.L919:
	add	r0, r5, #8
	mov	r2, #1
	mcr	p15, 0, r0, c7, c10, 5
.L914:
	ldrex	r3, [r0]
	strex	r1, r2, [r0]
	cmp	r1, #0
	bne	.L914
	cmp	r3, #0
	blt	.L892
.L895:
	ldr	r3, [sp, #40]
	cmp	r3, #0
	beq	.L894
	mov	r2, #3
	mov	r1, r6
	mov	r0, r6
	blx	r3
.L894:
	mov	r3, #0
	mcr	p15, 0, r0, c7, c10, 5
	str	r3, [sp, #8]
.L884:
	add	sp, sp, #104
	@ sp needed
	pop	{r4, r5, r6, r7, r8, pc}
.L899:
	mvn	r0, #0
.L889:
.LEHB4:
	bl	_ZSt20__throw_system_errori(PLT)
.LEHE4:
.L917:
	ldrb	r2, [r5, #20]	@ zero_extendqisi2
	strb	r2, [r5]
	str	r5, [r3]
	b	.L886
.L901:
	ldr	r3, [sp, #40]
	cmp	r3, #0
	beq	.L898
	mov	r2, #3
	mov	r1, r6
	mov	r0, r6
	blx	r3
.L898:
	mov	r3, #0
	mcr	p15, 0, r0, c7, c10, 5
	str	r3, [sp, #8]
.LEHB5:
	bl	__cxa_end_cleanup(PLT)
.LEHE5:
.L892:
.LEHB6:
	bl	_ZNSt28__atomic_futex_unsigned_base19_M_futex_notify_allEPj(PLT)
.LEHE6:
	b	.L895
.L918:
.LEHB7:
	bl	_ZSt25__throw_bad_function_callv(PLT)
.LEHE7:
.L900:
	b	.L898
.L921:
	.align	2
.L920:
	.word	_GLOBAL_OFFSET_TABLE_-(.LPIC69+8)
	.word	_ZN4asio6detail10call_stackINS0_15task_io_serviceENS0_27task_io_service_thread_infoEE4top_E(GOT)
	.word	_ZNSt17_Function_handlerIFSt10unique_ptrINSt13__future_base12_Result_baseENS2_8_DeleterEEvENS1_13_State_baseV27_SetterIN8opendnp315StackStatisticsEOS9_EEE9_M_invokeERKSt9_Any_data(GOT)
	.word	_ZNSt14_Function_base13_Base_managerINSt13__future_base13_State_baseV27_SetterIN8opendnp315StackStatisticsEOS5_EEE10_M_managerERSt9_Any_dataRKS9_St18_Manager_operation(GOT)
	.word	_ZNSt13__future_base13_State_baseV29_M_do_setEPSt8functionIFSt10unique_ptrINS_12_Result_baseENS3_8_DeleterEEvEEPb(GOT)
	.word	_ZSt15__once_callable(tlsgd) + (. - .LPIC70 - 8)
	.word	_ZSt11__once_call(tlsgd) + (. - .LPIC71 - 8)
	.word	_ZZSt9call_onceIMNSt13__future_base13_State_baseV2EFvPSt8functionIFSt10unique_ptrINS0_12_Result_baseENS4_8_DeleterEEvEEPbEJPS1_S9_SA_EEvRSt9once_flagOT_DpOT0_ENUlvE0_4_FUNEv(GOT)
	.word	_ZL28__gthrw___pthread_key_createPjPFvPvE(GOT)
	.word	__once_proxy(GOT)
	.personality	__gxx_personality_v0
	.handlerdata
.LLSDA10764:
	.byte	0xff
	.byte	0xff
	.byte	0x1
	.uleb128 .LLSDACSE10764-.LLSDACSB10764
.LLSDACSB10764:
	.uleb128 .LEHB2-.LFB10764
	.uleb128 .LEHE2-.LEHB2
	.uleb128 .L900-.LFB10764
	.uleb128 0
	.uleb128 .LEHB3-.LFB10764
	.uleb128 .LEHE3-.LEHB3
	.uleb128 .L901-.LFB10764
	.uleb128 0
	.uleb128 .LEHB4-.LFB10764
	.uleb128 .LEHE4-.LEHB4
	.uleb128 .L901-.LFB10764
	.uleb128 0
	.uleb128 .LEHB5-.LFB10764
	.uleb128 .LEHE5-.LEHB5
	.uleb128 0
	.uleb128 0
	.uleb128 .LEHB6-.LFB10764
	.uleb128 .LEHE6-.LEHB6
	.uleb128 .L901-.LFB10764
	.uleb128 0
	.uleb128 .LEHB7-.LFB10764
	.uleb128 .LEHE7-.LEHB7
	.uleb128 .L900-.LFB10764
	.uleb128 0
.LLSDACSE10764:
	.section	.text._ZN4asio6detail18completion_handlerIZN7asiopal8Executor10ReturnFromIN8opendnp315StackStatisticsEEET_RKSt8functionIFS7_vEEEUlvE_E11do_completeEPNS0_15task_io_serviceEPNS0_25task_io_service_operationERKSt10error_codej,"axG",%progbits,_ZN4asio6detail18completion_handlerIZN7asiopal8Executor10ReturnFromIN8opendnp315StackStatisticsEEET_RKSt8functionIFS7_vEEEUlvE_E11do_completeEPNS0_15task_io_serviceEPNS0_25task_io_service_operationERKSt10error_codej,comdat
	.fnend
	.size	_ZN4asio6detail18completion_handlerIZN7asiopal8Executor10ReturnFromIN8opendnp315StackStatisticsEEET_RKSt8functionIFS7_vEEEUlvE_E11do_completeEPNS0_15task_io_serviceEPNS0_25task_io_service_operationERKSt10error_codej, .-_ZN4asio6detail18completion_handlerIZN7asiopal8Executor10ReturnFromIN8opendnp315StackStatisticsEEET_RKSt8functionIFS7_vEEEUlvE_E11do_completeEPNS0_15task_io_serviceEPNS0_25task_io_service_operationERKSt10error_codej
	.section	.text._ZN4asio6detail18completion_handlerIZN7asiopal8Executor10ReturnFromIbEET_RKSt8functionIFS5_vEEEUlvE_E11do_completeEPNS0_15task_io_serviceEPNS0_25task_io_service_operationERKSt10error_codej,"axG",%progbits,_ZN4asio6detail18completion_handlerIZN7asiopal8Executor10ReturnFromIbEET_RKSt8functionIFS5_vEEEUlvE_E11do_completeEPNS0_15task_io_serviceEPNS0_25task_io_service_operationERKSt10error_codej,comdat
	.align	2
	.weak	_ZN4asio6detail18completion_handlerIZN7asiopal8Executor10ReturnFromIbEET_RKSt8functionIFS5_vEEEUlvE_E11do_completeEPNS0_15task_io_serviceEPNS0_25task_io_service_operationERKSt10error_codej
	.syntax unified
	.arm
	.fpu vfp
	.type	_ZN4asio6detail18completion_handlerIZN7asiopal8Executor10ReturnFromIbEET_RKSt8functionIFS5_vEEEUlvE_E11do_completeEPNS0_15task_io_serviceEPNS0_25task_io_service_operationERKSt10error_codej, %function
_ZN4asio6detail18completion_handlerIZN7asiopal8Executor10ReturnFromIbEET_RKSt8functionIFS5_vEEEUlvE_E11do_completeEPNS0_15task_io_serviceEPNS0_25task_io_service_operationERKSt10error_codej:
	.fnstart
.LFB10737:
	@ args = 0, pretend = 0, frame = 64
	@ frame_needed = 0, uses_anonymous_args = 0
	push	{r4, r5, r6, r7, r8, lr}
	.save {r4, r5, r6, r7, r8, lr}
	mov	r8, r0
	ldr	r4, .L958
	ldr	r3, .L958+4
.LPIC72:
	add	r4, pc, r4
	.pad #64
	sub	sp, sp, #64
	ldr	r3, [r4, r3]
	mov	r5, r1
	ldr	r7, [r1, #12]
	ldr	r0, [r3]
	ldr	r6, [r1, #16]
	bl	pthread_getspecific(PLT)
	cmp	r0, #0
	beq	.L923
	ldr	r3, [r0, #4]
	cmp	r3, #0
	beq	.L923
	ldr	r2, [r3]
	cmp	r2, #0
	beq	.L955
.L923:
	mov	r0, r5
	bl	_ZdlPv(PLT)
.L924:
	cmp	r8, #0
	beq	.L922
	add	r3, sp, #64
	mov	r2, #0
	str	r2, [r3, #-56]!
	mov	r2, #1
.L953:
	ldrex	r1, [r3]
	strex	r0, r2, [r3]
	cmp	r0, #0
	bne	.L953
	mcr	p15, 0, r0, c7, c10, 5
	ldr	r3, [r6, #8]
	cmp	r3, #0
	beq	.L956
	ldr	r3, [r6, #12]
	mov	r0, r6
.LEHB8:
	blx	r3
.LEHE8:
	ldr	r3, .L958+8
	ldr	r2, .L958+12
	add	r1, sp, #6
	ldr	r5, [r7]
	strb	r0, [sp, #6]
	str	r1, [sp, #36]
	str	r7, [sp, #32]
	ldr	r1, [r4, r3]
	ldr	r3, .L958+16
	str	r1, [sp, #44]
	ldr	r1, [r4, r2]
	mov	r2, #0
	str	r1, [sp, #40]
	strb	r2, [sp, #7]
	ldr	r3, [r4, r3]
	ldr	r0, .L958+20
	str	r3, [sp, #24]
	add	r3, sp, #7
	str	r3, [sp, #12]
	add	r3, sp, #24
	str	r3, [sp, #48]
	add	r3, sp, #20
	str	r3, [sp, #52]
	add	r3, sp, #16
	str	r3, [sp, #56]
.LPIC73:
	add	r0, pc, r0
	add	r3, sp, #12
	add	r6, sp, #32
	str	r2, [sp, #28]
	str	r3, [sp, #60]
	str	r5, [sp, #20]
	str	r6, [sp, #16]
	bl	__tls_get_addr(PLT)
	ldr	r3, .L958+24
	add	r2, sp, #48
	str	r2, [r0]
.LPIC74:
	add	r0, pc, r3
	bl	__tls_get_addr(PLT)
	ldr	r2, .L958+28
	ldr	r3, .L958+32
	ldr	r2, [r4, r2]
	str	r2, [r0]
	ldr	r3, [r4, r3]
	cmp	r3, #0
	beq	.L937
	ldr	r3, .L958+36
	add	r0, r5, #16
	ldr	r1, [r4, r3]
.LEHB9:
	bl	_ZL20__gthrw_pthread_oncePiPFvvE(PLT)
	cmp	r0, #0
	bne	.L927
	ldrb	r3, [sp, #7]	@ zero_extendqisi2
	cmp	r3, #0
	bne	.L957
	mov	r0, #2
	bl	_ZSt20__throw_future_errori(PLT)
.LEHE9:
.L957:
	add	r0, r5, #8
	mov	r2, #1
	mcr	p15, 0, r0, c7, c10, 5
.L952:
	ldrex	r3, [r0]
	strex	r1, r2, [r0]
	cmp	r1, #0
	bne	.L952
	cmp	r3, #0
	blt	.L930
.L933:
	ldr	r3, [sp, #40]
	cmp	r3, #0
	beq	.L932
	mov	r2, #3
	mov	r1, r6
	mov	r0, r6
	blx	r3
.L932:
	mov	r3, #0
	mcr	p15, 0, r0, c7, c10, 5
	str	r3, [sp, #8]
.L922:
	add	sp, sp, #64
	@ sp needed
	pop	{r4, r5, r6, r7, r8, pc}
.L937:
	mvn	r0, #0
.L927:
.LEHB10:
	bl	_ZSt20__throw_system_errori(PLT)
.LEHE10:
.L955:
	ldrb	r2, [r5, #20]	@ zero_extendqisi2
	strb	r2, [r5]
	str	r5, [r3]
	b	.L924
.L939:
	ldr	r3, [sp, #40]
	cmp	r3, #0
	beq	.L936
	mov	r2, #3
	mov	r1, r6
	mov	r0, r6
	blx	r3
.L936:
	mov	r3, #0
	mcr	p15, 0, r0, c7, c10, 5
	str	r3, [sp, #8]
.LEHB11:
	bl	__cxa_end_cleanup(PLT)
.LEHE11:
.L930:
.LEHB12:
	bl	_ZNSt28__atomic_futex_unsigned_base19_M_futex_notify_allEPj(PLT)
.LEHE12:
	b	.L933
.L956:
.LEHB13:
	bl	_ZSt25__throw_bad_function_callv(PLT)
.LEHE13:
.L938:
	b	.L936
.L959:
	.align	2
.L958:
	.word	_GLOBAL_OFFSET_TABLE_-(.LPIC72+8)
	.word	_ZN4asio6detail10call_stackINS0_15task_io_serviceENS0_27task_io_service_thread_infoEE4top_E(GOT)
	.word	_ZNSt17_Function_handlerIFSt10unique_ptrINSt13__future_base12_Result_baseENS2_8_DeleterEEvENS1_13_State_baseV27_SetterIbObEEE9_M_invokeERKSt9_Any_data(GOT)
	.word	_ZNSt14_Function_base13_Base_managerINSt13__future_base13_State_baseV27_SetterIbObEEE10_M_managerERSt9_Any_dataRKS7_St18_Manager_operation(GOT)
	.word	_ZNSt13__future_base13_State_baseV29_M_do_setEPSt8functionIFSt10unique_ptrINS_12_Result_baseENS3_8_DeleterEEvEEPb(GOT)
	.word	_ZSt15__once_callable(tlsgd) + (. - .LPIC73 - 8)
	.word	_ZSt11__once_call(tlsgd) + (. - .LPIC74 - 8)
	.word	_ZZSt9call_onceIMNSt13__future_base13_State_baseV2EFvPSt8functionIFSt10unique_ptrINS0_12_Result_baseENS4_8_DeleterEEvEEPbEJPS1_S9_SA_EEvRSt9once_flagOT_DpOT0_ENUlvE0_4_FUNEv(GOT)
	.word	_ZL28__gthrw___pthread_key_createPjPFvPvE(GOT)
	.word	__once_proxy(GOT)
	.personality	__gxx_personality_v0
	.handlerdata
.LLSDA10737:
	.byte	0xff
	.byte	0xff
	.byte	0x1
	.uleb128 .LLSDACSE10737-.LLSDACSB10737
.LLSDACSB10737:
	.uleb128 .LEHB8-.LFB10737
	.uleb128 .LEHE8-.LEHB8
	.uleb128 .L938-.LFB10737
	.uleb128 0
	.uleb128 .LEHB9-.LFB10737
	.uleb128 .LEHE9-.LEHB9
	.uleb128 .L939-.LFB10737
	.uleb128 0
	.uleb128 .LEHB10-.LFB10737
	.uleb128 .LEHE10-.LEHB10
	.uleb128 .L939-.LFB10737
	.uleb128 0
	.uleb128 .LEHB11-.LFB10737
	.uleb128 .LEHE11-.LEHB11
	.uleb128 0
	.uleb128 0
	.uleb128 .LEHB12-.LFB10737
	.uleb128 .LEHE12-.LEHB12
	.uleb128 .L939-.LFB10737
	.uleb128 0
	.uleb128 .LEHB13-.LFB10737
	.uleb128 .LEHE13-.LEHB13
	.uleb128 .L938-.LFB10737
	.uleb128 0
.LLSDACSE10737:
	.section	.text._ZN4asio6detail18completion_handlerIZN7asiopal8Executor10ReturnFromIbEET_RKSt8functionIFS5_vEEEUlvE_E11do_completeEPNS0_15task_io_serviceEPNS0_25task_io_service_operationERKSt10error_codej,"axG",%progbits,_ZN4asio6detail18completion_handlerIZN7asiopal8Executor10ReturnFromIbEET_RKSt8functionIFS5_vEEEUlvE_E11do_completeEPNS0_15task_io_serviceEPNS0_25task_io_service_operationERKSt10error_codej,comdat
	.fnend
	.size	_ZN4asio6detail18completion_handlerIZN7asiopal8Executor10ReturnFromIbEET_RKSt8functionIFS5_vEEEUlvE_E11do_completeEPNS0_15task_io_serviceEPNS0_25task_io_service_operationERKSt10error_codej, .-_ZN4asio6detail18completion_handlerIZN7asiopal8Executor10ReturnFromIbEET_RKSt8functionIFS5_vEEEUlvE_E11do_completeEPNS0_15task_io_serviceEPNS0_25task_io_service_operationERKSt10error_codej
	.text
	.align	2
	.syntax unified
	.arm
	.fpu vfp
	.type	_ZNSt14_Function_base13_Base_managerIZN8asiodnp315OutstationStack7DisableEvEUlvE_E10_M_managerERSt9_Any_dataRKS5_St18_Manager_operation, %function
_ZNSt14_Function_base13_Base_managerIZN8asiodnp315OutstationStack7DisableEvEUlvE_E10_M_managerERSt9_Any_dataRKS5_St18_Manager_operation:
	.fnstart
.LFB9842:
	@ args = 0, pretend = 0, frame = 0
	@ frame_needed = 0, uses_anonymous_args = 0
	push	{r4, r5, r6, lr}
	.save {r4, r5, r6, lr}
	mov	r5, r0
	ldr	r4, .L990
.LPIC76:
	add	r4, pc, r4
	cmp	r2, #3
	addls	pc, pc, r2, asl #2
	b	.L980
.L963:
	b	.L962
	b	.L964
	b	.L965
	b	.L966
	.p2align 1
.L966:
	ldr	r5, [r0]
	cmp	r5, #0
	beq	.L980
	ldr	r6, [r5, #4]
	cmp	r6, #0
	beq	.L970
	ldr	r3, .L990+4
	ldr	r3, [r4, r3]
	cmp	r3, #0
	beq	.L971
	add	r3, r6, #28
	mcr	p15, 0, r0, c7, c10, 5
.L984:
	ldrex	r2, [r3]
	sub	r1, r2, #1
	strex	r0, r1, [r3]
	cmp	r0, #0
	bne	.L984
	cmp	r2, #1
	mcr	p15, 0, r0, c7, c10, 5
	beq	.L989
.L970:
	mov	r0, r5
	mov	r1, #8
	bl	_ZdlPvj(PLT)
.L980:
	mov	r0, #0
	pop	{r4, r5, r6, pc}
.L965:
	mov	r0, #8
	ldr	r6, [r1]
	bl	_Znwj(PLT)
	ldm	r6, {r2, r3}
	cmp	r3, #0
	stm	r0, {r2, r3}
	beq	.L967
	ldr	r2, .L990+4
	ldr	r2, [r4, r2]
	cmp	r2, #0
	beq	.L968
	add	r3, r3, #28
	mcr	p15, 0, r0, c7, c10, 5
.L985:
	ldrex	r2, [r3]
	add	r2, r2, #1
	strex	r1, r2, [r3]
	cmp	r1, #0
	bne	.L985
	mcr	p15, 0, r0, c7, c10, 5
.L967:
	str	r0, [r5]
	mov	r0, #0
	pop	{r4, r5, r6, pc}
.L964:
	ldr	r3, [r1]
	str	r3, [r0]
	mov	r0, #0
	pop	{r4, r5, r6, pc}
.L962:
	ldr	r3, .L990+8
.LPIC75:
	add	r3, pc, r3
	str	r3, [r0]
	mov	r0, #0
	pop	{r4, r5, r6, pc}
.L968:
	ldr	r2, [r3, #28]
	add	r2, r2, #1
	str	r2, [r3, #28]
	b	.L967
.L971:
	ldr	r3, [r6, #28]
	cmp	r3, #1
	sub	r3, r3, #1
	str	r3, [r6, #28]
	bne	.L970
	ldr	r3, [r6]
	mov	r0, r6
	ldr	r3, [r3, #8]
	blx	r3
	mcr	p15, 0, r0, c7, c10, 5
	ldr	r2, [r6, #32]
	sub	r3, r2, #1
	str	r3, [r6, #32]
.L975:
	cmp	r2, #1
	bne	.L970
	ldr	r3, [r6]
	mov	r0, r6
	ldr	r3, [r3, #12]
	blx	r3
	b	.L970
.L989:
	ldr	r3, [r6]
	mov	r0, r6
	ldr	r3, [r3, #8]
	blx	r3
	add	r3, r6, #32
	mcr	p15, 0, r0, c7, c10, 5
	mcr	p15, 0, r0, c7, c10, 5
.L983:
	ldrex	r2, [r3]
	sub	r1, r2, #1
	strex	r0, r1, [r3]
	cmp	r0, #0
	bne	.L983
	mcr	p15, 0, r0, c7, c10, 5
	b	.L975
.L991:
	.align	2
.L990:
	.word	_GLOBAL_OFFSET_TABLE_-(.LPIC76+8)
	.word	_ZL28__gthrw___pthread_key_createPjPFvPvE(GOT)
	.word	.LANCHOR0-(.LPIC75+8)
	.fnend
	.size	_ZNSt14_Function_base13_Base_managerIZN8asiodnp315OutstationStack7DisableEvEUlvE_E10_M_managerERSt9_Any_dataRKS5_St18_Manager_operation, .-_ZNSt14_Function_base13_Base_managerIZN8asiodnp315OutstationStack7DisableEvEUlvE_E10_M_managerERSt9_Any_dataRKS5_St18_Manager_operation
	.align	2
	.syntax unified
	.arm
	.fpu vfp
	.type	_ZNSt14_Function_base13_Base_managerIZN8asiodnp315OutstationStack18GetStackStatisticsEvEUlvE_E10_M_managerERSt9_Any_dataRKS5_St18_Manager_operation, %function
_ZNSt14_Function_base13_Base_managerIZN8asiodnp315OutstationStack18GetStackStatisticsEvEUlvE_E10_M_managerERSt9_Any_dataRKS5_St18_Manager_operation:
	.fnstart
.LFB9861:
	@ args = 0, pretend = 0, frame = 0
	@ frame_needed = 0, uses_anonymous_args = 0
	push	{r4, r5, r6, lr}
	.save {r4, r5, r6, lr}
	mov	r5, r0
	ldr	r4, .L1022
.LPIC78:
	add	r4, pc, r4
	cmp	r2, #3
	addls	pc, pc, r2, asl #2
	b	.L1012
.L995:
	b	.L994
	b	.L996
	b	.L997
	b	.L998
	.p2align 1
.L998:
	ldr	r5, [r0]
	cmp	r5, #0
	beq	.L1012
	ldr	r6, [r5, #4]
	cmp	r6, #0
	beq	.L1002
	ldr	r3, .L1022+4
	ldr	r3, [r4, r3]
	cmp	r3, #0
	beq	.L1003
	add	r3, r6, #28
	mcr	p15, 0, r0, c7, c10, 5
.L1016:
	ldrex	r2, [r3]
	sub	r1, r2, #1
	strex	r0, r1, [r3]
	cmp	r0, #0
	bne	.L1016
	cmp	r2, #1
	mcr	p15, 0, r0, c7, c10, 5
	beq	.L1021
.L1002:
	mov	r0, r5
	mov	r1, #8
	bl	_ZdlPvj(PLT)
.L1012:
	mov	r0, #0
	pop	{r4, r5, r6, pc}
.L997:
	mov	r0, #8
	ldr	r6, [r1]
	bl	_Znwj(PLT)
	ldm	r6, {r2, r3}
	cmp	r3, #0
	stm	r0, {r2, r3}
	beq	.L999
	ldr	r2, .L1022+4
	ldr	r2, [r4, r2]
	cmp	r2, #0
	beq	.L1000
	add	r3, r3, #28
	mcr	p15, 0, r0, c7, c10, 5
.L1017:
	ldrex	r2, [r3]
	add	r2, r2, #1
	strex	r1, r2, [r3]
	cmp	r1, #0
	bne	.L1017
	mcr	p15, 0, r0, c7, c10, 5
.L999:
	str	r0, [r5]
	mov	r0, #0
	pop	{r4, r5, r6, pc}
.L996:
	ldr	r3, [r1]
	str	r3, [r0]
	mov	r0, #0
	pop	{r4, r5, r6, pc}
.L994:
	ldr	r3, .L1022+8
.LPIC77:
	add	r3, pc, r3
	add	r3, r3, #8
	str	r3, [r0]
	mov	r0, #0
	pop	{r4, r5, r6, pc}
.L1000:
	ldr	r2, [r3, #28]
	add	r2, r2, #1
	str	r2, [r3, #28]
	b	.L999
.L1003:
	ldr	r3, [r6, #28]
	cmp	r3, #1
	sub	r3, r3, #1
	str	r3, [r6, #28]
	bne	.L1002
	ldr	r3, [r6]
	mov	r0, r6
	ldr	r3, [r3, #8]
	blx	r3
	mcr	p15, 0, r0, c7, c10, 5
	ldr	r2, [r6, #32]
	sub	r3, r2, #1
	str	r3, [r6, #32]
.L1007:
	cmp	r2, #1
	bne	.L1002
	ldr	r3, [r6]
	mov	r0, r6
	ldr	r3, [r3, #12]
	blx	r3
	b	.L1002
.L1021:
	ldr	r3, [r6]
	mov	r0, r6
	ldr	r3, [r3, #8]
	blx	r3
	add	r3, r6, #32
	mcr	p15, 0, r0, c7, c10, 5
	mcr	p15, 0, r0, c7, c10, 5
.L1015:
	ldrex	r2, [r3]
	sub	r1, r2, #1
	strex	r0, r1, [r3]
	cmp	r0, #0
	bne	.L1015
	mcr	p15, 0, r0, c7, c10, 5
	b	.L1007
.L1023:
	.align	2
.L1022:
	.word	_GLOBAL_OFFSET_TABLE_-(.LPIC78+8)
	.word	_ZL28__gthrw___pthread_key_createPjPFvPvE(GOT)
	.word	.LANCHOR0-(.LPIC77+8)
	.fnend
	.size	_ZNSt14_Function_base13_Base_managerIZN8asiodnp315OutstationStack18GetStackStatisticsEvEUlvE_E10_M_managerERSt9_Any_dataRKS5_St18_Manager_operation, .-_ZNSt14_Function_base13_Base_managerIZN8asiodnp315OutstationStack18GetStackStatisticsEvEUlvE_E10_M_managerERSt9_Any_dataRKS5_St18_Manager_operation
	.section	.text._ZNSt14_Function_base13_Base_managerIZN8asiodnp39StackBase15PerformShutdownINS1_15OutstationStackEEEvRKSt10shared_ptrIT_EEUlvE_E10_M_managerERSt9_Any_dataRKSC_St18_Manager_operation,"axG",%progbits,_ZNSt14_Function_base13_Base_managerIZN8asiodnp39StackBase15PerformShutdownINS1_15OutstationStackEEEvRKSt10shared_ptrIT_EEUlvE_E10_M_managerERSt9_Any_dataRKSC_St18_Manager_operation,comdat
	.align	2
	.weak	_ZNSt14_Function_base13_Base_managerIZN8asiodnp39StackBase15PerformShutdownINS1_15OutstationStackEEEvRKSt10shared_ptrIT_EEUlvE_E10_M_managerERSt9_Any_dataRKSC_St18_Manager_operation
	.syntax unified
	.arm
	.fpu vfp
	.type	_ZNSt14_Function_base13_Base_managerIZN8asiodnp39StackBase15PerformShutdownINS1_15OutstationStackEEEvRKSt10shared_ptrIT_EEUlvE_E10_M_managerERSt9_Any_dataRKSC_St18_Manager_operation, %function
_ZNSt14_Function_base13_Base_managerIZN8asiodnp39StackBase15PerformShutdownINS1_15OutstationStackEEEvRKSt10shared_ptrIT_EEUlvE_E10_M_managerERSt9_Any_dataRKSC_St18_Manager_operation:
	.fnstart
.LFB10234:
	@ args = 0, pretend = 0, frame = 0
	@ frame_needed = 0, uses_anonymous_args = 0
	push	{r4, r5, r6, lr}
	.save {r4, r5, r6, lr}
	mov	r5, r0
	ldr	r4, .L1054
.LPIC79:
	add	r4, pc, r4
	cmp	r2, #3
	addls	pc, pc, r2, asl #2
	b	.L1044
.L1027:
	b	.L1026
	b	.L1028
	b	.L1029
	b	.L1030
	.p2align 1
.L1030:
	ldr	r5, [r0]
	cmp	r5, #0
	beq	.L1044
	ldr	r6, [r5, #4]
	cmp	r6, #0
	beq	.L1034
	ldr	r3, .L1054+4
	ldr	r3, [r4, r3]
	cmp	r3, #0
	beq	.L1035
	add	r3, r6, #28
	mcr	p15, 0, r0, c7, c10, 5
.L1048:
	ldrex	r2, [r3]
	sub	r1, r2, #1
	strex	r0, r1, [r3]
	cmp	r0, #0
	bne	.L1048
	cmp	r2, #1
	mcr	p15, 0, r0, c7, c10, 5
	beq	.L1053
.L1034:
	mov	r0, r5
	mov	r1, #8
	bl	_ZdlPvj(PLT)
.L1044:
	mov	r0, #0
	pop	{r4, r5, r6, pc}
.L1029:
	mov	r0, #8
	ldr	r6, [r1]
	bl	_Znwj(PLT)
	ldm	r6, {r2, r3}
	cmp	r3, #0
	stm	r0, {r2, r3}
	beq	.L1031
	ldr	r2, .L1054+4
	ldr	r2, [r4, r2]
	cmp	r2, #0
	beq	.L1032
	add	r3, r3, #28
	mcr	p15, 0, r0, c7, c10, 5
.L1049:
	ldrex	r2, [r3]
	add	r2, r2, #1
	strex	r1, r2, [r3]
	cmp	r1, #0
	bne	.L1049
	mcr	p15, 0, r0, c7, c10, 5
.L1031:
	str	r0, [r5]
	mov	r0, #0
	pop	{r4, r5, r6, pc}
.L1028:
	ldr	r3, [r1]
	str	r3, [r0]
	mov	r0, #0
	pop	{r4, r5, r6, pc}
.L1026:
	ldr	r3, .L1054+8
	ldr	r3, [r4, r3]
	str	r3, [r0]
	mov	r0, #0
	pop	{r4, r5, r6, pc}
.L1032:
	ldr	r2, [r3, #28]
	add	r2, r2, #1
	str	r2, [r3, #28]
	b	.L1031
.L1035:
	ldr	r3, [r6, #28]
	cmp	r3, #1
	sub	r3, r3, #1
	str	r3, [r6, #28]
	bne	.L1034
	ldr	r3, [r6]
	mov	r0, r6
	ldr	r3, [r3, #8]
	blx	r3
	mcr	p15, 0, r0, c7, c10, 5
	ldr	r2, [r6, #32]
	sub	r3, r2, #1
	str	r3, [r6, #32]
.L1039:
	cmp	r2, #1
	bne	.L1034
	ldr	r3, [r6]
	mov	r0, r6
	ldr	r3, [r3, #12]
	blx	r3
	b	.L1034
.L1053:
	ldr	r3, [r6]
	mov	r0, r6
	ldr	r3, [r3, #8]
	blx	r3
	add	r3, r6, #32
	mcr	p15, 0, r0, c7, c10, 5
	mcr	p15, 0, r0, c7, c10, 5
.L1047:
	ldrex	r2, [r3]
	sub	r1, r2, #1
	strex	r0, r1, [r3]
	cmp	r0, #0
	bne	.L1047
	mcr	p15, 0, r0, c7, c10, 5
	b	.L1039
.L1055:
	.align	2
.L1054:
	.word	_GLOBAL_OFFSET_TABLE_-(.LPIC79+8)
	.word	_ZL28__gthrw___pthread_key_createPjPFvPvE(GOT)
	.word	_ZTIZN8asiodnp39StackBase15PerformShutdownINS_15OutstationStackEEEvRKSt10shared_ptrIT_EEUlvE_(GOT)
	.fnend
	.size	_ZNSt14_Function_base13_Base_managerIZN8asiodnp39StackBase15PerformShutdownINS1_15OutstationStackEEEvRKSt10shared_ptrIT_EEUlvE_E10_M_managerERSt9_Any_dataRKSC_St18_Manager_operation, .-_ZNSt14_Function_base13_Base_managerIZN8asiodnp39StackBase15PerformShutdownINS1_15OutstationStackEEEvRKSt10shared_ptrIT_EEUlvE_E10_M_managerERSt9_Any_dataRKSC_St18_Manager_operation
	.text
	.align	2
	.syntax unified
	.arm
	.fpu vfp
	.type	_ZNSt14_Function_base13_Base_managerIZN8asiodnp315OutstationStack6EnableEvEUlvE_E10_M_managerERSt9_Any_dataRKS5_St18_Manager_operation, %function
_ZNSt14_Function_base13_Base_managerIZN8asiodnp315OutstationStack6EnableEvEUlvE_E10_M_managerERSt9_Any_dataRKS5_St18_Manager_operation:
	.fnstart
.LFB9820:
	@ args = 0, pretend = 0, frame = 0
	@ frame_needed = 0, uses_anonymous_args = 0
	push	{r4, r5, r6, lr}
	.save {r4, r5, r6, lr}
	mov	r5, r0
	ldr	r4, .L1086
.LPIC81:
	add	r4, pc, r4
	cmp	r2, #3
	addls	pc, pc, r2, asl #2
	b	.L1076
.L1059:
	b	.L1058
	b	.L1060
	b	.L1061
	b	.L1062
	.p2align 1
.L1062:
	ldr	r5, [r0]
	cmp	r5, #0
	beq	.L1076
	ldr	r6, [r5, #4]
	cmp	r6, #0
	beq	.L1066
	ldr	r3, .L1086+4
	ldr	r3, [r4, r3]
	cmp	r3, #0
	beq	.L1067
	add	r3, r6, #28
	mcr	p15, 0, r0, c7, c10, 5
.L1080:
	ldrex	r2, [r3]
	sub	r1, r2, #1
	strex	r0, r1, [r3]
	cmp	r0, #0
	bne	.L1080
	cmp	r2, #1
	mcr	p15, 0, r0, c7, c10, 5
	beq	.L1085
.L1066:
	mov	r0, r5
	mov	r1, #8
	bl	_ZdlPvj(PLT)
.L1076:
	mov	r0, #0
	pop	{r4, r5, r6, pc}
.L1061:
	mov	r0, #8
	ldr	r6, [r1]
	bl	_Znwj(PLT)
	ldm	r6, {r2, r3}
	cmp	r3, #0
	stm	r0, {r2, r3}
	beq	.L1063
	ldr	r2, .L1086+4
	ldr	r2, [r4, r2]
	cmp	r2, #0
	beq	.L1064
	add	r3, r3, #28
	mcr	p15, 0, r0, c7, c10, 5
.L1081:
	ldrex	r2, [r3]
	add	r2, r2, #1
	strex	r1, r2, [r3]
	cmp	r1, #0
	bne	.L1081
	mcr	p15, 0, r0, c7, c10, 5
.L1063:
	str	r0, [r5]
	mov	r0, #0
	pop	{r4, r5, r6, pc}
.L1060:
	ldr	r3, [r1]
	str	r3, [r0]
	mov	r0, #0
	pop	{r4, r5, r6, pc}
.L1058:
	ldr	r3, .L1086+8
.LPIC80:
	add	r3, pc, r3
	add	r3, r3, #16
	str	r3, [r0]
	mov	r0, #0
	pop	{r4, r5, r6, pc}
.L1064:
	ldr	r2, [r3, #28]
	add	r2, r2, #1
	str	r2, [r3, #28]
	b	.L1063
.L1067:
	ldr	r3, [r6, #28]
	cmp	r3, #1
	sub	r3, r3, #1
	str	r3, [r6, #28]
	bne	.L1066
	ldr	r3, [r6]
	mov	r0, r6
	ldr	r3, [r3, #8]
	blx	r3
	mcr	p15, 0, r0, c7, c10, 5
	ldr	r2, [r6, #32]
	sub	r3, r2, #1
	str	r3, [r6, #32]
.L1071:
	cmp	r2, #1
	bne	.L1066
	ldr	r3, [r6]
	mov	r0, r6
	ldr	r3, [r3, #12]
	blx	r3
	b	.L1066
.L1085:
	ldr	r3, [r6]
	mov	r0, r6
	ldr	r3, [r3, #8]
	blx	r3
	add	r3, r6, #32
	mcr	p15, 0, r0, c7, c10, 5
	mcr	p15, 0, r0, c7, c10, 5
.L1079:
	ldrex	r2, [r3]
	sub	r1, r2, #1
	strex	r0, r1, [r3]
	cmp	r0, #0
	bne	.L1079
	mcr	p15, 0, r0, c7, c10, 5
	b	.L1071
.L1087:
	.align	2
.L1086:
	.word	_GLOBAL_OFFSET_TABLE_-(.LPIC81+8)
	.word	_ZL28__gthrw___pthread_key_createPjPFvPvE(GOT)
	.word	.LANCHOR0-(.LPIC80+8)
	.fnend
	.size	_ZNSt14_Function_base13_Base_managerIZN8asiodnp315OutstationStack6EnableEvEUlvE_E10_M_managerERSt9_Any_dataRKS5_St18_Manager_operation, .-_ZNSt14_Function_base13_Base_managerIZN8asiodnp315OutstationStack6EnableEvEUlvE_E10_M_managerERSt9_Any_dataRKS5_St18_Manager_operation
	.align	2
	.syntax unified
	.arm
	.fpu vfp
	.type	_ZN4asio6detail18completion_handlerIZN8asiodnp315OutstationStack5ApplyERKNS2_7UpdatesEEUlvE_E11do_completeEPNS0_15task_io_serviceEPNS0_25task_io_service_operationERKSt10error_codej, %function
_ZN4asio6detail18completion_handlerIZN8asiodnp315OutstationStack5ApplyERKNS2_7UpdatesEEUlvE_E11do_completeEPNS0_15task_io_serviceEPNS0_25task_io_service_operationERKSt10error_codej:
	.fnstart
.LFB10579:
	@ args = 0, pretend = 0, frame = 24
	@ frame_needed = 0, uses_anonymous_args = 0
	push	{r4, r5, r6, r7, r8, lr}
	.save {r4, r5, r6, r7, r8, lr}
	mov	r4, r1
	ldr	r5, [r1, #24]
	.pad #24
	sub	sp, sp, #24
	ldr	ip, [r1, #12]
	mov	r3, #0
	ldr	r1, [r1, #16]
	ldr	r2, [r4, #20]
	ldr	r7, .L1174
	cmp	r5, r3
	str	r5, [sp, #20]
	str	ip, [sp, #8]
	str	r1, [sp, #12]
	str	r2, [sp, #16]
	str	r3, [r4, #16]
	str	r3, [r4, #12]
	mov	r6, r0
.LPIC90:
	add	r7, pc, r7
	beq	.L1099
	ldr	r3, .L1174+4
	ldr	r8, [r7, r3]
	cmp	r8, #0
	beq	.L1091
	add	r5, r5, #28
	mcr	p15, 0, r0, c7, c10, 5
.L1155:
	ldrex	r3, [r5]
	add	r3, r3, #1
	strex	r2, r3, [r5]
	cmp	r2, #0
	bne	.L1155
	mcr	p15, 0, r0, c7, c10, 5
	ldr	r5, [r4, #24]
	cmp	r5, #0
	beq	.L1126
	add	r3, r5, #28
	mcr	p15, 0, r0, c7, c10, 5
.L1150:
	ldrex	r2, [r3]
	sub	r1, r2, #1
	strex	r0, r1, [r3]
	cmp	r0, #0
	bne	.L1150
	cmp	r2, #1
	mcr	p15, 0, r0, c7, c10, 5
	beq	.L1167
.L1126:
	ldr	r5, [r4, #16]
	cmp	r5, #0
	beq	.L1099
.L1131:
	add	r3, r5, #28
	mcr	p15, 0, r0, c7, c10, 5
.L1154:
	ldrex	r2, [r3]
	sub	r1, r2, #1
	strex	r0, r1, [r3]
	cmp	r0, #0
	bne	.L1154
	cmp	r2, #1
	mcr	p15, 0, r0, c7, c10, 5
	beq	.L1168
.L1099:
	ldr	r3, .L1174+8
	ldr	r3, [r7, r3]
	ldr	r0, [r3]
	bl	pthread_getspecific(PLT)
	cmp	r0, #0
	beq	.L1103
	ldr	r3, [r0, #4]
	cmp	r3, #0
	beq	.L1103
	ldr	r2, [r3]
	cmp	r2, #0
	beq	.L1169
.L1103:
	mov	r0, r4
	bl	_ZdlPv(PLT)
.L1104:
	cmp	r6, #0
	beq	.L1105
	add	r3, sp, #24
	mov	r2, #0
	str	r2, [r3, #-20]!
	mov	r2, #1
.L1153:
	ldrex	r1, [r3]
	strex	r0, r2, [r3]
	cmp	r0, #0
	bne	.L1153
	mcr	p15, 0, r0, c7, c10, 5
	ldr	r0, [sp, #8]
	add	r0, r0, #80
.LEHB14:
	bl	_ZN8opendnp38OContext16GetUpdateHandlerEv(PLT)
	ldr	r3, [sp, #16]
	mov	r6, r0
	cmp	r3, #0
	beq	.L1108
	ldm	r3, {r4, r5}
	cmp	r4, r5
	beq	.L1108
.L1158:
	ldr	r3, [r4, #8]
	cmp	r3, #0
	beq	.L1170
	ldr	r3, [r4, #12]
	mov	r1, r6
	mov	r0, r4
	blx	r3
	add	r4, r4, #16
	cmp	r5, r4
	bne	.L1158
.L1108:
	ldr	r0, [sp, #8]
	add	r0, r0, #80
	bl	_ZN8opendnp38OContext17CheckForTaskStartEv(PLT)
	mov	r3, #0
	mcr	p15, 0, r0, c7, c10, 5
	str	r3, [sp, #4]
.L1105:
	ldr	r4, [sp, #20]
	cmp	r4, #0
	beq	.L1114
	ldr	r3, .L1174+4
	ldr	r3, [r7, r3]
	cmp	r3, #0
	beq	.L1115
	add	r3, r4, #28
	mcr	p15, 0, r0, c7, c10, 5
.L1152:
	ldrex	r2, [r3]
	sub	r1, r2, #1
	strex	r0, r1, [r3]
	cmp	r0, #0
	bne	.L1152
	cmp	r2, #1
	mcr	p15, 0, r0, c7, c10, 5
	beq	.L1171
.L1114:
	ldr	r4, [sp, #12]
	cmp	r4, #0
	beq	.L1088
	ldr	r3, .L1174+4
	ldr	r3, [r7, r3]
	cmp	r3, #0
	beq	.L1121
	add	r3, r4, #28
	mcr	p15, 0, r0, c7, c10, 5
.L1151:
	ldrex	r2, [r3]
	sub	r1, r2, #1
	strex	r0, r1, [r3]
	cmp	r0, #0
	bne	.L1151
	cmp	r2, #1
	mcr	p15, 0, r0, c7, c10, 5
	beq	.L1172
.L1088:
	add	sp, sp, #24
	@ sp needed
	pop	{r4, r5, r6, r7, r8, pc}
.L1115:
	ldr	r3, [r4, #28]
	cmp	r3, #1
	sub	r3, r3, #1
	str	r3, [r4, #28]
	bne	.L1114
	ldr	r3, [r4]
	mov	r0, r4
	ldr	r3, [r3, #8]
	blx	r3
	mcr	p15, 0, r0, c7, c10, 5
	ldr	r2, [r4, #32]
	sub	r3, r2, #1
	str	r3, [r4, #32]
	b	.L1129
.L1091:
	ldr	r3, [r5, #28]
	cmp	r3, #0
	bne	.L1099
	ldr	r3, [r5]
	mov	r0, r5
	ldr	r3, [r3, #8]
	blx	r3
	mcr	p15, 0, r0, c7, c10, 5
	ldr	r2, [r5, #32]
	sub	r3, r2, #1
	str	r3, [r5, #32]
	b	.L1127
.L1121:
	ldr	r3, [r4, #28]
	cmp	r3, #1
	sub	r3, r3, #1
	str	r3, [r4, #28]
	bne	.L1088
	ldr	r3, [r4]
	mov	r0, r4
	ldr	r3, [r3, #8]
	blx	r3
	mcr	p15, 0, r0, c7, c10, 5
	ldr	r2, [r4, #32]
	sub	r3, r2, #1
	str	r3, [r4, #32]
	b	.L1130
.L1172:
	ldr	r3, [r4]
	mov	r0, r4
	ldr	r3, [r3, #8]
	blx	r3
	add	r3, r4, #32
	mcr	p15, 0, r0, c7, c10, 5
	mcr	p15, 0, r0, c7, c10, 5
.L1146:
	ldrex	r2, [r3]
	sub	r1, r2, #1
	strex	r0, r1, [r3]
	cmp	r0, #0
	bne	.L1146
	mcr	p15, 0, r0, c7, c10, 5
.L1130:
	cmp	r2, #1
	bne	.L1088
	ldr	r3, [r4]
	mov	r0, r4
	ldr	r3, [r3, #12]
	blx	r3
	b	.L1088
.L1171:
	ldr	r3, [r4]
	mov	r0, r4
	ldr	r3, [r3, #8]
	blx	r3
	add	r3, r4, #32
	mcr	p15, 0, r0, c7, c10, 5
	mcr	p15, 0, r0, c7, c10, 5
.L1147:
	ldrex	r2, [r3]
	sub	r1, r2, #1
	strex	r0, r1, [r3]
	cmp	r0, #0
	bne	.L1147
	mcr	p15, 0, r0, c7, c10, 5
.L1129:
	cmp	r2, #1
	bne	.L1114
	ldr	r3, [r4]
	mov	r0, r4
	ldr	r3, [r3, #12]
	blx	r3
	b	.L1114
.L1168:
	ldr	r3, [r5]
	mov	r0, r5
	ldr	r3, [r3, #8]
	blx	r3
	add	r3, r5, #32
	mcr	p15, 0, r0, c7, c10, 5
	mcr	p15, 0, r0, c7, c10, 5
.L1148:
	ldrex	r2, [r3]
	sub	r1, r2, #1
	strex	r0, r1, [r3]
	cmp	r0, #0
	bne	.L1148
	mcr	p15, 0, r0, c7, c10, 5
.L1128:
	cmp	r2, #1
	bne	.L1099
	ldr	r3, [r5]
	mov	r0, r5
	ldr	r3, [r3, #12]
	blx	r3
	b	.L1099
.L1167:
	ldr	r3, [r5]
	mov	r0, r5
	ldr	r3, [r3, #8]
	blx	r3
	add	r3, r5, #32
	mcr	p15, 0, r0, c7, c10, 5
	mcr	p15, 0, r0, c7, c10, 5
.L1149:
	ldrex	r2, [r3]
	sub	r1, r2, #1
	strex	r0, r1, [r3]
	cmp	r0, #0
	bne	.L1149
	mcr	p15, 0, r0, c7, c10, 5
.L1127:
	cmp	r2, #1
	beq	.L1173
.L1157:
	ldr	r5, [r4, #16]
	cmp	r5, #0
	beq	.L1099
	cmp	r8, #0
	bne	.L1131
	ldr	r3, [r5, #28]
	cmp	r3, #1
	sub	r3, r3, #1
	str	r3, [r5, #28]
	bne	.L1099
	ldr	r3, [r5]
	mov	r0, r5
	ldr	r3, [r3, #8]
	blx	r3
	mcr	p15, 0, r0, c7, c10, 5
	ldr	r2, [r5, #32]
	sub	r3, r2, #1
	str	r3, [r5, #32]
	b	.L1128
.L1169:
	ldrb	r2, [r4, #28]	@ zero_extendqisi2
	strb	r2, [r4]
	str	r4, [r3]
	b	.L1104
.L1173:
	ldr	r3, [r5]
	mov	r0, r5
	ldr	r3, [r3, #12]
	blx	r3
	b	.L1157
.L1170:
	bl	_ZSt25__throw_bad_function_callv(PLT)
.LEHE14:
.L1132:
	mov	r3, #0
	mcr	p15, 0, r0, c7, c10, 5
	add	r0, sp, #8
	str	r3, [sp, #4]
	bl	_ZZN8asiodnp315OutstationStack5ApplyERKNS_7UpdatesEENUlvE_D1Ev(PLT)
.LEHB15:
	bl	__cxa_end_cleanup(PLT)
.LEHE15:
.L1175:
	.align	2
.L1174:
	.word	_GLOBAL_OFFSET_TABLE_-(.LPIC90+8)
	.word	_ZL28__gthrw___pthread_key_createPjPFvPvE(GOT)
	.word	_ZN4asio6detail10call_stackINS0_15task_io_serviceENS0_27task_io_service_thread_infoEE4top_E(GOT)
	.personality	__gxx_personality_v0
	.handlerdata
.LLSDA10579:
	.byte	0xff
	.byte	0xff
	.byte	0x1
	.uleb128 .LLSDACSE10579-.LLSDACSB10579
.LLSDACSB10579:
	.uleb128 .LEHB14-.LFB10579
	.uleb128 .LEHE14-.LEHB14
	.uleb128 .L1132-.LFB10579
	.uleb128 0
	.uleb128 .LEHB15-.LFB10579
	.uleb128 .LEHE15-.LEHB15
	.uleb128 0
	.uleb128 0
.LLSDACSE10579:
	.text
	.fnend
	.size	_ZN4asio6detail18completion_handlerIZN8asiodnp315OutstationStack5ApplyERKNS2_7UpdatesEEUlvE_E11do_completeEPNS0_15task_io_serviceEPNS0_25task_io_service_operationERKSt10error_codej, .-_ZN4asio6detail18completion_handlerIZN8asiodnp315OutstationStack5ApplyERKNS2_7UpdatesEEUlvE_E11do_completeEPNS0_15task_io_serviceEPNS0_25task_io_service_operationERKSt10error_codej
	.section	.text._ZN9__gnu_cxx13__scoped_lockD2Ev,"axG",%progbits,_ZN9__gnu_cxx13__scoped_lockD5Ev,comdat
	.align	2
	.weak	_ZN9__gnu_cxx13__scoped_lockD2Ev
	.syntax unified
	.arm
	.fpu vfp
	.type	_ZN9__gnu_cxx13__scoped_lockD2Ev, %function
_ZN9__gnu_cxx13__scoped_lockD2Ev:
	.fnstart
.LFB598:
	@ args = 0, pretend = 0, frame = 0
	@ frame_needed = 0, uses_anonymous_args = 0
	push	{r4, r5, r6, lr}
	.save {r4, r5, r6, lr}
	mov	r5, r0
	ldr	r4, .L1190
	ldr	r3, .L1190+4
.LPIC91:
	add	r4, pc, r4
	ldr	r3, [r4, r3]
	cmp	r3, #0
	beq	.L1183
	ldr	r0, [r0]
	bl	_ZL28__gthrw_pthread_mutex_unlockP15pthread_mutex_t(PLT)
	cmp	r0, #0
	bne	.L1189
.L1183:
	mov	r0, r5
	pop	{r4, r5, r6, pc}
.L1189:
	mov	r0, #4
	bl	__cxa_allocate_exception(PLT)
	ldr	r1, .L1190+8
	ldr	r2, .L1190+12
	ldr	r3, .L1190+16
	ldr	r1, [r4, r1]
	add	r1, r1, #8
	str	r1, [r0]
	ldr	r2, [r4, r2]
	ldr	r1, [r4, r3]
.LEHB16:
	bl	__cxa_throw(PLT)
.LEHE16:
.L1180:
	cmn	r1, #1
	beq	.L1179
.LEHB17:
	bl	__cxa_end_cleanup(PLT)
.L1179:
	bl	__cxa_call_unexpected(PLT)
.LEHE17:
.L1191:
	.align	2
.L1190:
	.word	_GLOBAL_OFFSET_TABLE_-(.LPIC91+8)
	.word	_ZL28__gthrw___pthread_key_createPjPFvPvE(GOT)
	.word	_ZTVN9__gnu_cxx26__concurrence_unlock_errorE(GOT)
	.word	_ZN9__gnu_cxx26__concurrence_unlock_errorD1Ev(GOT)
	.word	_ZTIN9__gnu_cxx26__concurrence_unlock_errorE(GOT)
	.personality	__gxx_personality_v0
	.handlerdata
	.align	2
.LLSDA598:
	.byte	0xff
	.byte	0x90
	.uleb128 .LLSDATT598-.LLSDATTD598
.LLSDATTD598:
	.byte	0x1
	.uleb128 .LLSDACSE598-.LLSDACSB598
.LLSDACSB598:
	.uleb128 .LEHB16-.LFB598
	.uleb128 .LEHE16-.LEHB16
	.uleb128 .L1180-.LFB598
	.uleb128 0x1
	.uleb128 .LEHB17-.LFB598
	.uleb128 .LEHE17-.LEHB17
	.uleb128 0
	.uleb128 0
.LLSDACSE598:
	.byte	0x7f
	.byte	0
	.align	2
.LLSDATT598:
	.word	0
	.section	.text._ZN9__gnu_cxx13__scoped_lockD2Ev,"axG",%progbits,_ZN9__gnu_cxx13__scoped_lockD5Ev,comdat
	.fnend
	.size	_ZN9__gnu_cxx13__scoped_lockD2Ev, .-_ZN9__gnu_cxx13__scoped_lockD2Ev
	.weak	_ZN9__gnu_cxx13__scoped_lockD1Ev
	.set	_ZN9__gnu_cxx13__scoped_lockD1Ev,_ZN9__gnu_cxx13__scoped_lockD2Ev
	.section	.text._ZSt20__throw_bad_weak_ptrv,"axG",%progbits,_ZSt20__throw_bad_weak_ptrv,comdat
	.align	2
	.weak	_ZSt20__throw_bad_weak_ptrv
	.syntax unified
	.arm
	.fpu vfp
	.type	_ZSt20__throw_bad_weak_ptrv, %function
_ZSt20__throw_bad_weak_ptrv:
	.fnstart
.LFB1550:
	@ args = 0, pretend = 0, frame = 0
	@ frame_needed = 0, uses_anonymous_args = 0
	push	{r4, lr}
	.save {r4, lr}
	mov	r0, #4
	bl	__cxa_allocate_exception(PLT)
	ldr	r3, .L1194
	ldr	ip, .L1194+4
.LPIC92:
	add	r3, pc, r3
	ldr	r2, .L1194+8
	ldr	ip, [r3, ip]
	ldr	r1, .L1194+12
	add	ip, ip, #8
	str	ip, [r0]
	ldr	r2, [r3, r2]
	ldr	r1, [r3, r1]
	bl	__cxa_throw(PLT)
.L1195:
	.align	2
.L1194:
	.word	_GLOBAL_OFFSET_TABLE_-(.LPIC92+8)
	.word	_ZTVSt12bad_weak_ptr(GOT)
	.word	_ZNSt12bad_weak_ptrD1Ev(GOT)
	.word	_ZTISt12bad_weak_ptr(GOT)
	.fnend
	.size	_ZSt20__throw_bad_weak_ptrv, .-_ZSt20__throw_bad_weak_ptrv
	.section	.text._ZNSt12system_errorC2ESt10error_codePKc,"axG",%progbits,_ZNSt12system_errorC5ESt10error_codePKc,comdat
	.align	2
	.weak	_ZNSt12system_errorC2ESt10error_codePKc
	.syntax unified
	.arm
	.fpu vfp
	.type	_ZNSt12system_errorC2ESt10error_codePKc, %function
_ZNSt12system_errorC2ESt10error_codePKc:
	.fnstart
.LFB2398:
	@ args = 0, pretend = 0, frame = 80
	@ frame_needed = 0, uses_anonymous_args = 0
	push	{r4, r5, r6, r7, r8, r9, r10, fp, lr}
	.save {r4, r5, r6, r7, r8, r9, r10, fp, lr}
	.pad #92
	sub	sp, sp, #92
	add	r4, sp, #8
	add	r8, sp, #64
	stm	r4, {r1, r2}
	ldr	r2, [sp, #12]
	mov	r5, r0
	mov	r1, r2
	ldr	ip, [r2]
	mov	r0, r8
	ldr	r2, [sp, #8]
	ldr	r6, [ip, #16]
	mov	r7, r3
.LEHB18:
	blx	r6
.LEHE18:
	mov	r3, #2
	str	r3, [sp]
	ldr	r3, .L1215
	mov	r2, #0
	ldr	r9, .L1215+4
	mov	r0, r8
	mov	r1, r2
.LPIC93:
	add	r3, pc, r3
.LPIC94:
	add	r9, pc, r9
.LEHB19:
	bl	_ZNSt7__cxx1112basic_stringIcSt11char_traitsIcESaIcEE10_M_replaceEjjPKcj(PLT)
.LEHE19:
	mov	lr, r0
	add	r6, sp, #48
	str	r6, [sp, #40]
	ldr	r3, [lr], #8
	mov	ip, r0
	cmp	r3, lr
	moveq	r10, r6
	ldreq	r0, [lr]	@ unaligned
	ldreq	r1, [lr, #4]	@ unaligned
	ldreq	r2, [lr, #8]	@ unaligned
	ldreq	r3, [lr, #12]	@ unaligned
	ldrne	r2, [ip, #8]
	strne	r3, [sp, #40]
	stmiaeq	r10!, {r0, r1, r2, r3}
	mov	fp, #0
	strne	r2, [sp, #48]
	ldr	r3, [ip, #4]
	strb	fp, [ip, #8]
	str	r3, [sp, #44]
	mov	r0, r7
	str	lr, [ip]
	str	fp, [ip, #4]
	bl	strlen(PLT)
	add	r10, sp, #40
	mov	r3, r7
	mov	r2, fp
	mov	r1, fp
	str	r0, [sp]
	mov	r0, r10
.LEHB20:
	bl	_ZNSt7__cxx1112basic_stringIcSt11char_traitsIcESaIcEE10_M_replaceEjjPKcj(PLT)
.LEHE20:
	mov	lr, r0
	add	r7, sp, #24
	str	r7, [sp, #16]
	ldr	r3, [lr], #8
	mov	ip, r0
	cmp	r3, lr
	moveq	fp, r7
	ldreq	r0, [lr]	@ unaligned
	ldreq	r1, [lr, #4]	@ unaligned
	ldreq	r2, [lr, #8]	@ unaligned
	ldreq	r3, [lr, #12]	@ unaligned
	ldrne	r2, [ip, #8]
	strne	r3, [sp, #16]
	stmiaeq	fp!, {r0, r1, r2, r3}
	mov	r3, #0
	strne	r2, [sp, #24]
	ldr	r2, [ip, #4]
	add	fp, sp, #16
	str	r2, [sp, #20]
	strb	r3, [ip, #8]
	str	lr, [ip]
	str	r3, [ip, #4]
	mov	r1, fp
	mov	r0, r5
.LEHB21:
	bl	_ZNSt13runtime_errorC2ERKNSt7__cxx1112basic_stringIcSt11char_traitsIcESaIcEEE(PLT)
.LEHE21:
	ldr	r0, [sp, #16]
	cmp	r0, r7
	beq	.L1201
	bl	_ZdlPv(PLT)
.L1201:
	ldr	r0, [sp, #40]
	cmp	r0, r6
	beq	.L1202
	bl	_ZdlPv(PLT)
.L1202:
	ldr	r0, [sp, #64]
	add	r3, sp, #72
	cmp	r0, r3
	beq	.L1203
	bl	_ZdlPv(PLT)
.L1203:
	ldr	r2, .L1215+8
	ldm	r4, {r0, r1}
	mov	r3, r5
	ldr	r2, [r9, r2]
	add	r2, r2, #8
	str	r2, [r3], #8
	stm	r3, {r0, r1}
	mov	r0, r5
	add	sp, sp, #92
	@ sp needed
	pop	{r4, r5, r6, r7, r8, r9, r10, fp, pc}
.L1210:
.L1208:
	ldr	r0, [sp, #64]
	add	r8, r8, #8
	cmp	r0, r8
	beq	.L1209
	bl	_ZdlPv(PLT)
.L1209:
.LEHB22:
	bl	__cxa_end_cleanup(PLT)
.LEHE22:
.L1212:
	ldr	r0, [sp, #16]
	add	fp, fp, #8
	cmp	r0, fp
	beq	.L1206
	bl	_ZdlPv(PLT)
.L1206:
	ldr	r0, [sp, #40]
	add	r10, r10, #8
	cmp	r0, r10
	beq	.L1208
	bl	_ZdlPv(PLT)
	b	.L1208
.L1211:
	b	.L1206
.L1216:
	.align	2
.L1215:
	.word	.LC21-(.LPIC93+8)
	.word	_GLOBAL_OFFSET_TABLE_-(.LPIC94+8)
	.word	_ZTVSt12system_error(GOT)
	.personality	__gxx_personality_v0
	.handlerdata
.LLSDA2398:
	.byte	0xff
	.byte	0xff
	.byte	0x1
	.uleb128 .LLSDACSE2398-.LLSDACSB2398
.LLSDACSB2398:
	.uleb128 .LEHB18-.LFB2398
	.uleb128 .LEHE18-.LEHB18
	.uleb128 0
	.uleb128 0
	.uleb128 .LEHB19-.LFB2398
	.uleb128 .LEHE19-.LEHB19
	.uleb128 .L1210-.LFB2398
	.uleb128 0
	.uleb128 .LEHB20-.LFB2398
	.uleb128 .LEHE20-.LEHB20
	.uleb128 .L1211-.LFB2398
	.uleb128 0
	.uleb128 .LEHB21-.LFB2398
	.uleb128 .LEHE21-.LEHB21
	.uleb128 .L1212-.LFB2398
	.uleb128 0
	.uleb128 .LEHB22-.LFB2398
	.uleb128 .LEHE22-.LEHB22
	.uleb128 0
	.uleb128 0
.LLSDACSE2398:
	.section	.text._ZNSt12system_errorC2ESt10error_codePKc,"axG",%progbits,_ZNSt12system_errorC5ESt10error_codePKc,comdat
	.fnend
	.size	_ZNSt12system_errorC2ESt10error_codePKc, .-_ZNSt12system_errorC2ESt10error_codePKc
	.weak	_ZNSt12system_errorC1ESt10error_codePKc
	.set	_ZNSt12system_errorC1ESt10error_codePKc,_ZNSt12system_errorC2ESt10error_codePKc
	.section	.text._ZN4asio6detail20posix_tss_ptr_createERj,"axG",%progbits,_ZN4asio6detail20posix_tss_ptr_createERj,comdat
	.align	2
	.weak	_ZN4asio6detail20posix_tss_ptr_createERj
	.syntax unified
	.arm
	.fpu vfp
	.type	_ZN4asio6detail20posix_tss_ptr_createERj, %function
_ZN4asio6detail20posix_tss_ptr_createERj:
	.fnstart
.LFB2476:
	@ args = 0, pretend = 0, frame = 24
	@ frame_needed = 0, uses_anonymous_args = 0
	push	{r4, r5, r6, lr}
	.save {r4, r5, r6, lr}
	mov	r1, #0
	.pad #24
	sub	sp, sp, #24
	bl	pthread_key_create(PLT)
	ldr	r4, .L1231
	ldr	r3, .L1231+4
.LPIC95:
	add	r4, pc, r4
	ldr	r6, [r4, r3]
	ldrb	r3, [r6]	@ zero_extendqisi2
	mcr	p15, 0, r0, c7, c10, 5
	tst	r3, #1
	mov	r5, r0
	beq	.L1229
.L1228:
	ldr	r3, .L1231+8
	ldr	r6, [r4, r3]
.L1219:
	cmp	r5, #0
	stm	sp, {r5, r6}
	bne	.L1230
	add	sp, sp, #24
	@ sp needed
	pop	{r4, r5, r6, pc}
.L1229:
	mov	r0, r6
	bl	__cxa_guard_acquire(PLT)
	cmp	r0, #0
	beq	.L1228
	mov	r0, r6
	bl	__cxa_guard_release(PLT)
	ldr	r3, .L1231+8
	ldr	r1, .L1231+12
	ldr	r2, .L1231+16
	ldr	r6, [r4, r3]
.LPIC96:
	add	r2, pc, r2
	ldr	r1, [r4, r1]
	mov	r0, r6
	bl	__aeabi_atexit(PLT)
	b	.L1219
.L1230:
	ldr	r3, .L1231+20
	add	r5, sp, #8
	ldm	sp, {r1, r2}
.LPIC97:
	add	r3, pc, r3
	mov	r0, r5
.LEHB23:
	bl	_ZNSt12system_errorC1ESt10error_codePKc(PLT)
.LEHE23:
	mov	r0, #16
	bl	__cxa_allocate_exception(PLT)
	mov	r1, r5
	mov	r6, r0
	bl	_ZNSt13runtime_errorC2ERKS_(PLT)
	ldr	r3, .L1231+24
	add	r2, sp, #24
	ldr	ip, .L1231+28
	ldmdb	r2, {r0, r1}
	ldr	lr, [r4, r3]
	ldr	r2, .L1231+32
	mov	r3, r6
	add	lr, lr, #8
	str	lr, [r3], #8
	stm	r3, {r0, r1}
	mov	r0, r6
	ldr	r2, [r4, r2]
	ldr	r1, [r4, ip]
.LEHB24:
	bl	__cxa_throw(PLT)
.LEHE24:
.L1223:
	mov	r0, r5
	bl	_ZNSt12system_errorD1Ev(PLT)
.LEHB25:
	bl	__cxa_end_cleanup(PLT)
.LEHE25:
.L1232:
	.align	2
.L1231:
	.word	_GLOBAL_OFFSET_TABLE_-(.LPIC95+8)
	.word	_ZGVZN4asio15system_categoryEvE8instance(GOT)
	.word	_ZZN4asio15system_categoryEvE8instance(GOT)
	.word	_ZN4asio6detail15system_categoryD1Ev(GOT)
	.word	__dso_handle-(.LPIC96+8)
	.word	.LC22-(.LPIC97+8)
	.word	_ZTVSt12system_error(GOT)
	.word	_ZTISt12system_error(GOT)
	.word	_ZNSt12system_errorD1Ev(GOT)
	.personality	__gxx_personality_v0
	.handlerdata
.LLSDA2476:
	.byte	0xff
	.byte	0xff
	.byte	0x1
	.uleb128 .LLSDACSE2476-.LLSDACSB2476
.LLSDACSB2476:
	.uleb128 .LEHB23-.LFB2476
	.uleb128 .LEHE23-.LEHB23
	.uleb128 0
	.uleb128 0
	.uleb128 .LEHB24-.LFB2476
	.uleb128 .LEHE24-.LEHB24
	.uleb128 .L1223-.LFB2476
	.uleb128 0
	.uleb128 .LEHB25-.LFB2476
	.uleb128 .LEHE25-.LEHB25
	.uleb128 0
	.uleb128 0
.LLSDACSE2476:
	.section	.text._ZN4asio6detail20posix_tss_ptr_createERj,"axG",%progbits,_ZN4asio6detail20posix_tss_ptr_createERj,comdat
	.fnend
	.size	_ZN4asio6detail20posix_tss_ptr_createERj, .-_ZN4asio6detail20posix_tss_ptr_createERj
	.section	.text._ZN4asio28asio_handler_is_continuationEz,"axG",%progbits,_ZN4asio28asio_handler_is_continuationEz,comdat
	.align	2
	.weak	_ZN4asio28asio_handler_is_continuationEz
	.syntax unified
	.arm
	.fpu vfp
	.type	_ZN4asio28asio_handler_is_continuationEz, %function
_ZN4asio28asio_handler_is_continuationEz:
	.fnstart
.LFB2508:
	@ args = 0, pretend = 0, frame = 0
	@ frame_needed = 0, uses_anonymous_args = 0
	@ link register save eliminated.
	mov	r0, #0
	bx	lr
	.cantunwind
	.fnend
	.size	_ZN4asio28asio_handler_is_continuationEz, .-_ZN4asio28asio_handler_is_continuationEz
	.text
	.align	2
	.global	_ZN8asiodnp315OutstationStack5ApplyERKNS_7UpdatesE
	.syntax unified
	.arm
	.fpu vfp
	.type	_ZN8asiodnp315OutstationStack5ApplyERKNS_7UpdatesE, %function
_ZN8asiodnp315OutstationStack5ApplyERKNS_7UpdatesE:
	.fnstart
.LFB8205:
	@ args = 0, pretend = 0, frame = 56
	@ frame_needed = 0, uses_anonymous_args = 0
	ldr	r3, [r1]
	push	{r4, r5, r6, r7, r8, r9, r10, lr}
	.save {r4, r5, r6, r7, r8, r9, r10, lr}
	cmp	r3, #0
	ldr	r8, .L1401
	.pad #56
	sub	sp, sp, #56
.LPIC98:
	add	r8, pc, r8
	beq	.L1234
	ldr	ip, [r3]
	ldr	r2, [r3, #4]
	cmp	ip, r2
	beq	.L1234
	ldr	r4, [r0, #16]
	mov	r7, r0
	cmp	r4, #0
	mov	r5, r1
	str	r4, [sp, #24]
	beq	.L1236
	ldr	r2, .L1401+4
	add	r0, r4, #4
	str	r0, [sp, #36]
	ldr	r6, [r8, r2]
	cmp	r6, #0
	beq	.L1237
	bl	_ZL26__gthrw_pthread_mutex_lockP15pthread_mutex_t(PLT)
	cmp	r0, #0
	bne	.L1390
	add	r3, r4, #28
	mcr	p15, 0, r0, c7, c10, 5
.L1365:
	ldrex	r2, [r3]
	add	r1, r2, #1
	strex	r0, r1, [r3]
	cmp	r0, #0
	bne	.L1365
	cmp	r2, #0
	mcr	p15, 0, r0, c7, c10, 5
	beq	.L1293
	ldr	r0, [sp, #36]
	bl	_ZL28__gthrw_pthread_mutex_unlockP15pthread_mutex_t(PLT)
	cmp	r0, #0
	bne	.L1391
	ldm	r5, {r0, r3}
	ldr	r1, [r7, #12]
	cmp	r3, #0
	str	r3, [sp, #32]
	str	r0, [sp, #28]
	str	r1, [sp, #20]
	beq	.L1392
	add	r3, r3, #28
	mcr	p15, 0, r0, c7, c10, 5
.L1364:
	ldrex	r2, [r3]
	add	r2, r2, #1
	strex	r1, r2, [r3]
	cmp	r1, #0
	bne	.L1364
	mcr	p15, 0, r0, c7, c10, 5
	ldr	r3, [sp, #24]
	ldr	r2, [sp, #20]
	cmp	r3, #0
	str	r3, [sp, #40]
	ldr	r5, [r7, #36]
	str	r2, [sp, #36]
	addne	r3, r3, #28
	beq	.L1393
.L1304:
	mcr	p15, 0, r0, c7, c10, 5
.L1373:
	ldrex	r2, [r3]
	add	r2, r2, #1
	strex	r1, r2, [r3]
	cmp	r1, #0
	bne	.L1373
	mcr	p15, 0, r0, c7, c10, 5
	ldr	r3, [sp, #32]
	ldr	r2, [sp, #28]
	cmp	r3, #0
	str	r2, [sp, #44]
	str	r3, [sp, #48]
	beq	.L1245
.L1299:
	add	r3, r3, #28
	mcr	p15, 0, r0, c7, c10, 5
.L1372:
	ldrex	r2, [r3]
	add	r2, r2, #1
	strex	r1, r2, [r3]
	cmp	r1, #0
	bne	.L1372
	mcr	p15, 0, r0, c7, c10, 5
.L1245:
	add	r10, sp, #36
	mov	r0, r10
	bl	_ZN4asio28asio_handler_is_continuationEz(PLT)
	ldr	r3, .L1401+8
	ldr	r9, [r5, #20]
	ldr	r8, [r8, r3]
	mov	r7, r0
	ldr	r0, [r8]
	bl	pthread_getspecific(PLT)
	cmp	r0, #0
	beq	.L1246
	ldr	r3, [r0, #4]
	cmp	r3, #0
	beq	.L1246
	ldr	r4, [r3]
	cmp	r4, #0
	beq	.L1246
	mov	r2, #0
	str	r2, [r3]
	ldrb	r3, [r4]	@ zero_extendqisi2
	cmp	r3, #27
	bls	.L1394
.L1375:
	strb	r3, [r4, #28]
	ldr	r3, .L1401+12
	ldr	r1, [sp, #40]
	ldr	r0, [sp, #36]
	mov	r2, #0
.LPIC99:
	add	r3, pc, r3
	str	r3, [r4, #4]
	str	r0, [r4, #12]
	str	r2, [r4]
	str	r2, [r4, #8]
	str	r2, [sp, #40]
	str	r1, [r4, #16]
	ldr	r3, [sp, #48]
	ldr	r1, [sp, #44]
	cmp	r3, r2
	str	r2, [sp, #36]
	str	r3, [r4, #24]
	str	r1, [r4, #20]
	beq	.L1249
	cmp	r6, r2
	beq	.L1250
	add	r3, r3, #28
	mcr	p15, 0, r0, c7, c10, 5
.L1371:
	ldrex	r2, [r3]
	add	r2, r2, #1
	strex	r1, r2, [r3]
	cmp	r1, #0
	bne	.L1371
	mcr	p15, 0, r0, c7, c10, 5
.L1249:
	ldr	r0, [r5, #24]
	add	r0, r0, #12
	bl	pthread_mutex_lock(PLT)
	ldr	r0, [r5, #24]
	ldrb	r10, [r0, #36]	@ zero_extendqisi2
	cmp	r10, #0
	beq	.L1251
	ldr	r3, [r0, #44]
	mov	r2, #0
	cmp	r3, r2
	str	r2, [r4]
	add	r0, r0, #12
	strne	r4, [r3]
	streq	r4, [r0, #32]
	strne	r4, [r0, #32]
	streq	r4, [r0, #28]
	bl	pthread_mutex_unlock(PLT)
.L1254:
	ldr	r4, [sp, #48]
	cmp	r4, #0
	beq	.L1270
	cmp	r6, #0
	beq	.L1271
	add	r3, r4, #28
	mcr	p15, 0, r0, c7, c10, 5
.L1369:
	ldrex	r2, [r3]
	sub	r1, r2, #1
	strex	r0, r1, [r3]
	cmp	r0, #0
	bne	.L1369
	cmp	r2, #1
	mcr	p15, 0, r0, c7, c10, 5
	beq	.L1395
.L1270:
	ldr	r4, [sp, #40]
	cmp	r4, #0
	beq	.L1276
	cmp	r6, #0
	beq	.L1277
	add	r3, r4, #28
	mcr	p15, 0, r0, c7, c10, 5
.L1368:
	ldrex	r2, [r3]
	sub	r1, r2, #1
	strex	r0, r1, [r3]
	cmp	r0, #0
	bne	.L1368
	cmp	r2, #1
	mcr	p15, 0, r0, c7, c10, 5
	beq	.L1396
.L1276:
	ldr	r4, [sp, #32]
	cmp	r4, #0
	beq	.L1282
	cmp	r6, #0
	beq	.L1284
	add	r3, r4, #28
	mcr	p15, 0, r0, c7, c10, 5
.L1367:
	ldrex	r2, [r3]
	sub	r1, r2, #1
	strex	r0, r1, [r3]
	cmp	r0, #0
	bne	.L1367
	cmp	r2, #1
	mcr	p15, 0, r0, c7, c10, 5
	beq	.L1397
.L1282:
	ldr	r4, [sp, #24]
	cmp	r4, #0
	beq	.L1234
	cmp	r6, #0
	beq	.L1288
	add	r3, r4, #28
	mcr	p15, 0, r0, c7, c10, 5
.L1366:
	ldrex	r2, [r3]
	sub	r1, r2, #1
	strex	r0, r1, [r3]
	cmp	r0, #0
	bne	.L1366
	cmp	r2, #1
	mcr	p15, 0, r0, c7, c10, 5
	beq	.L1398
.L1234:
	add	sp, sp, #56
	@ sp needed
	pop	{r4, r5, r6, r7, r8, r9, r10, pc}
.L1394:
	mov	r0, r4
	bl	_ZdlPv(PLT)
.L1246:
	mov	r0, #29
.LEHB26:
	bl	_Znwj(PLT)
.LEHE26:
	mov	r4, r0
	mov	r3, #28
	b	.L1375
.L1237:
	ldr	r2, [r4, #28]
	cmp	r2, #0
	add	r2, r2, #1
	str	r2, [r4, #28]
	beq	.L1293
	ldr	r2, [r1, #4]
	ldr	r0, [r7, #12]
	cmp	r2, #0
	str	r2, [sp, #32]
	str	r3, [sp, #28]
	str	r0, [sp, #20]
	beq	.L1399
	ldr	r1, [r2, #28]
	ldr	r5, [r7, #36]
	add	r1, r1, #1
	str	r1, [r2, #28]
	ldr	r1, [r4, #28]
	str	r0, [sp, #36]
	add	r1, r1, #1
	str	r4, [sp, #40]
	str	r1, [r4, #28]
	ldr	r1, [r2, #28]
	str	r3, [sp, #44]
	add	r3, r1, #1
	str	r2, [sp, #48]
	str	r3, [r2, #28]
	b	.L1245
.L1251:
	mov	r3, #1
	strb	r3, [r0, #36]
	add	r0, r0, #12
	bl	pthread_mutex_unlock(PLT)
	ldr	r5, [r5, #24]
	str	r10, [r4]
	ldr	r3, [r5, #52]
	cmp	r3, #0
	strne	r4, [r3]
	streq	r4, [r5, #52]
	strne	r4, [r5, #52]
	streq	r4, [r5, #48]
	ldr	r4, [r9, #20]
	ldrb	r3, [r4, #20]	@ zero_extendqisi2
	orr	r7, r7, r3
	tst	r7, #255
	beq	.L1257
	ldr	r0, [r8]
	bl	pthread_getspecific(PLT)
	cmp	r0, #0
	beq	.L1257
	ldr	r3, [r0]
	cmp	r3, r4
	bne	.L1260
	b	.L1258
.L1352:
	ldr	r3, [r0]
	cmp	r4, r3
	beq	.L1258
.L1260:
	ldr	r0, [r0, #8]
	cmp	r0, #0
	bne	.L1352
.L1257:
	add	r3, r4, #124
	mcr	p15, 0, r0, c7, c10, 5
.L1370:
	ldrex	r2, [r3]
	add	r2, r2, #1
	strex	r1, r2, [r3]
	cmp	r1, #0
	bne	.L1370
	add	r7, r4, #24
	mcr	p15, 0, r0, c7, c10, 5
	mov	r0, r7
	bl	pthread_mutex_lock(PLT)
	ldr	r3, [r4, #132]
	mov	r2, #0
	cmp	r3, r2
	str	r2, [r5]
	strne	r5, [r3]
	ldr	r3, [r4, #96]
	strne	r5, [r4, #132]
	orr	r3, r3, #1
	streq	r5, [r4, #132]
	streq	r5, [r4, #128]
	cmp	r3, #1
	add	r5, r4, #48
	str	r3, [r4, #96]
	beq	.L1266
	mov	r0, r7
	bl	pthread_mutex_unlock(PLT)
	mov	r0, r5
	bl	pthread_cond_signal(PLT)
	b	.L1254
.L1250:
	ldr	r2, [r3, #28]
	add	r2, r2, #1
	str	r2, [r3, #28]
	b	.L1249
.L1392:
	ldr	r2, [sp, #24]
	ldr	r5, [r7, #36]
	cmp	r2, #0
	str	r1, [sp, #36]
	str	r2, [sp, #40]
	beq	.L1400
.L1310:
	add	r3, r2, #28
	b	.L1304
.L1271:
	ldr	r3, [r4, #28]
	cmp	r3, #1
	sub	r3, r3, #1
	str	r3, [r4, #28]
	bne	.L1270
	ldr	r3, [r4]
	mov	r0, r4
	ldr	r3, [r3, #8]
	blx	r3
	mcr	p15, 0, r0, c7, c10, 5
	ldr	r2, [r4, #32]
	sub	r3, r2, #1
	str	r3, [r4, #32]
.L1306:
	cmp	r2, #1
	bne	.L1270
	ldr	r3, [r4]
	mov	r0, r4
	ldr	r3, [r3, #12]
	blx	r3
	b	.L1270
.L1398:
	ldr	r3, [r4]
	mov	r0, r4
	ldr	r3, [r3, #8]
	blx	r3
	add	r3, r4, #32
	mcr	p15, 0, r0, c7, c10, 5
	mcr	p15, 0, r0, c7, c10, 5
.L1360:
	ldrex	r2, [r3]
	sub	r1, r2, #1
	strex	r0, r1, [r3]
	cmp	r0, #0
	bne	.L1360
	mcr	p15, 0, r0, c7, c10, 5
.L1309:
	cmp	r2, #1
	bne	.L1234
	ldr	r3, [r4]
	mov	r0, r4
	ldr	r3, [r3, #12]
	blx	r3
	b	.L1234
.L1236:
.LEHB27:
	bl	_ZSt20__throw_bad_weak_ptrv(PLT)
.LEHE27:
.L1258:
	ldr	r3, [r0, #4]
	cmp	r3, #0
	beq	.L1257
	ldr	r1, [r3, #8]
	ldr	r2, [r3, #12]
	cmp	r1, #0
	add	r2, r2, #1
	mov	r0, #0
	str	r2, [r3, #12]
	str	r0, [r5]
	strne	r5, [r1]
	streq	r5, [r3, #8]
	strne	r5, [r3, #8]
	streq	r5, [r3, #4]
	b	.L1254
.L1266:
	ldrb	r2, [r4, #120]	@ zero_extendqisi2
	cmp	r2, #0
	bne	.L1268
	ldr	r0, [r4, #104]
	cmp	r0, #0
	beq	.L1268
	add	ip, r0, #48
	strb	r3, [r4, #120]
	mov	lr, #-2147483639
	str	r2, [sp, #4]
	str	r2, [sp, #12]
	mov	r3, sp
	ldr	r2, [r0, #48]
	mov	r1, #3
	ldr	r0, [r0, #56]
	str	lr, [sp]
	str	ip, [sp, #8]
	bl	epoll_ctl(PLT)
.L1268:
	mov	r0, r7
	bl	pthread_mutex_unlock(PLT)
	b	.L1254
.L1288:
	ldr	r3, [r4, #28]
	cmp	r3, #1
	sub	r3, r3, #1
	str	r3, [r4, #28]
	bne	.L1234
	ldr	r3, [r4]
	mov	r0, r4
	ldr	r3, [r3, #8]
	blx	r3
	mcr	p15, 0, r0, c7, c10, 5
	ldr	r2, [r4, #32]
	sub	r3, r2, #1
	str	r3, [r4, #32]
	b	.L1309
.L1277:
	ldr	r3, [r4, #28]
	cmp	r3, #1
	sub	r3, r3, #1
	str	r3, [r4, #28]
	bne	.L1276
	ldr	r3, [r4]
	mov	r0, r4
	ldr	r3, [r3, #8]
	blx	r3
	mcr	p15, 0, r0, c7, c10, 5
	ldr	r2, [r4, #32]
	sub	r3, r2, #1
	str	r3, [r4, #32]
.L1307:
	cmp	r2, #1
	bne	.L1276
	ldr	r3, [r4]
	mov	r0, r4
	ldr	r3, [r3, #12]
	blx	r3
	b	.L1276
.L1284:
	ldr	r3, [r4, #28]
	cmp	r3, #1
	sub	r3, r3, #1
	str	r3, [r4, #28]
	bne	.L1282
	ldr	r3, [r4]
	mov	r0, r4
	ldr	r3, [r3, #8]
	blx	r3
	mcr	p15, 0, r0, c7, c10, 5
	ldr	r2, [r4, #32]
	sub	r3, r2, #1
	str	r3, [r4, #32]
.L1308:
	cmp	r2, #1
	bne	.L1282
	ldr	r3, [r4]
	mov	r0, r4
	ldr	r3, [r3, #12]
	blx	r3
	b	.L1282
.L1393:
	ldr	r3, [sp, #32]
	ldr	r2, [sp, #28]
	cmp	r3, #0
	str	r3, [sp, #48]
	str	r2, [sp, #44]
	bne	.L1299
	b	.L1245
.L1400:
	str	r0, [sp, #44]
	str	r2, [sp, #48]
	b	.L1245
.L1396:
	ldr	r3, [r4]
	mov	r0, r4
	ldr	r3, [r3, #8]
	blx	r3
	add	r3, r4, #32
	mcr	p15, 0, r0, c7, c10, 5
	mcr	p15, 0, r0, c7, c10, 5
.L1362:
	ldrex	r2, [r3]
	sub	r1, r2, #1
	strex	r0, r1, [r3]
	cmp	r0, #0
	bne	.L1362
	mcr	p15, 0, r0, c7, c10, 5
	b	.L1307
.L1395:
	ldr	r3, [r4]
	mov	r0, r4
	ldr	r3, [r3, #8]
	blx	r3
	add	r3, r4, #32
	mcr	p15, 0, r0, c7, c10, 5
	mcr	p15, 0, r0, c7, c10, 5
.L1363:
	ldrex	r2, [r3]
	sub	r1, r2, #1
	strex	r0, r1, [r3]
	cmp	r0, #0
	bne	.L1363
	mcr	p15, 0, r0, c7, c10, 5
	b	.L1306
.L1397:
	ldr	r3, [r4]
	mov	r0, r4
	ldr	r3, [r3, #8]
	blx	r3
	add	r3, r4, #32
	mcr	p15, 0, r0, c7, c10, 5
	mcr	p15, 0, r0, c7, c10, 5
.L1361:
	ldrex	r2, [r3]
	sub	r1, r2, #1
	strex	r0, r1, [r3]
	cmp	r0, #0
	bne	.L1361
	mcr	p15, 0, r0, c7, c10, 5
	b	.L1308
.L1293:
	mov	r3, #0
	str	r3, [r4, #28]
.LEHB28:
	bl	_ZSt20__throw_bad_weak_ptrv(PLT)
.LEHE28:
.L1313:
	add	r0, sp, #36
	bl	_ZN9__gnu_cxx13__scoped_lockD1Ev(PLT)
.L1376:
.LEHB29:
	bl	__cxa_end_cleanup(PLT)
.L1390:
	mov	r0, #4
	bl	__cxa_allocate_exception(PLT)
	ldr	r1, .L1401+16
	ldr	r2, .L1401+20
	ldr	r3, .L1401+24
	ldr	r1, [r8, r1]
	add	r1, r1, #8
	str	r1, [r0]
	ldr	r2, [r8, r2]
	ldr	r1, [r8, r3]
	bl	__cxa_throw(PLT)
.LEHE29:
.L1391:
	mov	r0, #4
	bl	__cxa_allocate_exception(PLT)
	ldr	r1, .L1401+28
	ldr	r2, .L1401+32
	ldr	r3, .L1401+36
	ldr	r1, [r8, r1]
	add	r1, r1, #8
	str	r1, [r0]
	ldr	r2, [r8, r2]
	ldr	r1, [r8, r3]
.LEHB30:
	bl	__cxa_throw(PLT)
.LEHE30:
.L1314:
	cmn	r1, #1
	bne	.L1376
.LEHB31:
	bl	__cxa_call_unexpected(PLT)
.L1399:
	cmp	r6, #0
	ldr	r5, [r7, #36]
	str	r0, [sp, #36]
	str	r4, [sp, #40]
	mov	r2, r4
	bne	.L1310
	ldr	r2, [r4, #28]
	add	r2, r2, #1
	str	r2, [r4, #28]
	str	r3, [sp, #44]
	str	r6, [sp, #48]
	b	.L1245
.L1312:
	mov	r0, r10
	bl	_ZZN8asiodnp315OutstationStack5ApplyERKNS_7UpdatesEENUlvE_D1Ev(PLT)
	add	r0, sp, #20
	bl	_ZZN8asiodnp315OutstationStack5ApplyERKNS_7UpdatesEENUlvE_D1Ev(PLT)
	bl	__cxa_end_cleanup(PLT)
.LEHE31:
.L1402:
	.align	2
.L1401:
	.word	_GLOBAL_OFFSET_TABLE_-(.LPIC98+8)
	.word	_ZL28__gthrw___pthread_key_createPjPFvPvE(GOT)
	.word	_ZN4asio6detail10call_stackINS0_15task_io_serviceENS0_27task_io_service_thread_infoEE4top_E(GOT)
	.word	_ZN4asio6detail18completion_handlerIZN8asiodnp315OutstationStack5ApplyERKNS2_7UpdatesEEUlvE_E11do_completeEPNS0_15task_io_serviceEPNS0_25task_io_service_operationERKSt10error_codej-(.LPIC99+8)
	.word	_ZTVN9__gnu_cxx24__concurrence_lock_errorE(GOT)
	.word	_ZN9__gnu_cxx24__concurrence_lock_errorD1Ev(GOT)
	.word	_ZTIN9__gnu_cxx24__concurrence_lock_errorE(GOT)
	.word	_ZTVN9__gnu_cxx26__concurrence_unlock_errorE(GOT)
	.word	_ZN9__gnu_cxx26__concurrence_unlock_errorD1Ev(GOT)
	.word	_ZTIN9__gnu_cxx26__concurrence_unlock_errorE(GOT)
	.personality	__gxx_personality_v0
	.handlerdata
	.align	2
.LLSDA8205:
	.byte	0xff
	.byte	0x90
	.uleb128 .LLSDATT8205-.LLSDATTD8205
.LLSDATTD8205:
	.byte	0x1
	.uleb128 .LLSDACSE8205-.LLSDACSB8205
.LLSDACSB8205:
	.uleb128 .LEHB26-.LFB8205
	.uleb128 .LEHE26-.LEHB26
	.uleb128 .L1312-.LFB8205
	.uleb128 0
	.uleb128 .LEHB27-.LFB8205
	.uleb128 .LEHE27-.LEHB27
	.uleb128 0
	.uleb128 0
	.uleb128 .LEHB28-.LFB8205
	.uleb128 .LEHE28-.LEHB28
	.uleb128 .L1313-.LFB8205
	.uleb128 0
	.uleb128 .LEHB29-.LFB8205
	.uleb128 .LEHE29-.LEHB29
	.uleb128 0
	.uleb128 0
	.uleb128 .LEHB30-.LFB8205
	.uleb128 .LEHE30-.LEHB30
	.uleb128 .L1314-.LFB8205
	.uleb128 0x1
	.uleb128 .LEHB31-.LFB8205
	.uleb128 .LEHE31-.LEHB31
	.uleb128 0
	.uleb128 0
.LLSDACSE8205:
	.byte	0x7f
	.byte	0
	.align	2
.LLSDATT8205:
	.word	0
	.text
	.fnend
	.size	_ZN8asiodnp315OutstationStack5ApplyERKNS_7UpdatesE, .-_ZN8asiodnp315OutstationStack5ApplyERKNS_7UpdatesE
	.section	.text._ZN7openpal6LoggerD2Ev,"axG",%progbits,_ZN7openpal6LoggerD5Ev,comdat
	.align	2
	.weak	_ZN7openpal6LoggerD2Ev
	.syntax unified
	.arm
	.fpu vfp
	.type	_ZN7openpal6LoggerD2Ev, %function
_ZN7openpal6LoggerD2Ev:
	.fnstart
.LFB7299:
	@ args = 0, pretend = 0, frame = 0
	@ frame_needed = 0, uses_anonymous_args = 0
	push	{r4, r5, r6, lr}
	mov	r4, r0
	ldr	r5, [r0, #12]
	ldr	r6, .L1430
	cmp	r5, #0
.LPIC100:
	add	r6, pc, r6
	beq	.L1405
	ldr	r3, .L1430+4
	ldr	r3, [r6, r3]
	cmp	r3, #0
	beq	.L1406
	add	r3, r5, #28
	mcr	p15, 0, r0, c7, c10, 5
.L1422:
	ldrex	r2, [r3]
	sub	r1, r2, #1
	strex	r0, r1, [r3]
	cmp	r0, #0
	bne	.L1422
	cmp	r2, #1
	mcr	p15, 0, r0, c7, c10, 5
	beq	.L1428
.L1405:
	ldr	r5, [r4, #4]
	cmp	r5, #0
	beq	.L1418
	ldr	r3, .L1430+4
	ldr	r3, [r6, r3]
	cmp	r3, #0
	beq	.L1412
	add	r3, r5, #28
	mcr	p15, 0, r0, c7, c10, 5
.L1421:
	ldrex	r2, [r3]
	sub	r1, r2, #1
	strex	r0, r1, [r3]
	cmp	r0, #0
	bne	.L1421
	cmp	r2, #1
	mcr	p15, 0, r0, c7, c10, 5
	beq	.L1429
.L1418:
	mov	r0, r4
	pop	{r4, r5, r6, pc}
.L1406:
	ldr	r3, [r5, #28]
	cmp	r3, #1
	sub	r3, r3, #1
	str	r3, [r5, #28]
	bne	.L1405
	ldr	r3, [r5]
	mov	r0, r5
	ldr	r3, [r3, #8]
	blx	r3
	mcr	p15, 0, r0, c7, c10, 5
	ldr	r2, [r5, #32]
	sub	r3, r2, #1
	str	r3, [r5, #32]
	b	.L1416
.L1412:
	ldr	r3, [r5, #28]
	cmp	r3, #1
	sub	r3, r3, #1
	str	r3, [r5, #28]
	bne	.L1418
	ldr	r3, [r5]
	mov	r0, r5
	ldr	r3, [r3, #8]
	blx	r3
	mcr	p15, 0, r0, c7, c10, 5
	ldr	r2, [r5, #32]
	sub	r3, r2, #1
	str	r3, [r5, #32]
	b	.L1417
.L1429:
	ldr	r3, [r5]
	mov	r0, r5
	ldr	r3, [r3, #8]
	blx	r3
	add	r3, r5, #32
	mcr	p15, 0, r0, c7, c10, 5
	mcr	p15, 0, r0, c7, c10, 5
.L1419:
	ldrex	r2, [r3]
	sub	r1, r2, #1
	strex	r0, r1, [r3]
	cmp	r0, #0
	bne	.L1419
	mcr	p15, 0, r0, c7, c10, 5
.L1417:
	cmp	r2, #1
	bne	.L1418
	ldr	r3, [r5]
	mov	r0, r5
	ldr	r3, [r3, #12]
	blx	r3
	b	.L1418
.L1428:
	ldr	r3, [r5]
	mov	r0, r5
	ldr	r3, [r3, #8]
	blx	r3
	add	r3, r5, #32
	mcr	p15, 0, r0, c7, c10, 5
	mcr	p15, 0, r0, c7, c10, 5
.L1420:
	ldrex	r2, [r3]
	sub	r1, r2, #1
	strex	r0, r1, [r3]
	cmp	r0, #0
	bne	.L1420
	mcr	p15, 0, r0, c7, c10, 5
.L1416:
	cmp	r2, #1
	bne	.L1405
	ldr	r3, [r5]
	mov	r0, r5
	ldr	r3, [r3, #12]
	blx	r3
	b	.L1405
.L1431:
	.align	2
.L1430:
	.word	_GLOBAL_OFFSET_TABLE_-(.LPIC100+8)
	.word	_ZL28__gthrw___pthread_key_createPjPFvPvE(GOT)
	.cantunwind
	.fnend
	.size	_ZN7openpal6LoggerD2Ev, .-_ZN7openpal6LoggerD2Ev
	.weak	_ZN7openpal6LoggerD1Ev
	.set	_ZN7openpal6LoggerD1Ev,_ZN7openpal6LoggerD2Ev
	.section	.text._ZN8asiodnp39StackBaseD2Ev,"axG",%progbits,_ZN8asiodnp39StackBaseD5Ev,comdat
	.align	2
	.weak	_ZN8asiodnp39StackBaseD2Ev
	.syntax unified
	.arm
	.fpu vfp
	.type	_ZN8asiodnp39StackBaseD2Ev, %function
_ZN8asiodnp39StackBaseD2Ev:
	.fnstart
.LFB8133:
	@ args = 0, pretend = 0, frame = 0
	@ frame_needed = 0, uses_anonymous_args = 0
	push	{r4, r5, r6, lr}
	mov	r4, r0
	ldr	r6, [r0, #52]
	ldr	r5, .L1519
	cmp	r6, #0
.LPIC101:
	add	r5, pc, r5
	beq	.L1434
	ldr	r3, .L1519+4
	ldr	r3, [r5, r3]
	cmp	r3, #0
	beq	.L1435
	add	r3, r6, #28
	mcr	p15, 0, r0, c7, c10, 5
.L1496:
	ldrex	r2, [r3]
	sub	r1, r2, #1
	strex	r0, r1, [r3]
	cmp	r0, #0
	bne	.L1496
	cmp	r2, #1
	mcr	p15, 0, r0, c7, c10, 5
	beq	.L1512
.L1434:
	ldr	r6, [r4, #44]
	cmp	r6, #0
	beq	.L1440
	ldr	r3, .L1519+4
	ldr	r3, [r5, r3]
	cmp	r3, #0
	beq	.L1441
	add	r3, r6, #28
	mcr	p15, 0, r0, c7, c10, 5
.L1495:
	ldrex	r2, [r3]
	sub	r1, r2, #1
	strex	r0, r1, [r3]
	cmp	r0, #0
	bne	.L1495
	cmp	r2, #1
	mcr	p15, 0, r0, c7, c10, 5
	beq	.L1513
.L1440:
	ldr	r6, [r4, #36]
	cmp	r6, #0
	beq	.L1446
	ldr	r3, .L1519+4
	ldr	r3, [r5, r3]
	cmp	r3, #0
	beq	.L1447
	add	r3, r6, #28
	mcr	p15, 0, r0, c7, c10, 5
.L1494:
	ldrex	r2, [r3]
	sub	r1, r2, #1
	strex	r0, r1, [r3]
	cmp	r0, #0
	bne	.L1494
	cmp	r2, #1
	mcr	p15, 0, r0, c7, c10, 5
	beq	.L1514
.L1446:
	ldr	r6, [r4, #28]
	cmp	r6, #0
	beq	.L1452
	ldr	r3, .L1519+4
	ldr	r3, [r5, r3]
	cmp	r3, #0
	beq	.L1453
	add	r3, r6, #28
	mcr	p15, 0, r0, c7, c10, 5
.L1493:
	ldrex	r2, [r3]
	sub	r1, r2, #1
	strex	r0, r1, [r3]
	cmp	r0, #0
	bne	.L1493
	cmp	r2, #1
	mcr	p15, 0, r0, c7, c10, 5
	beq	.L1515
.L1452:
	ldr	r6, [r4, #20]
	cmp	r6, #0
	beq	.L1458
	ldr	r3, .L1519+4
	ldr	r3, [r5, r3]
	cmp	r3, #0
	beq	.L1459
	add	r3, r6, #28
	mcr	p15, 0, r0, c7, c10, 5
.L1492:
	ldrex	r2, [r3]
	sub	r1, r2, #1
	strex	r0, r1, [r3]
	cmp	r0, #0
	bne	.L1492
	cmp	r2, #1
	mcr	p15, 0, r0, c7, c10, 5
	beq	.L1516
.L1458:
	ldr	r6, [r4, #12]
	cmp	r6, #0
	beq	.L1464
	ldr	r3, .L1519+4
	ldr	r3, [r5, r3]
	cmp	r3, #0
	beq	.L1465
	add	r3, r6, #28
	mcr	p15, 0, r0, c7, c10, 5
.L1491:
	ldrex	r2, [r3]
	sub	r1, r2, #1
	strex	r0, r1, [r3]
	cmp	r0, #0
	bne	.L1491
	cmp	r2, #1
	mcr	p15, 0, r0, c7, c10, 5
	beq	.L1517
.L1464:
	ldr	r6, [r4, #4]
	cmp	r6, #0
	beq	.L1482
	ldr	r3, .L1519+4
	ldr	r3, [r5, r3]
	cmp	r3, #0
	beq	.L1471
	add	r3, r6, #28
	mcr	p15, 0, r0, c7, c10, 5
.L1490:
	ldrex	r2, [r3]
	sub	r1, r2, #1
	strex	r0, r1, [r3]
	cmp	r0, #0
	bne	.L1490
	cmp	r2, #1
	mcr	p15, 0, r0, c7, c10, 5
	beq	.L1518
.L1482:
	mov	r0, r4
	pop	{r4, r5, r6, pc}
.L1435:
	ldr	r3, [r6, #28]
	cmp	r3, #1
	sub	r3, r3, #1
	str	r3, [r6, #28]
	bne	.L1434
	ldr	r3, [r6]
	mov	r0, r6
	ldr	r3, [r3, #8]
	blx	r3
	mcr	p15, 0, r0, c7, c10, 5
	ldr	r2, [r6, #32]
	sub	r3, r2, #1
	str	r3, [r6, #32]
	b	.L1475
.L1465:
	ldr	r3, [r6, #28]
	cmp	r3, #1
	sub	r3, r3, #1
	str	r3, [r6, #28]
	bne	.L1464
	ldr	r3, [r6]
	mov	r0, r6
	ldr	r3, [r3, #8]
	blx	r3
	mcr	p15, 0, r0, c7, c10, 5
	ldr	r2, [r6, #32]
	sub	r3, r2, #1
	str	r3, [r6, #32]
	b	.L1480
.L1447:
	ldr	r3, [r6, #28]
	cmp	r3, #1
	sub	r3, r3, #1
	str	r3, [r6, #28]
	bne	.L1446
	ldr	r3, [r6]
	mov	r0, r6
	ldr	r3, [r3, #8]
	blx	r3
	mcr	p15, 0, r0, c7, c10, 5
	ldr	r2, [r6, #32]
	sub	r3, r2, #1
	str	r3, [r6, #32]
	b	.L1477
.L1453:
	ldr	r3, [r6, #28]
	cmp	r3, #1
	sub	r3, r3, #1
	str	r3, [r6, #28]
	bne	.L1452
	ldr	r3, [r6]
	mov	r0, r6
	ldr	r3, [r3, #8]
	blx	r3
	mcr	p15, 0, r0, c7, c10, 5
	ldr	r2, [r6, #32]
	sub	r3, r2, #1
	str	r3, [r6, #32]
	b	.L1478
.L1459:
	ldr	r3, [r6, #28]
	cmp	r3, #1
	sub	r3, r3, #1
	str	r3, [r6, #28]
	bne	.L1458
	ldr	r3, [r6]
	mov	r0, r6
	ldr	r3, [r3, #8]
	blx	r3
	mcr	p15, 0, r0, c7, c10, 5
	ldr	r2, [r6, #32]
	sub	r3, r2, #1
	str	r3, [r6, #32]
	b	.L1479
.L1441:
	ldr	r3, [r6, #28]
	cmp	r3, #1
	sub	r3, r3, #1
	str	r3, [r6, #28]
	bne	.L1440
	ldr	r3, [r6]
	mov	r0, r6
	ldr	r3, [r3, #8]
	blx	r3
	mcr	p15, 0, r0, c7, c10, 5
	ldr	r2, [r6, #32]
	sub	r3, r2, #1
	str	r3, [r6, #32]
	b	.L1476
.L1471:
	ldr	r3, [r6, #28]
	cmp	r3, #1
	sub	r3, r3, #1
	str	r3, [r6, #28]
	bne	.L1482
	ldr	r3, [r6]
	mov	r0, r6
	ldr	r3, [r3, #8]
	blx	r3
	mcr	p15, 0, r0, c7, c10, 5
	ldr	r2, [r6, #32]
	sub	r3, r2, #1
	str	r3, [r6, #32]
	b	.L1481
.L1516:
	ldr	r3, [r6]
	mov	r0, r6
	ldr	r3, [r3, #8]
	blx	r3
	add	r3, r6, #32
	mcr	p15, 0, r0, c7, c10, 5
	mcr	p15, 0, r0, c7, c10, 5
.L1485:
	ldrex	r2, [r3]
	sub	r1, r2, #1
	strex	r0, r1, [r3]
	cmp	r0, #0
	bne	.L1485
	mcr	p15, 0, r0, c7, c10, 5
.L1479:
	cmp	r2, #1
	bne	.L1458
	ldr	r3, [r6]
	mov	r0, r6
	ldr	r3, [r3, #12]
	blx	r3
	b	.L1458
.L1518:
	ldr	r3, [r6]
	mov	r0, r6
	ldr	r3, [r3, #8]
	blx	r3
	add	r3, r6, #32
	mcr	p15, 0, r0, c7, c10, 5
	mcr	p15, 0, r0, c7, c10, 5
.L1483:
	ldrex	r2, [r3]
	sub	r1, r2, #1
	strex	r0, r1, [r3]
	cmp	r0, #0
	bne	.L1483
	mcr	p15, 0, r0, c7, c10, 5
.L1481:
	cmp	r2, #1
	bne	.L1482
	ldr	r3, [r6]
	mov	r0, r6
	ldr	r3, [r3, #12]
	blx	r3
	b	.L1482
.L1513:
	ldr	r3, [r6]
	mov	r0, r6
	ldr	r3, [r3, #8]
	blx	r3
	add	r3, r6, #32
	mcr	p15, 0, r0, c7, c10, 5
	mcr	p15, 0, r0, c7, c10, 5
.L1488:
	ldrex	r2, [r3]
	sub	r1, r2, #1
	strex	r0, r1, [r3]
	cmp	r0, #0
	bne	.L1488
	mcr	p15, 0, r0, c7, c10, 5
.L1476:
	cmp	r2, #1
	bne	.L1440
	ldr	r3, [r6]
	mov	r0, r6
	ldr	r3, [r3, #12]
	blx	r3
	b	.L1440
.L1512:
	ldr	r3, [r6]
	mov	r0, r6
	ldr	r3, [r3, #8]
	blx	r3
	add	r3, r6, #32
	mcr	p15, 0, r0, c7, c10, 5
	mcr	p15, 0, r0, c7, c10, 5
.L1489:
	ldrex	r2, [r3]
	sub	r1, r2, #1
	strex	r0, r1, [r3]
	cmp	r0, #0
	bne	.L1489
	mcr	p15, 0, r0, c7, c10, 5
.L1475:
	cmp	r2, #1
	bne	.L1434
	ldr	r3, [r6]
	mov	r0, r6
	ldr	r3, [r3, #12]
	blx	r3
	b	.L1434
.L1514:
	ldr	r3, [r6]
	mov	r0, r6
	ldr	r3, [r3, #8]
	blx	r3
	add	r3, r6, #32
	mcr	p15, 0, r0, c7, c10, 5
	mcr	p15, 0, r0, c7, c10, 5
.L1487:
	ldrex	r2, [r3]
	sub	r1, r2, #1
	strex	r0, r1, [r3]
	cmp	r0, #0
	bne	.L1487
	mcr	p15, 0, r0, c7, c10, 5
.L1477:
	cmp	r2, #1
	bne	.L1446
	ldr	r3, [r6]
	mov	r0, r6
	ldr	r3, [r3, #12]
	blx	r3
	b	.L1446
.L1515:
	ldr	r3, [r6]
	mov	r0, r6
	ldr	r3, [r3, #8]
	blx	r3
	add	r3, r6, #32
	mcr	p15, 0, r0, c7, c10, 5
	mcr	p15, 0, r0, c7, c10, 5
.L1486:
	ldrex	r2, [r3]
	sub	r1, r2, #1
	strex	r0, r1, [r3]
	cmp	r0, #0
	bne	.L1486
	mcr	p15, 0, r0, c7, c10, 5
.L1478:
	cmp	r2, #1
	bne	.L1452
	ldr	r3, [r6]
	mov	r0, r6
	ldr	r3, [r3, #12]
	blx	r3
	b	.L1452
.L1517:
	ldr	r3, [r6]
	mov	r0, r6
	ldr	r3, [r3, #8]
	blx	r3
	add	r3, r6, #32
	mcr	p15, 0, r0, c7, c10, 5
	mcr	p15, 0, r0, c7, c10, 5
.L1484:
	ldrex	r2, [r3]
	sub	r1, r2, #1
	strex	r0, r1, [r3]
	cmp	r0, #0
	bne	.L1484
	mcr	p15, 0, r0, c7, c10, 5
.L1480:
	cmp	r2, #1
	bne	.L1464
	ldr	r3, [r6]
	mov	r0, r6
	ldr	r3, [r3, #12]
	blx	r3
	b	.L1464
.L1520:
	.align	2
.L1519:
	.word	_GLOBAL_OFFSET_TABLE_-(.LPIC101+8)
	.word	_ZL28__gthrw___pthread_key_createPjPFvPvE(GOT)
	.cantunwind
	.fnend
	.size	_ZN8asiodnp39StackBaseD2Ev, .-_ZN8asiodnp39StackBaseD2Ev
	.weak	_ZN8asiodnp39StackBaseD1Ev
	.set	_ZN8asiodnp39StackBaseD1Ev,_ZN8asiodnp39StackBaseD2Ev
	.section	.text._ZZSt9call_onceIMNSt13__future_base13_State_baseV2EFvPSt8functionIFSt10unique_ptrINS0_12_Result_baseENS4_8_DeleterEEvEEPbEJPS1_S9_SA_EEvRSt9once_flagOT_DpOT0_ENKUlvE0_clEv,"axG",%progbits,_ZZSt9call_onceIMNSt13__future_base13_State_baseV2EFvPSt8functionIFSt10unique_ptrINS0_12_Result_baseENS4_8_DeleterEEvEEPbEJPS1_S9_SA_EEvRSt9once_flagOT_DpOT0_ENKUlvE0_clEv,comdat
	.align	2
	.weak	_ZZSt9call_onceIMNSt13__future_base13_State_baseV2EFvPSt8functionIFSt10unique_ptrINS0_12_Result_baseENS4_8_DeleterEEvEEPbEJPS1_S9_SA_EEvRSt9once_flagOT_DpOT0_ENKUlvE0_clEv
	.syntax unified
	.arm
	.fpu vfp
	.type	_ZZSt9call_onceIMNSt13__future_base13_State_baseV2EFvPSt8functionIFSt10unique_ptrINS0_12_Result_baseENS4_8_DeleterEEvEEPbEJPS1_S9_SA_EEvRSt9once_flagOT_DpOT0_ENKUlvE0_clEv, %function
_ZZSt9call_onceIMNSt13__future_base13_State_baseV2EFvPSt8functionIFSt10unique_ptrINS0_12_Result_baseENS4_8_DeleterEEvEEPbEJPS1_S9_SA_EEvRSt9once_flagOT_DpOT0_ENKUlvE0_clEv:
	.fnstart
.LFB8794:
	@ args = 0, pretend = 0, frame = 0
	@ frame_needed = 0, uses_anonymous_args = 0
	ldr	r0, .L1525
	push	{r4, lr}
.LPIC102:
	add	r0, pc, r0
	bl	__tls_get_addr(PLT)
	ldr	r3, [r0]
	ldr	lr, [r3]
	ldmib	r3, {r1, r2}
	ldr	r3, [r3, #12]
	ldr	ip, [lr, #4]
	ldr	r0, [r1]
	tst	ip, #1
	ldr	r1, [r2]
	ldr	r2, [r3]
	ldr	r3, [lr]
	ldrne	lr, [r0, ip, asr #1]
	addeq	r0, r0, ip, asr #1
	addne	r0, r0, ip, asr #1
	ldrne	r3, [lr, r3]
	pop	{r4, lr}
	bx	r3	@ indirect register sibling call
.L1526:
	.align	2
.L1525:
	.word	_ZSt15__once_callable(tlsgd) + (. - .LPIC102 - 8)
	.cantunwind
	.fnend
	.size	_ZZSt9call_onceIMNSt13__future_base13_State_baseV2EFvPSt8functionIFSt10unique_ptrINS0_12_Result_baseENS4_8_DeleterEEvEEPbEJPS1_S9_SA_EEvRSt9once_flagOT_DpOT0_ENKUlvE0_clEv, .-_ZZSt9call_onceIMNSt13__future_base13_State_baseV2EFvPSt8functionIFSt10unique_ptrINS0_12_Result_baseENS4_8_DeleterEEvEEPbEJPS1_S9_SA_EEvRSt9once_flagOT_DpOT0_ENKUlvE0_clEv
	.section	.text._ZNSt16_Sp_counted_baseILN9__gnu_cxx12_Lock_policyE1EE10_M_releaseEv,"axG",%progbits,_ZNSt16_Sp_counted_baseILN9__gnu_cxx12_Lock_policyE1EE10_M_releaseEv,comdat
	.align	2
	.weak	_ZNSt16_Sp_counted_baseILN9__gnu_cxx12_Lock_policyE1EE10_M_releaseEv
	.syntax unified
	.arm
	.fpu vfp
	.type	_ZNSt16_Sp_counted_baseILN9__gnu_cxx12_Lock_policyE1EE10_M_releaseEv, %function
_ZNSt16_Sp_counted_baseILN9__gnu_cxx12_Lock_policyE1EE10_M_releaseEv:
	.fnstart
.LFB9443:
	@ args = 0, pretend = 0, frame = 0
	@ frame_needed = 0, uses_anonymous_args = 0
	ldr	r3, .L1539
	ldr	r2, .L1539+4
.LPIC103:
	add	r3, pc, r3
	push	{r4, r5, r6, lr}
	mov	r4, r0
	ldr	r3, [r3, r2]
	cmp	r3, #0
	beq	.L1528
	add	r3, r0, #28
	mcr	p15, 0, r0, c7, c10, 5
.L1535:
	ldrex	r2, [r3]
	sub	r1, r2, #1
	strex	ip, r1, [r3]
	cmp	ip, #0
	bne	.L1535
	cmp	r2, #1
	mcr	p15, 0, r0, c7, c10, 5
	popne	{r4, r5, r6, pc}
	mov	r5, r4
	ldr	r3, [r5], #32
	ldr	r3, [r3, #8]
	blx	r3
	mcr	p15, 0, r0, c7, c10, 5
	mcr	p15, 0, r0, c7, c10, 5
.L1534:
	ldrex	r3, [r5]
	sub	r2, r3, #1
	strex	r1, r2, [r5]
	cmp	r1, #0
	bne	.L1534
	mcr	p15, 0, r0, c7, c10, 5
.L1533:
	cmp	r3, #1
	popne	{r4, r5, r6, pc}
	ldr	r3, [r4]
	mov	r0, r4
	pop	{r4, r5, r6, lr}
	ldr	r3, [r3, #12]
	bx	r3	@ indirect register sibling call
.L1528:
	ldr	r3, [r0, #28]
	cmp	r3, #1
	sub	r3, r3, #1
	str	r3, [r0, #28]
	popne	{r4, r5, r6, pc}
	ldr	r3, [r0]
	ldr	r3, [r3, #8]
	blx	r3
	mcr	p15, 0, r0, c7, c10, 5
	ldr	r3, [r4, #32]
	sub	r2, r3, #1
	str	r2, [r4, #32]
	b	.L1533
.L1540:
	.align	2
.L1539:
	.word	_GLOBAL_OFFSET_TABLE_-(.LPIC103+8)
	.word	_ZL28__gthrw___pthread_key_createPjPFvPvE(GOT)
	.cantunwind
	.fnend
	.size	_ZNSt16_Sp_counted_baseILN9__gnu_cxx12_Lock_policyE1EE10_M_releaseEv, .-_ZNSt16_Sp_counted_baseILN9__gnu_cxx12_Lock_policyE1EE10_M_releaseEv
	.text
	.align	2
	.syntax unified
	.arm
	.fpu vfp
	.type	_ZN4asio6detail18completion_handlerIZN8asiodnp315OutstationStack13SetRestartIINEvEUlvE_E11do_completeEPNS0_15task_io_serviceEPNS0_25task_io_service_operationERKSt10error_codej, %function
_ZN4asio6detail18completion_handlerIZN8asiodnp315OutstationStack13SetRestartIINEvEUlvE_E11do_completeEPNS0_15task_io_serviceEPNS0_25task_io_service_operationERKSt10error_codej:
	.fnstart
.LFB10573:
	@ args = 0, pretend = 0, frame = 8
	@ frame_needed = 0, uses_anonymous_args = 0
	push	{r4, r5, r6, r7, r8, lr}
	.save {r4, r5, r6, r7, r8, lr}
	mov	r7, r0
	ldr	r5, .L1575
	ldr	r3, .L1575+4
.LPIC104:
	add	r5, pc, r5
	.pad #8
	sub	sp, sp, #8
	ldr	r3, [r5, r3]
	mov	r4, r1
	ldr	r8, [r1, #12]
	ldr	r0, [r3]
	ldr	r6, [r1, #16]
	bl	pthread_getspecific(PLT)
	cmp	r0, #0
	beq	.L1542
	ldr	r3, [r0, #4]
	cmp	r3, #0
	beq	.L1542
	ldr	r2, [r3]
	cmp	r2, #0
	beq	.L1573
.L1542:
	mov	r0, r4
	bl	_ZdlPv(PLT)
.L1543:
	cmp	r7, #0
	beq	.L1544
	add	r3, sp, #8
	mov	r2, #0
	str	r2, [r3, #-4]!
	mov	r2, #1
.L1569:
	ldrex	r1, [r3]
	strex	r0, r2, [r3]
	cmp	r0, #0
	bne	.L1569
	mcr	p15, 0, r0, c7, c10, 5
	add	r0, r8, #80
.LEHB32:
	bl	_ZN8opendnp38OContext13SetRestartIINEv(PLT)
.LEHE32:
	mov	r3, #0
	mcr	p15, 0, r0, c7, c10, 5
	str	r3, [sp, #4]
.L1544:
	cmp	r6, #0
	beq	.L1541
	ldr	r3, .L1575+8
	ldr	r3, [r5, r3]
	cmp	r3, #0
	beq	.L1547
	add	r3, r6, #28
	mcr	p15, 0, r0, c7, c10, 5
.L1568:
	ldrex	r2, [r3]
	sub	r1, r2, #1
	strex	r0, r1, [r3]
	cmp	r0, #0
	bne	.L1568
	cmp	r2, #1
	mcr	p15, 0, r0, c7, c10, 5
	beq	.L1574
.L1541:
	add	sp, sp, #8
	@ sp needed
	pop	{r4, r5, r6, r7, r8, pc}
.L1547:
	ldr	r3, [r6, #28]
	cmp	r3, #1
	sub	r3, r3, #1
	str	r3, [r6, #28]
	bne	.L1541
	ldr	r3, [r6]
	mov	r0, r6
	ldr	r3, [r3, #8]
	blx	r3
	mcr	p15, 0, r0, c7, c10, 5
	ldr	r2, [r6, #32]
	sub	r3, r2, #1
	str	r3, [r6, #32]
	b	.L1553
.L1574:
	ldr	r3, [r6]
	mov	r0, r6
	ldr	r3, [r3, #8]
	blx	r3
	add	r3, r6, #32
	mcr	p15, 0, r0, c7, c10, 5
	mcr	p15, 0, r0, c7, c10, 5
.L1567:
	ldrex	r2, [r3]
	sub	r1, r2, #1
	strex	r0, r1, [r3]
	cmp	r0, #0
	bne	.L1567
	mcr	p15, 0, r0, c7, c10, 5
.L1553:
	cmp	r2, #1
	bne	.L1541
	ldr	r3, [r6]
	mov	r0, r6
	ldr	r3, [r3, #12]
	blx	r3
	b	.L1541
.L1573:
	ldrb	r2, [r4, #20]	@ zero_extendqisi2
	strb	r2, [r4]
	str	r4, [r3]
	b	.L1543
.L1554:
	mov	r3, #0
	cmp	r6, #0
	mcr	p15, 0, r0, c7, c10, 5
	str	r3, [sp, #4]
	beq	.L1552
	mov	r0, r6
	bl	_ZNSt16_Sp_counted_baseILN9__gnu_cxx12_Lock_policyE1EE10_M_releaseEv(PLT)
.L1552:
.LEHB33:
	bl	__cxa_end_cleanup(PLT)
.LEHE33:
.L1576:
	.align	2
.L1575:
	.word	_GLOBAL_OFFSET_TABLE_-(.LPIC104+8)
	.word	_ZN4asio6detail10call_stackINS0_15task_io_serviceENS0_27task_io_service_thread_infoEE4top_E(GOT)
	.word	_ZL28__gthrw___pthread_key_createPjPFvPvE(GOT)
	.personality	__gxx_personality_v0
	.handlerdata
.LLSDA10573:
	.byte	0xff
	.byte	0xff
	.byte	0x1
	.uleb128 .LLSDACSE10573-.LLSDACSB10573
.LLSDACSB10573:
	.uleb128 .LEHB32-.LFB10573
	.uleb128 .LEHE32-.LEHB32
	.uleb128 .L1554-.LFB10573
	.uleb128 0
	.uleb128 .LEHB33-.LFB10573
	.uleb128 .LEHE33-.LEHB33
	.uleb128 0
	.uleb128 0
.LLSDACSE10573:
	.text
	.fnend
	.size	_ZN4asio6detail18completion_handlerIZN8asiodnp315OutstationStack13SetRestartIINEvEUlvE_E11do_completeEPNS0_15task_io_serviceEPNS0_25task_io_service_operationERKSt10error_codej, .-_ZN4asio6detail18completion_handlerIZN8asiodnp315OutstationStack13SetRestartIINEvEUlvE_E11do_completeEPNS0_15task_io_serviceEPNS0_25task_io_service_operationERKSt10error_codej
	.align	2
	.syntax unified
	.arm
	.fpu vfp
	.type	_ZNSt17_Function_handlerIFbvEZN8asiodnp315OutstationStack6EnableEvEUlvE_E9_M_invokeERKSt9_Any_data, %function
_ZNSt17_Function_handlerIFbvEZN8asiodnp315OutstationStack6EnableEvEUlvE_E9_M_invokeERKSt9_Any_data:
	.fnstart
.LFB9819:
	@ args = 0, pretend = 0, frame = 8
	@ frame_needed = 0, uses_anonymous_args = 0
	ldr	r3, [r0]
	push	{r4, r5, r6, lr}
	.save {r4, r5, r6, lr}
	.pad #8
	sub	sp, sp, #8
	ldm	r3, {r2, r3}
	ldr	r4, .L1604
	add	r1, r2, #4
	cmp	r3, #0
.LPIC105:
	add	r4, pc, r4
	stm	sp, {r1, r3}
	ldr	r0, [r2, #44]
	beq	.L1578
	ldr	r2, .L1604+4
	ldr	r2, [r4, r2]
	cmp	r2, #0
	beq	.L1579
	add	r3, r3, #28
	mcr	p15, 0, r0, c7, c10, 5
.L1599:
	ldrex	r2, [r3]
	add	r2, r2, #1
	strex	r1, r2, [r3]
	cmp	r1, #0
	bne	.L1599
	mcr	p15, 0, r0, c7, c10, 5
.L1578:
	mov	r1, sp
.LEHB34:
	bl	_ZN8asiodnp39IOHandler6EnableERKSt10shared_ptrIN8opendnp312ILinkSessionEE(PLT)
.LEHE34:
	ldr	r5, [sp, #4]
	mov	r6, r0
	cmp	r5, #0
	beq	.L1590
	ldr	r3, .L1604+4
	ldr	r3, [r4, r3]
	cmp	r3, #0
	beq	.L1582
	add	r3, r5, #28
	mcr	p15, 0, r0, c7, c10, 5
.L1598:
	ldrex	r2, [r3]
	sub	r1, r2, #1
	strex	r0, r1, [r3]
	cmp	r0, #0
	bne	.L1598
	cmp	r2, #1
	mcr	p15, 0, r0, c7, c10, 5
	beq	.L1603
.L1590:
	mov	r0, r6
	add	sp, sp, #8
	@ sp needed
	pop	{r4, r5, r6, pc}
.L1579:
	ldr	r2, [r3, #28]
	add	r2, r2, #1
	str	r2, [r3, #28]
	b	.L1578
.L1582:
	ldr	r3, [r5, #28]
	cmp	r3, #1
	sub	r3, r3, #1
	str	r3, [r5, #28]
	bne	.L1590
	ldr	r3, [r5]
	mov	r0, r5
	ldr	r3, [r3, #8]
	blx	r3
	mcr	p15, 0, r0, c7, c10, 5
	ldr	r2, [r5, #32]
	sub	r3, r2, #1
	str	r3, [r5, #32]
	b	.L1588
.L1603:
	ldr	r3, [r5]
	mov	r0, r5
	ldr	r3, [r3, #8]
	blx	r3
	add	r3, r5, #32
	mcr	p15, 0, r0, c7, c10, 5
	mcr	p15, 0, r0, c7, c10, 5
.L1597:
	ldrex	r2, [r3]
	sub	r1, r2, #1
	strex	r0, r1, [r3]
	cmp	r0, #0
	bne	.L1597
	mcr	p15, 0, r0, c7, c10, 5
.L1588:
	cmp	r2, #1
	bne	.L1590
	ldr	r3, [r5]
	mov	r0, r5
	ldr	r3, [r3, #12]
	blx	r3
	b	.L1590
.L1589:
	ldr	r0, [sp, #4]
	cmp	r0, #0
	beq	.L1587
	bl	_ZNSt16_Sp_counted_baseILN9__gnu_cxx12_Lock_policyE1EE10_M_releaseEv(PLT)
.L1587:
.LEHB35:
	bl	__cxa_end_cleanup(PLT)
.LEHE35:
.L1605:
	.align	2
.L1604:
	.word	_GLOBAL_OFFSET_TABLE_-(.LPIC105+8)
	.word	_ZL28__gthrw___pthread_key_createPjPFvPvE(GOT)
	.personality	__gxx_personality_v0
	.handlerdata
.LLSDA9819:
	.byte	0xff
	.byte	0xff
	.byte	0x1
	.uleb128 .LLSDACSE9819-.LLSDACSB9819
.LLSDACSB9819:
	.uleb128 .LEHB34-.LFB9819
	.uleb128 .LEHE34-.LEHB34
	.uleb128 .L1589-.LFB9819
	.uleb128 0
	.uleb128 .LEHB35-.LFB9819
	.uleb128 .LEHE35-.LEHB35
	.uleb128 0
	.uleb128 0
.LLSDACSE9819:
	.text
	.fnend
	.size	_ZNSt17_Function_handlerIFbvEZN8asiodnp315OutstationStack6EnableEvEUlvE_E9_M_invokeERKSt9_Any_data, .-_ZNSt17_Function_handlerIFbvEZN8asiodnp315OutstationStack6EnableEvEUlvE_E9_M_invokeERKSt9_Any_data
	.align	2
	.syntax unified
	.arm
	.fpu vfp
	.type	_ZNSt17_Function_handlerIFbvEZN8asiodnp315OutstationStack7DisableEvEUlvE_E9_M_invokeERKSt9_Any_data, %function
_ZNSt17_Function_handlerIFbvEZN8asiodnp315OutstationStack7DisableEvEUlvE_E9_M_invokeERKSt9_Any_data:
	.fnstart
.LFB9841:
	@ args = 0, pretend = 0, frame = 8
	@ frame_needed = 0, uses_anonymous_args = 0
	ldr	r3, [r0]
	push	{r4, r5, r6, lr}
	.save {r4, r5, r6, lr}
	.pad #8
	sub	sp, sp, #8
	ldm	r3, {r2, r3}
	ldr	r4, .L1633
	add	r1, r2, #4
	cmp	r3, #0
.LPIC106:
	add	r4, pc, r4
	stm	sp, {r1, r3}
	ldr	r0, [r2, #44]
	beq	.L1607
	ldr	r2, .L1633+4
	ldr	r2, [r4, r2]
	cmp	r2, #0
	beq	.L1608
	add	r3, r3, #28
	mcr	p15, 0, r0, c7, c10, 5
.L1628:
	ldrex	r2, [r3]
	add	r2, r2, #1
	strex	r1, r2, [r3]
	cmp	r1, #0
	bne	.L1628
	mcr	p15, 0, r0, c7, c10, 5
.L1607:
	mov	r1, sp
.LEHB36:
	bl	_ZN8asiodnp39IOHandler7DisableERKSt10shared_ptrIN8opendnp312ILinkSessionEE(PLT)
.LEHE36:
	ldr	r5, [sp, #4]
	mov	r6, r0
	cmp	r5, #0
	beq	.L1619
	ldr	r3, .L1633+4
	ldr	r3, [r4, r3]
	cmp	r3, #0
	beq	.L1611
	add	r3, r5, #28
	mcr	p15, 0, r0, c7, c10, 5
.L1627:
	ldrex	r2, [r3]
	sub	r1, r2, #1
	strex	r0, r1, [r3]
	cmp	r0, #0
	bne	.L1627
	cmp	r2, #1
	mcr	p15, 0, r0, c7, c10, 5
	beq	.L1632
.L1619:
	mov	r0, r6
	add	sp, sp, #8
	@ sp needed
	pop	{r4, r5, r6, pc}
.L1608:
	ldr	r2, [r3, #28]
	add	r2, r2, #1
	str	r2, [r3, #28]
	b	.L1607
.L1611:
	ldr	r3, [r5, #28]
	cmp	r3, #1
	sub	r3, r3, #1
	str	r3, [r5, #28]
	bne	.L1619
	ldr	r3, [r5]
	mov	r0, r5
	ldr	r3, [r3, #8]
	blx	r3
	mcr	p15, 0, r0, c7, c10, 5
	ldr	r2, [r5, #32]
	sub	r3, r2, #1
	str	r3, [r5, #32]
	b	.L1617
.L1632:
	ldr	r3, [r5]
	mov	r0, r5
	ldr	r3, [r3, #8]
	blx	r3
	add	r3, r5, #32
	mcr	p15, 0, r0, c7, c10, 5
	mcr	p15, 0, r0, c7, c10, 5
.L1626:
	ldrex	r2, [r3]
	sub	r1, r2, #1
	strex	r0, r1, [r3]
	cmp	r0, #0
	bne	.L1626
	mcr	p15, 0, r0, c7, c10, 5
.L1617:
	cmp	r2, #1
	bne	.L1619
	ldr	r3, [r5]
	mov	r0, r5
	ldr	r3, [r3, #12]
	blx	r3
	b	.L1619
.L1618:
	ldr	r0, [sp, #4]
	cmp	r0, #0
	beq	.L1616
	bl	_ZNSt16_Sp_counted_baseILN9__gnu_cxx12_Lock_policyE1EE10_M_releaseEv(PLT)
.L1616:
.LEHB37:
	bl	__cxa_end_cleanup(PLT)
.LEHE37:
.L1634:
	.align	2
.L1633:
	.word	_GLOBAL_OFFSET_TABLE_-(.LPIC106+8)
	.word	_ZL28__gthrw___pthread_key_createPjPFvPvE(GOT)
	.personality	__gxx_personality_v0
	.handlerdata
.LLSDA9841:
	.byte	0xff
	.byte	0xff
	.byte	0x1
	.uleb128 .LLSDACSE9841-.LLSDACSB9841
.LLSDACSB9841:
	.uleb128 .LEHB36-.LFB9841
	.uleb128 .LEHE36-.LEHB36
	.uleb128 .L1618-.LFB9841
	.uleb128 0
	.uleb128 .LEHB37-.LFB9841
	.uleb128 .LEHE37-.LEHB37
	.uleb128 0
	.uleb128 0
.LLSDACSE9841:
	.text
	.fnend
	.size	_ZNSt17_Function_handlerIFbvEZN8asiodnp315OutstationStack7DisableEvEUlvE_E9_M_invokeERKSt9_Any_data, .-_ZNSt17_Function_handlerIFbvEZN8asiodnp315OutstationStack7DisableEvEUlvE_E9_M_invokeERKSt9_Any_data
	.align	2
	.global	_ZN8asiodnp315OutstationStack13SetLogFiltersERKN7openpal10LogFiltersE
	.syntax unified
	.arm
	.fpu vfp
	.type	_ZN8asiodnp315OutstationStack13SetLogFiltersERKN7openpal10LogFiltersE, %function
_ZN8asiodnp315OutstationStack13SetLogFiltersERKN7openpal10LogFiltersE:
	.fnstart
.LFB8189:
	@ args = 0, pretend = 0, frame = 56
	@ frame_needed = 0, uses_anonymous_args = 0
	push	{r4, r5, r6, r7, r8, r9, r10, fp, lr}
	.save {r4, r5, r6, r7, r8, r9, r10, fp, lr}
	.pad #60
	sub	sp, sp, #60
	ldr	r4, [r0, #16]
	ldr	r8, .L1744
	cmp	r4, #0
.LPIC107:
	add	r8, pc, r8
	beq	.L1636
	ldr	r3, .L1744+4
	mov	r6, r0
	add	r0, r4, #4
	str	r0, [sp, #40]
	ldr	r3, [r8, r3]
	mov	r9, r1
	cmp	r3, #0
	str	r3, [sp]
	beq	.L1637
	bl	_ZL26__gthrw_pthread_mutex_lockP15pthread_mutex_t(PLT)
	cmp	r0, #0
	bne	.L1740
	add	r5, r4, #28
	mcr	p15, 0, r0, c7, c10, 5
.L1728:
	ldrex	r3, [r5]
	add	r2, r3, #1
	strex	r1, r2, [r5]
	cmp	r1, #0
	bne	.L1728
	cmp	r3, #0
	mcr	p15, 0, r0, c7, c10, 5
	beq	.L1680
	ldr	r0, [sp, #40]
	bl	_ZL28__gthrw_pthread_mutex_unlockP15pthread_mutex_t(PLT)
	cmp	r0, #0
	bne	.L1683
	ldr	r3, [r6, #12]
	ldr	r2, [r9]
	str	r4, [sp, #44]
	str	r2, [sp, #20]
	str	r3, [sp, #40]
	ldr	r6, [r6, #36]
	mcr	p15, 0, r0, c7, c10, 5
.L1727:
	ldrex	r3, [r5]
	add	r3, r3, #1
	strex	r2, r3, [r5]
	cmp	r2, #0
	bne	.L1727
	mcr	p15, 0, r0, c7, c10, 5
	ldr	r9, [sp, #44]
	ldr	r3, [sp, #20]
.L1684:
	add	r0, sp, #40
	str	r3, [sp, #48]
	bl	_ZN4asio28asio_handler_is_continuationEz(PLT)
	ldr	r3, .L1744+8
	ldr	fp, [r6, #20]
	ldr	r3, [r8, r3]
	str	r3, [sp, #4]
	mov	r10, r0
	ldr	r0, [r3]
	bl	pthread_getspecific(PLT)
	cmp	r0, #0
	beq	.L1642
	ldr	r2, [r0, #4]
	cmp	r2, #0
	beq	.L1642
	ldr	r8, [r2]
	cmp	r8, #0
	beq	.L1642
	mov	r1, #0
	str	r1, [r2]
	ldrb	r2, [r8]	@ zero_extendqisi2
	cmp	r2, #23
	bls	.L1741
.L1733:
	strb	r2, [r8, #24]
	ldr	r2, .L1744+12
	ldr	r0, [r6, #24]
	ldr	ip, [sp, #40]
	ldr	r1, [sp, #48]
	mov	r7, #0
.LPIC108:
	add	r2, pc, r2
	str	r2, [r8, #4]
	str	ip, [r8, #12]
	str	r7, [r8]
	str	r7, [r8, #8]
	add	r0, r0, #12
	str	r7, [sp, #44]
	str	r9, [r8, #16]
	str	r7, [sp, #40]
	str	r1, [r8, #20]
	bl	pthread_mutex_lock(PLT)
	ldr	r0, [r6, #24]
	ldrb	r9, [r0, #36]	@ zero_extendqisi2
	cmp	r9, r7
	beq	.L1645
	ldr	r1, [r0, #44]
	str	r7, [r8]
	cmp	r1, r7
	strne	r8, [r1]
	streq	r8, [r0, #44]
	strne	r8, [r0, #44]
	streq	r8, [r0, #40]
	add	r0, r0, #12
	bl	pthread_mutex_unlock(PLT)
.L1665:
	ldr	r3, [sp]
	cmp	r3, #0
	beq	.L1672
.L1671:
	mcr	p15, 0, r0, c7, c10, 5
.L1729:
	ldrex	r3, [r5]
	sub	r2, r3, #1
	strex	r1, r2, [r5]
	cmp	r1, #0
	bne	.L1729
	cmp	r3, #1
	mcr	p15, 0, r0, c7, c10, 5
	beq	.L1742
.L1635:
	add	sp, sp, #60
	@ sp needed
	pop	{r4, r5, r6, r7, r8, r9, r10, fp, pc}
.L1741:
	mov	r0, r8
	bl	_ZdlPv(PLT)
.L1642:
	mov	r0, #25
.LEHB38:
	bl	_Znwj(PLT)
.LEHE38:
	mov	r8, r0
	mov	r2, #24
	b	.L1733
.L1637:
	ldr	r3, [r4, #28]
	add	r5, r4, #28
	add	r2, r3, #1
	cmp	r3, #0
	str	r2, [r4, #28]
	beq	.L1680
	ldr	r1, [r1]
	ldr	r2, [r6, #12]
	add	r3, r3, #2
	str	r4, [sp, #44]
	str	r2, [sp, #40]
	ldr	r6, [r6, #36]
	str	r1, [sp, #20]
	str	r3, [r4, #28]
	mov	r9, r4
	mov	r3, r1
	b	.L1684
.L1645:
	mov	r2, #1
	strb	r2, [r0, #36]
	add	r0, r0, #12
	bl	pthread_mutex_unlock(PLT)
	ldr	r7, [r6, #24]
	ldr	r6, [fp, #20]
	str	r9, [r8]
	ldr	r1, [r7, #52]
	ldrb	r3, [r6, #20]	@ zero_extendqisi2
	cmp	r1, #0
	strne	r8, [r1]
	orr	r10, r10, r3
	strne	r8, [r7, #52]
	streq	r8, [r7, #52]
	streq	r8, [r7, #48]
	tst	r10, #255
	beq	.L1651
	ldr	r3, [sp, #4]
	ldr	r0, [r3]
	bl	pthread_getspecific(PLT)
	cmp	r0, #0
	beq	.L1651
	ldr	r3, [r0]
	cmp	r3, r6
	bne	.L1654
	b	.L1652
.L1721:
	ldr	r3, [r0]
	cmp	r6, r3
	beq	.L1652
.L1654:
	ldr	r0, [r0, #8]
	cmp	r0, #0
	bne	.L1721
.L1651:
	add	r3, r6, #124
	mcr	p15, 0, r0, c7, c10, 5
.L1731:
	ldrex	r2, [r3]
	add	r2, r2, #1
	strex	r1, r2, [r3]
	cmp	r1, #0
	bne	.L1731
	add	r8, r6, #24
	mcr	p15, 0, r0, c7, c10, 5
	mov	r0, r8
	bl	pthread_mutex_lock(PLT)
	ldr	r3, [r6, #132]
	mov	r1, #0
	cmp	r3, r1
	str	r1, [r7]
	strne	r7, [r3]
	ldr	r3, [r6, #96]
	strne	r7, [r6, #132]
	orr	r3, r3, #1
	streq	r7, [r6, #132]
	streq	r7, [r6, #128]
	cmp	r3, #1
	add	r9, r6, #48
	str	r3, [r6, #96]
	beq	.L1661
	mov	r0, r8
	bl	pthread_mutex_unlock(PLT)
	mov	r0, r9
	bl	pthread_cond_signal(PLT)
.L1662:
	ldr	r6, [sp, #44]
.L1658:
	cmp	r6, #0
	beq	.L1665
	ldr	r3, [sp]
	cmp	r3, #0
	beq	.L1666
	add	r3, r6, #28
	mcr	p15, 0, r0, c7, c10, 5
.L1730:
	ldrex	r2, [r3]
	sub	r1, r2, #1
	strex	r0, r1, [r3]
	cmp	r0, #0
	bne	.L1730
	cmp	r2, #1
	mcr	p15, 0, r0, c7, c10, 5
	bne	.L1671
	ldr	r3, [r6]
	mov	r0, r6
	ldr	r3, [r3, #8]
	blx	r3
	add	r3, r6, #32
	mcr	p15, 0, r0, c7, c10, 5
	mcr	p15, 0, r0, c7, c10, 5
.L1726:
	ldrex	r2, [r3]
	sub	r1, r2, #1
	strex	r0, r1, [r3]
	cmp	r0, #0
	bne	.L1726
	mcr	p15, 0, r0, c7, c10, 5
.L1685:
	cmp	r2, #1
	bne	.L1665
	ldr	r3, [r6]
	mov	r0, r6
	ldr	r3, [r3, #12]
	blx	r3
	b	.L1665
.L1666:
	ldr	r3, [r6, #28]
	cmp	r3, #1
	sub	r3, r3, #1
	str	r3, [r6, #28]
	beq	.L1743
.L1672:
	ldr	r3, [r4, #28]
	cmp	r3, #1
	sub	r3, r3, #1
	str	r3, [r4, #28]
	bne	.L1635
	ldr	r3, [r4]
	mov	r0, r4
	ldr	r3, [r3, #8]
	blx	r3
	mcr	p15, 0, r0, c7, c10, 5
	ldr	r2, [r4, #32]
	sub	r3, r2, #1
	str	r3, [r4, #32]
	b	.L1686
.L1661:
	ldrb	r2, [r6, #120]	@ zero_extendqisi2
	cmp	r2, #0
	bne	.L1663
	ldr	r0, [r6, #104]
	cmp	r0, #0
	beq	.L1663
	add	r1, sp, #24
	add	ip, r0, #48
	strb	r3, [r6, #120]
	mov	lr, #-2147483639
	mov	r3, r1
	str	r2, [sp, #28]
	str	r2, [sp, #36]
	mov	r1, #3
	ldr	r2, [r0, #48]
	ldr	r0, [r0, #56]
	str	lr, [sp, #24]
	str	ip, [sp, #32]
	bl	epoll_ctl(PLT)
.L1663:
	mov	r0, r8
	bl	pthread_mutex_unlock(PLT)
	b	.L1662
.L1652:
	ldr	r3, [r0, #4]
	cmp	r3, #0
	beq	.L1651
	ldr	r0, [r3, #8]
	ldr	r1, [r3, #12]
	cmp	r0, #0
	add	r1, r1, #1
	mov	ip, #0
	str	r1, [r3, #12]
	ldrne	r6, [sp, #44]
	str	ip, [r7]
	ldreq	r6, [sp, #44]
	strne	r7, [r0]
	streq	r7, [r3, #8]
	strne	r7, [r3, #8]
	streq	r7, [r3, #4]
	b	.L1658
.L1742:
	ldr	r3, [r4]
	mov	r0, r4
	ldr	r3, [r3, #8]
	blx	r3
	add	r3, r4, #32
	mcr	p15, 0, r0, c7, c10, 5
	mcr	p15, 0, r0, c7, c10, 5
.L1725:
	ldrex	r2, [r3]
	sub	r1, r2, #1
	strex	r0, r1, [r3]
	cmp	r0, #0
	bne	.L1725
	mcr	p15, 0, r0, c7, c10, 5
.L1686:
	cmp	r2, #1
	bne	.L1635
	ldr	r3, [r4]
	mov	r0, r4
	ldr	r3, [r3, #12]
	blx	r3
	b	.L1635
.L1743:
	ldr	r3, [r6]
	mov	r0, r6
	ldr	r3, [r3, #8]
	blx	r3
	mcr	p15, 0, r0, c7, c10, 5
	ldr	r2, [r6, #32]
	sub	r3, r2, #1
	str	r3, [r6, #32]
	b	.L1685
.L1680:
	mov	r3, #0
	str	r3, [r4, #28]
.LEHB39:
	bl	_ZSt20__throw_bad_weak_ptrv(PLT)
.LEHE39:
.L1688:
	add	r0, sp, #40
	bl	_ZN9__gnu_cxx13__scoped_lockD1Ev(PLT)
.L1734:
.LEHB40:
	bl	__cxa_end_cleanup(PLT)
.L1636:
	bl	_ZSt20__throw_bad_weak_ptrv(PLT)
.LEHE40:
.L1683:
	mov	r0, #4
	bl	__cxa_allocate_exception(PLT)
	ldr	r1, .L1744+16
	ldr	r2, .L1744+20
	ldr	r3, .L1744+24
	ldr	r1, [r8, r1]
	add	r1, r1, #8
	str	r1, [r0]
	ldr	r2, [r8, r2]
	ldr	r1, [r8, r3]
.LEHB41:
	bl	__cxa_throw(PLT)
.LEHE41:
.L1689:
	cmn	r1, #1
	bne	.L1734
.LEHB42:
	bl	__cxa_call_unexpected(PLT)
.L1740:
	mov	r0, #4
	bl	__cxa_allocate_exception(PLT)
	ldr	r1, .L1744+28
	ldr	r2, .L1744+32
	ldr	r3, .L1744+36
	ldr	r1, [r8, r1]
	add	r1, r1, #8
	str	r1, [r0]
	ldr	r2, [r8, r2]
	ldr	r1, [r8, r3]
	bl	__cxa_throw(PLT)
.L1687:
	cmp	r9, #0
	beq	.L1674
	mov	r0, r9
	bl	_ZNSt16_Sp_counted_baseILN9__gnu_cxx12_Lock_policyE1EE10_M_releaseEv(PLT)
.L1674:
	mov	r0, r4
	bl	_ZNSt16_Sp_counted_baseILN9__gnu_cxx12_Lock_policyE1EE10_M_releaseEv(PLT)
	bl	__cxa_end_cleanup(PLT)
.LEHE42:
.L1745:
	.align	2
.L1744:
	.word	_GLOBAL_OFFSET_TABLE_-(.LPIC107+8)
	.word	_ZL28__gthrw___pthread_key_createPjPFvPvE(GOT)
	.word	_ZN4asio6detail10call_stackINS0_15task_io_serviceENS0_27task_io_service_thread_infoEE4top_E(GOT)
	.word	_ZN4asio6detail18completion_handlerIZN8asiodnp315OutstationStack13SetLogFiltersERKN7openpal10LogFiltersEEUlvE_E11do_completeEPNS0_15task_io_serviceEPNS0_25task_io_service_operationERKSt10error_codej-(.LPIC108+8)
	.word	_ZTVN9__gnu_cxx26__concurrence_unlock_errorE(GOT)
	.word	_ZN9__gnu_cxx26__concurrence_unlock_errorD1Ev(GOT)
	.word	_ZTIN9__gnu_cxx26__concurrence_unlock_errorE(GOT)
	.word	_ZTVN9__gnu_cxx24__concurrence_lock_errorE(GOT)
	.word	_ZN9__gnu_cxx24__concurrence_lock_errorD1Ev(GOT)
	.word	_ZTIN9__gnu_cxx24__concurrence_lock_errorE(GOT)
	.personality	__gxx_personality_v0
	.handlerdata
	.align	2
.LLSDA8189:
	.byte	0xff
	.byte	0x90
	.uleb128 .LLSDATT8189-.LLSDATTD8189
.LLSDATTD8189:
	.byte	0x1
	.uleb128 .LLSDACSE8189-.LLSDACSB8189
.LLSDACSB8189:
	.uleb128 .LEHB38-.LFB8189
	.uleb128 .LEHE38-.LEHB38
	.uleb128 .L1687-.LFB8189
	.uleb128 0
	.uleb128 .LEHB39-.LFB8189
	.uleb128 .LEHE39-.LEHB39
	.uleb128 .L1688-.LFB8189
	.uleb128 0
	.uleb128 .LEHB40-.LFB8189
	.uleb128 .LEHE40-.LEHB40
	.uleb128 0
	.uleb128 0
	.uleb128 .LEHB41-.LFB8189
	.uleb128 .LEHE41-.LEHB41
	.uleb128 .L1689-.LFB8189
	.uleb128 0x1
	.uleb128 .LEHB42-.LFB8189
	.uleb128 .LEHE42-.LEHB42
	.uleb128 0
	.uleb128 0
.LLSDACSE8189:
	.byte	0x7f
	.byte	0
	.align	2
.LLSDATT8189:
	.word	0
	.text
	.fnend
	.size	_ZN8asiodnp315OutstationStack13SetLogFiltersERKN7openpal10LogFiltersE, .-_ZN8asiodnp315OutstationStack13SetLogFiltersERKN7openpal10LogFiltersE
	.align	2
	.global	_ZN8asiodnp315OutstationStack13SetRestartIINEv
	.syntax unified
	.arm
	.fpu vfp
	.type	_ZN8asiodnp315OutstationStack13SetRestartIINEv, %function
_ZN8asiodnp315OutstationStack13SetRestartIINEv:
	.fnstart
.LFB8197:
	@ args = 0, pretend = 0, frame = 40
	@ frame_needed = 0, uses_anonymous_args = 0
	push	{r4, r5, r6, r7, r8, r9, r10, fp, lr}
	.save {r4, r5, r6, r7, r8, r9, r10, fp, lr}
	.pad #44
	sub	sp, sp, #44
	ldr	r4, [r0, #16]
	ldr	r8, .L1855
	cmp	r4, #0
.LPIC109:
	add	r8, pc, r8
	beq	.L1747
	ldr	r3, .L1855+4
	mov	r6, r0
	add	r0, r4, #4
	str	r0, [sp, #24]
	ldr	r3, [r8, r3]
	cmp	r3, #0
	str	r3, [sp]
	beq	.L1748
	bl	_ZL26__gthrw_pthread_mutex_lockP15pthread_mutex_t(PLT)
	cmp	r0, #0
	bne	.L1851
	add	r5, r4, #28
	mcr	p15, 0, r0, c7, c10, 5
.L1839:
	ldrex	r3, [r5]
	add	r2, r3, #1
	strex	r1, r2, [r5]
	cmp	r1, #0
	bne	.L1839
	cmp	r3, #0
	mcr	p15, 0, r0, c7, c10, 5
	beq	.L1791
	ldr	r0, [sp, #24]
	bl	_ZL28__gthrw_pthread_mutex_unlockP15pthread_mutex_t(PLT)
	cmp	r0, #0
	bne	.L1794
	ldr	r3, [r6, #12]
	str	r4, [sp, #16]
	str	r3, [sp, #12]
	ldr	r6, [r6, #36]
	mcr	p15, 0, r0, c7, c10, 5
.L1838:
	ldrex	r3, [r5]
	add	r3, r3, #1
	strex	r2, r3, [r5]
	cmp	r2, #0
	bne	.L1838
	mcr	p15, 0, r0, c7, c10, 5
	ldr	r9, [sp, #16]
.L1795:
	add	r0, sp, #12
	bl	_ZN4asio28asio_handler_is_continuationEz(PLT)
	ldr	r3, .L1855+8
	ldr	fp, [r6, #20]
	ldr	r3, [r8, r3]
	str	r3, [sp, #4]
	mov	r10, r0
	ldr	r0, [r3]
	bl	pthread_getspecific(PLT)
	cmp	r0, #0
	beq	.L1753
	ldr	r2, [r0, #4]
	cmp	r2, #0
	beq	.L1753
	ldr	r8, [r2]
	cmp	r8, #0
	beq	.L1753
	mov	r1, #0
	str	r1, [r2]
	ldrb	r2, [r8]	@ zero_extendqisi2
	cmp	r2, #19
	bls	.L1852
.L1844:
	strb	r2, [r8, #20]
	ldr	r2, .L1855+12
	ldr	r0, [r6, #24]
	ldr	r1, [sp, #12]
.LPIC110:
	add	r2, pc, r2
	str	r9, [r8, #16]
	mov	r9, #0
	str	r2, [r8, #4]
	str	r1, [r8, #12]
	add	r0, r0, #12
	str	r9, [r8]
	str	r9, [r8, #8]
	str	r9, [sp, #16]
	str	r9, [sp, #12]
	bl	pthread_mutex_lock(PLT)
	ldr	r0, [r6, #24]
	ldrb	r7, [r0, #36]	@ zero_extendqisi2
	cmp	r7, r9
	beq	.L1756
	ldr	r2, [r0, #44]
	str	r9, [r8]
	cmp	r2, r9
	strne	r8, [r2]
	streq	r8, [r0, #44]
	strne	r8, [r0, #44]
	streq	r8, [r0, #40]
	add	r0, r0, #12
	bl	pthread_mutex_unlock(PLT)
.L1776:
	ldr	r3, [sp]
	cmp	r3, #0
	beq	.L1783
.L1782:
	mcr	p15, 0, r0, c7, c10, 5
.L1840:
	ldrex	r3, [r5]
	sub	r2, r3, #1
	strex	r1, r2, [r5]
	cmp	r1, #0
	bne	.L1840
	cmp	r3, #1
	mcr	p15, 0, r0, c7, c10, 5
	beq	.L1853
.L1746:
	add	sp, sp, #44
	@ sp needed
	pop	{r4, r5, r6, r7, r8, r9, r10, fp, pc}
.L1852:
	mov	r0, r8
	bl	_ZdlPv(PLT)
.L1753:
	mov	r0, #21
.LEHB43:
	bl	_Znwj(PLT)
.LEHE43:
	mov	r8, r0
	mov	r2, #20
	b	.L1844
.L1748:
	ldr	r3, [r4, #28]
	add	r5, r4, #28
	add	r2, r3, #1
	cmp	r3, #0
	str	r2, [r4, #28]
	beq	.L1791
	ldr	r2, [r6, #12]
	add	r3, r3, #2
	ldr	r6, [r6, #36]
	str	r4, [sp, #16]
	str	r2, [sp, #12]
	str	r3, [r4, #28]
	mov	r9, r4
	b	.L1795
.L1756:
	mov	r1, #1
	strb	r1, [r0, #36]
	add	r0, r0, #12
	bl	pthread_mutex_unlock(PLT)
	ldr	r9, [r6, #24]
	ldr	r6, [fp, #20]
	str	r7, [r8]
	ldr	r2, [r9, #52]
	ldrb	r3, [r6, #20]	@ zero_extendqisi2
	cmp	r2, #0
	strne	r8, [r2]
	orr	r10, r10, r3
	strne	r8, [r9, #52]
	streq	r8, [r9, #52]
	streq	r8, [r9, #48]
	tst	r10, #255
	beq	.L1762
	ldr	r3, [sp, #4]
	ldr	r0, [r3]
	bl	pthread_getspecific(PLT)
	cmp	r0, #0
	beq	.L1762
	ldr	r3, [r0]
	cmp	r3, r6
	bne	.L1765
	b	.L1763
.L1832:
	ldr	r3, [r0]
	cmp	r6, r3
	beq	.L1763
.L1765:
	ldr	r0, [r0, #8]
	cmp	r0, #0
	bne	.L1832
.L1762:
	add	r3, r6, #124
	mcr	p15, 0, r0, c7, c10, 5
.L1842:
	ldrex	r2, [r3]
	add	r2, r2, #1
	strex	r1, r2, [r3]
	cmp	r1, #0
	bne	.L1842
	add	r8, r6, #24
	mcr	p15, 0, r0, c7, c10, 5
	mov	r0, r8
	bl	pthread_mutex_lock(PLT)
	ldr	r3, [r6, #132]
	mov	r2, #0
	cmp	r3, r2
	str	r2, [r9]
	strne	r9, [r3]
	ldr	r3, [r6, #96]
	strne	r9, [r6, #132]
	orr	r3, r3, #1
	streq	r9, [r6, #132]
	streq	r9, [r6, #128]
	cmp	r3, #1
	add	r9, r6, #48
	str	r3, [r6, #96]
	beq	.L1772
	mov	r0, r8
	bl	pthread_mutex_unlock(PLT)
	mov	r0, r9
	bl	pthread_cond_signal(PLT)
.L1773:
	ldr	r6, [sp, #16]
.L1769:
	cmp	r6, #0
	beq	.L1776
	ldr	r3, [sp]
	cmp	r3, #0
	beq	.L1777
	add	r3, r6, #28
	mcr	p15, 0, r0, c7, c10, 5
.L1841:
	ldrex	r2, [r3]
	sub	r1, r2, #1
	strex	r0, r1, [r3]
	cmp	r0, #0
	bne	.L1841
	cmp	r2, #1
	mcr	p15, 0, r0, c7, c10, 5
	bne	.L1782
	ldr	r3, [r6]
	mov	r0, r6
	ldr	r3, [r3, #8]
	blx	r3
	add	r3, r6, #32
	mcr	p15, 0, r0, c7, c10, 5
	mcr	p15, 0, r0, c7, c10, 5
.L1837:
	ldrex	r2, [r3]
	sub	r1, r2, #1
	strex	r0, r1, [r3]
	cmp	r0, #0
	bne	.L1837
	mcr	p15, 0, r0, c7, c10, 5
.L1796:
	cmp	r2, #1
	bne	.L1776
	ldr	r3, [r6]
	mov	r0, r6
	ldr	r3, [r3, #12]
	blx	r3
	b	.L1776
.L1777:
	ldr	r3, [r6, #28]
	cmp	r3, #1
	sub	r3, r3, #1
	str	r3, [r6, #28]
	beq	.L1854
.L1783:
	ldr	r3, [r4, #28]
	cmp	r3, #1
	sub	r3, r3, #1
	str	r3, [r4, #28]
	bne	.L1746
	ldr	r3, [r4]
	mov	r0, r4
	ldr	r3, [r3, #8]
	blx	r3
	mcr	p15, 0, r0, c7, c10, 5
	ldr	r2, [r4, #32]
	sub	r3, r2, #1
	str	r3, [r4, #32]
	b	.L1797
.L1772:
	ldrb	r2, [r6, #120]	@ zero_extendqisi2
	cmp	r2, #0
	bne	.L1774
	ldr	r0, [r6, #104]
	cmp	r0, #0
	beq	.L1774
	strb	r3, [r6, #120]
	add	r3, sp, #24
	add	r1, r0, #48
	mov	ip, #-2147483639
	str	r1, [sp, #32]
	str	r2, [r3, #4]
	str	r2, [r3, #12]
	str	ip, [sp, #24]
	mov	r1, #3
	ldr	r2, [r0, #48]
	ldr	r0, [r0, #56]
	bl	epoll_ctl(PLT)
.L1774:
	mov	r0, r8
	bl	pthread_mutex_unlock(PLT)
	b	.L1773
.L1763:
	ldr	r3, [r0, #4]
	cmp	r3, #0
	beq	.L1762
	ldr	r1, [r3, #8]
	ldr	r2, [r3, #12]
	cmp	r1, #0
	add	r2, r2, #1
	mov	r0, #0
	str	r2, [r3, #12]
	ldrne	r6, [sp, #16]
	str	r0, [r9]
	ldreq	r6, [sp, #16]
	strne	r9, [r1]
	streq	r9, [r3, #8]
	strne	r9, [r3, #8]
	streq	r9, [r3, #4]
	b	.L1769
.L1853:
	ldr	r3, [r4]
	mov	r0, r4
	ldr	r3, [r3, #8]
	blx	r3
	add	r3, r4, #32
	mcr	p15, 0, r0, c7, c10, 5
	mcr	p15, 0, r0, c7, c10, 5
.L1836:
	ldrex	r2, [r3]
	sub	r1, r2, #1
	strex	r0, r1, [r3]
	cmp	r0, #0
	bne	.L1836
	mcr	p15, 0, r0, c7, c10, 5
.L1797:
	cmp	r2, #1
	bne	.L1746
	ldr	r3, [r4]
	mov	r0, r4
	ldr	r3, [r3, #12]
	blx	r3
	b	.L1746
.L1854:
	ldr	r3, [r6]
	mov	r0, r6
	ldr	r3, [r3, #8]
	blx	r3
	mcr	p15, 0, r0, c7, c10, 5
	ldr	r2, [r6, #32]
	sub	r3, r2, #1
	str	r3, [r6, #32]
	b	.L1796
.L1791:
	mov	r3, #0
	str	r3, [r4, #28]
.LEHB44:
	bl	_ZSt20__throw_bad_weak_ptrv(PLT)
.LEHE44:
.L1799:
	add	r0, sp, #24
	bl	_ZN9__gnu_cxx13__scoped_lockD1Ev(PLT)
.L1845:
.LEHB45:
	bl	__cxa_end_cleanup(PLT)
.L1747:
	bl	_ZSt20__throw_bad_weak_ptrv(PLT)
.LEHE45:
.L1794:
	mov	r0, #4
	bl	__cxa_allocate_exception(PLT)
	ldr	r1, .L1855+16
	ldr	r2, .L1855+20
	ldr	r3, .L1855+24
	ldr	r1, [r8, r1]
	add	r1, r1, #8
	str	r1, [r0]
	ldr	r2, [r8, r2]
	ldr	r1, [r8, r3]
.LEHB46:
	bl	__cxa_throw(PLT)
.LEHE46:
.L1800:
	cmn	r1, #1
	bne	.L1845
.LEHB47:
	bl	__cxa_call_unexpected(PLT)
.L1851:
	mov	r0, #4
	bl	__cxa_allocate_exception(PLT)
	ldr	r1, .L1855+28
	ldr	r2, .L1855+32
	ldr	r3, .L1855+36
	ldr	r1, [r8, r1]
	add	r1, r1, #8
	str	r1, [r0]
	ldr	r2, [r8, r2]
	ldr	r1, [r8, r3]
	bl	__cxa_throw(PLT)
.L1798:
	cmp	r9, #0
	beq	.L1785
	mov	r0, r9
	bl	_ZNSt16_Sp_counted_baseILN9__gnu_cxx12_Lock_policyE1EE10_M_releaseEv(PLT)
.L1785:
	mov	r0, r4
	bl	_ZNSt16_Sp_counted_baseILN9__gnu_cxx12_Lock_policyE1EE10_M_releaseEv(PLT)
	bl	__cxa_end_cleanup(PLT)
.LEHE47:
.L1856:
	.align	2
.L1855:
	.word	_GLOBAL_OFFSET_TABLE_-(.LPIC109+8)
	.word	_ZL28__gthrw___pthread_key_createPjPFvPvE(GOT)
	.word	_ZN4asio6detail10call_stackINS0_15task_io_serviceENS0_27task_io_service_thread_infoEE4top_E(GOT)
	.word	_ZN4asio6detail18completion_handlerIZN8asiodnp315OutstationStack13SetRestartIINEvEUlvE_E11do_completeEPNS0_15task_io_serviceEPNS0_25task_io_service_operationERKSt10error_codej-(.LPIC110+8)
	.word	_ZTVN9__gnu_cxx26__concurrence_unlock_errorE(GOT)
	.word	_ZN9__gnu_cxx26__concurrence_unlock_errorD1Ev(GOT)
	.word	_ZTIN9__gnu_cxx26__concurrence_unlock_errorE(GOT)
	.word	_ZTVN9__gnu_cxx24__concurrence_lock_errorE(GOT)
	.word	_ZN9__gnu_cxx24__concurrence_lock_errorD1Ev(GOT)
	.word	_ZTIN9__gnu_cxx24__concurrence_lock_errorE(GOT)
	.personality	__gxx_personality_v0
	.handlerdata
	.align	2
.LLSDA8197:
	.byte	0xff
	.byte	0x90
	.uleb128 .LLSDATT8197-.LLSDATTD8197
.LLSDATTD8197:
	.byte	0x1
	.uleb128 .LLSDACSE8197-.LLSDACSB8197
.LLSDACSB8197:
	.uleb128 .LEHB43-.LFB8197
	.uleb128 .LEHE43-.LEHB43
	.uleb128 .L1798-.LFB8197
	.uleb128 0
	.uleb128 .LEHB44-.LFB8197
	.uleb128 .LEHE44-.LEHB44
	.uleb128 .L1799-.LFB8197
	.uleb128 0
	.uleb128 .LEHB45-.LFB8197
	.uleb128 .LEHE45-.LEHB45
	.uleb128 0
	.uleb128 0
	.uleb128 .LEHB46-.LFB8197
	.uleb128 .LEHE46-.LEHB46
	.uleb128 .L1800-.LFB8197
	.uleb128 0x1
	.uleb128 .LEHB47-.LFB8197
	.uleb128 .LEHE47-.LEHB47
	.uleb128 0
	.uleb128 0
.LLSDACSE8197:
	.byte	0x7f
	.byte	0
	.align	2
.LLSDATT8197:
	.word	0
	.text
	.fnend
	.size	_ZN8asiodnp315OutstationStack13SetRestartIINEv, .-_ZN8asiodnp315OutstationStack13SetRestartIINEv
	.section	.text._ZN8asiodnp315OutstationStack13BeginTransmitERKN7openpal6RSliceERN8opendnp312ILinkSessionE,"axG",%progbits,_ZN8asiodnp315OutstationStack13BeginTransmitERKN7openpal6RSliceERN8opendnp312ILinkSessionE,comdat
	.align	2
	.weak	_ZN8asiodnp315OutstationStack13BeginTransmitERKN7openpal6RSliceERN8opendnp312ILinkSessionE
	.syntax unified
	.arm
	.fpu vfp
	.type	_ZN8asiodnp315OutstationStack13BeginTransmitERKN7openpal6RSliceERN8opendnp312ILinkSessionE, %function
_ZN8asiodnp315OutstationStack13BeginTransmitERKN7openpal6RSliceERN8opendnp312ILinkSessionE:
	.fnstart
.LFB8090:
	@ args = 0, pretend = 0, frame = 8
	@ frame_needed = 0, uses_anonymous_args = 0
	push	{r4, r5, r6, r7, r8, r9, lr}
	.save {r4, r5, r6, r7, r8, r9, lr}
	.pad #12
	sub	sp, sp, #12
	ldr	r4, [r0, #16]
	ldr	r9, .L1903
	cmp	r4, #0
	ldr	r6, [r0, #44]
.LPIC111:
	add	r9, pc, r9
	beq	.L1858
	ldr	r3, .L1903+4
	mov	r5, r0
	add	r0, r4, #4
	str	r0, [sp]
	ldr	r8, [r9, r3]
	mov	r7, r1
	cmp	r8, #0
	beq	.L1859
	bl	_ZL26__gthrw_pthread_mutex_lockP15pthread_mutex_t(PLT)
	cmp	r0, #0
	bne	.L1900
	add	r3, r4, #28
	mcr	p15, 0, r0, c7, c10, 5
.L1893:
	ldrex	r2, [r3]
	add	r1, r2, #1
	strex	r0, r1, [r3]
	cmp	r0, #0
	bne	.L1893
	cmp	r2, #0
	mcr	p15, 0, r0, c7, c10, 5
	beq	.L1874
	ldr	r0, [sp]
	bl	_ZL28__gthrw_pthread_mutex_unlockP15pthread_mutex_t(PLT)
	cmp	r0, #0
	bne	.L1901
.L1876:
	ldr	r3, [r5, #12]
	mov	r2, r7
	cmp	r3, #0
	addne	r3, r3, #4
	mov	r0, r6
	mov	r1, sp
	stm	sp, {r3, r4}
.LEHB48:
	bl	_ZN8asiodnp39IOHandler13BeginTransmitERKSt10shared_ptrIN8opendnp312ILinkSessionEERKN7openpal6RSliceE(PLT)
.LEHE48:
	ldr	r4, [sp, #4]
	cmp	r4, #0
	beq	.L1857
	cmp	r8, #0
	beq	.L1868
	add	r3, r4, #28
	mcr	p15, 0, r0, c7, c10, 5
.L1894:
	ldrex	r2, [r3]
	sub	r1, r2, #1
	strex	r0, r1, [r3]
	cmp	r0, #0
	bne	.L1894
	cmp	r2, #1
	mcr	p15, 0, r0, c7, c10, 5
	beq	.L1902
.L1857:
	add	sp, sp, #12
	@ sp needed
	pop	{r4, r5, r6, r7, r8, r9, pc}
.L1859:
	ldr	r3, [r4, #28]
	cmp	r3, #0
	add	r3, r3, #1
	str	r3, [r4, #28]
	bne	.L1876
.L1874:
	mov	r3, #0
	str	r3, [r4, #28]
.LEHB49:
	bl	_ZSt20__throw_bad_weak_ptrv(PLT)
.LEHE49:
.L1868:
	ldr	r3, [r4, #28]
	cmp	r3, #1
	sub	r3, r3, #1
	str	r3, [r4, #28]
	bne	.L1857
	ldr	r3, [r4]
	mov	r0, r4
	ldr	r3, [r3, #8]
	blx	r3
	mcr	p15, 0, r0, c7, c10, 5
	ldr	r2, [r4, #32]
	sub	r3, r2, #1
	str	r3, [r4, #32]
	b	.L1878
.L1902:
	ldr	r3, [r4]
	mov	r0, r4
	ldr	r3, [r3, #8]
	blx	r3
	add	r3, r4, #32
	mcr	p15, 0, r0, c7, c10, 5
	mcr	p15, 0, r0, c7, c10, 5
.L1892:
	ldrex	r2, [r3]
	sub	r1, r2, #1
	strex	r0, r1, [r3]
	cmp	r0, #0
	bne	.L1892
	mcr	p15, 0, r0, c7, c10, 5
.L1878:
	cmp	r2, #1
	bne	.L1857
	ldr	r3, [r4]
	mov	r0, r4
	ldr	r3, [r3, #12]
	blx	r3
	b	.L1857
.L1880:
	mov	r0, sp
	bl	_ZN9__gnu_cxx13__scoped_lockD1Ev(PLT)
.L1896:
.LEHB50:
	bl	__cxa_end_cleanup(PLT)
.L1858:
	bl	_ZSt20__throw_bad_weak_ptrv(PLT)
.LEHE50:
.L1901:
	mov	r0, #4
	bl	__cxa_allocate_exception(PLT)
	ldr	r1, .L1903+8
	ldr	r2, .L1903+12
	ldr	r3, .L1903+16
	ldr	r1, [r9, r1]
	add	r1, r1, #8
	str	r1, [r0]
	ldr	r2, [r9, r2]
	ldr	r1, [r9, r3]
.LEHB51:
	bl	__cxa_throw(PLT)
.LEHE51:
.L1881:
	cmn	r1, #1
	bne	.L1896
.LEHB52:
	bl	__cxa_call_unexpected(PLT)
.L1900:
	mov	r0, #4
	bl	__cxa_allocate_exception(PLT)
	ldr	r1, .L1903+20
	ldr	r2, .L1903+24
	ldr	r3, .L1903+28
	ldr	r1, [r9, r1]
	add	r1, r1, #8
	str	r1, [r0]
	ldr	r2, [r9, r2]
	ldr	r1, [r9, r3]
	bl	__cxa_throw(PLT)
.LEHE52:
.L1879:
	ldr	r0, [sp, #4]
	cmp	r0, #0
	beq	.L1896
	bl	_ZNSt16_Sp_counted_baseILN9__gnu_cxx12_Lock_policyE1EE10_M_releaseEv(PLT)
	b	.L1896
.L1904:
	.align	2
.L1903:
	.word	_GLOBAL_OFFSET_TABLE_-(.LPIC111+8)
	.word	_ZL28__gthrw___pthread_key_createPjPFvPvE(GOT)
	.word	_ZTVN9__gnu_cxx26__concurrence_unlock_errorE(GOT)
	.word	_ZN9__gnu_cxx26__concurrence_unlock_errorD1Ev(GOT)
	.word	_ZTIN9__gnu_cxx26__concurrence_unlock_errorE(GOT)
	.word	_ZTVN9__gnu_cxx24__concurrence_lock_errorE(GOT)
	.word	_ZN9__gnu_cxx24__concurrence_lock_errorD1Ev(GOT)
	.word	_ZTIN9__gnu_cxx24__concurrence_lock_errorE(GOT)
	.personality	__gxx_personality_v0
	.handlerdata
	.align	2
.LLSDA8090:
	.byte	0xff
	.byte	0x90
	.uleb128 .LLSDATT8090-.LLSDATTD8090
.LLSDATTD8090:
	.byte	0x1
	.uleb128 .LLSDACSE8090-.LLSDACSB8090
.LLSDACSB8090:
	.uleb128 .LEHB48-.LFB8090
	.uleb128 .LEHE48-.LEHB48
	.uleb128 .L1879-.LFB8090
	.uleb128 0
	.uleb128 .LEHB49-.LFB8090
	.uleb128 .LEHE49-.LEHB49
	.uleb128 .L1880-.LFB8090
	.uleb128 0
	.uleb128 .LEHB50-.LFB8090
	.uleb128 .LEHE50-.LEHB50
	.uleb128 0
	.uleb128 0
	.uleb128 .LEHB51-.LFB8090
	.uleb128 .LEHE51-.LEHB51
	.uleb128 .L1881-.LFB8090
	.uleb128 0x1
	.uleb128 .LEHB52-.LFB8090
	.uleb128 .LEHE52-.LEHB52
	.uleb128 0
	.uleb128 0
.LLSDACSE8090:
	.byte	0x7f
	.byte	0
	.align	2
.LLSDATT8090:
	.word	0
	.section	.text._ZN8asiodnp315OutstationStack13BeginTransmitERKN7openpal6RSliceERN8opendnp312ILinkSessionE,"axG",%progbits,_ZN8asiodnp315OutstationStack13BeginTransmitERKN7openpal6RSliceERN8opendnp312ILinkSessionE,comdat
	.fnend
	.size	_ZN8asiodnp315OutstationStack13BeginTransmitERKN7openpal6RSliceERN8opendnp312ILinkSessionE, .-_ZN8asiodnp315OutstationStack13BeginTransmitERKN7openpal6RSliceERN8opendnp312ILinkSessionE
	.set	.LTHUNK7,_ZN8asiodnp315OutstationStack13BeginTransmitERKN7openpal6RSliceERN8opendnp312ILinkSessionE
	.align	2
	.weak	_ZThn8_N8asiodnp315OutstationStack13BeginTransmitERKN7openpal6RSliceERN8opendnp312ILinkSessionE
	.syntax unified
	.arm
	.fpu vfp
	.type	_ZThn8_N8asiodnp315OutstationStack13BeginTransmitERKN7openpal6RSliceERN8opendnp312ILinkSessionE, %function
_ZThn8_N8asiodnp315OutstationStack13BeginTransmitERKN7openpal6RSliceERN8opendnp312ILinkSessionE:
	.fnstart
.LFB11800:
	@ args = 0, pretend = 0, frame = 0
	@ frame_needed = 0, uses_anonymous_args = 0
	sub	r0, r0, #8
	b	.LTHUNK7(PLT)
	.fnend
	.size	_ZThn8_N8asiodnp315OutstationStack13BeginTransmitERKN7openpal6RSliceERN8opendnp312ILinkSessionE, .-_ZThn8_N8asiodnp315OutstationStack13BeginTransmitERKN7openpal6RSliceERN8opendnp312ILinkSessionE
	.text
	.align	2
	.global	_ZN8asiodnp315OutstationStack8ShutdownEv
	.syntax unified
	.arm
	.fpu vfp
	.type	_ZN8asiodnp315OutstationStack8ShutdownEv, %function
_ZN8asiodnp315OutstationStack8ShutdownEv:
	.fnstart
.LFB8174:
	@ args = 0, pretend = 0, frame = 16
	@ frame_needed = 0, uses_anonymous_args = 0
	push	{r4, r5, r6, r7, r8, r9, lr}
	.save {r4, r5, r6, r7, r8, r9, lr}
	.pad #20
	sub	sp, sp, #20
	ldr	r5, [r0, #16]
	ldr	r7, .L2011
	cmp	r5, #0
.LPIC112:
	add	r7, pc, r7
	beq	.L1906
	ldr	r3, .L2011+4
	mov	r8, r0
	add	r0, r5, #4
	str	r0, [sp]
	ldr	r6, [r7, r3]
	cmp	r6, #0
	beq	.L1907
	bl	_ZL26__gthrw_pthread_mutex_lockP15pthread_mutex_t(PLT)
	cmp	r0, #0
	bne	.L2005
	add	r4, r5, #28
	mcr	p15, 0, r0, c7, c10, 5
.L1990:
	ldrex	r3, [r4]
	add	r2, r3, #1
	strex	r1, r2, [r4]
	cmp	r1, #0
	bne	.L1990
	cmp	r3, #0
	mcr	p15, 0, r0, c7, c10, 5
	beq	.L1937
	ldr	r0, [sp]
	bl	_ZL28__gthrw_pthread_mutex_unlockP15pthread_mutex_t(PLT)
	cmp	r0, #0
	bne	.L1940
	ldr	r9, [r8, #12]
	mcr	p15, 0, r0, c7, c10, 5
.L1988:
	ldrex	r3, [r4]
	add	r3, r3, #1
	strex	r2, r3, [r4]
	cmp	r2, #0
	bne	.L1988
	mcr	p15, 0, r0, c7, c10, 5
	ldr	r8, [r8, #36]
	mcr	p15, 0, r0, c7, c10, 5
.L1989:
	ldrex	r3, [r4]
	add	r3, r3, #1
	strex	r2, r3, [r4]
	cmp	r2, #0
	bne	.L1989
	mcr	p15, 0, r0, c7, c10, 5
.L1941:
	mov	r3, #0
	mov	r0, #8
	str	r3, [sp, #8]
.LEHB53:
	bl	_Znwj(PLT)
.LEHE53:
	cmp	r6, #0
	str	r9, [r0]
	str	r5, [r0, #4]
	beq	.L1912
	mcr	p15, 0, r0, c7, c10, 5
.L1994:
	ldrex	r3, [r4]
	add	r3, r3, #1
	strex	r2, r3, [r4]
	cmp	r2, #0
	bne	.L1994
	mcr	p15, 0, r0, c7, c10, 5
.L1913:
	ldr	r2, .L2011+8
	ldr	r3, .L2011+12
	str	r0, [sp]
	ldr	r2, [r7, r2]
	mov	r0, r8
	str	r2, [sp, #12]
	ldr	r3, [r7, r3]
	mov	r1, sp
	mov	r9, sp
	str	r3, [sp, #8]
.LEHB54:
	bl	_ZN7asiopal8Executor18BlockUntilAndFlushERKSt8functionIFvvEE(PLT)
.LEHE54:
	ldr	r3, [sp, #8]
	cmp	r3, #0
	beq	.L1918
	mov	r2, #3
	mov	r1, sp
	mov	r0, r9
	blx	r3
.L1918:
	cmp	r6, #0
	beq	.L1919
	mcr	p15, 0, r0, c7, c10, 5
.L1993:
	ldrex	r3, [r4]
	sub	r2, r3, #1
	strex	r1, r2, [r4]
	cmp	r1, #0
	bne	.L1993
	cmp	r3, #1
	mcr	p15, 0, r0, c7, c10, 5
	beq	.L2006
.L1945:
	mcr	p15, 0, r0, c7, c10, 5
.L1992:
	ldrex	r3, [r4]
	sub	r2, r3, #1
	strex	r1, r2, [r4]
	cmp	r1, #0
	bne	.L1992
	cmp	r3, #1
	mcr	p15, 0, r0, c7, c10, 5
	beq	.L2007
.L1926:
	cmp	r6, #0
	beq	.L1930
.L1929:
	mcr	p15, 0, r0, c7, c10, 5
.L1991:
	ldrex	r3, [r4]
	sub	r2, r3, #1
	strex	r1, r2, [r4]
	cmp	r1, #0
	bne	.L1991
	cmp	r3, #1
	mcr	p15, 0, r0, c7, c10, 5
	beq	.L2008
.L1905:
	add	sp, sp, #20
	@ sp needed
	pop	{r4, r5, r6, r7, r8, r9, pc}
.L1912:
	ldr	r3, [r5, #28]
	add	r3, r3, #1
	str	r3, [r5, #28]
	b	.L1913
.L1907:
	ldr	r3, [r5, #28]
	add	r4, r5, #28
	add	r2, r3, #1
	cmp	r3, #0
	str	r2, [r5, #28]
	beq	.L1937
	add	r3, r3, #3
	ldr	r9, [r8, #12]
	ldr	r8, [r8, #36]
	str	r3, [r5, #28]
	b	.L1941
.L1930:
	ldr	r3, [r5, #28]
	cmp	r3, #1
	sub	r3, r3, #1
	str	r3, [r5, #28]
	bne	.L1905
	ldr	r3, [r5]
	mov	r0, r5
	ldr	r3, [r3, #8]
	blx	r3
	mcr	p15, 0, r0, c7, c10, 5
	ldr	r2, [r5, #32]
	sub	r3, r2, #1
	str	r3, [r5, #32]
	b	.L1948
.L1919:
	ldr	r3, [r5, #28]
	cmp	r3, #1
	sub	r3, r3, #1
	str	r3, [r5, #28]
	beq	.L2009
	cmp	r3, #1
	sub	r3, r3, #1
	str	r3, [r5, #28]
	bne	.L1926
.L2010:
	ldr	r3, [r5]
	mov	r0, r5
	ldr	r3, [r3, #8]
	blx	r3
	mcr	p15, 0, r0, c7, c10, 5
	ldr	r3, [r5, #32]
	cmp	r3, #1
	sub	r3, r3, #1
	str	r3, [r5, #32]
	bne	.L1930
.L1946:
	ldr	r3, [r5]
	mov	r0, r5
	ldr	r3, [r3, #12]
	blx	r3
	b	.L1926
.L2008:
	ldr	r3, [r5]
	mov	r0, r5
	ldr	r3, [r3, #8]
	blx	r3
	add	r3, r5, #32
	mcr	p15, 0, r0, c7, c10, 5
	mcr	p15, 0, r0, c7, c10, 5
.L1985:
	ldrex	r2, [r3]
	sub	r1, r2, #1
	strex	r0, r1, [r3]
	cmp	r0, #0
	bne	.L1985
	mcr	p15, 0, r0, c7, c10, 5
.L1948:
	cmp	r2, #1
	bne	.L1905
	ldr	r3, [r5]
	mov	r0, r5
	ldr	r3, [r3, #12]
	blx	r3
	b	.L1905
.L2007:
	ldr	r3, [r5]
	mov	r0, r5
	ldr	r3, [r3, #8]
	blx	r3
	add	r3, r5, #32
	mcr	p15, 0, r0, c7, c10, 5
	mcr	p15, 0, r0, c7, c10, 5
.L1986:
	ldrex	r2, [r3]
	sub	r1, r2, #1
	strex	r0, r1, [r3]
	cmp	r0, #0
	bne	.L1986
	cmp	r2, #1
	mcr	p15, 0, r0, c7, c10, 5
	bne	.L1929
	b	.L1946
.L2006:
	ldr	r3, [r5]
	mov	r0, r5
	ldr	r3, [r3, #8]
	blx	r3
	add	r3, r5, #32
	mcr	p15, 0, r0, c7, c10, 5
	mcr	p15, 0, r0, c7, c10, 5
.L1987:
	ldrex	r2, [r3]
	sub	r1, r2, #1
	strex	r0, r1, [r3]
	cmp	r0, #0
	bne	.L1987
	cmp	r2, #1
	mcr	p15, 0, r0, c7, c10, 5
	bne	.L1945
.L1942:
	ldr	r3, [r5]
	mov	r0, r5
	ldr	r3, [r3, #12]
	blx	r3
	cmp	r6, #0
	bne	.L1945
.L1996:
	ldr	r3, [r5, #28]
	cmp	r3, #1
	sub	r3, r3, #1
	str	r3, [r5, #28]
	bne	.L1926
	b	.L2010
.L2009:
	ldr	r3, [r5]
	mov	r0, r5
	ldr	r3, [r3, #8]
	blx	r3
	mcr	p15, 0, r0, c7, c10, 5
	ldr	r3, [r5, #32]
	cmp	r3, #1
	sub	r3, r3, #1
	str	r3, [r5, #32]
	bne	.L1996
	b	.L1942
.L1906:
.LEHB55:
	bl	_ZSt20__throw_bad_weak_ptrv(PLT)
.LEHE55:
.L1937:
	mov	r3, #0
	str	r3, [r5, #28]
.LEHB56:
	bl	_ZSt20__throw_bad_weak_ptrv(PLT)
.LEHE56:
.L1950:
	mov	r0, sp
	bl	_ZN9__gnu_cxx13__scoped_lockD1Ev(PLT)
.L1997:
.LEHB57:
	bl	__cxa_end_cleanup(PLT)
.L2005:
	mov	r0, #4
	bl	__cxa_allocate_exception(PLT)
	ldr	r1, .L2011+16
	ldr	r2, .L2011+20
	ldr	r3, .L2011+24
	ldr	r1, [r7, r1]
	add	r1, r1, #8
	str	r1, [r0]
	ldr	r2, [r7, r2]
	ldr	r1, [r7, r3]
	bl	__cxa_throw(PLT)
.LEHE57:
.L1940:
	mov	r0, #4
	bl	__cxa_allocate_exception(PLT)
	ldr	r1, .L2011+28
	ldr	r2, .L2011+32
	ldr	r3, .L2011+36
	ldr	r1, [r7, r1]
	add	r1, r1, #8
	str	r1, [r0]
	ldr	r2, [r7, r2]
	ldr	r1, [r7, r3]
.LEHB58:
	bl	__cxa_throw(PLT)
.LEHE58:
.L1951:
	cmn	r1, #1
	bne	.L1997
.LEHB59:
	bl	__cxa_call_unexpected(PLT)
.LEHE59:
.L1949:
	ldr	r3, [sp, #8]
	cmp	r3, #0
	beq	.L1917
	mov	r2, #3
	mov	r1, r9
	mov	r0, r9
	blx	r3
.L1917:
	mov	r0, r5
	bl	_ZNSt16_Sp_counted_baseILN9__gnu_cxx12_Lock_policyE1EE10_M_releaseEv(PLT)
	mov	r0, r5
	bl	_ZNSt16_Sp_counted_baseILN9__gnu_cxx12_Lock_policyE1EE10_M_releaseEv(PLT)
	mov	r0, r5
	bl	_ZNSt16_Sp_counted_baseILN9__gnu_cxx12_Lock_policyE1EE10_M_releaseEv(PLT)
.LEHB60:
	bl	__cxa_end_cleanup(PLT)
.LEHE60:
.L1952:
	ldr	r3, [sp, #8]
	cmp	r3, #0
	beq	.L1917
	mov	r1, sp
	mov	r0, sp
	mov	r2, #3
	blx	r3
	b	.L1917
.L2012:
	.align	2
.L2011:
	.word	_GLOBAL_OFFSET_TABLE_-(.LPIC112+8)
	.word	_ZL28__gthrw___pthread_key_createPjPFvPvE(GOT)
	.word	_ZNSt17_Function_handlerIFvvEZN8asiodnp39StackBase15PerformShutdownINS1_15OutstationStackEEEvRKSt10shared_ptrIT_EEUlvE_E9_M_invokeERKSt9_Any_data(GOT)
	.word	_ZNSt14_Function_base13_Base_managerIZN8asiodnp39StackBase15PerformShutdownINS1_15OutstationStackEEEvRKSt10shared_ptrIT_EEUlvE_E10_M_managerERSt9_Any_dataRKSC_St18_Manager_operation(GOT)
	.word	_ZTVN9__gnu_cxx24__concurrence_lock_errorE(GOT)
	.word	_ZN9__gnu_cxx24__concurrence_lock_errorD1Ev(GOT)
	.word	_ZTIN9__gnu_cxx24__concurrence_lock_errorE(GOT)
	.word	_ZTVN9__gnu_cxx26__concurrence_unlock_errorE(GOT)
	.word	_ZN9__gnu_cxx26__concurrence_unlock_errorD1Ev(GOT)
	.word	_ZTIN9__gnu_cxx26__concurrence_unlock_errorE(GOT)
	.personality	__gxx_personality_v0
	.handlerdata
	.align	2
.LLSDA8174:
	.byte	0xff
	.byte	0x90
	.uleb128 .LLSDATT8174-.LLSDATTD8174
.LLSDATTD8174:
	.byte	0x1
	.uleb128 .LLSDACSE8174-.LLSDACSB8174
.LLSDACSB8174:
	.uleb128 .LEHB53-.LFB8174
	.uleb128 .LEHE53-.LEHB53
	.uleb128 .L1952-.LFB8174
	.uleb128 0
	.uleb128 .LEHB54-.LFB8174
	.uleb128 .LEHE54-.LEHB54
	.uleb128 .L1949-.LFB8174
	.uleb128 0
	.uleb128 .LEHB55-.LFB8174
	.uleb128 .LEHE55-.LEHB55
	.uleb128 0
	.uleb128 0
	.uleb128 .LEHB56-.LFB8174
	.uleb128 .LEHE56-.LEHB56
	.uleb128 .L1950-.LFB8174
	.uleb128 0
	.uleb128 .LEHB57-.LFB8174
	.uleb128 .LEHE57-.LEHB57
	.uleb128 0
	.uleb128 0
	.uleb128 .LEHB58-.LFB8174
	.uleb128 .LEHE58-.LEHB58
	.uleb128 .L1951-.LFB8174
	.uleb128 0x1
	.uleb128 .LEHB59-.LFB8174
	.uleb128 .LEHE59-.LEHB59
	.uleb128 0
	.uleb128 0
	.uleb128 .LEHB60-.LFB8174
	.uleb128 .LEHE60-.LEHB60
	.uleb128 0
	.uleb128 0
.LLSDACSE8174:
	.byte	0x7f
	.byte	0
	.align	2
.LLSDATT8174:
	.word	0
	.text
	.fnend
	.size	_ZN8asiodnp315OutstationStack8ShutdownEv, .-_ZN8asiodnp315OutstationStack8ShutdownEv
	.section	.text._ZNSt17_Function_handlerIFvvEZN8asiodnp39StackBase15PerformShutdownINS1_15OutstationStackEEEvRKSt10shared_ptrIT_EEUlvE_E9_M_invokeERKSt9_Any_data,"axG",%progbits,_ZNSt17_Function_handlerIFvvEZN8asiodnp39StackBase15PerformShutdownINS1_15OutstationStackEEEvRKSt10shared_ptrIT_EEUlvE_E9_M_invokeERKSt9_Any_data,comdat
	.align	2
	.weak	_ZNSt17_Function_handlerIFvvEZN8asiodnp39StackBase15PerformShutdownINS1_15OutstationStackEEEvRKSt10shared_ptrIT_EEUlvE_E9_M_invokeERKSt9_Any_data
	.syntax unified
	.arm
	.fpu vfp
	.type	_ZNSt17_Function_handlerIFvvEZN8asiodnp39StackBase15PerformShutdownINS1_15OutstationStackEEEvRKSt10shared_ptrIT_EEUlvE_E9_M_invokeERKSt9_Any_data, %function
_ZNSt17_Function_handlerIFvvEZN8asiodnp39StackBase15PerformShutdownINS1_15OutstationStackEEEvRKSt10shared_ptrIT_EEUlvE_E9_M_invokeERKSt9_Any_data:
	.fnstart
.LFB10233:
	@ args = 0, pretend = 0, frame = 40
	@ frame_needed = 0, uses_anonymous_args = 0
	push	{r4, r5, r6, r7, r8, r9, r10, fp, lr}
	.save {r4, r5, r6, r7, r8, r9, r10, fp, lr}
	.pad #44
	sub	sp, sp, #44
	ldr	r6, [r0]
	ldr	r4, .L2133
	ldm	r6, {r2, r3}
.LPIC113:
	add	r4, pc, r4
	add	r1, r2, #4
	cmp	r3, #0
	ldr	r0, [r2, #44]
	str	r1, [sp, #24]
	str	r3, [sp, #28]
	beq	.L2014
	ldr	r2, .L2133+4
	ldr	r2, [r4, r2]
	cmp	r2, #0
	beq	.L2015
	add	r3, r3, #28
	mcr	p15, 0, r0, c7, c10, 5
.L2118:
	ldrex	r2, [r3]
	add	r2, r2, #1
	strex	r1, r2, [r3]
	cmp	r1, #0
	bne	.L2118
	mcr	p15, 0, r0, c7, c10, 5
.L2014:
	add	r9, sp, #24
	mov	r1, r9
.LEHB61:
	bl	_ZN8asiodnp39IOHandler6RemoveERKSt10shared_ptrIN8opendnp312ILinkSessionEE(PLT)
.LEHE61:
	ldr	r5, [sp, #28]
	cmp	r5, #0
	beq	.L2017
	ldr	r3, .L2133+4
	ldr	r3, [r4, r3]
	cmp	r3, #0
	beq	.L2018
	add	r3, r5, #28
	mcr	p15, 0, r0, c7, c10, 5
.L2117:
	ldrex	r2, [r3]
	sub	r1, r2, #1
	strex	r0, r1, [r3]
	cmp	r0, #0
	bne	.L2117
	cmp	r2, #1
	mcr	p15, 0, r0, c7, c10, 5
	beq	.L2129
.L2017:
	ldm	r6, {r2, r5}
	cmp	r5, #0
	beq	.L2022
	ldr	r3, .L2133+4
	ldr	r3, [r4, r3]
	cmp	r3, #0
	beq	.L2023
	add	r3, r5, #28
	mcr	p15, 0, r0, c7, c10, 5
.L2115:
	ldrex	r1, [r3]
	add	r1, r1, #1
	strex	r0, r1, [r3]
	cmp	r0, #0
	bne	.L2115
	mcr	p15, 0, r0, c7, c10, 5
	ldr	r1, [r6]
	str	r2, [sp, #12]
	str	r5, [sp, #16]
	ldr	r7, [r1, #36]
	mcr	p15, 0, r0, c7, c10, 5
.L2116:
	ldrex	r2, [r3]
	add	r2, r2, #1
	strex	r1, r2, [r3]
	cmp	r1, #0
	bne	.L2116
	mcr	p15, 0, r0, c7, c10, 5
	ldr	r6, [sp, #16]
.L2024:
	add	r0, sp, #12
	bl	_ZN4asio28asio_handler_is_continuationEz(PLT)
	ldr	r3, .L2133+8
	ldr	fp, [r7, #20]
	ldr	r3, [r4, r3]
	str	r3, [sp, #4]
	mov	r10, r0
	ldr	r0, [r3]
	bl	pthread_getspecific(PLT)
	cmp	r0, #0
	beq	.L2025
	ldr	r2, [r0, #4]
	cmp	r2, #0
	beq	.L2025
	ldr	r8, [r2]
	cmp	r8, #0
	beq	.L2025
	mov	r1, #0
	str	r1, [r2]
	ldrb	r2, [r8]	@ zero_extendqisi2
	cmp	r2, #19
	bls	.L2130
.L2120:
	strb	r2, [r8, #20]
	ldr	r2, .L2133+12
	mov	r1, #0
	str	r1, [r8]
	ldr	r0, [r4, r2]
	ldr	r2, [sp, #12]
	cmp	r6, r1
	stmib	r8, {r0, r1, r2, r6}
	beq	.L2028
	ldr	r2, .L2133+4
	ldr	r2, [r4, r2]
	cmp	r2, r1
	beq	.L2029
	add	r6, r6, #28
	mcr	p15, 0, r0, c7, c10, 5
.L2114:
	ldrex	r3, [r6]
	add	r3, r3, #1
	strex	r2, r3, [r6]
	cmp	r2, #0
	bne	.L2114
	mcr	p15, 0, r0, c7, c10, 5
.L2028:
	ldr	r0, [r7, #24]
	add	r0, r0, #12
	bl	pthread_mutex_lock(PLT)
	ldr	r0, [r7, #24]
	ldrb	r6, [r0, #36]	@ zero_extendqisi2
	cmp	r6, #0
	beq	.L2030
	ldr	r2, [r0, #44]
	mov	r1, #0
	cmp	r2, r1
	str	r1, [r8]
	add	r0, r0, #12
	strne	r8, [r2]
	streq	r8, [r0, #32]
	strne	r8, [r0, #32]
	streq	r8, [r0, #28]
	bl	pthread_mutex_unlock(PLT)
.L2033:
	ldr	r6, [sp, #16]
	cmp	r6, #0
	beq	.L2049
	ldr	r3, .L2133+4
	ldr	r3, [r4, r3]
	cmp	r3, #0
	beq	.L2050
	add	r3, r6, #28
	mcr	p15, 0, r0, c7, c10, 5
.L2112:
	ldrex	r2, [r3]
	sub	r1, r2, #1
	strex	r0, r1, [r3]
	cmp	r0, #0
	bne	.L2112
	cmp	r2, #1
	mcr	p15, 0, r0, c7, c10, 5
	beq	.L2131
.L2049:
	cmp	r5, #0
	beq	.L2013
	ldr	r3, .L2133+4
	ldr	r3, [r4, r3]
	cmp	r3, #0
	beq	.L2060
	add	r3, r5, #28
	mcr	p15, 0, r0, c7, c10, 5
.L2111:
	ldrex	r2, [r3]
	sub	r1, r2, #1
	strex	r0, r1, [r3]
	cmp	r0, #0
	bne	.L2111
	cmp	r2, #1
	mcr	p15, 0, r0, c7, c10, 5
	beq	.L2132
.L2013:
	add	sp, sp, #44
	@ sp needed
	pop	{r4, r5, r6, r7, r8, r9, r10, fp, pc}
.L2130:
	mov	r0, r8
	bl	_ZdlPv(PLT)
.L2025:
	mov	r0, #21
.LEHB62:
	bl	_Znwj(PLT)
.LEHE62:
	mov	r8, r0
	mov	r2, #20
	b	.L2120
.L2029:
	ldr	r2, [r6, #28]
	add	r2, r2, #1
	str	r2, [r6, #28]
	b	.L2028
.L2018:
	ldr	r3, [r5, #28]
	cmp	r3, #1
	sub	r3, r3, #1
	str	r3, [r5, #28]
	bne	.L2017
	ldr	r3, [r5]
	mov	r0, r5
	ldr	r3, [r3, #8]
	blx	r3
	mcr	p15, 0, r0, c7, c10, 5
	ldr	r2, [r5, #32]
	sub	r3, r2, #1
	str	r3, [r5, #32]
	b	.L2067
.L2023:
	ldr	r3, [r5, #28]
	ldr	r7, [r2, #36]
	add	r3, r3, #2
	mov	r6, r5
	str	r2, [sp, #12]
	str	r5, [sp, #16]
	str	r3, [r5, #28]
	b	.L2024
.L2015:
	ldr	r2, [r3, #28]
	add	r2, r2, #1
	str	r2, [r3, #28]
	b	.L2014
.L2030:
	mov	r2, #1
	strb	r2, [r0, #36]
	add	r0, r0, #12
	bl	pthread_mutex_unlock(PLT)
	ldr	r7, [r7, #24]
	str	r6, [r8]
	ldr	r6, [fp, #20]
	ldr	r2, [r7, #52]
	ldrb	r3, [r6, #20]	@ zero_extendqisi2
	cmp	r2, #0
	strne	r8, [r2]
	orr	r10, r10, r3
	strne	r8, [r7, #52]
	streq	r8, [r7, #52]
	streq	r8, [r7, #48]
	tst	r10, #255
	beq	.L2036
	ldr	r3, [sp, #4]
	ldr	r0, [r3]
	bl	pthread_getspecific(PLT)
	cmp	r0, #0
	beq	.L2036
	ldr	r3, [r0]
	cmp	r3, r6
	bne	.L2039
	b	.L2037
.L2106:
	ldr	r3, [r0]
	cmp	r6, r3
	beq	.L2037
.L2039:
	ldr	r0, [r0, #8]
	cmp	r0, #0
	bne	.L2106
.L2036:
	add	r3, r6, #124
	mcr	p15, 0, r0, c7, c10, 5
.L2113:
	ldrex	r2, [r3]
	add	r2, r2, #1
	strex	r1, r2, [r3]
	cmp	r1, #0
	bne	.L2113
	add	r8, r6, #24
	mcr	p15, 0, r0, c7, c10, 5
	mov	r0, r8
	bl	pthread_mutex_lock(PLT)
	ldr	r3, [r6, #132]
	mov	r2, #0
	cmp	r3, r2
	str	r2, [r7]
	strne	r7, [r3]
	ldr	r3, [r6, #96]
	strne	r7, [r6, #132]
	orr	r3, r3, #1
	streq	r7, [r6, #132]
	streq	r7, [r6, #128]
	cmp	r3, #1
	add	r7, r6, #48
	str	r3, [r6, #96]
	beq	.L2045
	mov	r0, r8
	bl	pthread_mutex_unlock(PLT)
	mov	r0, r7
	bl	pthread_cond_signal(PLT)
	b	.L2033
.L2129:
	ldr	r3, [r5]
	mov	r0, r5
	ldr	r3, [r3, #8]
	blx	r3
	add	r3, r5, #32
	mcr	p15, 0, r0, c7, c10, 5
	mcr	p15, 0, r0, c7, c10, 5
.L2110:
	ldrex	r2, [r3]
	sub	r1, r2, #1
	strex	r0, r1, [r3]
	cmp	r0, #0
	bne	.L2110
	mcr	p15, 0, r0, c7, c10, 5
.L2067:
	cmp	r2, #1
	bne	.L2017
	ldr	r3, [r5]
	mov	r0, r5
	ldr	r3, [r3, #12]
	blx	r3
	b	.L2017
.L2050:
	ldr	r3, [r6, #28]
	cmp	r3, #1
	sub	r3, r3, #1
	str	r3, [r6, #28]
	bne	.L2049
	ldr	r3, [r6]
	mov	r0, r6
	ldr	r3, [r3, #8]
	blx	r3
	mcr	p15, 0, r0, c7, c10, 5
	ldr	r2, [r6, #32]
	sub	r3, r2, #1
	str	r3, [r6, #32]
	b	.L2068
.L2045:
	ldrb	r2, [r6, #120]	@ zero_extendqisi2
	cmp	r2, #0
	bne	.L2047
	ldr	r0, [r6, #104]
	cmp	r0, #0
	beq	.L2047
	add	r1, r0, #48
	mov	ip, #-2147483639
	strb	r3, [r6, #120]
	str	r1, [sp, #32]
	str	r2, [r9, #4]
	str	r2, [r9, #12]
	str	ip, [sp, #24]
	mov	r3, r9
	ldr	r2, [r0, #48]
	mov	r1, #3
	ldr	r0, [r0, #56]
	bl	epoll_ctl(PLT)
.L2047:
	mov	r0, r8
	bl	pthread_mutex_unlock(PLT)
	b	.L2033
.L2022:
	str	r2, [sp, #12]
	ldr	r7, [r2, #36]
	str	r5, [sp, #16]
	mov	r6, r5
	b	.L2024
.L2060:
	ldr	r3, [r5, #28]
	cmp	r3, #1
	sub	r3, r3, #1
	str	r3, [r5, #28]
	bne	.L2013
	ldr	r3, [r5]
	mov	r0, r5
	ldr	r3, [r3, #8]
	blx	r3
	mcr	p15, 0, r0, c7, c10, 5
	ldr	r2, [r5, #32]
	sub	r3, r2, #1
	str	r3, [r5, #32]
	b	.L2069
.L2037:
	ldr	r3, [r0, #4]
	cmp	r3, #0
	beq	.L2036
	ldr	r1, [r3, #8]
	ldr	r2, [r3, #12]
	cmp	r1, #0
	add	r2, r2, #1
	mov	r0, #0
	str	r2, [r3, #12]
	str	r0, [r7]
	strne	r7, [r1]
	streq	r7, [r3, #8]
	strne	r7, [r3, #8]
	streq	r7, [r3, #4]
	b	.L2033
.L2132:
	ldr	r3, [r5]
	mov	r0, r5
	ldr	r3, [r3, #8]
	blx	r3
	add	r3, r5, #32
	mcr	p15, 0, r0, c7, c10, 5
	mcr	p15, 0, r0, c7, c10, 5
.L2108:
	ldrex	r2, [r3]
	sub	r1, r2, #1
	strex	r0, r1, [r3]
	cmp	r0, #0
	bne	.L2108
	mcr	p15, 0, r0, c7, c10, 5
.L2069:
	cmp	r2, #1
	bne	.L2013
	ldr	r3, [r5]
	mov	r0, r5
	ldr	r3, [r3, #12]
	blx	r3
	b	.L2013
.L2131:
	ldr	r3, [r6]
	mov	r0, r6
	ldr	r3, [r3, #8]
	blx	r3
	add	r3, r6, #32
	mcr	p15, 0, r0, c7, c10, 5
	mcr	p15, 0, r0, c7, c10, 5
.L2109:
	ldrex	r2, [r3]
	sub	r1, r2, #1
	strex	r0, r1, [r3]
	cmp	r0, #0
	bne	.L2109
	mcr	p15, 0, r0, c7, c10, 5
.L2068:
	cmp	r2, #1
	bne	.L2049
	ldr	r3, [r6]
	mov	r0, r6
	ldr	r3, [r3, #12]
	blx	r3
	b	.L2049
.L2070:
	ldr	r0, [sp, #28]
	cmp	r0, #0
	beq	.L2059
.L2121:
	bl	_ZNSt16_Sp_counted_baseILN9__gnu_cxx12_Lock_policyE1EE10_M_releaseEv(PLT)
.L2059:
.LEHB63:
	bl	__cxa_end_cleanup(PLT)
.LEHE63:
.L2071:
	cmp	r6, #0
	beq	.L2057
	mov	r0, r6
	bl	_ZNSt16_Sp_counted_baseILN9__gnu_cxx12_Lock_policyE1EE10_M_releaseEv(PLT)
.L2057:
	cmp	r5, #0
	movne	r0, r5
	bne	.L2121
	b	.L2059
.L2134:
	.align	2
.L2133:
	.word	_GLOBAL_OFFSET_TABLE_-(.LPIC113+8)
	.word	_ZL28__gthrw___pthread_key_createPjPFvPvE(GOT)
	.word	_ZN4asio6detail10call_stackINS0_15task_io_serviceENS0_27task_io_service_thread_infoEE4top_E(GOT)
	.word	_ZN4asio6detail18completion_handlerIZZN8asiodnp39StackBase15PerformShutdownINS2_15OutstationStackEEEvRKSt10shared_ptrIT_EENKUlvE_clEvEUlvE_E11do_completeEPNS0_15task_io_serviceEPNS0_25task_io_service_operationERKSt10error_codej(GOT)
	.personality	__gxx_personality_v0
	.handlerdata
.LLSDA10233:
	.byte	0xff
	.byte	0xff
	.byte	0x1
	.uleb128 .LLSDACSE10233-.LLSDACSB10233
.LLSDACSB10233:
	.uleb128 .LEHB61-.LFB10233
	.uleb128 .LEHE61-.LEHB61
	.uleb128 .L2070-.LFB10233
	.uleb128 0
	.uleb128 .LEHB62-.LFB10233
	.uleb128 .LEHE62-.LEHB62
	.uleb128 .L2071-.LFB10233
	.uleb128 0
	.uleb128 .LEHB63-.LFB10233
	.uleb128 .LEHE63-.LEHB63
	.uleb128 0
	.uleb128 0
.LLSDACSE10233:
	.section	.text._ZNSt17_Function_handlerIFvvEZN8asiodnp39StackBase15PerformShutdownINS1_15OutstationStackEEEvRKSt10shared_ptrIT_EEUlvE_E9_M_invokeERKSt9_Any_data,"axG",%progbits,_ZNSt17_Function_handlerIFvvEZN8asiodnp39StackBase15PerformShutdownINS1_15OutstationStackEEEvRKSt10shared_ptrIT_EEUlvE_E9_M_invokeERKSt9_Any_data,comdat
	.fnend
	.size	_ZNSt17_Function_handlerIFvvEZN8asiodnp39StackBase15PerformShutdownINS1_15OutstationStackEEEvRKSt10shared_ptrIT_EEUlvE_E9_M_invokeERKSt9_Any_data, .-_ZNSt17_Function_handlerIFvvEZN8asiodnp39StackBase15PerformShutdownINS1_15OutstationStackEEEvRKSt10shared_ptrIT_EEUlvE_E9_M_invokeERKSt9_Any_data
	.section	.text._ZNSt7promiseIbED2Ev,"axG",%progbits,_ZNSt7promiseIbED5Ev,comdat
	.align	2
	.weak	_ZNSt7promiseIbED2Ev
	.syntax unified
	.arm
	.fpu vfp
	.type	_ZNSt7promiseIbED2Ev, %function
_ZNSt7promiseIbED2Ev:
	.fnstart
.LFB9827:
	@ args = 0, pretend = 0, frame = 72
	@ frame_needed = 0, uses_anonymous_args = 0
	push	{r4, r5, r6, r7, r8, r9, r10, fp, lr}
	.save {r4, r5, r6, r7, r8, r9, r10, fp, lr}
	mov	r4, r0
	ldr	r6, [r0]
	ldr	r5, .L2184
	cmp	r6, #0
.LPIC115:
	add	r5, pc, r5
	.pad #84
	sub	sp, sp, #84
	beq	.L2179
	ldr	r7, [r0, #4]
	cmp	r7, #0
	beq	.L2138
	ldr	r3, [r7, #28]
	cmp	r3, #1
	beq	.L2179
.L2138:
	ldr	fp, [r4, #8]
	mov	r8, #0
	cmp	fp, r8
	str	r8, [r4, #8]
	beq	.L2140
	bl	_ZSt15future_categoryv(PLT)
	add	r9, sp, #32
	mov	r2, #4
	ldr	r3, [r0]
	mov	r1, r0
	mov	r7, r0
	ldr	r3, [r3, #16]
	mov	r0, r9
	blx	r3
	mov	r3, #19
	str	r3, [sp]
	ldr	r3, .L2184+4
	mov	r0, r9
.LPIC114:
	add	r3, pc, r3
	mov	r2, r8
	mov	r1, r8
.LEHB64:
	bl	_ZNSt7__cxx1112basic_stringIcSt11char_traitsIcESaIcEE10_M_replaceEjjPKcj(PLT)
.LEHE64:
	mov	lr, r0
	add	r8, sp, #64
	str	r8, [sp, #56]
	ldr	r3, [lr], #8
	mov	ip, r0
	cmp	r3, lr
	strne	r3, [sp, #56]
	ldreq	r0, [lr]	@ unaligned
	ldreq	r1, [lr, #4]	@ unaligned
	ldreq	r2, [lr, #8]	@ unaligned
	ldreq	r3, [lr, #12]	@ unaligned
	ldrne	r3, [ip, #8]
	moveq	r10, r8
	strne	r3, [sp, #64]
	stmiaeq	r10!, {r0, r1, r2, r3}
	mov	r3, #0
	ldr	r2, [ip, #4]
	add	r10, sp, #16
	str	r2, [sp, #60]
	add	r1, sp, #56
	str	lr, [ip]
	str	r3, [ip, #4]
	strb	r3, [ip, #8]
	mov	r0, r10
	str	r1, [sp, #12]
.LEHB65:
	bl	_ZNSt11logic_errorC2ERKNSt7__cxx1112basic_stringIcSt11char_traitsIcESaIcEEE(PLT)
.LEHE65:
	ldr	r0, [sp, #56]
	cmp	r0, r8
	beq	.L2143
	bl	_ZdlPv(PLT)
.L2143:
	ldr	r0, [sp, #32]
	add	r3, sp, #40
	cmp	r0, r3
	beq	.L2144
	bl	_ZdlPv(PLT)
.L2144:
	ldr	r3, .L2184+8
	mov	r2, #4
	mov	r0, #16
	ldr	r3, [r5, r3]
	str	r7, [sp, #28]
	add	r7, r3, #8
	str	r2, [sp, #24]
	str	r7, [sp, #16]
	bl	__cxa_allocate_exception(PLT)
	mov	r1, r10
	mov	r8, r0
	bl	_ZNSt11logic_errorC2ERKS_(PLT)
	add	r2, sp, #24
	ldr	ip, .L2184+12
	ldm	r2, {r0, r1}
	ldr	lr, .L2184+16
	mov	r3, r8
	str	r7, [r3], #8
	stm	r3, {r0, r1}
	mov	r0, r8
	ldr	r2, [r5, ip]
	ldr	r1, [r5, lr]
.LEHB66:
	bl	__cxa_throw(PLT)
.LEHE66:
.L2162:
	bl	__cxa_begin_catch(PLT)
	ldr	r7, [sp, #12]
	mov	r0, r7
	bl	_ZSt17current_exceptionv(PLT)
	bl	__cxa_end_catch(PLT)
	ldr	r2, [sp, #56]
	mov	r3, #0
	add	r1, fp, #4
	mov	r0, r9
	str	r2, [sp, #32]
	str	r3, [sp, #56]
	bl	_ZNSt15__exception_ptr13exception_ptr4swapERS0_(PLT)
	mov	r0, r9
	bl	_ZNSt15__exception_ptr13exception_ptrD1Ev(PLT)
	mov	r0, r7
	bl	_ZNSt15__exception_ptr13exception_ptrD1Ev(PLT)
	mov	r0, r10
	bl	_ZNSt12future_errorD1Ev(PLT)
	add	r0, r6, #8
	mov	r2, #1
	ldr	r7, [r6, #4]
	str	fp, [r6, #4]
	mcr	p15, 0, r0, c7, c10, 5
.L2177:
	ldrex	r3, [r0]
	strex	r1, r2, [r0]
	cmp	r1, #0
	bne	.L2177
	cmp	r3, #0
	bge	.L2150
	bl	_ZNSt28__atomic_futex_unsigned_base19_M_futex_notify_allEPj(PLT)
.L2150:
	cmp	r7, #0
	beq	.L2179
	ldr	r3, [r7]
	mov	r0, r7
	ldr	r3, [r3]
	blx	r3
.L2179:
	ldr	r6, [r4, #8]
	cmp	r6, #0
	beq	.L2180
	ldr	r2, [r6]
	ldr	r3, .L2184+20
	ldr	r1, [r2]
	ldr	r3, [r5, r3]
	cmp	r1, r3
	bne	.L2153
	ldr	r3, .L2184+24
	ldr	r2, [r2, #8]
	ldr	r3, [r5, r3]
	cmp	r2, r3
	bne	.L2154
	ldr	r3, .L2184+28
	mov	r0, r6
	ldr	r3, [r5, r3]
	add	r3, r3, #8
	str	r3, [r6]
	bl	_ZNSt13__future_base12_Result_baseD2Ev(PLT)
	mov	r0, r6
	mov	r1, #12
	bl	_ZdlPvj(PLT)
	ldr	r7, [r4, #4]
.L2140:
	cmp	r7, #0
	beq	.L2168
	ldr	r3, .L2184+32
	ldr	r3, [r5, r3]
	cmp	r3, #0
	beq	.L2157
	add	r3, r7, #28
	mcr	p15, 0, r0, c7, c10, 5
.L2176:
	ldrex	r2, [r3]
	sub	r1, r2, #1
	strex	r0, r1, [r3]
	cmp	r0, #0
	bne	.L2176
	cmp	r2, #1
	mcr	p15, 0, r0, c7, c10, 5
	beq	.L2183
.L2168:
	mov	r0, r4
	add	sp, sp, #84
	@ sp needed
	pop	{r4, r5, r6, r7, r8, r9, r10, fp, pc}
.L2153:
	mov	r0, r6
	blx	r1
.L2180:
	ldr	r7, [r4, #4]
	b	.L2140
.L2157:
	ldr	r3, [r7, #28]
	cmp	r3, #1
	sub	r3, r3, #1
	str	r3, [r7, #28]
	bne	.L2168
	ldr	r3, [r7]
	mov	r0, r7
	ldr	r3, [r3, #8]
	blx	r3
	mcr	p15, 0, r0, c7, c10, 5
	ldr	r2, [r7, #32]
	sub	r3, r2, #1
	str	r3, [r7, #32]
	b	.L2161
.L2154:
	mov	r0, r6
	blx	r2
	ldr	r7, [r4, #4]
	b	.L2140
.L2183:
	ldr	r3, [r7]
	mov	r0, r7
	ldr	r3, [r3, #8]
	blx	r3
	add	r3, r7, #32
	mcr	p15, 0, r0, c7, c10, 5
	mcr	p15, 0, r0, c7, c10, 5
.L2175:
	ldrex	r2, [r3]
	sub	r1, r2, #1
	strex	r0, r1, [r3]
	cmp	r0, #0
	bne	.L2175
	mcr	p15, 0, r0, c7, c10, 5
.L2161:
	cmp	r2, #1
	bne	.L2168
	ldr	r3, [r7]
	mov	r0, r7
	ldr	r3, [r3, #12]
	blx	r3
	b	.L2168
.L2163:
.L2147:
	ldr	r0, [sp, #32]
	add	r9, r9, #8
	cmp	r0, r9
	beq	.L2148
	bl	_ZdlPv(PLT)
.L2148:
	bl	_ZSt9terminatev(PLT)
.L2164:
	ldr	r3, [sp, #12]
	ldr	r0, [sp, #56]
	add	r3, r3, #8
	cmp	r0, r3
	beq	.L2147
	bl	_ZdlPv(PLT)
	b	.L2147
.L2185:
	.align	2
.L2184:
	.word	_GLOBAL_OFFSET_TABLE_-(.LPIC115+8)
	.word	.LC23-(.LPIC114+8)
	.word	_ZTVSt12future_error(GOT)
	.word	_ZNSt12future_errorD1Ev(GOT)
	.word	_ZTISt12future_error(GOT)
	.word	_ZNSt13__future_base7_ResultIbE10_M_destroyEv(GOT)
	.word	_ZNSt13__future_base7_ResultIbED0Ev(GOT)
	.word	_ZTVNSt13__future_base7_ResultIbEE(GOT)
	.word	_ZL28__gthrw___pthread_key_createPjPFvPvE(GOT)
	.personality	__gxx_personality_v0
	.handlerdata
	.align	2
.LLSDA9827:
	.byte	0xff
	.byte	0x90
	.uleb128 .LLSDATT9827-.LLSDATTD9827
.LLSDATTD9827:
	.byte	0x1
	.uleb128 .LLSDACSE9827-.LLSDACSB9827
.LLSDACSB9827:
	.uleb128 .LEHB64-.LFB9827
	.uleb128 .LEHE64-.LEHB64
	.uleb128 .L2163-.LFB9827
	.uleb128 0
	.uleb128 .LEHB65-.LFB9827
	.uleb128 .LEHE65-.LEHB65
	.uleb128 .L2164-.LFB9827
	.uleb128 0
	.uleb128 .LEHB66-.LFB9827
	.uleb128 .LEHE66-.LEHB66
	.uleb128 .L2162-.LFB9827
	.uleb128 0x1
.LLSDACSE9827:
	.byte	0x1
	.byte	0
	.align	2
	.word	0
.LLSDATT9827:
	.section	.text._ZNSt7promiseIbED2Ev,"axG",%progbits,_ZNSt7promiseIbED5Ev,comdat
	.fnend
	.size	_ZNSt7promiseIbED2Ev, .-_ZNSt7promiseIbED2Ev
	.weak	_ZNSt7promiseIbED1Ev
	.set	_ZNSt7promiseIbED1Ev,_ZNSt7promiseIbED2Ev
	.global	__sync_val_compare_and_swap_1
	.section	.text._ZN7asiopal8Executor10ReturnFromIbEET_RKSt8functionIFS2_vEE,"axG",%progbits,_ZN7asiopal8Executor10ReturnFromIbEET_RKSt8functionIFS2_vEE,comdat
	.align	2
	.weak	_ZN7asiopal8Executor10ReturnFromIbEET_RKSt8functionIFS2_vEE
	.syntax unified
	.arm
	.fpu vfp
	.type	_ZN7asiopal8Executor10ReturnFromIbEET_RKSt8functionIFS2_vEE, %function
_ZN7asiopal8Executor10ReturnFromIbEET_RKSt8functionIFS2_vEE:
	.fnstart
.LFB9281:
	@ args = 0, pretend = 0, frame = 104
	@ frame_needed = 0, uses_anonymous_args = 0
	push	{r4, r5, r6, r7, r8, r9, r10, fp, lr}
	.save {r4, r5, r6, r7, r8, r9, r10, fp, lr}
	mov	r5, r0
	ldr	r4, .L2379
	ldr	r3, .L2379+4
.LPIC116:
	add	r4, pc, r4
	ldr	r6, [r0, #24]
	ldr	r3, [r4, r3]
	.pad #124
	sub	sp, sp, #124
	mov	r7, r1
	ldr	r0, [r3]
	bl	pthread_getspecific(PLT)
	cmp	r0, #0
	bne	.L2335
	b	.L2187
.L2190:
	ldr	r0, [r0, #8]
	cmp	r0, #0
	beq	.L2187
.L2335:
	ldr	r3, [r0]
	cmp	r6, r3
	bne	.L2190
	ldr	r3, [r0, #4]
	cmp	r3, #0
	beq	.L2372
	ldr	r3, [r7, #8]
	cmp	r3, #0
	beq	.L2373
	ldr	r3, [r7, #12]
	mov	r0, r7
.LEHB67:
	blx	r3
	mov	r5, r0
.L2286:
	mov	r0, r5
	add	sp, sp, #124
	@ sp needed
	pop	{r4, r5, r6, r7, r8, r9, r10, fp, pc}
.L2187:
	mov	r3, #0
	mov	r0, #56
	str	r3, [sp, #44]
	str	r3, [sp, #48]
	bl	_Znwj(PLT)
.LEHE67:
.L2274:
	ldr	ip, .L2379+8
	mov	r3, #0
	mov	r1, #1
	str	r1, [r0, #28]
	str	r1, [r0, #32]
	str	r3, [r0, #4]
	str	r3, [r0, #8]
	str	r3, [r0, #12]
	str	r3, [r0, #16]
	str	r3, [r0, #20]
	str	r3, [r0, #24]
	ldr	r1, .L2379+12
	ldr	ip, [r4, ip]
	ldr	r2, .L2379+16
	add	ip, ip, #8
	str	ip, [r0]
	ldr	r1, [r4, r1]
	str	r3, [r0, #40]
	add	r1, r1, #8
	str	r1, [r0, #36]
	str	r3, [r0, #44]
	strb	r3, [r0, #48]
	str	r3, [r0, #52]
	str	r0, [sp, #48]
	ldr	r1, [r4, r2]
	bl	_ZNSt23_Sp_counted_ptr_inplaceINSt13__future_base13_State_baseV2ESaIS1_ELN9__gnu_cxx12_Lock_policyE1EE14_M_get_deleterERKSt9type_info(PLT)
	str	r0, [sp, #44]
	mov	r0, #12
.LEHB68:
	bl	_Znwj(PLT)
.LEHE68:
	mov	r8, r0
	bl	_ZNSt13__future_base12_Result_baseC2Ev(PLT)
	ldr	r3, .L2379+20
	ldr	r6, [sp, #48]
	mov	r2, #0
	ldr	r3, [r4, r3]
	cmp	r6, r2
	str	r3, [sp, #28]
	add	r3, r3, #8
	str	r8, [sp, #52]
	str	r3, [r8]
	strb	r2, [r8, #9]
	ldr	r9, [sp, #44]
	beq	.L2197
	ldr	r3, .L2379+24
	ldr	r3, [r4, r3]
	cmp	r3, #0
	beq	.L2200
	add	r3, r6, #28
	mcr	p15, 0, r0, c7, c10, 5
.L2352:
	ldrex	r2, [r3]
	add	r2, r2, #1
	strex	r1, r2, [r3]
	cmp	r1, #0
	bne	.L2352
	mcr	p15, 0, r0, c7, c10, 5
.L2197:
	cmp	r9, #0
	beq	.L2374
	mov	r8, r9
	mov	r10, #1
	ldrb	r3, [r8, #12]!	@ zero_extendqisi2
.L2202:
	mov	r2, r10
	sxtb	r1, r3
	mov	r0, r8
	mov	fp, r3
	bl	__sync_val_compare_and_swap_1(PLT)
	uxtb	fp, fp
	uxtb	r2, r0
	cmp	r2, fp
	mov	r3, r0
	bne	.L2202
	cmp	fp, #0
	bne	.L2375
	add	r3, sp, #72
	str	r3, [sp, #20]
	mov	r0, r3
	add	r3, sp, #44
	str	r3, [sp, #24]
	str	r7, [sp, #76]
	str	r3, [sp, #72]
	bl	_ZN4asio28asio_handler_is_continuationEz(PLT)
	ldr	r3, .L2379+28
	ldr	r8, [r5, #20]
	ldr	r3, [r4, r3]
	str	r3, [sp, #32]
	mov	r7, r0
	ldr	r0, [r3]
