	.arch armv6
	.eabi_attribute 28, 1
	.eabi_attribute 20, 1
	.eabi_attribute 21, 1
	.eabi_attribute 23, 3
	.eabi_attribute 24, 1
	.eabi_attribute 25, 1
	.eabi_attribute 26, 2
	.eabi_attribute 30, 2
	.eabi_attribute 34, 1
	.eabi_attribute 18, 4
	.file	"OutstationStates.cpp"
	.section	.text._ZN8opendnp315OutstationState6IsIdleEv,"axG",%progbits,_ZN8opendnp315OutstationState6IsIdleEv,comdat
	.align	2
	.weak	_ZN8opendnp315OutstationState6IsIdleEv
	.syntax unified
	.arm
	.fpu vfp
	.type	_ZN8opendnp315OutstationState6IsIdleEv, %function
_ZN8opendnp315OutstationState6IsIdleEv:
	.fnstart
.LFB53:
	@ args = 0, pretend = 0, frame = 0
	@ frame_needed = 0, uses_anonymous_args = 0
	@ link register save eliminated.
	mov	r0, #0
	bx	lr
	.cantunwind
	.fnend
	.size	_ZN8opendnp315OutstationState6IsIdleEv, .-_ZN8opendnp315OutstationState6IsIdleEv
	.section	.text._ZN8opendnp39StateIdle6IsIdleEv,"axG",%progbits,_ZN8opendnp39StateIdle6IsIdleEv,comdat
	.align	2
	.weak	_ZN8opendnp39StateIdle6IsIdleEv
	.syntax unified
	.arm
	.fpu vfp
	.type	_ZN8opendnp39StateIdle6IsIdleEv, %function
_ZN8opendnp39StateIdle6IsIdleEv:
	.fnstart
.LFB54:
	@ args = 0, pretend = 0, frame = 0
	@ frame_needed = 0, uses_anonymous_args = 0
	@ link register save eliminated.
	mov	r0, #1
	bx	lr
	.cantunwind
	.fnend
	.size	_ZN8opendnp39StateIdle6IsIdleEv, .-_ZN8opendnp39StateIdle6IsIdleEv
	.section	.text._ZN8opendnp39StateIdle4NameEv,"axG",%progbits,_ZN8opendnp39StateIdle4NameEv,comdat
	.align	2
	.weak	_ZN8opendnp39StateIdle4NameEv
	.syntax unified
	.arm
	.fpu vfp
	.type	_ZN8opendnp39StateIdle4NameEv, %function
_ZN8opendnp39StateIdle4NameEv:
	.fnstart
.LFB55:
	@ args = 0, pretend = 0, frame = 0
	@ frame_needed = 0, uses_anonymous_args = 0
	@ link register save eliminated.
	ldr	r0, .L4
.LPIC0:
	add	r0, pc, r0
	bx	lr
.L5:
	.align	2
.L4:
	.word	.LC0-(.LPIC0+8)
	.cantunwind
	.fnend
	.size	_ZN8opendnp39StateIdle4NameEv, .-_ZN8opendnp39StateIdle4NameEv
	.section	.text._ZN8opendnp325StateSolicitedConfirmWait4NameEv,"axG",%progbits,_ZN8opendnp325StateSolicitedConfirmWait4NameEv,comdat
	.align	2
	.weak	_ZN8opendnp325StateSolicitedConfirmWait4NameEv
	.syntax unified
	.arm
	.fpu vfp
	.type	_ZN8opendnp325StateSolicitedConfirmWait4NameEv, %function
_ZN8opendnp325StateSolicitedConfirmWait4NameEv:
	.fnstart
.LFB67:
	@ args = 0, pretend = 0, frame = 0
	@ frame_needed = 0, uses_anonymous_args = 0
	@ link register save eliminated.
	ldr	r0, .L7
.LPIC1:
	add	r0, pc, r0
	bx	lr
.L8:
	.align	2
.L7:
	.word	.LC1-(.LPIC1+8)
	.cantunwind
	.fnend
	.size	_ZN8opendnp325StateSolicitedConfirmWait4NameEv, .-_ZN8opendnp325StateSolicitedConfirmWait4NameEv
	.section	.text._ZN8opendnp327StateUnsolicitedConfirmWait4NameEv,"axG",%progbits,_ZN8opendnp327StateUnsolicitedConfirmWait4NameEv,comdat
	.align	2
	.weak	_ZN8opendnp327StateUnsolicitedConfirmWait4NameEv
	.syntax unified
	.arm
	.fpu vfp
	.type	_ZN8opendnp327StateUnsolicitedConfirmWait4NameEv, %function
_ZN8opendnp327StateUnsolicitedConfirmWait4NameEv:
	.fnstart
.LFB72:
	@ args = 0, pretend = 0, frame = 0
	@ frame_needed = 0, uses_anonymous_args = 0
	@ link register save eliminated.
	ldr	r0, .L10
.LPIC2:
	add	r0, pc, r0
	bx	lr
.L11:
	.align	2
.L10:
	.word	.LC2-(.LPIC2+8)
	.cantunwind
	.fnend
	.size	_ZN8opendnp327StateUnsolicitedConfirmWait4NameEv, .-_ZN8opendnp327StateUnsolicitedConfirmWait4NameEv
	.section	.text._ZN8opendnp39StateIdleD2Ev,"axG",%progbits,_ZN8opendnp39StateIdleD5Ev,comdat
	.align	2
	.weak	_ZN8opendnp39StateIdleD2Ev
	.syntax unified
	.arm
	.fpu vfp
	.type	_ZN8opendnp39StateIdleD2Ev, %function
_ZN8opendnp39StateIdleD2Ev:
	.fnstart
.LFB3345:
	@ args = 0, pretend = 0, frame = 0
	@ frame_needed = 0, uses_anonymous_args = 0
	@ link register save eliminated.
	bx	lr
	.cantunwind
	.fnend
	.size	_ZN8opendnp39StateIdleD2Ev, .-_ZN8opendnp39StateIdleD2Ev
	.weak	_ZN8opendnp39StateIdleD1Ev
	.set	_ZN8opendnp39StateIdleD1Ev,_ZN8opendnp39StateIdleD2Ev
	.section	.text._ZN8opendnp325StateSolicitedConfirmWaitD2Ev,"axG",%progbits,_ZN8opendnp325StateSolicitedConfirmWaitD5Ev,comdat
	.align	2
	.weak	_ZN8opendnp325StateSolicitedConfirmWaitD2Ev
	.syntax unified
	.arm
	.fpu vfp
	.type	_ZN8opendnp325StateSolicitedConfirmWaitD2Ev, %function
_ZN8opendnp325StateSolicitedConfirmWaitD2Ev:
	.fnstart
.LFB3348:
	@ args = 0, pretend = 0, frame = 0
	@ frame_needed = 0, uses_anonymous_args = 0
	@ link register save eliminated.
	bx	lr
	.cantunwind
	.fnend
	.size	_ZN8opendnp325StateSolicitedConfirmWaitD2Ev, .-_ZN8opendnp325StateSolicitedConfirmWaitD2Ev
	.weak	_ZN8opendnp325StateSolicitedConfirmWaitD1Ev
	.set	_ZN8opendnp325StateSolicitedConfirmWaitD1Ev,_ZN8opendnp325StateSolicitedConfirmWaitD2Ev
	.section	.text._ZN8opendnp327StateUnsolicitedConfirmWaitD2Ev,"axG",%progbits,_ZN8opendnp327StateUnsolicitedConfirmWaitD5Ev,comdat
	.align	2
	.weak	_ZN8opendnp327StateUnsolicitedConfirmWaitD2Ev
	.syntax unified
	.arm
	.fpu vfp
	.type	_ZN8opendnp327StateUnsolicitedConfirmWaitD2Ev, %function
_ZN8opendnp327StateUnsolicitedConfirmWaitD2Ev:
	.fnstart
.LFB3351:
	@ args = 0, pretend = 0, frame = 0
	@ frame_needed = 0, uses_anonymous_args = 0
	@ link register save eliminated.
	bx	lr
	.cantunwind
	.fnend
	.size	_ZN8opendnp327StateUnsolicitedConfirmWaitD2Ev, .-_ZN8opendnp327StateUnsolicitedConfirmWaitD2Ev
	.weak	_ZN8opendnp327StateUnsolicitedConfirmWaitD1Ev
	.set	_ZN8opendnp327StateUnsolicitedConfirmWaitD1Ev,_ZN8opendnp327StateUnsolicitedConfirmWaitD2Ev
	.text
	.align	2
	.global	_ZN8opendnp39StateIdle9OnConfirmERNS_8OContextERKNS_10APDUHeaderE
	.syntax unified
	.arm
	.fpu vfp
	.type	_ZN8opendnp39StateIdle9OnConfirmERNS_8OContextERKNS_10APDUHeaderE, %function
_ZN8opendnp39StateIdle9OnConfirmERNS_8OContextERKNS_10APDUHeaderE:
	.fnstart
.LFB2574:
	@ args = 0, pretend = 0, frame = 128
	@ frame_needed = 0, uses_anonymous_args = 0
	push	{r4, r5, r6, r7, r8, lr}
	.save {r4, r5, r6, r7, r8, lr}
	.pad #128
	sub	sp, sp, #128
	add	r4, sp, #128
	add	r7, r1, #4
	mov	r6, #4
	str	r6, [r4, #-120]!
	mov	r0, r7
	mov	r1, r4
	mov	r8, r2
	bl	_ZNK7openpal6Logger9IsEnabledERKNS_10LogFiltersE(PLT)
	ldr	r5, .L22
.LPIC5:
	add	r5, pc, r5
	cmp	r0, #0
	beq	.L16
	ldr	r2, .L22+4
	ldrb	r3, [r8, #5]	@ zero_extendqisi2
.LPIC3:
	add	r2, pc, r2
	mov	r1, #120
	mov	r0, r4
	bl	snprintf(PLT)
	add	r1, sp, #128
	ldr	r2, .L22+8
	mov	r3, r4
	mov	r0, r7
	str	r6, [r1, #-124]!
.LPIC4:
	add	r2, pc, r2
	bl	_ZN7openpal6Logger3LogERKNS_10LogFiltersEPKcS5_(PLT)
.L16:
	ldr	r3, .L22+12
	ldr	r0, [r5, r3]
	add	sp, sp, #128
	@ sp needed
	pop	{r4, r5, r6, r7, r8, pc}
.L23:
	.align	2
.L22:
	.word	_GLOBAL_OFFSET_TABLE_-(.LPIC5+8)
	.word	.LC3-(.LPIC3+8)
	.word	.LC4-(.LPIC4+8)
	.word	_ZN8opendnp39StateIdle8instanceE(GOT)
	.fnend
	.size	_ZN8opendnp39StateIdle9OnConfirmERNS_8OContextERKNS_10APDUHeaderE, .-_ZN8opendnp39StateIdle9OnConfirmERNS_8OContextERKNS_10APDUHeaderE
	.align	2
	.global	_ZN8opendnp39StateIdle16OnConfirmTimeoutERNS_8OContextE
	.syntax unified
	.arm
	.fpu vfp
	.type	_ZN8opendnp39StateIdle16OnConfirmTimeoutERNS_8OContextE, %function
_ZN8opendnp39StateIdle16OnConfirmTimeoutERNS_8OContextE:
	.fnstart
.LFB2575:
	@ args = 0, pretend = 0, frame = 8
	@ frame_needed = 0, uses_anonymous_args = 0
	push	{r4, r5, r6, r7, lr}
	.save {r4, r5, r6, r7, lr}
	.pad #12
	sub	sp, sp, #12
	add	r4, sp, #8
	add	r7, r1, #4
	mov	r6, #4
	str	r6, [r4, #-4]!
	mov	r0, r7
	mov	r1, r4
	bl	_ZNK7openpal6Logger9IsEnabledERKNS_10LogFiltersE(PLT)
	ldr	r5, .L30
.LPIC8:
	add	r5, pc, r5
	cmp	r0, #0
	beq	.L25
	ldr	r3, .L30+4
	ldr	r2, .L30+8
	mov	r1, r4
	mov	r0, r7
.LPIC6:
	add	r3, pc, r3
.LPIC7:
	add	r2, pc, r2
	str	r6, [sp, #4]
	bl	_ZN7openpal6Logger3LogERKNS_10LogFiltersEPKcS5_(PLT)
.L25:
	ldr	r3, .L30+12
	ldr	r0, [r5, r3]
	add	sp, sp, #12
	@ sp needed
	pop	{r4, r5, r6, r7, pc}
.L31:
	.align	2
.L30:
	.word	_GLOBAL_OFFSET_TABLE_-(.LPIC8+8)
	.word	.LC5-(.LPIC6+8)
	.word	.LC6-(.LPIC7+8)
	.word	_ZN8opendnp39StateIdle8instanceE(GOT)
	.fnend
	.size	_ZN8opendnp39StateIdle16OnConfirmTimeoutERNS_8OContextE, .-_ZN8opendnp39StateIdle16OnConfirmTimeoutERNS_8OContextE
	.align	2
	.global	_ZN8opendnp325StateSolicitedConfirmWait16OnConfirmTimeoutERNS_8OContextE
	.syntax unified
	.arm
	.fpu vfp
	.type	_ZN8opendnp325StateSolicitedConfirmWait16OnConfirmTimeoutERNS_8OContextE, %function
_ZN8opendnp325StateSolicitedConfirmWait16OnConfirmTimeoutERNS_8OContextE:
	.fnstart
.LFB2581:
	@ args = 0, pretend = 0, frame = 8
	@ frame_needed = 0, uses_anonymous_args = 0
	push	{r4, r5, r6, r7, lr}
	.save {r4, r5, r6, r7, lr}
	.pad #12
	sub	sp, sp, #12
	add	r4, sp, #8
	add	r7, r1, #4
	mov	r6, #4
	str	r6, [r4, #-4]!
	mov	r0, r7
	mov	r1, r4
	bl	_ZNK7openpal6Logger9IsEnabledERKNS_10LogFiltersE(PLT)
	ldr	r5, .L38
.LPIC11:
	add	r5, pc, r5
	cmp	r0, #0
	beq	.L33
	ldr	r3, .L38+4
	ldr	r2, .L38+8
	mov	r1, r4
	mov	r0, r7
.LPIC9:
	add	r3, pc, r3
.LPIC10:
	add	r2, pc, r2
	str	r6, [sp, #4]
	bl	_ZN7openpal6Logger3LogERKNS_10LogFiltersEPKcS5_(PLT)
.L33:
	ldr	r3, .L38+12
	ldr	r0, [r5, r3]
	add	sp, sp, #12
	@ sp needed
	pop	{r4, r5, r6, r7, pc}
.L39:
	.align	2
.L38:
	.word	_GLOBAL_OFFSET_TABLE_-(.LPIC11+8)
	.word	.LC7-(.LPIC9+8)
	.word	.LC8-(.LPIC10+8)
	.word	_ZN8opendnp39StateIdle8instanceE(GOT)
	.fnend
	.size	_ZN8opendnp325StateSolicitedConfirmWait16OnConfirmTimeoutERNS_8OContextE, .-_ZN8opendnp325StateSolicitedConfirmWait16OnConfirmTimeoutERNS_8OContextE
	.align	2
	.global	_ZN8opendnp39StateIdle16OnNewReadRequestERNS_8OContextERKNS_10APDUHeaderERKN7openpal6RSliceE
	.syntax unified
	.arm
	.fpu vfp
	.type	_ZN8opendnp39StateIdle16OnNewReadRequestERNS_8OContextERKNS_10APDUHeaderERKN7openpal6RSliceE, %function
_ZN8opendnp39StateIdle16OnNewReadRequestERNS_8OContextERKNS_10APDUHeaderERKN7openpal6RSliceE:
	.fnstart
.LFB2576:
	@ args = 0, pretend = 0, frame = 0
	@ frame_needed = 0, uses_anonymous_args = 0
	@ link register save eliminated.
	mov	r0, r1
	mov	r1, r2
	mov	r2, r3
	b	_ZN8opendnp38OContext20RespondToReadRequestERKNS_10APDUHeaderERKN7openpal6RSliceE(PLT)
	.cantunwind
	.fnend
	.size	_ZN8opendnp39StateIdle16OnNewReadRequestERNS_8OContextERKNS_10APDUHeaderERKN7openpal6RSliceE, .-_ZN8opendnp39StateIdle16OnNewReadRequestERNS_8OContextERKNS_10APDUHeaderERKN7openpal6RSliceE
	.align	2
	.global	_ZN8opendnp39StateIdle19OnNewNonReadRequestERNS_8OContextERKNS_10APDUHeaderERKN7openpal6RSliceE
	.syntax unified
	.arm
	.fpu vfp
	.type	_ZN8opendnp39StateIdle19OnNewNonReadRequestERNS_8OContextERKNS_10APDUHeaderERKN7openpal6RSliceE, %function
_ZN8opendnp39StateIdle19OnNewNonReadRequestERNS_8OContextERKNS_10APDUHeaderERKN7openpal6RSliceE:
	.fnstart
.LFB2577:
	@ args = 0, pretend = 0, frame = 0
	@ frame_needed = 0, uses_anonymous_args = 0
	mov	ip, r1
	push	{r4, lr}
	.save {r4, lr}
	mov	r1, r2
	mov	r4, r0
	mov	r2, r3
	mov	r0, ip
	bl	_ZN8opendnp38OContext23RespondToNonReadRequestERKNS_10APDUHeaderERKN7openpal6RSliceE(PLT)
	mov	r0, r4
	pop	{r4, pc}
	.fnend
	.size	_ZN8opendnp39StateIdle19OnNewNonReadRequestERNS_8OContextERKNS_10APDUHeaderERKN7openpal6RSliceE, .-_ZN8opendnp39StateIdle19OnNewNonReadRequestERNS_8OContextERKNS_10APDUHeaderERKN7openpal6RSliceE
	.align	2
	.global	_ZN8opendnp39StateIdle19OnRepeatReadRequestERNS_8OContextERKNS_10APDUHeaderERKN7openpal6RSliceE
	.syntax unified
	.arm
	.fpu vfp
	.type	_ZN8opendnp39StateIdle19OnRepeatReadRequestERNS_8OContextERKNS_10APDUHeaderERKN7openpal6RSliceE, %function
_ZN8opendnp39StateIdle19OnRepeatReadRequestERNS_8OContextERKNS_10APDUHeaderERKN7openpal6RSliceE:
	.fnstart
.LFB2579:
	@ args = 0, pretend = 0, frame = 0
	@ frame_needed = 0, uses_anonymous_args = 0
	mov	r3, r1
	push	{r4, lr}
	.save {r4, lr}
	add	r2, r1, #572
	mov	r4, r0
	add	r1, r1, #580
	mov	r0, r3
	bl	_ZN8opendnp38OContext15BeginResponseTxERKNS_15AppControlFieldERKN7openpal6RSliceE(PLT)
	mov	r0, r4
	pop	{r4, pc}
	.fnend
	.size	_ZN8opendnp39StateIdle19OnRepeatReadRequestERNS_8OContextERKNS_10APDUHeaderERKN7openpal6RSliceE, .-_ZN8opendnp39StateIdle19OnRepeatReadRequestERNS_8OContextERKNS_10APDUHeaderERKN7openpal6RSliceE
	.global	_ZN8opendnp39StateIdle22OnRepeatNonReadRequestERNS_8OContextERKNS_10APDUHeaderERKN7openpal6RSliceE
	.set	_ZN8opendnp39StateIdle22OnRepeatNonReadRequestERNS_8OContextERKNS_10APDUHeaderERKN7openpal6RSliceE,_ZN8opendnp39StateIdle19OnRepeatReadRequestERNS_8OContextERKNS_10APDUHeaderERKN7openpal6RSliceE
	.align	2
	.global	_ZN8opendnp327StateUnsolicitedConfirmWait22OnRepeatNonReadRequestERNS_8OContextERKNS_10APDUHeaderERKN7openpal6RSliceE
	.syntax unified
	.arm
	.fpu vfp
	.type	_ZN8opendnp327StateUnsolicitedConfirmWait22OnRepeatNonReadRequestERNS_8OContextERKNS_10APDUHeaderERKN7openpal6RSliceE, %function
_ZN8opendnp327StateUnsolicitedConfirmWait22OnRepeatNonReadRequestERNS_8OContextERKNS_10APDUHeaderERKN7openpal6RSliceE:
	.fnstart
.LFB2590:
	@ args = 0, pretend = 0, frame = 0
	@ frame_needed = 0, uses_anonymous_args = 0
	mov	r3, r1
	push	{r4, lr}
	.save {r4, lr}
	add	r2, r1, #572
	mov	r4, r0
	add	r1, r1, #580
	mov	r0, r3
	bl	_ZN8opendnp38OContext15BeginResponseTxERKNS_15AppControlFieldERKN7openpal6RSliceE(PLT)
	mov	r0, r4
	pop	{r4, pc}
	.fnend
	.size	_ZN8opendnp327StateUnsolicitedConfirmWait22OnRepeatNonReadRequestERNS_8OContextERKNS_10APDUHeaderERKN7openpal6RSliceE, .-_ZN8opendnp327StateUnsolicitedConfirmWait22OnRepeatNonReadRequestERNS_8OContextERKNS_10APDUHeaderERKN7openpal6RSliceE
	.align	2
	.global	_ZN8opendnp325StateSolicitedConfirmWait16OnNewReadRequestERNS_8OContextERKNS_10APDUHeaderERKN7openpal6RSliceE
	.syntax unified
	.arm
	.fpu vfp
	.type	_ZN8opendnp325StateSolicitedConfirmWait16OnNewReadRequestERNS_8OContextERKNS_10APDUHeaderERKN7openpal6RSliceE, %function
_ZN8opendnp325StateSolicitedConfirmWait16OnNewReadRequestERNS_8OContextERKNS_10APDUHeaderERKN7openpal6RSliceE:
	.fnstart
.LFB2582:
	@ args = 0, pretend = 0, frame = 0
	@ frame_needed = 0, uses_anonymous_args = 0
	push	{r4, r5, r6, lr}
	.save {r4, r5, r6, lr}
	add	r0, r1, #492
	mov	r4, r1
	mov	r5, r2
	mov	r6, r3
	bl	_ZN7openpal8TimerRef6CancelEv(PLT)
	mov	r2, r6
	mov	r1, r5
	mov	r0, r4
	pop	{r4, r5, r6, lr}
	b	_ZN8opendnp38OContext20RespondToReadRequestERKNS_10APDUHeaderERKN7openpal6RSliceE(PLT)
	.fnend
	.size	_ZN8opendnp325StateSolicitedConfirmWait16OnNewReadRequestERNS_8OContextERKNS_10APDUHeaderERKN7openpal6RSliceE, .-_ZN8opendnp325StateSolicitedConfirmWait16OnNewReadRequestERNS_8OContextERKNS_10APDUHeaderERKN7openpal6RSliceE
	.align	2
	.global	_ZN8opendnp325StateSolicitedConfirmWait19OnNewNonReadRequestERNS_8OContextERKNS_10APDUHeaderERKN7openpal6RSliceE
	.syntax unified
	.arm
	.fpu vfp
	.type	_ZN8opendnp325StateSolicitedConfirmWait19OnNewNonReadRequestERNS_8OContextERKNS_10APDUHeaderERKN7openpal6RSliceE, %function
_ZN8opendnp325StateSolicitedConfirmWait19OnNewNonReadRequestERNS_8OContextERKNS_10APDUHeaderERKN7openpal6RSliceE:
	.fnstart
.LFB2583:
	@ args = 0, pretend = 0, frame = 0
	@ frame_needed = 0, uses_anonymous_args = 0
	push	{r4, r5, r6, lr}
	.save {r4, r5, r6, lr}
	add	r0, r1, #492
	mov	r6, r3
	mov	r4, r1
	mov	r5, r2
	bl	_ZN7openpal8TimerRef6CancelEv(PLT)
	mov	r2, r6
	mov	r0, r4
	mov	r1, r5
	bl	_ZN8opendnp38OContext23RespondToNonReadRequestERKNS_10APDUHeaderERKN7openpal6RSliceE(PLT)
	ldr	r3, .L51
	ldr	r2, .L51+4
.LPIC12:
	add	r3, pc, r3
	ldr	r0, [r3, r2]
	pop	{r4, r5, r6, pc}
.L52:
	.align	2
.L51:
	.word	_GLOBAL_OFFSET_TABLE_-(.LPIC12+8)
	.word	_ZN8opendnp39StateIdle8instanceE(GOT)
	.fnend
	.size	_ZN8opendnp325StateSolicitedConfirmWait19OnNewNonReadRequestERNS_8OContextERKNS_10APDUHeaderERKN7openpal6RSliceE, .-_ZN8opendnp325StateSolicitedConfirmWait19OnNewNonReadRequestERNS_8OContextERKNS_10APDUHeaderERKN7openpal6RSliceE
	.align	2
	.global	_ZN8opendnp325StateSolicitedConfirmWait22OnRepeatNonReadRequestERNS_8OContextERKNS_10APDUHeaderERKN7openpal6RSliceE
	.syntax unified
	.arm
	.fpu vfp
	.type	_ZN8opendnp325StateSolicitedConfirmWait22OnRepeatNonReadRequestERNS_8OContextERKNS_10APDUHeaderERKN7openpal6RSliceE, %function
_ZN8opendnp325StateSolicitedConfirmWait22OnRepeatNonReadRequestERNS_8OContextERKNS_10APDUHeaderERKN7openpal6RSliceE:
	.fnstart
.LFB2584:
	@ args = 0, pretend = 0, frame = 0
	@ frame_needed = 0, uses_anonymous_args = 0
	push	{r4, r5, r6, lr}
	.save {r4, r5, r6, lr}
	mov	r4, r1
	mov	r5, r0
	add	r0, r1, #492
	bl	_ZN7openpal8TimerRef6CancelEv(PLT)
	mov	r0, r4
	add	r2, r4, #572
	add	r1, r4, #580
	bl	_ZN8opendnp38OContext15BeginResponseTxERKNS_15AppControlFieldERKN7openpal6RSliceE(PLT)
	mov	r0, r5
	pop	{r4, r5, r6, pc}
	.fnend
	.size	_ZN8opendnp325StateSolicitedConfirmWait22OnRepeatNonReadRequestERNS_8OContextERKNS_10APDUHeaderERKN7openpal6RSliceE, .-_ZN8opendnp325StateSolicitedConfirmWait22OnRepeatNonReadRequestERNS_8OContextERKNS_10APDUHeaderERKN7openpal6RSliceE
	.align	2
	.global	_ZN8opendnp327StateUnsolicitedConfirmWait9OnConfirmERNS_8OContextERKNS_10APDUHeaderE
	.syntax unified
	.arm
	.fpu vfp
	.type	_ZN8opendnp327StateUnsolicitedConfirmWait9OnConfirmERNS_8OContextERKNS_10APDUHeaderE, %function
_ZN8opendnp327StateUnsolicitedConfirmWait9OnConfirmERNS_8OContextERKNS_10APDUHeaderE:
	.fnstart
.LFB2586:
	@ args = 0, pretend = 0, frame = 128
	@ frame_needed = 0, uses_anonymous_args = 0
	ldrb	r3, [r2, #4]	@ zero_extendqisi2
	push	{r4, r5, r6, r7, r8, r9, lr}
	.save {r4, r5, r6, r7, r8, r9, lr}
	mov	r6, r2
	ldr	r7, .L70
	cmp	r3, #0
	.pad #140
	sub	sp, sp, #140
	mov	r5, r0
	mov	r4, r1
.LPIC13:
	add	r7, pc, r7
	beq	.L67
	ldrb	r2, [r2, #5]	@ zero_extendqisi2
	ldrb	r3, [r1, #602]	@ zero_extendqisi2
	cmp	r2, r3
	beq	.L60
	add	r7, sp, #136
	mov	r8, #4
	add	r9, r1, r8
	str	r8, [r7, #-120]!
	mov	r0, r9
	mov	r1, r7
	bl	_ZNK7openpal6Logger9IsEnabledERKNS_10LogFiltersE(PLT)
	cmp	r0, #0
	bne	.L68
.L58:
	mov	r0, r5
.L55:
	add	sp, sp, #140
	@ sp needed
	pop	{r4, r5, r6, r7, r8, r9, pc}
.L67:
	add	r7, sp, #136
	add	r4, r1, #4
	mov	r8, #4
	str	r8, [r7, #-120]!
	mov	r0, r4
	mov	r1, r7
	bl	_ZNK7openpal6Logger9IsEnabledERKNS_10LogFiltersE(PLT)
	cmp	r0, #0
	beq	.L58
	ldr	r2, .L70+4
	ldrb	r3, [r6, #5]	@ zero_extendqisi2
.LPIC14:
	add	r2, pc, r2
	mov	r1, #120
	mov	r0, r7
	bl	snprintf(PLT)
	add	r1, sp, #136
	ldr	r2, .L70+8
	mov	r3, r7
	mov	r0, r4
	str	r8, [r1, #-124]!
.LPIC15:
	add	r2, pc, r2
	bl	_ZN7openpal6Logger3LogERKNS_10LogFiltersEPKcS5_(PLT)
	b	.L58
.L68:
	ldrb	r1, [r4, #602]	@ zero_extendqisi2
	ldr	r2, .L70+12
	ldrb	r3, [r6, #5]	@ zero_extendqisi2
.LPIC16:
	add	r2, pc, r2
	str	r1, [sp]
	mov	r0, r7
	mov	r1, #120
	bl	snprintf(PLT)
	add	r1, sp, #136
	ldr	r2, .L70+16
	mov	r3, r7
	mov	r0, r9
	str	r8, [r1, #-124]!
.LPIC17:
	add	r2, pc, r2
	bl	_ZN7openpal6Logger3LogERKNS_10LogFiltersEPKcS5_(PLT)
	b	.L58
.L60:
	add	r0, r1, #500
	bl	_ZN8opendnp314RequestHistory5ResetEv(PLT)
	add	r0, r4, #492
	bl	_ZN7openpal8TimerRef6CancelEv(PLT)
	ldrb	r3, [r4, #600]	@ zero_extendqisi2
	cmp	r3, #0
	bne	.L69
	ldr	r3, .L70+20
	mov	r2, #1
	strb	r2, [r4, #600]
	ldr	r0, [r7, r3]
	add	sp, sp, #140
	@ sp needed
	pop	{r4, r5, r6, r7, r8, r9, pc}
.L69:
	add	r0, r4, #52
	bl	_ZN8opendnp311EventBuffer12ClearWrittenEv(PLT)
	ldr	r3, .L70+20
	ldr	r0, [r7, r3]
	b	.L55
.L71:
	.align	2
.L70:
	.word	_GLOBAL_OFFSET_TABLE_-(.LPIC13+8)
	.word	.LC9-(.LPIC14+8)
	.word	.LC10-(.LPIC15+8)
	.word	.LC11-(.LPIC16+8)
	.word	.LC12-(.LPIC17+8)
	.word	_ZN8opendnp39StateIdle8instanceE(GOT)
	.fnend
	.size	_ZN8opendnp327StateUnsolicitedConfirmWait9OnConfirmERNS_8OContextERKNS_10APDUHeaderE, .-_ZN8opendnp327StateUnsolicitedConfirmWait9OnConfirmERNS_8OContextERKNS_10APDUHeaderE
	.align	2
	.global	_ZN8opendnp325StateSolicitedConfirmWait9OnConfirmERNS_8OContextERKNS_10APDUHeaderE
	.syntax unified
	.arm
	.fpu vfp
	.type	_ZN8opendnp325StateSolicitedConfirmWait9OnConfirmERNS_8OContextERKNS_10APDUHeaderE, %function
_ZN8opendnp325StateSolicitedConfirmWait9OnConfirmERNS_8OContextERKNS_10APDUHeaderE:
	.fnstart
.LFB2580:
	@ args = 0, pretend = 0, frame = 128
	@ frame_needed = 0, uses_anonymous_args = 0
	ldrb	r3, [r2, #4]	@ zero_extendqisi2
	push	{r4, r5, r6, r7, r8, r9, lr}
	.save {r4, r5, r6, r7, r8, r9, lr}
	mov	r6, r2
	ldr	r7, .L87
	cmp	r3, #0
	.pad #140
	sub	sp, sp, #140
	mov	r5, r0
	mov	r4, r1
.LPIC18:
	add	r7, pc, r7
	bne	.L84
	ldrb	r2, [r2, #5]	@ zero_extendqisi2
	ldrb	r3, [r1, #569]	@ zero_extendqisi2
	cmp	r2, r3
	beq	.L77
	add	r7, sp, #136
	mov	r8, #4
	add	r9, r1, r8
	str	r8, [r7, #-120]!
	mov	r0, r9
	mov	r1, r7
	bl	_ZNK7openpal6Logger9IsEnabledERKNS_10LogFiltersE(PLT)
	cmp	r0, #0
	bne	.L85
.L75:
	mov	r0, r5
.L72:
	add	sp, sp, #140
	@ sp needed
	pop	{r4, r5, r6, r7, r8, r9, pc}
.L84:
	add	r7, sp, #136
	add	r4, r1, #4
	mov	r8, #4
	str	r8, [r7, #-120]!
	mov	r0, r4
	mov	r1, r7
	bl	_ZNK7openpal6Logger9IsEnabledERKNS_10LogFiltersE(PLT)
	cmp	r0, #0
	beq	.L75
	ldr	r2, .L87+4
	ldrb	r3, [r6, #5]	@ zero_extendqisi2
.LPIC19:
	add	r2, pc, r2
	mov	r1, #120
	mov	r0, r7
	bl	snprintf(PLT)
	add	r1, sp, #136
	ldr	r2, .L87+8
	mov	r3, r7
	mov	r0, r4
	str	r8, [r1, #-124]!
.LPIC20:
	add	r2, pc, r2
	bl	_ZN7openpal6Logger3LogERKNS_10LogFiltersEPKcS5_(PLT)
	b	.L75
.L85:
	ldrb	r1, [r4, #569]	@ zero_extendqisi2
	ldr	r2, .L87+12
	ldrb	r3, [r6, #5]	@ zero_extendqisi2
.LPIC21:
	add	r2, pc, r2
	str	r1, [sp]
	mov	r0, r7
	mov	r1, #120
	bl	snprintf(PLT)
	add	r1, sp, #136
	ldr	r2, .L87+16
	mov	r3, r7
	mov	r0, r9
	str	r8, [r1, #-124]!
.LPIC22:
	add	r2, pc, r2
	bl	_ZN7openpal6Logger3LogERKNS_10LogFiltersEPKcS5_(PLT)
	b	.L75
.L77:
	add	r0, r1, #500
	bl	_ZN8opendnp314RequestHistory5ResetEv(PLT)
	add	r0, r4, #492
	bl	_ZN7openpal8TimerRef6CancelEv(PLT)
	add	r0, r4, #52
	bl	_ZN8opendnp311EventBuffer12ClearWrittenEv(PLT)
	add	r0, r4, #420
	bl	_ZNK8opendnp315ResponseContext12HasSelectionEv(PLT)
	cmp	r0, #0
	bne	.L86
	ldr	r3, .L87+20
	ldr	r0, [r7, r3]
	add	sp, sp, #140
	@ sp needed
	pop	{r4, r5, r6, r7, r8, r9, pc}
.L86:
	ldrb	r3, [r6, #5]	@ zero_extendqisi2
	add	r1, sp, #136
	mov	r0, r4
	add	r3, r3, #1
	and	r3, r3, #15
	strb	r3, [r1, #-120]!
	bl	_ZN8opendnp38OContext25ContinueMultiFragResponseERKN7openpal11SequenceNumIhLh16EEE(PLT)
	b	.L72
.L88:
	.align	2
.L87:
	.word	_GLOBAL_OFFSET_TABLE_-(.LPIC18+8)
	.word	.LC13-(.LPIC19+8)
	.word	.LC14-(.LPIC20+8)
	.word	.LC15-(.LPIC21+8)
	.word	.LC16-(.LPIC22+8)
	.word	_ZN8opendnp39StateIdle8instanceE(GOT)
	.fnend
	.size	_ZN8opendnp325StateSolicitedConfirmWait9OnConfirmERNS_8OContextERKNS_10APDUHeaderE, .-_ZN8opendnp325StateSolicitedConfirmWait9OnConfirmERNS_8OContextERKNS_10APDUHeaderE
	.align	2
	.global	_ZN8opendnp325StateSolicitedConfirmWait19OnRepeatReadRequestERNS_8OContextERKNS_10APDUHeaderERKN7openpal6RSliceE
	.syntax unified
	.arm
	.fpu vfp
	.type	_ZN8opendnp325StateSolicitedConfirmWait19OnRepeatReadRequestERNS_8OContextERKNS_10APDUHeaderERKN7openpal6RSliceE, %function
_ZN8opendnp325StateSolicitedConfirmWait19OnRepeatReadRequestERNS_8OContextERKNS_10APDUHeaderERKN7openpal6RSliceE:
	.fnstart
.LFB2585:
	@ args = 0, pretend = 0, frame = 0
	@ frame_needed = 0, uses_anonymous_args = 0
	push	{r4, r5, r6, lr}
	.save {r4, r5, r6, lr}
	mov	r4, r1
	mov	r5, r0
	mov	r0, r1
	bl	_ZN8opendnp38OContext19RestartConfirmTimerEv(PLT)
	mov	r0, r4
	add	r2, r4, #572
	add	r1, r4, #580
	bl	_ZN8opendnp38OContext15BeginResponseTxERKNS_15AppControlFieldERKN7openpal6RSliceE(PLT)
	mov	r0, r5
	pop	{r4, r5, r6, pc}
	.fnend
	.size	_ZN8opendnp325StateSolicitedConfirmWait19OnRepeatReadRequestERNS_8OContextERKNS_10APDUHeaderERKN7openpal6RSliceE, .-_ZN8opendnp325StateSolicitedConfirmWait19OnRepeatReadRequestERNS_8OContextERKNS_10APDUHeaderERKN7openpal6RSliceE
	.align	2
	.global	_ZN8opendnp327StateUnsolicitedConfirmWait19OnRepeatReadRequestERNS_8OContextERKNS_10APDUHeaderERKN7openpal6RSliceE
	.syntax unified
	.arm
	.fpu vfp
	.type	_ZN8opendnp327StateUnsolicitedConfirmWait19OnRepeatReadRequestERNS_8OContextERKNS_10APDUHeaderERKN7openpal6RSliceE, %function
_ZN8opendnp327StateUnsolicitedConfirmWait19OnRepeatReadRequestERNS_8OContextERKNS_10APDUHeaderERKN7openpal6RSliceE:
	.fnstart
.LFB2591:
	@ args = 0, pretend = 0, frame = 0
	@ frame_needed = 0, uses_anonymous_args = 0
	push	{r4, r5, r6, lr}
	.save {r4, r5, r6, lr}
	add	r5, r1, #516
	ldrb	lr, [r2, #1]	@ zero_extendqisi2
	ldrb	ip, [r2]	@ zero_extendqisi2
	ldrb	r4, [r2, #2]	@ zero_extendqisi2
	ldrb	r6, [r2, #3]	@ zero_extendqisi2
	orr	ip, ip, lr, lsl #8
	ldrb	lr, [r2, #5]	@ zero_extendqisi2
	ldrb	r2, [r2, #4]	@ zero_extendqisi2
	.pad #8
	sub	sp, sp, #8
	orr	r1, ip, r4, lsl #16
	ldr	ip, [r3, #4]
	mov	r4, r0
	str	ip, [sp]
	mov	r0, r5
	orr	r1, r1, r6, lsl #24
	orr	r2, r2, lr, lsl #8
	ldr	r3, [r3]
	bl	_ZN8opendnp315DeferredRequest3SetENS_10APDUHeaderEN7openpal6RSliceE(PLT)
	mov	r0, r4
	add	sp, sp, #8
	@ sp needed
	pop	{r4, r5, r6, pc}
	.fnend
	.size	_ZN8opendnp327StateUnsolicitedConfirmWait19OnRepeatReadRequestERNS_8OContextERKNS_10APDUHeaderERKN7openpal6RSliceE, .-_ZN8opendnp327StateUnsolicitedConfirmWait19OnRepeatReadRequestERNS_8OContextERKNS_10APDUHeaderERKN7openpal6RSliceE
	.global	_ZN8opendnp327StateUnsolicitedConfirmWait16OnNewReadRequestERNS_8OContextERKNS_10APDUHeaderERKN7openpal6RSliceE
	.set	_ZN8opendnp327StateUnsolicitedConfirmWait16OnNewReadRequestERNS_8OContextERKNS_10APDUHeaderERKN7openpal6RSliceE,_ZN8opendnp327StateUnsolicitedConfirmWait19OnRepeatReadRequestERNS_8OContextERKNS_10APDUHeaderERKN7openpal6RSliceE
	.align	2
	.global	_ZN8opendnp327StateUnsolicitedConfirmWait19OnNewNonReadRequestERNS_8OContextERKNS_10APDUHeaderERKN7openpal6RSliceE
	.syntax unified
	.arm
	.fpu vfp
	.type	_ZN8opendnp327StateUnsolicitedConfirmWait19OnNewNonReadRequestERNS_8OContextERKNS_10APDUHeaderERKN7openpal6RSliceE, %function
_ZN8opendnp327StateUnsolicitedConfirmWait19OnNewNonReadRequestERNS_8OContextERKNS_10APDUHeaderERKN7openpal6RSliceE:
	.fnstart
.LFB2589:
	@ args = 0, pretend = 0, frame = 0
	@ frame_needed = 0, uses_anonymous_args = 0
	push	{r4, r5, r6, r7, r8, lr}
	.save {r4, r5, r6, r7, r8, lr}
	mov	r4, r1
	mov	r6, r2
	mov	r7, r3
	mov	r5, r0
	add	r0, r1, #516
	bl	_ZN8opendnp315DeferredRequest5ResetEv(PLT)
	mov	r0, r4
	mov	r2, r7
	mov	r1, r6
	bl	_ZN8opendnp38OContext23RespondToNonReadRequestERKNS_10APDUHeaderERKN7openpal6RSliceE(PLT)
	mov	r0, r5
	pop	{r4, r5, r6, r7, r8, pc}
	.fnend
	.size	_ZN8opendnp327StateUnsolicitedConfirmWait19OnNewNonReadRequestERNS_8OContextERKNS_10APDUHeaderERKN7openpal6RSliceE, .-_ZN8opendnp327StateUnsolicitedConfirmWait19OnNewNonReadRequestERNS_8OContextERKNS_10APDUHeaderERKN7openpal6RSliceE
	.section	.text.startup,"ax",%progbits
	.align	2
	.syntax unified
	.arm
	.fpu vfp
	.type	_GLOBAL__sub_I_OutstationStates.cpp, %function
_GLOBAL__sub_I_OutstationStates.cpp:
	.fnstart
.LFB3378:
	@ args = 0, pretend = 0, frame = 8
	@ frame_needed = 0, uses_anonymous_args = 0
	push	{r4, r5, lr}
	sub	sp, sp, #12
	mov	r0, sp
	ldr	r2, .L97
	mov	r3, #0
	ldr	r4, .L97+4
	bl	_ZN7openpal12TimeDuration12MillisecondsEx(PLT)
	ldr	r1, .L97+8
	ldr	r2, .L97+12
.LPIC23:
	add	r4, pc, r4
	ldr	r3, .L97+16
	ldr	r2, [r4, r2]
	ldr	r0, [r4, r1]
	ldr	r5, .L97+20
	add	r2, r2, #8
.LPIC24:
	add	r5, pc, r5
	str	r2, [r0]
	mov	r2, r5
	ldr	r1, [r4, r3]
	bl	__aeabi_atexit(PLT)
	ldr	r2, .L97+24
	ldr	r1, .L97+28
	ldr	r3, .L97+32
	ldr	r2, [r4, r2]
	ldr	r1, [r4, r1]
	add	r2, r2, #8
	mov	r0, r1
	str	r2, [r1]
	mov	r2, r5
	ldr	r1, [r4, r3]
	bl	__aeabi_atexit(PLT)
	ldr	r2, .L97+36
	ldr	r1, .L97+40
	ldr	r3, .L97+44
	ldr	r0, [r4, r2]
	ldr	r1, [r4, r1]
	mov	r2, r5
	add	r1, r1, #8
	str	r1, [r0]
	ldr	r1, [r4, r3]
	add	sp, sp, #12
	@ sp needed
	pop	{r4, r5, lr}
	b	__aeabi_atexit(PLT)
.L98:
	.align	2
.L97:
	.word	5000
	.word	_GLOBAL_OFFSET_TABLE_-(.LPIC23+8)
	.word	_ZN8opendnp39StateIdle8instanceE(GOT)
	.word	_ZTVN8opendnp39StateIdleE(GOT)
	.word	_ZN8opendnp39StateIdleD1Ev(GOT)
	.word	__dso_handle-(.LPIC24+8)
	.word	_ZTVN8opendnp325StateSolicitedConfirmWaitE(GOT)
	.word	_ZN8opendnp325StateSolicitedConfirmWait8instanceE(GOT)
	.word	_ZN8opendnp325StateSolicitedConfirmWaitD1Ev(GOT)
	.word	_ZN8opendnp327StateUnsolicitedConfirmWait8instanceE(GOT)
	.word	_ZTVN8opendnp327StateUnsolicitedConfirmWaitE(GOT)
	.word	_ZN8opendnp327StateUnsolicitedConfirmWaitD1Ev(GOT)
	.cantunwind
	.fnend
	.size	_GLOBAL__sub_I_OutstationStates.cpp, .-_GLOBAL__sub_I_OutstationStates.cpp
	.section	.init_array,"aw"
	.align	2
	.word	_GLOBAL__sub_I_OutstationStates.cpp
	.text
	.align	2
	.global	_ZN8opendnp327StateUnsolicitedConfirmWait16OnConfirmTimeoutERNS_8OContextE
	.syntax unified
	.arm
	.fpu vfp
	.type	_ZN8opendnp327StateUnsolicitedConfirmWait16OnConfirmTimeoutERNS_8OContextE, %function
_ZN8opendnp327StateUnsolicitedConfirmWait16OnConfirmTimeoutERNS_8OContextE:
	.fnstart
.LFB2587:
	@ args = 0, pretend = 0, frame = 8
	@ frame_needed = 0, uses_anonymous_args = 0
	push	{r4, r5, r6, r7, r8, lr}
	.save {r4, r5, r6, r7, r8, lr}
	.pad #8
	sub	sp, sp, #8
	add	r4, sp, #8
	add	r8, r1, #4
	mov	r7, #4
	str	r7, [r4, #-4]!
	mov	r5, r1
	mov	r0, r8
	mov	r1, r4
	bl	_ZNK7openpal6Logger9IsEnabledERKNS_10LogFiltersE(PLT)
	ldr	r6, .L110
.LPIC29:
	add	r6, pc, r6
	cmp	r0, #0
	bne	.L109
.L100:
	ldrb	r3, [r5, #600]	@ zero_extendqisi2
	cmp	r3, #0
	beq	.L101
	add	r0, r5, #52
	bl	_ZN8opendnp311EventBuffer8UnselectEv(PLT)
.L101:
	ldr	r3, .L110+4
	ldr	r0, [r6, r3]
	add	sp, sp, #8
	@ sp needed
	pop	{r4, r5, r6, r7, r8, pc}
.L109:
	ldr	r3, .L110+8
	ldr	r2, .L110+12
	mov	r1, r4
	mov	r0, r8
.LPIC27:
	add	r3, pc, r3
.LPIC28:
	add	r2, pc, r2
	str	r7, [sp, #4]
	bl	_ZN7openpal6Logger3LogERKNS_10LogFiltersEPKcS5_(PLT)
	b	.L100
.L111:
	.align	2
.L110:
	.word	_GLOBAL_OFFSET_TABLE_-(.LPIC29+8)
	.word	_ZN8opendnp39StateIdle8instanceE(GOT)
	.word	.LC17-(.LPIC27+8)
	.word	.LC18-(.LPIC28+8)
	.fnend
	.size	_ZN8opendnp327StateUnsolicitedConfirmWait16OnConfirmTimeoutERNS_8OContextE, .-_ZN8opendnp327StateUnsolicitedConfirmWait16OnConfirmTimeoutERNS_8OContextE
	.weak	_ZTSN7openpal10UncopyableE
	.section	.rodata._ZTSN7openpal10UncopyableE,"aG",%progbits,_ZTSN7openpal10UncopyableE,comdat
	.align	2
	.type	_ZTSN7openpal10UncopyableE, %object
	.size	_ZTSN7openpal10UncopyableE, 23
_ZTSN7openpal10UncopyableE:
	.ascii	"N7openpal10UncopyableE\000"
	.weak	_ZTIN7openpal10UncopyableE
	.section	.data.rel.ro._ZTIN7openpal10UncopyableE,"awG",%progbits,_ZTIN7openpal10UncopyableE,comdat
	.align	2
	.type	_ZTIN7openpal10UncopyableE, %object
	.size	_ZTIN7openpal10UncopyableE, 8
_ZTIN7openpal10UncopyableE:
	.word	_ZTVN10__cxxabiv117__class_type_infoE+8
	.word	_ZTSN7openpal10UncopyableE
	.weak	_ZTSN8opendnp315OutstationStateE
	.section	.rodata._ZTSN8opendnp315OutstationStateE,"aG",%progbits,_ZTSN8opendnp315OutstationStateE,comdat
	.align	2
	.type	_ZTSN8opendnp315OutstationStateE, %object
	.size	_ZTSN8opendnp315OutstationStateE, 29
_ZTSN8opendnp315OutstationStateE:
	.ascii	"N8opendnp315OutstationStateE\000"
	.weak	_ZTIN8opendnp315OutstationStateE
	.section	.data.rel.ro._ZTIN8opendnp315OutstationStateE,"awG",%progbits,_ZTIN8opendnp315OutstationStateE,comdat
	.align	2
	.type	_ZTIN8opendnp315OutstationStateE, %object
	.size	_ZTIN8opendnp315OutstationStateE, 24
_ZTIN8opendnp315OutstationStateE:
	.word	_ZTVN10__cxxabiv121__vmi_class_type_infoE+8
	.word	_ZTSN8opendnp315OutstationStateE
	.word	0
	.word	1
	.word	_ZTIN7openpal10UncopyableE
	.word	0
	.global	_ZTSN8opendnp39StateIdleE
	.global	_ZTIN8opendnp39StateIdleE
	.global	_ZTSN8opendnp325StateSolicitedConfirmWaitE
	.global	_ZTIN8opendnp325StateSolicitedConfirmWaitE
	.global	_ZTSN8opendnp327StateUnsolicitedConfirmWaitE
	.global	_ZTIN8opendnp327StateUnsolicitedConfirmWaitE
	.global	_ZTVN8opendnp39StateIdleE
	.global	_ZTVN8opendnp325StateSolicitedConfirmWaitE
	.global	_ZTVN8opendnp327StateUnsolicitedConfirmWaitE
	.global	_ZN8opendnp327StateUnsolicitedConfirmWait8instanceE
	.global	_ZN8opendnp325StateSolicitedConfirmWait8instanceE
	.global	_ZN8opendnp39StateIdle8instanceE
	.section	.rodata
	.align	2
	.type	_ZTSN8opendnp39StateIdleE, %object
	.size	_ZTSN8opendnp39StateIdleE, 22
_ZTSN8opendnp39StateIdleE:
	.ascii	"N8opendnp39StateIdleE\000"
	.space	2
	.type	_ZTSN8opendnp325StateSolicitedConfirmWaitE, %object
	.size	_ZTSN8opendnp325StateSolicitedConfirmWaitE, 39
_ZTSN8opendnp325StateSolicitedConfirmWaitE:
	.ascii	"N8opendnp325StateSolicitedConfirmWaitE\000"
	.space	1
	.type	_ZTSN8opendnp327StateUnsolicitedConfirmWaitE, %object
	.size	_ZTSN8opendnp327StateUnsolicitedConfirmWaitE, 41
_ZTSN8opendnp327StateUnsolicitedConfirmWaitE:
	.ascii	"N8opendnp327StateUnsolicitedConfirmWaitE\000"
	.bss
	.align	2
	.type	_ZN8opendnp327StateUnsolicitedConfirmWait8instanceE, %object
	.size	_ZN8opendnp327StateUnsolicitedConfirmWait8instanceE, 4
_ZN8opendnp327StateUnsolicitedConfirmWait8instanceE:
	.space	4
	.type	_ZN8opendnp325StateSolicitedConfirmWait8instanceE, %object
	.size	_ZN8opendnp325StateSolicitedConfirmWait8instanceE, 4
_ZN8opendnp325StateSolicitedConfirmWait8instanceE:
	.space	4
	.type	_ZN8opendnp39StateIdle8instanceE, %object
	.size	_ZN8opendnp39StateIdle8instanceE, 4
_ZN8opendnp39StateIdle8instanceE:
	.space	4
	.section	.data.rel.ro,"aw",%progbits
	.align	2
	.type	_ZTIN8opendnp39StateIdleE, %object
	.size	_ZTIN8opendnp39StateIdleE, 12
_ZTIN8opendnp39StateIdleE:
	.word	_ZTVN10__cxxabiv120__si_class_type_infoE+8
	.word	_ZTSN8opendnp39StateIdleE
	.word	_ZTIN8opendnp315OutstationStateE
	.type	_ZTIN8opendnp325StateSolicitedConfirmWaitE, %object
	.size	_ZTIN8opendnp325StateSolicitedConfirmWaitE, 12
_ZTIN8opendnp325StateSolicitedConfirmWaitE:
	.word	_ZTVN10__cxxabiv120__si_class_type_infoE+8
	.word	_ZTSN8opendnp325StateSolicitedConfirmWaitE
	.word	_ZTIN8opendnp315OutstationStateE
	.type	_ZTIN8opendnp327StateUnsolicitedConfirmWaitE, %object
	.size	_ZTIN8opendnp327StateUnsolicitedConfirmWaitE, 12
_ZTIN8opendnp327StateUnsolicitedConfirmWaitE:
	.word	_ZTVN10__cxxabiv120__si_class_type_infoE+8
	.word	_ZTSN8opendnp327StateUnsolicitedConfirmWaitE
	.word	_ZTIN8opendnp315OutstationStateE
	.type	_ZTVN8opendnp39StateIdleE, %object
	.size	_ZTVN8opendnp39StateIdleE, 40
_ZTVN8opendnp39StateIdleE:
	.word	0
	.word	_ZTIN8opendnp39StateIdleE
	.word	_ZN8opendnp39StateIdle6IsIdleEv
	.word	_ZN8opendnp39StateIdle4NameEv
	.word	_ZN8opendnp39StateIdle9OnConfirmERNS_8OContextERKNS_10APDUHeaderE
	.word	_ZN8opendnp39StateIdle16OnConfirmTimeoutERNS_8OContextE
	.word	_ZN8opendnp39StateIdle16OnNewReadRequestERNS_8OContextERKNS_10APDUHeaderERKN7openpal6RSliceE
	.word	_ZN8opendnp39StateIdle19OnNewNonReadRequestERNS_8OContextERKNS_10APDUHeaderERKN7openpal6RSliceE
	.word	_ZN8opendnp39StateIdle22OnRepeatNonReadRequestERNS_8OContextERKNS_10APDUHeaderERKN7openpal6RSliceE
	.word	_ZN8opendnp39StateIdle19OnRepeatReadRequestERNS_8OContextERKNS_10APDUHeaderERKN7openpal6RSliceE
	.type	_ZTVN8opendnp325StateSolicitedConfirmWaitE, %object
	.size	_ZTVN8opendnp325StateSolicitedConfirmWaitE, 40
_ZTVN8opendnp325StateSolicitedConfirmWaitE:
	.word	0
	.word	_ZTIN8opendnp325StateSolicitedConfirmWaitE
	.word	_ZN8opendnp315OutstationState6IsIdleEv
	.word	_ZN8opendnp325StateSolicitedConfirmWait4NameEv
	.word	_ZN8opendnp325StateSolicitedConfirmWait9OnConfirmERNS_8OContextERKNS_10APDUHeaderE
	.word	_ZN8opendnp325StateSolicitedConfirmWait16OnConfirmTimeoutERNS_8OContextE
	.word	_ZN8opendnp325StateSolicitedConfirmWait16OnNewReadRequestERNS_8OContextERKNS_10APDUHeaderERKN7openpal6RSliceE
	.word	_ZN8opendnp325StateSolicitedConfirmWait19OnNewNonReadRequestERNS_8OContextERKNS_10APDUHeaderERKN7openpal6RSliceE
	.word	_ZN8opendnp325StateSolicitedConfirmWait22OnRepeatNonReadRequestERNS_8OContextERKNS_10APDUHeaderERKN7openpal6RSliceE
	.word	_ZN8opendnp325StateSolicitedConfirmWait19OnRepeatReadRequestERNS_8OContextERKNS_10APDUHeaderERKN7openpal6RSliceE
	.type	_ZTVN8opendnp327StateUnsolicitedConfirmWaitE, %object
	.size	_ZTVN8opendnp327StateUnsolicitedConfirmWaitE, 40
_ZTVN8opendnp327StateUnsolicitedConfirmWaitE:
	.word	0
	.word	_ZTIN8opendnp327StateUnsolicitedConfirmWaitE
	.word	_ZN8opendnp315OutstationState6IsIdleEv
	.word	_ZN8opendnp327StateUnsolicitedConfirmWait4NameEv
	.word	_ZN8opendnp327StateUnsolicitedConfirmWait9OnConfirmERNS_8OContextERKNS_10APDUHeaderE
	.word	_ZN8opendnp327StateUnsolicitedConfirmWait16OnConfirmTimeoutERNS_8OContextE
	.word	_ZN8opendnp327StateUnsolicitedConfirmWait16OnNewReadRequestERNS_8OContextERKNS_10APDUHeaderERKN7openpal6RSliceE
	.word	_ZN8opendnp327StateUnsolicitedConfirmWait19OnNewNonReadRequestERNS_8OContextERKNS_10APDUHeaderERKN7openpal6RSliceE
	.word	_ZN8opendnp327StateUnsolicitedConfirmWait22OnRepeatNonReadRequestERNS_8OContextERKNS_10APDUHeaderERKN7openpal6RSliceE
	.word	_ZN8opendnp327StateUnsolicitedConfirmWait19OnRepeatReadRequestERNS_8OContextERKNS_10APDUHeaderERKN7openpal6RSliceE
	.section	.rodata._ZN8opendnp325StateSolicitedConfirmWait4NameEv.str1.4,"aMS",%progbits,1
	.align	2
.LC1:
	.ascii	"SolicitedConfirmWait\000"
	.section	.rodata._ZN8opendnp327StateUnsolicitedConfirmWait4NameEv.str1.4,"aMS",%progbits,1
	.align	2
.LC2:
	.ascii	"UnsolicitedConfirmWait\000"
	.section	.rodata._ZN8opendnp39StateIdle4NameEv.str1.4,"aMS",%progbits,1
	.align	2
.LC0:
	.ascii	"Idle\000"
	.section	.rodata.str1.4,"aMS",%progbits,1
	.align	2
.LC3:
	.ascii	"unexpected confirm while IDLE with sequence: %u\000"
.LC4:
	.ascii	"/home/pi/OpenPLC_v3/utils/dnp3_src/cpp/libs/src/ope"
	.ascii	"ndnp3/outstation/OutstationStates.cpp(40)\000"
	.space	3
.LC5:
	.ascii	"unexpected confirm timeout\000"
	.space	1
.LC6:
	.ascii	"/home/pi/OpenPLC_v3/utils/dnp3_src/cpp/libs/src/ope"
	.ascii	"ndnp3/outstation/OutstationStates.cpp(46)\000"
	.space	3
.LC7:
	.ascii	"solicited confirm timeout\000"
	.space	2
.LC8:
	.ascii	"/home/pi/OpenPLC_v3/utils/dnp3_src/cpp/libs/src/ope"
	.ascii	"ndnp3/outstation/OutstationStates.cpp(108)\000"
	.space	2
.LC9:
	.ascii	"received solicited confirm while waiting for unsoli"
	.ascii	"cited confirm (seq: %u)\000"
	.space	1
.LC10:
	.ascii	"/home/pi/OpenPLC_v3/utils/dnp3_src/cpp/libs/src/ope"
	.ascii	"ndnp3/outstation/OutstationStates.cpp(148)\000"
	.space	2
.LC11:
	.ascii	"unsolicited confirm with wrong seq: %u, expected: %"
	.ascii	"u\000"
	.space	3
.LC12:
	.ascii	"/home/pi/OpenPLC_v3/utils/dnp3_src/cpp/libs/src/ope"
	.ascii	"ndnp3/outstation/OutstationStates.cpp(154)\000"
	.space	2
.LC13:
	.ascii	"received unsolicited confirm while waiting for soli"
	.ascii	"cited confirm (seq: %u)\000"
	.space	1
.LC14:
	.ascii	"/home/pi/OpenPLC_v3/utils/dnp3_src/cpp/libs/src/ope"
	.ascii	"ndnp3/outstation/OutstationStates.cpp(82)\000"
	.space	3
.LC15:
	.ascii	"solicited confirm with wrong seq: %u, expected: %u\000"
	.space	1
.LC16:
	.ascii	"/home/pi/OpenPLC_v3/utils/dnp3_src/cpp/libs/src/ope"
	.ascii	"ndnp3/outstation/OutstationStates.cpp(88)\000"
	.space	3
.LC17:
	.ascii	"unsolicited confirm timeout\000"
.LC18:
	.ascii	"/home/pi/OpenPLC_v3/utils/dnp3_src/cpp/libs/src/ope"
	.ascii	"ndnp3/outstation/OutstationStates.cpp(175)\000"
	.hidden	__dso_handle
	.ident	"GCC: (Raspbian 6.3.0-18+rpi1+deb9u1) 6.3.0 20170516"
	.section	.note.GNU-stack,"",%progbits
