	.arch armv6
	.eabi_attribute 28, 1
	.eabi_attribute 20, 1
	.eabi_attribute 21, 1
	.eabi_attribute 23, 3
	.eabi_attribute 24, 1
	.eabi_attribute 25, 1
	.eabi_attribute 26, 2
	.eabi_attribute 30, 2
	.eabi_attribute 34, 1
	.eabi_attribute 18, 4
	.file	"OutstationContext.cpp"
	.section	.text._ZN8opendnp322IOutstationApplication19SupportsAssignClassEv,"axG",%progbits,_ZN8opendnp322IOutstationApplication19SupportsAssignClassEv,comdat
	.align	2
	.weak	_ZN8opendnp322IOutstationApplication19SupportsAssignClassEv
	.syntax unified
	.arm
	.fpu vfp
	.type	_ZN8opendnp322IOutstationApplication19SupportsAssignClassEv, %function
_ZN8opendnp322IOutstationApplication19SupportsAssignClassEv:
	.fnstart
.LFB2435:
	@ args = 0, pretend = 0, frame = 0
	@ frame_needed = 0, uses_anonymous_args = 0
	@ link register save eliminated.
	mov	r0, #0
	bx	lr
	.cantunwind
	.fnend
	.size	_ZN8opendnp322IOutstationApplication19SupportsAssignClassEv, .-_ZN8opendnp322IOutstationApplication19SupportsAssignClassEv
	.section	.text._ZNK8opendnp322IOutstationApplication18ColdRestartSupportEv,"axG",%progbits,_ZNK8opendnp322IOutstationApplication18ColdRestartSupportEv,comdat
	.align	2
	.weak	_ZNK8opendnp322IOutstationApplication18ColdRestartSupportEv
	.syntax unified
	.arm
	.fpu vfp
	.type	_ZNK8opendnp322IOutstationApplication18ColdRestartSupportEv, %function
_ZNK8opendnp322IOutstationApplication18ColdRestartSupportEv:
	.fnstart
.LFB2438:
	@ args = 0, pretend = 0, frame = 0
	@ frame_needed = 0, uses_anonymous_args = 0
	@ link register save eliminated.
	mov	r0, #0
	bx	lr
	.cantunwind
	.fnend
	.size	_ZNK8opendnp322IOutstationApplication18ColdRestartSupportEv, .-_ZNK8opendnp322IOutstationApplication18ColdRestartSupportEv
	.section	.text._ZNK8opendnp322IOutstationApplication18WarmRestartSupportEv,"axG",%progbits,_ZNK8opendnp322IOutstationApplication18WarmRestartSupportEv,comdat
	.align	2
	.weak	_ZNK8opendnp322IOutstationApplication18WarmRestartSupportEv
	.syntax unified
	.arm
	.fpu vfp
	.type	_ZNK8opendnp322IOutstationApplication18WarmRestartSupportEv, %function
_ZNK8opendnp322IOutstationApplication18WarmRestartSupportEv:
	.fnstart
.LFB2439:
	@ args = 0, pretend = 0, frame = 0
	@ frame_needed = 0, uses_anonymous_args = 0
	@ link register save eliminated.
	mov	r0, #0
	bx	lr
	.cantunwind
	.fnend
	.size	_ZNK8opendnp322IOutstationApplication18WarmRestartSupportEv, .-_ZNK8opendnp322IOutstationApplication18WarmRestartSupportEv
	.section	.text._ZN8opendnp322IOutstationApplication11ColdRestartEv,"axG",%progbits,_ZN8opendnp322IOutstationApplication11ColdRestartEv,comdat
	.align	2
	.weak	_ZN8opendnp322IOutstationApplication11ColdRestartEv
	.syntax unified
	.arm
	.fpu vfp
	.type	_ZN8opendnp322IOutstationApplication11ColdRestartEv, %function
_ZN8opendnp322IOutstationApplication11ColdRestartEv:
	.fnstart
.LFB2440:
	@ args = 0, pretend = 0, frame = 0
	@ frame_needed = 0, uses_anonymous_args = 0
	@ link register save eliminated.
	ldr	r0, .L5
	bx	lr
.L6:
	.align	2
.L5:
	.word	65535
	.cantunwind
	.fnend
	.size	_ZN8opendnp322IOutstationApplication11ColdRestartEv, .-_ZN8opendnp322IOutstationApplication11ColdRestartEv
	.section	.text._ZN8opendnp322IOutstationApplication11WarmRestartEv,"axG",%progbits,_ZN8opendnp322IOutstationApplication11WarmRestartEv,comdat
	.align	2
	.weak	_ZN8opendnp322IOutstationApplication11WarmRestartEv
	.syntax unified
	.arm
	.fpu vfp
	.type	_ZN8opendnp322IOutstationApplication11WarmRestartEv, %function
_ZN8opendnp322IOutstationApplication11WarmRestartEv:
	.fnstart
.LFB2441:
	@ args = 0, pretend = 0, frame = 0
	@ frame_needed = 0, uses_anonymous_args = 0
	@ link register save eliminated.
	ldr	r0, .L8
	bx	lr
.L9:
	.align	2
.L8:
	.word	65535
	.cantunwind
	.fnend
	.size	_ZN8opendnp322IOutstationApplication11WarmRestartEv, .-_ZN8opendnp322IOutstationApplication11WarmRestartEv
	.section	.text._ZN8opendnp321ConstantCommandAction6ActionERKNS_23ControlRelayOutputBlockEt,"axG",%progbits,_ZN8opendnp321ConstantCommandAction6ActionERKNS_23ControlRelayOutputBlockEt,comdat
	.align	2
	.weak	_ZN8opendnp321ConstantCommandAction6ActionERKNS_23ControlRelayOutputBlockEt
	.syntax unified
	.arm
	.fpu vfp
	.type	_ZN8opendnp321ConstantCommandAction6ActionERKNS_23ControlRelayOutputBlockEt, %function
_ZN8opendnp321ConstantCommandAction6ActionERKNS_23ControlRelayOutputBlockEt:
	.fnstart
.LFB2697:
	@ args = 0, pretend = 0, frame = 0
	@ frame_needed = 0, uses_anonymous_args = 0
	@ link register save eliminated.
	ldrb	r0, [r0, #4]	@ zero_extendqisi2
	bx	lr
	.cantunwind
	.fnend
	.size	_ZN8opendnp321ConstantCommandAction6ActionERKNS_23ControlRelayOutputBlockEt, .-_ZN8opendnp321ConstantCommandAction6ActionERKNS_23ControlRelayOutputBlockEt
	.section	.text._ZN8opendnp321ConstantCommandAction6ActionERKNS_17AnalogOutputInt16Et,"axG",%progbits,_ZN8opendnp321ConstantCommandAction6ActionERKNS_17AnalogOutputInt16Et,comdat
	.align	2
	.weak	_ZN8opendnp321ConstantCommandAction6ActionERKNS_17AnalogOutputInt16Et
	.syntax unified
	.arm
	.fpu vfp
	.type	_ZN8opendnp321ConstantCommandAction6ActionERKNS_17AnalogOutputInt16Et, %function
_ZN8opendnp321ConstantCommandAction6ActionERKNS_17AnalogOutputInt16Et:
	.fnstart
.LFB2698:
	@ args = 0, pretend = 0, frame = 0
	@ frame_needed = 0, uses_anonymous_args = 0
	@ link register save eliminated.
	ldrb	r0, [r0, #4]	@ zero_extendqisi2
	bx	lr
	.cantunwind
	.fnend
	.size	_ZN8opendnp321ConstantCommandAction6ActionERKNS_17AnalogOutputInt16Et, .-_ZN8opendnp321ConstantCommandAction6ActionERKNS_17AnalogOutputInt16Et
	.section	.text._ZN8opendnp321ConstantCommandAction6ActionERKNS_17AnalogOutputInt32Et,"axG",%progbits,_ZN8opendnp321ConstantCommandAction6ActionERKNS_17AnalogOutputInt32Et,comdat
	.align	2
	.weak	_ZN8opendnp321ConstantCommandAction6ActionERKNS_17AnalogOutputInt32Et
	.syntax unified
	.arm
	.fpu vfp
	.type	_ZN8opendnp321ConstantCommandAction6ActionERKNS_17AnalogOutputInt32Et, %function
_ZN8opendnp321ConstantCommandAction6ActionERKNS_17AnalogOutputInt32Et:
	.fnstart
.LFB2699:
	@ args = 0, pretend = 0, frame = 0
	@ frame_needed = 0, uses_anonymous_args = 0
	@ link register save eliminated.
	ldrb	r0, [r0, #4]	@ zero_extendqisi2
	bx	lr
	.cantunwind
	.fnend
	.size	_ZN8opendnp321ConstantCommandAction6ActionERKNS_17AnalogOutputInt32Et, .-_ZN8opendnp321ConstantCommandAction6ActionERKNS_17AnalogOutputInt32Et
	.section	.text._ZN8opendnp321ConstantCommandAction6ActionERKNS_19AnalogOutputFloat32Et,"axG",%progbits,_ZN8opendnp321ConstantCommandAction6ActionERKNS_19AnalogOutputFloat32Et,comdat
	.align	2
	.weak	_ZN8opendnp321ConstantCommandAction6ActionERKNS_19AnalogOutputFloat32Et
	.syntax unified
	.arm
	.fpu vfp
	.type	_ZN8opendnp321ConstantCommandAction6ActionERKNS_19AnalogOutputFloat32Et, %function
_ZN8opendnp321ConstantCommandAction6ActionERKNS_19AnalogOutputFloat32Et:
	.fnstart
.LFB2700:
	@ args = 0, pretend = 0, frame = 0
	@ frame_needed = 0, uses_anonymous_args = 0
	@ link register save eliminated.
	ldrb	r0, [r0, #4]	@ zero_extendqisi2
	bx	lr
	.cantunwind
	.fnend
	.size	_ZN8opendnp321ConstantCommandAction6ActionERKNS_19AnalogOutputFloat32Et, .-_ZN8opendnp321ConstantCommandAction6ActionERKNS_19AnalogOutputFloat32Et
	.section	.text._ZN8opendnp321ConstantCommandAction6ActionERKNS_20AnalogOutputDouble64Et,"axG",%progbits,_ZN8opendnp321ConstantCommandAction6ActionERKNS_20AnalogOutputDouble64Et,comdat
	.align	2
	.weak	_ZN8opendnp321ConstantCommandAction6ActionERKNS_20AnalogOutputDouble64Et
	.syntax unified
	.arm
	.fpu vfp
	.type	_ZN8opendnp321ConstantCommandAction6ActionERKNS_20AnalogOutputDouble64Et, %function
_ZN8opendnp321ConstantCommandAction6ActionERKNS_20AnalogOutputDouble64Et:
	.fnstart
.LFB2701:
	@ args = 0, pretend = 0, frame = 0
	@ frame_needed = 0, uses_anonymous_args = 0
	@ link register save eliminated.
	ldrb	r0, [r0, #4]	@ zero_extendqisi2
	bx	lr
	.cantunwind
	.fnend
	.size	_ZN8opendnp321ConstantCommandAction6ActionERKNS_20AnalogOutputDouble64Et, .-_ZN8opendnp321ConstantCommandAction6ActionERKNS_20AnalogOutputDouble64Et
	.section	.text._ZN8opendnp321ConstantCommandActionD2Ev,"axG",%progbits,_ZN8opendnp321ConstantCommandActionD5Ev,comdat
	.align	2
	.weak	_ZN8opendnp321ConstantCommandActionD2Ev
	.syntax unified
	.arm
	.fpu vfp
	.type	_ZN8opendnp321ConstantCommandActionD2Ev, %function
_ZN8opendnp321ConstantCommandActionD2Ev:
	.fnstart
.LFB3606:
	@ args = 0, pretend = 0, frame = 0
	@ frame_needed = 0, uses_anonymous_args = 0
	@ link register save eliminated.
	bx	lr
	.cantunwind
	.fnend
	.size	_ZN8opendnp321ConstantCommandActionD2Ev, .-_ZN8opendnp321ConstantCommandActionD2Ev
	.weak	_ZN8opendnp321ConstantCommandActionD1Ev
	.set	_ZN8opendnp321ConstantCommandActionD1Ev,_ZN8opendnp321ConstantCommandActionD2Ev
	.section	.text._ZN8opendnp321ConstantCommandActionD0Ev,"axG",%progbits,_ZN8opendnp321ConstantCommandActionD5Ev,comdat
	.align	2
	.weak	_ZN8opendnp321ConstantCommandActionD0Ev
	.syntax unified
	.arm
	.fpu vfp
	.type	_ZN8opendnp321ConstantCommandActionD0Ev, %function
_ZN8opendnp321ConstantCommandActionD0Ev:
	.fnstart
.LFB3608:
	@ args = 0, pretend = 0, frame = 0
	@ frame_needed = 0, uses_anonymous_args = 0
	push	{r4, lr}
	mov	r1, #8
	mov	r4, r0
	bl	_ZdlPvj(PLT)
	mov	r0, r4
	pop	{r4, pc}
	.cantunwind
	.fnend
	.size	_ZN8opendnp321ConstantCommandActionD0Ev, .-_ZN8opendnp321ConstantCommandActionD0Ev
	.section	.text._ZN7openpal5ArrayIhjED2Ev,"axG",%progbits,_ZN7openpal5ArrayIhjED5Ev,comdat
	.align	2
	.weak	_ZN7openpal5ArrayIhjED2Ev
	.syntax unified
	.arm
	.fpu vfp
	.type	_ZN7openpal5ArrayIhjED2Ev, %function
_ZN7openpal5ArrayIhjED2Ev:
	.fnstart
.LFB2820:
	@ args = 0, pretend = 0, frame = 0
	@ frame_needed = 0, uses_anonymous_args = 0
	ldr	r3, .L25
	ldr	r2, .L25+4
.LPIC0:
	add	r3, pc, r3
	push	{r4, lr}
	mov	r4, r0
	ldr	r3, [r3, r2]
	ldr	r0, [r0, #8]
	add	r3, r3, #8
	cmp	r0, #0
	str	r3, [r4]
	beq	.L19
	bl	_ZdaPv(PLT)
.L19:
	mov	r0, r4
	pop	{r4, pc}
.L26:
	.align	2
.L25:
	.word	_GLOBAL_OFFSET_TABLE_-(.LPIC0+8)
	.word	_ZTVN7openpal5ArrayIhjEE(GOT)
	.cantunwind
	.fnend
	.size	_ZN7openpal5ArrayIhjED2Ev, .-_ZN7openpal5ArrayIhjED2Ev
	.weak	_ZN7openpal5ArrayIhjED1Ev
	.set	_ZN7openpal5ArrayIhjED1Ev,_ZN7openpal5ArrayIhjED2Ev
	.section	.text._ZN7openpal5ArrayIhjED0Ev,"axG",%progbits,_ZN7openpal5ArrayIhjED5Ev,comdat
	.align	2
	.weak	_ZN7openpal5ArrayIhjED0Ev
	.syntax unified
	.arm
	.fpu vfp
	.type	_ZN7openpal5ArrayIhjED0Ev, %function
_ZN7openpal5ArrayIhjED0Ev:
	.fnstart
.LFB2822:
	@ args = 0, pretend = 0, frame = 0
	@ frame_needed = 0, uses_anonymous_args = 0
	ldr	r3, .L33
	ldr	r2, .L33+4
.LPIC1:
	add	r3, pc, r3
	push	{r4, lr}
	mov	r4, r0
	ldr	r3, [r3, r2]
	ldr	r0, [r0, #8]
	add	r3, r3, #8
	cmp	r0, #0
	str	r3, [r4]
	beq	.L28
	bl	_ZdaPv(PLT)
.L28:
	mov	r0, r4
	mov	r1, #12
	bl	_ZdlPvj(PLT)
	mov	r0, r4
	pop	{r4, pc}
.L34:
	.align	2
.L33:
	.word	_GLOBAL_OFFSET_TABLE_-(.LPIC1+8)
	.word	_ZTVN7openpal5ArrayIhjEE(GOT)
	.cantunwind
	.fnend
	.size	_ZN7openpal5ArrayIhjED0Ev, .-_ZN7openpal5ArrayIhjED0Ev
	.section	.text._ZN7openpal5ArrayIN8opendnp34CellINS1_19TimeAndIntervalSpecEEEtED2Ev,"axG",%progbits,_ZN7openpal5ArrayIN8opendnp34CellINS1_19TimeAndIntervalSpecEEEtED5Ev,comdat
	.align	2
	.weak	_ZN7openpal5ArrayIN8opendnp34CellINS1_19TimeAndIntervalSpecEEEtED2Ev
	.syntax unified
	.arm
	.fpu vfp
	.type	_ZN7openpal5ArrayIN8opendnp34CellINS1_19TimeAndIntervalSpecEEEtED2Ev, %function
_ZN7openpal5ArrayIN8opendnp34CellINS1_19TimeAndIntervalSpecEEEtED2Ev:
	.fnstart
.LFB3701:
	@ args = 0, pretend = 0, frame = 0
	@ frame_needed = 0, uses_anonymous_args = 0
	ldr	r3, .L41
	ldr	r2, .L41+4
.LPIC2:
	add	r3, pc, r3
	push	{r4, lr}
	mov	r4, r0
	ldr	r3, [r3, r2]
	ldr	r0, [r0, #8]
	add	r3, r3, #8
	cmp	r0, #0
	str	r3, [r4]
	beq	.L36
	bl	_ZdaPv(PLT)
.L36:
	mov	r0, r4
	pop	{r4, pc}
.L42:
	.align	2
.L41:
	.word	_GLOBAL_OFFSET_TABLE_-(.LPIC2+8)
	.word	_ZTVN7openpal5ArrayIN8opendnp34CellINS1_19TimeAndIntervalSpecEEEtEE(GOT)
	.cantunwind
	.fnend
	.size	_ZN7openpal5ArrayIN8opendnp34CellINS1_19TimeAndIntervalSpecEEEtED2Ev, .-_ZN7openpal5ArrayIN8opendnp34CellINS1_19TimeAndIntervalSpecEEEtED2Ev
	.weak	_ZN7openpal5ArrayIN8opendnp34CellINS1_19TimeAndIntervalSpecEEEtED1Ev
	.set	_ZN7openpal5ArrayIN8opendnp34CellINS1_19TimeAndIntervalSpecEEEtED1Ev,_ZN7openpal5ArrayIN8opendnp34CellINS1_19TimeAndIntervalSpecEEEtED2Ev
	.section	.text._ZN7openpal5ArrayIN8opendnp34CellINS1_19TimeAndIntervalSpecEEEtED0Ev,"axG",%progbits,_ZN7openpal5ArrayIN8opendnp34CellINS1_19TimeAndIntervalSpecEEEtED5Ev,comdat
	.align	2
	.weak	_ZN7openpal5ArrayIN8opendnp34CellINS1_19TimeAndIntervalSpecEEEtED0Ev
	.syntax unified
	.arm
	.fpu vfp
	.type	_ZN7openpal5ArrayIN8opendnp34CellINS1_19TimeAndIntervalSpecEEEtED0Ev, %function
_ZN7openpal5ArrayIN8opendnp34CellINS1_19TimeAndIntervalSpecEEEtED0Ev:
	.fnstart
.LFB3703:
	@ args = 0, pretend = 0, frame = 0
	@ frame_needed = 0, uses_anonymous_args = 0
	ldr	r3, .L49
	ldr	r2, .L49+4
.LPIC3:
	add	r3, pc, r3
	push	{r4, lr}
	mov	r4, r0
	ldr	r3, [r3, r2]
	ldr	r0, [r0, #8]
	add	r3, r3, #8
	cmp	r0, #0
	str	r3, [r4]
	beq	.L44
	bl	_ZdaPv(PLT)
.L44:
	mov	r0, r4
	mov	r1, #12
	bl	_ZdlPvj(PLT)
	mov	r0, r4
	pop	{r4, pc}
.L50:
	.align	2
.L49:
	.word	_GLOBAL_OFFSET_TABLE_-(.LPIC3+8)
	.word	_ZTVN7openpal5ArrayIN8opendnp34CellINS1_19TimeAndIntervalSpecEEEtEE(GOT)
	.cantunwind
	.fnend
	.size	_ZN7openpal5ArrayIN8opendnp34CellINS1_19TimeAndIntervalSpecEEEtED0Ev, .-_ZN7openpal5ArrayIN8opendnp34CellINS1_19TimeAndIntervalSpecEEEtED0Ev
	.section	.text._ZN7openpal5ArrayIN8opendnp34CellINS1_22AnalogOutputStatusSpecEEEtED2Ev,"axG",%progbits,_ZN7openpal5ArrayIN8opendnp34CellINS1_22AnalogOutputStatusSpecEEEtED5Ev,comdat
	.align	2
	.weak	_ZN7openpal5ArrayIN8opendnp34CellINS1_22AnalogOutputStatusSpecEEEtED2Ev
	.syntax unified
	.arm
	.fpu vfp
	.type	_ZN7openpal5ArrayIN8opendnp34CellINS1_22AnalogOutputStatusSpecEEEtED2Ev, %function
_ZN7openpal5ArrayIN8opendnp34CellINS1_22AnalogOutputStatusSpecEEEtED2Ev:
	.fnstart
.LFB3697:
	@ args = 0, pretend = 0, frame = 0
	@ frame_needed = 0, uses_anonymous_args = 0
	ldr	r3, .L57
	ldr	r2, .L57+4
.LPIC4:
	add	r3, pc, r3
	push	{r4, lr}
	mov	r4, r0
	ldr	r3, [r3, r2]
	ldr	r0, [r0, #8]
	add	r3, r3, #8
	cmp	r0, #0
	str	r3, [r4]
	beq	.L52
	bl	_ZdaPv(PLT)
.L52:
	mov	r0, r4
	pop	{r4, pc}
.L58:
	.align	2
.L57:
	.word	_GLOBAL_OFFSET_TABLE_-(.LPIC4+8)
	.word	_ZTVN7openpal5ArrayIN8opendnp34CellINS1_22AnalogOutputStatusSpecEEEtEE(GOT)
	.cantunwind
	.fnend
	.size	_ZN7openpal5ArrayIN8opendnp34CellINS1_22AnalogOutputStatusSpecEEEtED2Ev, .-_ZN7openpal5ArrayIN8opendnp34CellINS1_22AnalogOutputStatusSpecEEEtED2Ev
	.weak	_ZN7openpal5ArrayIN8opendnp34CellINS1_22AnalogOutputStatusSpecEEEtED1Ev
	.set	_ZN7openpal5ArrayIN8opendnp34CellINS1_22AnalogOutputStatusSpecEEEtED1Ev,_ZN7openpal5ArrayIN8opendnp34CellINS1_22AnalogOutputStatusSpecEEEtED2Ev
	.section	.text._ZN7openpal5ArrayIN8opendnp34CellINS1_22AnalogOutputStatusSpecEEEtED0Ev,"axG",%progbits,_ZN7openpal5ArrayIN8opendnp34CellINS1_22AnalogOutputStatusSpecEEEtED5Ev,comdat
	.align	2
	.weak	_ZN7openpal5ArrayIN8opendnp34CellINS1_22AnalogOutputStatusSpecEEEtED0Ev
	.syntax unified
	.arm
	.fpu vfp
	.type	_ZN7openpal5ArrayIN8opendnp34CellINS1_22AnalogOutputStatusSpecEEEtED0Ev, %function
_ZN7openpal5ArrayIN8opendnp34CellINS1_22AnalogOutputStatusSpecEEEtED0Ev:
	.fnstart
.LFB3699:
	@ args = 0, pretend = 0, frame = 0
	@ frame_needed = 0, uses_anonymous_args = 0
	ldr	r3, .L65
	ldr	r2, .L65+4
.LPIC5:
	add	r3, pc, r3
	push	{r4, lr}
	mov	r4, r0
	ldr	r3, [r3, r2]
	ldr	r0, [r0, #8]
	add	r3, r3, #8
	cmp	r0, #0
	str	r3, [r4]
	beq	.L60
	bl	_ZdaPv(PLT)
.L60:
	mov	r0, r4
	mov	r1, #12
	bl	_ZdlPvj(PLT)
	mov	r0, r4
	pop	{r4, pc}
.L66:
	.align	2
.L65:
	.word	_GLOBAL_OFFSET_TABLE_-(.LPIC5+8)
	.word	_ZTVN7openpal5ArrayIN8opendnp34CellINS1_22AnalogOutputStatusSpecEEEtEE(GOT)
	.cantunwind
	.fnend
	.size	_ZN7openpal5ArrayIN8opendnp34CellINS1_22AnalogOutputStatusSpecEEEtED0Ev, .-_ZN7openpal5ArrayIN8opendnp34CellINS1_22AnalogOutputStatusSpecEEEtED0Ev
	.section	.text._ZN7openpal5ArrayIN8opendnp34CellINS1_22BinaryOutputStatusSpecEEEtED2Ev,"axG",%progbits,_ZN7openpal5ArrayIN8opendnp34CellINS1_22BinaryOutputStatusSpecEEEtED5Ev,comdat
	.align	2
	.weak	_ZN7openpal5ArrayIN8opendnp34CellINS1_22BinaryOutputStatusSpecEEEtED2Ev
	.syntax unified
	.arm
	.fpu vfp
	.type	_ZN7openpal5ArrayIN8opendnp34CellINS1_22BinaryOutputStatusSpecEEEtED2Ev, %function
_ZN7openpal5ArrayIN8opendnp34CellINS1_22BinaryOutputStatusSpecEEEtED2Ev:
	.fnstart
.LFB3693:
	@ args = 0, pretend = 0, frame = 0
	@ frame_needed = 0, uses_anonymous_args = 0
	ldr	r3, .L73
	ldr	r2, .L73+4
.LPIC6:
	add	r3, pc, r3
	push	{r4, lr}
	mov	r4, r0
	ldr	r3, [r3, r2]
	ldr	r0, [r0, #8]
	add	r3, r3, #8
	cmp	r0, #0
	str	r3, [r4]
	beq	.L68
	bl	_ZdaPv(PLT)
.L68:
	mov	r0, r4
	pop	{r4, pc}
.L74:
	.align	2
.L73:
	.word	_GLOBAL_OFFSET_TABLE_-(.LPIC6+8)
	.word	_ZTVN7openpal5ArrayIN8opendnp34CellINS1_22BinaryOutputStatusSpecEEEtEE(GOT)
	.cantunwind
	.fnend
	.size	_ZN7openpal5ArrayIN8opendnp34CellINS1_22BinaryOutputStatusSpecEEEtED2Ev, .-_ZN7openpal5ArrayIN8opendnp34CellINS1_22BinaryOutputStatusSpecEEEtED2Ev
	.weak	_ZN7openpal5ArrayIN8opendnp34CellINS1_22BinaryOutputStatusSpecEEEtED1Ev
	.set	_ZN7openpal5ArrayIN8opendnp34CellINS1_22BinaryOutputStatusSpecEEEtED1Ev,_ZN7openpal5ArrayIN8opendnp34CellINS1_22BinaryOutputStatusSpecEEEtED2Ev
	.section	.text._ZN7openpal5ArrayIN8opendnp34CellINS1_22BinaryOutputStatusSpecEEEtED0Ev,"axG",%progbits,_ZN7openpal5ArrayIN8opendnp34CellINS1_22BinaryOutputStatusSpecEEEtED5Ev,comdat
	.align	2
	.weak	_ZN7openpal5ArrayIN8opendnp34CellINS1_22BinaryOutputStatusSpecEEEtED0Ev
	.syntax unified
	.arm
	.fpu vfp
	.type	_ZN7openpal5ArrayIN8opendnp34CellINS1_22BinaryOutputStatusSpecEEEtED0Ev, %function
_ZN7openpal5ArrayIN8opendnp34CellINS1_22BinaryOutputStatusSpecEEEtED0Ev:
	.fnstart
.LFB3695:
	@ args = 0, pretend = 0, frame = 0
	@ frame_needed = 0, uses_anonymous_args = 0
	ldr	r3, .L81
	ldr	r2, .L81+4
.LPIC7:
	add	r3, pc, r3
	push	{r4, lr}
	mov	r4, r0
	ldr	r3, [r3, r2]
	ldr	r0, [r0, #8]
	add	r3, r3, #8
	cmp	r0, #0
	str	r3, [r4]
	beq	.L76
	bl	_ZdaPv(PLT)
.L76:
	mov	r0, r4
	mov	r1, #12
	bl	_ZdlPvj(PLT)
	mov	r0, r4
	pop	{r4, pc}
.L82:
	.align	2
.L81:
	.word	_GLOBAL_OFFSET_TABLE_-(.LPIC7+8)
	.word	_ZTVN7openpal5ArrayIN8opendnp34CellINS1_22BinaryOutputStatusSpecEEEtEE(GOT)
	.cantunwind
	.fnend
	.size	_ZN7openpal5ArrayIN8opendnp34CellINS1_22BinaryOutputStatusSpecEEEtED0Ev, .-_ZN7openpal5ArrayIN8opendnp34CellINS1_22BinaryOutputStatusSpecEEEtED0Ev
	.section	.text._ZN7openpal5ArrayIN8opendnp34CellINS1_17FrozenCounterSpecEEEtED2Ev,"axG",%progbits,_ZN7openpal5ArrayIN8opendnp34CellINS1_17FrozenCounterSpecEEEtED5Ev,comdat
	.align	2
	.weak	_ZN7openpal5ArrayIN8opendnp34CellINS1_17FrozenCounterSpecEEEtED2Ev
	.syntax unified
	.arm
	.fpu vfp
	.type	_ZN7openpal5ArrayIN8opendnp34CellINS1_17FrozenCounterSpecEEEtED2Ev, %function
_ZN7openpal5ArrayIN8opendnp34CellINS1_17FrozenCounterSpecEEEtED2Ev:
	.fnstart
.LFB3689:
	@ args = 0, pretend = 0, frame = 0
	@ frame_needed = 0, uses_anonymous_args = 0
	ldr	r3, .L89
	ldr	r2, .L89+4
.LPIC8:
	add	r3, pc, r3
	push	{r4, lr}
	mov	r4, r0
	ldr	r3, [r3, r2]
	ldr	r0, [r0, #8]
	add	r3, r3, #8
	cmp	r0, #0
	str	r3, [r4]
	beq	.L84
	bl	_ZdaPv(PLT)
.L84:
	mov	r0, r4
	pop	{r4, pc}
.L90:
	.align	2
.L89:
	.word	_GLOBAL_OFFSET_TABLE_-(.LPIC8+8)
	.word	_ZTVN7openpal5ArrayIN8opendnp34CellINS1_17FrozenCounterSpecEEEtEE(GOT)
	.cantunwind
	.fnend
	.size	_ZN7openpal5ArrayIN8opendnp34CellINS1_17FrozenCounterSpecEEEtED2Ev, .-_ZN7openpal5ArrayIN8opendnp34CellINS1_17FrozenCounterSpecEEEtED2Ev
	.weak	_ZN7openpal5ArrayIN8opendnp34CellINS1_17FrozenCounterSpecEEEtED1Ev
	.set	_ZN7openpal5ArrayIN8opendnp34CellINS1_17FrozenCounterSpecEEEtED1Ev,_ZN7openpal5ArrayIN8opendnp34CellINS1_17FrozenCounterSpecEEEtED2Ev
	.section	.text._ZN7openpal5ArrayIN8opendnp34CellINS1_17FrozenCounterSpecEEEtED0Ev,"axG",%progbits,_ZN7openpal5ArrayIN8opendnp34CellINS1_17FrozenCounterSpecEEEtED5Ev,comdat
	.align	2
	.weak	_ZN7openpal5ArrayIN8opendnp34CellINS1_17FrozenCounterSpecEEEtED0Ev
	.syntax unified
	.arm
	.fpu vfp
	.type	_ZN7openpal5ArrayIN8opendnp34CellINS1_17FrozenCounterSpecEEEtED0Ev, %function
_ZN7openpal5ArrayIN8opendnp34CellINS1_17FrozenCounterSpecEEEtED0Ev:
	.fnstart
.LFB3691:
	@ args = 0, pretend = 0, frame = 0
	@ frame_needed = 0, uses_anonymous_args = 0
	ldr	r3, .L97
	ldr	r2, .L97+4
.LPIC9:
	add	r3, pc, r3
	push	{r4, lr}
	mov	r4, r0
	ldr	r3, [r3, r2]
	ldr	r0, [r0, #8]
	add	r3, r3, #8
	cmp	r0, #0
	str	r3, [r4]
	beq	.L92
	bl	_ZdaPv(PLT)
.L92:
	mov	r0, r4
	mov	r1, #12
	bl	_ZdlPvj(PLT)
	mov	r0, r4
	pop	{r4, pc}
.L98:
	.align	2
.L97:
	.word	_GLOBAL_OFFSET_TABLE_-(.LPIC9+8)
	.word	_ZTVN7openpal5ArrayIN8opendnp34CellINS1_17FrozenCounterSpecEEEtEE(GOT)
	.cantunwind
	.fnend
	.size	_ZN7openpal5ArrayIN8opendnp34CellINS1_17FrozenCounterSpecEEEtED0Ev, .-_ZN7openpal5ArrayIN8opendnp34CellINS1_17FrozenCounterSpecEEEtED0Ev
	.section	.text._ZN7openpal5ArrayIN8opendnp34CellINS1_11CounterSpecEEEtED2Ev,"axG",%progbits,_ZN7openpal5ArrayIN8opendnp34CellINS1_11CounterSpecEEEtED5Ev,comdat
	.align	2
	.weak	_ZN7openpal5ArrayIN8opendnp34CellINS1_11CounterSpecEEEtED2Ev
	.syntax unified
	.arm
	.fpu vfp
	.type	_ZN7openpal5ArrayIN8opendnp34CellINS1_11CounterSpecEEEtED2Ev, %function
_ZN7openpal5ArrayIN8opendnp34CellINS1_11CounterSpecEEEtED2Ev:
	.fnstart
.LFB3685:
	@ args = 0, pretend = 0, frame = 0
	@ frame_needed = 0, uses_anonymous_args = 0
	ldr	r3, .L105
	ldr	r2, .L105+4
.LPIC10:
	add	r3, pc, r3
	push	{r4, lr}
	mov	r4, r0
	ldr	r3, [r3, r2]
	ldr	r0, [r0, #8]
	add	r3, r3, #8
	cmp	r0, #0
	str	r3, [r4]
	beq	.L100
	bl	_ZdaPv(PLT)
.L100:
	mov	r0, r4
	pop	{r4, pc}
.L106:
	.align	2
.L105:
	.word	_GLOBAL_OFFSET_TABLE_-(.LPIC10+8)
	.word	_ZTVN7openpal5ArrayIN8opendnp34CellINS1_11CounterSpecEEEtEE(GOT)
	.cantunwind
	.fnend
	.size	_ZN7openpal5ArrayIN8opendnp34CellINS1_11CounterSpecEEEtED2Ev, .-_ZN7openpal5ArrayIN8opendnp34CellINS1_11CounterSpecEEEtED2Ev
	.weak	_ZN7openpal5ArrayIN8opendnp34CellINS1_11CounterSpecEEEtED1Ev
	.set	_ZN7openpal5ArrayIN8opendnp34CellINS1_11CounterSpecEEEtED1Ev,_ZN7openpal5ArrayIN8opendnp34CellINS1_11CounterSpecEEEtED2Ev
	.section	.text._ZN7openpal5ArrayIN8opendnp34CellINS1_11CounterSpecEEEtED0Ev,"axG",%progbits,_ZN7openpal5ArrayIN8opendnp34CellINS1_11CounterSpecEEEtED5Ev,comdat
	.align	2
	.weak	_ZN7openpal5ArrayIN8opendnp34CellINS1_11CounterSpecEEEtED0Ev
	.syntax unified
	.arm
	.fpu vfp
	.type	_ZN7openpal5ArrayIN8opendnp34CellINS1_11CounterSpecEEEtED0Ev, %function
_ZN7openpal5ArrayIN8opendnp34CellINS1_11CounterSpecEEEtED0Ev:
	.fnstart
.LFB3687:
	@ args = 0, pretend = 0, frame = 0
	@ frame_needed = 0, uses_anonymous_args = 0
	ldr	r3, .L113
	ldr	r2, .L113+4
.LPIC11:
	add	r3, pc, r3
	push	{r4, lr}
	mov	r4, r0
	ldr	r3, [r3, r2]
	ldr	r0, [r0, #8]
	add	r3, r3, #8
	cmp	r0, #0
	str	r3, [r4]
	beq	.L108
	bl	_ZdaPv(PLT)
.L108:
	mov	r0, r4
	mov	r1, #12
	bl	_ZdlPvj(PLT)
	mov	r0, r4
	pop	{r4, pc}
.L114:
	.align	2
.L113:
	.word	_GLOBAL_OFFSET_TABLE_-(.LPIC11+8)
	.word	_ZTVN7openpal5ArrayIN8opendnp34CellINS1_11CounterSpecEEEtEE(GOT)
	.cantunwind
	.fnend
	.size	_ZN7openpal5ArrayIN8opendnp34CellINS1_11CounterSpecEEEtED0Ev, .-_ZN7openpal5ArrayIN8opendnp34CellINS1_11CounterSpecEEEtED0Ev
	.section	.text._ZN7openpal5ArrayIN8opendnp34CellINS1_10AnalogSpecEEEtED2Ev,"axG",%progbits,_ZN7openpal5ArrayIN8opendnp34CellINS1_10AnalogSpecEEEtED5Ev,comdat
	.align	2
	.weak	_ZN7openpal5ArrayIN8opendnp34CellINS1_10AnalogSpecEEEtED2Ev
	.syntax unified
	.arm
	.fpu vfp
	.type	_ZN7openpal5ArrayIN8opendnp34CellINS1_10AnalogSpecEEEtED2Ev, %function
_ZN7openpal5ArrayIN8opendnp34CellINS1_10AnalogSpecEEEtED2Ev:
	.fnstart
.LFB3681:
	@ args = 0, pretend = 0, frame = 0
	@ frame_needed = 0, uses_anonymous_args = 0
	ldr	r3, .L121
	ldr	r2, .L121+4
.LPIC12:
	add	r3, pc, r3
	push	{r4, lr}
	mov	r4, r0
	ldr	r3, [r3, r2]
	ldr	r0, [r0, #8]
	add	r3, r3, #8
	cmp	r0, #0
	str	r3, [r4]
	beq	.L116
	bl	_ZdaPv(PLT)
.L116:
	mov	r0, r4
	pop	{r4, pc}
.L122:
	.align	2
.L121:
	.word	_GLOBAL_OFFSET_TABLE_-(.LPIC12+8)
	.word	_ZTVN7openpal5ArrayIN8opendnp34CellINS1_10AnalogSpecEEEtEE(GOT)
	.cantunwind
	.fnend
	.size	_ZN7openpal5ArrayIN8opendnp34CellINS1_10AnalogSpecEEEtED2Ev, .-_ZN7openpal5ArrayIN8opendnp34CellINS1_10AnalogSpecEEEtED2Ev
	.weak	_ZN7openpal5ArrayIN8opendnp34CellINS1_10AnalogSpecEEEtED1Ev
	.set	_ZN7openpal5ArrayIN8opendnp34CellINS1_10AnalogSpecEEEtED1Ev,_ZN7openpal5ArrayIN8opendnp34CellINS1_10AnalogSpecEEEtED2Ev
	.section	.text._ZN7openpal5ArrayIN8opendnp34CellINS1_10AnalogSpecEEEtED0Ev,"axG",%progbits,_ZN7openpal5ArrayIN8opendnp34CellINS1_10AnalogSpecEEEtED5Ev,comdat
	.align	2
	.weak	_ZN7openpal5ArrayIN8opendnp34CellINS1_10AnalogSpecEEEtED0Ev
	.syntax unified
	.arm
	.fpu vfp
	.type	_ZN7openpal5ArrayIN8opendnp34CellINS1_10AnalogSpecEEEtED0Ev, %function
_ZN7openpal5ArrayIN8opendnp34CellINS1_10AnalogSpecEEEtED0Ev:
	.fnstart
.LFB3683:
	@ args = 0, pretend = 0, frame = 0
	@ frame_needed = 0, uses_anonymous_args = 0
	ldr	r3, .L129
	ldr	r2, .L129+4
.LPIC13:
	add	r3, pc, r3
	push	{r4, lr}
	mov	r4, r0
	ldr	r3, [r3, r2]
	ldr	r0, [r0, #8]
	add	r3, r3, #8
	cmp	r0, #0
	str	r3, [r4]
	beq	.L124
	bl	_ZdaPv(PLT)
.L124:
	mov	r0, r4
	mov	r1, #12
	bl	_ZdlPvj(PLT)
	mov	r0, r4
	pop	{r4, pc}
.L130:
	.align	2
.L129:
	.word	_GLOBAL_OFFSET_TABLE_-(.LPIC13+8)
	.word	_ZTVN7openpal5ArrayIN8opendnp34CellINS1_10AnalogSpecEEEtEE(GOT)
	.cantunwind
	.fnend
	.size	_ZN7openpal5ArrayIN8opendnp34CellINS1_10AnalogSpecEEEtED0Ev, .-_ZN7openpal5ArrayIN8opendnp34CellINS1_10AnalogSpecEEEtED0Ev
	.section	.text._ZN7openpal5ArrayIN8opendnp34CellINS1_19DoubleBitBinarySpecEEEtED2Ev,"axG",%progbits,_ZN7openpal5ArrayIN8opendnp34CellINS1_19DoubleBitBinarySpecEEEtED5Ev,comdat
	.align	2
	.weak	_ZN7openpal5ArrayIN8opendnp34CellINS1_19DoubleBitBinarySpecEEEtED2Ev
	.syntax unified
	.arm
	.fpu vfp
	.type	_ZN7openpal5ArrayIN8opendnp34CellINS1_19DoubleBitBinarySpecEEEtED2Ev, %function
_ZN7openpal5ArrayIN8opendnp34CellINS1_19DoubleBitBinarySpecEEEtED2Ev:
	.fnstart
.LFB3677:
	@ args = 0, pretend = 0, frame = 0
	@ frame_needed = 0, uses_anonymous_args = 0
	ldr	r3, .L137
	ldr	r2, .L137+4
.LPIC14:
	add	r3, pc, r3
	push	{r4, lr}
	mov	r4, r0
	ldr	r3, [r3, r2]
	ldr	r0, [r0, #8]
	add	r3, r3, #8
	cmp	r0, #0
	str	r3, [r4]
	beq	.L132
	bl	_ZdaPv(PLT)
.L132:
	mov	r0, r4
	pop	{r4, pc}
.L138:
	.align	2
.L137:
	.word	_GLOBAL_OFFSET_TABLE_-(.LPIC14+8)
	.word	_ZTVN7openpal5ArrayIN8opendnp34CellINS1_19DoubleBitBinarySpecEEEtEE(GOT)
	.cantunwind
	.fnend
	.size	_ZN7openpal5ArrayIN8opendnp34CellINS1_19DoubleBitBinarySpecEEEtED2Ev, .-_ZN7openpal5ArrayIN8opendnp34CellINS1_19DoubleBitBinarySpecEEEtED2Ev
	.weak	_ZN7openpal5ArrayIN8opendnp34CellINS1_19DoubleBitBinarySpecEEEtED1Ev
	.set	_ZN7openpal5ArrayIN8opendnp34CellINS1_19DoubleBitBinarySpecEEEtED1Ev,_ZN7openpal5ArrayIN8opendnp34CellINS1_19DoubleBitBinarySpecEEEtED2Ev
	.section	.text._ZN7openpal5ArrayIN8opendnp34CellINS1_19DoubleBitBinarySpecEEEtED0Ev,"axG",%progbits,_ZN7openpal5ArrayIN8opendnp34CellINS1_19DoubleBitBinarySpecEEEtED5Ev,comdat
	.align	2
	.weak	_ZN7openpal5ArrayIN8opendnp34CellINS1_19DoubleBitBinarySpecEEEtED0Ev
	.syntax unified
	.arm
	.fpu vfp
	.type	_ZN7openpal5ArrayIN8opendnp34CellINS1_19DoubleBitBinarySpecEEEtED0Ev, %function
_ZN7openpal5ArrayIN8opendnp34CellINS1_19DoubleBitBinarySpecEEEtED0Ev:
	.fnstart
.LFB3679:
	@ args = 0, pretend = 0, frame = 0
	@ frame_needed = 0, uses_anonymous_args = 0
	ldr	r3, .L145
	ldr	r2, .L145+4
.LPIC15:
	add	r3, pc, r3
	push	{r4, lr}
	mov	r4, r0
	ldr	r3, [r3, r2]
	ldr	r0, [r0, #8]
	add	r3, r3, #8
	cmp	r0, #0
	str	r3, [r4]
	beq	.L140
	bl	_ZdaPv(PLT)
.L140:
	mov	r0, r4
	mov	r1, #12
	bl	_ZdlPvj(PLT)
	mov	r0, r4
	pop	{r4, pc}
.L146:
	.align	2
.L145:
	.word	_GLOBAL_OFFSET_TABLE_-(.LPIC15+8)
	.word	_ZTVN7openpal5ArrayIN8opendnp34CellINS1_19DoubleBitBinarySpecEEEtEE(GOT)
	.cantunwind
	.fnend
	.size	_ZN7openpal5ArrayIN8opendnp34CellINS1_19DoubleBitBinarySpecEEEtED0Ev, .-_ZN7openpal5ArrayIN8opendnp34CellINS1_19DoubleBitBinarySpecEEEtED0Ev
	.section	.text._ZN7openpal5ArrayIN8opendnp34CellINS1_10BinarySpecEEEtED2Ev,"axG",%progbits,_ZN7openpal5ArrayIN8opendnp34CellINS1_10BinarySpecEEEtED5Ev,comdat
	.align	2
	.weak	_ZN7openpal5ArrayIN8opendnp34CellINS1_10BinarySpecEEEtED2Ev
	.syntax unified
	.arm
	.fpu vfp
	.type	_ZN7openpal5ArrayIN8opendnp34CellINS1_10BinarySpecEEEtED2Ev, %function
_ZN7openpal5ArrayIN8opendnp34CellINS1_10BinarySpecEEEtED2Ev:
	.fnstart
.LFB3673:
	@ args = 0, pretend = 0, frame = 0
	@ frame_needed = 0, uses_anonymous_args = 0
	ldr	r3, .L153
	ldr	r2, .L153+4
.LPIC16:
	add	r3, pc, r3
	push	{r4, lr}
	mov	r4, r0
	ldr	r3, [r3, r2]
	ldr	r0, [r0, #8]
	add	r3, r3, #8
	cmp	r0, #0
	str	r3, [r4]
	beq	.L148
	bl	_ZdaPv(PLT)
.L148:
	mov	r0, r4
	pop	{r4, pc}
.L154:
	.align	2
.L153:
	.word	_GLOBAL_OFFSET_TABLE_-(.LPIC16+8)
	.word	_ZTVN7openpal5ArrayIN8opendnp34CellINS1_10BinarySpecEEEtEE(GOT)
	.cantunwind
	.fnend
	.size	_ZN7openpal5ArrayIN8opendnp34CellINS1_10BinarySpecEEEtED2Ev, .-_ZN7openpal5ArrayIN8opendnp34CellINS1_10BinarySpecEEEtED2Ev
	.weak	_ZN7openpal5ArrayIN8opendnp34CellINS1_10BinarySpecEEEtED1Ev
	.set	_ZN7openpal5ArrayIN8opendnp34CellINS1_10BinarySpecEEEtED1Ev,_ZN7openpal5ArrayIN8opendnp34CellINS1_10BinarySpecEEEtED2Ev
	.section	.text._ZN7openpal5ArrayIN8opendnp34CellINS1_10BinarySpecEEEtED0Ev,"axG",%progbits,_ZN7openpal5ArrayIN8opendnp34CellINS1_10BinarySpecEEEtED5Ev,comdat
	.align	2
	.weak	_ZN7openpal5ArrayIN8opendnp34CellINS1_10BinarySpecEEEtED0Ev
	.syntax unified
	.arm
	.fpu vfp
	.type	_ZN7openpal5ArrayIN8opendnp34CellINS1_10BinarySpecEEEtED0Ev, %function
_ZN7openpal5ArrayIN8opendnp34CellINS1_10BinarySpecEEEtED0Ev:
	.fnstart
.LFB3675:
	@ args = 0, pretend = 0, frame = 0
	@ frame_needed = 0, uses_anonymous_args = 0
	ldr	r3, .L161
	ldr	r2, .L161+4
.LPIC17:
	add	r3, pc, r3
	push	{r4, lr}
	mov	r4, r0
	ldr	r3, [r3, r2]
	ldr	r0, [r0, #8]
	add	r3, r3, #8
	cmp	r0, #0
	str	r3, [r4]
	beq	.L156
	bl	_ZdaPv(PLT)
.L156:
	mov	r0, r4
	mov	r1, #12
	bl	_ZdlPvj(PLT)
	mov	r0, r4
	pop	{r4, pc}
.L162:
	.align	2
.L161:
	.word	_GLOBAL_OFFSET_TABLE_-(.LPIC17+8)
	.word	_ZTVN7openpal5ArrayIN8opendnp34CellINS1_10BinarySpecEEEtEE(GOT)
	.cantunwind
	.fnend
	.size	_ZN7openpal5ArrayIN8opendnp34CellINS1_10BinarySpecEEEtED0Ev, .-_ZN7openpal5ArrayIN8opendnp34CellINS1_10BinarySpecEEEtED0Ev
	.section	.text._ZN7openpal5ArrayINS_8ListNodeIN8opendnp39SOERecordEEEjED2Ev,"axG",%progbits,_ZN7openpal5ArrayINS_8ListNodeIN8opendnp39SOERecordEEEjED5Ev,comdat
	.align	2
	.weak	_ZN7openpal5ArrayINS_8ListNodeIN8opendnp39SOERecordEEEjED2Ev
	.syntax unified
	.arm
	.fpu vfp
	.type	_ZN7openpal5ArrayINS_8ListNodeIN8opendnp39SOERecordEEEjED2Ev, %function
_ZN7openpal5ArrayINS_8ListNodeIN8opendnp39SOERecordEEEjED2Ev:
	.fnstart
.LFB3669:
	@ args = 0, pretend = 0, frame = 0
	@ frame_needed = 0, uses_anonymous_args = 0
	ldr	r3, .L169
	ldr	r2, .L169+4
.LPIC18:
	add	r3, pc, r3
	push	{r4, lr}
	mov	r4, r0
	ldr	r3, [r3, r2]
	ldr	r0, [r0, #8]
	add	r3, r3, #8
	cmp	r0, #0
	str	r3, [r4]
	beq	.L164
	bl	_ZdaPv(PLT)
.L164:
	mov	r0, r4
	pop	{r4, pc}
.L170:
	.align	2
.L169:
	.word	_GLOBAL_OFFSET_TABLE_-(.LPIC18+8)
	.word	_ZTVN7openpal5ArrayINS_8ListNodeIN8opendnp39SOERecordEEEjEE(GOT)
	.cantunwind
	.fnend
	.size	_ZN7openpal5ArrayINS_8ListNodeIN8opendnp39SOERecordEEEjED2Ev, .-_ZN7openpal5ArrayINS_8ListNodeIN8opendnp39SOERecordEEEjED2Ev
	.weak	_ZN7openpal5ArrayINS_8ListNodeIN8opendnp39SOERecordEEEjED1Ev
	.set	_ZN7openpal5ArrayINS_8ListNodeIN8opendnp39SOERecordEEEjED1Ev,_ZN7openpal5ArrayINS_8ListNodeIN8opendnp39SOERecordEEEjED2Ev
	.section	.text._ZN7openpal5ArrayINS_8ListNodeIN8opendnp39SOERecordEEEjED0Ev,"axG",%progbits,_ZN7openpal5ArrayINS_8ListNodeIN8opendnp39SOERecordEEEjED5Ev,comdat
	.align	2
	.weak	_ZN7openpal5ArrayINS_8ListNodeIN8opendnp39SOERecordEEEjED0Ev
	.syntax unified
	.arm
	.fpu vfp
	.type	_ZN7openpal5ArrayINS_8ListNodeIN8opendnp39SOERecordEEEjED0Ev, %function
_ZN7openpal5ArrayINS_8ListNodeIN8opendnp39SOERecordEEEjED0Ev:
	.fnstart
.LFB3671:
	@ args = 0, pretend = 0, frame = 0
	@ frame_needed = 0, uses_anonymous_args = 0
	ldr	r3, .L177
	ldr	r2, .L177+4
.LPIC19:
	add	r3, pc, r3
	push	{r4, lr}
	mov	r4, r0
	ldr	r3, [r3, r2]
	ldr	r0, [r0, #8]
	add	r3, r3, #8
	cmp	r0, #0
	str	r3, [r4]
	beq	.L172
	bl	_ZdaPv(PLT)
.L172:
	mov	r0, r4
	mov	r1, #12
	bl	_ZdlPvj(PLT)
	mov	r0, r4
	pop	{r4, pc}
.L178:
	.align	2
.L177:
	.word	_GLOBAL_OFFSET_TABLE_-(.LPIC19+8)
	.word	_ZTVN7openpal5ArrayINS_8ListNodeIN8opendnp39SOERecordEEEjEE(GOT)
	.cantunwind
	.fnend
	.size	_ZN7openpal5ArrayINS_8ListNodeIN8opendnp39SOERecordEEEjED0Ev, .-_ZN7openpal5ArrayINS_8ListNodeIN8opendnp39SOERecordEEEjED0Ev
	.section	.text._ZNK8opendnp322IOutstationApplication17GetApplicationIINEv,"axG",%progbits,_ZNK8opendnp322IOutstationApplication17GetApplicationIINEv,comdat
	.align	2
	.weak	_ZNK8opendnp322IOutstationApplication17GetApplicationIINEv
	.syntax unified
	.arm
	.fpu vfp
	.type	_ZNK8opendnp322IOutstationApplication17GetApplicationIINEv, %function
_ZNK8opendnp322IOutstationApplication17GetApplicationIINEv:
	.fnstart
.LFB2437:
	@ args = 0, pretend = 0, frame = 8
	@ frame_needed = 0, uses_anonymous_args = 0
	str	lr, [sp, #-4]!
	.save {lr}
	.pad #12
	sub	sp, sp, #12
	mov	r0, sp
	bl	_ZN8opendnp314ApplicationIINC1Ev(PLT)
	ldr	r0, [sp]
	add	sp, sp, #12
	@ sp needed
	ldr	pc, [sp], #4
	.fnend
	.size	_ZNK8opendnp322IOutstationApplication17GetApplicationIINEv, .-_ZNK8opendnp322IOutstationApplication17GetApplicationIINEv
	.text
	.align	2
	.global	_ZN8opendnp38OContext16OnLowerLayerDownEv
	.syntax unified
	.arm
	.fpu vfp
	.type	_ZN8opendnp38OContext16OnLowerLayerDownEv, %function
_ZN8opendnp38OContext16OnLowerLayerDownEv:
	.fnstart
.LFB2778:
	@ args = 0, pretend = 0, frame = 8
	@ frame_needed = 0, uses_anonymous_args = 0
	push	{r4, r5, r6, r7, lr}
	.save {r4, r5, r6, r7, lr}
	mov	r4, r0
	ldrb	r5, [r0, #488]	@ zero_extendqisi2
	ldr	r3, .L189
	.pad #12
	sub	sp, sp, #12
	cmp	r5, #0
.LPIC22:
	add	r3, pc, r3
	bne	.L182
	add	r6, sp, #8
	add	r4, r0, #4
	mov	r7, #2
	str	r7, [r6, #-4]!
	mov	r0, r4
	mov	r1, r6
	bl	_ZNK7openpal6Logger9IsEnabledERKNS_10LogFiltersE(PLT)
	cmp	r0, #0
	bne	.L188
	add	sp, sp, #12
	@ sp needed
	pop	{r4, r5, r6, r7, pc}
.L182:
	ldr	r1, .L189+4
	mov	r2, #0
	add	r0, r0, #500
	ldr	r3, [r3, r1]
	strb	r2, [r4, #488]
	str	r3, [r4, #632]
	strb	r2, [r4, #489]
	strb	r2, [r4, #600]
	bl	_ZN8opendnp314RequestHistory5ResetEv(PLT)
	add	r0, r4, #516
	bl	_ZN8opendnp315DeferredRequest5ResetEv(PLT)
	add	r0, r4, #52
	bl	_ZN8opendnp311EventBuffer8UnselectEv(PLT)
	add	r0, r4, #420
	bl	_ZN8opendnp315ResponseContext5ResetEv(PLT)
	add	r0, r4, #492
	bl	_ZN7openpal8TimerRef6CancelEv(PLT)
	mov	r0, r5
	add	sp, sp, #12
	@ sp needed
	pop	{r4, r5, r6, r7, pc}
.L188:
	ldr	r3, .L189+8
	ldr	r2, .L189+12
	mov	r0, r4
	mov	r1, r6
.LPIC20:
	add	r3, pc, r3
.LPIC21:
	add	r2, pc, r2
	str	r7, [sp, #4]
	bl	_ZN7openpal6Logger3LogERKNS_10LogFiltersEPKcS5_(PLT)
	mov	r0, r5
	add	sp, sp, #12
	@ sp needed
	pop	{r4, r5, r6, r7, pc}
.L190:
	.align	2
.L189:
	.word	_GLOBAL_OFFSET_TABLE_-(.LPIC22+8)
	.word	_ZN8opendnp39StateIdle8instanceE(GOT)
	.word	.LC0-(.LPIC20+8)
	.word	.LC1-(.LPIC21+8)
	.fnend
	.size	_ZN8opendnp38OContext16OnLowerLayerDownEv, .-_ZN8opendnp38OContext16OnLowerLayerDownEv
	.align	2
	.syntax unified
	.arm
	.fpu vfp
	.type	_ZNSt14_Function_base13_Base_managerIZN7openpal8TimerRef7RestartIZN8opendnp38OContext19RestartConfirmTimerEvEUlvE_EEvRKNS1_12TimeDurationERKT_EUlvE_E10_M_managerERSt9_Any_dataRKSF_St18_Manager_operation, %function
_ZNSt14_Function_base13_Base_managerIZN7openpal8TimerRef7RestartIZN8opendnp38OContext19RestartConfirmTimerEvEUlvE_EEvRKNS1_12TimeDurationERKT_EUlvE_E10_M_managerERSt9_Any_dataRKSF_St18_Manager_operation:
	.fnstart
.LFB3329:
	@ args = 0, pretend = 0, frame = 0
	@ frame_needed = 0, uses_anonymous_args = 0
	@ link register save eliminated.
	cmp	r2, #1
	mov	r3, r0
	streq	r1, [r0]
	beq	.L192
	bcc	.L194
	cmp	r2, #2
	ldmeq	r1, {r0, r1}
	stmeq	r3, {r0, r1}
.L192:
	mov	r0, #0
	bx	lr
.L194:
	ldr	r2, .L196
.LPIC23:
	add	r2, pc, r2
	str	r2, [r0]
	mov	r0, #0
	bx	lr
.L197:
	.align	2
.L196:
	.word	.LANCHOR0-(.LPIC23+8)
	.cantunwind
	.fnend
	.size	_ZNSt14_Function_base13_Base_managerIZN7openpal8TimerRef7RestartIZN8opendnp38OContext19RestartConfirmTimerEvEUlvE_EEvRKNS1_12TimeDurationERKT_EUlvE_E10_M_managerERSt9_Any_dataRKSF_St18_Manager_operation, .-_ZNSt14_Function_base13_Base_managerIZN7openpal8TimerRef7RestartIZN8opendnp38OContext19RestartConfirmTimerEvEUlvE_EEvRKNS1_12TimeDurationERKT_EUlvE_E10_M_managerERSt9_Any_dataRKSF_St18_Manager_operation
	.section	.text._ZN8opendnp38OContextD0Ev,"axG",%progbits,_ZN8opendnp38OContextD5Ev,comdat
	.align	2
	.weak	_ZN8opendnp38OContextD0Ev
	.syntax unified
	.arm
	.fpu vfp
	.type	_ZN8opendnp38OContextD0Ev, %function
_ZN8opendnp38OContextD0Ev:
	.fnstart
.LFB3612:
	@ args = 0, pretend = 0, frame = 0
	@ frame_needed = 0, uses_anonymous_args = 0
	push	{r4, r5, r6, lr}
	mov	r4, r0
	ldr	r5, .L321
	ldr	r2, .L321+4
.LPIC24:
	add	r5, pc, r5
	ldr	r3, .L321+8
	ldr	r2, [r5, r2]
	ldr	r0, [r0, #628]
	add	r2, r2, #8
	str	r2, [r4]
	ldr	r6, [r5, r3]
	cmp	r0, #0
	add	r3, r6, #8
	str	r3, [r4, #620]
	beq	.L199
	bl	_ZdaPv(PLT)
.L199:
	ldr	r0, [r4, #596]
	add	r3, r6, #8
	cmp	r0, #0
	str	r3, [r4, #588]
	beq	.L200
	bl	_ZdaPv(PLT)
.L200:
	ldr	r0, [r4, #540]
	add	r6, r6, #8
	cmp	r0, #0
	str	r6, [r4, #532]
	beq	.L201
	bl	_ZdaPv(PLT)
.L201:
	add	r0, r4, #492
	bl	_ZN7openpal8TimerRefD1Ev(PLT)
	ldr	r1, .L321+12
	ldr	r3, .L321+16
	ldr	r2, .L321+20
	ldr	r1, [r5, r1]
	ldr	r0, [r4, #376]
	add	r1, r1, #8
	str	r1, [r4, #260]
	ldr	r3, [r5, r3]
	cmp	r0, #0
	add	ip, r3, #8
	add	r1, r3, #44
	add	r3, r3, #60
	str	ip, [r4, #272]
	str	r1, [r4, #276]
	str	r3, [r4, #280]
	ldr	r3, [r5, r2]
	add	r3, r3, #8
	str	r3, [r4, #368]
	beq	.L202
	bl	_ZdaPv(PLT)
.L202:
	ldr	r3, .L321+24
	ldr	r0, [r4, #364]
	ldr	r3, [r5, r3]
	cmp	r0, #0
	add	r3, r3, #8
	str	r3, [r4, #356]
	beq	.L203
	bl	_ZdaPv(PLT)
.L203:
	ldr	r3, .L321+28
	ldr	r0, [r4, #352]
	ldr	r3, [r5, r3]
	cmp	r0, #0
	add	r3, r3, #8
	str	r3, [r4, #344]
	beq	.L204
	bl	_ZdaPv(PLT)
.L204:
	ldr	r3, .L321+32
	ldr	r0, [r4, #340]
	ldr	r3, [r5, r3]
	cmp	r0, #0
	add	r3, r3, #8
	str	r3, [r4, #332]
	beq	.L205
	bl	_ZdaPv(PLT)
.L205:
	ldr	r3, .L321+36
	ldr	r0, [r4, #328]
	ldr	r3, [r5, r3]
	cmp	r0, #0
	add	r3, r3, #8
	str	r3, [r4, #320]
	beq	.L206
	bl	_ZdaPv(PLT)
.L206:
	ldr	r3, .L321+40
	ldr	r0, [r4, #316]
	ldr	r3, [r5, r3]
	cmp	r0, #0
	add	r3, r3, #8
	str	r3, [r4, #308]
	beq	.L207
	bl	_ZdaPv(PLT)
.L207:
	ldr	r3, .L321+44
	ldr	r0, [r4, #304]
	ldr	r3, [r5, r3]
	cmp	r0, #0
	add	r3, r3, #8
	str	r3, [r4, #296]
	beq	.L208
	bl	_ZdaPv(PLT)
.L208:
	ldr	r3, .L321+48
	ldr	r0, [r4, #292]
	ldr	r3, [r5, r3]
	cmp	r0, #0
	add	r3, r3, #8
	str	r3, [r4, #284]
	beq	.L209
	bl	_ZdaPv(PLT)
.L209:
	ldr	r3, .L321+52
	ldr	r2, .L321+56
	ldr	r0, [r4, #112]
	ldr	r3, [r5, r3]
	cmp	r0, #0
	add	lr, r3, #8
	add	ip, r3, #80
	add	r1, r3, #96
	add	r3, r3, #112
	str	lr, [r4, #52]
	str	ip, [r4, #56]
	str	r1, [r4, #60]
	str	r3, [r4, #64]
	ldr	r3, [r5, r2]
	add	r3, r3, #8
	str	r3, [r4, #104]
	beq	.L210
	bl	_ZdaPv(PLT)
.L210:
	ldr	r6, [r4, #48]
	cmp	r6, #0
	beq	.L212
	ldr	r3, .L321+60
	ldr	r3, [r5, r3]
	cmp	r3, #0
	beq	.L213
	add	r3, r6, #28
	mcr	p15, 0, r0, c7, c10, 5
.L301:
	ldrex	r2, [r3]
	sub	r1, r2, #1
	strex	r0, r1, [r3]
	cmp	r0, #0
	bne	.L301
	cmp	r2, #1
	mcr	p15, 0, r0, c7, c10, 5
	beq	.L315
.L212:
	ldr	r6, [r4, #40]
	cmp	r6, #0
	beq	.L218
	ldr	r3, .L321+60
	ldr	r3, [r5, r3]
	cmp	r3, #0
	beq	.L219
	add	r3, r6, #28
	mcr	p15, 0, r0, c7, c10, 5
.L300:
	ldrex	r2, [r3]
	sub	r1, r2, #1
	strex	r0, r1, [r3]
	cmp	r0, #0
	bne	.L300
	cmp	r2, #1
	mcr	p15, 0, r0, c7, c10, 5
	beq	.L316
.L218:
	ldr	r6, [r4, #32]
	cmp	r6, #0
	beq	.L224
	ldr	r3, .L321+60
	ldr	r3, [r5, r3]
	cmp	r3, #0
	beq	.L225
	add	r3, r6, #28
	mcr	p15, 0, r0, c7, c10, 5
.L299:
	ldrex	r2, [r3]
	sub	r1, r2, #1
	strex	r0, r1, [r3]
	cmp	r0, #0
	bne	.L299
	cmp	r2, #1
	mcr	p15, 0, r0, c7, c10, 5
	beq	.L317
.L224:
	ldr	r6, [r4, #24]
	cmp	r6, #0
	beq	.L230
	ldr	r3, .L321+60
	ldr	r3, [r5, r3]
	cmp	r3, #0
	beq	.L231
	add	r3, r6, #28
	mcr	p15, 0, r0, c7, c10, 5
.L298:
	ldrex	r2, [r3]
	sub	r1, r2, #1
	strex	r0, r1, [r3]
	cmp	r0, #0
	bne	.L298
	cmp	r2, #1
	mcr	p15, 0, r0, c7, c10, 5
	beq	.L318
.L230:
	ldr	r6, [r4, #16]
	cmp	r6, #0
	beq	.L236
	ldr	r3, .L321+60
	ldr	r3, [r5, r3]
	cmp	r3, #0
	beq	.L237
	add	r3, r6, #28
	mcr	p15, 0, r0, c7, c10, 5
.L297:
	ldrex	r2, [r3]
	sub	r1, r2, #1
	strex	r0, r1, [r3]
	cmp	r0, #0
	bne	.L297
	cmp	r2, #1
	mcr	p15, 0, r0, c7, c10, 5
	beq	.L319
.L236:
	ldr	r6, [r4, #8]
	cmp	r6, #0
	beq	.L242
	ldr	r3, .L321+60
	ldr	r3, [r5, r3]
	cmp	r3, #0
	beq	.L243
	add	r3, r6, #28
	mcr	p15, 0, r0, c7, c10, 5
.L296:
	ldrex	r2, [r3]
	sub	r1, r2, #1
	strex	r0, r1, [r3]
	cmp	r0, #0
	bne	.L296
	cmp	r2, #1
	mcr	p15, 0, r0, c7, c10, 5
	beq	.L320
.L242:
	mov	r0, r4
	mov	r1, #640
	bl	_ZdlPvj(PLT)
	mov	r0, r4
	pop	{r4, r5, r6, pc}
.L213:
	ldr	r3, [r6, #28]
	cmp	r3, #1
	sub	r3, r3, #1
	str	r3, [r6, #28]
	bne	.L212
	ldr	r3, [r6]
	mov	r0, r6
	ldr	r3, [r3, #8]
	blx	r3
	mcr	p15, 0, r0, c7, c10, 5
	ldr	r2, [r6, #32]
	sub	r3, r2, #1
	str	r3, [r6, #32]
	b	.L247
.L237:
	ldr	r3, [r6, #28]
	cmp	r3, #1
	sub	r3, r3, #1
	str	r3, [r6, #28]
	bne	.L236
	ldr	r3, [r6]
	mov	r0, r6
	ldr	r3, [r3, #8]
	blx	r3
	mcr	p15, 0, r0, c7, c10, 5
	ldr	r2, [r6, #32]
	sub	r3, r2, #1
	str	r3, [r6, #32]
	b	.L251
.L225:
	ldr	r3, [r6, #28]
	cmp	r3, #1
	sub	r3, r3, #1
	str	r3, [r6, #28]
	bne	.L224
	ldr	r3, [r6]
	mov	r0, r6
	ldr	r3, [r3, #8]
	blx	r3
	mcr	p15, 0, r0, c7, c10, 5
	ldr	r2, [r6, #32]
	sub	r3, r2, #1
	str	r3, [r6, #32]
	b	.L249
.L219:
	ldr	r3, [r6, #28]
	cmp	r3, #1
	sub	r3, r3, #1
	str	r3, [r6, #28]
	bne	.L218
	ldr	r3, [r6]
	mov	r0, r6
	ldr	r3, [r3, #8]
	blx	r3
	mcr	p15, 0, r0, c7, c10, 5
	ldr	r2, [r6, #32]
	sub	r3, r2, #1
	str	r3, [r6, #32]
	b	.L248
.L231:
	ldr	r3, [r6, #28]
	cmp	r3, #1
	sub	r3, r3, #1
	str	r3, [r6, #28]
	bne	.L230
	ldr	r3, [r6]
	mov	r0, r6
	ldr	r3, [r3, #8]
	blx	r3
	mcr	p15, 0, r0, c7, c10, 5
	ldr	r2, [r6, #32]
	sub	r3, r2, #1
	str	r3, [r6, #32]
	b	.L250
.L243:
	ldr	r3, [r6, #28]
	cmp	r3, #1
	sub	r3, r3, #1
	str	r3, [r6, #28]
	bne	.L242
	ldr	r3, [r6]
	mov	r0, r6
	ldr	r3, [r3, #8]
	blx	r3
	mcr	p15, 0, r0, c7, c10, 5
	ldr	r2, [r6, #32]
	sub	r3, r2, #1
	str	r3, [r6, #32]
	b	.L252
.L318:
	ldr	r3, [r6]
	mov	r0, r6
	ldr	r3, [r3, #8]
	blx	r3
	add	r3, r6, #32
	mcr	p15, 0, r0, c7, c10, 5
	mcr	p15, 0, r0, c7, c10, 5
.L292:
	ldrex	r2, [r3]
	sub	r1, r2, #1
	strex	r0, r1, [r3]
	cmp	r0, #0
	bne	.L292
	mcr	p15, 0, r0, c7, c10, 5
.L250:
	cmp	r2, #1
	bne	.L230
	ldr	r3, [r6]
	mov	r0, r6
	ldr	r3, [r3, #12]
	blx	r3
	b	.L230
.L320:
	ldr	r3, [r6]
	mov	r0, r6
	ldr	r3, [r3, #8]
	blx	r3
	add	r3, r6, #32
	mcr	p15, 0, r0, c7, c10, 5
	mcr	p15, 0, r0, c7, c10, 5
.L290:
	ldrex	r2, [r3]
	sub	r1, r2, #1
	strex	r0, r1, [r3]
	cmp	r0, #0
	bne	.L290
	mcr	p15, 0, r0, c7, c10, 5
.L252:
	cmp	r2, #1
	bne	.L242
	ldr	r3, [r6]
	mov	r0, r6
	ldr	r3, [r3, #12]
	blx	r3
	b	.L242
.L319:
	ldr	r3, [r6]
	mov	r0, r6
	ldr	r3, [r3, #8]
	blx	r3
	add	r3, r6, #32
	mcr	p15, 0, r0, c7, c10, 5
	mcr	p15, 0, r0, c7, c10, 5
.L291:
	ldrex	r2, [r3]
	sub	r1, r2, #1
	strex	r0, r1, [r3]
	cmp	r0, #0
	bne	.L291
	mcr	p15, 0, r0, c7, c10, 5
.L251:
	cmp	r2, #1
	bne	.L236
	ldr	r3, [r6]
	mov	r0, r6
	ldr	r3, [r3, #12]
	blx	r3
	b	.L236
.L315:
	ldr	r3, [r6]
	mov	r0, r6
	ldr	r3, [r3, #8]
	blx	r3
	add	r3, r6, #32
	mcr	p15, 0, r0, c7, c10, 5
	mcr	p15, 0, r0, c7, c10, 5
.L295:
	ldrex	r2, [r3]
	sub	r1, r2, #1
	strex	r0, r1, [r3]
	cmp	r0, #0
	bne	.L295
	mcr	p15, 0, r0, c7, c10, 5
.L247:
	cmp	r2, #1
	bne	.L212
	ldr	r3, [r6]
	mov	r0, r6
	ldr	r3, [r3, #12]
	blx	r3
	b	.L212
.L316:
	ldr	r3, [r6]
	mov	r0, r6
	ldr	r3, [r3, #8]
	blx	r3
	add	r3, r6, #32
	mcr	p15, 0, r0, c7, c10, 5
	mcr	p15, 0, r0, c7, c10, 5
.L294:
	ldrex	r2, [r3]
	sub	r1, r2, #1
	strex	r0, r1, [r3]
	cmp	r0, #0
	bne	.L294
	mcr	p15, 0, r0, c7, c10, 5
.L248:
	cmp	r2, #1
	bne	.L218
	ldr	r3, [r6]
	mov	r0, r6
	ldr	r3, [r3, #12]
	blx	r3
	b	.L218
.L317:
	ldr	r3, [r6]
	mov	r0, r6
	ldr	r3, [r3, #8]
	blx	r3
	add	r3, r6, #32
	mcr	p15, 0, r0, c7, c10, 5
	mcr	p15, 0, r0, c7, c10, 5
.L293:
	ldrex	r2, [r3]
	sub	r1, r2, #1
	strex	r0, r1, [r3]
	cmp	r0, #0
	bne	.L293
	mcr	p15, 0, r0, c7, c10, 5
.L249:
	cmp	r2, #1
	bne	.L224
	ldr	r3, [r6]
	mov	r0, r6
	ldr	r3, [r3, #12]
	blx	r3
	b	.L224
.L322:
	.align	2
.L321:
	.word	_GLOBAL_OFFSET_TABLE_-(.LPIC24+8)
	.word	_ZTVN8opendnp38OContextE(GOT)
	.word	_ZTVN7openpal5ArrayIhjEE(GOT)
	.word	_ZTVN8opendnp38DatabaseE(GOT)
	.word	_ZTVN8opendnp315DatabaseBuffersE(GOT)
	.word	_ZTVN7openpal5ArrayIN8opendnp34CellINS1_19TimeAndIntervalSpecEEEtEE(GOT)
	.word	_ZTVN7openpal5ArrayIN8opendnp34CellINS1_22AnalogOutputStatusSpecEEEtEE(GOT)
	.word	_ZTVN7openpal5ArrayIN8opendnp34CellINS1_22BinaryOutputStatusSpecEEEtEE(GOT)
	.word	_ZTVN7openpal5ArrayIN8opendnp34CellINS1_17FrozenCounterSpecEEEtEE(GOT)
	.word	_ZTVN7openpal5ArrayIN8opendnp34CellINS1_11CounterSpecEEEtEE(GOT)
	.word	_ZTVN7openpal5ArrayIN8opendnp34CellINS1_10AnalogSpecEEEtEE(GOT)
	.word	_ZTVN7openpal5ArrayIN8opendnp34CellINS1_19DoubleBitBinarySpecEEEtEE(GOT)
	.word	_ZTVN7openpal5ArrayIN8opendnp34CellINS1_10BinarySpecEEEtEE(GOT)
	.word	_ZTVN8opendnp311EventBufferE(GOT)
	.word	_ZTVN7openpal5ArrayINS_8ListNodeIN8opendnp39SOERecordEEEjEE(GOT)
	.word	_ZL28__gthrw___pthread_key_createPjPFvPvE(GOT)
	.cantunwind
	.fnend
	.size	_ZN8opendnp38OContextD0Ev, .-_ZN8opendnp38OContextD0Ev
	.section	.text._ZN8opendnp38OContextD2Ev,"axG",%progbits,_ZN8opendnp38OContextD5Ev,comdat
	.align	2
	.weak	_ZN8opendnp38OContextD2Ev
	.syntax unified
	.arm
	.fpu vfp
	.type	_ZN8opendnp38OContextD2Ev, %function
_ZN8opendnp38OContextD2Ev:
	.fnstart
.LFB3610:
	@ args = 0, pretend = 0, frame = 0
	@ frame_needed = 0, uses_anonymous_args = 0
	push	{r4, r5, r6, lr}
	mov	r4, r0
	ldr	r5, .L446
	ldr	r2, .L446+4
.LPIC25:
	add	r5, pc, r5
	ldr	r3, .L446+8
	ldr	r2, [r5, r2]
	ldr	r0, [r0, #628]
	add	r2, r2, #8
	str	r2, [r4]
	ldr	r6, [r5, r3]
	cmp	r0, #0
	add	r3, r6, #8
	str	r3, [r4, #620]
	beq	.L324
	bl	_ZdaPv(PLT)
.L324:
	ldr	r0, [r4, #596]
	add	r3, r6, #8
	cmp	r0, #0
	str	r3, [r4, #588]
	beq	.L325
	bl	_ZdaPv(PLT)
.L325:
	ldr	r0, [r4, #540]
	add	r6, r6, #8
	cmp	r0, #0
	str	r6, [r4, #532]
	beq	.L326
	bl	_ZdaPv(PLT)
.L326:
	add	r0, r4, #492
	bl	_ZN7openpal8TimerRefD1Ev(PLT)
	ldr	r1, .L446+12
	ldr	r3, .L446+16
	ldr	r2, .L446+20
	ldr	r1, [r5, r1]
	ldr	r0, [r4, #376]
	add	r1, r1, #8
	str	r1, [r4, #260]
	ldr	r3, [r5, r3]
	cmp	r0, #0
	add	ip, r3, #8
	add	r1, r3, #44
	add	r3, r3, #60
	str	ip, [r4, #272]
	str	r1, [r4, #276]
	str	r3, [r4, #280]
	ldr	r3, [r5, r2]
	add	r3, r3, #8
	str	r3, [r4, #368]
	beq	.L327
	bl	_ZdaPv(PLT)
.L327:
	ldr	r3, .L446+24
	ldr	r0, [r4, #364]
	ldr	r3, [r5, r3]
	cmp	r0, #0
	add	r3, r3, #8
	str	r3, [r4, #356]
	beq	.L328
	bl	_ZdaPv(PLT)
.L328:
	ldr	r3, .L446+28
	ldr	r0, [r4, #352]
	ldr	r3, [r5, r3]
	cmp	r0, #0
	add	r3, r3, #8
	str	r3, [r4, #344]
	beq	.L329
	bl	_ZdaPv(PLT)
.L329:
	ldr	r3, .L446+32
	ldr	r0, [r4, #340]
	ldr	r3, [r5, r3]
	cmp	r0, #0
	add	r3, r3, #8
	str	r3, [r4, #332]
	beq	.L330
	bl	_ZdaPv(PLT)
.L330:
	ldr	r3, .L446+36
	ldr	r0, [r4, #328]
	ldr	r3, [r5, r3]
	cmp	r0, #0
	add	r3, r3, #8
	str	r3, [r4, #320]
	beq	.L331
	bl	_ZdaPv(PLT)
.L331:
	ldr	r3, .L446+40
	ldr	r0, [r4, #316]
	ldr	r3, [r5, r3]
	cmp	r0, #0
	add	r3, r3, #8
	str	r3, [r4, #308]
	beq	.L332
	bl	_ZdaPv(PLT)
.L332:
	ldr	r3, .L446+44
	ldr	r0, [r4, #304]
	ldr	r3, [r5, r3]
	cmp	r0, #0
	add	r3, r3, #8
	str	r3, [r4, #296]
	beq	.L333
	bl	_ZdaPv(PLT)
.L333:
	ldr	r3, .L446+48
	ldr	r0, [r4, #292]
	ldr	r3, [r5, r3]
	cmp	r0, #0
	add	r3, r3, #8
	str	r3, [r4, #284]
	beq	.L334
	bl	_ZdaPv(PLT)
.L334:
	ldr	r3, .L446+52
	ldr	r2, .L446+56
	ldr	r0, [r4, #112]
	ldr	r3, [r5, r3]
	cmp	r0, #0
	add	lr, r3, #8
	add	ip, r3, #80
	add	r1, r3, #96
	add	r3, r3, #112
	str	lr, [r4, #52]
	str	ip, [r4, #56]
	str	r1, [r4, #60]
	str	r3, [r4, #64]
	ldr	r3, [r5, r2]
	add	r3, r3, #8
	str	r3, [r4, #104]
	beq	.L335
	bl	_ZdaPv(PLT)
.L335:
	ldr	r6, [r4, #48]
	cmp	r6, #0
	beq	.L337
	ldr	r3, .L446+60
	ldr	r3, [r5, r3]
	cmp	r3, #0
	beq	.L338
	add	r3, r6, #28
	mcr	p15, 0, r0, c7, c10, 5
.L426:
	ldrex	r2, [r3]
	sub	r1, r2, #1
	strex	r0, r1, [r3]
	cmp	r0, #0
	bne	.L426
	cmp	r2, #1
	mcr	p15, 0, r0, c7, c10, 5
	beq	.L440
.L337:
	ldr	r6, [r4, #40]
	cmp	r6, #0
	beq	.L343
	ldr	r3, .L446+60
	ldr	r3, [r5, r3]
	cmp	r3, #0
	beq	.L344
	add	r3, r6, #28
	mcr	p15, 0, r0, c7, c10, 5
.L425:
	ldrex	r2, [r3]
	sub	r1, r2, #1
	strex	r0, r1, [r3]
	cmp	r0, #0
	bne	.L425
	cmp	r2, #1
	mcr	p15, 0, r0, c7, c10, 5
	beq	.L441
.L343:
	ldr	r6, [r4, #32]
	cmp	r6, #0
	beq	.L349
	ldr	r3, .L446+60
	ldr	r3, [r5, r3]
	cmp	r3, #0
	beq	.L350
	add	r3, r6, #28
	mcr	p15, 0, r0, c7, c10, 5
.L424:
	ldrex	r2, [r3]
	sub	r1, r2, #1
	strex	r0, r1, [r3]
	cmp	r0, #0
	bne	.L424
	cmp	r2, #1
	mcr	p15, 0, r0, c7, c10, 5
	beq	.L442
.L349:
	ldr	r6, [r4, #24]
	cmp	r6, #0
	beq	.L355
	ldr	r3, .L446+60
	ldr	r3, [r5, r3]
	cmp	r3, #0
	beq	.L356
	add	r3, r6, #28
	mcr	p15, 0, r0, c7, c10, 5
.L423:
	ldrex	r2, [r3]
	sub	r1, r2, #1
	strex	r0, r1, [r3]
	cmp	r0, #0
	bne	.L423
	cmp	r2, #1
	mcr	p15, 0, r0, c7, c10, 5
	beq	.L443
.L355:
	ldr	r6, [r4, #16]
	cmp	r6, #0
	beq	.L361
	ldr	r3, .L446+60
	ldr	r3, [r5, r3]
	cmp	r3, #0
	beq	.L362
	add	r3, r6, #28
	mcr	p15, 0, r0, c7, c10, 5
.L422:
	ldrex	r2, [r3]
	sub	r1, r2, #1
	strex	r0, r1, [r3]
	cmp	r0, #0
	bne	.L422
	cmp	r2, #1
	mcr	p15, 0, r0, c7, c10, 5
	beq	.L444
.L361:
	ldr	r6, [r4, #8]
	cmp	r6, #0
	beq	.L390
	ldr	r3, .L446+60
	ldr	r3, [r5, r3]
	cmp	r3, #0
	beq	.L368
	add	r3, r6, #28
	mcr	p15, 0, r0, c7, c10, 5
.L421:
	ldrex	r2, [r3]
	sub	r1, r2, #1
	strex	r0, r1, [r3]
	cmp	r0, #0
	bne	.L421
	cmp	r2, #1
	mcr	p15, 0, r0, c7, c10, 5
	beq	.L445
.L390:
	mov	r0, r4
	pop	{r4, r5, r6, pc}
.L338:
	ldr	r3, [r6, #28]
	cmp	r3, #1
	sub	r3, r3, #1
	str	r3, [r6, #28]
	bne	.L337
	ldr	r3, [r6]
	mov	r0, r6
	ldr	r3, [r3, #8]
	blx	r3
	mcr	p15, 0, r0, c7, c10, 5
	ldr	r2, [r6, #32]
	sub	r3, r2, #1
	str	r3, [r6, #32]
	b	.L372
.L362:
	ldr	r3, [r6, #28]
	cmp	r3, #1
	sub	r3, r3, #1
	str	r3, [r6, #28]
	bne	.L361
	ldr	r3, [r6]
	mov	r0, r6
	ldr	r3, [r3, #8]
	blx	r3
	mcr	p15, 0, r0, c7, c10, 5
	ldr	r2, [r6, #32]
	sub	r3, r2, #1
	str	r3, [r6, #32]
	b	.L376
.L350:
	ldr	r3, [r6, #28]
	cmp	r3, #1
	sub	r3, r3, #1
	str	r3, [r6, #28]
	bne	.L349
	ldr	r3, [r6]
	mov	r0, r6
	ldr	r3, [r3, #8]
	blx	r3
	mcr	p15, 0, r0, c7, c10, 5
	ldr	r2, [r6, #32]
	sub	r3, r2, #1
	str	r3, [r6, #32]
	b	.L374
.L344:
	ldr	r3, [r6, #28]
	cmp	r3, #1
	sub	r3, r3, #1
	str	r3, [r6, #28]
	bne	.L343
	ldr	r3, [r6]
	mov	r0, r6
	ldr	r3, [r3, #8]
	blx	r3
	mcr	p15, 0, r0, c7, c10, 5
	ldr	r2, [r6, #32]
	sub	r3, r2, #1
	str	r3, [r6, #32]
	b	.L373
.L356:
	ldr	r3, [r6, #28]
	cmp	r3, #1
	sub	r3, r3, #1
	str	r3, [r6, #28]
	bne	.L355
	ldr	r3, [r6]
	mov	r0, r6
	ldr	r3, [r3, #8]
	blx	r3
	mcr	p15, 0, r0, c7, c10, 5
	ldr	r2, [r6, #32]
	sub	r3, r2, #1
	str	r3, [r6, #32]
	b	.L375
.L368:
	ldr	r3, [r6, #28]
	cmp	r3, #1
	sub	r3, r3, #1
	str	r3, [r6, #28]
	bne	.L390
	ldr	r3, [r6]
	mov	r0, r6
	ldr	r3, [r3, #8]
	blx	r3
	mcr	p15, 0, r0, c7, c10, 5
	ldr	r2, [r6, #32]
	sub	r3, r2, #1
	str	r3, [r6, #32]
	b	.L377
.L443:
	ldr	r3, [r6]
	mov	r0, r6
	ldr	r3, [r3, #8]
	blx	r3
	add	r3, r6, #32
	mcr	p15, 0, r0, c7, c10, 5
	mcr	p15, 0, r0, c7, c10, 5
.L417:
	ldrex	r2, [r3]
	sub	r1, r2, #1
	strex	r0, r1, [r3]
	cmp	r0, #0
	bne	.L417
	mcr	p15, 0, r0, c7, c10, 5
.L375:
	cmp	r2, #1
	bne	.L355
	ldr	r3, [r6]
	mov	r0, r6
	ldr	r3, [r3, #12]
	blx	r3
	b	.L355
.L445:
	ldr	r3, [r6]
	mov	r0, r6
	ldr	r3, [r3, #8]
	blx	r3
	add	r3, r6, #32
	mcr	p15, 0, r0, c7, c10, 5
	mcr	p15, 0, r0, c7, c10, 5
.L415:
	ldrex	r2, [r3]
	sub	r1, r2, #1
	strex	r0, r1, [r3]
	cmp	r0, #0
	bne	.L415
	mcr	p15, 0, r0, c7, c10, 5
.L377:
	cmp	r2, #1
	bne	.L390
	ldr	r3, [r6]
	mov	r0, r6
	ldr	r3, [r3, #12]
	blx	r3
	b	.L390
.L444:
	ldr	r3, [r6]
	mov	r0, r6
	ldr	r3, [r3, #8]
	blx	r3
	add	r3, r6, #32
	mcr	p15, 0, r0, c7, c10, 5
	mcr	p15, 0, r0, c7, c10, 5
.L416:
	ldrex	r2, [r3]
	sub	r1, r2, #1
	strex	r0, r1, [r3]
	cmp	r0, #0
	bne	.L416
	mcr	p15, 0, r0, c7, c10, 5
.L376:
	cmp	r2, #1
	bne	.L361
	ldr	r3, [r6]
	mov	r0, r6
	ldr	r3, [r3, #12]
	blx	r3
	b	.L361
.L440:
	ldr	r3, [r6]
	mov	r0, r6
	ldr	r3, [r3, #8]
	blx	r3
	add	r3, r6, #32
	mcr	p15, 0, r0, c7, c10, 5
	mcr	p15, 0, r0, c7, c10, 5
.L420:
	ldrex	r2, [r3]
	sub	r1, r2, #1
	strex	r0, r1, [r3]
	cmp	r0, #0
	bne	.L420
	mcr	p15, 0, r0, c7, c10, 5
.L372:
	cmp	r2, #1
	bne	.L337
	ldr	r3, [r6]
	mov	r0, r6
	ldr	r3, [r3, #12]
	blx	r3
	b	.L337
.L441:
	ldr	r3, [r6]
	mov	r0, r6
	ldr	r3, [r3, #8]
	blx	r3
	add	r3, r6, #32
	mcr	p15, 0, r0, c7, c10, 5
	mcr	p15, 0, r0, c7, c10, 5
.L419:
	ldrex	r2, [r3]
	sub	r1, r2, #1
	strex	r0, r1, [r3]
	cmp	r0, #0
	bne	.L419
	mcr	p15, 0, r0, c7, c10, 5
.L373:
	cmp	r2, #1
	bne	.L343
	ldr	r3, [r6]
	mov	r0, r6
	ldr	r3, [r3, #12]
	blx	r3
	b	.L343
.L442:
	ldr	r3, [r6]
	mov	r0, r6
	ldr	r3, [r3, #8]
	blx	r3
	add	r3, r6, #32
	mcr	p15, 0, r0, c7, c10, 5
	mcr	p15, 0, r0, c7, c10, 5
.L418:
	ldrex	r2, [r3]
	sub	r1, r2, #1
	strex	r0, r1, [r3]
	cmp	r0, #0
	bne	.L418
	mcr	p15, 0, r0, c7, c10, 5
.L374:
	cmp	r2, #1
	bne	.L349
	ldr	r3, [r6]
	mov	r0, r6
	ldr	r3, [r3, #12]
	blx	r3
	b	.L349
.L447:
	.align	2
.L446:
	.word	_GLOBAL_OFFSET_TABLE_-(.LPIC25+8)
	.word	_ZTVN8opendnp38OContextE(GOT)
	.word	_ZTVN7openpal5ArrayIhjEE(GOT)
	.word	_ZTVN8opendnp38DatabaseE(GOT)
	.word	_ZTVN8opendnp315DatabaseBuffersE(GOT)
	.word	_ZTVN7openpal5ArrayIN8opendnp34CellINS1_19TimeAndIntervalSpecEEEtEE(GOT)
	.word	_ZTVN7openpal5ArrayIN8opendnp34CellINS1_22AnalogOutputStatusSpecEEEtEE(GOT)
	.word	_ZTVN7openpal5ArrayIN8opendnp34CellINS1_22BinaryOutputStatusSpecEEEtEE(GOT)
	.word	_ZTVN7openpal5ArrayIN8opendnp34CellINS1_17FrozenCounterSpecEEEtEE(GOT)
	.word	_ZTVN7openpal5ArrayIN8opendnp34CellINS1_11CounterSpecEEEtEE(GOT)
	.word	_ZTVN7openpal5ArrayIN8opendnp34CellINS1_10AnalogSpecEEEtEE(GOT)
	.word	_ZTVN7openpal5ArrayIN8opendnp34CellINS1_19DoubleBitBinarySpecEEEtEE(GOT)
	.word	_ZTVN7openpal5ArrayIN8opendnp34CellINS1_10BinarySpecEEEtEE(GOT)
	.word	_ZTVN8opendnp311EventBufferE(GOT)
	.word	_ZTVN7openpal5ArrayINS_8ListNodeIN8opendnp39SOERecordEEEjEE(GOT)
	.word	_ZL28__gthrw___pthread_key_createPjPFvPvE(GOT)
	.cantunwind
	.fnend
	.size	_ZN8opendnp38OContextD2Ev, .-_ZN8opendnp38OContextD2Ev
	.weak	_ZN8opendnp38OContextD1Ev
	.set	_ZN8opendnp38OContextD1Ev,_ZN8opendnp38OContextD2Ev
	.section	.text._ZN7openpal6LoggerD2Ev,"axG",%progbits,_ZN7openpal6LoggerD5Ev,comdat
	.align	2
	.weak	_ZN7openpal6LoggerD2Ev
	.syntax unified
	.arm
	.fpu vfp
	.type	_ZN7openpal6LoggerD2Ev, %function
_ZN7openpal6LoggerD2Ev:
	.fnstart
.LFB2547:
	@ args = 0, pretend = 0, frame = 0
	@ frame_needed = 0, uses_anonymous_args = 0
	push	{r4, r5, r6, lr}
	mov	r4, r0
	ldr	r5, [r0, #12]
	ldr	r6, .L475
	cmp	r5, #0
.LPIC26:
	add	r6, pc, r6
	beq	.L450
	ldr	r3, .L475+4
	ldr	r3, [r6, r3]
	cmp	r3, #0
	beq	.L451
	add	r3, r5, #28
	mcr	p15, 0, r0, c7, c10, 5
.L467:
	ldrex	r2, [r3]
	sub	r1, r2, #1
	strex	r0, r1, [r3]
	cmp	r0, #0
	bne	.L467
	cmp	r2, #1
	mcr	p15, 0, r0, c7, c10, 5
	beq	.L473
.L450:
	ldr	r5, [r4, #4]
	cmp	r5, #0
	beq	.L463
	ldr	r3, .L475+4
	ldr	r3, [r6, r3]
	cmp	r3, #0
	beq	.L457
	add	r3, r5, #28
	mcr	p15, 0, r0, c7, c10, 5
.L466:
	ldrex	r2, [r3]
	sub	r1, r2, #1
	strex	r0, r1, [r3]
	cmp	r0, #0
	bne	.L466
	cmp	r2, #1
	mcr	p15, 0, r0, c7, c10, 5
	beq	.L474
.L463:
	mov	r0, r4
	pop	{r4, r5, r6, pc}
.L451:
	ldr	r3, [r5, #28]
	cmp	r3, #1
	sub	r3, r3, #1
	str	r3, [r5, #28]
	bne	.L450
	ldr	r3, [r5]
	mov	r0, r5
	ldr	r3, [r3, #8]
	blx	r3
	mcr	p15, 0, r0, c7, c10, 5
	ldr	r2, [r5, #32]
	sub	r3, r2, #1
	str	r3, [r5, #32]
	b	.L461
.L457:
	ldr	r3, [r5, #28]
	cmp	r3, #1
	sub	r3, r3, #1
	str	r3, [r5, #28]
	bne	.L463
	ldr	r3, [r5]
	mov	r0, r5
	ldr	r3, [r3, #8]
	blx	r3
	mcr	p15, 0, r0, c7, c10, 5
	ldr	r2, [r5, #32]
	sub	r3, r2, #1
	str	r3, [r5, #32]
	b	.L462
.L474:
	ldr	r3, [r5]
	mov	r0, r5
	ldr	r3, [r3, #8]
	blx	r3
	add	r3, r5, #32
	mcr	p15, 0, r0, c7, c10, 5
	mcr	p15, 0, r0, c7, c10, 5
.L464:
	ldrex	r2, [r3]
	sub	r1, r2, #1
	strex	r0, r1, [r3]
	cmp	r0, #0
	bne	.L464
	mcr	p15, 0, r0, c7, c10, 5
.L462:
	cmp	r2, #1
	bne	.L463
	ldr	r3, [r5]
	mov	r0, r5
	ldr	r3, [r3, #12]
	blx	r3
	b	.L463
.L473:
	ldr	r3, [r5]
	mov	r0, r5
	ldr	r3, [r3, #8]
	blx	r3
	add	r3, r5, #32
	mcr	p15, 0, r0, c7, c10, 5
	mcr	p15, 0, r0, c7, c10, 5
.L465:
	ldrex	r2, [r3]
	sub	r1, r2, #1
	strex	r0, r1, [r3]
	cmp	r0, #0
	bne	.L465
	mcr	p15, 0, r0, c7, c10, 5
.L461:
	cmp	r2, #1
	bne	.L450
	ldr	r3, [r5]
	mov	r0, r5
	ldr	r3, [r3, #12]
	blx	r3
	b	.L450
.L476:
	.align	2
.L475:
	.word	_GLOBAL_OFFSET_TABLE_-(.LPIC26+8)
	.word	_ZL28__gthrw___pthread_key_createPjPFvPvE(GOT)
	.cantunwind
	.fnend
	.size	_ZN7openpal6LoggerD2Ev, .-_ZN7openpal6LoggerD2Ev
	.weak	_ZN7openpal6LoggerD1Ev
	.set	_ZN7openpal6LoggerD1Ev,_ZN7openpal6LoggerD2Ev
	.text
	.align	2
	.global	_ZN8opendnp38OContext17ProcessNewRequestERKNS_10APDUHeaderERKN7openpal6RSliceE
	.syntax unified
	.arm
	.fpu vfp
	.type	_ZN8opendnp38OContext17ProcessNewRequestERKNS_10APDUHeaderERKN7openpal6RSliceE, %function
_ZN8opendnp38OContext17ProcessNewRequestERKNS_10APDUHeaderERKN7openpal6RSliceE:
	.fnstart
.LFB2782:
	@ args = 0, pretend = 0, frame = 0
	@ frame_needed = 0, uses_anonymous_args = 0
	str	lr, [sp, #-4]!
	mov	r3, r2
	ldrb	ip, [r1, #5]	@ zero_extendqisi2
	mov	r2, r1
	strb	ip, [r0, #568]
	ldrb	ip, [r1]	@ zero_extendqisi2
	mov	r1, r0
	cmp	ip, #1
	ldr	ip, [r0, #632]
	mov	r0, ip
	ldr	lr, [ip]
	beq	.L480
	ldr	lr, [lr, #20]
	mov	ip, lr
	ldr	lr, [sp], #4
	bx	ip
.L480:
	ldr	lr, [lr, #16]
	mov	ip, lr
	ldr	lr, [sp], #4
	bx	ip
	.cantunwind
	.fnend
	.size	_ZN8opendnp38OContext17ProcessNewRequestERKNS_10APDUHeaderERKN7openpal6RSliceE, .-_ZN8opendnp38OContext17ProcessNewRequestERKNS_10APDUHeaderERKN7openpal6RSliceE
	.align	2
	.global	_ZN8opendnp38OContext19OnReceiveSolRequestERKNS_10APDUHeaderERKN7openpal6RSliceE
	.syntax unified
	.arm
	.fpu vfp
	.type	_ZN8opendnp38OContext19OnReceiveSolRequestERKNS_10APDUHeaderERKN7openpal6RSliceE, %function
_ZN8opendnp38OContext19OnReceiveSolRequestERKNS_10APDUHeaderERKN7openpal6RSliceE:
	.fnstart
.LFB2781:
	@ args = 0, pretend = 0, frame = 0
	@ frame_needed = 0, uses_anonymous_args = 0
	push	{r4, r5, r6, lr}
	.save {r4, r5, r6, lr}
	mov	r5, r1
	ldrb	lr, [r0, #500]	@ zero_extendqisi2
	mov	r6, r2
	cmp	lr, #0
	beq	.L482
	ldrb	r4, [r0, #568]	@ zero_extendqisi2
	ldrb	lr, [r1, #5]	@ zero_extendqisi2
	cmp	r4, lr
	beq	.L489
.L482:
	mov	r2, r6
	mov	r1, r5
	pop	{r4, r5, r6, lr}
	b	_ZN8opendnp38OContext17ProcessNewRequestERKNS_10APDUHeaderERKN7openpal6RSliceE(PLT)
.L489:
	mov	r4, r0
	add	r0, r0, #500
	bl	_ZNK8opendnp314RequestHistory22FullyEqualsLastRequestERKNS_10APDUHeaderERKN7openpal6RSliceE(PLT)
	cmp	r0, #0
	beq	.L483
	ldrb	r3, [r5]	@ zero_extendqisi2
	ldr	r0, [r4, #632]
	mov	r2, r5
	cmp	r3, #1
	ldr	ip, [r0]
	mov	r3, r6
	mov	r1, r4
	beq	.L490
	ldr	lr, [ip, #24]
	mov	ip, lr
	pop	{r4, r5, r6, lr}
	bx	ip
.L490:
	ldr	lr, [ip, #28]
	mov	ip, lr
	pop	{r4, r5, r6, lr}
	bx	ip
.L483:
	mov	r2, r6
	mov	r1, r5
	mov	r0, r4
	pop	{r4, r5, r6, lr}
	b	_ZN8opendnp38OContext17ProcessNewRequestERKNS_10APDUHeaderERKN7openpal6RSliceE(PLT)
	.fnend
	.size	_ZN8opendnp38OContext19OnReceiveSolRequestERKNS_10APDUHeaderERKN7openpal6RSliceE, .-_ZN8opendnp38OContext19OnReceiveSolRequestERKNS_10APDUHeaderERKN7openpal6RSliceE
	.align	2
	.global	_ZN8opendnp38OContext14ProcessRequestERKNS_10APDUHeaderERKN7openpal6RSliceE
	.syntax unified
	.arm
	.fpu vfp
	.type	_ZN8opendnp38OContext14ProcessRequestERKNS_10APDUHeaderERKN7openpal6RSliceE, %function
_ZN8opendnp38OContext14ProcessRequestERKNS_10APDUHeaderERKN7openpal6RSliceE:
	.fnstart
.LFB2784:
	@ args = 0, pretend = 0, frame = 128
	@ frame_needed = 0, uses_anonymous_args = 0
	ldrb	r3, [r1, #4]	@ zero_extendqisi2
	push	{r4, r5, r6, r7, lr}
	.save {r4, r5, r6, r7, lr}
	mov	r4, r0
	cmp	r3, #0
	.pad #132
	sub	sp, sp, #132
	beq	.L492
	add	r5, sp, #128
	add	r4, r0, #4
	mov	r7, #4
	str	r7, [r5, #-120]!
	mov	r6, r1
	mov	r0, r4
	mov	r1, r5
	bl	_ZNK7openpal6Logger9IsEnabledERKNS_10LogFiltersE(PLT)
	cmp	r0, #0
	bne	.L498
	add	sp, sp, #132
	@ sp needed
	pop	{r4, r5, r6, r7, pc}
.L492:
	bl	_ZN8opendnp38OContext19OnReceiveSolRequestERKNS_10APDUHeaderERKN7openpal6RSliceE(PLT)
	str	r0, [r4, #632]
	add	sp, sp, #132
	@ sp needed
	pop	{r4, r5, r6, r7, pc}
.L498:
	ldrb	r0, [r6]	@ zero_extendqisi2
	bl	_ZN8opendnp320FunctionCodeToStringENS_12FunctionCodeE(PLT)
	ldr	r2, .L499
	mov	r1, #120
.LPIC27:
	add	r2, pc, r2
	mov	r3, r0
	mov	r0, r5
	bl	snprintf(PLT)
	add	r1, sp, #128
	ldr	r2, .L499+4
	mov	r3, r5
	mov	r0, r4
	str	r7, [r1, #-124]!
.LPIC28:
	add	r2, pc, r2
	bl	_ZN7openpal6Logger3LogERKNS_10LogFiltersEPKcS5_(PLT)
	add	sp, sp, #132
	@ sp needed
	pop	{r4, r5, r6, r7, pc}
.L500:
	.align	2
.L499:
	.word	.LC2-(.LPIC27+8)
	.word	.LC3-(.LPIC28+8)
	.fnend
	.size	_ZN8opendnp38OContext14ProcessRequestERKNS_10APDUHeaderERKN7openpal6RSliceE, .-_ZN8opendnp38OContext14ProcessRequestERKNS_10APDUHeaderERKN7openpal6RSliceE
	.align	2
	.global	_ZN8opendnp38OContext14ProcessConfirmERKNS_10APDUHeaderE
	.syntax unified
	.arm
	.fpu vfp
	.type	_ZN8opendnp38OContext14ProcessConfirmERKNS_10APDUHeaderE, %function
_ZN8opendnp38OContext14ProcessConfirmERKNS_10APDUHeaderE:
	.fnstart
.LFB2785:
	@ args = 0, pretend = 0, frame = 0
	@ frame_needed = 0, uses_anonymous_args = 0
	ldr	r3, [r0, #632]
	push	{r4, lr}
	.save {r4, lr}
	mov	r2, r1
	mov	r4, r0
	mov	r1, r0
	mov	r0, r3
	ldr	r3, [r3]
	ldr	r3, [r3, #8]
	blx	r3
	str	r0, [r4, #632]
	pop	{r4, pc}
	.fnend
	.size	_ZN8opendnp38OContext14ProcessConfirmERKNS_10APDUHeaderE, .-_ZN8opendnp38OContext14ProcessConfirmERKNS_10APDUHeaderE
	.align	2
	.global	_ZN8opendnp38OContext7BeginTxERKN7openpal6RSliceE
	.syntax unified
	.arm
	.fpu vfp
	.type	_ZN8opendnp38OContext7BeginTxERKN7openpal6RSliceE, %function
_ZN8opendnp38OContext7BeginTxERKN7openpal6RSliceE:
	.fnstart
.LFB2788:
	@ args = 0, pretend = 0, frame = 16
	@ frame_needed = 0, uses_anonymous_args = 0
	ldmib	r0, {r2, r3}
	push	{r4, r5, r6, r7, lr}
	.save {r4, r5, r6, r7, lr}
	.pad #20
	sub	sp, sp, #20
	ldr	r5, .L548
	cmp	r3, #0
	stm	sp, {r2, r3}
	mov	r4, r0
	mov	r6, r1
.LPIC29:
	add	r5, pc, r5
	beq	.L504
	ldr	r2, .L548+4
	ldr	r2, [r5, r2]
	cmp	r2, #0
	beq	.L505
	add	r3, r3, #28
	mcr	p15, 0, r0, c7, c10, 5
.L539:
	ldrex	r2, [r3]
	add	r2, r2, #1
	strex	r1, r2, [r3]
	cmp	r1, #0
	bne	.L539
	mcr	p15, 0, r0, c7, c10, 5
	ldr	r2, [r4, #16]
	ldr	r3, [r4, #12]
	cmp	r2, #0
	str	r3, [sp, #8]
	str	r2, [sp, #12]
	beq	.L507
.L541:
	add	r2, r2, #28
	mcr	p15, 0, r0, c7, c10, 5
.L538:
	ldrex	r3, [r2]
	add	r3, r3, #1
	strex	r1, r3, [r2]
	cmp	r1, #0
	bne	.L538
	mcr	p15, 0, r0, c7, c10, 5
.L507:
	mov	r0, sp
	mov	r1, r6
	mov	r7, sp
.LEHB0:
	bl	_ZN8opendnp37logging21ParseAndLogResponseTxEN7openpal6LoggerERKNS1_6RSliceE(PLT)
.LEHE0:
	ldr	r7, [sp, #12]
	cmp	r7, #0
	beq	.L511
	ldr	r3, .L548+4
	ldr	r3, [r5, r3]
	cmp	r3, #0
	beq	.L512
	add	r3, r7, #28
	mcr	p15, 0, r0, c7, c10, 5
.L537:
	ldrex	r2, [r3]
	sub	r1, r2, #1
	strex	r0, r1, [r3]
	cmp	r0, #0
	bne	.L537
	cmp	r2, #1
	mcr	p15, 0, r0, c7, c10, 5
	beq	.L546
.L511:
	ldr	r7, [sp, #4]
	cmp	r7, #0
	beq	.L517
	ldr	r3, .L548+4
	ldr	r3, [r5, r3]
	cmp	r3, #0
	beq	.L518
	add	r3, r7, #28
	mcr	p15, 0, r0, c7, c10, 5
.L536:
	ldrex	r2, [r3]
	sub	r1, r2, #1
	strex	r0, r1, [r3]
	cmp	r0, #0
	bne	.L536
	cmp	r2, #1
	mcr	p15, 0, r0, c7, c10, 5
	beq	.L547
.L517:
	ldr	r0, [r4, #28]
	mov	r2, #1
	mov	r1, r6
	ldr	r3, [r0]
	strb	r2, [r4, #489]
	ldr	r3, [r3, #8]
.LEHB1:
	blx	r3
	add	sp, sp, #20
	@ sp needed
	pop	{r4, r5, r6, r7, pc}
.L512:
	ldr	r3, [r7, #28]
	cmp	r3, #1
	sub	r3, r3, #1
	str	r3, [r7, #28]
	bne	.L511
	ldr	r3, [r7]
	mov	r0, r7
	ldr	r3, [r3, #8]
	blx	r3
	mcr	p15, 0, r0, c7, c10, 5
	ldr	r2, [r7, #32]
	sub	r3, r2, #1
	str	r3, [r7, #32]
	b	.L524
.L505:
	ldr	r2, [r0, #16]
	ldr	r1, [r3, #28]
	ldr	r0, [r0, #12]
	add	r1, r1, #1
	cmp	r2, #0
	str	r1, [r3, #28]
	str	r2, [sp, #12]
	str	r0, [sp, #8]
	beq	.L507
.L508:
	ldr	r3, [r2, #28]
	add	r3, r3, #1
	str	r3, [r2, #28]
	b	.L507
.L518:
	ldr	r3, [r7, #28]
	cmp	r3, #1
	sub	r3, r3, #1
	str	r3, [r7, #28]
	bne	.L517
	ldr	r3, [r7]
	mov	r0, r7
	ldr	r3, [r3, #8]
	blx	r3
	mcr	p15, 0, r0, c7, c10, 5
	ldr	r2, [r7, #32]
	sub	r3, r2, #1
	str	r3, [r7, #32]
	b	.L525
.L547:
	ldr	r3, [r7]
	mov	r0, r7
	ldr	r3, [r3, #8]
	blx	r3
	add	r3, r7, #32
	mcr	p15, 0, r0, c7, c10, 5
	mcr	p15, 0, r0, c7, c10, 5
.L534:
	ldrex	r2, [r3]
	sub	r1, r2, #1
	strex	r0, r1, [r3]
	cmp	r0, #0
	bne	.L534
	mcr	p15, 0, r0, c7, c10, 5
.L525:
	cmp	r2, #1
	bne	.L517
	ldr	r3, [r7]
	mov	r0, r7
	ldr	r3, [r3, #12]
	blx	r3
	b	.L517
.L546:
	ldr	r3, [r7]
	mov	r0, r7
	ldr	r3, [r3, #8]
	blx	r3
	add	r3, r7, #32
	mcr	p15, 0, r0, c7, c10, 5
	mcr	p15, 0, r0, c7, c10, 5
.L535:
	ldrex	r2, [r3]
	sub	r1, r2, #1
	strex	r0, r1, [r3]
	cmp	r0, #0
	bne	.L535
	mcr	p15, 0, r0, c7, c10, 5
.L524:
	cmp	r2, #1
	bne	.L511
	ldr	r3, [r7]
	mov	r0, r7
	ldr	r3, [r3, #12]
	blx	r3
	b	.L511
.L504:
	ldr	r2, [r0, #16]
	ldr	r3, [r0, #12]
	cmp	r2, #0
	str	r2, [sp, #12]
	str	r3, [sp, #8]
	beq	.L507
	ldr	r3, .L548+4
	ldr	r3, [r5, r3]
	cmp	r3, #0
	bne	.L541
	b	.L508
.L526:
	mov	r0, r7
	bl	_ZN7openpal6LoggerD1Ev(PLT)
	bl	__cxa_end_cleanup(PLT)
.LEHE1:
.L549:
	.align	2
.L548:
	.word	_GLOBAL_OFFSET_TABLE_-(.LPIC29+8)
	.word	_ZL28__gthrw___pthread_key_createPjPFvPvE(GOT)
	.global	__gxx_personality_v0
	.personality	__gxx_personality_v0
	.handlerdata
.LLSDA2788:
	.byte	0xff
	.byte	0xff
	.byte	0x1
	.uleb128 .LLSDACSE2788-.LLSDACSB2788
.LLSDACSB2788:
	.uleb128 .LEHB0-.LFB2788
	.uleb128 .LEHE0-.LEHB0
	.uleb128 .L526-.LFB2788
	.uleb128 0
	.uleb128 .LEHB1-.LFB2788
	.uleb128 .LEHE1-.LEHB1
	.uleb128 0
	.uleb128 0
.LLSDACSE2788:
	.text
	.fnend
	.size	_ZN8opendnp38OContext7BeginTxERKN7openpal6RSliceE, .-_ZN8opendnp38OContext7BeginTxERKN7openpal6RSliceE
	.align	2
	.global	_ZN8opendnp38OContext15BeginResponseTxERKNS_15AppControlFieldERKN7openpal6RSliceE
	.syntax unified
	.arm
	.fpu vfp
	.type	_ZN8opendnp38OContext15BeginResponseTxERKNS_15AppControlFieldERKN7openpal6RSliceE, %function
_ZN8opendnp38OContext15BeginResponseTxERKNS_15AppControlFieldERKN7openpal6RSliceE:
	.fnstart
.LFB2786:
	@ args = 0, pretend = 0, frame = 0
	@ frame_needed = 0, uses_anonymous_args = 0
	str	lr, [sp, #-4]!
	mov	r3, r0
	mov	lr, r1
	ldr	r0, [r1]	@ unaligned
	add	ip, r3, #572
	str	r0, [r3, #580]
	ldm	r2, {r0, r1}
	ldrb	lr, [lr, #4]	@ zero_extendqisi2
	strb	lr, [r3, #584]
	stm	ip, {r0, r1}
	ldr	lr, [sp], #4
	mov	r1, r2
	mov	r0, r3
	b	_ZN8opendnp38OContext7BeginTxERKN7openpal6RSliceE(PLT)
	.cantunwind
	.fnend
	.size	_ZN8opendnp38OContext15BeginResponseTxERKNS_15AppControlFieldERKN7openpal6RSliceE, .-_ZN8opendnp38OContext15BeginResponseTxERKNS_15AppControlFieldERKN7openpal6RSliceE
	.align	2
	.global	_ZN8opendnp38OContext12BeginUnsolTxERKNS_15AppControlFieldERKN7openpal6RSliceE
	.syntax unified
	.arm
	.fpu vfp
	.type	_ZN8opendnp38OContext12BeginUnsolTxERKNS_15AppControlFieldERKN7openpal6RSliceE, %function
_ZN8opendnp38OContext12BeginUnsolTxERKNS_15AppControlFieldERKN7openpal6RSliceE:
	.fnstart
.LFB2787:
	@ args = 0, pretend = 0, frame = 0
	@ frame_needed = 0, uses_anonymous_args = 0
	mov	r3, r0
	push	{r4, r5, lr}
	mov	ip, r1
	ldr	r0, [r1]	@ unaligned
	ldrb	lr, [r3, #601]	@ zero_extendqisi2
	str	r0, [r3, #612]
	ldm	r2, {r0, r1}
	ldrb	r5, [ip, #4]	@ zero_extendqisi2
	add	r4, r3, #604
	add	ip, lr, #1
	and	ip, ip, #15
	strb	r5, [r3, #616]
	stm	r4, {r0, r1}
	strb	ip, [r3, #601]
	strb	lr, [r3, #602]
	mov	r1, r2
	mov	r0, r3
	pop	{r4, r5, lr}
	b	_ZN8opendnp38OContext7BeginTxERKN7openpal6RSliceE(PLT)
	.cantunwind
	.fnend
	.size	_ZN8opendnp38OContext12BeginUnsolTxERKNS_15AppControlFieldERKN7openpal6RSliceE, .-_ZN8opendnp38OContext12BeginUnsolTxERKNS_15AppControlFieldERKN7openpal6RSliceE
	.align	2
	.global	_ZN8opendnp38OContext22ProcessDeferredRequestENS_10APDUHeaderEN7openpal6RSliceE
	.syntax unified
	.arm
	.fpu vfp
	.type	_ZN8opendnp38OContext22ProcessDeferredRequestENS_10APDUHeaderEN7openpal6RSliceE, %function
_ZN8opendnp38OContext22ProcessDeferredRequestENS_10APDUHeaderEN7openpal6RSliceE:
	.fnstart
.LFB2791:
	@ args = 12, pretend = 8, frame = 8
	@ frame_needed = 0, uses_anonymous_args = 0
	.pad #8
	sub	sp, sp, #8
	push	{r4, r5, lr}
	.save {r4, r5, lr}
	.pad #12
	sub	sp, sp, #12
	mov	r4, sp
	str	r3, [sp, #28]
	stm	sp, {r1, r2}
	ldrb	r3, [sp]	@ zero_extendqisi2
	cmp	r3, #0
	beq	.L563
	cmp	r3, #1
	mov	r5, r0
	beq	.L564
.L557:
	mov	r0, r5
	mov	r1, r4
	add	r2, sp, #28
	bl	_ZN8opendnp38OContext14ProcessRequestERKNS_10APDUHeaderERKN7openpal6RSliceE(PLT)
	mov	r0, #1
	add	sp, sp, #12
	@ sp needed
	pop	{r4, r5, lr}
	add	sp, sp, #8
	bx	lr
.L564:
	ldr	r3, [r0, #632]
	mov	r0, r3
	ldr	r3, [r3]
	ldr	r3, [r3]
	blx	r3
	cmp	r0, #0
	bne	.L557
	add	sp, sp, #12
	@ sp needed
	pop	{r4, r5, lr}
	add	sp, sp, #8
	bx	lr
.L563:
	mov	r1, sp
	bl	_ZN8opendnp38OContext14ProcessConfirmERKNS_10APDUHeaderE(PLT)
	mov	r0, #1
	add	sp, sp, #12
	@ sp needed
	pop	{r4, r5, lr}
	add	sp, sp, #8
	bx	lr
	.fnend
	.size	_ZN8opendnp38OContext22ProcessDeferredRequestENS_10APDUHeaderEN7openpal6RSliceE, .-_ZN8opendnp38OContext22ProcessDeferredRequestENS_10APDUHeaderEN7openpal6RSliceE
	.align	2
	.global	_ZN8opendnp38OContext19RestartConfirmTimerEv
	.syntax unified
	.arm
	.fpu vfp
	.type	_ZN8opendnp38OContext19RestartConfirmTimerEv, %function
_ZN8opendnp38OContext19RestartConfirmTimerEv:
	.fnstart
.LFB2793:
	@ args = 0, pretend = 0, frame = 16
	@ frame_needed = 0, uses_anonymous_args = 0
	ldr	ip, .L577
	ldr	r3, .L577+4
	push	{r4, r5, lr}
	.save {r4, r5, lr}
	mov	lr, r0
	.pad #20
	sub	sp, sp, #20
	add	r4, r0, #492
.LPIC30:
	add	ip, pc, ip
.LPIC31:
	add	r3, pc, r3
	mov	r0, r4
	add	r1, lr, #456
	mov	r2, sp
	mov	r5, sp
	stm	sp, {r4, lr}
	str	ip, [sp, #12]
	str	r3, [sp, #8]
.LEHB2:
	bl	_ZN7openpal8TimerRef13RestartActionERKNS_12TimeDurationERKSt8functionIFvvEE(PLT)
.LEHE2:
	ldr	r3, [sp, #8]
	cmp	r3, #0
	beq	.L565
	mov	r2, #3
	mov	r1, sp
	mov	r0, r5
	blx	r3
.L565:
	add	sp, sp, #20
	@ sp needed
	pop	{r4, r5, pc}
.L569:
	ldr	r3, [sp, #8]
	cmp	r3, #0
	beq	.L568
	mov	r2, #3
	mov	r1, r5
	mov	r0, r5
	blx	r3
.L568:
.LEHB3:
	bl	__cxa_end_cleanup(PLT)
.LEHE3:
.L578:
	.align	2
.L577:
	.word	_ZNSt17_Function_handlerIFvvEZN7openpal8TimerRef7RestartIZN8opendnp38OContext19RestartConfirmTimerEvEUlvE_EEvRKNS1_12TimeDurationERKT_EUlvE_E9_M_invokeERKSt9_Any_data-(.LPIC30+8)
	.word	_ZNSt14_Function_base13_Base_managerIZN7openpal8TimerRef7RestartIZN8opendnp38OContext19RestartConfirmTimerEvEUlvE_EEvRKNS1_12TimeDurationERKT_EUlvE_E10_M_managerERSt9_Any_dataRKSF_St18_Manager_operation-(.LPIC31+8)
	.personality	__gxx_personality_v0
	.handlerdata
.LLSDA2793:
	.byte	0xff
	.byte	0xff
	.byte	0x1
	.uleb128 .LLSDACSE2793-.LLSDACSB2793
.LLSDACSB2793:
	.uleb128 .LEHB2-.LFB2793
	.uleb128 .LEHE2-.LEHB2
	.uleb128 .L569-.LFB2793
	.uleb128 0
	.uleb128 .LEHB3-.LFB2793
	.uleb128 .LEHE3-.LEHB3
	.uleb128 0
	.uleb128 0
.LLSDACSE2793:
	.text
	.fnend
	.size	_ZN8opendnp38OContext19RestartConfirmTimerEv, .-_ZN8opendnp38OContext19RestartConfirmTimerEv
	.align	2
	.global	_ZNK8opendnp38OContext11CanTransmitEv
	.syntax unified
	.arm
	.fpu vfp
	.type	_ZNK8opendnp38OContext11CanTransmitEv, %function
_ZNK8opendnp38OContext11CanTransmitEv:
	.fnstart
.LFB2798:
	@ args = 0, pretend = 0, frame = 0
	@ frame_needed = 0, uses_anonymous_args = 0
	@ link register save eliminated.
	ldrb	r3, [r0, #488]	@ zero_extendqisi2
	cmp	r3, #0
	ldrbne	r3, [r0, #489]	@ zero_extendqisi2
	eorne	r3, r3, #1
	mov	r0, r3
	bx	lr
	.cantunwind
	.fnend
	.size	_ZNK8opendnp38OContext11CanTransmitEv, .-_ZNK8opendnp38OContext11CanTransmitEv
	.align	2
	.global	_ZN8opendnp38OContext23CheckForDeferredRequestEv
	.syntax unified
	.arm
	.fpu vfp
	.type	_ZN8opendnp38OContext23CheckForDeferredRequestEv, %function
_ZN8opendnp38OContext23CheckForDeferredRequestEv:
	.fnstart
.LFB2789:
	@ args = 0, pretend = 0, frame = 0
	@ frame_needed = 0, uses_anonymous_args = 0
	push	{r4, lr}
	.save {r4, lr}
	.pad #8
	sub	sp, sp, #8
	mov	r4, r0
	bl	_ZNK8opendnp38OContext11CanTransmitEv(PLT)
	cmp	r0, #0
	bne	.L592
.L584:
	add	sp, sp, #8
	@ sp needed
	pop	{r4, pc}
.L592:
	add	r0, r4, #516
	bl	_ZNK8opendnp315DeferredRequest5IsSetEv(PLT)
	cmp	r0, #0
	beq	.L584
	ldrb	r3, [r4, #516]	@ zero_extendqisi2
	cmp	r3, #0
	beq	.L584
	ldrb	r0, [r4, #518]	@ zero_extendqisi2
	ldrb	r3, [r4, #517]	@ zero_extendqisi2
	ldrb	lr, [r4, #519]	@ zero_extendqisi2
	ldrb	r1, [r4, #520]	@ zero_extendqisi2
	ldrb	ip, [r4, #522]	@ zero_extendqisi2
	ldrb	r2, [r4, #521]	@ zero_extendqisi2
	orr	r3, r3, r0, lsl #8
	ldr	r0, [r4, #528]
	orr	r3, r3, lr, lsl #16
	str	r0, [sp]
	orr	r1, r3, r1, lsl #24
	orr	r2, r2, ip, lsl #8
	ldr	r3, [r4, #524]
	mov	r0, r4
	bl	_ZN8opendnp38OContext22ProcessDeferredRequestENS_10APDUHeaderEN7openpal6RSliceE(PLT)
	eor	r0, r0, #1
	strb	r0, [r4, #516]
	add	sp, sp, #8
	@ sp needed
	pop	{r4, pc}
	.fnend
	.size	_ZN8opendnp38OContext23CheckForDeferredRequestEv, .-_ZN8opendnp38OContext23CheckForDeferredRequestEv
	.align	2
	.global	_ZN8opendnp38OContext13GetDynamicIINEv
	.syntax unified
	.arm
	.fpu vfp
	.type	_ZN8opendnp38OContext13GetDynamicIINEv, %function
_ZN8opendnp38OContext13GetDynamicIINEv:
	.fnstart
.LFB2800:
	@ args = 0, pretend = 0, frame = 16
	@ frame_needed = 0, uses_anonymous_args = 0
	push	{r4, r5, r6, lr}
	.save {r4, r5, r6, lr}
	add	r6, r0, #52
	.pad #16
	sub	sp, sp, #16
	mov	r0, r6
	bl	_ZNK8opendnp311EventBuffer19UnwrittenClassFieldEv(PLT)
	add	r5, sp, #4
	mov	r3, #0
	strb	r3, [sp, #8]
	strb	r3, [sp, #9]
	add	r4, sp, #8
	strb	r0, [sp, #4]
	mov	r0, r5
	bl	_ZNK8opendnp310ClassField9HasClass1Ev(PLT)
	mov	r1, #1
	mov	r2, r0
	mov	r0, r4
	bl	_ZN8opendnp38IINField13SetBitToValueENS_6IINBitEb(PLT)
	mov	r0, r5
	bl	_ZNK8opendnp310ClassField9HasClass2Ev(PLT)
	mov	r1, #2
	mov	r2, r0
	mov	r0, r4
	bl	_ZN8opendnp38IINField13SetBitToValueENS_6IINBitEb(PLT)
	mov	r0, r5
	bl	_ZNK8opendnp310ClassField9HasClass3Ev(PLT)
	mov	r1, #3
	mov	r2, r0
	mov	r0, r4
	bl	_ZN8opendnp38IINField13SetBitToValueENS_6IINBitEb(PLT)
	mov	r0, r6
	bl	_ZN8opendnp311EventBuffer11IsOverflownEv(PLT)
	mov	r1, #11
	mov	r2, r0
	mov	r0, r4
	bl	_ZN8opendnp38IINField13SetBitToValueENS_6IINBitEb(PLT)
	ldrh	r0, [sp, #8]
	add	sp, sp, #16
	@ sp needed
	pop	{r4, r5, r6, pc}
	.fnend
	.size	_ZN8opendnp38OContext13GetDynamicIINEv, .-_ZN8opendnp38OContext13GetDynamicIINEv
	.align	2
	.global	_ZN8opendnp38OContext14GetResponseIINEv
	.syntax unified
	.arm
	.fpu vfp
	.type	_ZN8opendnp38OContext14GetResponseIINEv, %function
_ZN8opendnp38OContext14GetResponseIINEv:
	.fnstart
.LFB2799:
	@ args = 0, pretend = 0, frame = 16
	@ frame_needed = 0, uses_anonymous_args = 0
	push	{r4, r5, r6, r7, r8, lr}
	.save {r4, r5, r6, r7, r8, lr}
	.pad #16
	sub	sp, sp, #16
	mov	r8, r0
	bl	_ZN8opendnp38OContext13GetDynamicIINEv(PLT)
	ldr	r1, [r8, #44]
	ldr	r3, .L599
	ldr	r2, .L599+4
	ldr	lr, [r1]
.LPIC32:
	add	r3, pc, r3
	ldrb	r7, [r8, #490]	@ zero_extendqisi2
	ldrb	r5, [r8, #491]	@ zero_extendqisi2
	strh	r0, [sp]	@ movhi
	ldr	ip, [r3, r2]
	ldr	r2, [lr, #40]
	uxth	r6, r0
	cmp	r2, ip
	lsr	r6, r6, #8
	uxtb	r4, r0
	bne	.L596
	add	r8, sp, #12
	mov	r0, r8
	bl	_ZN8opendnp314ApplicationIINC1Ev(PLT)
.L597:
	mov	r0, r8
	bl	_ZNK8opendnp314ApplicationIIN5ToIINEv(PLT)
	uxth	r3, r0
	uxtb	r0, r0
	orr	r6, r6, r3, lsr #8
	orr	r5, r5, r6
	orr	r0, r4, r0
	uxtb	r5, r5
	orr	r0, r7, r0
	orr	r0, r0, r5, lsl #8
	add	sp, sp, #16
	@ sp needed
	pop	{r4, r5, r6, r7, r8, pc}
.L596:
	mov	r0, r1
	blx	r2
	add	r8, sp, #16
	str	r0, [r8, #-4]!
	b	.L597
.L600:
	.align	2
.L599:
	.word	_GLOBAL_OFFSET_TABLE_-(.LPIC32+8)
	.word	_ZNK8opendnp322IOutstationApplication17GetApplicationIINEv(GOT)
	.fnend
	.size	_ZN8opendnp38OContext14GetResponseIINEv, .-_ZN8opendnp38OContext14GetResponseIINEv
	.align	2
	.global	_ZN8opendnp38OContext19CheckForUnsolicitedEv
	.syntax unified
	.arm
	.fpu vfp
	.type	_ZN8opendnp38OContext19CheckForUnsolicitedEv, %function
_ZN8opendnp38OContext19CheckForUnsolicitedEv:
	.fnstart
.LFB2792:
	@ args = 0, pretend = 0, frame = 56
	@ frame_needed = 0, uses_anonymous_args = 0
	push	{r4, r5, r6, r7, r8, r9, lr}
	.save {r4, r5, r6, r7, r8, r9, lr}
	.pad #60
	sub	sp, sp, #60
	mov	r4, r0
	bl	_ZNK8opendnp38OContext11CanTransmitEv(PLT)
	ldr	r5, .L620
.LPIC33:
	add	r5, pc, r5
	cmp	r0, #0
	bne	.L618
.L601:
	add	sp, sp, #60
	@ sp needed
	pop	{r4, r5, r6, r7, r8, r9, pc}
.L618:
	ldr	r3, [r4, #632]
	mov	r0, r3
	ldr	r3, [r3]
	ldr	r3, [r3]
	blx	r3
	cmp	r0, #0
	beq	.L601
	ldrb	r3, [r4, #480]	@ zero_extendqisi2
	cmp	r3, #0
	beq	.L601
	ldrb	r3, [r4, #600]	@ zero_extendqisi2
	cmp	r3, #0
	beq	.L619
	add	r7, r4, #52
	mov	r0, r7
	bl	_ZNK8opendnp311EventBuffer19UnwrittenClassFieldEv(PLT)
	add	r6, sp, #56
	add	r8, r4, #484
	strb	r0, [r6, #-20]!
	mov	r0, r8
	mov	r1, r6
	bl	_ZNK8opendnp310ClassField10IntersectsERKS0_(PLT)
	cmp	r0, #0
	beq	.L601
	add	r9, sp, #20
	mov	r0, r9
	add	r1, r4, #620
	bl	_ZN7openpal6Buffer9GetWSliceEv(PLT)
	mov	r1, r9
	mov	r0, r6
	bl	_ZN8opendnp312APDUResponseC1ERKN7openpal6WSliceE(PLT)
	mov	r1, r6
	mov	r0, r9
	bl	_ZN8opendnp311APDUWrapper9GetWriterEv(PLT)
	mov	r0, r7
	bl	_ZN8opendnp311EventBuffer8UnselectEv(PLT)
	mov	r1, r8
	mov	r0, r7
	bl	_ZN8opendnp311EventBuffer16SelectAllByClassERKNS_10ClassFieldE(PLT)
	mov	r1, r9
	mov	r0, r7
	bl	_ZN8opendnp311EventBuffer4LoadERNS_12HeaderWriterE(PLT)
	mov	r0, r4
	ldrb	r8, [r4, #601]	@ zero_extendqisi2
	bl	_ZN8opendnp38OContext14GetResponseIINEv(PLT)
	add	r7, sp, #56
	mov	r1, r8
	add	r8, sp, #4
	strh	r0, [r7, #-44]!	@ movhi
	mov	r0, r6
	mov	r2, r7
	bl	_ZN8opendnp35build15NullUnsolicitedERNS_12APDUResponseEhRKNS_8IINFieldE(PLT)
	mov	r0, r4
	bl	_ZN8opendnp38OContext19RestartConfirmTimerEv(PLT)
	ldr	r3, .L620+4
	mov	r0, r8
	mov	r1, r6
.L616:
	ldr	r3, [r5, r3]
	str	r3, [r4, #632]
	bl	_ZNK8opendnp311APDUWrapper10GetControlEv(PLT)
	mov	r1, r6
	mov	r0, r7
	bl	_ZNK8opendnp311APDUWrapper8ToRSliceEv(PLT)
	mov	r2, r7
	mov	r1, r8
	mov	r0, r4
	bl	_ZN8opendnp38OContext12BeginUnsolTxERKNS_15AppControlFieldERKN7openpal6RSliceE(PLT)
	add	sp, sp, #60
	@ sp needed
	pop	{r4, r5, r6, r7, r8, r9, pc}
.L619:
	add	r7, sp, #20
	add	r6, sp, #36
	mov	r0, r7
	add	r1, r4, #620
	bl	_ZN7openpal6Buffer9GetWSliceEv(PLT)
	mov	r1, r7
	mov	r0, r6
	bl	_ZN8opendnp312APDUResponseC1ERKN7openpal6WSliceE(PLT)
	mov	r0, r4
	ldrb	r8, [r4, #601]	@ zero_extendqisi2
	bl	_ZN8opendnp38OContext14GetResponseIINEv(PLT)
	mov	r2, r7
	mov	r1, r8
	add	r8, sp, #12
	strh	r0, [sp, #20]	@ movhi
	mov	r0, r6
	bl	_ZN8opendnp35build15NullUnsolicitedERNS_12APDUResponseEhRKNS_8IINFieldE(PLT)
	mov	r0, r4
	bl	_ZN8opendnp38OContext19RestartConfirmTimerEv(PLT)
	ldr	r3, .L620+4
	mov	r1, r6
	mov	r0, r8
	b	.L616
.L621:
	.align	2
.L620:
	.word	_GLOBAL_OFFSET_TABLE_-(.LPIC33+8)
	.word	_ZN8opendnp327StateUnsolicitedConfirmWait8instanceE(GOT)
	.fnend
	.size	_ZN8opendnp38OContext19CheckForUnsolicitedEv, .-_ZN8opendnp38OContext19CheckForUnsolicitedEv
	.align	2
	.global	_ZN8opendnp38OContext25ContinueMultiFragResponseERKN7openpal11SequenceNumIhLh16EEE
	.syntax unified
	.arm
	.fpu vfp
	.type	_ZN8opendnp38OContext25ContinueMultiFragResponseERKN7openpal11SequenceNumIhLh16EEE, %function
_ZN8opendnp38OContext25ContinueMultiFragResponseERKN7openpal11SequenceNumIhLh16EEE:
	.fnstart
.LFB2797:
	@ args = 0, pretend = 0, frame = 64
	@ frame_needed = 0, uses_anonymous_args = 0
	push	{r4, r5, r6, r7, r8, lr}
	.save {r4, r5, r6, r7, r8, lr}
	.pad #64
	sub	sp, sp, #64
	mov	r6, r0
	add	r5, sp, #28
	add	r4, sp, #44
	mov	r7, r1
	mov	r0, r5
	add	r1, r6, #588
	bl	_ZN7openpal6Buffer9GetWSliceEv(PLT)
	mov	r1, r5
	mov	r0, r4
	bl	_ZN8opendnp312APDUResponseC1ERKN7openpal6WSliceE(PLT)
	mov	r0, r5
	mov	r1, r4
	bl	_ZN8opendnp311APDUWrapper9GetWriterEv(PLT)
	mov	r0, r4
	mov	r1, #129
	bl	_ZN8opendnp311APDUWrapper11SetFunctionENS_12FunctionCodeE(PLT)
	mov	r2, r5
	add	r5, sp, #4
	mov	r0, r5
	add	r1, r6, #420
	bl	_ZN8opendnp315ResponseContext12LoadResponseERNS_12HeaderWriterE(PLT)
	ldrb	r3, [r7]	@ zero_extendqisi2
	mov	r0, r4
	add	r7, sp, #12
	strb	r3, [sp, #8]
	strb	r3, [r6, #569]
	ldm	r5, {r1, r2}
	bl	_ZN8opendnp311APDUWrapper10SetControlENS_15AppControlFieldE(PLT)
	mov	r0, r6
	bl	_ZN8opendnp38OContext14GetResponseIINEv(PLT)
	add	r5, sp, #64
	ldr	r8, .L627
.LPIC34:
	add	r8, pc, r8
	strh	r0, [r5, #-44]!	@ movhi
	mov	r0, r4
	mov	r1, r5
	bl	_ZN8opendnp312APDUResponse6SetIINERKNS_8IINFieldE(PLT)
	mov	r1, r4
	mov	r0, r7
	bl	_ZNK8opendnp311APDUWrapper10GetControlEv(PLT)
	mov	r1, r4
	mov	r0, r5
	bl	_ZNK8opendnp311APDUWrapper8ToRSliceEv(PLT)
	mov	r2, r5
	mov	r1, r7
	mov	r0, r6
	bl	_ZN8opendnp38OContext15BeginResponseTxERKNS_15AppControlFieldERKN7openpal6RSliceE(PLT)
	ldrb	r3, [sp, #6]	@ zero_extendqisi2
	cmp	r3, #0
	bne	.L626
	ldr	r3, .L627+4
	ldr	r0, [r8, r3]
	add	sp, sp, #64
	@ sp needed
	pop	{r4, r5, r6, r7, r8, pc}
.L626:
	mov	r0, r6
	bl	_ZN8opendnp38OContext19RestartConfirmTimerEv(PLT)
	ldr	r3, .L627+8
	ldr	r0, [r8, r3]
	add	sp, sp, #64
	@ sp needed
	pop	{r4, r5, r6, r7, r8, pc}
.L628:
	.align	2
.L627:
	.word	_GLOBAL_OFFSET_TABLE_-(.LPIC34+8)
	.word	_ZN8opendnp39StateIdle8instanceE(GOT)
	.word	_ZN8opendnp325StateSolicitedConfirmWait8instanceE(GOT)
	.fnend
	.size	_ZN8opendnp38OContext25ContinueMultiFragResponseERKN7openpal11SequenceNumIhLh16EEE, .-_ZN8opendnp38OContext25ContinueMultiFragResponseERKN7openpal11SequenceNumIhLh16EEE
	.align	2
	.global	_ZN8opendnp38OContext17CheckForTaskStartEv
	.syntax unified
	.arm
	.fpu vfp
	.type	_ZN8opendnp38OContext17CheckForTaskStartEv, %function
_ZN8opendnp38OContext17CheckForTaskStartEv:
	.fnstart
.LFB2802:
	@ args = 0, pretend = 0, frame = 0
	@ frame_needed = 0, uses_anonymous_args = 0
	push	{r4, lr}
	.save {r4, lr}
	mov	r4, r0
	bl	_ZN8opendnp38OContext23CheckForDeferredRequestEv(PLT)
	mov	r0, r4
	pop	{r4, lr}
	b	_ZN8opendnp38OContext19CheckForUnsolicitedEv(PLT)
	.fnend
	.size	_ZN8opendnp38OContext17CheckForTaskStartEv, .-_ZN8opendnp38OContext17CheckForTaskStartEv
	.align	2
	.global	_ZN8opendnp38OContext14OnLowerLayerUpEv
	.syntax unified
	.arm
	.fpu vfp
	.type	_ZN8opendnp38OContext14OnLowerLayerUpEv, %function
_ZN8opendnp38OContext14OnLowerLayerUpEv:
	.fnstart
.LFB2777:
	@ args = 0, pretend = 0, frame = 8
	@ frame_needed = 0, uses_anonymous_args = 0
	ldrb	r2, [r0, #488]	@ zero_extendqisi2
	push	{r4, r5, r6, lr}
	.save {r4, r5, r6, lr}
	.pad #8
	sub	sp, sp, #8
	cmp	r2, #0
	beq	.L632
	add	r5, sp, #8
	add	r4, r0, #4
	mov	r6, #2
	str	r6, [r5, #-4]!
	mov	r0, r4
	mov	r1, r5
	bl	_ZNK7openpal6Logger9IsEnabledERKNS_10LogFiltersE(PLT)
	cmp	r0, #0
	bne	.L638
	add	sp, sp, #8
	@ sp needed
	pop	{r4, r5, r6, pc}
.L632:
	mov	r4, #1
	strb	r4, [r0, #488]
	bl	_ZN8opendnp38OContext17CheckForTaskStartEv(PLT)
	mov	r0, r4
	add	sp, sp, #8
	@ sp needed
	pop	{r4, r5, r6, pc}
.L638:
	ldr	r3, .L639
	ldr	r2, .L639+4
	mov	r0, r4
	mov	r1, r5
.LPIC35:
	add	r3, pc, r3
.LPIC36:
	add	r2, pc, r2
	str	r6, [sp, #4]
	bl	_ZN7openpal6Logger3LogERKNS_10LogFiltersEPKcS5_(PLT)
	mov	r0, #0
	add	sp, sp, #8
	@ sp needed
	pop	{r4, r5, r6, pc}
.L640:
	.align	2
.L639:
	.word	.LC4-(.LPIC35+8)
	.word	.LC5-(.LPIC36+8)
	.fnend
	.size	_ZN8opendnp38OContext14OnLowerLayerUpEv, .-_ZN8opendnp38OContext14OnLowerLayerUpEv
	.align	2
	.global	_ZN8opendnp38OContext12OnSendResultEb
	.syntax unified
	.arm
	.fpu vfp
	.type	_ZN8opendnp38OContext12OnSendResultEb, %function
_ZN8opendnp38OContext12OnSendResultEb:
	.fnstart
.LFB2779:
	@ args = 0, pretend = 0, frame = 0
	@ frame_needed = 0, uses_anonymous_args = 0
	push	{r4, lr}
	.save {r4, lr}
	ldrb	r4, [r0, #488]	@ zero_extendqisi2
	cmp	r4, #0
	beq	.L642
	ldrb	r4, [r0, #489]	@ zero_extendqisi2
	cmp	r4, #0
	bne	.L650
.L642:
	mov	r0, r4
	pop	{r4, pc}
.L650:
	mov	r2, #0
	strb	r2, [r0, #489]
	bl	_ZN8opendnp38OContext17CheckForTaskStartEv(PLT)
	mov	r0, r4
	pop	{r4, pc}
	.fnend
	.size	_ZN8opendnp38OContext12OnSendResultEb, .-_ZN8opendnp38OContext12OnSendResultEb
	.align	2
	.syntax unified
	.arm
	.fpu vfp
	.type	_ZNSt17_Function_handlerIFvvEZN7openpal8TimerRef7RestartIZN8opendnp38OContext19RestartConfirmTimerEvEUlvE_EEvRKNS1_12TimeDurationERKT_EUlvE_E9_M_invokeERKSt9_Any_data, %function
_ZNSt17_Function_handlerIFvvEZN7openpal8TimerRef7RestartIZN8opendnp38OContext19RestartConfirmTimerEvEUlvE_EEvRKNS1_12TimeDurationERKT_EUlvE_E9_M_invokeERKSt9_Any_data:
	.fnstart
.LFB3328:
	@ args = 0, pretend = 0, frame = 0
	@ frame_needed = 0, uses_anonymous_args = 0
	push	{r4, r5, r6, lr}
	.save {r4, r5, r6, lr}
	mov	r4, r0
	mov	r0, #0
	ldm	r4, {r2, r5}
	ldr	r3, [r5, #632]
	str	r0, [r2, #4]
	mov	r0, r3
	ldr	r3, [r3]
	mov	r1, r5
	ldr	r3, [r3, #12]
	blx	r3
	str	r0, [r5, #632]
	ldr	r0, [r4, #4]
	pop	{r4, r5, r6, lr}
	b	_ZN8opendnp38OContext17CheckForTaskStartEv(PLT)
	.fnend
	.size	_ZNSt17_Function_handlerIFvvEZN7openpal8TimerRef7RestartIZN8opendnp38OContext19RestartConfirmTimerEvEUlvE_EEvRKNS1_12TimeDurationERKT_EUlvE_E9_M_invokeERKSt9_Any_data, .-_ZNSt17_Function_handlerIFvvEZN7openpal8TimerRef7RestartIZN8opendnp38OContext19RestartConfirmTimerEvEUlvE_EEvRKNS1_12TimeDurationERKT_EUlvE_E9_M_invokeERKSt9_Any_data
	.align	2
	.global	_ZN8opendnp38OContext13SetRestartIINEv
	.syntax unified
	.arm
	.fpu vfp
	.type	_ZN8opendnp38OContext13SetRestartIINEv, %function
_ZN8opendnp38OContext13SetRestartIINEv:
	.fnstart
.LFB2803:
	@ args = 0, pretend = 0, frame = 0
	@ frame_needed = 0, uses_anonymous_args = 0
	@ link register save eliminated.
	add	r0, r0, #488
	add	r0, r0, #2
	mov	r1, #7
	b	_ZN8opendnp38IINField6SetBitENS_6IINBitE(PLT)
	.cantunwind
	.fnend
	.size	_ZN8opendnp38OContext13SetRestartIINEv, .-_ZN8opendnp38OContext13SetRestartIINEv
	.align	2
	.global	_ZN8opendnp38OContext16GetUpdateHandlerEv
	.syntax unified
	.arm
	.fpu vfp
	.type	_ZN8opendnp38OContext16GetUpdateHandlerEv, %function
_ZN8opendnp38OContext16GetUpdateHandlerEv:
	.fnstart
.LFB2804:
	@ args = 0, pretend = 0, frame = 0
	@ frame_needed = 0, uses_anonymous_args = 0
	@ link register save eliminated.
	add	r0, r0, #260
	bx	lr
	.cantunwind
	.fnend
	.size	_ZN8opendnp38OContext16GetUpdateHandlerEv, .-_ZN8opendnp38OContext16GetUpdateHandlerEv
	.align	2
	.global	_ZN8opendnp38OContext13GetConfigViewEv
	.syntax unified
	.arm
	.fpu vfp
	.type	_ZN8opendnp38OContext13GetConfigViewEv, %function
_ZN8opendnp38OContext13GetConfigViewEv:
	.fnstart
.LFB2805:
	@ args = 0, pretend = 0, frame = 0
	@ frame_needed = 0, uses_anonymous_args = 0
	push	{r4, lr}
	.save {r4, lr}
	add	r1, r1, #284
	mov	r4, r0
	bl	_ZNK8opendnp313StaticBuffers7GetViewEv(PLT)
	mov	r0, r4
	pop	{r4, pc}
	.fnend
	.size	_ZN8opendnp38OContext13GetConfigViewEv, .-_ZN8opendnp38OContext13GetConfigViewEv
	.align	2
	.global	_ZN8opendnp38OContext10HandleReadERKN7openpal6RSliceERNS_12HeaderWriterE
	.syntax unified
	.arm
	.fpu vfp
	.type	_ZN8opendnp38OContext10HandleReadERKN7openpal6RSliceERNS_12HeaderWriterE, %function
_ZN8opendnp38OContext10HandleReadERKN7openpal6RSliceERNS_12HeaderWriterE:
	.fnstart
.LFB2808:
	@ args = 0, pretend = 0, frame = 48
	@ frame_needed = 0, uses_anonymous_args = 0
	push	{r4, r5, r6, r7, r8, r9, r10, fp, lr}
	.save {r4, r5, r6, r7, r8, r9, r10, fp, lr}
	add	r8, r1, #420
	.pad #60
	sub	sp, sp, #60
	mov	r4, r1
	mov	r5, r0
	mov	r0, r8
	mov	r10, r2
	mov	fp, r3
	add	r9, r1, #272
	bl	_ZN8opendnp315ResponseContext5ResetEv(PLT)
	add	r0, r4, #52
	bl	_ZN8opendnp311EventBuffer8UnselectEv(PLT)
	add	r7, sp, #32
	mov	r0, r9
	bl	_ZN8opendnp315DatabaseBuffers8UnselectEv(PLT)
	mov	r6, #0
	add	r2, r4, #56
	mov	r1, r9
	mov	r0, r7
	bl	_ZN8opendnp311ReadHandlerC1ERNS_15IStaticSelectorERNS_14IEventSelectorE(PLT)
	strb	r6, [sp, #24]
	mov	ip, #8192
	add	r2, r4, #4
	mov	r0, r10
	ldr	r3, [sp, #24]
	mov	r1, r7
	str	ip, [sp]
	bl	_ZN8opendnp310APDUParser5ParseERKN7openpal6RSliceERNS_12IAPDUHandlerEPNS1_6LoggerENS_14ParserSettingsE(PLT)
	subs	r4, r0, #0
	beq	.L661
	mov	r0, r8
	bl	_ZN8opendnp315ResponseContext5ResetEv(PLT)
	mov	r0, r4
	bl	_ZN8opendnp318IINFromParseResultENS_11ParseResultE(PLT)
	add	r4, sp, #16
	mov	r2, #1
	mov	r3, r6
	mov	r1, r2
	str	r6, [sp, #4]
	str	r6, [sp]
	strh	r0, [sp, #12]	@ movhi
	mov	r0, r4
	bl	_ZN8opendnp315AppControlFieldC1Ebbbbh(PLT)
	ldrb	r2, [r4, #4]	@ zero_extendqisi2
	ldrh	r1, [sp, #12]	@ unaligned
	mov	r3, r5
	ldr	r0, [sp, #16]
	strh	r1, [r3], #2	@ unaligned
	str	r0, [r5, #2]	@ unaligned
	strb	r2, [r3, #4]
	mov	r0, r5
	add	sp, sp, #60
	@ sp needed
	pop	{r4, r5, r6, r7, r8, r9, r10, fp, pc}
.L661:
	add	r4, sp, #16
	mov	r2, fp
	mov	r1, r8
	mov	r0, r4
	bl	_ZN8opendnp315ResponseContext12LoadResponseERNS_12HeaderWriterE(PLT)
	mov	r0, r7
	bl	_ZNK8opendnp312IAPDUHandler6ErrorsEv(PLT)
	add	r2, sp, #56
	ldrb	r1, [r4, #4]	@ zero_extendqisi2
	mov	r3, r5
	strh	r0, [r2, #-44]!	@ movhi
	ldrh	r2, [r2]	@ unaligned
	ldr	r0, [sp, #16]
	strh	r2, [r3], #2	@ unaligned
	str	r0, [r5, #2]	@ unaligned
	strb	r1, [r3, #4]
	mov	r0, r5
	add	sp, sp, #60
	@ sp needed
	pop	{r4, r5, r6, r7, r8, r9, r10, fp, pc}
	.fnend
	.size	_ZN8opendnp38OContext10HandleReadERKN7openpal6RSliceERNS_12HeaderWriterE, .-_ZN8opendnp38OContext10HandleReadERKN7openpal6RSliceERNS_12HeaderWriterE
	.align	2
	.global	_ZN8opendnp38OContext20RespondToReadRequestERKNS_10APDUHeaderERKN7openpal6RSliceE
	.syntax unified
	.arm
	.fpu vfp
	.type	_ZN8opendnp38OContext20RespondToReadRequestERKNS_10APDUHeaderERKN7openpal6RSliceE, %function
_ZN8opendnp38OContext20RespondToReadRequestERKNS_10APDUHeaderERKN7openpal6RSliceE:
	.fnstart
.LFB2796:
	@ args = 0, pretend = 0, frame = 64
	@ frame_needed = 0, uses_anonymous_args = 0
	push	{r4, r5, r6, r7, r8, lr}
	.save {r4, r5, r6, r7, r8, lr}
	.pad #64
	sub	sp, sp, #64
	mov	r5, r0
	add	r6, sp, #28
	add	r0, r0, #500
	add	r4, sp, #44
	mov	r8, r2
	mov	r7, r1
	bl	_ZN8opendnp314RequestHistory26RecordLastProcessedRequestERKNS_10APDUHeaderERKN7openpal6RSliceE(PLT)
	mov	r0, r6
	add	r1, r5, #588
	bl	_ZN7openpal6Buffer9GetWSliceEv(PLT)
	mov	r1, r6
	mov	r0, r4
	bl	_ZN8opendnp312APDUResponseC1ERKN7openpal6WSliceE(PLT)
	mov	r1, r4
	mov	r0, r6
	bl	_ZN8opendnp311APDUWrapper9GetWriterEv(PLT)
	mov	r0, r4
	mov	r1, #129
	bl	_ZN8opendnp311APDUWrapper11SetFunctionENS_12FunctionCodeE(PLT)
	mov	r3, r6
	mov	r2, r8
	mov	r1, r5
	add	r0, sp, #12
	bl	_ZN8opendnp38OContext10HandleReadERKN7openpal6RSliceERNS_12HeaderWriterE(PLT)
	ldrh	r1, [sp, #16]
	ldrb	r2, [r7, #5]	@ zero_extendqisi2
	ldrh	r3, [sp, #14]
	mov	r0, r4
	strb	r2, [r5, #569]
	orr	r1, r3, r1, lsl #16
	bl	_ZN8opendnp311APDUWrapper10SetControlENS_15AppControlFieldE(PLT)
	mov	r0, r5
	bl	_ZN8opendnp38OContext14GetResponseIINEv(PLT)
	ldrb	r2, [sp, #13]	@ zero_extendqisi2
	ldrb	r3, [sp, #12]	@ zero_extendqisi2
	add	r6, sp, #20
	add	r7, sp, #4
	uxth	r1, r0
	mov	ip, r0	@ movhi
	orr	r2, r2, r1, lsr #8
	orr	r3, r3, ip
	mov	r0, r4
	mov	r1, r6
	strb	r3, [sp, #20]
	strh	ip, [sp, #4]	@ movhi
	strb	r2, [sp, #21]
	bl	_ZN8opendnp312APDUResponse6SetIINERKNS_8IINFieldE(PLT)
	mov	r1, r4
	mov	r0, r7
	bl	_ZNK8opendnp311APDUWrapper10GetControlEv(PLT)
	mov	r1, r4
	mov	r0, r6
	bl	_ZNK8opendnp311APDUWrapper8ToRSliceEv(PLT)
	mov	r2, r6
	mov	r1, r7
	mov	r0, r5
	bl	_ZN8opendnp38OContext15BeginResponseTxERKNS_15AppControlFieldERKN7openpal6RSliceE(PLT)
	ldrb	r3, [sp, #16]	@ zero_extendqisi2
	ldr	r4, .L667
	cmp	r3, #0
.LPIC37:
	add	r4, pc, r4
	bne	.L666
	ldr	r3, .L667+4
	ldr	r0, [r4, r3]
	add	sp, sp, #64
	@ sp needed
	pop	{r4, r5, r6, r7, r8, pc}
.L666:
	mov	r0, r5
	bl	_ZN8opendnp38OContext19RestartConfirmTimerEv(PLT)
	ldr	r3, .L667+8
	ldr	r0, [r4, r3]
	add	sp, sp, #64
	@ sp needed
	pop	{r4, r5, r6, r7, r8, pc}
.L668:
	.align	2
.L667:
	.word	_GLOBAL_OFFSET_TABLE_-(.LPIC37+8)
	.word	_ZN8opendnp39StateIdle8instanceE(GOT)
	.word	_ZN8opendnp325StateSolicitedConfirmWait8instanceE(GOT)
	.fnend
	.size	_ZN8opendnp38OContext20RespondToReadRequestERKNS_10APDUHeaderERKN7openpal6RSliceE, .-_ZN8opendnp38OContext20RespondToReadRequestERKNS_10APDUHeaderERKN7openpal6RSliceE
	.align	2
	.global	_ZN8opendnp38OContext11HandleWriteERKN7openpal6RSliceE
	.syntax unified
	.arm
	.fpu vfp
	.type	_ZN8opendnp38OContext11HandleWriteERKN7openpal6RSliceE, %function
_ZN8opendnp38OContext11HandleWriteERKN7openpal6RSliceE:
	.fnstart
.LFB2809:
	@ args = 0, pretend = 0, frame = 40
	@ frame_needed = 0, uses_anonymous_args = 0
	push	{r4, r5, r6, lr}
	.save {r4, r5, r6, lr}
	.pad #48
	sub	sp, sp, #48
	add	r2, r0, #488
	add	r5, sp, #20
	mov	r4, r0
	mov	r6, r1
	add	r2, r2, #2
	ldr	r1, [r0, #44]
	mov	r0, r5
	bl	_ZN8opendnp312WriteHandlerC1ERNS_22IOutstationApplicationEPNS_8IINFieldE(PLT)
	mov	r3, #1
	strb	r3, [sp, #12]
	mov	ip, #8192
	add	r2, r4, #4
	mov	r0, r6
	ldr	r3, [sp, #12]
	mov	r1, r5
	str	ip, [sp]
	bl	_ZN8opendnp310APDUParser5ParseERKN7openpal6RSliceERNS_12IAPDUHandlerEPNS1_6LoggerENS_14ParserSettingsE(PLT)
	cmp	r0, #0
	beq	.L673
	bl	_ZN8opendnp318IINFromParseResultENS_11ParseResultE(PLT)
	strh	r0, [sp, #8]	@ movhi
.L671:
	ldrb	r0, [sp, #9]	@ zero_extendqisi2
	ldrb	r3, [sp, #8]	@ zero_extendqisi2
	orr	r0, r3, r0, lsl #8
	add	sp, sp, #48
	@ sp needed
	pop	{r4, r5, r6, pc}
.L673:
	mov	r0, r5
	bl	_ZNK8opendnp312IAPDUHandler6ErrorsEv(PLT)
	strh	r0, [sp, #8]	@ movhi
	b	.L671
	.fnend
	.size	_ZN8opendnp38OContext11HandleWriteERKN7openpal6RSliceE, .-_ZN8opendnp38OContext11HandleWriteERKN7openpal6RSliceE
	.align	2
	.global	_ZN8opendnp38OContext18HandleDelayMeasureERKN7openpal6RSliceERNS_12HeaderWriterE
	.syntax unified
	.arm
	.fpu vfp
	.type	_ZN8opendnp38OContext18HandleDelayMeasureERKN7openpal6RSliceERNS_12HeaderWriterE, %function
_ZN8opendnp38OContext18HandleDelayMeasureERKN7openpal6RSliceERNS_12HeaderWriterE:
	.fnstart
.LFB2813:
	@ args = 0, pretend = 0, frame = 8
	@ frame_needed = 0, uses_anonymous_args = 0
	push	{r4, r5, r6, lr}
	.save {r4, r5, r6, lr}
	.pad #8
	sub	sp, sp, #8
	ldr	r4, [r1]
	cmp	r4, #0
	beq	.L682
	mov	r3, #0
	mov	r1, #10
	add	r0, sp, #4
	strb	r3, [sp, #4]
	strb	r3, [sp, #5]
	bl	_ZN8opendnp38IINField6SetBitENS_6IINBitE(PLT)
	ldrh	r3, [sp, #4]
	strh	r3, [sp]	@ movhi
.L677:
	ldrb	r0, [sp, #1]	@ zero_extendqisi2
	ldrb	r3, [sp]	@ zero_extendqisi2
	orr	r0, r3, r0, lsl #8
	add	sp, sp, #8
	@ sp needed
	pop	{r4, r5, r6, pc}
.L682:
	mov	r0, sp
	mov	r5, r2
	bl	_ZN8opendnp311Group52Var2C1Ev(PLT)
	mov	r2, #52
	mov	r3, #2
	strb	r2, [sp, #4]
	strb	r3, [sp, #5]
	ldr	r1, [sp, #4]
	mov	r3, #3
	mov	r2, #7
	mov	r0, r5
	strh	r4, [sp]	@ movhi
	bl	_ZN8opendnp312HeaderWriter22WriteHeaderWithReserveENS_16GroupVariationIDENS_13QualifierCodeEj(PLT)
	cmp	r0, #0
	beq	.L676
	ldr	r2, [r5]
	mov	r3, #1
	mov	r0, r2
	ldr	r2, [r2, #4]
	mov	r1, r3
	strb	r3, [r2]
	bl	_ZN7openpal6WSlice7AdvanceEj(PLT)
	ldr	r1, [r5]
	mov	r0, sp
	bl	_ZN8opendnp311Group52Var25WriteERKS0_RN7openpal6WSliceE(PLT)
.L676:
	mov	r3, #0
	strb	r3, [sp]
	strb	r3, [sp, #1]
	b	.L677
	.fnend
	.size	_ZN8opendnp38OContext18HandleDelayMeasureERKN7openpal6RSliceERNS_12HeaderWriterE, .-_ZN8opendnp38OContext18HandleDelayMeasureERKN7openpal6RSliceERNS_12HeaderWriterE
	.align	2
	.global	_ZN8opendnp38OContext13HandleRestartERKN7openpal6RSliceEbPNS_12HeaderWriterE
	.syntax unified
	.arm
	.fpu vfp
	.type	_ZN8opendnp38OContext13HandleRestartERKN7openpal6RSliceEbPNS_12HeaderWriterE, %function
_ZN8opendnp38OContext13HandleRestartERKN7openpal6RSliceEbPNS_12HeaderWriterE:
	.fnstart
.LFB2814:
	@ args = 0, pretend = 0, frame = 16
	@ frame_needed = 0, uses_anonymous_args = 0
	ldr	r1, [r1]
	push	{r4, r5, r6, r7, lr}
	.save {r4, r5, r6, r7, lr}
	cmp	r1, #0
	ldr	r4, .L730
	.pad #20
	sub	sp, sp, #20
.LPIC38:
	add	r4, pc, r4
	bne	.L684
	cmp	r2, #0
	mov	r5, r0
	mov	r6, r3
	ldr	r0, [r0, #44]
	bne	.L726
	ldr	r3, .L730+4
	ldr	r1, [r0]
	ldr	r2, [r4, r3]
	ldr	r3, [r1, #44]
	cmp	r3, r2
	bne	.L727
.L686:
	mov	r3, #0
	mov	r1, #8
.L723:
	add	r0, sp, #12
	strb	r3, [sp, #12]
	strb	r3, [sp, #13]
	bl	_ZN8opendnp38IINField6SetBitENS_6IINBitE(PLT)
	ldrh	r3, [sp, #12]
	strh	r3, [sp, #4]	@ movhi
.L691:
	ldrb	r0, [sp, #5]	@ zero_extendqisi2
	ldrb	r3, [sp, #4]	@ zero_extendqisi2
	orr	r0, r3, r0, lsl #8
	add	sp, sp, #20
	@ sp needed
	pop	{r4, r5, r6, r7, pc}
.L726:
	ldr	r3, .L730+8
	ldr	r1, [r0]
	ldr	r2, [r4, r3]
	ldr	r3, [r1, #48]
	cmp	r3, r2
	beq	.L686
	blx	r3
	cmp	r0, #0
	beq	.L686
	cmp	r0, #2
	bne	.L728
	ldr	r0, [r5, #44]
	ldr	r3, .L730+12
	ldr	r1, [r0]
	ldr	r2, [r4, r3]
	ldr	r3, [r1, #56]
	cmp	r3, r2
	bne	.L721
.L694:
	ldr	r7, .L730+16
.L693:
	cmp	r6, #0
	beq	.L696
	add	r5, sp, #12
	mov	r0, r5
	bl	_ZN8opendnp311Group52Var1C1Ev(PLT)
	mov	r4, #1
	mov	r3, #52
	strb	r3, [sp, #8]
	strb	r4, [sp, #9]
	ldr	r1, [sp, #8]
	mov	r3, #3
	mov	r2, #7
	mov	r0, r6
	strh	r7, [sp, #12]	@ movhi
	bl	_ZN8opendnp312HeaderWriter22WriteHeaderWithReserveENS_16GroupVariationIDENS_13QualifierCodeEj(PLT)
	cmp	r0, #0
	beq	.L696
	ldr	r3, [r6]
	mov	r1, r4
	mov	r0, r3
	ldr	r3, [r3, #4]
	strb	r4, [r3]
	bl	_ZN7openpal6WSlice7AdvanceEj(PLT)
	ldr	r1, [r6]
	mov	r0, r5
	bl	_ZN8opendnp311Group52Var15WriteERKS0_RN7openpal6WSliceE(PLT)
.L696:
	mov	r3, #0
	strb	r3, [sp, #4]
	strb	r3, [sp, #5]
	b	.L691
.L684:
	mov	r3, #0
	mov	r1, #10
	b	.L723
.L728:
	ldr	r0, [r5, #44]
	ldr	r3, .L730+12
	ldr	r1, [r0]
	ldr	r2, [r4, r3]
	ldr	r3, [r1, #56]
	cmp	r3, r2
	bne	.L722
.L700:
	ldr	r5, .L730+16
.L699:
	cmp	r6, #0
	beq	.L696
	add	r4, sp, #8
	mov	r0, r4
	bl	_ZN8opendnp311Group52Var2C1Ev(PLT)
	mov	r2, #52
	mov	r3, #2
	strb	r2, [sp, #12]
	strb	r3, [sp, #13]
	ldr	r1, [sp, #12]
	mov	r3, #3
	mov	r2, #7
	mov	r0, r6
	strh	r5, [sp, #8]	@ movhi
	bl	_ZN8opendnp312HeaderWriter22WriteHeaderWithReserveENS_16GroupVariationIDENS_13QualifierCodeEj(PLT)
	cmp	r0, #0
	beq	.L696
	ldr	r2, [r6]
	mov	r3, #1
	mov	r0, r2
	ldr	r2, [r2, #4]
	mov	r1, r3
	strb	r3, [r2]
	bl	_ZN7openpal6WSlice7AdvanceEj(PLT)
	ldr	r1, [r6]
	mov	r0, r4
	bl	_ZN8opendnp311Group52Var25WriteERKS0_RN7openpal6WSliceE(PLT)
	b	.L696
.L727:
	blx	r3
	cmp	r0, #0
	beq	.L686
	cmp	r0, #2
	beq	.L729
	ldr	r0, [r5, #44]
	ldr	r3, .L730+20
	ldr	r1, [r0]
	ldr	r2, [r4, r3]
	ldr	r3, [r1, #52]
	cmp	r3, r2
	beq	.L700
.L722:
	blx	r3
	mov	r5, r0
	b	.L699
.L729:
	ldr	r0, [r5, #44]
	ldr	r3, .L730+20
	ldr	r1, [r0]
	ldr	r2, [r4, r3]
	ldr	r3, [r1, #52]
	cmp	r3, r2
	beq	.L694
.L721:
	blx	r3
	mov	r7, r0
	b	.L693
.L731:
	.align	2
.L730:
	.word	_GLOBAL_OFFSET_TABLE_-(.LPIC38+8)
	.word	_ZNK8opendnp322IOutstationApplication18ColdRestartSupportEv(GOT)
	.word	_ZNK8opendnp322IOutstationApplication18WarmRestartSupportEv(GOT)
	.word	_ZN8opendnp322IOutstationApplication11WarmRestartEv(GOT)
	.word	65535
	.word	_ZN8opendnp322IOutstationApplication11ColdRestartEv(GOT)
	.fnend
	.size	_ZN8opendnp38OContext13HandleRestartERKN7openpal6RSliceEbPNS_12HeaderWriterE, .-_ZN8opendnp38OContext13HandleRestartERKN7openpal6RSliceEbPNS_12HeaderWriterE
	.align	2
	.global	_ZN8opendnp38OContext17HandleAssignClassERKN7openpal6RSliceE
	.syntax unified
	.arm
	.fpu vfp
	.type	_ZN8opendnp38OContext17HandleAssignClassERKN7openpal6RSliceE, %function
_ZN8opendnp38OContext17HandleAssignClassERKN7openpal6RSliceE:
	.fnstart
.LFB2815:
	@ args = 0, pretend = 0, frame = 48
	@ frame_needed = 0, uses_anonymous_args = 0
	push	{r4, r5, r6, lr}
	.save {r4, r5, r6, lr}
	mov	r4, r0
	ldr	r0, [r0, #44]
	ldr	r3, .L742
	ldr	r2, .L742+4
	mov	r5, r1
	ldr	r1, [r0]
.LPIC39:
	add	r3, pc, r3
	.pad #56
	sub	sp, sp, #56
	ldr	r2, [r3, r2]
	ldr	r3, [r1, #32]
	cmp	r3, r2
	bne	.L741
.L733:
	mov	r3, #0
	mov	r1, #8
	add	r0, sp, #12
	strb	r3, [sp, #12]
	strb	r3, [sp, #13]
	bl	_ZN8opendnp38IINField6SetBitENS_6IINBitE(PLT)
	ldrh	r3, [sp, #12]
	strh	r3, [sp, #20]	@ movhi
.L736:
	ldrb	r0, [sp, #21]	@ zero_extendqisi2
	ldrb	r3, [sp, #20]	@ zero_extendqisi2
	orr	r0, r3, r0, lsl #8
	add	sp, sp, #56
	@ sp needed
	pop	{r4, r5, r6, pc}
.L741:
	blx	r3
	cmp	r0, #0
	beq	.L733
	add	r6, sp, #20
	add	r3, r4, #280
	ldr	r2, [r4, #44]
	ldr	r1, [r4, #20]
	mov	r0, r6
	bl	_ZN8opendnp318AssignClassHandlerC1ERN7openpal9IExecutorERNS_22IOutstationApplicationERNS_14IClassAssignerE(PLT)
	mov	r3, #0
	mov	ip, #8192
	strb	r3, [sp, #12]
	add	r2, r4, #4
	mov	r0, r5
	ldr	r3, [sp, #12]
	mov	r1, r6
	str	ip, [sp]
	str	ip, [sp, #16]
	bl	_ZN8opendnp310APDUParser5ParseERKN7openpal6RSliceERNS_12IAPDUHandlerEPNS1_6LoggerENS_14ParserSettingsE(PLT)
	cmp	r0, #0
	bne	.L734
	mov	r0, r6
	bl	_ZNK8opendnp312IAPDUHandler6ErrorsEv(PLT)
	strh	r0, [sp, #8]	@ movhi
.L735:
	ldrh	r3, [sp, #8]
	strh	r3, [sp, #20]	@ movhi
	b	.L736
.L734:
	bl	_ZN8opendnp318IINFromParseResultENS_11ParseResultE(PLT)
	strh	r0, [sp, #8]	@ movhi
	b	.L735
.L743:
	.align	2
.L742:
	.word	_GLOBAL_OFFSET_TABLE_-(.LPIC39+8)
	.word	_ZN8opendnp322IOutstationApplication19SupportsAssignClassEv(GOT)
	.fnend
	.size	_ZN8opendnp38OContext17HandleAssignClassERKN7openpal6RSliceE, .-_ZN8opendnp38OContext17HandleAssignClassERKN7openpal6RSliceE
	.align	2
	.global	_ZN8opendnp38OContext24HandleDisableUnsolicitedERKN7openpal6RSliceERNS_12HeaderWriterE
	.syntax unified
	.arm
	.fpu vfp
	.type	_ZN8opendnp38OContext24HandleDisableUnsolicitedERKN7openpal6RSliceERNS_12HeaderWriterE, %function
_ZN8opendnp38OContext24HandleDisableUnsolicitedERKN7openpal6RSliceERNS_12HeaderWriterE:
	.fnstart
.LFB2816:
	@ args = 0, pretend = 0, frame = 32
	@ frame_needed = 0, uses_anonymous_args = 0
	push	{r4, r5, r6, r7, lr}
	.save {r4, r5, r6, r7, lr}
	.pad #44
	sub	sp, sp, #44
	add	r5, sp, #20
	mov	r6, r0
	ldr	r4, .L749
	mov	r0, r5
	mov	r7, r1
	bl	_ZN8opendnp312IAPDUHandlerC2Ev(PLT)
	ldr	r2, .L749+4
.LPIC40:
	add	r4, pc, r4
	mov	r3, r4
	ldr	r3, [r4, r2]
	add	r0, sp, #36
	add	r3, r3, #8
	str	r3, [sp, #20]
	bl	_ZN8opendnp310ClassFieldC1Ev(PLT)
	mov	r3, #1
	strb	r3, [sp, #12]
	mov	ip, #8192
	mov	r0, r7
	ldr	r3, [sp, #12]
	add	r2, r6, #4
	mov	r1, r5
	str	ip, [sp]
	bl	_ZN8opendnp310APDUParser5ParseERKN7openpal6RSliceERNS_12IAPDUHandlerEPNS1_6LoggerENS_14ParserSettingsE(PLT)
	cmp	r0, #0
	beq	.L748
	bl	_ZN8opendnp318IINFromParseResultENS_11ParseResultE(PLT)
	strh	r0, [sp, #8]	@ movhi
.L746:
	ldrb	r0, [sp, #9]	@ zero_extendqisi2
	ldrb	r3, [sp, #8]	@ zero_extendqisi2
	orr	r0, r3, r0, lsl #8
	add	sp, sp, #44
	@ sp needed
	pop	{r4, r5, r6, r7, pc}
.L748:
	ldrb	r3, [sp, #36]	@ zero_extendqisi2
	add	r1, sp, #40
	add	r0, r6, #484
	strb	r3, [r1, #-32]!
	bl	_ZN8opendnp310ClassField5ClearERKS0_(PLT)
	mov	r0, r5
	bl	_ZNK8opendnp312IAPDUHandler6ErrorsEv(PLT)
	strh	r0, [sp, #8]	@ movhi
	b	.L746
.L750:
	.align	2
.L749:
	.word	_GLOBAL_OFFSET_TABLE_-(.LPIC40+8)
	.word	_ZTVN8opendnp324ClassBasedRequestHandlerE(GOT)
	.fnend
	.size	_ZN8opendnp38OContext24HandleDisableUnsolicitedERKN7openpal6RSliceERNS_12HeaderWriterE, .-_ZN8opendnp38OContext24HandleDisableUnsolicitedERKN7openpal6RSliceERNS_12HeaderWriterE
	.align	2
	.global	_ZN8opendnp38OContext23HandleEnableUnsolicitedERKN7openpal6RSliceERNS_12HeaderWriterE
	.syntax unified
	.arm
	.fpu vfp
	.type	_ZN8opendnp38OContext23HandleEnableUnsolicitedERKN7openpal6RSliceERNS_12HeaderWriterE, %function
_ZN8opendnp38OContext23HandleEnableUnsolicitedERKN7openpal6RSliceERNS_12HeaderWriterE:
	.fnstart
.LFB2817:
	@ args = 0, pretend = 0, frame = 32
	@ frame_needed = 0, uses_anonymous_args = 0
	push	{r4, r5, r6, r7, lr}
	.save {r4, r5, r6, r7, lr}
	.pad #44
	sub	sp, sp, #44
	add	r5, sp, #20
	mov	r6, r0
	ldr	r4, .L756
	mov	r0, r5
	mov	r7, r1
	bl	_ZN8opendnp312IAPDUHandlerC2Ev(PLT)
	ldr	r2, .L756+4
.LPIC41:
	add	r4, pc, r4
	mov	r3, r4
	ldr	r3, [r4, r2]
	add	r0, sp, #36
	add	r3, r3, #8
	str	r3, [sp, #20]
	bl	_ZN8opendnp310ClassFieldC1Ev(PLT)
	mov	r3, #1
	strb	r3, [sp, #12]
	mov	ip, #8192
	mov	r0, r7
	ldr	r3, [sp, #12]
	add	r2, r6, #4
	mov	r1, r5
	str	ip, [sp]
	bl	_ZN8opendnp310APDUParser5ParseERKN7openpal6RSliceERNS_12IAPDUHandlerEPNS1_6LoggerENS_14ParserSettingsE(PLT)
	cmp	r0, #0
	beq	.L755
	bl	_ZN8opendnp318IINFromParseResultENS_11ParseResultE(PLT)
	strh	r0, [sp, #8]	@ movhi
.L753:
	ldrb	r0, [sp, #9]	@ zero_extendqisi2
	ldrb	r3, [sp, #8]	@ zero_extendqisi2
	orr	r0, r3, r0, lsl #8
	add	sp, sp, #44
	@ sp needed
	pop	{r4, r5, r6, r7, pc}
.L755:
	ldrb	r3, [sp, #36]	@ zero_extendqisi2
	add	r1, sp, #40
	add	r0, r6, #484
	strb	r3, [r1, #-32]!
	bl	_ZN8opendnp310ClassField3SetERKS0_(PLT)
	mov	r0, r5
	bl	_ZNK8opendnp312IAPDUHandler6ErrorsEv(PLT)
	strh	r0, [sp, #8]	@ movhi
	b	.L753
.L757:
	.align	2
.L756:
	.word	_GLOBAL_OFFSET_TABLE_-(.LPIC41+8)
	.word	_ZTVN8opendnp324ClassBasedRequestHandlerE(GOT)
	.fnend
	.size	_ZN8opendnp38OContext23HandleEnableUnsolicitedERKN7openpal6RSliceERNS_12HeaderWriterE, .-_ZN8opendnp38OContext23HandleEnableUnsolicitedERKN7openpal6RSliceERNS_12HeaderWriterE
	.align	2
	.global	_ZN8opendnp38OContext25HandleCommandWithConstantERKN7openpal6RSliceERNS_12HeaderWriterENS_13CommandStatusE
	.syntax unified
	.arm
	.fpu vfp
	.type	_ZN8opendnp38OContext25HandleCommandWithConstantERKN7openpal6RSliceERNS_12HeaderWriterENS_13CommandStatusE, %function
_ZN8opendnp38OContext25HandleCommandWithConstantERKN7openpal6RSliceERNS_12HeaderWriterENS_13CommandStatusE:
	.fnstart
.LFB2818:
	@ args = 0, pretend = 0, frame = 56
	@ frame_needed = 0, uses_anonymous_args = 0
	ldr	ip, .L760
	push	{r4, r5, r6, lr}
	.save {r4, r5, r6, lr}
.LPIC42:
	add	ip, pc, ip
	ldr	lr, .L760+4
	.pad #64
	sub	sp, sp, #64
	add	r4, sp, #28
	ldr	lr, [ip, lr]
	mov	r5, r0
	add	lr, lr, #8
	mov	r6, r1
	strb	r3, [sp, #16]
	ldrb	r1, [r0, #433]	@ zero_extendqisi2
	mov	r3, r2
	mov	r0, r4
	add	r2, sp, #12
	str	lr, [sp, #12]
	bl	_ZN8opendnp322CommandResponseHandlerC1EhPNS_14ICommandActionEPNS_12HeaderWriterE(PLT)
	mov	r3, #1
	mov	ip, #8192
	strb	r3, [sp, #20]
	add	r2, r5, #4
	mov	r1, r4
	ldr	r3, [sp, #20]
	str	ip, [sp]
	mov	r0, r6
	bl	_ZN8opendnp310APDUParser5ParseERKN7openpal6RSliceERNS_12IAPDUHandlerEPNS1_6LoggerENS_14ParserSettingsE(PLT)
	bl	_ZN8opendnp318IINFromParseResultENS_11ParseResultE(PLT)
	add	sp, sp, #64
	@ sp needed
	pop	{r4, r5, r6, pc}
.L761:
	.align	2
.L760:
	.word	_GLOBAL_OFFSET_TABLE_-(.LPIC42+8)
	.word	_ZTVN8opendnp321ConstantCommandActionE(GOT)
	.fnend
	.size	_ZN8opendnp38OContext25HandleCommandWithConstantERKN7openpal6RSliceERNS_12HeaderWriterENS_13CommandStatusE, .-_ZN8opendnp38OContext25HandleCommandWithConstantERKN7openpal6RSliceERNS_12HeaderWriterENS_13CommandStatusE
	.section	.text._ZNSt16_Sp_counted_baseILN9__gnu_cxx12_Lock_policyE1EE10_M_releaseEv,"axG",%progbits,_ZNSt16_Sp_counted_baseILN9__gnu_cxx12_Lock_policyE1EE10_M_releaseEv,comdat
	.align	2
	.weak	_ZNSt16_Sp_counted_baseILN9__gnu_cxx12_Lock_policyE1EE10_M_releaseEv
	.syntax unified
	.arm
	.fpu vfp
	.type	_ZNSt16_Sp_counted_baseILN9__gnu_cxx12_Lock_policyE1EE10_M_releaseEv, %function
_ZNSt16_Sp_counted_baseILN9__gnu_cxx12_Lock_policyE1EE10_M_releaseEv:
	.fnstart
.LFB3218:
	@ args = 0, pretend = 0, frame = 0
	@ frame_needed = 0, uses_anonymous_args = 0
	ldr	r3, .L774
	ldr	r2, .L774+4
.LPIC43:
	add	r3, pc, r3
	push	{r4, r5, r6, lr}
	mov	r4, r0
	ldr	r3, [r3, r2]
	cmp	r3, #0
	beq	.L763
	add	r3, r0, #28
	mcr	p15, 0, r0, c7, c10, 5
.L770:
	ldrex	r2, [r3]
	sub	r1, r2, #1
	strex	ip, r1, [r3]
	cmp	ip, #0
	bne	.L770
	cmp	r2, #1
	mcr	p15, 0, r0, c7, c10, 5
	popne	{r4, r5, r6, pc}
	mov	r5, r4
	ldr	r3, [r5], #32
	ldr	r3, [r3, #8]
	blx	r3
	mcr	p15, 0, r0, c7, c10, 5
	mcr	p15, 0, r0, c7, c10, 5
.L769:
	ldrex	r3, [r5]
	sub	r2, r3, #1
	strex	r1, r2, [r5]
	cmp	r1, #0
	bne	.L769
	mcr	p15, 0, r0, c7, c10, 5
.L768:
	cmp	r3, #1
	popne	{r4, r5, r6, pc}
	ldr	r3, [r4]
	mov	r0, r4
	pop	{r4, r5, r6, lr}
	ldr	r3, [r3, #12]
	bx	r3	@ indirect register sibling call
.L763:
	ldr	r3, [r0, #28]
	cmp	r3, #1
	sub	r3, r3, #1
	str	r3, [r0, #28]
	popne	{r4, r5, r6, pc}
	ldr	r3, [r0]
	ldr	r3, [r3, #8]
	blx	r3
	mcr	p15, 0, r0, c7, c10, 5
	ldr	r3, [r4, #32]
	sub	r2, r3, #1
	str	r2, [r4, #32]
	b	.L768
.L775:
	.align	2
.L774:
	.word	_GLOBAL_OFFSET_TABLE_-(.LPIC43+8)
	.word	_ZL28__gthrw___pthread_key_createPjPFvPvE(GOT)
	.cantunwind
	.fnend
	.size	_ZNSt16_Sp_counted_baseILN9__gnu_cxx12_Lock_policyE1EE10_M_releaseEv, .-_ZNSt16_Sp_counted_baseILN9__gnu_cxx12_Lock_policyE1EE10_M_releaseEv
	.text
	.align	2
	.global	_ZN8opendnp38OContextC2ERKNS_16OutstationConfigERKNS_13DatabaseSizesERKN7openpal6LoggerERKSt10shared_ptrINS7_9IExecutorEERKSB_INS_11ILowerLayerEERKSB_INS_15ICommandHandlerEERKSB_INS_22IOutstationApplicationEE
	.syntax unified
	.arm
	.fpu vfp
	.type	_ZN8opendnp38OContextC2ERKNS_16OutstationConfigERKNS_13DatabaseSizesERKN7openpal6LoggerERKSt10shared_ptrINS7_9IExecutorEERKSB_INS_11ILowerLayerEERKSB_INS_15ICommandHandlerEERKSB_INS_22IOutstationApplicationEE, %function
_ZN8opendnp38OContextC2ERKNS_16OutstationConfigERKNS_13DatabaseSizesERKN7openpal6LoggerERKSt10shared_ptrINS7_9IExecutorEERKSB_INS_11ILowerLayerEERKSB_INS_15ICommandHandlerEERKSB_INS_22IOutstationApplicationEE:
	.fnstart
.LFB2775:
	@ args = 16, pretend = 0, frame = 0
	@ frame_needed = 0, uses_anonymous_args = 0
	push	{r4, r5, r6, r7, r8, r9, r10, lr}
	.save {r4, r5, r6, r7, r8, r9, r10, lr}
	mov	r4, r0
	ldr	r6, .L922
	ldr	ip, .L922+4
.LPIC44:
	add	r6, pc, r6
	ldr	r0, [r3, #4]
	ldr	ip, [r6, ip]
	ldr	lr, [r3]
	.pad #8
	sub	sp, sp, #8
	add	ip, ip, #8
	cmp	r0, #0
	stm	r4, {ip, lr}
	mov	r5, r1
	mov	r8, r2
	str	r0, [r4, #8]
	ldr	r7, [sp, #40]
	ldr	lr, [sp, #44]
	ldr	ip, [sp, #48]
	ldr	r1, [sp, #52]
	beq	.L777
	ldr	r2, .L922+8
	ldr	r2, [r6, r2]
	cmp	r2, #0
	beq	.L778
	add	r0, r0, #28
	mcr	p15, 0, r0, c7, c10, 5
.L911:
	ldrex	r2, [r0]
	add	r2, r2, #1
	strex	r9, r2, [r0]
	cmp	r9, #0
	bne	.L911
	mcr	p15, 0, r0, c7, c10, 5
	ldr	r2, [r3, #12]
	ldr	r3, [r3, #8]
	cmp	r2, #0
	str	r3, [r4, #12]
	str	r2, [r4, #16]
	beq	.L920
.L913:
	add	r2, r2, #28
	mcr	p15, 0, r0, c7, c10, 5
.L910:
	ldrex	r3, [r2]
	add	r3, r3, #1
	strex	r0, r3, [r2]
	cmp	r0, #0
	bne	.L910
	mcr	p15, 0, r0, c7, c10, 5
	ldr	r0, [r7, #4]
	ldr	r3, [r7]
	cmp	r0, #0
	str	r3, [r4, #20]
	str	r0, [r4, #24]
	beq	.L785
.L823:
	add	r0, r0, #28
	mcr	p15, 0, r0, c7, c10, 5
.L909:
	ldrex	r3, [r0]
	add	r3, r3, #1
	strex	r2, r3, [r0]
	cmp	r2, #0
	bne	.L909
	mcr	p15, 0, r0, c7, c10, 5
	ldm	lr, {r2, r3}
	cmp	r3, #0
	str	r2, [r4, #28]
	str	r3, [r4, #32]
	beq	.L788
.L914:
	add	r3, r3, #28
	mcr	p15, 0, r0, c7, c10, 5
.L908:
	ldrex	r2, [r3]
	add	r2, r2, #1
	strex	r0, r2, [r3]
	cmp	r0, #0
	bne	.L908
	mcr	p15, 0, r0, c7, c10, 5
	ldr	r2, [ip, #4]
	ldr	r3, [ip]
	cmp	r2, #0
	str	r3, [r4, #36]
	str	r2, [r4, #40]
	beq	.L791
.L915:
	add	r2, r2, #28
	mcr	p15, 0, r0, c7, c10, 5
.L907:
	ldrex	r3, [r2]
	add	r3, r3, #1
	strex	r0, r3, [r2]
	cmp	r0, #0
	bne	.L907
	mcr	p15, 0, r0, c7, c10, 5
	ldm	r1, {r2, r3}
	cmp	r3, #0
	str	r2, [r4, #44]
	str	r3, [r4, #48]
	beq	.L794
.L916:
	add	r3, r3, #28
	mcr	p15, 0, r0, c7, c10, 5
.L906:
	ldrex	r2, [r3]
	add	r2, r2, #1
	strex	r1, r2, [r3]
	cmp	r1, #0
	bne	.L906
	mcr	p15, 0, r0, c7, c10, 5
.L794:
	add	r9, r4, #52
	mov	r0, r9
	add	r1, r5, #56
.LEHB4:
	bl	_ZN8opendnp311EventBufferC1ERKNS_17EventBufferConfigE(PLT)
.LEHE4:
	ldrh	r0, [r5, #50]
	ldrb	r3, [r5]	@ zero_extendqisi2
	mov	r2, r9
	strh	r0, [sp]	@ movhi
	mov	r1, r8
	add	r0, r4, #260
.LEHB5:
	bl	_ZN8opendnp38DatabaseC1ERKNS_13DatabaseSizesERNS_14IEventReceiverENS_9IndexModeENS_18StaticTypeBitFieldE(PLT)
.LEHE5:
	add	r2, r4, #60
	add	r1, r4, #276
	add	r0, r4, #420
.LEHB6:
	bl	_ZN8opendnp315ResponseContextC1ERNS_15IResponseLoaderES2_(PLT)
	mov	lr, r5
	add	ip, r4, #432
	ldmia	lr!, {r0, r1, r2, r3}
	mov	r8, #0
	add	r9, r4, #488
	stmia	ip!, {r0, r1, r2, r3}
	ldmia	lr!, {r0, r1, r2, r3}
	stmia	ip!, {r0, r1, r2, r3}
	ldmia	lr!, {r0, r1, r2, r3}
	stmia	ip!, {r0, r1, r2, r3}
	ldm	lr, {r0, r1}
	stm	ip, {r0, r1}
	strb	r8, [r4, #488]
	strb	r8, [r4, #489]
	strb	r8, [r4, #490]
	strb	r8, [r4, #491]
	add	r0, r9, #2
	mov	r1, #7
	bl	_ZN8opendnp38IINField6SetBitENS_6IINBitE(PLT)
	add	r8, r4, #492
	ldr	r1, [r7]
	mov	r0, r8
	bl	_ZN7openpal8TimerRefC1ERNS_9IExecutorE(PLT)
.LEHE6:
	add	r0, r4, #500
.LEHB7:
	bl	_ZN8opendnp314RequestHistoryC1Ev(PLT)
	ldr	r1, [r5, #44]
	add	r0, r4, #516
	bl	_ZN8opendnp315DeferredRequestC1Ej(PLT)
.LEHE7:
	mov	r3, #0
	strb	r3, [r4, #544]
	add	r0, r4, #552
.LEHB8:
	bl	_ZN7openpal18MonotonicTimestampC1Ev(PLT)
	add	r2, r4, #544
	mov	r3, #0
	strh	r3, [r2, #16]	@ movhi
	ldr	r7, [r5, #40]
	add	r0, r4, #572
	str	r3, [r4, #564]
	strb	r3, [r4, #568]
	strb	r3, [r4, #569]
	bl	_ZN7openpal6RSliceC1Ev(PLT)
	add	r0, r4, #580
	bl	_ZN8opendnp315AppControlFieldC1Ev(PLT)
	mov	r1, r7
	add	r0, r4, #588
	bl	_ZN7openpal6BufferC1Ej(PLT)
.LEHE8:
	mov	r3, #0
	ldr	r5, [r5, #40]
	add	r0, r4, #604
	strb	r3, [r4, #600]
	strb	r3, [r4, #601]
	strb	r3, [r4, #602]
.LEHB9:
	bl	_ZN7openpal6RSliceC1Ev(PLT)
	add	r0, r4, #612
	bl	_ZN8opendnp315AppControlFieldC1Ev(PLT)
	mov	r1, r5
	add	r0, r4, #620
	bl	_ZN7openpal6BufferC1Ej(PLT)
.LEHE9:
	ldr	r3, .L922+12
	mov	r0, r4
	ldr	r3, [r6, r3]
	str	r3, [r4, #632]
	add	sp, sp, #8
	@ sp needed
	pop	{r4, r5, r6, r7, r8, r9, r10, pc}
.L778:
	ldr	r2, [r3, #12]
	ldr	r9, [r0, #28]
	ldr	r10, [r3, #8]
	cmp	r2, #0
	add	r3, r9, #1
	str	r3, [r0, #28]
	str	r10, [r4, #12]
	str	r2, [r4, #16]
	beq	.L921
.L781:
	ldr	r3, [r2, #28]
	ldr	r0, [r7, #4]
	add	r3, r3, #1
	str	r3, [r2, #28]
	ldr	r3, [r7]
	cmp	r0, #0
	str	r0, [r4, #24]
	str	r3, [r4, #20]
	beq	.L785
.L786:
	ldr	r3, [lr, #4]
	ldr	r2, [r0, #28]
	ldr	lr, [lr]
	add	r2, r2, #1
	cmp	r3, #0
	str	r2, [r0, #28]
	str	lr, [r4, #28]
	str	r3, [r4, #32]
	beq	.L788
.L789:
	ldr	r2, [ip, #4]
	ldr	r0, [r3, #28]
	ldr	ip, [ip]
	add	r0, r0, #1
	cmp	r2, #0
	str	r0, [r3, #28]
	str	ip, [r4, #36]
	str	r2, [r4, #40]
	beq	.L791
.L792:
	ldr	r3, [r1, #4]
	ldr	r0, [r2, #28]
	ldr	ip, [r1]
	cmp	r3, #0
	add	r1, r0, #1
	str	r1, [r2, #28]
	str	ip, [r4, #44]
	str	r3, [r4, #48]
	beq	.L794
.L795:
	ldr	r2, [r3, #28]
	add	r2, r2, #1
	str	r2, [r3, #28]
	b	.L794
.L791:
	ldm	r1, {r2, r3}
	cmp	r3, #0
	str	r2, [r4, #44]
	str	r3, [r4, #48]
	beq	.L794
	ldr	r2, .L922+8
	ldr	r2, [r6, r2]
	cmp	r2, #0
	bne	.L916
	b	.L795
.L921:
	ldr	r0, [r7, #4]
	ldr	r3, [r7]
	cmp	r0, #0
	str	r0, [r4, #24]
	str	r3, [r4, #20]
	bne	.L786
.L785:
	ldm	lr, {r2, r3}
	cmp	r3, #0
	str	r2, [r4, #28]
	str	r3, [r4, #32]
	beq	.L788
	ldr	r2, .L922+8
	ldr	r2, [r6, r2]
	cmp	r2, #0
	bne	.L914
	b	.L789
.L788:
	ldr	r2, [ip, #4]
	ldr	r3, [ip]
	cmp	r2, #0
	str	r3, [r4, #36]
	str	r2, [r4, #40]
	beq	.L791
	ldr	r3, .L922+8
	ldr	r3, [r6, r3]
	cmp	r3, #0
	bne	.L915
	b	.L792
.L920:
	ldr	r0, [r7, #4]
	ldr	r3, [r7]
	cmp	r0, #0
	str	r0, [r4, #24]
	str	r3, [r4, #20]
	bne	.L823
	b	.L785
.L777:
	ldr	r2, [r3, #12]
	ldr	r3, [r3, #8]
	cmp	r2, #0
	str	r3, [r4, #12]
	str	r2, [r4, #16]
	beq	.L783
	ldr	r3, .L922+8
	ldr	r3, [r6, r3]
	cmp	r3, #0
	bne	.L913
	b	.L781
.L783:
	ldr	r0, [r7, #4]
	ldr	r3, [r7]
	cmp	r0, #0
	str	r0, [r4, #24]
	str	r3, [r4, #20]
	beq	.L785
	ldr	r3, .L922+8
	ldr	r3, [r6, r3]
	cmp	r3, #0
	bne	.L823
	b	.L786
.L826:
.L802:
	ldr	r1, .L922+16
	ldr	r3, .L922+20
	ldr	r2, .L922+24
	ldr	r1, [r6, r1]
	ldr	r0, [r4, #376]
	add	r1, r1, #8
	str	r1, [r4, #260]
	ldr	r3, [r6, r3]
	cmp	r0, #0
	add	ip, r3, #8
	add	r1, r3, #44
	add	r3, r3, #60
	str	ip, [r4, #272]
	str	r1, [r4, #276]
	str	r3, [r4, #280]
	ldr	r3, [r6, r2]
	add	r3, r3, #8
	str	r3, [r4, #368]
	beq	.L803
	bl	_ZdaPv(PLT)
.L803:
	ldr	r3, .L922+28
	ldr	r0, [r4, #364]
	ldr	r3, [r6, r3]
	cmp	r0, #0
	add	r3, r3, #8
	str	r3, [r4, #356]
	beq	.L804
	bl	_ZdaPv(PLT)
.L804:
	ldr	r3, .L922+32
	ldr	r0, [r4, #352]
	ldr	r3, [r6, r3]
	cmp	r0, #0
	add	r3, r3, #8
	str	r3, [r4, #344]
	beq	.L805
	bl	_ZdaPv(PLT)
.L805:
	ldr	r3, .L922+36
	ldr	r0, [r4, #340]
	ldr	r3, [r6, r3]
	cmp	r0, #0
	add	r3, r3, #8
	str	r3, [r4, #332]
	beq	.L806
	bl	_ZdaPv(PLT)
.L806:
	ldr	r3, .L922+40
	ldr	r0, [r4, #328]
	ldr	r3, [r6, r3]
	cmp	r0, #0
	add	r3, r3, #8
	str	r3, [r4, #320]
	beq	.L807
	bl	_ZdaPv(PLT)
.L807:
	ldr	r3, .L922+44
	ldr	r0, [r4, #316]
	ldr	r3, [r6, r3]
	cmp	r0, #0
	add	r3, r3, #8
	str	r3, [r4, #308]
	beq	.L808
	bl	_ZdaPv(PLT)
.L808:
	ldr	r3, .L922+48
	ldr	r0, [r4, #304]
	ldr	r3, [r6, r3]
	cmp	r0, #0
	add	r3, r3, #8
	str	r3, [r4, #296]
	beq	.L809
	bl	_ZdaPv(PLT)
.L809:
	ldr	r3, .L922+52
	ldr	r0, [r4, #292]
	ldr	r3, [r6, r3]
	cmp	r0, #0
	add	r3, r3, #8
	str	r3, [r4, #284]
	beq	.L811
	bl	_ZdaPv(PLT)
.L811:
	ldr	r3, .L922+56
	ldr	r2, .L922+60
	ldr	r0, [r4, #112]
	ldr	r3, [r6, r3]
	cmp	r0, #0
	add	lr, r3, #8
	add	ip, r3, #80
	add	r1, r3, #96
	add	r3, r3, #112
	str	lr, [r4, #52]
	str	ip, [r4, #56]
	str	r1, [r4, #60]
	str	r3, [r4, #64]
	ldr	r3, [r6, r2]
	add	r3, r3, #8
	str	r3, [r4, #104]
	beq	.L813
	bl	_ZdaPv(PLT)
.L813:
	ldr	r0, [r4, #48]
	cmp	r0, #0
	beq	.L814
	bl	_ZNSt16_Sp_counted_baseILN9__gnu_cxx12_Lock_policyE1EE10_M_releaseEv(PLT)
.L814:
	ldr	r0, [r4, #40]
	cmp	r0, #0
	beq	.L815
	bl	_ZNSt16_Sp_counted_baseILN9__gnu_cxx12_Lock_policyE1EE10_M_releaseEv(PLT)
.L815:
	ldr	r0, [r4, #32]
	cmp	r0, #0
	beq	.L816
	bl	_ZNSt16_Sp_counted_baseILN9__gnu_cxx12_Lock_policyE1EE10_M_releaseEv(PLT)
.L816:
	ldr	r0, [r4, #24]
	cmp	r0, #0
	beq	.L817
	bl	_ZNSt16_Sp_counted_baseILN9__gnu_cxx12_Lock_policyE1EE10_M_releaseEv(PLT)
.L817:
	add	r0, r4, #4
	bl	_ZN7openpal6LoggerD1Ev(PLT)
.LEHB10:
	bl	__cxa_end_cleanup(PLT)
.LEHE10:
.L825:
	b	.L811
.L824:
	b	.L813
.L829:
	ldr	r3, .L922+64
	ldr	r0, [r4, #596]
	ldr	r5, [r6, r3]
	cmp	r0, #0
	add	r3, r5, #8
	str	r3, [r4, #588]
	beq	.L799
	bl	_ZdaPv(PLT)
.L799:
	ldr	r0, [r4, #540]
	add	r5, r5, #8
	cmp	r0, #0
	str	r5, [r4, #532]
	beq	.L801
	bl	_ZdaPv(PLT)
.L801:
	mov	r0, r8
	bl	_ZN7openpal8TimerRefD1Ev(PLT)
	b	.L802
.L828:
	ldr	r3, .L922+64
	ldr	r5, [r6, r3]
	b	.L799
.L827:
	b	.L801
.L923:
	.align	2
.L922:
	.word	_GLOBAL_OFFSET_TABLE_-(.LPIC44+8)
	.word	_ZTVN8opendnp38OContextE(GOT)
	.word	_ZL28__gthrw___pthread_key_createPjPFvPvE(GOT)
	.word	_ZN8opendnp39StateIdle8instanceE(GOT)
	.word	_ZTVN8opendnp38DatabaseE(GOT)
	.word	_ZTVN8opendnp315DatabaseBuffersE(GOT)
	.word	_ZTVN7openpal5ArrayIN8opendnp34CellINS1_19TimeAndIntervalSpecEEEtEE(GOT)
	.word	_ZTVN7openpal5ArrayIN8opendnp34CellINS1_22AnalogOutputStatusSpecEEEtEE(GOT)
	.word	_ZTVN7openpal5ArrayIN8opendnp34CellINS1_22BinaryOutputStatusSpecEEEtEE(GOT)
	.word	_ZTVN7openpal5ArrayIN8opendnp34CellINS1_17FrozenCounterSpecEEEtEE(GOT)
	.word	_ZTVN7openpal5ArrayIN8opendnp34CellINS1_11CounterSpecEEEtEE(GOT)
	.word	_ZTVN7openpal5ArrayIN8opendnp34CellINS1_10AnalogSpecEEEtEE(GOT)
	.word	_ZTVN7openpal5ArrayIN8opendnp34CellINS1_19DoubleBitBinarySpecEEEtEE(GOT)
	.word	_ZTVN7openpal5ArrayIN8opendnp34CellINS1_10BinarySpecEEEtEE(GOT)
	.word	_ZTVN8opendnp311EventBufferE(GOT)
	.word	_ZTVN7openpal5ArrayINS_8ListNodeIN8opendnp39SOERecordEEEjEE(GOT)
	.word	_ZTVN7openpal5ArrayIhjEE(GOT)
	.personality	__gxx_personality_v0
	.handlerdata
.LLSDA2775:
	.byte	0xff
	.byte	0xff
	.byte	0x1
	.uleb128 .LLSDACSE2775-.LLSDACSB2775
.LLSDACSB2775:
	.uleb128 .LEHB4-.LFB2775
	.uleb128 .LEHE4-.LEHB4
	.uleb128 .L824-.LFB2775
	.uleb128 0
	.uleb128 .LEHB5-.LFB2775
	.uleb128 .LEHE5-.LEHB5
	.uleb128 .L825-.LFB2775
	.uleb128 0
	.uleb128 .LEHB6-.LFB2775
	.uleb128 .LEHE6-.LEHB6
	.uleb128 .L826-.LFB2775
	.uleb128 0
	.uleb128 .LEHB7-.LFB2775
	.uleb128 .LEHE7-.LEHB7
	.uleb128 .L827-.LFB2775
	.uleb128 0
	.uleb128 .LEHB8-.LFB2775
	.uleb128 .LEHE8-.LEHB8
	.uleb128 .L828-.LFB2775
	.uleb128 0
	.uleb128 .LEHB9-.LFB2775
	.uleb128 .LEHE9-.LEHB9
	.uleb128 .L829-.LFB2775
	.uleb128 0
	.uleb128 .LEHB10-.LFB2775
	.uleb128 .LEHE10-.LEHB10
	.uleb128 0
	.uleb128 0
.LLSDACSE2775:
	.text
	.fnend
	.size	_ZN8opendnp38OContextC2ERKNS_16OutstationConfigERKNS_13DatabaseSizesERKN7openpal6LoggerERKSt10shared_ptrINS7_9IExecutorEERKSB_INS_11ILowerLayerEERKSB_INS_15ICommandHandlerEERKSB_INS_22IOutstationApplicationEE, .-_ZN8opendnp38OContextC2ERKNS_16OutstationConfigERKNS_13DatabaseSizesERKN7openpal6LoggerERKSt10shared_ptrINS7_9IExecutorEERKSB_INS_11ILowerLayerEERKSB_INS_15ICommandHandlerEERKSB_INS_22IOutstationApplicationEE
	.global	_ZN8opendnp38OContextC1ERKNS_16OutstationConfigERKNS_13DatabaseSizesERKN7openpal6LoggerERKSt10shared_ptrINS7_9IExecutorEERKSB_INS_11ILowerLayerEERKSB_INS_15ICommandHandlerEERKSB_INS_22IOutstationApplicationEE
	.set	_ZN8opendnp38OContextC1ERKNS_16OutstationConfigERKNS_13DatabaseSizesERKN7openpal6LoggerERKSt10shared_ptrINS7_9IExecutorEERKSB_INS_11ILowerLayerEERKSB_INS_15ICommandHandlerEERKSB_INS_22IOutstationApplicationEE,_ZN8opendnp38OContextC2ERKNS_16OutstationConfigERKNS_13DatabaseSizesERKN7openpal6LoggerERKSt10shared_ptrINS7_9IExecutorEERKSB_INS_11ILowerLayerEERKSB_INS_15ICommandHandlerEERKSB_INS_22IOutstationApplicationEE
	.section	.text.startup,"ax",%progbits
	.align	2
	.syntax unified
	.arm
	.fpu vfp
	.type	_GLOBAL__sub_I_OutstationContext.cpp, %function
_GLOBAL__sub_I_OutstationContext.cpp:
	.fnstart
.LFB3715:
	@ args = 0, pretend = 0, frame = 8
	@ frame_needed = 0, uses_anonymous_args = 0
	push	{r4, lr}
	sub	sp, sp, #8
	ldr	r2, .L927
	mov	r3, #0
	mov	r0, sp
	ldr	r4, .L927+4
	bl	_ZN7openpal12TimeDuration12MillisecondsEx(PLT)
	ldr	r3, .L927+8
.LPIC45:
	add	r4, pc, r4
	ldr	r3, [r4, r3]
	ldr	r2, [r3]
	tst	r2, #1
	bne	.L924
	mov	r2, #1
	str	r2, [r3]
	bl	_ZN7openpal8MaxValueItEET_v(PLT)
	ldr	r3, .L927+12
	ldr	r3, [r4, r3]
	strh	r0, [r3]	@ movhi
.L924:
	add	sp, sp, #8
	@ sp needed
	pop	{r4, pc}
.L928:
	.align	2
.L927:
	.word	5000
	.word	_GLOBAL_OFFSET_TABLE_-(.LPIC45+8)
	.word	_ZGVN7openpal7Bit16LEItE3MaxE(GOT)
	.word	_ZN7openpal7Bit16LEItE3MaxE(GOT)
	.cantunwind
	.fnend
	.size	_GLOBAL__sub_I_OutstationContext.cpp, .-_GLOBAL__sub_I_OutstationContext.cpp
	.section	.init_array,"aw"
	.align	2
	.word	_GLOBAL__sub_I_OutstationContext.cpp
	.text
	.align	2
	.global	_ZN8opendnp38OContext19HandleDirectOperateERKN7openpal6RSliceENS_11OperateTypeEPNS_12HeaderWriterE
	.syntax unified
	.arm
	.fpu vfp
	.type	_ZN8opendnp38OContext19HandleDirectOperateERKN7openpal6RSliceENS_11OperateTypeEPNS_12HeaderWriterE, %function
_ZN8opendnp38OContext19HandleDirectOperateERKN7openpal6RSliceENS_11OperateTypeEPNS_12HeaderWriterE:
	.fnstart
.LFB2810:
	@ args = 0, pretend = 0, frame = 144
	@ frame_needed = 0, uses_anonymous_args = 0
	push	{r4, r5, r6, r7, r8, lr}
	.save {r4, r5, r6, r7, r8, lr}
	subs	r8, r3, #0
	.pad #152
	sub	sp, sp, #152
	mov	r5, r0
	mov	r7, r1
	mov	r4, r2
	beq	.L930
	mov	r0, r8
	ldr	r6, [r1]
.LEHB11:
	bl	_ZNK8opendnp312HeaderWriter9RemainingEv(PLT)
	cmp	r0, r6
	bcc	.L931
.L930:
	add	r6, sp, #20
	mov	r3, r4
	mov	r2, #0
	ldr	r1, [r5, #36]
	mov	r0, r6
	add	r4, sp, #32
	bl	_ZN8opendnp320CommandActionAdapterC1EPNS_15ICommandHandlerEbNS_11OperateTypeE(PLT)
.LEHE11:
	mov	r3, r8
	mov	r2, r6
	mov	r0, r4
	ldrb	r1, [r5, #433]	@ zero_extendqisi2
.LEHB12:
	bl	_ZN8opendnp322CommandResponseHandlerC1EhPNS_14ICommandActionEPNS_12HeaderWriterE(PLT)
	mov	r3, #1
	mov	r1, #8192
	strb	r3, [sp, #12]
	str	r1, [sp]
	add	r2, r5, #4
	mov	r0, r7
	ldr	r3, [sp, #12]
	mov	r1, r4
	bl	_ZN8opendnp310APDUParser5ParseERKN7openpal6RSliceERNS_12IAPDUHandlerEPNS1_6LoggerENS_14ParserSettingsE(PLT)
	cmp	r0, #0
	beq	.L949
	bl	_ZN8opendnp318IINFromParseResultENS_11ParseResultE(PLT)
.LEHE12:
.L946:
	strh	r0, [sp, #8]	@ movhi
	mov	r0, r6
	bl	_ZN8opendnp320CommandActionAdapterD1Ev(PLT)
	b	.L932
.L931:
	add	r4, sp, #152
	add	r5, r5, #4
	mov	r6, #4
	str	r6, [r4, #-120]!
	mov	r0, r5
	mov	r1, r4
.LEHB13:
	bl	_ZNK7openpal6Logger9IsEnabledERKNS_10LogFiltersE(PLT)
	cmp	r0, #0
	bne	.L950
.L938:
	mov	r3, #0
	mov	r0, r4
	mov	r1, #10
	strb	r3, [sp, #32]
	strb	r3, [sp, #33]
	bl	_ZN8opendnp38IINField6SetBitENS_6IINBitE(PLT)
.LEHE13:
	ldrh	r3, [sp, #32]
	strh	r3, [sp, #8]	@ movhi
.L932:
	ldrb	r3, [sp, #9]	@ zero_extendqisi2
	ldrb	r0, [sp, #8]	@ zero_extendqisi2
	orr	r0, r0, r3, lsl #8
	add	sp, sp, #152
	@ sp needed
	pop	{r4, r5, r6, r7, r8, pc}
.L949:
	mov	r0, r4
.LEHB14:
	bl	_ZNK8opendnp312IAPDUHandler6ErrorsEv(PLT)
.LEHE14:
	b	.L946
.L950:
	ldr	r2, .L951
	ldr	r3, [r7]
.LPIC46:
	add	r2, pc, r2
	mov	r1, #120
	mov	r0, r4
	bl	snprintf(PLT)
	add	r1, sp, #152
	ldr	r2, .L951+4
	mov	r0, r5
	str	r6, [r1, #-132]!
	mov	r3, r4
.LPIC47:
	add	r2, pc, r2
.LEHB15:
	bl	_ZN7openpal6Logger3LogERKNS_10LogFiltersEPKcS5_(PLT)
	b	.L938
.L939:
	mov	r0, r6
	bl	_ZN8opendnp320CommandActionAdapterD1Ev(PLT)
	bl	__cxa_end_cleanup(PLT)
.LEHE15:
.L952:
	.align	2
.L951:
	.word	.LC6-(.LPIC46+8)
	.word	.LC7-(.LPIC47+8)
	.personality	__gxx_personality_v0
	.handlerdata
.LLSDA2810:
	.byte	0xff
	.byte	0xff
	.byte	0x1
	.uleb128 .LLSDACSE2810-.LLSDACSB2810
.LLSDACSB2810:
	.uleb128 .LEHB11-.LFB2810
	.uleb128 .LEHE11-.LEHB11
	.uleb128 0
	.uleb128 0
	.uleb128 .LEHB12-.LFB2810
	.uleb128 .LEHE12-.LEHB12
	.uleb128 .L939-.LFB2810
	.uleb128 0
	.uleb128 .LEHB13-.LFB2810
	.uleb128 .LEHE13-.LEHB13
	.uleb128 0
	.uleb128 0
	.uleb128 .LEHB14-.LFB2810
	.uleb128 .LEHE14-.LEHB14
	.uleb128 .L939-.LFB2810
	.uleb128 0
	.uleb128 .LEHB15-.LFB2810
	.uleb128 .LEHE15-.LEHB15
	.uleb128 0
	.uleb128 0
.LLSDACSE2810:
	.text
	.fnend
	.size	_ZN8opendnp38OContext19HandleDirectOperateERKN7openpal6RSliceENS_11OperateTypeEPNS_12HeaderWriterE, .-_ZN8opendnp38OContext19HandleDirectOperateERKN7openpal6RSliceENS_11OperateTypeEPNS_12HeaderWriterE
	.align	2
	.global	_ZN8opendnp38OContext19ProcessRequestNoAckERKNS_10APDUHeaderERKN7openpal6RSliceE
	.syntax unified
	.arm
	.fpu vfp
	.type	_ZN8opendnp38OContext19ProcessRequestNoAckERKNS_10APDUHeaderERKN7openpal6RSliceE, %function
_ZN8opendnp38OContext19ProcessRequestNoAckERKNS_10APDUHeaderERKN7openpal6RSliceE:
	.fnstart
.LFB2806:
	@ args = 0, pretend = 0, frame = 128
	@ frame_needed = 0, uses_anonymous_args = 0
	ldrb	ip, [r1]	@ zero_extendqisi2
	push	{r4, r5, r6, r7, lr}
	.save {r4, r5, r6, r7, lr}
	.pad #132
	sub	sp, sp, #132
	cmp	ip, #6
	beq	.L962
	add	r5, sp, #128
	add	r4, r0, #4
	mov	r7, #4
	str	r7, [r5, #-120]!
	mov	r6, r1
	mov	r0, r4
	mov	r1, r5
	bl	_ZNK7openpal6Logger9IsEnabledERKNS_10LogFiltersE(PLT)
	cmp	r0, #0
	bne	.L963
	add	sp, sp, #132
	@ sp needed
	pop	{r4, r5, r6, r7, pc}
.L963:
	ldrb	r0, [r6]	@ zero_extendqisi2
	bl	_ZN8opendnp320FunctionCodeToStringENS_12FunctionCodeE(PLT)
	ldr	r2, .L964
	mov	r1, #120
.LPIC48:
	add	r2, pc, r2
	mov	r3, r0
	mov	r0, r5
	bl	snprintf(PLT)
	add	r1, sp, #128
	ldr	r2, .L964+4
	mov	r3, r5
	mov	r0, r4
	str	r7, [r1, #-124]!
.LPIC49:
	add	r2, pc, r2
	bl	_ZN7openpal6Logger3LogERKNS_10LogFiltersEPKcS5_(PLT)
	add	sp, sp, #132
	@ sp needed
	pop	{r4, r5, r6, r7, pc}
.L962:
	mov	r1, r2
	mov	r3, #0
	mov	r2, #2
	bl	_ZN8opendnp38OContext19HandleDirectOperateERKN7openpal6RSliceENS_11OperateTypeEPNS_12HeaderWriterE(PLT)
	add	sp, sp, #132
	@ sp needed
	pop	{r4, r5, r6, r7, pc}
.L965:
	.align	2
.L964:
	.word	.LC8-(.LPIC48+8)
	.word	.LC9-(.LPIC49+8)
	.fnend
	.size	_ZN8opendnp38OContext19ProcessRequestNoAckERKNS_10APDUHeaderERKN7openpal6RSliceE, .-_ZN8opendnp38OContext19ProcessRequestNoAckERKNS_10APDUHeaderERKN7openpal6RSliceE
	.align	2
	.global	_ZN8opendnp38OContext11ProcessAPDUERKN7openpal6RSliceERKNS_10APDUHeaderES4_
	.syntax unified
	.arm
	.fpu vfp
	.type	_ZN8opendnp38OContext11ProcessAPDUERKN7openpal6RSliceERKNS_10APDUHeaderES4_, %function
_ZN8opendnp38OContext11ProcessAPDUERKN7openpal6RSliceERKNS_10APDUHeaderES4_:
	.fnstart
.LFB2783:
	@ args = 0, pretend = 0, frame = 0
	@ frame_needed = 0, uses_anonymous_args = 0
	push	{r4, r5, r6, lr}
	.save {r4, r5, r6, lr}
	mov	r5, r0
	.pad #8
	sub	sp, sp, #8
	ldrb	r0, [r2]	@ zero_extendqisi2
	mov	r4, r2
	mov	r6, r3
	bl	_ZN8opendnp39Functions15IsNoAckFuncCodeENS_12FunctionCodeE(PLT)
	cmp	r0, #0
	bne	.L973
	ldrb	r3, [r5, #489]	@ zero_extendqisi2
	cmp	r3, #0
	bne	.L974
	ldrb	r3, [r4]	@ zero_extendqisi2
	cmp	r3, #0
	beq	.L975
	mov	r2, r6
	mov	r1, r4
	mov	r0, r5
	add	sp, sp, #8
	@ sp needed
	pop	{r4, r5, r6, lr}
	b	_ZN8opendnp38OContext14ProcessRequestERKNS_10APDUHeaderERKN7openpal6RSliceE(PLT)
.L975:
	mov	r1, r4
	mov	r0, r5
	add	sp, sp, #8
	@ sp needed
	pop	{r4, r5, r6, lr}
	b	_ZN8opendnp38OContext14ProcessConfirmERKNS_10APDUHeaderE(PLT)
.L973:
	mov	r2, r6
	mov	r1, r4
	mov	r0, r5
	add	sp, sp, #8
	@ sp needed
	pop	{r4, r5, r6, lr}
	b	_ZN8opendnp38OContext19ProcessRequestNoAckERKNS_10APDUHeaderERKN7openpal6RSliceE(PLT)
.L974:
	ldrb	ip, [r4, #1]	@ zero_extendqisi2
	ldrb	r0, [r4, #2]	@ zero_extendqisi2
	ldrb	r3, [r4]	@ zero_extendqisi2
	ldrb	r1, [r4, #3]	@ zero_extendqisi2
	ldrb	lr, [r4, #5]	@ zero_extendqisi2
	ldrb	r2, [r4, #4]	@ zero_extendqisi2
	orr	r3, r3, ip, lsl #8
	ldr	ip, [r6, #4]
	orr	r3, r3, r0, lsl #16
	orr	r1, r3, r1, lsl #24
	str	ip, [sp]
	add	r0, r5, #516
	orr	r2, r2, lr, lsl #8
	ldr	r3, [r6]
	bl	_ZN8opendnp315DeferredRequest3SetENS_10APDUHeaderEN7openpal6RSliceE(PLT)
	add	sp, sp, #8
	@ sp needed
	pop	{r4, r5, r6, pc}
	.fnend
	.size	_ZN8opendnp38OContext11ProcessAPDUERKN7openpal6RSliceERKNS_10APDUHeaderES4_, .-_ZN8opendnp38OContext11ProcessAPDUERKN7openpal6RSliceERKNS_10APDUHeaderES4_
	.align	2
	.global	_ZN8opendnp38OContext11ParseHeaderERKN7openpal6RSliceE
	.syntax unified
	.arm
	.fpu vfp
	.type	_ZN8opendnp38OContext11ParseHeaderERKN7openpal6RSliceE, %function
_ZN8opendnp38OContext11ParseHeaderERKN7openpal6RSliceE:
	.fnstart
.LFB2801:
	@ args = 0, pretend = 0, frame = 152
	@ frame_needed = 0, uses_anonymous_args = 0
	push	{r4, r5, r6, r7, r8, r9, r10, fp, lr}
	.save {r4, r5, r6, r7, r8, r9, r10, fp, lr}
	.pad #180
	sub	sp, sp, #180
	add	r4, sp, #176
	add	r6, r0, #4
	mov	r5, #32768
	str	r5, [r4, #-120]!
	mov	r8, r0
	mov	r7, r1
	mov	r0, r6
	mov	r1, r4
	bl	_ZNK7openpal6Logger9IsEnabledERKNS_10LogFiltersE(PLT)
	cmp	r0, #0
	bne	.L1003
.L977:
	add	r5, sp, #176
	mov	r3, #0
	mov	r2, #1
	mvn	r1, #0
	strb	r1, [r5, #-128]!
	add	r0, sp, #49
	mov	r1, r2
	str	r3, [sp, #4]
	str	r3, [sp]
	bl	_ZN8opendnp315AppControlFieldC1Ebbbbh(PLT)
	mov	r2, r6
	mov	r1, r5
	mov	r0, r7
	bl	_ZN8opendnp316APDUHeaderParser12ParseRequestERKN7openpal6RSliceERNS_10APDUHeaderEPNS1_6LoggerE(PLT)
	cmp	r0, #0
	bne	.L1004
.L976:
	add	sp, sp, #180
	@ sp needed
	pop	{r4, r5, r6, r7, r8, r9, r10, fp, pc}
.L1003:
	mov	r3, #18
	str	r3, [sp]
	mov	r2, r7
	mov	r1, r4
	mov	r0, r6
	str	r5, [sp, #56]
	bl	_ZN7openpal6LogHexERNS_6LoggerERKNS_10LogFiltersERKNS_6RSliceEjj(PLT)
	b	.L977
.L1004:
	mov	r9, #2048
	mov	r1, r4
	mov	r0, r6
	str	r9, [sp, #56]
	bl	_ZNK7openpal6Logger9IsEnabledERKNS_10LogFiltersE(PLT)
	cmp	r0, #0
	bne	.L1005
.L979:
	ldrb	r3, [sp, #49]	@ zero_extendqisi2
	cmp	r3, #0
	beq	.L980
	ldrb	r3, [sp, #50]	@ zero_extendqisi2
	cmp	r3, #0
	beq	.L980
	ldrb	r3, [sp, #51]	@ zero_extendqisi2
	cmp	r3, #0
	bne	.L980
	mov	r1, r7
	mov	r0, r4
	mov	r2, #2
	bl	_ZNK7openpal6RSlice4SkipEj(PLT)
	mov	r3, r4
	mov	r2, r5
	mov	r1, r7
	mov	r0, r8
	bl	_ZN8opendnp38OContext11ProcessAPDUERKN7openpal6RSliceERKNS_10APDUHeaderES4_(PLT)
	add	sp, sp, #180
	@ sp needed
	pop	{r4, r5, r6, r7, r8, r9, r10, fp, pc}
.L980:
	mov	r5, #4
	mov	r1, r4
	mov	r0, r6
	str	r5, [sp, #56]
	bl	_ZNK7openpal6Logger9IsEnabledERKNS_10LogFiltersE(PLT)
	cmp	r0, #0
	beq	.L976
	ldr	r3, .L1006
	ldr	r2, .L1006+4
	mov	r1, r4
	mov	r0, r6
.LPIC52:
	add	r3, pc, r3
.LPIC53:
	add	r2, pc, r2
	str	r5, [sp, #56]
	bl	_ZN7openpal6Logger3LogERKNS_10LogFiltersEPKcS5_(PLT)
	b	.L976
.L1005:
	ldrb	r3, [sp, #51]	@ zero_extendqisi2
	ldrb	r1, [sp, #52]	@ zero_extendqisi2
	ldrb	r2, [sp, #53]	@ zero_extendqisi2
	ldrb	r0, [sp, #48]	@ zero_extendqisi2
	ldrb	r10, [sp, #49]	@ zero_extendqisi2
	ldrb	fp, [sp, #50]	@ zero_extendqisi2
	str	r3, [sp, #36]
	str	r1, [sp, #32]
	str	r2, [sp, #28]
	bl	_ZN8opendnp320FunctionCodeToStringENS_12FunctionCodeE(PLT)
	ldr	r2, [sp, #28]
	ldr	r1, [sp, #32]
	ldr	r3, [sp, #36]
	str	r2, [sp, #12]
	ldr	r2, .L1006+8
	str	r1, [sp, #8]
	str	r3, [sp, #4]
	str	fp, [sp]
	mov	r3, r10
.LPIC50:
	add	r2, pc, r2
	mov	r1, #120
	str	r0, [sp, #16]
	mov	r0, r4
	bl	snprintf(PLT)
	add	r1, sp, #176
	ldr	r2, .L1006+12
	mov	r3, r4
	str	r9, [r1, #-132]!
.LPIC51:
	add	r2, pc, r2
	mov	r0, r6
	bl	_ZN7openpal6Logger3LogERKNS_10LogFiltersEPKcS5_(PLT)
	b	.L979
.L1007:
	.align	2
.L1006:
	.word	.LC12-(.LPIC52+8)
	.word	.LC13-(.LPIC53+8)
	.word	.LC10-(.LPIC50+8)
	.word	.LC11-(.LPIC51+8)
	.fnend
	.size	_ZN8opendnp38OContext11ParseHeaderERKN7openpal6RSliceE, .-_ZN8opendnp38OContext11ParseHeaderERKN7openpal6RSliceE
	.align	2
	.global	_ZN8opendnp38OContext9OnReceiveERKN7openpal6RSliceE
	.syntax unified
	.arm
	.fpu vfp
	.type	_ZN8opendnp38OContext9OnReceiveERKN7openpal6RSliceE, %function
_ZN8opendnp38OContext9OnReceiveERKN7openpal6RSliceE:
	.fnstart
.LFB2780:
	@ args = 0, pretend = 0, frame = 8
	@ frame_needed = 0, uses_anonymous_args = 0
	push	{r4, r5, r6, r7, lr}
	.save {r4, r5, r6, r7, lr}
	mov	r4, r0
	ldrb	r5, [r0, #488]	@ zero_extendqisi2
	.pad #12
	sub	sp, sp, #12
	cmp	r5, #0
	bne	.L1009
	add	r6, sp, #8
	add	r4, r0, #4
	mov	r7, #2
	str	r7, [r6, #-4]!
	mov	r0, r4
	mov	r1, r6
	bl	_ZNK7openpal6Logger9IsEnabledERKNS_10LogFiltersE(PLT)
	cmp	r0, #0
	bne	.L1015
	add	sp, sp, #12
	@ sp needed
	pop	{r4, r5, r6, r7, pc}
.L1009:
	bl	_ZN8opendnp38OContext11ParseHeaderERKN7openpal6RSliceE(PLT)
	mov	r0, r4
	bl	_ZN8opendnp38OContext17CheckForTaskStartEv(PLT)
	mov	r0, r5
	add	sp, sp, #12
	@ sp needed
	pop	{r4, r5, r6, r7, pc}
.L1015:
	ldr	r3, .L1016
	ldr	r2, .L1016+4
	mov	r0, r4
	mov	r1, r6
.LPIC54:
	add	r3, pc, r3
.LPIC55:
	add	r2, pc, r2
	str	r7, [sp, #4]
	bl	_ZN7openpal6Logger3LogERKNS_10LogFiltersEPKcS5_(PLT)
	mov	r0, r5
	add	sp, sp, #12
	@ sp needed
	pop	{r4, r5, r6, r7, pc}
.L1017:
	.align	2
.L1016:
	.word	.LC14-(.LPIC54+8)
	.word	.LC15-(.LPIC55+8)
	.fnend
	.size	_ZN8opendnp38OContext9OnReceiveERKN7openpal6RSliceE, .-_ZN8opendnp38OContext9OnReceiveERKN7openpal6RSliceE
	.align	2
	.global	_ZN8opendnp38OContext12HandleSelectERKN7openpal6RSliceERNS_12HeaderWriterE
	.syntax unified
	.arm
	.fpu vfp
	.type	_ZN8opendnp38OContext12HandleSelectERKN7openpal6RSliceERNS_12HeaderWriterE, %function
_ZN8opendnp38OContext12HandleSelectERKN7openpal6RSliceERNS_12HeaderWriterE:
	.fnstart
.LFB2811:
	@ args = 0, pretend = 0, frame = 152
	@ frame_needed = 0, uses_anonymous_args = 0
	push	{r4, r5, r6, r7, r8, lr}
	.save {r4, r5, r6, r7, r8, lr}
	mov	r5, r0
	.pad #160
	sub	sp, sp, #160
	mov	r0, r2
	ldr	r4, [r1]
	mov	r6, r1
	mov	r7, r2
.LEHB16:
	bl	_ZNK8opendnp312HeaderWriter9RemainingEv(PLT)
	cmp	r0, r4
	bcs	.L1019
	add	r4, sp, #160
	add	r5, r5, #4
	mov	r7, #4
	str	r7, [r4, #-120]!
	mov	r0, r5
	mov	r1, r4
	bl	_ZNK7openpal6Logger9IsEnabledERKNS_10LogFiltersE(PLT)
	cmp	r0, #0
	bne	.L1033
.L1020:
	mov	r3, #0
	mov	r0, r4
	mov	r1, #10
	strb	r3, [sp, #40]
	strb	r3, [sp, #41]
	bl	_ZN8opendnp38IINField6SetBitENS_6IINBitE(PLT)
	ldrh	r3, [sp, #40]
	strh	r3, [sp, #16]	@ movhi
.L1021:
	ldrb	r3, [sp, #17]	@ zero_extendqisi2
	ldrb	r0, [sp, #16]	@ zero_extendqisi2
	orr	r0, r0, r3, lsl #8
	add	sp, sp, #160
	@ sp needed
	pop	{r4, r5, r6, r7, r8, pc}
.L1019:
	mov	r3, #1
	add	r8, sp, #28
	mov	r2, r3
	ldr	r1, [r5, #36]
	mov	r0, r8
	add	r4, sp, #40
	bl	_ZN8opendnp320CommandActionAdapterC1EPNS_15ICommandHandlerEbNS_11OperateTypeE(PLT)
.LEHE16:
	mov	r3, r7
	mov	r2, r8
	mov	r0, r4
	ldrb	r1, [r5, #433]	@ zero_extendqisi2
.LEHB17:
	bl	_ZN8opendnp322CommandResponseHandlerC1EhPNS_14ICommandActionEPNS_12HeaderWriterE(PLT)
	mov	r3, #1
	mov	ip, #8192
	strb	r3, [sp, #20]
	ldr	r3, [sp, #20]
	str	ip, [sp]
	add	r2, r5, #4
	mov	r1, r4
	mov	r0, r6
	str	ip, [sp, #24]
	bl	_ZN8opendnp310APDUParser5ParseERKN7openpal6RSliceERNS_12IAPDUHandlerEPNS1_6LoggerENS_14ParserSettingsE(PLT)
	cmp	r0, #0
	bne	.L1022
	ldr	r2, [sp, #60]
	ldr	r3, [sp, #64]
	cmp	r2, r3
	beq	.L1034
.L1023:
	mov	r0, r4
	bl	_ZNK8opendnp312IAPDUHandler6ErrorsEv(PLT)
.LEHE17:
.L1032:
	strh	r0, [sp, #16]	@ movhi
	mov	r0, r8
	bl	_ZN8opendnp320CommandActionAdapterD1Ev(PLT)
	b	.L1021
.L1033:
	ldr	r2, .L1035
	ldr	r3, [r6]
.LPIC56:
	add	r2, pc, r2
	mov	r1, #120
	mov	r0, r4
	bl	snprintf(PLT)
	add	r1, sp, #160
	ldr	r2, .L1035+4
	mov	r0, r5
	str	r7, [r1, #-132]!
	mov	r3, r4
.LPIC57:
	add	r2, pc, r2
.LEHB18:
	bl	_ZN7openpal6Logger3LogERKNS_10LogFiltersEPKcS5_(PLT)
.LEHE18:
	b	.L1020
.L1022:
.LEHB19:
	bl	_ZN8opendnp318IINFromParseResultENS_11ParseResultE(PLT)
	b	.L1032
.L1034:
	ldr	r3, [r5, #20]
	add	r0, sp, #8
	mov	r1, r3
	ldr	r3, [r3]
	ldr	r3, [r3, #8]
	blx	r3
	ldrd	r2, [sp, #8]
	add	r7, r5, #544
	mov	r0, r6
	strd	r2, [r7, #8]
	ldrb	r3, [r5, #568]	@ zero_extendqisi2
	add	r3, r3, #1
	and	r3, r3, #15
	strb	r3, [r5, #544]
	bl	_ZN8opendnp33CRC7CalcCrcERKN7openpal6RSliceE(PLT)
.LEHE19:
	ldr	r3, [r6]
	strh	r0, [r7, #16]	@ movhi
	str	r3, [r5, #564]
	b	.L1023
.L1026:
	mov	r0, r8
	bl	_ZN8opendnp320CommandActionAdapterD1Ev(PLT)
.LEHB20:
	bl	__cxa_end_cleanup(PLT)
.LEHE20:
.L1036:
	.align	2
.L1035:
	.word	.LC16-(.LPIC56+8)
	.word	.LC17-(.LPIC57+8)
	.personality	__gxx_personality_v0
	.handlerdata
.LLSDA2811:
	.byte	0xff
	.byte	0xff
	.byte	0x1
	.uleb128 .LLSDACSE2811-.LLSDACSB2811
.LLSDACSB2811:
	.uleb128 .LEHB16-.LFB2811
	.uleb128 .LEHE16-.LEHB16
	.uleb128 0
	.uleb128 0
	.uleb128 .LEHB17-.LFB2811
	.uleb128 .LEHE17-.LEHB17
	.uleb128 .L1026-.LFB2811
	.uleb128 0
	.uleb128 .LEHB18-.LFB2811
	.uleb128 .LEHE18-.LEHB18
	.uleb128 0
	.uleb128 0
	.uleb128 .LEHB19-.LFB2811
	.uleb128 .LEHE19-.LEHB19
	.uleb128 .L1026-.LFB2811
	.uleb128 0
	.uleb128 .LEHB20-.LFB2811
	.uleb128 .LEHE20-.LEHB20
	.uleb128 0
	.uleb128 0
.LLSDACSE2811:
	.text
	.fnend
	.size	_ZN8opendnp38OContext12HandleSelectERKN7openpal6RSliceERNS_12HeaderWriterE, .-_ZN8opendnp38OContext12HandleSelectERKN7openpal6RSliceERNS_12HeaderWriterE
	.align	2
	.global	_ZN8opendnp38OContext13HandleOperateERKN7openpal6RSliceERNS_12HeaderWriterE
	.syntax unified
	.arm
	.fpu vfp
	.type	_ZN8opendnp38OContext13HandleOperateERKN7openpal6RSliceERNS_12HeaderWriterE, %function
_ZN8opendnp38OContext13HandleOperateERKN7openpal6RSliceERNS_12HeaderWriterE:
	.fnstart
.LFB2812:
	@ args = 0, pretend = 0, frame = 152
	@ frame_needed = 0, uses_anonymous_args = 0
	push	{r4, r5, r6, r7, r8, lr}
	.save {r4, r5, r6, r7, r8, lr}
	mov	r4, r0
	.pad #160
	sub	sp, sp, #160
	mov	r0, r2
	ldr	r5, [r1]
	mov	r7, r1
	mov	r6, r2
.LEHB21:
	bl	_ZNK8opendnp312HeaderWriter9RemainingEv(PLT)
	cmp	r0, r5
	bcs	.L1038
	add	r5, sp, #160
	add	r4, r4, #4
	mov	r6, #4
	str	r6, [r5, #-120]!
	mov	r0, r4
	mov	r1, r5
	bl	_ZNK7openpal6Logger9IsEnabledERKNS_10LogFiltersE(PLT)
	cmp	r0, #0
	bne	.L1062
.L1039:
	mov	r3, #0
	mov	r0, r5
	mov	r1, #10
	strb	r3, [sp, #40]
	strb	r3, [sp, #41]
	bl	_ZN8opendnp38IINField6SetBitENS_6IINBitE(PLT)
	ldrh	r3, [sp, #40]
	strh	r3, [sp, #16]	@ movhi
.L1040:
	ldrb	r3, [sp, #17]	@ zero_extendqisi2
	ldrb	r0, [sp, #16]	@ zero_extendqisi2
	orr	r0, r0, r3, lsl #8
	add	sp, sp, #160
	@ sp needed
	pop	{r4, r5, r6, r7, r8, pc}
.L1038:
	ldr	r3, [r4, #20]
	add	r0, sp, #8
	mov	r1, r3
	ldr	r3, [r3]
	ldr	r3, [r3, #8]
	blx	r3
	ldrb	r2, [r4, #568]	@ zero_extendqisi2
	ldrb	r3, [r4, #544]	@ zero_extendqisi2
	ldrd	r0, [sp, #8]
	cmp	r2, r3
	beq	.L1063
.L1041:
	mov	r3, #2
.L1042:
	mov	r2, r6
	mov	r1, r7
	mov	r0, r4
	bl	_ZN8opendnp38OContext25HandleCommandWithConstantERKN7openpal6RSliceERNS_12HeaderWriterENS_13CommandStatusE(PLT)
	strh	r0, [sp, #16]	@ movhi
	b	.L1040
.L1062:
	ldr	r2, .L1064
	ldr	r3, [r7]
.LPIC58:
	add	r2, pc, r2
	mov	r1, #120
	mov	r0, r5
	bl	snprintf(PLT)
	add	r1, sp, #160
	ldr	r2, .L1064+4
	mov	r0, r4
	str	r6, [r1, #-132]!
	mov	r3, r5
.LPIC59:
	add	r2, pc, r2
	bl	_ZN7openpal6Logger3LogERKNS_10LogFiltersEPKcS5_(PLT)
	b	.L1039
.L1063:
	add	lr, r4, #544
	ldrd	r2, [lr, #8]
	cmp	r0, r2
	sbcs	ip, r1, r3
	blt	.L1051
	add	ip, r4, #448
	subs	r0, r0, r2
	sbc	r1, r1, r3
	ldrd	r2, [ip, #-8]
	cmp	r0, r2
	sbcs	r3, r1, r3
	bge	.L1051
	ldr	r2, [r4, #564]
	ldr	r3, [r7]
	cmp	r2, r3
	bne	.L1041
	mov	r0, r7
	ldrh	r5, [lr, #16]
	bl	_ZN8opendnp33CRC7CalcCrcERKN7openpal6RSliceE(PLT)
	cmp	r5, r0
	bne	.L1041
	mov	r3, #0
	add	r8, sp, #28
	mov	r2, r3
	ldr	r1, [r4, #36]
	mov	r0, r8
	add	r5, sp, #40
	bl	_ZN8opendnp320CommandActionAdapterC1EPNS_15ICommandHandlerEbNS_11OperateTypeE(PLT)
.LEHE21:
	mov	r3, r6
	mov	r2, r8
	mov	r0, r5
	ldrb	r1, [r4, #433]	@ zero_extendqisi2
.LEHB22:
	bl	_ZN8opendnp322CommandResponseHandlerC1EhPNS_14ICommandActionEPNS_12HeaderWriterE(PLT)
	mov	r3, #1
	mov	r1, #8192
	strb	r3, [sp, #20]
	str	r1, [sp]
	add	r2, r4, #4
	mov	r0, r7
	ldr	r3, [sp, #20]
	mov	r1, r5
	bl	_ZN8opendnp310APDUParser5ParseERKN7openpal6RSliceERNS_12IAPDUHandlerEPNS1_6LoggerENS_14ParserSettingsE(PLT)
	cmp	r0, #0
	bne	.L1045
	mov	r0, r5
	bl	_ZNK8opendnp312IAPDUHandler6ErrorsEv(PLT)
.L1059:
	strh	r0, [sp, #16]	@ movhi
	mov	r0, r8
	bl	_ZN8opendnp320CommandActionAdapterD1Ev(PLT)
	b	.L1040
.L1051:
	mov	r3, #1
	b	.L1042
.L1045:
	bl	_ZN8opendnp318IINFromParseResultENS_11ParseResultE(PLT)
.LEHE22:
	b	.L1059
.L1052:
	mov	r0, r8
	bl	_ZN8opendnp320CommandActionAdapterD1Ev(PLT)
.LEHB23:
	bl	__cxa_end_cleanup(PLT)
.LEHE23:
.L1065:
	.align	2
.L1064:
	.word	.LC16-(.LPIC58+8)
	.word	.LC18-(.LPIC59+8)
	.personality	__gxx_personality_v0
	.handlerdata
.LLSDA2812:
	.byte	0xff
	.byte	0xff
	.byte	0x1
	.uleb128 .LLSDACSE2812-.LLSDACSB2812
.LLSDACSB2812:
	.uleb128 .LEHB21-.LFB2812
	.uleb128 .LEHE21-.LEHB21
	.uleb128 0
	.uleb128 0
	.uleb128 .LEHB22-.LFB2812
	.uleb128 .LEHE22-.LEHB22
	.uleb128 .L1052-.LFB2812
	.uleb128 0
	.uleb128 .LEHB23-.LFB2812
	.uleb128 .LEHE23-.LEHB23
	.uleb128 0
	.uleb128 0
.LLSDACSE2812:
	.text
	.fnend
	.size	_ZN8opendnp38OContext13HandleOperateERKN7openpal6RSliceERNS_12HeaderWriterE, .-_ZN8opendnp38OContext13HandleOperateERKN7openpal6RSliceERNS_12HeaderWriterE
	.align	2
	.global	_ZN8opendnp38OContext21HandleNonReadResponseERKNS_10APDUHeaderERKN7openpal6RSliceERNS_12HeaderWriterE
	.syntax unified
	.arm
	.fpu vfp
	.type	_ZN8opendnp38OContext21HandleNonReadResponseERKNS_10APDUHeaderERKN7openpal6RSliceERNS_12HeaderWriterE, %function
_ZN8opendnp38OContext21HandleNonReadResponseERKNS_10APDUHeaderERKN7openpal6RSliceERNS_12HeaderWriterE:
	.fnstart
.LFB2807:
	@ args = 0, pretend = 0, frame = 8
	@ frame_needed = 0, uses_anonymous_args = 0
	ldrb	ip, [r1]	@ zero_extendqisi2
	str	lr, [sp, #-4]!
	.save {lr}
	mov	r1, r2
	sub	ip, ip, #2
	.pad #12
	sub	sp, sp, #12
	cmp	ip, #21
	addls	pc, pc, ip, asl #2
	b	.L1067
.L1069:
	b	.L1068
	b	.L1070
	b	.L1071
	b	.L1072
	b	.L1067
	b	.L1067
	b	.L1067
	b	.L1067
	b	.L1067
	b	.L1067
	b	.L1067
	b	.L1073
	b	.L1074
	b	.L1067
	b	.L1067
	b	.L1067
	b	.L1067
	b	.L1067
	b	.L1075
	b	.L1076
	b	.L1077
	b	.L1078
	.p2align 1
.L1078:
	mov	r2, r3
	bl	_ZN8opendnp38OContext18HandleDelayMeasureERKN7openpal6RSliceERNS_12HeaderWriterE(PLT)
	strh	r0, [sp, #4]	@ movhi
.L1079:
	ldrb	r0, [sp, #5]	@ zero_extendqisi2
	ldrb	r3, [sp, #4]	@ zero_extendqisi2
	orr	r0, r3, r0, lsl #8
	add	sp, sp, #12
	@ sp needed
	ldr	pc, [sp], #4
.L1068:
	bl	_ZN8opendnp38OContext11HandleWriteERKN7openpal6RSliceE(PLT)
	strh	r0, [sp, #4]	@ movhi
	b	.L1079
.L1070:
	mov	r2, r3
	bl	_ZN8opendnp38OContext12HandleSelectERKN7openpal6RSliceERNS_12HeaderWriterE(PLT)
	strh	r0, [sp, #4]	@ movhi
	b	.L1079
.L1071:
	mov	r2, r3
	bl	_ZN8opendnp38OContext13HandleOperateERKN7openpal6RSliceERNS_12HeaderWriterE(PLT)
	strh	r0, [sp, #4]	@ movhi
	b	.L1079
.L1072:
	mov	r2, #1
	bl	_ZN8opendnp38OContext19HandleDirectOperateERKN7openpal6RSliceENS_11OperateTypeEPNS_12HeaderWriterE(PLT)
	strh	r0, [sp, #4]	@ movhi
	b	.L1079
.L1073:
	mov	r2, #0
	bl	_ZN8opendnp38OContext13HandleRestartERKN7openpal6RSliceEbPNS_12HeaderWriterE(PLT)
	strh	r0, [sp, #4]	@ movhi
	b	.L1079
.L1074:
	mov	r2, #1
	bl	_ZN8opendnp38OContext13HandleRestartERKN7openpal6RSliceEbPNS_12HeaderWriterE(PLT)
	strh	r0, [sp, #4]	@ movhi
	b	.L1079
.L1075:
	ldrb	r2, [r0, #480]	@ zero_extendqisi2
	cmp	r2, #0
	beq	.L1080
	mov	r2, r3
	bl	_ZN8opendnp38OContext23HandleEnableUnsolicitedERKN7openpal6RSliceERNS_12HeaderWriterE(PLT)
	strh	r0, [sp, #4]	@ movhi
	b	.L1079
.L1076:
	ldrb	r2, [r0, #480]	@ zero_extendqisi2
	cmp	r2, #0
	beq	.L1080
	mov	r2, r3
	bl	_ZN8opendnp38OContext24HandleDisableUnsolicitedERKN7openpal6RSliceERNS_12HeaderWriterE(PLT)
	strh	r0, [sp, #4]	@ movhi
	b	.L1079
.L1077:
	bl	_ZN8opendnp38OContext17HandleAssignClassERKN7openpal6RSliceE(PLT)
	strh	r0, [sp, #4]	@ movhi
	b	.L1079
.L1067:
	mov	r3, #0
	mov	r1, #8
	mov	r0, sp
	strb	r3, [sp]
	strb	r3, [sp, #1]
	bl	_ZN8opendnp38IINField6SetBitENS_6IINBitE(PLT)
	ldrh	r3, [sp]
	strh	r3, [sp, #4]	@ movhi
	b	.L1079
.L1080:
	mov	r3, #0
	mov	r1, #8
	add	r0, sp, #4
	strb	r3, [sp, #4]
	strb	r3, [sp, #5]
	bl	_ZN8opendnp38IINField6SetBitENS_6IINBitE(PLT)
	b	.L1079
	.fnend
	.size	_ZN8opendnp38OContext21HandleNonReadResponseERKNS_10APDUHeaderERKN7openpal6RSliceERNS_12HeaderWriterE, .-_ZN8opendnp38OContext21HandleNonReadResponseERKNS_10APDUHeaderERKN7openpal6RSliceERNS_12HeaderWriterE
	.align	2
	.global	_ZN8opendnp38OContext23RespondToNonReadRequestERKNS_10APDUHeaderERKN7openpal6RSliceE
	.syntax unified
	.arm
	.fpu vfp
	.type	_ZN8opendnp38OContext23RespondToNonReadRequestERKNS_10APDUHeaderERKN7openpal6RSliceE, %function
_ZN8opendnp38OContext23RespondToNonReadRequestERKNS_10APDUHeaderERKN7openpal6RSliceE:
	.fnstart
.LFB2795:
	@ args = 0, pretend = 0, frame = 56
	@ frame_needed = 0, uses_anonymous_args = 0
	push	{r4, r5, r6, r7, r8, r9, lr}
	.save {r4, r5, r6, r7, r8, r9, lr}
	.pad #68
	sub	sp, sp, #68
	mov	r7, r0
	add	r6, sp, #28
	add	r0, r0, #500
	mov	r9, r2
	add	r4, sp, #44
	mov	r8, r1
	bl	_ZN8opendnp314RequestHistory26RecordLastProcessedRequestERKNS_10APDUHeaderERKN7openpal6RSliceE(PLT)
	add	r1, r7, #588
	mov	r0, r6
	bl	_ZN7openpal6Buffer9GetWSliceEv(PLT)
	mov	r1, r6
	mov	r0, r4
	bl	_ZN8opendnp312APDUResponseC1ERKN7openpal6WSliceE(PLT)
	mov	r1, r4
	mov	r0, r6
	bl	_ZN8opendnp311APDUWrapper9GetWriterEv(PLT)
	mov	r0, r4
	mov	r1, #129
	bl	_ZN8opendnp311APDUWrapper11SetFunctionENS_12FunctionCodeE(PLT)
	ldrb	r1, [r8, #5]	@ zero_extendqisi2
	add	r5, sp, #20
	mov	r3, #0
	mov	r2, #1
	str	r3, [sp]
	str	r1, [sp, #4]
	mov	r0, r5
	mov	r1, r2
	bl	_ZN8opendnp315AppControlFieldC1Ebbbbh(PLT)
	ldm	r5, {r1, r2}
	mov	r0, r4
	bl	_ZN8opendnp311APDUWrapper10SetControlENS_15AppControlFieldE(PLT)
	mov	r3, r6
	mov	r2, r9
	mov	r1, r8
	mov	r0, r7
	bl	_ZN8opendnp38OContext21HandleNonReadResponseERKNS_10APDUHeaderERKN7openpal6RSliceERNS_12HeaderWriterE(PLT)
	add	r6, sp, #12
	strh	r0, [sp, #8]	@ movhi
	mov	r0, r7
	bl	_ZN8opendnp38OContext14GetResponseIINEv(PLT)
	ldrb	r2, [sp, #9]	@ zero_extendqisi2
	ldrb	r3, [sp, #8]	@ zero_extendqisi2
	mov	r1, r5
	mov	ip, r0	@ movhi
	uxth	r0, r0
	orr	r3, r3, ip
	orr	r2, r2, r0, lsr #8
	mov	r0, r4
	strh	ip, [sp, #12]	@ movhi
	strb	r2, [sp, #21]
	strb	r3, [sp, #20]
	bl	_ZN8opendnp312APDUResponse6SetIINERKNS_8IINFieldE(PLT)
	mov	r1, r4
	mov	r0, r6
	bl	_ZNK8opendnp311APDUWrapper10GetControlEv(PLT)
	mov	r1, r4
	mov	r0, r5
	bl	_ZNK8opendnp311APDUWrapper8ToRSliceEv(PLT)
	mov	r2, r5
	mov	r1, r6
	mov	r0, r7
	bl	_ZN8opendnp38OContext15BeginResponseTxERKNS_15AppControlFieldERKN7openpal6RSliceE(PLT)
	add	sp, sp, #68
	@ sp needed
	pop	{r4, r5, r6, r7, r8, r9, pc}
	.fnend
	.size	_ZN8opendnp38OContext23RespondToNonReadRequestERKNS_10APDUHeaderERKN7openpal6RSliceE, .-_ZN8opendnp38OContext23RespondToNonReadRequestERKNS_10APDUHeaderERKN7openpal6RSliceE
	.weak	_ZTSN7openpal7HasSizeItEE
	.section	.rodata._ZTSN7openpal7HasSizeItEE,"aG",%progbits,_ZTSN7openpal7HasSizeItEE,comdat
	.align	2
	.type	_ZTSN7openpal7HasSizeItEE, %object
	.size	_ZTSN7openpal7HasSizeItEE, 22
_ZTSN7openpal7HasSizeItEE:
	.ascii	"N7openpal7HasSizeItEE\000"
	.weak	_ZTIN7openpal7HasSizeItEE
	.section	.data.rel.ro._ZTIN7openpal7HasSizeItEE,"awG",%progbits,_ZTIN7openpal7HasSizeItEE,comdat
	.align	2
	.type	_ZTIN7openpal7HasSizeItEE, %object
	.size	_ZTIN7openpal7HasSizeItEE, 8
_ZTIN7openpal7HasSizeItEE:
	.word	_ZTVN10__cxxabiv117__class_type_infoE+8
	.word	_ZTSN7openpal7HasSizeItEE
	.weak	_ZTSN7openpal7HasSizeIjEE
	.section	.rodata._ZTSN7openpal7HasSizeIjEE,"aG",%progbits,_ZTSN7openpal7HasSizeIjEE,comdat
	.align	2
	.type	_ZTSN7openpal7HasSizeIjEE, %object
	.size	_ZTSN7openpal7HasSizeIjEE, 22
_ZTSN7openpal7HasSizeIjEE:
	.ascii	"N7openpal7HasSizeIjEE\000"
	.weak	_ZTIN7openpal7HasSizeIjEE
	.section	.data.rel.ro._ZTIN7openpal7HasSizeIjEE,"awG",%progbits,_ZTIN7openpal7HasSizeIjEE,comdat
	.align	2
	.type	_ZTIN7openpal7HasSizeIjEE, %object
	.size	_ZTIN7openpal7HasSizeIjEE, 8
_ZTIN7openpal7HasSizeIjEE:
	.word	_ZTVN10__cxxabiv117__class_type_infoE+8
	.word	_ZTSN7openpal7HasSizeIjEE
	.weak	_ZTSN7openpal5ArrayIN8opendnp34CellINS1_10BinarySpecEEEtEE
	.section	.rodata._ZTSN7openpal5ArrayIN8opendnp34CellINS1_10BinarySpecEEEtEE,"aG",%progbits,_ZTSN7openpal5ArrayIN8opendnp34CellINS1_10BinarySpecEEEtEE,comdat
	.align	2
	.type	_ZTSN7openpal5ArrayIN8opendnp34CellINS1_10BinarySpecEEEtEE, %object
	.size	_ZTSN7openpal5ArrayIN8opendnp34CellINS1_10BinarySpecEEEtEE, 55
_ZTSN7openpal5ArrayIN8opendnp34CellINS1_10BinarySpecEEEtEE:
	.ascii	"N7openpal5ArrayIN8opendnp34CellINS1_10BinarySpecEEE"
	.ascii	"tEE\000"
	.weak	_ZTSN7openpal5ArrayIN8opendnp34CellINS1_19DoubleBitBinarySpecEEEtEE
	.section	.rodata._ZTSN7openpal5ArrayIN8opendnp34CellINS1_19DoubleBitBinarySpecEEEtEE,"aG",%progbits,_ZTSN7openpal5ArrayIN8opendnp34CellINS1_19DoubleBitBinarySpecEEEtEE,comdat
	.align	2
	.type	_ZTSN7openpal5ArrayIN8opendnp34CellINS1_19DoubleBitBinarySpecEEEtEE, %object
	.size	_ZTSN7openpal5ArrayIN8opendnp34CellINS1_19DoubleBitBinarySpecEEEtEE, 64
_ZTSN7openpal5ArrayIN8opendnp34CellINS1_19DoubleBitBinarySpecEEEtEE:
	.ascii	"N7openpal5ArrayIN8opendnp34CellINS1_19DoubleBitBina"
	.ascii	"rySpecEEEtEE\000"
	.weak	_ZTSN7openpal5ArrayIN8opendnp34CellINS1_10AnalogSpecEEEtEE
	.section	.rodata._ZTSN7openpal5ArrayIN8opendnp34CellINS1_10AnalogSpecEEEtEE,"aG",%progbits,_ZTSN7openpal5ArrayIN8opendnp34CellINS1_10AnalogSpecEEEtEE,comdat
	.align	2
	.type	_ZTSN7openpal5ArrayIN8opendnp34CellINS1_10AnalogSpecEEEtEE, %object
	.size	_ZTSN7openpal5ArrayIN8opendnp34CellINS1_10AnalogSpecEEEtEE, 55
_ZTSN7openpal5ArrayIN8opendnp34CellINS1_10AnalogSpecEEEtEE:
	.ascii	"N7openpal5ArrayIN8opendnp34CellINS1_10AnalogSpecEEE"
	.ascii	"tEE\000"
	.weak	_ZTSN7openpal5ArrayIN8opendnp34CellINS1_11CounterSpecEEEtEE
	.section	.rodata._ZTSN7openpal5ArrayIN8opendnp34CellINS1_11CounterSpecEEEtEE,"aG",%progbits,_ZTSN7openpal5ArrayIN8opendnp34CellINS1_11CounterSpecEEEtEE,comdat
	.align	2
	.type	_ZTSN7openpal5ArrayIN8opendnp34CellINS1_11CounterSpecEEEtEE, %object
	.size	_ZTSN7openpal5ArrayIN8opendnp34CellINS1_11CounterSpecEEEtEE, 56
_ZTSN7openpal5ArrayIN8opendnp34CellINS1_11CounterSpecEEEtEE:
	.ascii	"N7openpal5ArrayIN8opendnp34CellINS1_11CounterSpecEE"
	.ascii	"EtEE\000"
	.weak	_ZTSN7openpal5ArrayIN8opendnp34CellINS1_17FrozenCounterSpecEEEtEE
	.section	.rodata._ZTSN7openpal5ArrayIN8opendnp34CellINS1_17FrozenCounterSpecEEEtEE,"aG",%progbits,_ZTSN7openpal5ArrayIN8opendnp34CellINS1_17FrozenCounterSpecEEEtEE,comdat
	.align	2
	.type	_ZTSN7openpal5ArrayIN8opendnp34CellINS1_17FrozenCounterSpecEEEtEE, %object
	.size	_ZTSN7openpal5ArrayIN8opendnp34CellINS1_17FrozenCounterSpecEEEtEE, 62
_ZTSN7openpal5ArrayIN8opendnp34CellINS1_17FrozenCounterSpecEEEtEE:
	.ascii	"N7openpal5ArrayIN8opendnp34CellINS1_17FrozenCounter"
	.ascii	"SpecEEEtEE\000"
	.weak	_ZTSN7openpal5ArrayIN8opendnp34CellINS1_22BinaryOutputStatusSpecEEEtEE
	.section	.rodata._ZTSN7openpal5ArrayIN8opendnp34CellINS1_22BinaryOutputStatusSpecEEEtEE,"aG",%progbits,_ZTSN7openpal5ArrayIN8opendnp34CellINS1_22BinaryOutputStatusSpecEEEtEE,comdat
	.align	2
	.type	_ZTSN7openpal5ArrayIN8opendnp34CellINS1_22BinaryOutputStatusSpecEEEtEE, %object
	.size	_ZTSN7openpal5ArrayIN8opendnp34CellINS1_22BinaryOutputStatusSpecEEEtEE, 67
_ZTSN7openpal5ArrayIN8opendnp34CellINS1_22BinaryOutputStatusSpecEEEtEE:
	.ascii	"N7openpal5ArrayIN8opendnp34CellINS1_22BinaryOutputS"
	.ascii	"tatusSpecEEEtEE\000"
	.weak	_ZTSN7openpal5ArrayIN8opendnp34CellINS1_22AnalogOutputStatusSpecEEEtEE
	.section	.rodata._ZTSN7openpal5ArrayIN8opendnp34CellINS1_22AnalogOutputStatusSpecEEEtEE,"aG",%progbits,_ZTSN7openpal5ArrayIN8opendnp34CellINS1_22AnalogOutputStatusSpecEEEtEE,comdat
	.align	2
	.type	_ZTSN7openpal5ArrayIN8opendnp34CellINS1_22AnalogOutputStatusSpecEEEtEE, %object
	.size	_ZTSN7openpal5ArrayIN8opendnp34CellINS1_22AnalogOutputStatusSpecEEEtEE, 67
_ZTSN7openpal5ArrayIN8opendnp34CellINS1_22AnalogOutputStatusSpecEEEtEE:
	.ascii	"N7openpal5ArrayIN8opendnp34CellINS1_22AnalogOutputS"
	.ascii	"tatusSpecEEEtEE\000"
	.weak	_ZTSN7openpal5ArrayIN8opendnp34CellINS1_19TimeAndIntervalSpecEEEtEE
	.section	.rodata._ZTSN7openpal5ArrayIN8opendnp34CellINS1_19TimeAndIntervalSpecEEEtEE,"aG",%progbits,_ZTSN7openpal5ArrayIN8opendnp34CellINS1_19TimeAndIntervalSpecEEEtEE,comdat
	.align	2
	.type	_ZTSN7openpal5ArrayIN8opendnp34CellINS1_19TimeAndIntervalSpecEEEtEE, %object
	.size	_ZTSN7openpal5ArrayIN8opendnp34CellINS1_19TimeAndIntervalSpecEEEtEE, 64
_ZTSN7openpal5ArrayIN8opendnp34CellINS1_19TimeAndIntervalSpecEEEtEE:
	.ascii	"N7openpal5ArrayIN8opendnp34CellINS1_19TimeAndInterv"
	.ascii	"alSpecEEEtEE\000"
	.weak	_ZTSN7openpal5ArrayINS_8ListNodeIN8opendnp39SOERecordEEEjEE
	.section	.rodata._ZTSN7openpal5ArrayINS_8ListNodeIN8opendnp39SOERecordEEEjEE,"aG",%progbits,_ZTSN7openpal5ArrayINS_8ListNodeIN8opendnp39SOERecordEEEjEE,comdat
	.align	2
	.type	_ZTSN7openpal5ArrayINS_8ListNodeIN8opendnp39SOERecordEEEjEE, %object
	.size	_ZTSN7openpal5ArrayINS_8ListNodeIN8opendnp39SOERecordEEEjEE, 56
_ZTSN7openpal5ArrayINS_8ListNodeIN8opendnp39SOERecordEEEjEE:
	.ascii	"N7openpal5ArrayINS_8ListNodeIN8opendnp39SOERecordEE"
	.ascii	"EjEE\000"
	.weak	_ZGVN7openpal7Bit16LEItE3MaxE
	.section	.bss._ZGVN7openpal7Bit16LEItE3MaxE,"awG",%nobits,_ZGVN7openpal7Bit16LEItE3MaxE,comdat
	.align	2
	.type	_ZGVN7openpal7Bit16LEItE3MaxE, %gnu_unique_object
	.size	_ZGVN7openpal7Bit16LEItE3MaxE, 4
_ZGVN7openpal7Bit16LEItE3MaxE:
	.space	4
	.weak	_ZN7openpal7Bit16LEItE3MaxE
	.section	.bss._ZN7openpal7Bit16LEItE3MaxE,"awG",%nobits,_ZN7openpal7Bit16LEItE3MaxE,comdat
	.align	1
	.type	_ZN7openpal7Bit16LEItE3MaxE, %gnu_unique_object
	.size	_ZN7openpal7Bit16LEItE3MaxE, 2
_ZN7openpal7Bit16LEItE3MaxE:
	.space	2
	.weak	_ZTSN8opendnp37IUpDownE
	.section	.rodata._ZTSN8opendnp37IUpDownE,"aG",%progbits,_ZTSN8opendnp37IUpDownE,comdat
	.align	2
	.type	_ZTSN8opendnp37IUpDownE, %object
	.size	_ZTSN8opendnp37IUpDownE, 20
_ZTSN8opendnp37IUpDownE:
	.ascii	"N8opendnp37IUpDownE\000"
	.weak	_ZTIN8opendnp37IUpDownE
	.section	.data.rel.ro._ZTIN8opendnp37IUpDownE,"awG",%progbits,_ZTIN8opendnp37IUpDownE,comdat
	.align	2
	.type	_ZTIN8opendnp37IUpDownE, %object
	.size	_ZTIN8opendnp37IUpDownE, 8
_ZTIN8opendnp37IUpDownE:
	.word	_ZTVN10__cxxabiv117__class_type_infoE+8
	.word	_ZTSN8opendnp37IUpDownE
	.weak	_ZTSN8opendnp311IUpperLayerE
	.section	.rodata._ZTSN8opendnp311IUpperLayerE,"aG",%progbits,_ZTSN8opendnp311IUpperLayerE,comdat
	.align	2
	.type	_ZTSN8opendnp311IUpperLayerE, %object
	.size	_ZTSN8opendnp311IUpperLayerE, 25
_ZTSN8opendnp311IUpperLayerE:
	.ascii	"N8opendnp311IUpperLayerE\000"
	.weak	_ZTIN8opendnp311IUpperLayerE
	.section	.data.rel.ro._ZTIN8opendnp311IUpperLayerE,"awG",%progbits,_ZTIN8opendnp311IUpperLayerE,comdat
	.align	2
	.type	_ZTIN8opendnp311IUpperLayerE, %object
	.size	_ZTIN8opendnp311IUpperLayerE, 12
_ZTIN8opendnp311IUpperLayerE:
	.word	_ZTVN10__cxxabiv120__si_class_type_infoE+8
	.word	_ZTSN8opendnp311IUpperLayerE
	.word	_ZTIN8opendnp37IUpDownE
	.weak	_ZTSN7openpal5ArrayIhjEE
	.section	.rodata._ZTSN7openpal5ArrayIhjEE,"aG",%progbits,_ZTSN7openpal5ArrayIhjEE,comdat
	.align	2
	.type	_ZTSN7openpal5ArrayIhjEE, %object
	.size	_ZTSN7openpal5ArrayIhjEE, 21
_ZTSN7openpal5ArrayIhjEE:
	.ascii	"N7openpal5ArrayIhjEE\000"
	.weak	_ZTIN7openpal5ArrayIhjEE
	.section	.data.rel.ro._ZTIN7openpal5ArrayIhjEE,"awG",%progbits,_ZTIN7openpal5ArrayIhjEE,comdat
	.align	2
	.type	_ZTIN7openpal5ArrayIhjEE, %object
	.size	_ZTIN7openpal5ArrayIhjEE, 24
_ZTIN7openpal5ArrayIhjEE:
	.word	_ZTVN10__cxxabiv121__vmi_class_type_infoE+8
	.word	_ZTSN7openpal5ArrayIhjEE
	.word	0
	.word	1
	.word	_ZTIN7openpal7HasSizeIjEE
	.word	1026
	.weak	_ZTIN7openpal5ArrayIN8opendnp34CellINS1_10BinarySpecEEEtEE
	.section	.data.rel.ro._ZTIN7openpal5ArrayIN8opendnp34CellINS1_10BinarySpecEEEtEE,"awG",%progbits,_ZTIN7openpal5ArrayIN8opendnp34CellINS1_10BinarySpecEEEtEE,comdat
	.align	2
	.type	_ZTIN7openpal5ArrayIN8opendnp34CellINS1_10BinarySpecEEEtEE, %object
	.size	_ZTIN7openpal5ArrayIN8opendnp34CellINS1_10BinarySpecEEEtEE, 24
_ZTIN7openpal5ArrayIN8opendnp34CellINS1_10BinarySpecEEEtEE:
	.word	_ZTVN10__cxxabiv121__vmi_class_type_infoE+8
	.word	_ZTSN7openpal5ArrayIN8opendnp34CellINS1_10BinarySpecEEEtEE
	.word	0
	.word	1
	.word	_ZTIN7openpal7HasSizeItEE
	.word	1026
	.weak	_ZTIN7openpal5ArrayIN8opendnp34CellINS1_19DoubleBitBinarySpecEEEtEE
	.section	.data.rel.ro._ZTIN7openpal5ArrayIN8opendnp34CellINS1_19DoubleBitBinarySpecEEEtEE,"awG",%progbits,_ZTIN7openpal5ArrayIN8opendnp34CellINS1_19DoubleBitBinarySpecEEEtEE,comdat
	.align	2
	.type	_ZTIN7openpal5ArrayIN8opendnp34CellINS1_19DoubleBitBinarySpecEEEtEE, %object
	.size	_ZTIN7openpal5ArrayIN8opendnp34CellINS1_19DoubleBitBinarySpecEEEtEE, 24
_ZTIN7openpal5ArrayIN8opendnp34CellINS1_19DoubleBitBinarySpecEEEtEE:
	.word	_ZTVN10__cxxabiv121__vmi_class_type_infoE+8
	.word	_ZTSN7openpal5ArrayIN8opendnp34CellINS1_19DoubleBitBinarySpecEEEtEE
	.word	0
	.word	1
	.word	_ZTIN7openpal7HasSizeItEE
	.word	1026
	.weak	_ZTIN7openpal5ArrayIN8opendnp34CellINS1_10AnalogSpecEEEtEE
	.section	.data.rel.ro._ZTIN7openpal5ArrayIN8opendnp34CellINS1_10AnalogSpecEEEtEE,"awG",%progbits,_ZTIN7openpal5ArrayIN8opendnp34CellINS1_10AnalogSpecEEEtEE,comdat
	.align	2
	.type	_ZTIN7openpal5ArrayIN8opendnp34CellINS1_10AnalogSpecEEEtEE, %object
	.size	_ZTIN7openpal5ArrayIN8opendnp34CellINS1_10AnalogSpecEEEtEE, 24
_ZTIN7openpal5ArrayIN8opendnp34CellINS1_10AnalogSpecEEEtEE:
	.word	_ZTVN10__cxxabiv121__vmi_class_type_infoE+8
	.word	_ZTSN7openpal5ArrayIN8opendnp34CellINS1_10AnalogSpecEEEtEE
	.word	0
	.word	1
	.word	_ZTIN7openpal7HasSizeItEE
	.word	1026
	.weak	_ZTIN7openpal5ArrayIN8opendnp34CellINS1_11CounterSpecEEEtEE
	.section	.data.rel.ro._ZTIN7openpal5ArrayIN8opendnp34CellINS1_11CounterSpecEEEtEE,"awG",%progbits,_ZTIN7openpal5ArrayIN8opendnp34CellINS1_11CounterSpecEEEtEE,comdat
	.align	2
	.type	_ZTIN7openpal5ArrayIN8opendnp34CellINS1_11CounterSpecEEEtEE, %object
	.size	_ZTIN7openpal5ArrayIN8opendnp34CellINS1_11CounterSpecEEEtEE, 24
_ZTIN7openpal5ArrayIN8opendnp34CellINS1_11CounterSpecEEEtEE:
	.word	_ZTVN10__cxxabiv121__vmi_class_type_infoE+8
	.word	_ZTSN7openpal5ArrayIN8opendnp34CellINS1_11CounterSpecEEEtEE
	.word	0
	.word	1
	.word	_ZTIN7openpal7HasSizeItEE
	.word	1026
	.weak	_ZTIN7openpal5ArrayIN8opendnp34CellINS1_17FrozenCounterSpecEEEtEE
	.section	.data.rel.ro._ZTIN7openpal5ArrayIN8opendnp34CellINS1_17FrozenCounterSpecEEEtEE,"awG",%progbits,_ZTIN7openpal5ArrayIN8opendnp34CellINS1_17FrozenCounterSpecEEEtEE,comdat
	.align	2
	.type	_ZTIN7openpal5ArrayIN8opendnp34CellINS1_17FrozenCounterSpecEEEtEE, %object
	.size	_ZTIN7openpal5ArrayIN8opendnp34CellINS1_17FrozenCounterSpecEEEtEE, 24
_ZTIN7openpal5ArrayIN8opendnp34CellINS1_17FrozenCounterSpecEEEtEE:
	.word	_ZTVN10__cxxabiv121__vmi_class_type_infoE+8
	.word	_ZTSN7openpal5ArrayIN8opendnp34CellINS1_17FrozenCounterSpecEEEtEE
	.word	0
	.word	1
	.word	_ZTIN7openpal7HasSizeItEE
	.word	1026
	.weak	_ZTIN7openpal5ArrayIN8opendnp34CellINS1_22BinaryOutputStatusSpecEEEtEE
	.section	.data.rel.ro._ZTIN7openpal5ArrayIN8opendnp34CellINS1_22BinaryOutputStatusSpecEEEtEE,"awG",%progbits,_ZTIN7openpal5ArrayIN8opendnp34CellINS1_22BinaryOutputStatusSpecEEEtEE,comdat
	.align	2
	.type	_ZTIN7openpal5ArrayIN8opendnp34CellINS1_22BinaryOutputStatusSpecEEEtEE, %object
	.size	_ZTIN7openpal5ArrayIN8opendnp34CellINS1_22BinaryOutputStatusSpecEEEtEE, 24
_ZTIN7openpal5ArrayIN8opendnp34CellINS1_22BinaryOutputStatusSpecEEEtEE:
	.word	_ZTVN10__cxxabiv121__vmi_class_type_infoE+8
	.word	_ZTSN7openpal5ArrayIN8opendnp34CellINS1_22BinaryOutputStatusSpecEEEtEE
	.word	0
	.word	1
	.word	_ZTIN7openpal7HasSizeItEE
	.word	1026
	.weak	_ZTIN7openpal5ArrayIN8opendnp34CellINS1_22AnalogOutputStatusSpecEEEtEE
	.section	.data.rel.ro._ZTIN7openpal5ArrayIN8opendnp34CellINS1_22AnalogOutputStatusSpecEEEtEE,"awG",%progbits,_ZTIN7openpal5ArrayIN8opendnp34CellINS1_22AnalogOutputStatusSpecEEEtEE,comdat
	.align	2
	.type	_ZTIN7openpal5ArrayIN8opendnp34CellINS1_22AnalogOutputStatusSpecEEEtEE, %object
	.size	_ZTIN7openpal5ArrayIN8opendnp34CellINS1_22AnalogOutputStatusSpecEEEtEE, 24
_ZTIN7openpal5ArrayIN8opendnp34CellINS1_22AnalogOutputStatusSpecEEEtEE:
	.word	_ZTVN10__cxxabiv121__vmi_class_type_infoE+8
	.word	_ZTSN7openpal5ArrayIN8opendnp34CellINS1_22AnalogOutputStatusSpecEEEtEE
	.word	0
	.word	1
	.word	_ZTIN7openpal7HasSizeItEE
	.word	1026
	.weak	_ZTIN7openpal5ArrayIN8opendnp34CellINS1_19TimeAndIntervalSpecEEEtEE
	.section	.data.rel.ro._ZTIN7openpal5ArrayIN8opendnp34CellINS1_19TimeAndIntervalSpecEEEtEE,"awG",%progbits,_ZTIN7openpal5ArrayIN8opendnp34CellINS1_19TimeAndIntervalSpecEEEtEE,comdat
	.align	2
	.type	_ZTIN7openpal5ArrayIN8opendnp34CellINS1_19TimeAndIntervalSpecEEEtEE, %object
	.size	_ZTIN7openpal5ArrayIN8opendnp34CellINS1_19TimeAndIntervalSpecEEEtEE, 24
_ZTIN7openpal5ArrayIN8opendnp34CellINS1_19TimeAndIntervalSpecEEEtEE:
	.word	_ZTVN10__cxxabiv121__vmi_class_type_infoE+8
	.word	_ZTSN7openpal5ArrayIN8opendnp34CellINS1_19TimeAndIntervalSpecEEEtEE
	.word	0
	.word	1
	.word	_ZTIN7openpal7HasSizeItEE
	.word	1026
	.weak	_ZTIN7openpal5ArrayINS_8ListNodeIN8opendnp39SOERecordEEEjEE
	.section	.data.rel.ro._ZTIN7openpal5ArrayINS_8ListNodeIN8opendnp39SOERecordEEEjEE,"awG",%progbits,_ZTIN7openpal5ArrayINS_8ListNodeIN8opendnp39SOERecordEEEjEE,comdat
	.align	2
	.type	_ZTIN7openpal5ArrayINS_8ListNodeIN8opendnp39SOERecordEEEjEE, %object
	.size	_ZTIN7openpal5ArrayINS_8ListNodeIN8opendnp39SOERecordEEEjEE, 24
_ZTIN7openpal5ArrayINS_8ListNodeIN8opendnp39SOERecordEEEjEE:
	.word	_ZTVN10__cxxabiv121__vmi_class_type_infoE+8
	.word	_ZTSN7openpal5ArrayINS_8ListNodeIN8opendnp39SOERecordEEEjEE
	.word	0
	.word	1
	.word	_ZTIN7openpal7HasSizeIjEE
	.word	1026
	.global	_ZTSN8opendnp38OContextE
	.global	_ZTIN8opendnp38OContextE
	.weak	_ZTSN8opendnp314ICommandActionE
	.section	.rodata._ZTSN8opendnp314ICommandActionE,"aG",%progbits,_ZTSN8opendnp314ICommandActionE,comdat
	.align	2
	.type	_ZTSN8opendnp314ICommandActionE, %object
	.size	_ZTSN8opendnp314ICommandActionE, 28
_ZTSN8opendnp314ICommandActionE:
	.ascii	"N8opendnp314ICommandActionE\000"
	.weak	_ZTIN8opendnp314ICommandActionE
	.section	.data.rel.ro._ZTIN8opendnp314ICommandActionE,"awG",%progbits,_ZTIN8opendnp314ICommandActionE,comdat
	.align	2
	.type	_ZTIN8opendnp314ICommandActionE, %object
	.size	_ZTIN8opendnp314ICommandActionE, 8
_ZTIN8opendnp314ICommandActionE:
	.word	_ZTVN10__cxxabiv117__class_type_infoE+8
	.word	_ZTSN8opendnp314ICommandActionE
	.weak	_ZTSN8opendnp321ConstantCommandActionE
	.section	.rodata._ZTSN8opendnp321ConstantCommandActionE,"aG",%progbits,_ZTSN8opendnp321ConstantCommandActionE,comdat
	.align	2
	.type	_ZTSN8opendnp321ConstantCommandActionE, %object
	.size	_ZTSN8opendnp321ConstantCommandActionE, 35
_ZTSN8opendnp321ConstantCommandActionE:
	.ascii	"N8opendnp321ConstantCommandActionE\000"
	.weak	_ZTIN8opendnp321ConstantCommandActionE
	.section	.data.rel.ro._ZTIN8opendnp321ConstantCommandActionE,"awG",%progbits,_ZTIN8opendnp321ConstantCommandActionE,comdat
	.align	2
	.type	_ZTIN8opendnp321ConstantCommandActionE, %object
	.size	_ZTIN8opendnp321ConstantCommandActionE, 12
_ZTIN8opendnp321ConstantCommandActionE:
	.word	_ZTVN10__cxxabiv120__si_class_type_infoE+8
	.word	_ZTSN8opendnp321ConstantCommandActionE
	.word	_ZTIN8opendnp314ICommandActionE
	.weak	_ZTVN7openpal5ArrayIhjEE
	.section	.data.rel.ro._ZTVN7openpal5ArrayIhjEE,"awG",%progbits,_ZTVN7openpal5ArrayIhjEE,comdat
	.align	2
	.type	_ZTVN7openpal5ArrayIhjEE, %object
	.size	_ZTVN7openpal5ArrayIhjEE, 16
_ZTVN7openpal5ArrayIhjEE:
	.word	0
	.word	_ZTIN7openpal5ArrayIhjEE
	.word	_ZN7openpal5ArrayIhjED1Ev
	.word	_ZN7openpal5ArrayIhjED0Ev
	.weak	_ZTVN7openpal5ArrayIN8opendnp34CellINS1_10BinarySpecEEEtEE
	.section	.data.rel.ro._ZTVN7openpal5ArrayIN8opendnp34CellINS1_10BinarySpecEEEtEE,"awG",%progbits,_ZTVN7openpal5ArrayIN8opendnp34CellINS1_10BinarySpecEEEtEE,comdat
	.align	2
	.type	_ZTVN7openpal5ArrayIN8opendnp34CellINS1_10BinarySpecEEEtEE, %object
	.size	_ZTVN7openpal5ArrayIN8opendnp34CellINS1_10BinarySpecEEEtEE, 16
_ZTVN7openpal5ArrayIN8opendnp34CellINS1_10BinarySpecEEEtEE:
	.word	0
	.word	_ZTIN7openpal5ArrayIN8opendnp34CellINS1_10BinarySpecEEEtEE
	.word	_ZN7openpal5ArrayIN8opendnp34CellINS1_10BinarySpecEEEtED1Ev
	.word	_ZN7openpal5ArrayIN8opendnp34CellINS1_10BinarySpecEEEtED0Ev
	.weak	_ZTVN7openpal5ArrayIN8opendnp34CellINS1_19DoubleBitBinarySpecEEEtEE
	.section	.data.rel.ro._ZTVN7openpal5ArrayIN8opendnp34CellINS1_19DoubleBitBinarySpecEEEtEE,"awG",%progbits,_ZTVN7openpal5ArrayIN8opendnp34CellINS1_19DoubleBitBinarySpecEEEtEE,comdat
	.align	2
	.type	_ZTVN7openpal5ArrayIN8opendnp34CellINS1_19DoubleBitBinarySpecEEEtEE, %object
	.size	_ZTVN7openpal5ArrayIN8opendnp34CellINS1_19DoubleBitBinarySpecEEEtEE, 16
_ZTVN7openpal5ArrayIN8opendnp34CellINS1_19DoubleBitBinarySpecEEEtEE:
	.word	0
	.word	_ZTIN7openpal5ArrayIN8opendnp34CellINS1_19DoubleBitBinarySpecEEEtEE
	.word	_ZN7openpal5ArrayIN8opendnp34CellINS1_19DoubleBitBinarySpecEEEtED1Ev
	.word	_ZN7openpal5ArrayIN8opendnp34CellINS1_19DoubleBitBinarySpecEEEtED0Ev
	.weak	_ZTVN7openpal5ArrayIN8opendnp34CellINS1_10AnalogSpecEEEtEE
	.section	.data.rel.ro._ZTVN7openpal5ArrayIN8opendnp34CellINS1_10AnalogSpecEEEtEE,"awG",%progbits,_ZTVN7openpal5ArrayIN8opendnp34CellINS1_10AnalogSpecEEEtEE,comdat
	.align	2
	.type	_ZTVN7openpal5ArrayIN8opendnp34CellINS1_10AnalogSpecEEEtEE, %object
	.size	_ZTVN7openpal5ArrayIN8opendnp34CellINS1_10AnalogSpecEEEtEE, 16
_ZTVN7openpal5ArrayIN8opendnp34CellINS1_10AnalogSpecEEEtEE:
	.word	0
	.word	_ZTIN7openpal5ArrayIN8opendnp34CellINS1_10AnalogSpecEEEtEE
	.word	_ZN7openpal5ArrayIN8opendnp34CellINS1_10AnalogSpecEEEtED1Ev
	.word	_ZN7openpal5ArrayIN8opendnp34CellINS1_10AnalogSpecEEEtED0Ev
	.weak	_ZTVN7openpal5ArrayIN8opendnp34CellINS1_11CounterSpecEEEtEE
	.section	.data.rel.ro._ZTVN7openpal5ArrayIN8opendnp34CellINS1_11CounterSpecEEEtEE,"awG",%progbits,_ZTVN7openpal5ArrayIN8opendnp34CellINS1_11CounterSpecEEEtEE,comdat
	.align	2
	.type	_ZTVN7openpal5ArrayIN8opendnp34CellINS1_11CounterSpecEEEtEE, %object
	.size	_ZTVN7openpal5ArrayIN8opendnp34CellINS1_11CounterSpecEEEtEE, 16
_ZTVN7openpal5ArrayIN8opendnp34CellINS1_11CounterSpecEEEtEE:
	.word	0
	.word	_ZTIN7openpal5ArrayIN8opendnp34CellINS1_11CounterSpecEEEtEE
	.word	_ZN7openpal5ArrayIN8opendnp34CellINS1_11CounterSpecEEEtED1Ev
	.word	_ZN7openpal5ArrayIN8opendnp34CellINS1_11CounterSpecEEEtED0Ev
	.weak	_ZTVN7openpal5ArrayIN8opendnp34CellINS1_17FrozenCounterSpecEEEtEE
	.section	.data.rel.ro._ZTVN7openpal5ArrayIN8opendnp34CellINS1_17FrozenCounterSpecEEEtEE,"awG",%progbits,_ZTVN7openpal5ArrayIN8opendnp34CellINS1_17FrozenCounterSpecEEEtEE,comdat
	.align	2
	.type	_ZTVN7openpal5ArrayIN8opendnp34CellINS1_17FrozenCounterSpecEEEtEE, %object
	.size	_ZTVN7openpal5ArrayIN8opendnp34CellINS1_17FrozenCounterSpecEEEtEE, 16
_ZTVN7openpal5ArrayIN8opendnp34CellINS1_17FrozenCounterSpecEEEtEE:
	.word	0
	.word	_ZTIN7openpal5ArrayIN8opendnp34CellINS1_17FrozenCounterSpecEEEtEE
	.word	_ZN7openpal5ArrayIN8opendnp34CellINS1_17FrozenCounterSpecEEEtED1Ev
	.word	_ZN7openpal5ArrayIN8opendnp34CellINS1_17FrozenCounterSpecEEEtED0Ev
	.weak	_ZTVN7openpal5ArrayIN8opendnp34CellINS1_22BinaryOutputStatusSpecEEEtEE
	.section	.data.rel.ro._ZTVN7openpal5ArrayIN8opendnp34CellINS1_22BinaryOutputStatusSpecEEEtEE,"awG",%progbits,_ZTVN7openpal5ArrayIN8opendnp34CellINS1_22BinaryOutputStatusSpecEEEtEE,comdat
	.align	2
	.type	_ZTVN7openpal5ArrayIN8opendnp34CellINS1_22BinaryOutputStatusSpecEEEtEE, %object
	.size	_ZTVN7openpal5ArrayIN8opendnp34CellINS1_22BinaryOutputStatusSpecEEEtEE, 16
_ZTVN7openpal5ArrayIN8opendnp34CellINS1_22BinaryOutputStatusSpecEEEtEE:
	.word	0
	.word	_ZTIN7openpal5ArrayIN8opendnp34CellINS1_22BinaryOutputStatusSpecEEEtEE
	.word	_ZN7openpal5ArrayIN8opendnp34CellINS1_22BinaryOutputStatusSpecEEEtED1Ev
	.word	_ZN7openpal5ArrayIN8opendnp34CellINS1_22BinaryOutputStatusSpecEEEtED0Ev
	.weak	_ZTVN7openpal5ArrayIN8opendnp34CellINS1_22AnalogOutputStatusSpecEEEtEE
	.section	.data.rel.ro._ZTVN7openpal5ArrayIN8opendnp34CellINS1_22AnalogOutputStatusSpecEEEtEE,"awG",%progbits,_ZTVN7openpal5ArrayIN8opendnp34CellINS1_22AnalogOutputStatusSpecEEEtEE,comdat
	.align	2
	.type	_ZTVN7openpal5ArrayIN8opendnp34CellINS1_22AnalogOutputStatusSpecEEEtEE, %object
	.size	_ZTVN7openpal5ArrayIN8opendnp34CellINS1_22AnalogOutputStatusSpecEEEtEE, 16
_ZTVN7openpal5ArrayIN8opendnp34CellINS1_22AnalogOutputStatusSpecEEEtEE:
	.word	0
	.word	_ZTIN7openpal5ArrayIN8opendnp34CellINS1_22AnalogOutputStatusSpecEEEtEE
	.word	_ZN7openpal5ArrayIN8opendnp34CellINS1_22AnalogOutputStatusSpecEEEtED1Ev
	.word	_ZN7openpal5ArrayIN8opendnp34CellINS1_22AnalogOutputStatusSpecEEEtED0Ev
	.weak	_ZTVN7openpal5ArrayIN8opendnp34CellINS1_19TimeAndIntervalSpecEEEtEE
	.section	.data.rel.ro._ZTVN7openpal5ArrayIN8opendnp34CellINS1_19TimeAndIntervalSpecEEEtEE,"awG",%progbits,_ZTVN7openpal5ArrayIN8opendnp34CellINS1_19TimeAndIntervalSpecEEEtEE,comdat
	.align	2
	.type	_ZTVN7openpal5ArrayIN8opendnp34CellINS1_19TimeAndIntervalSpecEEEtEE, %object
	.size	_ZTVN7openpal5ArrayIN8opendnp34CellINS1_19TimeAndIntervalSpecEEEtEE, 16
_ZTVN7openpal5ArrayIN8opendnp34CellINS1_19TimeAndIntervalSpecEEEtEE:
	.word	0
	.word	_ZTIN7openpal5ArrayIN8opendnp34CellINS1_19TimeAndIntervalSpecEEEtEE
	.word	_ZN7openpal5ArrayIN8opendnp34CellINS1_19TimeAndIntervalSpecEEEtED1Ev
	.word	_ZN7openpal5ArrayIN8opendnp34CellINS1_19TimeAndIntervalSpecEEEtED0Ev
	.weak	_ZTVN7openpal5ArrayINS_8ListNodeIN8opendnp39SOERecordEEEjEE
	.section	.data.rel.ro._ZTVN7openpal5ArrayINS_8ListNodeIN8opendnp39SOERecordEEEjEE,"awG",%progbits,_ZTVN7openpal5ArrayINS_8ListNodeIN8opendnp39SOERecordEEEjEE,comdat
	.align	2
	.type	_ZTVN7openpal5ArrayINS_8ListNodeIN8opendnp39SOERecordEEEjEE, %object
	.size	_ZTVN7openpal5ArrayINS_8ListNodeIN8opendnp39SOERecordEEEjEE, 16
_ZTVN7openpal5ArrayINS_8ListNodeIN8opendnp39SOERecordEEEjEE:
	.word	0
	.word	_ZTIN7openpal5ArrayINS_8ListNodeIN8opendnp39SOERecordEEEjEE
	.word	_ZN7openpal5ArrayINS_8ListNodeIN8opendnp39SOERecordEEEjED1Ev
	.word	_ZN7openpal5ArrayINS_8ListNodeIN8opendnp39SOERecordEEEjED0Ev
	.global	_ZTVN8opendnp38OContextE
	.weak	_ZTVN8opendnp321ConstantCommandActionE
	.section	.data.rel.ro._ZTVN8opendnp321ConstantCommandActionE,"awG",%progbits,_ZTVN8opendnp321ConstantCommandActionE,comdat
	.align	2
	.type	_ZTVN8opendnp321ConstantCommandActionE, %object
	.size	_ZTVN8opendnp321ConstantCommandActionE, 36
_ZTVN8opendnp321ConstantCommandActionE:
	.word	0
	.word	_ZTIN8opendnp321ConstantCommandActionE
	.word	_ZN8opendnp321ConstantCommandActionD1Ev
	.word	_ZN8opendnp321ConstantCommandActionD0Ev
	.word	_ZN8opendnp321ConstantCommandAction6ActionERKNS_23ControlRelayOutputBlockEt
	.word	_ZN8opendnp321ConstantCommandAction6ActionERKNS_17AnalogOutputInt16Et
	.word	_ZN8opendnp321ConstantCommandAction6ActionERKNS_17AnalogOutputInt32Et
	.word	_ZN8opendnp321ConstantCommandAction6ActionERKNS_19AnalogOutputFloat32Et
	.word	_ZN8opendnp321ConstantCommandAction6ActionERKNS_20AnalogOutputDouble64Et
	.weakref	_ZL28__gthrw___pthread_key_createPjPFvPvE,__pthread_key_create
	.section	.rodata
	.align	2
	.type	_ZTSN8opendnp38OContextE, %object
	.size	_ZTSN8opendnp38OContextE, 21
_ZTSN8opendnp38OContextE:
	.ascii	"N8opendnp38OContextE\000"
	.space	3
	.type	_ZTSZN7openpal8TimerRef7RestartIZN8opendnp38OContext19RestartConfirmTimerEvEUlvE_EEvRKNS_12TimeDurationERKT_EUlvE_, %object
	.size	_ZTSZN7openpal8TimerRef7RestartIZN8opendnp38OContext19RestartConfirmTimerEvEUlvE_EEvRKNS_12TimeDurationERKT_EUlvE_, 112
_ZTSZN7openpal8TimerRef7RestartIZN8opendnp38OContext19RestartConfirmTimerEvEUlvE_EEvRKNS_12TimeDurationERKT_EUlvE_:
	.ascii	"*ZN7openpal8TimerRef7RestartIZN8opendnp38OContext19"
	.ascii	"RestartConfirmTimerEvEUlvE_EEvRKNS_12TimeDurationER"
	.ascii	"KT_EUlvE_\000"
	.section	.data.rel.ro,"aw",%progbits
	.align	2
	.set	.LANCHOR0,. + 0
	.type	_ZTIZN7openpal8TimerRef7RestartIZN8opendnp38OContext19RestartConfirmTimerEvEUlvE_EEvRKNS_12TimeDurationERKT_EUlvE_, %object
	.size	_ZTIZN7openpal8TimerRef7RestartIZN8opendnp38OContext19RestartConfirmTimerEvEUlvE_EEvRKNS_12TimeDurationERKT_EUlvE_, 8
_ZTIZN7openpal8TimerRef7RestartIZN8opendnp38OContext19RestartConfirmTimerEvEUlvE_EEvRKNS_12TimeDurationERKT_EUlvE_:
	.word	_ZTVN10__cxxabiv117__class_type_infoE+8
	.word	_ZTSZN7openpal8TimerRef7RestartIZN8opendnp38OContext19RestartConfirmTimerEvEUlvE_EEvRKNS_12TimeDurationERKT_EUlvE_
	.type	_ZTIN8opendnp38OContextE, %object
	.size	_ZTIN8opendnp38OContextE, 12
_ZTIN8opendnp38OContextE:
	.word	_ZTVN10__cxxabiv120__si_class_type_infoE+8
	.word	_ZTSN8opendnp38OContextE
	.word	_ZTIN8opendnp311IUpperLayerE
	.type	_ZTVN8opendnp38OContextE, %object
	.size	_ZTVN8opendnp38OContextE, 32
_ZTVN8opendnp38OContextE:
	.word	0
	.word	_ZTIN8opendnp38OContextE
	.word	_ZN8opendnp38OContextD1Ev
	.word	_ZN8opendnp38OContextD0Ev
	.word	_ZN8opendnp38OContext14OnLowerLayerUpEv
	.word	_ZN8opendnp38OContext16OnLowerLayerDownEv
	.word	_ZN8opendnp38OContext9OnReceiveERKN7openpal6RSliceE
	.word	_ZN8opendnp38OContext12OnSendResultEb
	.section	.rodata.str1.4,"aMS",%progbits,1
	.align	2
.LC0:
	.ascii	"already offline\000"
.LC1:
	.ascii	"/home/pi/OpenPLC_v3/utils/dnp3_src/cpp/libs/src/ope"
	.ascii	"ndnp3/outstation/OutstationContext.cpp(96)\000"
	.space	2
.LC2:
	.ascii	"Ignoring unsol with invalid function code: %s\000"
	.space	2
.LC3:
	.ascii	"/home/pi/OpenPLC_v3/utils/dnp3_src/cpp/libs/src/ope"
	.ascii	"ndnp3/outstation/OutstationContext.cpp(222)\000"
	.space	1
.LC4:
	.ascii	"already online\000"
	.space	1
.LC5:
	.ascii	"/home/pi/OpenPLC_v3/utils/dnp3_src/cpp/libs/src/ope"
	.ascii	"ndnp3/outstation/OutstationContext.cpp(83)\000"
	.space	2
.LC6:
	.ascii	"Igonring command request due to oversized payload s"
	.ascii	"ize of %u\000"
	.space	3
.LC7:
	.ascii	"/home/pi/OpenPLC_v3/utils/dnp3_src/cpp/libs/src/ope"
	.ascii	"ndnp3/outstation/OutstationContext.cpp(556)\000"
	.space	1
.LC8:
	.ascii	"Ignoring NR function code: %s\000"
	.space	2
.LC9:
	.ascii	"/home/pi/OpenPLC_v3/utils/dnp3_src/cpp/libs/src/ope"
	.ascii	"ndnp3/outstation/OutstationContext.cpp(490)\000"
	.space	1
.LC10:
	.ascii	"FIR: %i FIN: %i CON: %i UNS: %i SEQ: %i FUNC: %s\000"
	.space	3
.LC11:
	.ascii	"/home/pi/OpenPLC_v3/utils/dnp3_src/cpp/libs/src/ope"
	.ascii	"ndnp3/outstation/OutstationContext.cpp(444)\000"
	.space	1
.LC12:
	.ascii	"Ignoring fragment. Request must be FIR/FIN/!CON\000"
.LC13:
	.ascii	"/home/pi/OpenPLC_v3/utils/dnp3_src/cpp/libs/src/ope"
	.ascii	"ndnp3/outstation/OutstationContext.cpp(449)\000"
	.space	1
.LC14:
	.ascii	"ignoring received data while offline\000"
	.space	3
.LC15:
	.ascii	"/home/pi/OpenPLC_v3/utils/dnp3_src/cpp/libs/src/ope"
	.ascii	"ndnp3/outstation/OutstationContext.cpp(132)\000"
	.space	1
.LC16:
	.ascii	"Igonring command request due to oversized payload s"
	.ascii	"ize of %i\000"
	.space	3
.LC17:
	.ascii	"/home/pi/OpenPLC_v3/utils/dnp3_src/cpp/libs/src/ope"
	.ascii	"ndnp3/outstation/OutstationContext.cpp(573)\000"
	.space	1
.LC18:
	.ascii	"/home/pi/OpenPLC_v3/utils/dnp3_src/cpp/libs/src/ope"
	.ascii	"ndnp3/outstation/OutstationContext.cpp(603)\000"
	.ident	"GCC: (Raspbian 6.3.0-18+rpi1+deb9u1) 6.3.0 20170516"
	.section	.note.GNU-stack,"",%progbits
