	.arch armv6
	.eabi_attribute 28, 1
	.eabi_attribute 20, 1
	.eabi_attribute 21, 1
	.eabi_attribute 23, 3
	.eabi_attribute 24, 1
	.eabi_attribute 25, 1
	.eabi_attribute 26, 2
	.eabi_attribute 30, 2
	.eabi_attribute 34, 1
	.eabi_attribute 18, 4
	.file	"PriLinkLayerStates.cpp"
	.section	.text._ZNK8opendnp39PLLS_Idle4NameEv,"axG",%progbits,_ZNK8opendnp39PLLS_Idle4NameEv,comdat
	.align	2
	.weak	_ZNK8opendnp39PLLS_Idle4NameEv
	.syntax unified
	.arm
	.fpu vfp
	.type	_ZNK8opendnp39PLLS_Idle4NameEv, %function
_ZNK8opendnp39PLLS_Idle4NameEv:
	.fnstart
.LFB7:
	@ args = 0, pretend = 0, frame = 0
	@ frame_needed = 0, uses_anonymous_args = 0
	@ link register save eliminated.
	ldr	r0, .L2
.LPIC0:
	add	r0, pc, r0
	bx	lr
.L3:
	.align	2
.L2:
	.word	.LC0-(.LPIC0+8)
	.cantunwind
	.fnend
	.size	_ZNK8opendnp39PLLS_Idle4NameEv, .-_ZNK8opendnp39PLLS_Idle4NameEv
	.section	.text._ZNK8opendnp332PLLS_SendUnconfirmedTransmitWait4NameEv,"axG",%progbits,_ZNK8opendnp332PLLS_SendUnconfirmedTransmitWait4NameEv,comdat
	.align	2
	.weak	_ZNK8opendnp332PLLS_SendUnconfirmedTransmitWait4NameEv
	.syntax unified
	.arm
	.fpu vfp
	.type	_ZNK8opendnp332PLLS_SendUnconfirmedTransmitWait4NameEv, %function
_ZNK8opendnp332PLLS_SendUnconfirmedTransmitWait4NameEv:
	.fnstart
.LFB12:
	@ args = 0, pretend = 0, frame = 0
	@ frame_needed = 0, uses_anonymous_args = 0
	@ link register save eliminated.
	ldr	r0, .L5
.LPIC1:
	add	r0, pc, r0
	bx	lr
.L6:
	.align	2
.L5:
	.word	.LC1-(.LPIC1+8)
	.cantunwind
	.fnend
	.size	_ZNK8opendnp332PLLS_SendUnconfirmedTransmitWait4NameEv, .-_ZNK8opendnp332PLLS_SendUnconfirmedTransmitWait4NameEv
	.section	.text._ZNK8opendnp326PLLS_LinkResetTransmitWait4NameEv,"axG",%progbits,_ZNK8opendnp326PLLS_LinkResetTransmitWait4NameEv,comdat
	.align	2
	.weak	_ZNK8opendnp326PLLS_LinkResetTransmitWait4NameEv
	.syntax unified
	.arm
	.fpu vfp
	.type	_ZNK8opendnp326PLLS_LinkResetTransmitWait4NameEv, %function
_ZNK8opendnp326PLLS_LinkResetTransmitWait4NameEv:
	.fnstart
.LFB17:
	@ args = 0, pretend = 0, frame = 0
	@ frame_needed = 0, uses_anonymous_args = 0
	@ link register save eliminated.
	ldr	r0, .L8
.LPIC2:
	add	r0, pc, r0
	bx	lr
.L9:
	.align	2
.L8:
	.word	.LC2-(.LPIC2+8)
	.cantunwind
	.fnend
	.size	_ZNK8opendnp326PLLS_LinkResetTransmitWait4NameEv, .-_ZNK8opendnp326PLLS_LinkResetTransmitWait4NameEv
	.section	.text._ZNK8opendnp329PLLS_ConfUserDataTransmitWait4NameEv,"axG",%progbits,_ZNK8opendnp329PLLS_ConfUserDataTransmitWait4NameEv,comdat
	.align	2
	.weak	_ZNK8opendnp329PLLS_ConfUserDataTransmitWait4NameEv
	.syntax unified
	.arm
	.fpu vfp
	.type	_ZNK8opendnp329PLLS_ConfUserDataTransmitWait4NameEv, %function
_ZNK8opendnp329PLLS_ConfUserDataTransmitWait4NameEv:
	.fnstart
.LFB22:
	@ args = 0, pretend = 0, frame = 0
	@ frame_needed = 0, uses_anonymous_args = 0
	@ link register save eliminated.
	ldr	r0, .L11
.LPIC3:
	add	r0, pc, r0
	bx	lr
.L12:
	.align	2
.L11:
	.word	.LC3-(.LPIC3+8)
	.cantunwind
	.fnend
	.size	_ZNK8opendnp329PLLS_ConfUserDataTransmitWait4NameEv, .-_ZNK8opendnp329PLLS_ConfUserDataTransmitWait4NameEv
	.section	.text._ZNK8opendnp334PLLS_RequestLinkStatusTransmitWait4NameEv,"axG",%progbits,_ZNK8opendnp334PLLS_RequestLinkStatusTransmitWait4NameEv,comdat
	.align	2
	.weak	_ZNK8opendnp334PLLS_RequestLinkStatusTransmitWait4NameEv
	.syntax unified
	.arm
	.fpu vfp
	.type	_ZNK8opendnp334PLLS_RequestLinkStatusTransmitWait4NameEv, %function
_ZNK8opendnp334PLLS_RequestLinkStatusTransmitWait4NameEv:
	.fnstart
.LFB27:
	@ args = 0, pretend = 0, frame = 0
	@ frame_needed = 0, uses_anonymous_args = 0
	@ link register save eliminated.
	ldr	r0, .L14
.LPIC4:
	add	r0, pc, r0
	bx	lr
.L15:
	.align	2
.L14:
	.word	.LC4-(.LPIC4+8)
	.cantunwind
	.fnend
	.size	_ZNK8opendnp334PLLS_RequestLinkStatusTransmitWait4NameEv, .-_ZNK8opendnp334PLLS_RequestLinkStatusTransmitWait4NameEv
	.section	.text._ZNK8opendnp318PLLS_ResetLinkWait4NameEv,"axG",%progbits,_ZNK8opendnp318PLLS_ResetLinkWait4NameEv,comdat
	.align	2
	.weak	_ZNK8opendnp318PLLS_ResetLinkWait4NameEv
	.syntax unified
	.arm
	.fpu vfp
	.type	_ZNK8opendnp318PLLS_ResetLinkWait4NameEv, %function
_ZNK8opendnp318PLLS_ResetLinkWait4NameEv:
	.fnstart
.LFB32:
	@ args = 0, pretend = 0, frame = 0
	@ frame_needed = 0, uses_anonymous_args = 0
	@ link register save eliminated.
	ldr	r0, .L17
.LPIC5:
	add	r0, pc, r0
	bx	lr
.L18:
	.align	2
.L17:
	.word	.LC5-(.LPIC5+8)
	.cantunwind
	.fnend
	.size	_ZNK8opendnp318PLLS_ResetLinkWait4NameEv, .-_ZNK8opendnp318PLLS_ResetLinkWait4NameEv
	.section	.text._ZNK8opendnp317PLLS_ConfDataWait4NameEv,"axG",%progbits,_ZNK8opendnp317PLLS_ConfDataWait4NameEv,comdat
	.align	2
	.weak	_ZNK8opendnp317PLLS_ConfDataWait4NameEv
	.syntax unified
	.arm
	.fpu vfp
	.type	_ZNK8opendnp317PLLS_ConfDataWait4NameEv, %function
_ZNK8opendnp317PLLS_ConfDataWait4NameEv:
	.fnstart
.LFB40:
	@ args = 0, pretend = 0, frame = 0
	@ frame_needed = 0, uses_anonymous_args = 0
	@ link register save eliminated.
	ldr	r0, .L20
.LPIC6:
	add	r0, pc, r0
	bx	lr
.L21:
	.align	2
.L20:
	.word	.LC6-(.LPIC6+8)
	.cantunwind
	.fnend
	.size	_ZNK8opendnp317PLLS_ConfDataWait4NameEv, .-_ZNK8opendnp317PLLS_ConfDataWait4NameEv
	.section	.text._ZNK8opendnp326PLLS_RequestLinkStatusWait4NameEv,"axG",%progbits,_ZNK8opendnp326PLLS_RequestLinkStatusWait4NameEv,comdat
	.align	2
	.weak	_ZNK8opendnp326PLLS_RequestLinkStatusWait4NameEv
	.syntax unified
	.arm
	.fpu vfp
	.type	_ZNK8opendnp326PLLS_RequestLinkStatusWait4NameEv, %function
_ZNK8opendnp326PLLS_RequestLinkStatusWait4NameEv:
	.fnstart
.LFB47:
	@ args = 0, pretend = 0, frame = 0
	@ frame_needed = 0, uses_anonymous_args = 0
	@ link register save eliminated.
	ldr	r0, .L23
.LPIC7:
	add	r0, pc, r0
	bx	lr
.L24:
	.align	2
.L23:
	.word	.LC7-(.LPIC7+8)
	.cantunwind
	.fnend
	.size	_ZNK8opendnp326PLLS_RequestLinkStatusWait4NameEv, .-_ZNK8opendnp326PLLS_RequestLinkStatusWait4NameEv
	.section	.text._ZN8opendnp313ILinkListener13OnStateChangeENS_10LinkStatusE,"axG",%progbits,_ZN8opendnp313ILinkListener13OnStateChangeENS_10LinkStatusE,comdat
	.align	2
	.weak	_ZN8opendnp313ILinkListener13OnStateChangeENS_10LinkStatusE
	.syntax unified
	.arm
	.fpu vfp
	.type	_ZN8opendnp313ILinkListener13OnStateChangeENS_10LinkStatusE, %function
_ZN8opendnp313ILinkListener13OnStateChangeENS_10LinkStatusE:
	.fnstart
.LFB2162:
	@ args = 0, pretend = 0, frame = 0
	@ frame_needed = 0, uses_anonymous_args = 0
	@ link register save eliminated.
	bx	lr
	.cantunwind
	.fnend
	.size	_ZN8opendnp313ILinkListener13OnStateChangeENS_10LinkStatusE, .-_ZN8opendnp313ILinkListener13OnStateChangeENS_10LinkStatusE
	.section	.text._ZN8opendnp313ILinkListener20OnKeepAliveInitiatedEv,"axG",%progbits,_ZN8opendnp313ILinkListener20OnKeepAliveInitiatedEv,comdat
	.align	2
	.weak	_ZN8opendnp313ILinkListener20OnKeepAliveInitiatedEv
	.syntax unified
	.arm
	.fpu vfp
	.type	_ZN8opendnp313ILinkListener20OnKeepAliveInitiatedEv, %function
_ZN8opendnp313ILinkListener20OnKeepAliveInitiatedEv:
	.fnstart
.LFB2163:
	@ args = 0, pretend = 0, frame = 0
	@ frame_needed = 0, uses_anonymous_args = 0
	@ link register save eliminated.
	bx	lr
	.cantunwind
	.fnend
	.size	_ZN8opendnp313ILinkListener20OnKeepAliveInitiatedEv, .-_ZN8opendnp313ILinkListener20OnKeepAliveInitiatedEv
	.text
	.align	2
	.global	_ZN8opendnp312PriStateBase18TrySendUnconfirmedERNS_11LinkContextERNS_17ITransportSegmentE
	.syntax unified
	.arm
	.fpu vfp
	.type	_ZN8opendnp312PriStateBase18TrySendUnconfirmedERNS_11LinkContextERNS_17ITransportSegmentE, %function
_ZN8opendnp312PriStateBase18TrySendUnconfirmedERNS_11LinkContextERNS_17ITransportSegmentE:
	.fnstart
.LFB2187:
	@ args = 0, pretend = 0, frame = 0
	@ frame_needed = 0, uses_anonymous_args = 0
	@ link register save eliminated.
	bx	lr
	.cantunwind
	.fnend
	.size	_ZN8opendnp312PriStateBase18TrySendUnconfirmedERNS_11LinkContextERNS_17ITransportSegmentE, .-_ZN8opendnp312PriStateBase18TrySendUnconfirmedERNS_11LinkContextERNS_17ITransportSegmentE
	.global	_ZN8opendnp312PriStateBase16TrySendConfirmedERNS_11LinkContextERNS_17ITransportSegmentE
	.set	_ZN8opendnp312PriStateBase16TrySendConfirmedERNS_11LinkContextERNS_17ITransportSegmentE,_ZN8opendnp312PriStateBase18TrySendUnconfirmedERNS_11LinkContextERNS_17ITransportSegmentE
	.align	2
	.global	_ZN8opendnp312PriStateBase24TrySendRequestLinkStatusERNS_11LinkContextE
	.syntax unified
	.arm
	.fpu vfp
	.type	_ZN8opendnp312PriStateBase24TrySendRequestLinkStatusERNS_11LinkContextE, %function
_ZN8opendnp312PriStateBase24TrySendRequestLinkStatusERNS_11LinkContextE:
	.fnstart
.LFB2188:
	@ args = 0, pretend = 0, frame = 0
	@ frame_needed = 0, uses_anonymous_args = 0
	@ link register save eliminated.
	bx	lr
	.cantunwind
	.fnend
	.size	_ZN8opendnp312PriStateBase24TrySendRequestLinkStatusERNS_11LinkContextE, .-_ZN8opendnp312PriStateBase24TrySendRequestLinkStatusERNS_11LinkContextE
	.align	2
	.global	_ZN8opendnp312PriStateBase5OnAckERNS_11LinkContextEb
	.syntax unified
	.arm
	.fpu vfp
	.type	_ZN8opendnp312PriStateBase5OnAckERNS_11LinkContextEb, %function
_ZN8opendnp312PriStateBase5OnAckERNS_11LinkContextEb:
	.fnstart
.LFB2180:
	@ args = 0, pretend = 0, frame = 8
	@ frame_needed = 0, uses_anonymous_args = 0
	push	{r4, r5, r6, r7, lr}
	.save {r4, r5, r6, r7, lr}
	.pad #12
	sub	sp, sp, #12
	ldr	r3, [r1, #440]
	add	r4, sp, #8
	add	r6, r1, #336
	add	r3, r3, #1
	mov	r5, #4
	str	r3, [r1, #440]
	str	r5, [r4, #-4]!
	mov	r7, r0
	mov	r1, r4
	mov	r0, r6
	bl	_ZNK7openpal6Logger9IsEnabledERKNS_10LogFiltersE(PLT)
	cmp	r0, #0
	beq	.L30
	ldr	r3, .L36
	ldr	r2, .L36+4
	mov	r1, r4
	mov	r0, r6
.LPIC8:
	add	r3, pc, r3
.LPIC9:
	add	r2, pc, r2
	str	r5, [sp, #4]
	bl	_ZN7openpal6Logger3LogERKNS_10LogFiltersEPKcS5_(PLT)
.L30:
	mov	r0, r7
	add	sp, sp, #12
	@ sp needed
	pop	{r4, r5, r6, r7, pc}
.L37:
	.align	2
.L36:
	.word	.LC8-(.LPIC8+8)
	.word	.LC9-(.LPIC9+8)
	.fnend
	.size	_ZN8opendnp312PriStateBase5OnAckERNS_11LinkContextEb, .-_ZN8opendnp312PriStateBase5OnAckERNS_11LinkContextEb
	.align	2
	.global	_ZN8opendnp312PriStateBase6OnNackERNS_11LinkContextEb
	.syntax unified
	.arm
	.fpu vfp
	.type	_ZN8opendnp312PriStateBase6OnNackERNS_11LinkContextEb, %function
_ZN8opendnp312PriStateBase6OnNackERNS_11LinkContextEb:
	.fnstart
.LFB2181:
	@ args = 0, pretend = 0, frame = 8
	@ frame_needed = 0, uses_anonymous_args = 0
	push	{r4, r5, r6, r7, lr}
	.save {r4, r5, r6, r7, lr}
	.pad #12
	sub	sp, sp, #12
	ldr	r3, [r1, #440]
	add	r4, sp, #8
	add	r6, r1, #336
	add	r3, r3, #1
	mov	r5, #4
	str	r3, [r1, #440]
	str	r5, [r4, #-4]!
	mov	r7, r0
	mov	r1, r4
	mov	r0, r6
	bl	_ZNK7openpal6Logger9IsEnabledERKNS_10LogFiltersE(PLT)
	cmp	r0, #0
	beq	.L39
	ldr	r3, .L44
	ldr	r2, .L44+4
	mov	r1, r4
	mov	r0, r6
.LPIC10:
	add	r3, pc, r3
.LPIC11:
	add	r2, pc, r2
	str	r5, [sp, #4]
	bl	_ZN7openpal6Logger3LogERKNS_10LogFiltersEPKcS5_(PLT)
.L39:
	mov	r0, r7
	add	sp, sp, #12
	@ sp needed
	pop	{r4, r5, r6, r7, pc}
.L45:
	.align	2
.L44:
	.word	.LC8-(.LPIC10+8)
	.word	.LC10-(.LPIC11+8)
	.fnend
	.size	_ZN8opendnp312PriStateBase6OnNackERNS_11LinkContextEb, .-_ZN8opendnp312PriStateBase6OnNackERNS_11LinkContextEb
	.align	2
	.global	_ZN8opendnp312PriStateBase12OnLinkStatusERNS_11LinkContextEb
	.syntax unified
	.arm
	.fpu vfp
	.type	_ZN8opendnp312PriStateBase12OnLinkStatusERNS_11LinkContextEb, %function
_ZN8opendnp312PriStateBase12OnLinkStatusERNS_11LinkContextEb:
	.fnstart
.LFB2182:
	@ args = 0, pretend = 0, frame = 8
	@ frame_needed = 0, uses_anonymous_args = 0
	push	{r4, r5, r6, r7, lr}
	.save {r4, r5, r6, r7, lr}
	.pad #12
	sub	sp, sp, #12
	ldr	r3, [r1, #440]
	add	r4, sp, #8
	add	r6, r1, #336
	add	r3, r3, #1
	mov	r5, #4
	str	r3, [r1, #440]
	str	r5, [r4, #-4]!
	mov	r7, r0
	mov	r1, r4
	mov	r0, r6
	bl	_ZNK7openpal6Logger9IsEnabledERKNS_10LogFiltersE(PLT)
	cmp	r0, #0
	beq	.L47
	ldr	r3, .L52
	ldr	r2, .L52+4
	mov	r1, r4
	mov	r0, r6
.LPIC12:
	add	r3, pc, r3
.LPIC13:
	add	r2, pc, r2
	str	r5, [sp, #4]
	bl	_ZN7openpal6Logger3LogERKNS_10LogFiltersEPKcS5_(PLT)
.L47:
	mov	r0, r7
	add	sp, sp, #12
	@ sp needed
	pop	{r4, r5, r6, r7, pc}
.L53:
	.align	2
.L52:
	.word	.LC8-(.LPIC12+8)
	.word	.LC11-(.LPIC13+8)
	.fnend
	.size	_ZN8opendnp312PriStateBase12OnLinkStatusERNS_11LinkContextEb, .-_ZN8opendnp312PriStateBase12OnLinkStatusERNS_11LinkContextEb
	.align	2
	.global	_ZN8opendnp312PriStateBase14OnNotSupportedERNS_11LinkContextEb
	.syntax unified
	.arm
	.fpu vfp
	.type	_ZN8opendnp312PriStateBase14OnNotSupportedERNS_11LinkContextEb, %function
_ZN8opendnp312PriStateBase14OnNotSupportedERNS_11LinkContextEb:
	.fnstart
.LFB2183:
	@ args = 0, pretend = 0, frame = 8
	@ frame_needed = 0, uses_anonymous_args = 0
	push	{r4, r5, r6, r7, lr}
	.save {r4, r5, r6, r7, lr}
	.pad #12
	sub	sp, sp, #12
	ldr	r3, [r1, #440]
	add	r4, sp, #8
	add	r6, r1, #336
	add	r3, r3, #1
	mov	r5, #4
	str	r3, [r1, #440]
	str	r5, [r4, #-4]!
	mov	r7, r0
	mov	r1, r4
	mov	r0, r6
	bl	_ZNK7openpal6Logger9IsEnabledERKNS_10LogFiltersE(PLT)
	cmp	r0, #0
	beq	.L55
	ldr	r3, .L60
	ldr	r2, .L60+4
	mov	r1, r4
	mov	r0, r6
.LPIC14:
	add	r3, pc, r3
.LPIC15:
	add	r2, pc, r2
	str	r5, [sp, #4]
	bl	_ZN7openpal6Logger3LogERKNS_10LogFiltersEPKcS5_(PLT)
.L55:
	mov	r0, r7
	add	sp, sp, #12
	@ sp needed
	pop	{r4, r5, r6, r7, pc}
.L61:
	.align	2
.L60:
	.word	.LC8-(.LPIC14+8)
	.word	.LC12-(.LPIC15+8)
	.fnend
	.size	_ZN8opendnp312PriStateBase14OnNotSupportedERNS_11LinkContextEb, .-_ZN8opendnp312PriStateBase14OnNotSupportedERNS_11LinkContextEb
	.align	2
	.global	_ZN8opendnp312PriStateBase16OnTransmitResultERNS_11LinkContextEb
	.syntax unified
	.arm
	.fpu vfp
	.type	_ZN8opendnp312PriStateBase16OnTransmitResultERNS_11LinkContextEb, %function
_ZN8opendnp312PriStateBase16OnTransmitResultERNS_11LinkContextEb:
	.fnstart
.LFB2184:
	@ args = 0, pretend = 0, frame = 128
	@ frame_needed = 0, uses_anonymous_args = 0
	push	{r4, r5, r6, r7, lr}
	.save {r4, r5, r6, r7, lr}
	.pad #132
	sub	sp, sp, #132
	add	r4, sp, #128
	add	r7, r1, #336
	mov	r6, #2
	str	r6, [r4, #-120]!
	mov	r5, r0
	mov	r1, r4
	mov	r0, r7
	bl	_ZNK7openpal6Logger9IsEnabledERKNS_10LogFiltersE(PLT)
	cmp	r0, #0
	beq	.L63
	ldr	r3, [r5]
	mov	r0, r5
	ldr	r3, [r3, #36]
	blx	r3
	ldr	r2, .L68
	mov	r1, #120
.LPIC16:
	add	r2, pc, r2
	mov	r3, r0
	mov	r0, r4
	bl	snprintf(PLT)
	add	r1, sp, #128
	ldr	r2, .L68+4
	mov	r3, r4
	mov	r0, r7
	str	r6, [r1, #-124]!
.LPIC17:
	add	r2, pc, r2
	bl	_ZN7openpal6Logger3LogERKNS_10LogFiltersEPKcS5_(PLT)
.L63:
	mov	r0, r5
	add	sp, sp, #132
	@ sp needed
	pop	{r4, r5, r6, r7, pc}
.L69:
	.align	2
.L68:
	.word	.LC13-(.LPIC16+8)
	.word	.LC14-(.LPIC17+8)
	.fnend
	.size	_ZN8opendnp312PriStateBase16OnTransmitResultERNS_11LinkContextEb, .-_ZN8opendnp312PriStateBase16OnTransmitResultERNS_11LinkContextEb
	.align	2
	.global	_ZN8opendnp312PriStateBase9OnTimeoutERNS_11LinkContextE
	.syntax unified
	.arm
	.fpu vfp
	.type	_ZN8opendnp312PriStateBase9OnTimeoutERNS_11LinkContextE, %function
_ZN8opendnp312PriStateBase9OnTimeoutERNS_11LinkContextE:
	.fnstart
.LFB2185:
	@ args = 0, pretend = 0, frame = 128
	@ frame_needed = 0, uses_anonymous_args = 0
	push	{r4, r5, r6, r7, lr}
	.save {r4, r5, r6, r7, lr}
	.pad #132
	sub	sp, sp, #132
	add	r4, sp, #128
	add	r7, r1, #336
	mov	r6, #2
	str	r6, [r4, #-120]!
	mov	r5, r0
	mov	r1, r4
	mov	r0, r7
	bl	_ZNK7openpal6Logger9IsEnabledERKNS_10LogFiltersE(PLT)
	cmp	r0, #0
	beq	.L71
	ldr	r3, [r5]
	mov	r0, r5
	ldr	r3, [r3, #36]
	blx	r3
	ldr	r2, .L76
	mov	r1, #120
.LPIC18:
	add	r2, pc, r2
	mov	r3, r0
	mov	r0, r4
	bl	snprintf(PLT)
	add	r1, sp, #128
	ldr	r2, .L76+4
	mov	r3, r4
	mov	r0, r7
	str	r6, [r1, #-124]!
.LPIC19:
	add	r2, pc, r2
	bl	_ZN7openpal6Logger3LogERKNS_10LogFiltersEPKcS5_(PLT)
.L71:
	mov	r0, r5
	add	sp, sp, #132
	@ sp needed
	pop	{r4, r5, r6, r7, pc}
.L77:
	.align	2
.L76:
	.word	.LC13-(.LPIC18+8)
	.word	.LC15-(.LPIC19+8)
	.fnend
	.size	_ZN8opendnp312PriStateBase9OnTimeoutERNS_11LinkContextE, .-_ZN8opendnp312PriStateBase9OnTimeoutERNS_11LinkContextE
	.align	2
	.global	_ZN8opendnp39PLLS_Idle18TrySendUnconfirmedERNS_11LinkContextERNS_17ITransportSegmentE
	.syntax unified
	.arm
	.fpu vfp
	.type	_ZN8opendnp39PLLS_Idle18TrySendUnconfirmedERNS_11LinkContextERNS_17ITransportSegmentE, %function
_ZN8opendnp39PLLS_Idle18TrySendUnconfirmedERNS_11LinkContextERNS_17ITransportSegmentE:
	.fnstart
.LFB2189:
	@ args = 0, pretend = 0, frame = 16
	@ frame_needed = 0, uses_anonymous_args = 0
	ldr	r3, [r2]
	push	{r4, r5, lr}
	.save {r4, r5, lr}
	.pad #20
	sub	sp, sp, #20
	mov	r5, r1
	ldr	r3, [r3, #12]
	mov	r0, sp
	mov	r1, r2
	add	r4, sp, #8
	blx	r3
	mov	r2, sp
	mov	r1, r5
	mov	r0, r4
	bl	_ZN8opendnp311LinkContext34FormatPrimaryBufferWithUnconfirmedERKN7openpal6RSliceE(PLT)
	mov	r0, r5
	mov	r1, r4
	mov	r2, #1
	bl	_ZN8opendnp311LinkContext13QueueTransmitERKN7openpal6RSliceEb(PLT)
	ldr	r3, .L80
	ldr	r2, .L80+4
.LPIC20:
	add	r3, pc, r3
	ldr	r0, [r3, r2]
	add	sp, sp, #20
	@ sp needed
	pop	{r4, r5, pc}
.L81:
	.align	2
.L80:
	.word	_GLOBAL_OFFSET_TABLE_-(.LPIC20+8)
	.word	_ZN8opendnp332PLLS_SendUnconfirmedTransmitWait8instanceE(GOT)
	.fnend
	.size	_ZN8opendnp39PLLS_Idle18TrySendUnconfirmedERNS_11LinkContextERNS_17ITransportSegmentE, .-_ZN8opendnp39PLLS_Idle18TrySendUnconfirmedERNS_11LinkContextERNS_17ITransportSegmentE
	.align	2
	.global	_ZN8opendnp326PLLS_LinkResetTransmitWait16OnTransmitResultERNS_11LinkContextEb
	.syntax unified
	.arm
	.fpu vfp
	.type	_ZN8opendnp326PLLS_LinkResetTransmitWait16OnTransmitResultERNS_11LinkContextEb, %function
_ZN8opendnp326PLLS_LinkResetTransmitWait16OnTransmitResultERNS_11LinkContextEb:
	.fnstart
.LFB2193:
	@ args = 0, pretend = 0, frame = 0
	@ frame_needed = 0, uses_anonymous_args = 0
	push	{r4, lr}
	.save {r4, lr}
	cmp	r2, #0
	ldr	r4, .L87
	mov	r0, r1
.LPIC21:
	add	r4, pc, r4
	bne	.L86
	mov	r1, r2
	bl	_ZN8opendnp311LinkContext21CompleteSendOperationEb(PLT)
	ldr	r3, .L87+4
	ldr	r0, [r4, r3]
	pop	{r4, pc}
.L86:
	bl	_ZN8opendnp311LinkContext18StartResponseTimerEv(PLT)
	ldr	r3, .L87+8
	ldr	r0, [r4, r3]
	pop	{r4, pc}
.L88:
	.align	2
.L87:
	.word	_GLOBAL_OFFSET_TABLE_-(.LPIC21+8)
	.word	_ZN8opendnp39PLLS_Idle8instanceE(GOT)
	.word	_ZN8opendnp318PLLS_ResetLinkWait8instanceE(GOT)
	.fnend
	.size	_ZN8opendnp326PLLS_LinkResetTransmitWait16OnTransmitResultERNS_11LinkContextEb, .-_ZN8opendnp326PLLS_LinkResetTransmitWait16OnTransmitResultERNS_11LinkContextEb
	.align	2
	.global	_ZN8opendnp329PLLS_ConfUserDataTransmitWait16OnTransmitResultERNS_11LinkContextEb
	.syntax unified
	.arm
	.fpu vfp
	.type	_ZN8opendnp329PLLS_ConfUserDataTransmitWait16OnTransmitResultERNS_11LinkContextEb, %function
_ZN8opendnp329PLLS_ConfUserDataTransmitWait16OnTransmitResultERNS_11LinkContextEb:
	.fnstart
.LFB2194:
	@ args = 0, pretend = 0, frame = 0
	@ frame_needed = 0, uses_anonymous_args = 0
	push	{r4, lr}
	.save {r4, lr}
	cmp	r2, #0
	ldr	r4, .L94
	mov	r0, r1
.LPIC22:
	add	r4, pc, r4
	bne	.L93
	mov	r1, r2
	bl	_ZN8opendnp311LinkContext21CompleteSendOperationEb(PLT)
	ldr	r3, .L94+4
	ldr	r0, [r4, r3]
	pop	{r4, pc}
.L93:
	bl	_ZN8opendnp311LinkContext18StartResponseTimerEv(PLT)
	ldr	r3, .L94+8
	ldr	r0, [r4, r3]
	pop	{r4, pc}
.L95:
	.align	2
.L94:
	.word	_GLOBAL_OFFSET_TABLE_-(.LPIC22+8)
	.word	_ZN8opendnp39PLLS_Idle8instanceE(GOT)
	.word	_ZN8opendnp317PLLS_ConfDataWait8instanceE(GOT)
	.fnend
	.size	_ZN8opendnp329PLLS_ConfUserDataTransmitWait16OnTransmitResultERNS_11LinkContextEb, .-_ZN8opendnp329PLLS_ConfUserDataTransmitWait16OnTransmitResultERNS_11LinkContextEb
	.align	2
	.global	_ZN8opendnp334PLLS_RequestLinkStatusTransmitWait16OnTransmitResultERNS_11LinkContextEb
	.syntax unified
	.arm
	.fpu vfp
	.type	_ZN8opendnp334PLLS_RequestLinkStatusTransmitWait16OnTransmitResultERNS_11LinkContextEb, %function
_ZN8opendnp334PLLS_RequestLinkStatusTransmitWait16OnTransmitResultERNS_11LinkContextEb:
	.fnstart
.LFB2195:
	@ args = 0, pretend = 0, frame = 0
	@ frame_needed = 0, uses_anonymous_args = 0
	push	{r4, lr}
	.save {r4, lr}
	cmp	r2, #0
	ldr	r4, .L101
	mov	r0, r1
.LPIC23:
	add	r4, pc, r4
	bne	.L100
	mov	r1, r2
	bl	_ZN8opendnp311LinkContext13FailKeepAliveEb(PLT)
	ldr	r3, .L101+4
	ldr	r0, [r4, r3]
	pop	{r4, pc}
.L100:
	bl	_ZN8opendnp311LinkContext18StartResponseTimerEv(PLT)
	ldr	r3, .L101+8
	ldr	r0, [r4, r3]
	pop	{r4, pc}
.L102:
	.align	2
.L101:
	.word	_GLOBAL_OFFSET_TABLE_-(.LPIC23+8)
	.word	_ZN8opendnp39PLLS_Idle8instanceE(GOT)
	.word	_ZN8opendnp326PLLS_RequestLinkStatusWait8instanceE(GOT)
	.fnend
	.size	_ZN8opendnp334PLLS_RequestLinkStatusTransmitWait16OnTransmitResultERNS_11LinkContextEb, .-_ZN8opendnp334PLLS_RequestLinkStatusTransmitWait16OnTransmitResultERNS_11LinkContextEb
	.align	2
	.global	_ZN8opendnp326PLLS_RequestLinkStatusWait9OnTimeoutERNS_11LinkContextE
	.syntax unified
	.arm
	.fpu vfp
	.type	_ZN8opendnp326PLLS_RequestLinkStatusWait9OnTimeoutERNS_11LinkContextE, %function
_ZN8opendnp326PLLS_RequestLinkStatusWait9OnTimeoutERNS_11LinkContextE:
	.fnstart
.LFB2206:
	@ args = 0, pretend = 0, frame = 8
	@ frame_needed = 0, uses_anonymous_args = 0
	push	{r4, r5, r6, r7, r8, lr}
	.save {r4, r5, r6, r7, r8, lr}
	.pad #8
	sub	sp, sp, #8
	add	r4, sp, #8
	add	r8, r1, #336
	mov	r7, #4
	str	r7, [r4, #-4]!
	mov	r6, r1
	mov	r0, r8
	mov	r1, r4
	bl	_ZNK7openpal6Logger9IsEnabledERKNS_10LogFiltersE(PLT)
	ldr	r5, .L109
.LPIC26:
	add	r5, pc, r5
	cmp	r0, #0
	beq	.L104
	ldr	r3, .L109+4
	ldr	r2, .L109+8
	mov	r1, r4
	mov	r0, r8
.LPIC24:
	add	r3, pc, r3
.LPIC25:
	add	r2, pc, r2
	str	r7, [sp, #4]
	bl	_ZN7openpal6Logger3LogERKNS_10LogFiltersEPKcS5_(PLT)
.L104:
	mov	r0, r6
	mov	r1, #1
	bl	_ZN8opendnp311LinkContext13FailKeepAliveEb(PLT)
	ldr	r3, .L109+12
	ldr	r0, [r5, r3]
	add	sp, sp, #8
	@ sp needed
	pop	{r4, r5, r6, r7, r8, pc}
.L110:
	.align	2
.L109:
	.word	_GLOBAL_OFFSET_TABLE_-(.LPIC26+8)
	.word	.LC16-(.LPIC24+8)
	.word	.LC17-(.LPIC25+8)
	.word	_ZN8opendnp39PLLS_Idle8instanceE(GOT)
	.fnend
	.size	_ZN8opendnp326PLLS_RequestLinkStatusWait9OnTimeoutERNS_11LinkContextE, .-_ZN8opendnp326PLLS_RequestLinkStatusWait9OnTimeoutERNS_11LinkContextE
	.align	2
	.global	_ZN8opendnp326PLLS_RequestLinkStatusWait14OnNotSupportedERNS_11LinkContextEb
	.syntax unified
	.arm
	.fpu vfp
	.type	_ZN8opendnp326PLLS_RequestLinkStatusWait14OnNotSupportedERNS_11LinkContextEb, %function
_ZN8opendnp326PLLS_RequestLinkStatusWait14OnNotSupportedERNS_11LinkContextEb:
	.fnstart
.LFB2205:
	@ args = 0, pretend = 0, frame = 0
	@ frame_needed = 0, uses_anonymous_args = 0
	push	{r4, lr}
	.save {r4, lr}
	mov	r0, r1
	mov	r4, r1
	bl	_ZN8opendnp311LinkContext11CancelTimerEv(PLT)
	mov	r0, r4
	mov	r1, #0
	bl	_ZN8opendnp311LinkContext13FailKeepAliveEb(PLT)
	ldr	r3, .L113
	ldr	r2, .L113+4
.LPIC27:
	add	r3, pc, r3
	ldr	r0, [r3, r2]
	pop	{r4, pc}
.L114:
	.align	2
.L113:
	.word	_GLOBAL_OFFSET_TABLE_-(.LPIC27+8)
	.word	_ZN8opendnp39PLLS_Idle8instanceE(GOT)
	.fnend
	.size	_ZN8opendnp326PLLS_RequestLinkStatusWait14OnNotSupportedERNS_11LinkContextEb, .-_ZN8opendnp326PLLS_RequestLinkStatusWait14OnNotSupportedERNS_11LinkContextEb
	.global	_ZN8opendnp326PLLS_RequestLinkStatusWait6OnNackERNS_11LinkContextEb
	.set	_ZN8opendnp326PLLS_RequestLinkStatusWait6OnNackERNS_11LinkContextEb,_ZN8opendnp326PLLS_RequestLinkStatusWait14OnNotSupportedERNS_11LinkContextEb
	.align	2
	.global	_ZN8opendnp326PLLS_RequestLinkStatusWait12OnLinkStatusERNS_11LinkContextEb
	.syntax unified
	.arm
	.fpu vfp
	.type	_ZN8opendnp326PLLS_RequestLinkStatusWait12OnLinkStatusERNS_11LinkContextEb, %function
_ZN8opendnp326PLLS_RequestLinkStatusWait12OnLinkStatusERNS_11LinkContextEb:
	.fnstart
.LFB2204:
	@ args = 0, pretend = 0, frame = 0
	@ frame_needed = 0, uses_anonymous_args = 0
	push	{r4, lr}
	.save {r4, lr}
	mov	r0, r1
	mov	r4, r1
	bl	_ZN8opendnp311LinkContext11CancelTimerEv(PLT)
	mov	r0, r4
	bl	_ZN8opendnp311LinkContext17CompleteKeepAliveEv(PLT)
	ldr	r3, .L117
	ldr	r2, .L117+4
.LPIC28:
	add	r3, pc, r3
	ldr	r0, [r3, r2]
	pop	{r4, pc}
.L118:
	.align	2
.L117:
	.word	_GLOBAL_OFFSET_TABLE_-(.LPIC28+8)
	.word	_ZN8opendnp39PLLS_Idle8instanceE(GOT)
	.fnend
	.size	_ZN8opendnp326PLLS_RequestLinkStatusWait12OnLinkStatusERNS_11LinkContextEb, .-_ZN8opendnp326PLLS_RequestLinkStatusWait12OnLinkStatusERNS_11LinkContextEb
	.align	2
	.global	_ZN8opendnp332PLLS_SendUnconfirmedTransmitWait16OnTransmitResultERNS_11LinkContextEb
	.syntax unified
	.arm
	.fpu vfp
	.type	_ZN8opendnp332PLLS_SendUnconfirmedTransmitWait16OnTransmitResultERNS_11LinkContextEb, %function
_ZN8opendnp332PLLS_SendUnconfirmedTransmitWait16OnTransmitResultERNS_11LinkContextEb:
	.fnstart
.LFB2192:
	@ args = 0, pretend = 0, frame = 16
	@ frame_needed = 0, uses_anonymous_args = 0
	ldr	r3, [r1, #384]
	push	{r4, r5, r6, r7, lr}
	.save {r4, r5, r6, r7, lr}
	mov	r5, r0
	mov	r0, r3
	ldr	r3, [r3]
	.pad #20
	sub	sp, sp, #20
	mov	r4, r1
	ldr	r3, [r3, #16]
	mov	r7, r2
	blx	r3
	ldr	r6, .L124
.LPIC29:
	add	r6, pc, r6
	cmp	r0, #0
	bne	.L123
	mov	r0, r4
	mov	r1, r7
	bl	_ZN8opendnp311LinkContext21CompleteSendOperationEb(PLT)
	ldr	r3, .L124+4
	ldr	r0, [r6, r3]
	add	sp, sp, #20
	@ sp needed
	pop	{r4, r5, r6, r7, pc}
.L123:
	ldr	r3, [r4, #384]
	add	r6, sp, #8
	mov	r1, r3
	ldr	r3, [r3]
	mov	r0, r6
	ldr	r3, [r3, #12]
	blx	r3
	mov	r2, r6
	mov	r0, sp
	mov	r1, r4
	bl	_ZN8opendnp311LinkContext34FormatPrimaryBufferWithUnconfirmedERKN7openpal6RSliceE(PLT)
	mov	r0, r4
	mov	r1, sp
	mov	r2, #1
	bl	_ZN8opendnp311LinkContext13QueueTransmitERKN7openpal6RSliceEb(PLT)
	mov	r0, r5
	add	sp, sp, #20
	@ sp needed
	pop	{r4, r5, r6, r7, pc}
.L125:
	.align	2
.L124:
	.word	_GLOBAL_OFFSET_TABLE_-(.LPIC29+8)
	.word	_ZN8opendnp39PLLS_Idle8instanceE(GOT)
	.fnend
	.size	_ZN8opendnp332PLLS_SendUnconfirmedTransmitWait16OnTransmitResultERNS_11LinkContextEb, .-_ZN8opendnp332PLLS_SendUnconfirmedTransmitWait16OnTransmitResultERNS_11LinkContextEb
	.align	2
	.global	_ZN8opendnp39PLLS_Idle16TrySendConfirmedERNS_11LinkContextERNS_17ITransportSegmentE
	.syntax unified
	.arm
	.fpu vfp
	.type	_ZN8opendnp39PLLS_Idle16TrySendConfirmedERNS_11LinkContextERNS_17ITransportSegmentE, %function
_ZN8opendnp39PLLS_Idle16TrySendConfirmedERNS_11LinkContextERNS_17ITransportSegmentE:
	.fnstart
.LFB2190:
	@ args = 0, pretend = 0, frame = 16
	@ frame_needed = 0, uses_anonymous_args = 0
	ldrb	r3, [r1, #423]	@ zero_extendqisi2
	push	{r4, r5, r6, lr}
	.save {r4, r5, r6, lr}
	mov	r4, r1
	ldr	r5, .L131
	cmp	r3, #0
.LPIC30:
	add	r5, pc, r5
	.pad #16
	sub	sp, sp, #16
	bne	.L130
	mov	r0, r1
	bl	_ZN8opendnp311LinkContext10ResetRetryEv(PLT)
	mov	r0, r4
	bl	_ZN8opendnp311LinkContext15QueueResetLinksEv(PLT)
	ldr	r3, .L131+4
	ldr	r0, [r5, r3]
	add	sp, sp, #16
	@ sp needed
	pop	{r4, r5, r6, pc}
.L130:
	mov	r6, r2
	mov	r0, r1
	bl	_ZN8opendnp311LinkContext10ResetRetryEv(PLT)
	ldr	r3, [r6]
	mov	r1, r6
	add	r6, sp, #8
	mov	r0, r6
	ldr	r3, [r3, #12]
	blx	r3
	ldrb	r3, [r4, #421]	@ zero_extendqisi2
	mov	r2, r6
	mov	r0, sp
	mov	r1, r4
	bl	_ZN8opendnp311LinkContext32FormatPrimaryBufferWithConfirmedERKN7openpal6RSliceEb(PLT)
	mov	r0, r4
	mov	r1, sp
	mov	r2, #1
	bl	_ZN8opendnp311LinkContext13QueueTransmitERKN7openpal6RSliceEb(PLT)
	ldr	r3, .L131+8
	ldr	r0, [r5, r3]
	add	sp, sp, #16
	@ sp needed
	pop	{r4, r5, r6, pc}
.L132:
	.align	2
.L131:
	.word	_GLOBAL_OFFSET_TABLE_-(.LPIC30+8)
	.word	_ZN8opendnp326PLLS_LinkResetTransmitWait8instanceE(GOT)
	.word	_ZN8opendnp329PLLS_ConfUserDataTransmitWait8instanceE(GOT)
	.fnend
	.size	_ZN8opendnp39PLLS_Idle16TrySendConfirmedERNS_11LinkContextERNS_17ITransportSegmentE, .-_ZN8opendnp39PLLS_Idle16TrySendConfirmedERNS_11LinkContextERNS_17ITransportSegmentE
	.align	2
	.global	_ZN8opendnp318PLLS_ResetLinkWait9OnTimeoutERNS_11LinkContextE
	.syntax unified
	.arm
	.fpu vfp
	.type	_ZN8opendnp318PLLS_ResetLinkWait9OnTimeoutERNS_11LinkContextE, %function
_ZN8opendnp318PLLS_ResetLinkWait9OnTimeoutERNS_11LinkContextE:
	.fnstart
.LFB2197:
	@ args = 0, pretend = 0, frame = 128
	@ frame_needed = 0, uses_anonymous_args = 0
	push	{r4, r5, r6, r7, r8, lr}
	.save {r4, r5, r6, r7, r8, lr}
	mov	r0, r1
	.pad #128
	sub	sp, sp, #128
	mov	r4, r1
	bl	_ZN8opendnp311LinkContext5RetryEv(PLT)
	add	r6, sp, #128
	ldr	r5, .L147
	mov	r7, #4
	add	r8, r4, #336
.LPIC31:
	add	r5, pc, r5
	str	r7, [r6, #-120]!
	mov	r1, r6
	cmp	r0, #0
	mov	r0, r8
	beq	.L134
	bl	_ZNK7openpal6Logger9IsEnabledERKNS_10LogFiltersE(PLT)
	cmp	r0, #0
	bne	.L145
.L135:
	mov	r0, r4
	bl	_ZN8opendnp311LinkContext15QueueResetLinksEv(PLT)
	ldr	r3, .L147+4
	ldr	r0, [r5, r3]
	add	sp, sp, #128
	@ sp needed
	pop	{r4, r5, r6, r7, r8, pc}
.L134:
	bl	_ZNK7openpal6Logger9IsEnabledERKNS_10LogFiltersE(PLT)
	cmp	r0, #0
	bne	.L146
.L137:
	mov	r0, r4
	mov	r1, #0
	bl	_ZN8opendnp311LinkContext21CompleteSendOperationEb(PLT)
	ldr	r3, .L147+8
	ldr	r0, [r5, r3]
	add	sp, sp, #128
	@ sp needed
	pop	{r4, r5, r6, r7, r8, pc}
.L145:
	ldr	r2, .L147+12
	ldr	r3, [r4, #392]
.LPIC32:
	add	r2, pc, r2
	mov	r1, #120
	mov	r0, r6
	bl	snprintf(PLT)
	add	r1, sp, #128
	ldr	r2, .L147+16
	mov	r3, r6
	mov	r0, r8
	str	r7, [r1, #-124]!
.LPIC33:
	add	r2, pc, r2
	bl	_ZN7openpal6Logger3LogERKNS_10LogFiltersEPKcS5_(PLT)
	b	.L135
.L146:
	ldr	r3, .L147+20
	ldr	r2, .L147+24
	mov	r1, r6
	mov	r0, r8
.LPIC34:
	add	r3, pc, r3
.LPIC35:
	add	r2, pc, r2
	str	r7, [sp, #8]
	bl	_ZN7openpal6Logger3LogERKNS_10LogFiltersEPKcS5_(PLT)
	b	.L137
.L148:
	.align	2
.L147:
	.word	_GLOBAL_OFFSET_TABLE_-(.LPIC31+8)
	.word	_ZN8opendnp326PLLS_LinkResetTransmitWait8instanceE(GOT)
	.word	_ZN8opendnp39PLLS_Idle8instanceE(GOT)
	.word	.LC18-(.LPIC32+8)
	.word	.LC19-(.LPIC33+8)
	.word	.LC20-(.LPIC34+8)
	.word	.LC21-(.LPIC35+8)
	.fnend
	.size	_ZN8opendnp318PLLS_ResetLinkWait9OnTimeoutERNS_11LinkContextE, .-_ZN8opendnp318PLLS_ResetLinkWait9OnTimeoutERNS_11LinkContextE
	.align	2
	.global	_ZN8opendnp317PLLS_ConfDataWait5OnAckERNS_11LinkContextEb
	.syntax unified
	.arm
	.fpu vfp
	.type	_ZN8opendnp317PLLS_ConfDataWait5OnAckERNS_11LinkContextEb, %function
_ZN8opendnp317PLLS_ConfDataWait5OnAckERNS_11LinkContextEb:
	.fnstart
.LFB2199:
	@ args = 0, pretend = 0, frame = 16
	@ frame_needed = 0, uses_anonymous_args = 0
	ldrb	r3, [r1, #421]	@ zero_extendqisi2
	push	{r4, r5, r6, lr}
	.save {r4, r5, r6, lr}
	mov	r4, r1
	eor	r3, r3, #1
	mov	r0, r1
	strb	r3, [r1, #421]
	.pad #16
	sub	sp, sp, #16
	bl	_ZN8opendnp311LinkContext11CancelTimerEv(PLT)
	ldr	r3, [r4, #384]
	ldr	r5, .L154
	mov	r0, r3
	ldr	r3, [r3]
.LPIC36:
	add	r5, pc, r5
	ldr	r3, [r3, #16]
	blx	r3
	cmp	r0, #0
	bne	.L153
	mov	r0, r4
	mov	r1, #1
	bl	_ZN8opendnp311LinkContext21CompleteSendOperationEb(PLT)
	ldr	r3, .L154+4
	ldr	r0, [r5, r3]
	add	sp, sp, #16
	@ sp needed
	pop	{r4, r5, r6, pc}
.L153:
	ldr	r3, [r4, #384]
	add	r6, sp, #8
	mov	r1, r3
	ldr	r3, [r3]
	mov	r0, r6
	ldr	r3, [r3, #12]
	blx	r3
	ldrb	r3, [r4, #421]	@ zero_extendqisi2
	mov	r2, r6
	mov	r0, sp
	mov	r1, r4
	bl	_ZN8opendnp311LinkContext32FormatPrimaryBufferWithConfirmedERKN7openpal6RSliceEb(PLT)
	mov	r0, r4
	mov	r1, sp
	mov	r2, #1
	bl	_ZN8opendnp311LinkContext13QueueTransmitERKN7openpal6RSliceEb(PLT)
	ldr	r3, .L154+8
	ldr	r0, [r5, r3]
	add	sp, sp, #16
	@ sp needed
	pop	{r4, r5, r6, pc}
.L155:
	.align	2
.L154:
	.word	_GLOBAL_OFFSET_TABLE_-(.LPIC36+8)
	.word	_ZN8opendnp39PLLS_Idle8instanceE(GOT)
	.word	_ZN8opendnp329PLLS_ConfUserDataTransmitWait8instanceE(GOT)
	.fnend
	.size	_ZN8opendnp317PLLS_ConfDataWait5OnAckERNS_11LinkContextEb, .-_ZN8opendnp317PLLS_ConfDataWait5OnAckERNS_11LinkContextEb
	.align	2
	.global	_ZN8opendnp317PLLS_ConfDataWait9OnTimeoutERNS_11LinkContextE
	.syntax unified
	.arm
	.fpu vfp
	.type	_ZN8opendnp317PLLS_ConfDataWait9OnTimeoutERNS_11LinkContextE, %function
_ZN8opendnp317PLLS_ConfDataWait9OnTimeoutERNS_11LinkContextE:
	.fnstart
.LFB2202:
	@ args = 0, pretend = 0, frame = 128
	@ frame_needed = 0, uses_anonymous_args = 0
	push	{r4, r5, r6, r7, r8, r9, lr}
	.save {r4, r5, r6, r7, r8, r9, lr}
	mov	r0, r1
	.pad #132
	sub	sp, sp, #132
	mov	r4, r1
	bl	_ZN8opendnp311LinkContext5RetryEv(PLT)
	ldr	r5, .L172
	add	r6, sp, #128
.LPIC37:
	add	r5, pc, r5
	cmp	r0, #0
	beq	.L157
	mov	r8, #4
	add	r9, r4, #336
	str	r8, [r6, #-120]!
	mov	r0, r9
	mov	r1, r6
	bl	_ZNK7openpal6Logger9IsEnabledERKNS_10LogFiltersE(PLT)
	cmp	r0, #0
	moveq	r7, sp
	bne	.L169
.L158:
	ldr	r3, [r4, #384]
	mov	r0, r6
	mov	r1, r3
	ldr	r3, [r3]
	ldr	r3, [r3, #12]
	blx	r3
	ldrb	r3, [r4, #421]	@ zero_extendqisi2
	mov	r2, r6
	mov	r1, r4
	mov	r0, r7
	bl	_ZN8opendnp311LinkContext32FormatPrimaryBufferWithConfirmedERKN7openpal6RSliceEb(PLT)
	mov	r0, r4
	mov	r1, r7
	mov	r2, #1
	bl	_ZN8opendnp311LinkContext13QueueTransmitERKN7openpal6RSliceEb(PLT)
	ldr	r3, .L172+4
	ldr	r0, [r5, r3]
	add	sp, sp, #132
	@ sp needed
	pop	{r4, r5, r6, r7, r8, r9, pc}
.L157:
	mov	r7, #4
	add	r8, r4, #336
	str	r7, [r6, #-120]!
	mov	r0, r8
	mov	r1, r6
	bl	_ZNK7openpal6Logger9IsEnabledERKNS_10LogFiltersE(PLT)
	cmp	r0, #0
	bne	.L170
.L160:
	ldr	r0, [r4, #468]
	ldr	r3, .L172+8
	ldr	r1, [r0]
	ldr	r2, [r5, r3]
	ldr	r3, [r1]
	cmp	r3, r2
	bne	.L171
.L161:
	mov	r0, r4
	mov	r1, #0
	bl	_ZN8opendnp311LinkContext21CompleteSendOperationEb(PLT)
	ldr	r3, .L172+12
	ldr	r0, [r5, r3]
	add	sp, sp, #132
	@ sp needed
	pop	{r4, r5, r6, r7, r8, r9, pc}
.L169:
	ldr	r2, .L172+16
	ldr	r3, [r4, #392]
.LPIC38:
	add	r2, pc, r2
	mov	r1, #120
	mov	r0, r6
	bl	snprintf(PLT)
	add	r7, sp, #128
	ldr	r2, .L172+20
	str	r8, [r7, #-128]!
	mov	r0, r9
	mov	r3, r6
	mov	r1, r7
.LPIC39:
	add	r2, pc, r2
	bl	_ZN7openpal6Logger3LogERKNS_10LogFiltersEPKcS5_(PLT)
	b	.L158
.L170:
	ldr	r3, .L172+24
	ldr	r2, .L172+28
	mov	r1, r6
	mov	r0, r8
.LPIC40:
	add	r3, pc, r3
.LPIC41:
	add	r2, pc, r2
	str	r7, [sp, #8]
	bl	_ZN7openpal6Logger3LogERKNS_10LogFiltersEPKcS5_(PLT)
	b	.L160
.L171:
	mov	r1, #0
	blx	r3
	b	.L161
.L173:
	.align	2
.L172:
	.word	_GLOBAL_OFFSET_TABLE_-(.LPIC37+8)
	.word	_ZN8opendnp329PLLS_ConfUserDataTransmitWait8instanceE(GOT)
	.word	_ZN8opendnp313ILinkListener13OnStateChangeENS_10LinkStatusE(GOT)
	.word	_ZN8opendnp39PLLS_Idle8instanceE(GOT)
	.word	.LC22-(.LPIC38+8)
	.word	.LC23-(.LPIC39+8)
	.word	.LC24-(.LPIC40+8)
	.word	.LC25-(.LPIC41+8)
	.fnend
	.size	_ZN8opendnp317PLLS_ConfDataWait9OnTimeoutERNS_11LinkContextE, .-_ZN8opendnp317PLLS_ConfDataWait9OnTimeoutERNS_11LinkContextE
	.align	2
	.global	_ZN8opendnp318PLLS_ResetLinkWait5OnAckERNS_11LinkContextEb
	.syntax unified
	.arm
	.fpu vfp
	.type	_ZN8opendnp318PLLS_ResetLinkWait5OnAckERNS_11LinkContextEb, %function
_ZN8opendnp318PLLS_ResetLinkWait5OnAckERNS_11LinkContextEb:
	.fnstart
.LFB2196:
	@ args = 0, pretend = 0, frame = 16
	@ frame_needed = 0, uses_anonymous_args = 0
	push	{r4, r5, r6, lr}
	.save {r4, r5, r6, lr}
	mov	r4, r1
	mov	r6, #1
	.pad #16
	sub	sp, sp, #16
	mov	r0, r1
	strb	r6, [r1, #423]
	strb	r6, [r1, #421]
	bl	_ZN8opendnp311LinkContext11CancelTimerEv(PLT)
	ldr	r3, [r4, #384]
	add	r5, sp, #8
	mov	r1, r3
	ldr	r3, [r3]
	mov	r0, r5
	ldr	r3, [r3, #12]
	blx	r3
	ldrb	r3, [r4, #421]	@ zero_extendqisi2
	mov	r1, r4
	mov	r2, r5
	mov	r0, sp
	bl	_ZN8opendnp311LinkContext32FormatPrimaryBufferWithConfirmedERKN7openpal6RSliceEb(PLT)
	mov	r0, r4
	mov	r2, r6
	mov	r1, sp
	bl	_ZN8opendnp311LinkContext13QueueTransmitERKN7openpal6RSliceEb(PLT)
	ldr	r0, [r4, #468]
	ldr	r4, .L178
	ldr	r3, .L178+4
	ldr	r1, [r0]
.LPIC42:
	add	r4, pc, r4
	ldr	r2, [r4, r3]
	ldr	r3, [r1]
	cmp	r3, r2
	bne	.L177
	ldr	r3, .L178+8
	ldr	r0, [r4, r3]
	add	sp, sp, #16
	@ sp needed
	pop	{r4, r5, r6, pc}
.L177:
	mov	r1, r6
	blx	r3
	ldr	r3, .L178+8
	ldr	r0, [r4, r3]
	add	sp, sp, #16
	@ sp needed
	pop	{r4, r5, r6, pc}
.L179:
	.align	2
.L178:
	.word	_GLOBAL_OFFSET_TABLE_-(.LPIC42+8)
	.word	_ZN8opendnp313ILinkListener13OnStateChangeENS_10LinkStatusE(GOT)
	.word	_ZN8opendnp329PLLS_ConfUserDataTransmitWait8instanceE(GOT)
	.fnend
	.size	_ZN8opendnp318PLLS_ResetLinkWait5OnAckERNS_11LinkContextEb, .-_ZN8opendnp318PLLS_ResetLinkWait5OnAckERNS_11LinkContextEb
	.align	2
	.global	_ZN8opendnp39PLLS_Idle24TrySendRequestLinkStatusERNS_11LinkContextE
	.syntax unified
	.arm
	.fpu vfp
	.type	_ZN8opendnp39PLLS_Idle24TrySendRequestLinkStatusERNS_11LinkContextE, %function
_ZN8opendnp39PLLS_Idle24TrySendRequestLinkStatusERNS_11LinkContextE:
	.fnstart
.LFB2191:
	@ args = 0, pretend = 0, frame = 0
	@ frame_needed = 0, uses_anonymous_args = 0
	push	{r4, lr}
	.save {r4, lr}
	mov	r3, #0
	mov	r4, r1
	strb	r3, [r1, #424]
	mov	r0, r1
	bl	_ZN8opendnp311LinkContext22QueueRequestLinkStatusEv(PLT)
	ldr	r0, [r4, #468]
	ldr	r4, .L184
	ldr	r3, .L184+4
	ldr	r1, [r0]
.LPIC43:
	add	r4, pc, r4
	ldr	r2, [r4, r3]
	ldr	r3, [r1, #4]
	cmp	r3, r2
	bne	.L183
.L181:
	ldr	r3, .L184+8
	ldr	r0, [r4, r3]
	pop	{r4, pc}
.L183:
	blx	r3
	b	.L181
.L185:
	.align	2
.L184:
	.word	_GLOBAL_OFFSET_TABLE_-(.LPIC43+8)
	.word	_ZN8opendnp313ILinkListener20OnKeepAliveInitiatedEv(GOT)
	.word	_ZN8opendnp334PLLS_RequestLinkStatusTransmitWait8instanceE(GOT)
	.fnend
	.size	_ZN8opendnp39PLLS_Idle24TrySendRequestLinkStatusERNS_11LinkContextE, .-_ZN8opendnp39PLLS_Idle24TrySendRequestLinkStatusERNS_11LinkContextE
	.align	2
	.global	_ZN8opendnp318PLLS_ResetLinkWait7FailureERNS_11LinkContextE
	.syntax unified
	.arm
	.fpu vfp
	.type	_ZN8opendnp318PLLS_ResetLinkWait7FailureERNS_11LinkContextE, %function
_ZN8opendnp318PLLS_ResetLinkWait7FailureERNS_11LinkContextE:
	.fnstart
.LFB2822:
	@ args = 0, pretend = 0, frame = 0
	@ frame_needed = 0, uses_anonymous_args = 0
	push	{r4, lr}
	.save {r4, lr}
	mov	r0, r1
	mov	r4, r1
	bl	_ZN8opendnp311LinkContext11CancelTimerEv(PLT)
	mov	r0, r4
	mov	r1, #0
	bl	_ZN8opendnp311LinkContext21CompleteSendOperationEb(PLT)
	ldr	r3, .L188
	ldr	r2, .L188+4
.LPIC44:
	add	r3, pc, r3
	ldr	r0, [r3, r2]
	pop	{r4, pc}
.L189:
	.align	2
.L188:
	.word	_GLOBAL_OFFSET_TABLE_-(.LPIC44+8)
	.word	_ZN8opendnp39PLLS_Idle8instanceE(GOT)
	.fnend
	.size	_ZN8opendnp318PLLS_ResetLinkWait7FailureERNS_11LinkContextE, .-_ZN8opendnp318PLLS_ResetLinkWait7FailureERNS_11LinkContextE
	.section	.text._ZN8opendnp318PLLS_ResetLinkWait14OnNotSupportedERNS_11LinkContextEb,"axG",%progbits,_ZN8opendnp318PLLS_ResetLinkWait14OnNotSupportedERNS_11LinkContextEb,comdat
	.align	2
	.weak	_ZN8opendnp318PLLS_ResetLinkWait14OnNotSupportedERNS_11LinkContextEb
	.syntax unified
	.arm
	.fpu vfp
	.type	_ZN8opendnp318PLLS_ResetLinkWait14OnNotSupportedERNS_11LinkContextEb, %function
_ZN8opendnp318PLLS_ResetLinkWait14OnNotSupportedERNS_11LinkContextEb:
	.fnstart
.LFB35:
	@ args = 0, pretend = 0, frame = 0
	@ frame_needed = 0, uses_anonymous_args = 0
	@ link register save eliminated.
	b	_ZN8opendnp318PLLS_ResetLinkWait7FailureERNS_11LinkContextE(PLT)
	.cantunwind
	.fnend
	.size	_ZN8opendnp318PLLS_ResetLinkWait14OnNotSupportedERNS_11LinkContextEb, .-_ZN8opendnp318PLLS_ResetLinkWait14OnNotSupportedERNS_11LinkContextEb
	.section	.text._ZN8opendnp318PLLS_ResetLinkWait12OnLinkStatusERNS_11LinkContextEb,"axG",%progbits,_ZN8opendnp318PLLS_ResetLinkWait12OnLinkStatusERNS_11LinkContextEb,comdat
	.align	2
	.weak	_ZN8opendnp318PLLS_ResetLinkWait12OnLinkStatusERNS_11LinkContextEb
	.syntax unified
	.arm
	.fpu vfp
	.type	_ZN8opendnp318PLLS_ResetLinkWait12OnLinkStatusERNS_11LinkContextEb, %function
_ZN8opendnp318PLLS_ResetLinkWait12OnLinkStatusERNS_11LinkContextEb:
	.fnstart
.LFB34:
	@ args = 0, pretend = 0, frame = 0
	@ frame_needed = 0, uses_anonymous_args = 0
	@ link register save eliminated.
	b	_ZN8opendnp318PLLS_ResetLinkWait7FailureERNS_11LinkContextE(PLT)
	.cantunwind
	.fnend
	.size	_ZN8opendnp318PLLS_ResetLinkWait12OnLinkStatusERNS_11LinkContextEb, .-_ZN8opendnp318PLLS_ResetLinkWait12OnLinkStatusERNS_11LinkContextEb
	.section	.text._ZN8opendnp318PLLS_ResetLinkWait6OnNackERNS_11LinkContextEb,"axG",%progbits,_ZN8opendnp318PLLS_ResetLinkWait6OnNackERNS_11LinkContextEb,comdat
	.align	2
	.weak	_ZN8opendnp318PLLS_ResetLinkWait6OnNackERNS_11LinkContextEb
	.syntax unified
	.arm
	.fpu vfp
	.type	_ZN8opendnp318PLLS_ResetLinkWait6OnNackERNS_11LinkContextEb, %function
_ZN8opendnp318PLLS_ResetLinkWait6OnNackERNS_11LinkContextEb:
	.fnstart
.LFB33:
	@ args = 0, pretend = 0, frame = 0
	@ frame_needed = 0, uses_anonymous_args = 0
	@ link register save eliminated.
	b	_ZN8opendnp318PLLS_ResetLinkWait7FailureERNS_11LinkContextE(PLT)
	.cantunwind
	.fnend
	.size	_ZN8opendnp318PLLS_ResetLinkWait6OnNackERNS_11LinkContextEb, .-_ZN8opendnp318PLLS_ResetLinkWait6OnNackERNS_11LinkContextEb
	.text
	.align	2
	.global	_ZN8opendnp317PLLS_ConfDataWait7FailureERNS_11LinkContextE
	.syntax unified
	.arm
	.fpu vfp
	.type	_ZN8opendnp317PLLS_ConfDataWait7FailureERNS_11LinkContextE, %function
_ZN8opendnp317PLLS_ConfDataWait7FailureERNS_11LinkContextE:
	.fnstart
.LFB2201:
	@ args = 0, pretend = 0, frame = 0
	@ frame_needed = 0, uses_anonymous_args = 0
	push	{r4, lr}
	.save {r4, lr}
	mov	r0, r1
	mov	r4, r1
	bl	_ZN8opendnp311LinkContext11CancelTimerEv(PLT)
	mov	r0, r4
	mov	r1, #0
	bl	_ZN8opendnp311LinkContext21CompleteSendOperationEb(PLT)
	ldr	r3, .L195
	ldr	r2, .L195+4
.LPIC45:
	add	r3, pc, r3
	ldr	r0, [r3, r2]
	pop	{r4, pc}
.L196:
	.align	2
.L195:
	.word	_GLOBAL_OFFSET_TABLE_-(.LPIC45+8)
	.word	_ZN8opendnp39PLLS_Idle8instanceE(GOT)
	.fnend
	.size	_ZN8opendnp317PLLS_ConfDataWait7FailureERNS_11LinkContextE, .-_ZN8opendnp317PLLS_ConfDataWait7FailureERNS_11LinkContextE
	.section	.text._ZN8opendnp317PLLS_ConfDataWait14OnNotSupportedERNS_11LinkContextEb,"axG",%progbits,_ZN8opendnp317PLLS_ConfDataWait14OnNotSupportedERNS_11LinkContextEb,comdat
	.align	2
	.weak	_ZN8opendnp317PLLS_ConfDataWait14OnNotSupportedERNS_11LinkContextEb
	.syntax unified
	.arm
	.fpu vfp
	.type	_ZN8opendnp317PLLS_ConfDataWait14OnNotSupportedERNS_11LinkContextEb, %function
_ZN8opendnp317PLLS_ConfDataWait14OnNotSupportedERNS_11LinkContextEb:
	.fnstart
.LFB42:
	@ args = 0, pretend = 0, frame = 0
	@ frame_needed = 0, uses_anonymous_args = 0
	@ link register save eliminated.
	b	_ZN8opendnp317PLLS_ConfDataWait7FailureERNS_11LinkContextE(PLT)
	.cantunwind
	.fnend
	.size	_ZN8opendnp317PLLS_ConfDataWait14OnNotSupportedERNS_11LinkContextEb, .-_ZN8opendnp317PLLS_ConfDataWait14OnNotSupportedERNS_11LinkContextEb
	.section	.text._ZN8opendnp317PLLS_ConfDataWait12OnLinkStatusERNS_11LinkContextEb,"axG",%progbits,_ZN8opendnp317PLLS_ConfDataWait12OnLinkStatusERNS_11LinkContextEb,comdat
	.align	2
	.weak	_ZN8opendnp317PLLS_ConfDataWait12OnLinkStatusERNS_11LinkContextEb
	.syntax unified
	.arm
	.fpu vfp
	.type	_ZN8opendnp317PLLS_ConfDataWait12OnLinkStatusERNS_11LinkContextEb, %function
_ZN8opendnp317PLLS_ConfDataWait12OnLinkStatusERNS_11LinkContextEb:
	.fnstart
.LFB41:
	@ args = 0, pretend = 0, frame = 0
	@ frame_needed = 0, uses_anonymous_args = 0
	@ link register save eliminated.
	b	_ZN8opendnp317PLLS_ConfDataWait7FailureERNS_11LinkContextE(PLT)
	.cantunwind
	.fnend
	.size	_ZN8opendnp317PLLS_ConfDataWait12OnLinkStatusERNS_11LinkContextEb, .-_ZN8opendnp317PLLS_ConfDataWait12OnLinkStatusERNS_11LinkContextEb
	.text
	.align	2
	.global	_ZN8opendnp317PLLS_ConfDataWait6OnNackERNS_11LinkContextEb
	.syntax unified
	.arm
	.fpu vfp
	.type	_ZN8opendnp317PLLS_ConfDataWait6OnNackERNS_11LinkContextEb, %function
_ZN8opendnp317PLLS_ConfDataWait6OnNackERNS_11LinkContextEb:
	.fnstart
.LFB2200:
	@ args = 0, pretend = 0, frame = 8
	@ frame_needed = 0, uses_anonymous_args = 0
	push	{r4, r5, r6, lr}
	.save {r4, r5, r6, lr}
	mov	r4, r1
	ldr	r1, [r1, #468]
	ldr	r5, .L205
	ldr	r3, .L205+4
	ldr	ip, [r1]
.LPIC46:
	add	r5, pc, r5
	mov	r6, r0
	ldr	r0, [r5, r3]
	ldr	r3, [ip]
	.pad #8
	sub	sp, sp, #8
	cmp	r3, r0
	bne	.L203
.L200:
	cmp	r2, #0
	bne	.L204
	mov	r0, r4
	bl	_ZN8opendnp311LinkContext10ResetRetryEv(PLT)
	mov	r0, r4
	bl	_ZN8opendnp311LinkContext11CancelTimerEv(PLT)
	mov	r0, r4
	bl	_ZN8opendnp311LinkContext15QueueResetLinksEv(PLT)
	ldr	r3, .L205+8
	ldr	r0, [r5, r3]
	add	sp, sp, #8
	@ sp needed
	pop	{r4, r5, r6, pc}
.L204:
	mov	r1, r4
	mov	r0, r6
	add	sp, sp, #8
	@ sp needed
	pop	{r4, r5, r6, lr}
	b	_ZN8opendnp317PLLS_ConfDataWait7FailureERNS_11LinkContextE(PLT)
.L203:
	str	r2, [sp, #4]
	mov	r0, r1
	mov	r1, #0
	blx	r3
	ldr	r2, [sp, #4]
	b	.L200
.L206:
	.align	2
.L205:
	.word	_GLOBAL_OFFSET_TABLE_-(.LPIC46+8)
	.word	_ZN8opendnp313ILinkListener13OnStateChangeENS_10LinkStatusE(GOT)
	.word	_ZN8opendnp326PLLS_LinkResetTransmitWait8instanceE(GOT)
	.fnend
	.size	_ZN8opendnp317PLLS_ConfDataWait6OnNackERNS_11LinkContextEb, .-_ZN8opendnp317PLLS_ConfDataWait6OnNackERNS_11LinkContextEb
	.section	.text.startup,"ax",%progbits
	.align	2
	.syntax unified
	.arm
	.fpu vfp
	.type	_GLOBAL__sub_I_PriLinkLayerStates.cpp, %function
_GLOBAL__sub_I_PriLinkLayerStates.cpp:
	.fnstart
.LFB2811:
	@ args = 0, pretend = 0, frame = 0
	@ frame_needed = 0, uses_anonymous_args = 0
	@ link register save eliminated.
	ldr	r3, .L208
	ldr	r1, .L208+4
	ldr	r0, .L208+8
.LPIC47:
	add	r3, pc, r3
	ldr	r2, .L208+12
	ldr	ip, [r3, r1]
	ldr	r0, [r3, r0]
	ldr	r1, .L208+16
	add	r0, r0, #8
	str	r0, [ip]
	ldr	r0, .L208+20
	ldr	ip, [r3, r1]
	ldr	r2, [r3, r2]
	ldr	r1, .L208+24
	add	r2, r2, #8
	str	r2, [ip]
	ldr	r2, .L208+28
	ldr	ip, [r3, r1]
	ldr	r0, [r3, r0]
	ldr	r1, .L208+32
	add	r0, r0, #8
	str	r0, [ip]
	ldr	r0, .L208+36
	ldr	ip, [r3, r1]
	ldr	r2, [r3, r2]
	ldr	r1, .L208+40
	add	r2, r2, #8
	str	r2, [ip]
	ldr	r2, .L208+44
	ldr	ip, [r3, r1]
	ldr	r0, [r3, r0]
	ldr	r1, .L208+48
	add	r0, r0, #8
	str	r0, [ip]
	ldr	r0, .L208+52
	ldr	ip, [r3, r1]
	ldr	r2, [r3, r2]
	ldr	r1, .L208+56
	add	r2, r2, #8
	str	r2, [ip]
	ldr	r2, .L208+60
	ldr	r0, [r3, r0]
	ldr	ip, [r3, r1]
	ldr	r1, .L208+64
	add	r0, r0, #8
	str	r0, [ip]
	ldr	r2, [r3, r2]
	ldr	r1, [r3, r1]
	add	r2, r2, #8
	str	r2, [r1]
	bx	lr
.L209:
	.align	2
.L208:
	.word	_GLOBAL_OFFSET_TABLE_-(.LPIC47+8)
	.word	_ZN8opendnp39PLLS_Idle8instanceE(GOT)
	.word	_ZTVN8opendnp39PLLS_IdleE(GOT)
	.word	_ZTVN8opendnp332PLLS_SendUnconfirmedTransmitWaitE(GOT)
	.word	_ZN8opendnp332PLLS_SendUnconfirmedTransmitWait8instanceE(GOT)
	.word	_ZTVN8opendnp326PLLS_LinkResetTransmitWaitE(GOT)
	.word	_ZN8opendnp326PLLS_LinkResetTransmitWait8instanceE(GOT)
	.word	_ZTVN8opendnp329PLLS_ConfUserDataTransmitWaitE(GOT)
	.word	_ZN8opendnp329PLLS_ConfUserDataTransmitWait8instanceE(GOT)
	.word	_ZTVN8opendnp334PLLS_RequestLinkStatusTransmitWaitE(GOT)
	.word	_ZN8opendnp334PLLS_RequestLinkStatusTransmitWait8instanceE(GOT)
	.word	_ZTVN8opendnp318PLLS_ResetLinkWaitE(GOT)
	.word	_ZN8opendnp318PLLS_ResetLinkWait8instanceE(GOT)
	.word	_ZTVN8opendnp317PLLS_ConfDataWaitE(GOT)
	.word	_ZN8opendnp317PLLS_ConfDataWait8instanceE(GOT)
	.word	_ZTVN8opendnp326PLLS_RequestLinkStatusWaitE(GOT)
	.word	_ZN8opendnp326PLLS_RequestLinkStatusWait8instanceE(GOT)
	.cantunwind
	.fnend
	.size	_GLOBAL__sub_I_PriLinkLayerStates.cpp, .-_GLOBAL__sub_I_PriLinkLayerStates.cpp
	.section	.init_array,"aw"
	.align	2
	.word	_GLOBAL__sub_I_PriLinkLayerStates.cpp
	.global	_ZTSN8opendnp312PriStateBaseE
	.global	_ZTIN8opendnp312PriStateBaseE
	.global	_ZTSN8opendnp39PLLS_IdleE
	.global	_ZTIN8opendnp39PLLS_IdleE
	.global	_ZTSN8opendnp332PLLS_SendUnconfirmedTransmitWaitE
	.global	_ZTIN8opendnp332PLLS_SendUnconfirmedTransmitWaitE
	.global	_ZTSN8opendnp326PLLS_LinkResetTransmitWaitE
	.global	_ZTIN8opendnp326PLLS_LinkResetTransmitWaitE
	.global	_ZTSN8opendnp329PLLS_ConfUserDataTransmitWaitE
	.global	_ZTIN8opendnp329PLLS_ConfUserDataTransmitWaitE
	.global	_ZTSN8opendnp334PLLS_RequestLinkStatusTransmitWaitE
	.global	_ZTIN8opendnp334PLLS_RequestLinkStatusTransmitWaitE
	.global	_ZTSN8opendnp318PLLS_ResetLinkWaitE
	.global	_ZTIN8opendnp318PLLS_ResetLinkWaitE
	.global	_ZTSN8opendnp317PLLS_ConfDataWaitE
	.global	_ZTIN8opendnp317PLLS_ConfDataWaitE
	.global	_ZTSN8opendnp326PLLS_RequestLinkStatusWaitE
	.global	_ZTIN8opendnp326PLLS_RequestLinkStatusWaitE
	.global	_ZTVN8opendnp312PriStateBaseE
	.global	_ZTVN8opendnp39PLLS_IdleE
	.global	_ZTVN8opendnp332PLLS_SendUnconfirmedTransmitWaitE
	.global	_ZTVN8opendnp326PLLS_LinkResetTransmitWaitE
	.global	_ZTVN8opendnp329PLLS_ConfUserDataTransmitWaitE
	.global	_ZTVN8opendnp334PLLS_RequestLinkStatusTransmitWaitE
	.global	_ZTVN8opendnp318PLLS_ResetLinkWaitE
	.global	_ZTVN8opendnp317PLLS_ConfDataWaitE
	.global	_ZTVN8opendnp326PLLS_RequestLinkStatusWaitE
	.global	_ZN8opendnp326PLLS_RequestLinkStatusWait8instanceE
	.global	_ZN8opendnp317PLLS_ConfDataWait8instanceE
	.global	_ZN8opendnp318PLLS_ResetLinkWait8instanceE
	.global	_ZN8opendnp334PLLS_RequestLinkStatusTransmitWait8instanceE
	.global	_ZN8opendnp329PLLS_ConfUserDataTransmitWait8instanceE
	.global	_ZN8opendnp326PLLS_LinkResetTransmitWait8instanceE
	.global	_ZN8opendnp332PLLS_SendUnconfirmedTransmitWait8instanceE
	.global	_ZN8opendnp39PLLS_Idle8instanceE
	.section	.rodata
	.align	2
	.type	_ZTSN8opendnp312PriStateBaseE, %object
	.size	_ZTSN8opendnp312PriStateBaseE, 26
_ZTSN8opendnp312PriStateBaseE:
	.ascii	"N8opendnp312PriStateBaseE\000"
	.space	2
	.type	_ZTSN8opendnp39PLLS_IdleE, %object
	.size	_ZTSN8opendnp39PLLS_IdleE, 22
_ZTSN8opendnp39PLLS_IdleE:
	.ascii	"N8opendnp39PLLS_IdleE\000"
	.space	2
	.type	_ZTSN8opendnp332PLLS_SendUnconfirmedTransmitWaitE, %object
	.size	_ZTSN8opendnp332PLLS_SendUnconfirmedTransmitWaitE, 46
_ZTSN8opendnp332PLLS_SendUnconfirmedTransmitWaitE:
	.ascii	"N8opendnp332PLLS_SendUnconfirmedTransmitWaitE\000"
	.space	2
	.type	_ZTSN8opendnp326PLLS_LinkResetTransmitWaitE, %object
	.size	_ZTSN8opendnp326PLLS_LinkResetTransmitWaitE, 40
_ZTSN8opendnp326PLLS_LinkResetTransmitWaitE:
	.ascii	"N8opendnp326PLLS_LinkResetTransmitWaitE\000"
	.type	_ZTSN8opendnp329PLLS_ConfUserDataTransmitWaitE, %object
	.size	_ZTSN8opendnp329PLLS_ConfUserDataTransmitWaitE, 43
_ZTSN8opendnp329PLLS_ConfUserDataTransmitWaitE:
	.ascii	"N8opendnp329PLLS_ConfUserDataTransmitWaitE\000"
	.space	1
	.type	_ZTSN8opendnp334PLLS_RequestLinkStatusTransmitWaitE, %object
	.size	_ZTSN8opendnp334PLLS_RequestLinkStatusTransmitWaitE, 48
_ZTSN8opendnp334PLLS_RequestLinkStatusTransmitWaitE:
	.ascii	"N8opendnp334PLLS_RequestLinkStatusTransmitWaitE\000"
	.type	_ZTSN8opendnp318PLLS_ResetLinkWaitE, %object
	.size	_ZTSN8opendnp318PLLS_ResetLinkWaitE, 32
_ZTSN8opendnp318PLLS_ResetLinkWaitE:
	.ascii	"N8opendnp318PLLS_ResetLinkWaitE\000"
	.type	_ZTSN8opendnp317PLLS_ConfDataWaitE, %object
	.size	_ZTSN8opendnp317PLLS_ConfDataWaitE, 31
_ZTSN8opendnp317PLLS_ConfDataWaitE:
	.ascii	"N8opendnp317PLLS_ConfDataWaitE\000"
	.space	1
	.type	_ZTSN8opendnp326PLLS_RequestLinkStatusWaitE, %object
	.size	_ZTSN8opendnp326PLLS_RequestLinkStatusWaitE, 40
_ZTSN8opendnp326PLLS_RequestLinkStatusWaitE:
	.ascii	"N8opendnp326PLLS_RequestLinkStatusWaitE\000"
	.bss
	.align	2
	.type	_ZN8opendnp326PLLS_RequestLinkStatusWait8instanceE, %object
	.size	_ZN8opendnp326PLLS_RequestLinkStatusWait8instanceE, 4
_ZN8opendnp326PLLS_RequestLinkStatusWait8instanceE:
	.space	4
	.type	_ZN8opendnp317PLLS_ConfDataWait8instanceE, %object
	.size	_ZN8opendnp317PLLS_ConfDataWait8instanceE, 4
_ZN8opendnp317PLLS_ConfDataWait8instanceE:
	.space	4
	.type	_ZN8opendnp318PLLS_ResetLinkWait8instanceE, %object
	.size	_ZN8opendnp318PLLS_ResetLinkWait8instanceE, 4
_ZN8opendnp318PLLS_ResetLinkWait8instanceE:
	.space	4
	.type	_ZN8opendnp334PLLS_RequestLinkStatusTransmitWait8instanceE, %object
	.size	_ZN8opendnp334PLLS_RequestLinkStatusTransmitWait8instanceE, 4
_ZN8opendnp334PLLS_RequestLinkStatusTransmitWait8instanceE:
	.space	4
	.type	_ZN8opendnp329PLLS_ConfUserDataTransmitWait8instanceE, %object
	.size	_ZN8opendnp329PLLS_ConfUserDataTransmitWait8instanceE, 4
_ZN8opendnp329PLLS_ConfUserDataTransmitWait8instanceE:
	.space	4
	.type	_ZN8opendnp326PLLS_LinkResetTransmitWait8instanceE, %object
	.size	_ZN8opendnp326PLLS_LinkResetTransmitWait8instanceE, 4
_ZN8opendnp326PLLS_LinkResetTransmitWait8instanceE:
	.space	4
	.type	_ZN8opendnp332PLLS_SendUnconfirmedTransmitWait8instanceE, %object
	.size	_ZN8opendnp332PLLS_SendUnconfirmedTransmitWait8instanceE, 4
_ZN8opendnp332PLLS_SendUnconfirmedTransmitWait8instanceE:
	.space	4
	.type	_ZN8opendnp39PLLS_Idle8instanceE, %object
	.size	_ZN8opendnp39PLLS_Idle8instanceE, 4
_ZN8opendnp39PLLS_Idle8instanceE:
	.space	4
	.section	.data.rel.ro,"aw",%progbits
	.align	2
	.type	_ZTIN8opendnp312PriStateBaseE, %object
	.size	_ZTIN8opendnp312PriStateBaseE, 8
_ZTIN8opendnp312PriStateBaseE:
	.word	_ZTVN10__cxxabiv117__class_type_infoE+8
	.word	_ZTSN8opendnp312PriStateBaseE
	.type	_ZTIN8opendnp39PLLS_IdleE, %object
	.size	_ZTIN8opendnp39PLLS_IdleE, 12
_ZTIN8opendnp39PLLS_IdleE:
	.word	_ZTVN10__cxxabiv120__si_class_type_infoE+8
	.word	_ZTSN8opendnp39PLLS_IdleE
	.word	_ZTIN8opendnp312PriStateBaseE
	.type	_ZTIN8opendnp332PLLS_SendUnconfirmedTransmitWaitE, %object
	.size	_ZTIN8opendnp332PLLS_SendUnconfirmedTransmitWaitE, 12
_ZTIN8opendnp332PLLS_SendUnconfirmedTransmitWaitE:
	.word	_ZTVN10__cxxabiv120__si_class_type_infoE+8
	.word	_ZTSN8opendnp332PLLS_SendUnconfirmedTransmitWaitE
	.word	_ZTIN8opendnp312PriStateBaseE
	.type	_ZTIN8opendnp326PLLS_LinkResetTransmitWaitE, %object
	.size	_ZTIN8opendnp326PLLS_LinkResetTransmitWaitE, 12
_ZTIN8opendnp326PLLS_LinkResetTransmitWaitE:
	.word	_ZTVN10__cxxabiv120__si_class_type_infoE+8
	.word	_ZTSN8opendnp326PLLS_LinkResetTransmitWaitE
	.word	_ZTIN8opendnp312PriStateBaseE
	.type	_ZTIN8opendnp329PLLS_ConfUserDataTransmitWaitE, %object
	.size	_ZTIN8opendnp329PLLS_ConfUserDataTransmitWaitE, 12
_ZTIN8opendnp329PLLS_ConfUserDataTransmitWaitE:
	.word	_ZTVN10__cxxabiv120__si_class_type_infoE+8
	.word	_ZTSN8opendnp329PLLS_ConfUserDataTransmitWaitE
	.word	_ZTIN8opendnp312PriStateBaseE
	.type	_ZTIN8opendnp334PLLS_RequestLinkStatusTransmitWaitE, %object
	.size	_ZTIN8opendnp334PLLS_RequestLinkStatusTransmitWaitE, 12
_ZTIN8opendnp334PLLS_RequestLinkStatusTransmitWaitE:
	.word	_ZTVN10__cxxabiv120__si_class_type_infoE+8
	.word	_ZTSN8opendnp334PLLS_RequestLinkStatusTransmitWaitE
	.word	_ZTIN8opendnp312PriStateBaseE
	.type	_ZTIN8opendnp318PLLS_ResetLinkWaitE, %object
	.size	_ZTIN8opendnp318PLLS_ResetLinkWaitE, 12
_ZTIN8opendnp318PLLS_ResetLinkWaitE:
	.word	_ZTVN10__cxxabiv120__si_class_type_infoE+8
	.word	_ZTSN8opendnp318PLLS_ResetLinkWaitE
	.word	_ZTIN8opendnp312PriStateBaseE
	.type	_ZTIN8opendnp317PLLS_ConfDataWaitE, %object
	.size	_ZTIN8opendnp317PLLS_ConfDataWaitE, 12
_ZTIN8opendnp317PLLS_ConfDataWaitE:
	.word	_ZTVN10__cxxabiv120__si_class_type_infoE+8
	.word	_ZTSN8opendnp317PLLS_ConfDataWaitE
	.word	_ZTIN8opendnp312PriStateBaseE
	.type	_ZTIN8opendnp326PLLS_RequestLinkStatusWaitE, %object
	.size	_ZTIN8opendnp326PLLS_RequestLinkStatusWaitE, 12
_ZTIN8opendnp326PLLS_RequestLinkStatusWaitE:
	.word	_ZTVN10__cxxabiv120__si_class_type_infoE+8
	.word	_ZTSN8opendnp326PLLS_RequestLinkStatusWaitE
	.word	_ZTIN8opendnp312PriStateBaseE
	.type	_ZTVN8opendnp312PriStateBaseE, %object
	.size	_ZTVN8opendnp312PriStateBaseE, 48
_ZTVN8opendnp312PriStateBaseE:
	.word	0
	.word	_ZTIN8opendnp312PriStateBaseE
	.word	_ZN8opendnp312PriStateBase5OnAckERNS_11LinkContextEb
	.word	_ZN8opendnp312PriStateBase6OnNackERNS_11LinkContextEb
	.word	_ZN8opendnp312PriStateBase12OnLinkStatusERNS_11LinkContextEb
	.word	_ZN8opendnp312PriStateBase14OnNotSupportedERNS_11LinkContextEb
	.word	_ZN8opendnp312PriStateBase16OnTransmitResultERNS_11LinkContextEb
	.word	_ZN8opendnp312PriStateBase9OnTimeoutERNS_11LinkContextE
	.word	_ZN8opendnp312PriStateBase16TrySendConfirmedERNS_11LinkContextERNS_17ITransportSegmentE
	.word	_ZN8opendnp312PriStateBase18TrySendUnconfirmedERNS_11LinkContextERNS_17ITransportSegmentE
	.word	_ZN8opendnp312PriStateBase24TrySendRequestLinkStatusERNS_11LinkContextE
	.word	__cxa_pure_virtual
	.type	_ZTVN8opendnp39PLLS_IdleE, %object
	.size	_ZTVN8opendnp39PLLS_IdleE, 48
_ZTVN8opendnp39PLLS_IdleE:
	.word	0
	.word	_ZTIN8opendnp39PLLS_IdleE
	.word	_ZN8opendnp312PriStateBase5OnAckERNS_11LinkContextEb
	.word	_ZN8opendnp312PriStateBase6OnNackERNS_11LinkContextEb
	.word	_ZN8opendnp312PriStateBase12OnLinkStatusERNS_11LinkContextEb
	.word	_ZN8opendnp312PriStateBase14OnNotSupportedERNS_11LinkContextEb
	.word	_ZN8opendnp312PriStateBase16OnTransmitResultERNS_11LinkContextEb
	.word	_ZN8opendnp312PriStateBase9OnTimeoutERNS_11LinkContextE
	.word	_ZN8opendnp39PLLS_Idle16TrySendConfirmedERNS_11LinkContextERNS_17ITransportSegmentE
	.word	_ZN8opendnp39PLLS_Idle18TrySendUnconfirmedERNS_11LinkContextERNS_17ITransportSegmentE
	.word	_ZN8opendnp39PLLS_Idle24TrySendRequestLinkStatusERNS_11LinkContextE
	.word	_ZNK8opendnp39PLLS_Idle4NameEv
	.type	_ZTVN8opendnp332PLLS_SendUnconfirmedTransmitWaitE, %object
	.size	_ZTVN8opendnp332PLLS_SendUnconfirmedTransmitWaitE, 48
_ZTVN8opendnp332PLLS_SendUnconfirmedTransmitWaitE:
	.word	0
	.word	_ZTIN8opendnp332PLLS_SendUnconfirmedTransmitWaitE
	.word	_ZN8opendnp312PriStateBase5OnAckERNS_11LinkContextEb
	.word	_ZN8opendnp312PriStateBase6OnNackERNS_11LinkContextEb
	.word	_ZN8opendnp312PriStateBase12OnLinkStatusERNS_11LinkContextEb
	.word	_ZN8opendnp312PriStateBase14OnNotSupportedERNS_11LinkContextEb
	.word	_ZN8opendnp332PLLS_SendUnconfirmedTransmitWait16OnTransmitResultERNS_11LinkContextEb
	.word	_ZN8opendnp312PriStateBase9OnTimeoutERNS_11LinkContextE
	.word	_ZN8opendnp312PriStateBase16TrySendConfirmedERNS_11LinkContextERNS_17ITransportSegmentE
	.word	_ZN8opendnp312PriStateBase18TrySendUnconfirmedERNS_11LinkContextERNS_17ITransportSegmentE
	.word	_ZN8opendnp312PriStateBase24TrySendRequestLinkStatusERNS_11LinkContextE
	.word	_ZNK8opendnp332PLLS_SendUnconfirmedTransmitWait4NameEv
	.type	_ZTVN8opendnp326PLLS_LinkResetTransmitWaitE, %object
	.size	_ZTVN8opendnp326PLLS_LinkResetTransmitWaitE, 48
_ZTVN8opendnp326PLLS_LinkResetTransmitWaitE:
	.word	0
	.word	_ZTIN8opendnp326PLLS_LinkResetTransmitWaitE
	.word	_ZN8opendnp312PriStateBase5OnAckERNS_11LinkContextEb
	.word	_ZN8opendnp312PriStateBase6OnNackERNS_11LinkContextEb
	.word	_ZN8opendnp312PriStateBase12OnLinkStatusERNS_11LinkContextEb
	.word	_ZN8opendnp312PriStateBase14OnNotSupportedERNS_11LinkContextEb
	.word	_ZN8opendnp326PLLS_LinkResetTransmitWait16OnTransmitResultERNS_11LinkContextEb
	.word	_ZN8opendnp312PriStateBase9OnTimeoutERNS_11LinkContextE
	.word	_ZN8opendnp312PriStateBase16TrySendConfirmedERNS_11LinkContextERNS_17ITransportSegmentE
	.word	_ZN8opendnp312PriStateBase18TrySendUnconfirmedERNS_11LinkContextERNS_17ITransportSegmentE
	.word	_ZN8opendnp312PriStateBase24TrySendRequestLinkStatusERNS_11LinkContextE
	.word	_ZNK8opendnp326PLLS_LinkResetTransmitWait4NameEv
	.type	_ZTVN8opendnp329PLLS_ConfUserDataTransmitWaitE, %object
	.size	_ZTVN8opendnp329PLLS_ConfUserDataTransmitWaitE, 48
_ZTVN8opendnp329PLLS_ConfUserDataTransmitWaitE:
	.word	0
	.word	_ZTIN8opendnp329PLLS_ConfUserDataTransmitWaitE
	.word	_ZN8opendnp312PriStateBase5OnAckERNS_11LinkContextEb
	.word	_ZN8opendnp312PriStateBase6OnNackERNS_11LinkContextEb
	.word	_ZN8opendnp312PriStateBase12OnLinkStatusERNS_11LinkContextEb
	.word	_ZN8opendnp312PriStateBase14OnNotSupportedERNS_11LinkContextEb
	.word	_ZN8opendnp329PLLS_ConfUserDataTransmitWait16OnTransmitResultERNS_11LinkContextEb
	.word	_ZN8opendnp312PriStateBase9OnTimeoutERNS_11LinkContextE
	.word	_ZN8opendnp312PriStateBase16TrySendConfirmedERNS_11LinkContextERNS_17ITransportSegmentE
	.word	_ZN8opendnp312PriStateBase18TrySendUnconfirmedERNS_11LinkContextERNS_17ITransportSegmentE
	.word	_ZN8opendnp312PriStateBase24TrySendRequestLinkStatusERNS_11LinkContextE
	.word	_ZNK8opendnp329PLLS_ConfUserDataTransmitWait4NameEv
	.type	_ZTVN8opendnp334PLLS_RequestLinkStatusTransmitWaitE, %object
	.size	_ZTVN8opendnp334PLLS_RequestLinkStatusTransmitWaitE, 48
_ZTVN8opendnp334PLLS_RequestLinkStatusTransmitWaitE:
	.word	0
	.word	_ZTIN8opendnp334PLLS_RequestLinkStatusTransmitWaitE
	.word	_ZN8opendnp312PriStateBase5OnAckERNS_11LinkContextEb
	.word	_ZN8opendnp312PriStateBase6OnNackERNS_11LinkContextEb
	.word	_ZN8opendnp312PriStateBase12OnLinkStatusERNS_11LinkContextEb
	.word	_ZN8opendnp312PriStateBase14OnNotSupportedERNS_11LinkContextEb
	.word	_ZN8opendnp334PLLS_RequestLinkStatusTransmitWait16OnTransmitResultERNS_11LinkContextEb
	.word	_ZN8opendnp312PriStateBase9OnTimeoutERNS_11LinkContextE
	.word	_ZN8opendnp312PriStateBase16TrySendConfirmedERNS_11LinkContextERNS_17ITransportSegmentE
	.word	_ZN8opendnp312PriStateBase18TrySendUnconfirmedERNS_11LinkContextERNS_17ITransportSegmentE
	.word	_ZN8opendnp312PriStateBase24TrySendRequestLinkStatusERNS_11LinkContextE
	.word	_ZNK8opendnp334PLLS_RequestLinkStatusTransmitWait4NameEv
	.type	_ZTVN8opendnp318PLLS_ResetLinkWaitE, %object
	.size	_ZTVN8opendnp318PLLS_ResetLinkWaitE, 48
_ZTVN8opendnp318PLLS_ResetLinkWaitE:
	.word	0
	.word	_ZTIN8opendnp318PLLS_ResetLinkWaitE
	.word	_ZN8opendnp318PLLS_ResetLinkWait5OnAckERNS_11LinkContextEb
	.word	_ZN8opendnp318PLLS_ResetLinkWait6OnNackERNS_11LinkContextEb
	.word	_ZN8opendnp318PLLS_ResetLinkWait12OnLinkStatusERNS_11LinkContextEb
	.word	_ZN8opendnp318PLLS_ResetLinkWait14OnNotSupportedERNS_11LinkContextEb
	.word	_ZN8opendnp312PriStateBase16OnTransmitResultERNS_11LinkContextEb
	.word	_ZN8opendnp318PLLS_ResetLinkWait9OnTimeoutERNS_11LinkContextE
	.word	_ZN8opendnp312PriStateBase16TrySendConfirmedERNS_11LinkContextERNS_17ITransportSegmentE
	.word	_ZN8opendnp312PriStateBase18TrySendUnconfirmedERNS_11LinkContextERNS_17ITransportSegmentE
	.word	_ZN8opendnp312PriStateBase24TrySendRequestLinkStatusERNS_11LinkContextE
	.word	_ZNK8opendnp318PLLS_ResetLinkWait4NameEv
	.type	_ZTVN8opendnp317PLLS_ConfDataWaitE, %object
	.size	_ZTVN8opendnp317PLLS_ConfDataWaitE, 48
_ZTVN8opendnp317PLLS_ConfDataWaitE:
	.word	0
	.word	_ZTIN8opendnp317PLLS_ConfDataWaitE
	.word	_ZN8opendnp317PLLS_ConfDataWait5OnAckERNS_11LinkContextEb
	.word	_ZN8opendnp317PLLS_ConfDataWait6OnNackERNS_11LinkContextEb
	.word	_ZN8opendnp317PLLS_ConfDataWait12OnLinkStatusERNS_11LinkContextEb
	.word	_ZN8opendnp317PLLS_ConfDataWait14OnNotSupportedERNS_11LinkContextEb
	.word	_ZN8opendnp312PriStateBase16OnTransmitResultERNS_11LinkContextEb
	.word	_ZN8opendnp317PLLS_ConfDataWait9OnTimeoutERNS_11LinkContextE
	.word	_ZN8opendnp312PriStateBase16TrySendConfirmedERNS_11LinkContextERNS_17ITransportSegmentE
	.word	_ZN8opendnp312PriStateBase18TrySendUnconfirmedERNS_11LinkContextERNS_17ITransportSegmentE
	.word	_ZN8opendnp312PriStateBase24TrySendRequestLinkStatusERNS_11LinkContextE
	.word	_ZNK8opendnp317PLLS_ConfDataWait4NameEv
	.type	_ZTVN8opendnp326PLLS_RequestLinkStatusWaitE, %object
	.size	_ZTVN8opendnp326PLLS_RequestLinkStatusWaitE, 48
_ZTVN8opendnp326PLLS_RequestLinkStatusWaitE:
	.word	0
	.word	_ZTIN8opendnp326PLLS_RequestLinkStatusWaitE
	.word	_ZN8opendnp312PriStateBase5OnAckERNS_11LinkContextEb
	.word	_ZN8opendnp326PLLS_RequestLinkStatusWait6OnNackERNS_11LinkContextEb
	.word	_ZN8opendnp326PLLS_RequestLinkStatusWait12OnLinkStatusERNS_11LinkContextEb
	.word	_ZN8opendnp326PLLS_RequestLinkStatusWait14OnNotSupportedERNS_11LinkContextEb
	.word	_ZN8opendnp312PriStateBase16OnTransmitResultERNS_11LinkContextEb
	.word	_ZN8opendnp326PLLS_RequestLinkStatusWait9OnTimeoutERNS_11LinkContextE
	.word	_ZN8opendnp312PriStateBase16TrySendConfirmedERNS_11LinkContextERNS_17ITransportSegmentE
	.word	_ZN8opendnp312PriStateBase18TrySendUnconfirmedERNS_11LinkContextERNS_17ITransportSegmentE
	.word	_ZN8opendnp312PriStateBase24TrySendRequestLinkStatusERNS_11LinkContextE
	.word	_ZNK8opendnp326PLLS_RequestLinkStatusWait4NameEv
	.section	.rodata._ZNK8opendnp317PLLS_ConfDataWait4NameEv.str1.4,"aMS",%progbits,1
	.align	2
.LC6:
	.ascii	"PLLS_ConfDataWait\000"
	.section	.rodata._ZNK8opendnp318PLLS_ResetLinkWait4NameEv.str1.4,"aMS",%progbits,1
	.align	2
.LC5:
	.ascii	"PLLS_ResetLinkWait\000"
	.section	.rodata._ZNK8opendnp326PLLS_LinkResetTransmitWait4NameEv.str1.4,"aMS",%progbits,1
	.align	2
.LC2:
	.ascii	"PLLS_LinkResetTransmitWait\000"
	.section	.rodata._ZNK8opendnp326PLLS_RequestLinkStatusWait4NameEv.str1.4,"aMS",%progbits,1
	.align	2
.LC7:
	.ascii	"PLLS_RequestLinkStatusWait\000"
	.section	.rodata._ZNK8opendnp329PLLS_ConfUserDataTransmitWait4NameEv.str1.4,"aMS",%progbits,1
	.align	2
.LC3:
	.ascii	"PLLS_ConfUserDataTransmitWait\000"
	.section	.rodata._ZNK8opendnp332PLLS_SendUnconfirmedTransmitWait4NameEv.str1.4,"aMS",%progbits,1
	.align	2
.LC1:
	.ascii	"PLLS_SendUnconfirmedTransmitWait\000"
	.section	.rodata._ZNK8opendnp334PLLS_RequestLinkStatusTransmitWait4NameEv.str1.4,"aMS",%progbits,1
	.align	2
.LC4:
	.ascii	"PLLS_RequestLinkStatusTransmitWait\000"
	.section	.rodata._ZNK8opendnp39PLLS_Idle4NameEv.str1.4,"aMS",%progbits,1
	.align	2
.LC0:
	.ascii	"PLLS_Idle\000"
	.section	.rodata.str1.4,"aMS",%progbits,1
	.align	2
.LC8:
	.ascii	"Frame context not understood\000"
	.space	3
.LC9:
	.ascii	"/home/pi/OpenPLC_v3/utils/dnp3_src/cpp/libs/src/ope"
	.ascii	"ndnp3/link/PriLinkLayerStates.cpp(40)\000"
	.space	3
.LC10:
	.ascii	"/home/pi/OpenPLC_v3/utils/dnp3_src/cpp/libs/src/ope"
	.ascii	"ndnp3/link/PriLinkLayerStates.cpp(47)\000"
	.space	3
.LC11:
	.ascii	"/home/pi/OpenPLC_v3/utils/dnp3_src/cpp/libs/src/ope"
	.ascii	"ndnp3/link/PriLinkLayerStates.cpp(54)\000"
	.space	3
.LC12:
	.ascii	"/home/pi/OpenPLC_v3/utils/dnp3_src/cpp/libs/src/ope"
	.ascii	"ndnp3/link/PriLinkLayerStates.cpp(61)\000"
	.space	3
.LC13:
	.ascii	"Invalid action for state: %s\000"
	.space	3
.LC14:
	.ascii	"/home/pi/OpenPLC_v3/utils/dnp3_src/cpp/libs/src/ope"
	.ascii	"ndnp3/link/PriLinkLayerStates.cpp(67)\000"
	.space	3
.LC15:
	.ascii	"/home/pi/OpenPLC_v3/utils/dnp3_src/cpp/libs/src/ope"
	.ascii	"ndnp3/link/PriLinkLayerStates.cpp(73)\000"
	.space	3
.LC16:
	.ascii	"Link status request - response timeout\000"
	.space	1
.LC17:
	.ascii	"/home/pi/OpenPLC_v3/utils/dnp3_src/cpp/libs/src/ope"
	.ascii	"ndnp3/link/PriLinkLayerStates.cpp(353)\000"
	.space	2
.LC18:
	.ascii	"Link reset timeout, retrying %i remaining\000"
	.space	2
.LC19:
	.ascii	"/home/pi/OpenPLC_v3/utils/dnp3_src/cpp/libs/src/ope"
	.ascii	"ndnp3/link/PriLinkLayerStates.cpp(238)\000"
	.space	2
.LC20:
	.ascii	"Link reset final timeout, no retries remain\000"
.LC21:
	.ascii	"/home/pi/OpenPLC_v3/utils/dnp3_src/cpp/libs/src/ope"
	.ascii	"ndnp3/link/PriLinkLayerStates.cpp(244)\000"
	.space	2
.LC22:
	.ascii	"confirmed data timeout, retrying %u remaining\000"
	.space	2
.LC23:
	.ascii	"/home/pi/OpenPLC_v3/utils/dnp3_src/cpp/libs/src/ope"
	.ascii	"ndnp3/link/PriLinkLayerStates.cpp(310)\000"
	.space	2
.LC24:
	.ascii	"Confirmed data final timeout, no retries remain\000"
.LC25:
	.ascii	"/home/pi/OpenPLC_v3/utils/dnp3_src/cpp/libs/src/ope"
	.ascii	"ndnp3/link/PriLinkLayerStates.cpp(317)\000"
	.ident	"GCC: (Raspbian 6.3.0-18+rpi1+deb9u1) 6.3.0 20170516"
	.section	.note.GNU-stack,"",%progbits
