	.arch armv6
	.eabi_attribute 28, 1
	.eabi_attribute 20, 1
	.eabi_attribute 21, 1
	.eabi_attribute 23, 3
	.eabi_attribute 24, 1
	.eabi_attribute 25, 1
	.eabi_attribute 26, 2
	.eabi_attribute 30, 2
	.eabi_attribute 34, 1
	.eabi_attribute 18, 4
	.file	"RangeParser.cpp"
	.section	.text._ZN7openpal12StaticBufferILj255EED2Ev,"axG",%progbits,_ZN7openpal12StaticBufferILj255EED5Ev,comdat
	.align	2
	.weak	_ZN7openpal12StaticBufferILj255EED2Ev
	.syntax unified
	.arm
	.fpu vfp
	.type	_ZN7openpal12StaticBufferILj255EED2Ev, %function
_ZN7openpal12StaticBufferILj255EED2Ev:
	.fnstart
.LFB2632:
	@ args = 0, pretend = 0, frame = 0
	@ frame_needed = 0, uses_anonymous_args = 0
	@ link register save eliminated.
	bx	lr
	.cantunwind
	.fnend
	.size	_ZN7openpal12StaticBufferILj255EED2Ev, .-_ZN7openpal12StaticBufferILj255EED2Ev
	.weak	_ZN7openpal12StaticBufferILj255EED1Ev
	.set	_ZN7openpal12StaticBufferILj255EED1Ev,_ZN7openpal12StaticBufferILj255EED2Ev
	.section	.text._ZNK8opendnp318BufferedCollectionINS_7IndexedINS_12Group121Var1EEEZNS_11RangeParser17InvokeRangeOfTypeIS2_EEvRKNS_12HeaderRecordERKNS_5RangeERKN7openpal6RSliceERNS_12IAPDUHandlerEEUlRSD_jE_E5CountEv,"axG",%progbits,_ZNK8opendnp318BufferedCollectionINS_7IndexedINS_12Group121Var1EEEZNS_11RangeParser17InvokeRangeOfTypeIS2_EEvRKNS_12HeaderRecordERKNS_5RangeERKN7openpal6RSliceERNS_12IAPDUHandlerEEUlRSD_jE_E5CountEv,comdat
	.align	2
	.weak	_ZNK8opendnp318BufferedCollectionINS_7IndexedINS_12Group121Var1EEEZNS_11RangeParser17InvokeRangeOfTypeIS2_EEvRKNS_12HeaderRecordERKNS_5RangeERKN7openpal6RSliceERNS_12IAPDUHandlerEEUlRSD_jE_E5CountEv
	.syntax unified
	.arm
	.fpu vfp
	.type	_ZNK8opendnp318BufferedCollectionINS_7IndexedINS_12Group121Var1EEEZNS_11RangeParser17InvokeRangeOfTypeIS2_EEvRKNS_12HeaderRecordERKNS_5RangeERKN7openpal6RSliceERNS_12IAPDUHandlerEEUlRSD_jE_E5CountEv, %function
_ZNK8opendnp318BufferedCollectionINS_7IndexedINS_12Group121Var1EEEZNS_11RangeParser17InvokeRangeOfTypeIS2_EEvRKNS_12HeaderRecordERKNS_5RangeERKN7openpal6RSliceERNS_12IAPDUHandlerEEUlRSD_jE_E5CountEv:
	.fnstart
.LFB3462:
	@ args = 0, pretend = 0, frame = 0
	@ frame_needed = 0, uses_anonymous_args = 0
	@ link register save eliminated.
	ldr	r0, [r0, #12]
	bx	lr
	.cantunwind
	.fnend
	.size	_ZNK8opendnp318BufferedCollectionINS_7IndexedINS_12Group121Var1EEEZNS_11RangeParser17InvokeRangeOfTypeIS2_EEvRKNS_12HeaderRecordERKNS_5RangeERKN7openpal6RSliceERNS_12IAPDUHandlerEEUlRSD_jE_E5CountEv, .-_ZNK8opendnp318BufferedCollectionINS_7IndexedINS_12Group121Var1EEEZNS_11RangeParser17InvokeRangeOfTypeIS2_EEvRKNS_12HeaderRecordERKNS_5RangeERKN7openpal6RSliceERNS_12IAPDUHandlerEEUlRSD_jE_E5CountEv
	.section	.text._ZNK8opendnp318BufferedCollectionINS_7IndexedINS_8IINValueEEEZNS_11RangeParser23InvokeRangeBitfieldTypeIS2_EEvRKNS_12HeaderRecordERKNS_5RangeERKN7openpal6RSliceERNS_12IAPDUHandlerEEUlRSD_jE_E5CountEv,"axG",%progbits,_ZNK8opendnp318BufferedCollectionINS_7IndexedINS_8IINValueEEEZNS_11RangeParser23InvokeRangeBitfieldTypeIS2_EEvRKNS_12HeaderRecordERKNS_5RangeERKN7openpal6RSliceERNS_12IAPDUHandlerEEUlRSD_jE_E5CountEv,comdat
	.align	2
	.weak	_ZNK8opendnp318BufferedCollectionINS_7IndexedINS_8IINValueEEEZNS_11RangeParser23InvokeRangeBitfieldTypeIS2_EEvRKNS_12HeaderRecordERKNS_5RangeERKN7openpal6RSliceERNS_12IAPDUHandlerEEUlRSD_jE_E5CountEv
	.syntax unified
	.arm
	.fpu vfp
	.type	_ZNK8opendnp318BufferedCollectionINS_7IndexedINS_8IINValueEEEZNS_11RangeParser23InvokeRangeBitfieldTypeIS2_EEvRKNS_12HeaderRecordERKNS_5RangeERKN7openpal6RSliceERNS_12IAPDUHandlerEEUlRSD_jE_E5CountEv, %function
_ZNK8opendnp318BufferedCollectionINS_7IndexedINS_8IINValueEEEZNS_11RangeParser23InvokeRangeBitfieldTypeIS2_EEvRKNS_12HeaderRecordERKNS_5RangeERKN7openpal6RSliceERNS_12IAPDUHandlerEEUlRSD_jE_E5CountEv:
	.fnstart
.LFB3464:
	@ args = 0, pretend = 0, frame = 0
	@ frame_needed = 0, uses_anonymous_args = 0
	@ link register save eliminated.
	ldr	r0, [r0, #12]
	bx	lr
	.cantunwind
	.fnend
	.size	_ZNK8opendnp318BufferedCollectionINS_7IndexedINS_8IINValueEEEZNS_11RangeParser23InvokeRangeBitfieldTypeIS2_EEvRKNS_12HeaderRecordERKNS_5RangeERKN7openpal6RSliceERNS_12IAPDUHandlerEEUlRSD_jE_E5CountEv, .-_ZNK8opendnp318BufferedCollectionINS_7IndexedINS_8IINValueEEEZNS_11RangeParser23InvokeRangeBitfieldTypeIS2_EEvRKNS_12HeaderRecordERKNS_5RangeERKN7openpal6RSliceERNS_12IAPDUHandlerEEUlRSD_jE_E5CountEv
	.section	.text._ZNK8opendnp318BufferedCollectionINS_7IndexedINS_15TimeAndIntervalEEEZNS_11RangeParser13InvokeRangeOfINS_11Group50Var4EEEvRKNS_12HeaderRecordERKNS_5RangeERKN7openpal6RSliceERNS_12IAPDUHandlerEEUlRSE_jE_E5CountEv,"axG",%progbits,_ZNK8opendnp318BufferedCollectionINS_7IndexedINS_15TimeAndIntervalEEEZNS_11RangeParser13InvokeRangeOfINS_11Group50Var4EEEvRKNS_12HeaderRecordERKNS_5RangeERKN7openpal6RSliceERNS_12IAPDUHandlerEEUlRSE_jE_E5CountEv,comdat
	.align	2
	.weak	_ZNK8opendnp318BufferedCollectionINS_7IndexedINS_15TimeAndIntervalEEEZNS_11RangeParser13InvokeRangeOfINS_11Group50Var4EEEvRKNS_12HeaderRecordERKNS_5RangeERKN7openpal6RSliceERNS_12IAPDUHandlerEEUlRSE_jE_E5CountEv
	.syntax unified
	.arm
	.fpu vfp
	.type	_ZNK8opendnp318BufferedCollectionINS_7IndexedINS_15TimeAndIntervalEEEZNS_11RangeParser13InvokeRangeOfINS_11Group50Var4EEEvRKNS_12HeaderRecordERKNS_5RangeERKN7openpal6RSliceERNS_12IAPDUHandlerEEUlRSE_jE_E5CountEv, %function
_ZNK8opendnp318BufferedCollectionINS_7IndexedINS_15TimeAndIntervalEEEZNS_11RangeParser13InvokeRangeOfINS_11Group50Var4EEEvRKNS_12HeaderRecordERKNS_5RangeERKN7openpal6RSliceERNS_12IAPDUHandlerEEUlRSE_jE_E5CountEv:
	.fnstart
.LFB3466:
	@ args = 0, pretend = 0, frame = 0
	@ frame_needed = 0, uses_anonymous_args = 0
	@ link register save eliminated.
	ldr	r0, [r0, #12]
	bx	lr
	.cantunwind
	.fnend
	.size	_ZNK8opendnp318BufferedCollectionINS_7IndexedINS_15TimeAndIntervalEEEZNS_11RangeParser13InvokeRangeOfINS_11Group50Var4EEEvRKNS_12HeaderRecordERKNS_5RangeERKN7openpal6RSliceERNS_12IAPDUHandlerEEUlRSE_jE_E5CountEv, .-_ZNK8opendnp318BufferedCollectionINS_7IndexedINS_15TimeAndIntervalEEEZNS_11RangeParser13InvokeRangeOfINS_11Group50Var4EEEvRKNS_12HeaderRecordERKNS_5RangeERKN7openpal6RSliceERNS_12IAPDUHandlerEEUlRSE_jE_E5CountEv
	.section	.text._ZNK8opendnp318BufferedCollectionINS_7IndexedINS_18AnalogOutputStatusEEEZNS_11RangeParser13InvokeRangeOfINS_11Group40Var4EEEvRKNS_12HeaderRecordERKNS_5RangeERKN7openpal6RSliceERNS_12IAPDUHandlerEEUlRSE_jE_E5CountEv,"axG",%progbits,_ZNK8opendnp318BufferedCollectionINS_7IndexedINS_18AnalogOutputStatusEEEZNS_11RangeParser13InvokeRangeOfINS_11Group40Var4EEEvRKNS_12HeaderRecordERKNS_5RangeERKN7openpal6RSliceERNS_12IAPDUHandlerEEUlRSE_jE_E5CountEv,comdat
	.align	2
	.weak	_ZNK8opendnp318BufferedCollectionINS_7IndexedINS_18AnalogOutputStatusEEEZNS_11RangeParser13InvokeRangeOfINS_11Group40Var4EEEvRKNS_12HeaderRecordERKNS_5RangeERKN7openpal6RSliceERNS_12IAPDUHandlerEEUlRSE_jE_E5CountEv
	.syntax unified
	.arm
	.fpu vfp
	.type	_ZNK8opendnp318BufferedCollectionINS_7IndexedINS_18AnalogOutputStatusEEEZNS_11RangeParser13InvokeRangeOfINS_11Group40Var4EEEvRKNS_12HeaderRecordERKNS_5RangeERKN7openpal6RSliceERNS_12IAPDUHandlerEEUlRSE_jE_E5CountEv, %function
_ZNK8opendnp318BufferedCollectionINS_7IndexedINS_18AnalogOutputStatusEEEZNS_11RangeParser13InvokeRangeOfINS_11Group40Var4EEEvRKNS_12HeaderRecordERKNS_5RangeERKN7openpal6RSliceERNS_12IAPDUHandlerEEUlRSE_jE_E5CountEv:
	.fnstart
.LFB3468:
	@ args = 0, pretend = 0, frame = 0
	@ frame_needed = 0, uses_anonymous_args = 0
	@ link register save eliminated.
	ldr	r0, [r0, #12]
	bx	lr
	.cantunwind
	.fnend
	.size	_ZNK8opendnp318BufferedCollectionINS_7IndexedINS_18AnalogOutputStatusEEEZNS_11RangeParser13InvokeRangeOfINS_11Group40Var4EEEvRKNS_12HeaderRecordERKNS_5RangeERKN7openpal6RSliceERNS_12IAPDUHandlerEEUlRSE_jE_E5CountEv, .-_ZNK8opendnp318BufferedCollectionINS_7IndexedINS_18AnalogOutputStatusEEEZNS_11RangeParser13InvokeRangeOfINS_11Group40Var4EEEvRKNS_12HeaderRecordERKNS_5RangeERKN7openpal6RSliceERNS_12IAPDUHandlerEEUlRSE_jE_E5CountEv
	.section	.text._ZNK8opendnp318BufferedCollectionINS_7IndexedINS_18AnalogOutputStatusEEEZNS_11RangeParser13InvokeRangeOfINS_11Group40Var3EEEvRKNS_12HeaderRecordERKNS_5RangeERKN7openpal6RSliceERNS_12IAPDUHandlerEEUlRSE_jE_E5CountEv,"axG",%progbits,_ZNK8opendnp318BufferedCollectionINS_7IndexedINS_18AnalogOutputStatusEEEZNS_11RangeParser13InvokeRangeOfINS_11Group40Var3EEEvRKNS_12HeaderRecordERKNS_5RangeERKN7openpal6RSliceERNS_12IAPDUHandlerEEUlRSE_jE_E5CountEv,comdat
	.align	2
	.weak	_ZNK8opendnp318BufferedCollectionINS_7IndexedINS_18AnalogOutputStatusEEEZNS_11RangeParser13InvokeRangeOfINS_11Group40Var3EEEvRKNS_12HeaderRecordERKNS_5RangeERKN7openpal6RSliceERNS_12IAPDUHandlerEEUlRSE_jE_E5CountEv
	.syntax unified
	.arm
	.fpu vfp
	.type	_ZNK8opendnp318BufferedCollectionINS_7IndexedINS_18AnalogOutputStatusEEEZNS_11RangeParser13InvokeRangeOfINS_11Group40Var3EEEvRKNS_12HeaderRecordERKNS_5RangeERKN7openpal6RSliceERNS_12IAPDUHandlerEEUlRSE_jE_E5CountEv, %function
_ZNK8opendnp318BufferedCollectionINS_7IndexedINS_18AnalogOutputStatusEEEZNS_11RangeParser13InvokeRangeOfINS_11Group40Var3EEEvRKNS_12HeaderRecordERKNS_5RangeERKN7openpal6RSliceERNS_12IAPDUHandlerEEUlRSE_jE_E5CountEv:
	.fnstart
.LFB3470:
	@ args = 0, pretend = 0, frame = 0
	@ frame_needed = 0, uses_anonymous_args = 0
	@ link register save eliminated.
	ldr	r0, [r0, #12]
	bx	lr
	.cantunwind
	.fnend
	.size	_ZNK8opendnp318BufferedCollectionINS_7IndexedINS_18AnalogOutputStatusEEEZNS_11RangeParser13InvokeRangeOfINS_11Group40Var3EEEvRKNS_12HeaderRecordERKNS_5RangeERKN7openpal6RSliceERNS_12IAPDUHandlerEEUlRSE_jE_E5CountEv, .-_ZNK8opendnp318BufferedCollectionINS_7IndexedINS_18AnalogOutputStatusEEEZNS_11RangeParser13InvokeRangeOfINS_11Group40Var3EEEvRKNS_12HeaderRecordERKNS_5RangeERKN7openpal6RSliceERNS_12IAPDUHandlerEEUlRSE_jE_E5CountEv
	.section	.text._ZNK8opendnp318BufferedCollectionINS_7IndexedINS_18AnalogOutputStatusEEEZNS_11RangeParser13InvokeRangeOfINS_11Group40Var2EEEvRKNS_12HeaderRecordERKNS_5RangeERKN7openpal6RSliceERNS_12IAPDUHandlerEEUlRSE_jE_E5CountEv,"axG",%progbits,_ZNK8opendnp318BufferedCollectionINS_7IndexedINS_18AnalogOutputStatusEEEZNS_11RangeParser13InvokeRangeOfINS_11Group40Var2EEEvRKNS_12HeaderRecordERKNS_5RangeERKN7openpal6RSliceERNS_12IAPDUHandlerEEUlRSE_jE_E5CountEv,comdat
	.align	2
	.weak	_ZNK8opendnp318BufferedCollectionINS_7IndexedINS_18AnalogOutputStatusEEEZNS_11RangeParser13InvokeRangeOfINS_11Group40Var2EEEvRKNS_12HeaderRecordERKNS_5RangeERKN7openpal6RSliceERNS_12IAPDUHandlerEEUlRSE_jE_E5CountEv
	.syntax unified
	.arm
	.fpu vfp
	.type	_ZNK8opendnp318BufferedCollectionINS_7IndexedINS_18AnalogOutputStatusEEEZNS_11RangeParser13InvokeRangeOfINS_11Group40Var2EEEvRKNS_12HeaderRecordERKNS_5RangeERKN7openpal6RSliceERNS_12IAPDUHandlerEEUlRSE_jE_E5CountEv, %function
_ZNK8opendnp318BufferedCollectionINS_7IndexedINS_18AnalogOutputStatusEEEZNS_11RangeParser13InvokeRangeOfINS_11Group40Var2EEEvRKNS_12HeaderRecordERKNS_5RangeERKN7openpal6RSliceERNS_12IAPDUHandlerEEUlRSE_jE_E5CountEv:
	.fnstart
.LFB3472:
	@ args = 0, pretend = 0, frame = 0
	@ frame_needed = 0, uses_anonymous_args = 0
	@ link register save eliminated.
	ldr	r0, [r0, #12]
	bx	lr
	.cantunwind
	.fnend
	.size	_ZNK8opendnp318BufferedCollectionINS_7IndexedINS_18AnalogOutputStatusEEEZNS_11RangeParser13InvokeRangeOfINS_11Group40Var2EEEvRKNS_12HeaderRecordERKNS_5RangeERKN7openpal6RSliceERNS_12IAPDUHandlerEEUlRSE_jE_E5CountEv, .-_ZNK8opendnp318BufferedCollectionINS_7IndexedINS_18AnalogOutputStatusEEEZNS_11RangeParser13InvokeRangeOfINS_11Group40Var2EEEvRKNS_12HeaderRecordERKNS_5RangeERKN7openpal6RSliceERNS_12IAPDUHandlerEEUlRSE_jE_E5CountEv
	.section	.text._ZNK8opendnp318BufferedCollectionINS_7IndexedINS_18AnalogOutputStatusEEEZNS_11RangeParser13InvokeRangeOfINS_11Group40Var1EEEvRKNS_12HeaderRecordERKNS_5RangeERKN7openpal6RSliceERNS_12IAPDUHandlerEEUlRSE_jE_E5CountEv,"axG",%progbits,_ZNK8opendnp318BufferedCollectionINS_7IndexedINS_18AnalogOutputStatusEEEZNS_11RangeParser13InvokeRangeOfINS_11Group40Var1EEEvRKNS_12HeaderRecordERKNS_5RangeERKN7openpal6RSliceERNS_12IAPDUHandlerEEUlRSE_jE_E5CountEv,comdat
	.align	2
	.weak	_ZNK8opendnp318BufferedCollectionINS_7IndexedINS_18AnalogOutputStatusEEEZNS_11RangeParser13InvokeRangeOfINS_11Group40Var1EEEvRKNS_12HeaderRecordERKNS_5RangeERKN7openpal6RSliceERNS_12IAPDUHandlerEEUlRSE_jE_E5CountEv
	.syntax unified
	.arm
	.fpu vfp
	.type	_ZNK8opendnp318BufferedCollectionINS_7IndexedINS_18AnalogOutputStatusEEEZNS_11RangeParser13InvokeRangeOfINS_11Group40Var1EEEvRKNS_12HeaderRecordERKNS_5RangeERKN7openpal6RSliceERNS_12IAPDUHandlerEEUlRSE_jE_E5CountEv, %function
_ZNK8opendnp318BufferedCollectionINS_7IndexedINS_18AnalogOutputStatusEEEZNS_11RangeParser13InvokeRangeOfINS_11Group40Var1EEEvRKNS_12HeaderRecordERKNS_5RangeERKN7openpal6RSliceERNS_12IAPDUHandlerEEUlRSE_jE_E5CountEv:
	.fnstart
.LFB3474:
	@ args = 0, pretend = 0, frame = 0
	@ frame_needed = 0, uses_anonymous_args = 0
	@ link register save eliminated.
	ldr	r0, [r0, #12]
	bx	lr
	.cantunwind
	.fnend
	.size	_ZNK8opendnp318BufferedCollectionINS_7IndexedINS_18AnalogOutputStatusEEEZNS_11RangeParser13InvokeRangeOfINS_11Group40Var1EEEvRKNS_12HeaderRecordERKNS_5RangeERKN7openpal6RSliceERNS_12IAPDUHandlerEEUlRSE_jE_E5CountEv, .-_ZNK8opendnp318BufferedCollectionINS_7IndexedINS_18AnalogOutputStatusEEEZNS_11RangeParser13InvokeRangeOfINS_11Group40Var1EEEvRKNS_12HeaderRecordERKNS_5RangeERKN7openpal6RSliceERNS_12IAPDUHandlerEEUlRSE_jE_E5CountEv
	.section	.text._ZNK8opendnp318BufferedCollectionINS_7IndexedINS_6AnalogEEEZNS_11RangeParser13InvokeRangeOfINS_11Group30Var6EEEvRKNS_12HeaderRecordERKNS_5RangeERKN7openpal6RSliceERNS_12IAPDUHandlerEEUlRSE_jE_E5CountEv,"axG",%progbits,_ZNK8opendnp318BufferedCollectionINS_7IndexedINS_6AnalogEEEZNS_11RangeParser13InvokeRangeOfINS_11Group30Var6EEEvRKNS_12HeaderRecordERKNS_5RangeERKN7openpal6RSliceERNS_12IAPDUHandlerEEUlRSE_jE_E5CountEv,comdat
	.align	2
	.weak	_ZNK8opendnp318BufferedCollectionINS_7IndexedINS_6AnalogEEEZNS_11RangeParser13InvokeRangeOfINS_11Group30Var6EEEvRKNS_12HeaderRecordERKNS_5RangeERKN7openpal6RSliceERNS_12IAPDUHandlerEEUlRSE_jE_E5CountEv
	.syntax unified
	.arm
	.fpu vfp
	.type	_ZNK8opendnp318BufferedCollectionINS_7IndexedINS_6AnalogEEEZNS_11RangeParser13InvokeRangeOfINS_11Group30Var6EEEvRKNS_12HeaderRecordERKNS_5RangeERKN7openpal6RSliceERNS_12IAPDUHandlerEEUlRSE_jE_E5CountEv, %function
_ZNK8opendnp318BufferedCollectionINS_7IndexedINS_6AnalogEEEZNS_11RangeParser13InvokeRangeOfINS_11Group30Var6EEEvRKNS_12HeaderRecordERKNS_5RangeERKN7openpal6RSliceERNS_12IAPDUHandlerEEUlRSE_jE_E5CountEv:
	.fnstart
.LFB3476:
	@ args = 0, pretend = 0, frame = 0
	@ frame_needed = 0, uses_anonymous_args = 0
	@ link register save eliminated.
	ldr	r0, [r0, #12]
	bx	lr
	.cantunwind
	.fnend
	.size	_ZNK8opendnp318BufferedCollectionINS_7IndexedINS_6AnalogEEEZNS_11RangeParser13InvokeRangeOfINS_11Group30Var6EEEvRKNS_12HeaderRecordERKNS_5RangeERKN7openpal6RSliceERNS_12IAPDUHandlerEEUlRSE_jE_E5CountEv, .-_ZNK8opendnp318BufferedCollectionINS_7IndexedINS_6AnalogEEEZNS_11RangeParser13InvokeRangeOfINS_11Group30Var6EEEvRKNS_12HeaderRecordERKNS_5RangeERKN7openpal6RSliceERNS_12IAPDUHandlerEEUlRSE_jE_E5CountEv
	.section	.text._ZNK8opendnp318BufferedCollectionINS_7IndexedINS_6AnalogEEEZNS_11RangeParser13InvokeRangeOfINS_11Group30Var5EEEvRKNS_12HeaderRecordERKNS_5RangeERKN7openpal6RSliceERNS_12IAPDUHandlerEEUlRSE_jE_E5CountEv,"axG",%progbits,_ZNK8opendnp318BufferedCollectionINS_7IndexedINS_6AnalogEEEZNS_11RangeParser13InvokeRangeOfINS_11Group30Var5EEEvRKNS_12HeaderRecordERKNS_5RangeERKN7openpal6RSliceERNS_12IAPDUHandlerEEUlRSE_jE_E5CountEv,comdat
	.align	2
	.weak	_ZNK8opendnp318BufferedCollectionINS_7IndexedINS_6AnalogEEEZNS_11RangeParser13InvokeRangeOfINS_11Group30Var5EEEvRKNS_12HeaderRecordERKNS_5RangeERKN7openpal6RSliceERNS_12IAPDUHandlerEEUlRSE_jE_E5CountEv
	.syntax unified
	.arm
	.fpu vfp
	.type	_ZNK8opendnp318BufferedCollectionINS_7IndexedINS_6AnalogEEEZNS_11RangeParser13InvokeRangeOfINS_11Group30Var5EEEvRKNS_12HeaderRecordERKNS_5RangeERKN7openpal6RSliceERNS_12IAPDUHandlerEEUlRSE_jE_E5CountEv, %function
_ZNK8opendnp318BufferedCollectionINS_7IndexedINS_6AnalogEEEZNS_11RangeParser13InvokeRangeOfINS_11Group30Var5EEEvRKNS_12HeaderRecordERKNS_5RangeERKN7openpal6RSliceERNS_12IAPDUHandlerEEUlRSE_jE_E5CountEv:
	.fnstart
.LFB3478:
	@ args = 0, pretend = 0, frame = 0
	@ frame_needed = 0, uses_anonymous_args = 0
	@ link register save eliminated.
	ldr	r0, [r0, #12]
	bx	lr
	.cantunwind
	.fnend
	.size	_ZNK8opendnp318BufferedCollectionINS_7IndexedINS_6AnalogEEEZNS_11RangeParser13InvokeRangeOfINS_11Group30Var5EEEvRKNS_12HeaderRecordERKNS_5RangeERKN7openpal6RSliceERNS_12IAPDUHandlerEEUlRSE_jE_E5CountEv, .-_ZNK8opendnp318BufferedCollectionINS_7IndexedINS_6AnalogEEEZNS_11RangeParser13InvokeRangeOfINS_11Group30Var5EEEvRKNS_12HeaderRecordERKNS_5RangeERKN7openpal6RSliceERNS_12IAPDUHandlerEEUlRSE_jE_E5CountEv
	.section	.text._ZNK8opendnp318BufferedCollectionINS_7IndexedINS_6AnalogEEEZNS_11RangeParser13InvokeRangeOfINS_11Group30Var4EEEvRKNS_12HeaderRecordERKNS_5RangeERKN7openpal6RSliceERNS_12IAPDUHandlerEEUlRSE_jE_E5CountEv,"axG",%progbits,_ZNK8opendnp318BufferedCollectionINS_7IndexedINS_6AnalogEEEZNS_11RangeParser13InvokeRangeOfINS_11Group30Var4EEEvRKNS_12HeaderRecordERKNS_5RangeERKN7openpal6RSliceERNS_12IAPDUHandlerEEUlRSE_jE_E5CountEv,comdat
	.align	2
	.weak	_ZNK8opendnp318BufferedCollectionINS_7IndexedINS_6AnalogEEEZNS_11RangeParser13InvokeRangeOfINS_11Group30Var4EEEvRKNS_12HeaderRecordERKNS_5RangeERKN7openpal6RSliceERNS_12IAPDUHandlerEEUlRSE_jE_E5CountEv
	.syntax unified
	.arm
	.fpu vfp
	.type	_ZNK8opendnp318BufferedCollectionINS_7IndexedINS_6AnalogEEEZNS_11RangeParser13InvokeRangeOfINS_11Group30Var4EEEvRKNS_12HeaderRecordERKNS_5RangeERKN7openpal6RSliceERNS_12IAPDUHandlerEEUlRSE_jE_E5CountEv, %function
_ZNK8opendnp318BufferedCollectionINS_7IndexedINS_6AnalogEEEZNS_11RangeParser13InvokeRangeOfINS_11Group30Var4EEEvRKNS_12HeaderRecordERKNS_5RangeERKN7openpal6RSliceERNS_12IAPDUHandlerEEUlRSE_jE_E5CountEv:
	.fnstart
.LFB3480:
	@ args = 0, pretend = 0, frame = 0
	@ frame_needed = 0, uses_anonymous_args = 0
	@ link register save eliminated.
	ldr	r0, [r0, #12]
	bx	lr
	.cantunwind
	.fnend
	.size	_ZNK8opendnp318BufferedCollectionINS_7IndexedINS_6AnalogEEEZNS_11RangeParser13InvokeRangeOfINS_11Group30Var4EEEvRKNS_12HeaderRecordERKNS_5RangeERKN7openpal6RSliceERNS_12IAPDUHandlerEEUlRSE_jE_E5CountEv, .-_ZNK8opendnp318BufferedCollectionINS_7IndexedINS_6AnalogEEEZNS_11RangeParser13InvokeRangeOfINS_11Group30Var4EEEvRKNS_12HeaderRecordERKNS_5RangeERKN7openpal6RSliceERNS_12IAPDUHandlerEEUlRSE_jE_E5CountEv
	.section	.text._ZNK8opendnp318BufferedCollectionINS_7IndexedINS_6AnalogEEEZNS_11RangeParser13InvokeRangeOfINS_11Group30Var3EEEvRKNS_12HeaderRecordERKNS_5RangeERKN7openpal6RSliceERNS_12IAPDUHandlerEEUlRSE_jE_E5CountEv,"axG",%progbits,_ZNK8opendnp318BufferedCollectionINS_7IndexedINS_6AnalogEEEZNS_11RangeParser13InvokeRangeOfINS_11Group30Var3EEEvRKNS_12HeaderRecordERKNS_5RangeERKN7openpal6RSliceERNS_12IAPDUHandlerEEUlRSE_jE_E5CountEv,comdat
	.align	2
	.weak	_ZNK8opendnp318BufferedCollectionINS_7IndexedINS_6AnalogEEEZNS_11RangeParser13InvokeRangeOfINS_11Group30Var3EEEvRKNS_12HeaderRecordERKNS_5RangeERKN7openpal6RSliceERNS_12IAPDUHandlerEEUlRSE_jE_E5CountEv
	.syntax unified
	.arm
	.fpu vfp
	.type	_ZNK8opendnp318BufferedCollectionINS_7IndexedINS_6AnalogEEEZNS_11RangeParser13InvokeRangeOfINS_11Group30Var3EEEvRKNS_12HeaderRecordERKNS_5RangeERKN7openpal6RSliceERNS_12IAPDUHandlerEEUlRSE_jE_E5CountEv, %function
_ZNK8opendnp318BufferedCollectionINS_7IndexedINS_6AnalogEEEZNS_11RangeParser13InvokeRangeOfINS_11Group30Var3EEEvRKNS_12HeaderRecordERKNS_5RangeERKN7openpal6RSliceERNS_12IAPDUHandlerEEUlRSE_jE_E5CountEv:
	.fnstart
.LFB3482:
	@ args = 0, pretend = 0, frame = 0
	@ frame_needed = 0, uses_anonymous_args = 0
	@ link register save eliminated.
	ldr	r0, [r0, #12]
	bx	lr
	.cantunwind
	.fnend
	.size	_ZNK8opendnp318BufferedCollectionINS_7IndexedINS_6AnalogEEEZNS_11RangeParser13InvokeRangeOfINS_11Group30Var3EEEvRKNS_12HeaderRecordERKNS_5RangeERKN7openpal6RSliceERNS_12IAPDUHandlerEEUlRSE_jE_E5CountEv, .-_ZNK8opendnp318BufferedCollectionINS_7IndexedINS_6AnalogEEEZNS_11RangeParser13InvokeRangeOfINS_11Group30Var3EEEvRKNS_12HeaderRecordERKNS_5RangeERKN7openpal6RSliceERNS_12IAPDUHandlerEEUlRSE_jE_E5CountEv
	.section	.text._ZNK8opendnp318BufferedCollectionINS_7IndexedINS_6AnalogEEEZNS_11RangeParser13InvokeRangeOfINS_11Group30Var2EEEvRKNS_12HeaderRecordERKNS_5RangeERKN7openpal6RSliceERNS_12IAPDUHandlerEEUlRSE_jE_E5CountEv,"axG",%progbits,_ZNK8opendnp318BufferedCollectionINS_7IndexedINS_6AnalogEEEZNS_11RangeParser13InvokeRangeOfINS_11Group30Var2EEEvRKNS_12HeaderRecordERKNS_5RangeERKN7openpal6RSliceERNS_12IAPDUHandlerEEUlRSE_jE_E5CountEv,comdat
	.align	2
	.weak	_ZNK8opendnp318BufferedCollectionINS_7IndexedINS_6AnalogEEEZNS_11RangeParser13InvokeRangeOfINS_11Group30Var2EEEvRKNS_12HeaderRecordERKNS_5RangeERKN7openpal6RSliceERNS_12IAPDUHandlerEEUlRSE_jE_E5CountEv
	.syntax unified
	.arm
	.fpu vfp
	.type	_ZNK8opendnp318BufferedCollectionINS_7IndexedINS_6AnalogEEEZNS_11RangeParser13InvokeRangeOfINS_11Group30Var2EEEvRKNS_12HeaderRecordERKNS_5RangeERKN7openpal6RSliceERNS_12IAPDUHandlerEEUlRSE_jE_E5CountEv, %function
_ZNK8opendnp318BufferedCollectionINS_7IndexedINS_6AnalogEEEZNS_11RangeParser13InvokeRangeOfINS_11Group30Var2EEEvRKNS_12HeaderRecordERKNS_5RangeERKN7openpal6RSliceERNS_12IAPDUHandlerEEUlRSE_jE_E5CountEv:
	.fnstart
.LFB3484:
	@ args = 0, pretend = 0, frame = 0
	@ frame_needed = 0, uses_anonymous_args = 0
	@ link register save eliminated.
	ldr	r0, [r0, #12]
	bx	lr
	.cantunwind
	.fnend
	.size	_ZNK8opendnp318BufferedCollectionINS_7IndexedINS_6AnalogEEEZNS_11RangeParser13InvokeRangeOfINS_11Group30Var2EEEvRKNS_12HeaderRecordERKNS_5RangeERKN7openpal6RSliceERNS_12IAPDUHandlerEEUlRSE_jE_E5CountEv, .-_ZNK8opendnp318BufferedCollectionINS_7IndexedINS_6AnalogEEEZNS_11RangeParser13InvokeRangeOfINS_11Group30Var2EEEvRKNS_12HeaderRecordERKNS_5RangeERKN7openpal6RSliceERNS_12IAPDUHandlerEEUlRSE_jE_E5CountEv
	.section	.text._ZNK8opendnp318BufferedCollectionINS_7IndexedINS_6AnalogEEEZNS_11RangeParser13InvokeRangeOfINS_11Group30Var1EEEvRKNS_12HeaderRecordERKNS_5RangeERKN7openpal6RSliceERNS_12IAPDUHandlerEEUlRSE_jE_E5CountEv,"axG",%progbits,_ZNK8opendnp318BufferedCollectionINS_7IndexedINS_6AnalogEEEZNS_11RangeParser13InvokeRangeOfINS_11Group30Var1EEEvRKNS_12HeaderRecordERKNS_5RangeERKN7openpal6RSliceERNS_12IAPDUHandlerEEUlRSE_jE_E5CountEv,comdat
	.align	2
	.weak	_ZNK8opendnp318BufferedCollectionINS_7IndexedINS_6AnalogEEEZNS_11RangeParser13InvokeRangeOfINS_11Group30Var1EEEvRKNS_12HeaderRecordERKNS_5RangeERKN7openpal6RSliceERNS_12IAPDUHandlerEEUlRSE_jE_E5CountEv
	.syntax unified
	.arm
	.fpu vfp
	.type	_ZNK8opendnp318BufferedCollectionINS_7IndexedINS_6AnalogEEEZNS_11RangeParser13InvokeRangeOfINS_11Group30Var1EEEvRKNS_12HeaderRecordERKNS_5RangeERKN7openpal6RSliceERNS_12IAPDUHandlerEEUlRSE_jE_E5CountEv, %function
_ZNK8opendnp318BufferedCollectionINS_7IndexedINS_6AnalogEEEZNS_11RangeParser13InvokeRangeOfINS_11Group30Var1EEEvRKNS_12HeaderRecordERKNS_5RangeERKN7openpal6RSliceERNS_12IAPDUHandlerEEUlRSE_jE_E5CountEv:
	.fnstart
.LFB3486:
	@ args = 0, pretend = 0, frame = 0
	@ frame_needed = 0, uses_anonymous_args = 0
	@ link register save eliminated.
	ldr	r0, [r0, #12]
	bx	lr
	.cantunwind
	.fnend
	.size	_ZNK8opendnp318BufferedCollectionINS_7IndexedINS_6AnalogEEEZNS_11RangeParser13InvokeRangeOfINS_11Group30Var1EEEvRKNS_12HeaderRecordERKNS_5RangeERKN7openpal6RSliceERNS_12IAPDUHandlerEEUlRSE_jE_E5CountEv, .-_ZNK8opendnp318BufferedCollectionINS_7IndexedINS_6AnalogEEEZNS_11RangeParser13InvokeRangeOfINS_11Group30Var1EEEvRKNS_12HeaderRecordERKNS_5RangeERKN7openpal6RSliceERNS_12IAPDUHandlerEEUlRSE_jE_E5CountEv
	.section	.text._ZNK8opendnp318BufferedCollectionINS_7IndexedINS_13FrozenCounterEEEZNS_11RangeParser13InvokeRangeOfINS_12Group21Var10EEEvRKNS_12HeaderRecordERKNS_5RangeERKN7openpal6RSliceERNS_12IAPDUHandlerEEUlRSE_jE_E5CountEv,"axG",%progbits,_ZNK8opendnp318BufferedCollectionINS_7IndexedINS_13FrozenCounterEEEZNS_11RangeParser13InvokeRangeOfINS_12Group21Var10EEEvRKNS_12HeaderRecordERKNS_5RangeERKN7openpal6RSliceERNS_12IAPDUHandlerEEUlRSE_jE_E5CountEv,comdat
	.align	2
	.weak	_ZNK8opendnp318BufferedCollectionINS_7IndexedINS_13FrozenCounterEEEZNS_11RangeParser13InvokeRangeOfINS_12Group21Var10EEEvRKNS_12HeaderRecordERKNS_5RangeERKN7openpal6RSliceERNS_12IAPDUHandlerEEUlRSE_jE_E5CountEv
	.syntax unified
	.arm
	.fpu vfp
	.type	_ZNK8opendnp318BufferedCollectionINS_7IndexedINS_13FrozenCounterEEEZNS_11RangeParser13InvokeRangeOfINS_12Group21Var10EEEvRKNS_12HeaderRecordERKNS_5RangeERKN7openpal6RSliceERNS_12IAPDUHandlerEEUlRSE_jE_E5CountEv, %function
_ZNK8opendnp318BufferedCollectionINS_7IndexedINS_13FrozenCounterEEEZNS_11RangeParser13InvokeRangeOfINS_12Group21Var10EEEvRKNS_12HeaderRecordERKNS_5RangeERKN7openpal6RSliceERNS_12IAPDUHandlerEEUlRSE_jE_E5CountEv:
	.fnstart
.LFB3488:
	@ args = 0, pretend = 0, frame = 0
	@ frame_needed = 0, uses_anonymous_args = 0
	@ link register save eliminated.
	ldr	r0, [r0, #12]
	bx	lr
	.cantunwind
	.fnend
	.size	_ZNK8opendnp318BufferedCollectionINS_7IndexedINS_13FrozenCounterEEEZNS_11RangeParser13InvokeRangeOfINS_12Group21Var10EEEvRKNS_12HeaderRecordERKNS_5RangeERKN7openpal6RSliceERNS_12IAPDUHandlerEEUlRSE_jE_E5CountEv, .-_ZNK8opendnp318BufferedCollectionINS_7IndexedINS_13FrozenCounterEEEZNS_11RangeParser13InvokeRangeOfINS_12Group21Var10EEEvRKNS_12HeaderRecordERKNS_5RangeERKN7openpal6RSliceERNS_12IAPDUHandlerEEUlRSE_jE_E5CountEv
	.section	.text._ZNK8opendnp318BufferedCollectionINS_7IndexedINS_13FrozenCounterEEEZNS_11RangeParser13InvokeRangeOfINS_11Group21Var9EEEvRKNS_12HeaderRecordERKNS_5RangeERKN7openpal6RSliceERNS_12IAPDUHandlerEEUlRSE_jE_E5CountEv,"axG",%progbits,_ZNK8opendnp318BufferedCollectionINS_7IndexedINS_13FrozenCounterEEEZNS_11RangeParser13InvokeRangeOfINS_11Group21Var9EEEvRKNS_12HeaderRecordERKNS_5RangeERKN7openpal6RSliceERNS_12IAPDUHandlerEEUlRSE_jE_E5CountEv,comdat
	.align	2
	.weak	_ZNK8opendnp318BufferedCollectionINS_7IndexedINS_13FrozenCounterEEEZNS_11RangeParser13InvokeRangeOfINS_11Group21Var9EEEvRKNS_12HeaderRecordERKNS_5RangeERKN7openpal6RSliceERNS_12IAPDUHandlerEEUlRSE_jE_E5CountEv
	.syntax unified
	.arm
	.fpu vfp
	.type	_ZNK8opendnp318BufferedCollectionINS_7IndexedINS_13FrozenCounterEEEZNS_11RangeParser13InvokeRangeOfINS_11Group21Var9EEEvRKNS_12HeaderRecordERKNS_5RangeERKN7openpal6RSliceERNS_12IAPDUHandlerEEUlRSE_jE_E5CountEv, %function
_ZNK8opendnp318BufferedCollectionINS_7IndexedINS_13FrozenCounterEEEZNS_11RangeParser13InvokeRangeOfINS_11Group21Var9EEEvRKNS_12HeaderRecordERKNS_5RangeERKN7openpal6RSliceERNS_12IAPDUHandlerEEUlRSE_jE_E5CountEv:
	.fnstart
.LFB3490:
	@ args = 0, pretend = 0, frame = 0
	@ frame_needed = 0, uses_anonymous_args = 0
	@ link register save eliminated.
	ldr	r0, [r0, #12]
	bx	lr
	.cantunwind
	.fnend
	.size	_ZNK8opendnp318BufferedCollectionINS_7IndexedINS_13FrozenCounterEEEZNS_11RangeParser13InvokeRangeOfINS_11Group21Var9EEEvRKNS_12HeaderRecordERKNS_5RangeERKN7openpal6RSliceERNS_12IAPDUHandlerEEUlRSE_jE_E5CountEv, .-_ZNK8opendnp318BufferedCollectionINS_7IndexedINS_13FrozenCounterEEEZNS_11RangeParser13InvokeRangeOfINS_11Group21Var9EEEvRKNS_12HeaderRecordERKNS_5RangeERKN7openpal6RSliceERNS_12IAPDUHandlerEEUlRSE_jE_E5CountEv
	.section	.text._ZNK8opendnp318BufferedCollectionINS_7IndexedINS_13FrozenCounterEEEZNS_11RangeParser13InvokeRangeOfINS_11Group21Var6EEEvRKNS_12HeaderRecordERKNS_5RangeERKN7openpal6RSliceERNS_12IAPDUHandlerEEUlRSE_jE_E5CountEv,"axG",%progbits,_ZNK8opendnp318BufferedCollectionINS_7IndexedINS_13FrozenCounterEEEZNS_11RangeParser13InvokeRangeOfINS_11Group21Var6EEEvRKNS_12HeaderRecordERKNS_5RangeERKN7openpal6RSliceERNS_12IAPDUHandlerEEUlRSE_jE_E5CountEv,comdat
	.align	2
	.weak	_ZNK8opendnp318BufferedCollectionINS_7IndexedINS_13FrozenCounterEEEZNS_11RangeParser13InvokeRangeOfINS_11Group21Var6EEEvRKNS_12HeaderRecordERKNS_5RangeERKN7openpal6RSliceERNS_12IAPDUHandlerEEUlRSE_jE_E5CountEv
	.syntax unified
	.arm
	.fpu vfp
	.type	_ZNK8opendnp318BufferedCollectionINS_7IndexedINS_13FrozenCounterEEEZNS_11RangeParser13InvokeRangeOfINS_11Group21Var6EEEvRKNS_12HeaderRecordERKNS_5RangeERKN7openpal6RSliceERNS_12IAPDUHandlerEEUlRSE_jE_E5CountEv, %function
_ZNK8opendnp318BufferedCollectionINS_7IndexedINS_13FrozenCounterEEEZNS_11RangeParser13InvokeRangeOfINS_11Group21Var6EEEvRKNS_12HeaderRecordERKNS_5RangeERKN7openpal6RSliceERNS_12IAPDUHandlerEEUlRSE_jE_E5CountEv:
	.fnstart
.LFB3492:
	@ args = 0, pretend = 0, frame = 0
	@ frame_needed = 0, uses_anonymous_args = 0
	@ link register save eliminated.
	ldr	r0, [r0, #12]
	bx	lr
	.cantunwind
	.fnend
	.size	_ZNK8opendnp318BufferedCollectionINS_7IndexedINS_13FrozenCounterEEEZNS_11RangeParser13InvokeRangeOfINS_11Group21Var6EEEvRKNS_12HeaderRecordERKNS_5RangeERKN7openpal6RSliceERNS_12IAPDUHandlerEEUlRSE_jE_E5CountEv, .-_ZNK8opendnp318BufferedCollectionINS_7IndexedINS_13FrozenCounterEEEZNS_11RangeParser13InvokeRangeOfINS_11Group21Var6EEEvRKNS_12HeaderRecordERKNS_5RangeERKN7openpal6RSliceERNS_12IAPDUHandlerEEUlRSE_jE_E5CountEv
	.section	.text._ZNK8opendnp318BufferedCollectionINS_7IndexedINS_13FrozenCounterEEEZNS_11RangeParser13InvokeRangeOfINS_11Group21Var5EEEvRKNS_12HeaderRecordERKNS_5RangeERKN7openpal6RSliceERNS_12IAPDUHandlerEEUlRSE_jE_E5CountEv,"axG",%progbits,_ZNK8opendnp318BufferedCollectionINS_7IndexedINS_13FrozenCounterEEEZNS_11RangeParser13InvokeRangeOfINS_11Group21Var5EEEvRKNS_12HeaderRecordERKNS_5RangeERKN7openpal6RSliceERNS_12IAPDUHandlerEEUlRSE_jE_E5CountEv,comdat
	.align	2
	.weak	_ZNK8opendnp318BufferedCollectionINS_7IndexedINS_13FrozenCounterEEEZNS_11RangeParser13InvokeRangeOfINS_11Group21Var5EEEvRKNS_12HeaderRecordERKNS_5RangeERKN7openpal6RSliceERNS_12IAPDUHandlerEEUlRSE_jE_E5CountEv
	.syntax unified
	.arm
	.fpu vfp
	.type	_ZNK8opendnp318BufferedCollectionINS_7IndexedINS_13FrozenCounterEEEZNS_11RangeParser13InvokeRangeOfINS_11Group21Var5EEEvRKNS_12HeaderRecordERKNS_5RangeERKN7openpal6RSliceERNS_12IAPDUHandlerEEUlRSE_jE_E5CountEv, %function
_ZNK8opendnp318BufferedCollectionINS_7IndexedINS_13FrozenCounterEEEZNS_11RangeParser13InvokeRangeOfINS_11Group21Var5EEEvRKNS_12HeaderRecordERKNS_5RangeERKN7openpal6RSliceERNS_12IAPDUHandlerEEUlRSE_jE_E5CountEv:
	.fnstart
.LFB3494:
	@ args = 0, pretend = 0, frame = 0
	@ frame_needed = 0, uses_anonymous_args = 0
	@ link register save eliminated.
	ldr	r0, [r0, #12]
	bx	lr
	.cantunwind
	.fnend
	.size	_ZNK8opendnp318BufferedCollectionINS_7IndexedINS_13FrozenCounterEEEZNS_11RangeParser13InvokeRangeOfINS_11Group21Var5EEEvRKNS_12HeaderRecordERKNS_5RangeERKN7openpal6RSliceERNS_12IAPDUHandlerEEUlRSE_jE_E5CountEv, .-_ZNK8opendnp318BufferedCollectionINS_7IndexedINS_13FrozenCounterEEEZNS_11RangeParser13InvokeRangeOfINS_11Group21Var5EEEvRKNS_12HeaderRecordERKNS_5RangeERKN7openpal6RSliceERNS_12IAPDUHandlerEEUlRSE_jE_E5CountEv
	.section	.text._ZNK8opendnp318BufferedCollectionINS_7IndexedINS_13FrozenCounterEEEZNS_11RangeParser13InvokeRangeOfINS_11Group21Var2EEEvRKNS_12HeaderRecordERKNS_5RangeERKN7openpal6RSliceERNS_12IAPDUHandlerEEUlRSE_jE_E5CountEv,"axG",%progbits,_ZNK8opendnp318BufferedCollectionINS_7IndexedINS_13FrozenCounterEEEZNS_11RangeParser13InvokeRangeOfINS_11Group21Var2EEEvRKNS_12HeaderRecordERKNS_5RangeERKN7openpal6RSliceERNS_12IAPDUHandlerEEUlRSE_jE_E5CountEv,comdat
	.align	2
	.weak	_ZNK8opendnp318BufferedCollectionINS_7IndexedINS_13FrozenCounterEEEZNS_11RangeParser13InvokeRangeOfINS_11Group21Var2EEEvRKNS_12HeaderRecordERKNS_5RangeERKN7openpal6RSliceERNS_12IAPDUHandlerEEUlRSE_jE_E5CountEv
	.syntax unified
	.arm
	.fpu vfp
	.type	_ZNK8opendnp318BufferedCollectionINS_7IndexedINS_13FrozenCounterEEEZNS_11RangeParser13InvokeRangeOfINS_11Group21Var2EEEvRKNS_12HeaderRecordERKNS_5RangeERKN7openpal6RSliceERNS_12IAPDUHandlerEEUlRSE_jE_E5CountEv, %function
_ZNK8opendnp318BufferedCollectionINS_7IndexedINS_13FrozenCounterEEEZNS_11RangeParser13InvokeRangeOfINS_11Group21Var2EEEvRKNS_12HeaderRecordERKNS_5RangeERKN7openpal6RSliceERNS_12IAPDUHandlerEEUlRSE_jE_E5CountEv:
	.fnstart
.LFB3496:
	@ args = 0, pretend = 0, frame = 0
	@ frame_needed = 0, uses_anonymous_args = 0
	@ link register save eliminated.
	ldr	r0, [r0, #12]
	bx	lr
	.cantunwind
	.fnend
	.size	_ZNK8opendnp318BufferedCollectionINS_7IndexedINS_13FrozenCounterEEEZNS_11RangeParser13InvokeRangeOfINS_11Group21Var2EEEvRKNS_12HeaderRecordERKNS_5RangeERKN7openpal6RSliceERNS_12IAPDUHandlerEEUlRSE_jE_E5CountEv, .-_ZNK8opendnp318BufferedCollectionINS_7IndexedINS_13FrozenCounterEEEZNS_11RangeParser13InvokeRangeOfINS_11Group21Var2EEEvRKNS_12HeaderRecordERKNS_5RangeERKN7openpal6RSliceERNS_12IAPDUHandlerEEUlRSE_jE_E5CountEv
	.section	.text._ZNK8opendnp318BufferedCollectionINS_7IndexedINS_13FrozenCounterEEEZNS_11RangeParser13InvokeRangeOfINS_11Group21Var1EEEvRKNS_12HeaderRecordERKNS_5RangeERKN7openpal6RSliceERNS_12IAPDUHandlerEEUlRSE_jE_E5CountEv,"axG",%progbits,_ZNK8opendnp318BufferedCollectionINS_7IndexedINS_13FrozenCounterEEEZNS_11RangeParser13InvokeRangeOfINS_11Group21Var1EEEvRKNS_12HeaderRecordERKNS_5RangeERKN7openpal6RSliceERNS_12IAPDUHandlerEEUlRSE_jE_E5CountEv,comdat
	.align	2
	.weak	_ZNK8opendnp318BufferedCollectionINS_7IndexedINS_13FrozenCounterEEEZNS_11RangeParser13InvokeRangeOfINS_11Group21Var1EEEvRKNS_12HeaderRecordERKNS_5RangeERKN7openpal6RSliceERNS_12IAPDUHandlerEEUlRSE_jE_E5CountEv
	.syntax unified
	.arm
	.fpu vfp
	.type	_ZNK8opendnp318BufferedCollectionINS_7IndexedINS_13FrozenCounterEEEZNS_11RangeParser13InvokeRangeOfINS_11Group21Var1EEEvRKNS_12HeaderRecordERKNS_5RangeERKN7openpal6RSliceERNS_12IAPDUHandlerEEUlRSE_jE_E5CountEv, %function
_ZNK8opendnp318BufferedCollectionINS_7IndexedINS_13FrozenCounterEEEZNS_11RangeParser13InvokeRangeOfINS_11Group21Var1EEEvRKNS_12HeaderRecordERKNS_5RangeERKN7openpal6RSliceERNS_12IAPDUHandlerEEUlRSE_jE_E5CountEv:
	.fnstart
.LFB3498:
	@ args = 0, pretend = 0, frame = 0
	@ frame_needed = 0, uses_anonymous_args = 0
	@ link register save eliminated.
	ldr	r0, [r0, #12]
	bx	lr
	.cantunwind
	.fnend
	.size	_ZNK8opendnp318BufferedCollectionINS_7IndexedINS_13FrozenCounterEEEZNS_11RangeParser13InvokeRangeOfINS_11Group21Var1EEEvRKNS_12HeaderRecordERKNS_5RangeERKN7openpal6RSliceERNS_12IAPDUHandlerEEUlRSE_jE_E5CountEv, .-_ZNK8opendnp318BufferedCollectionINS_7IndexedINS_13FrozenCounterEEEZNS_11RangeParser13InvokeRangeOfINS_11Group21Var1EEEvRKNS_12HeaderRecordERKNS_5RangeERKN7openpal6RSliceERNS_12IAPDUHandlerEEUlRSE_jE_E5CountEv
	.section	.text._ZNK8opendnp318BufferedCollectionINS_7IndexedINS_7CounterEEEZNS_11RangeParser13InvokeRangeOfINS_11Group20Var6EEEvRKNS_12HeaderRecordERKNS_5RangeERKN7openpal6RSliceERNS_12IAPDUHandlerEEUlRSE_jE_E5CountEv,"axG",%progbits,_ZNK8opendnp318BufferedCollectionINS_7IndexedINS_7CounterEEEZNS_11RangeParser13InvokeRangeOfINS_11Group20Var6EEEvRKNS_12HeaderRecordERKNS_5RangeERKN7openpal6RSliceERNS_12IAPDUHandlerEEUlRSE_jE_E5CountEv,comdat
	.align	2
	.weak	_ZNK8opendnp318BufferedCollectionINS_7IndexedINS_7CounterEEEZNS_11RangeParser13InvokeRangeOfINS_11Group20Var6EEEvRKNS_12HeaderRecordERKNS_5RangeERKN7openpal6RSliceERNS_12IAPDUHandlerEEUlRSE_jE_E5CountEv
	.syntax unified
	.arm
	.fpu vfp
	.type	_ZNK8opendnp318BufferedCollectionINS_7IndexedINS_7CounterEEEZNS_11RangeParser13InvokeRangeOfINS_11Group20Var6EEEvRKNS_12HeaderRecordERKNS_5RangeERKN7openpal6RSliceERNS_12IAPDUHandlerEEUlRSE_jE_E5CountEv, %function
_ZNK8opendnp318BufferedCollectionINS_7IndexedINS_7CounterEEEZNS_11RangeParser13InvokeRangeOfINS_11Group20Var6EEEvRKNS_12HeaderRecordERKNS_5RangeERKN7openpal6RSliceERNS_12IAPDUHandlerEEUlRSE_jE_E5CountEv:
	.fnstart
.LFB3500:
	@ args = 0, pretend = 0, frame = 0
	@ frame_needed = 0, uses_anonymous_args = 0
	@ link register save eliminated.
	ldr	r0, [r0, #12]
	bx	lr
	.cantunwind
	.fnend
	.size	_ZNK8opendnp318BufferedCollectionINS_7IndexedINS_7CounterEEEZNS_11RangeParser13InvokeRangeOfINS_11Group20Var6EEEvRKNS_12HeaderRecordERKNS_5RangeERKN7openpal6RSliceERNS_12IAPDUHandlerEEUlRSE_jE_E5CountEv, .-_ZNK8opendnp318BufferedCollectionINS_7IndexedINS_7CounterEEEZNS_11RangeParser13InvokeRangeOfINS_11Group20Var6EEEvRKNS_12HeaderRecordERKNS_5RangeERKN7openpal6RSliceERNS_12IAPDUHandlerEEUlRSE_jE_E5CountEv
	.section	.text._ZNK8opendnp318BufferedCollectionINS_7IndexedINS_7CounterEEEZNS_11RangeParser13InvokeRangeOfINS_11Group20Var5EEEvRKNS_12HeaderRecordERKNS_5RangeERKN7openpal6RSliceERNS_12IAPDUHandlerEEUlRSE_jE_E5CountEv,"axG",%progbits,_ZNK8opendnp318BufferedCollectionINS_7IndexedINS_7CounterEEEZNS_11RangeParser13InvokeRangeOfINS_11Group20Var5EEEvRKNS_12HeaderRecordERKNS_5RangeERKN7openpal6RSliceERNS_12IAPDUHandlerEEUlRSE_jE_E5CountEv,comdat
	.align	2
	.weak	_ZNK8opendnp318BufferedCollectionINS_7IndexedINS_7CounterEEEZNS_11RangeParser13InvokeRangeOfINS_11Group20Var5EEEvRKNS_12HeaderRecordERKNS_5RangeERKN7openpal6RSliceERNS_12IAPDUHandlerEEUlRSE_jE_E5CountEv
	.syntax unified
	.arm
	.fpu vfp
	.type	_ZNK8opendnp318BufferedCollectionINS_7IndexedINS_7CounterEEEZNS_11RangeParser13InvokeRangeOfINS_11Group20Var5EEEvRKNS_12HeaderRecordERKNS_5RangeERKN7openpal6RSliceERNS_12IAPDUHandlerEEUlRSE_jE_E5CountEv, %function
_ZNK8opendnp318BufferedCollectionINS_7IndexedINS_7CounterEEEZNS_11RangeParser13InvokeRangeOfINS_11Group20Var5EEEvRKNS_12HeaderRecordERKNS_5RangeERKN7openpal6RSliceERNS_12IAPDUHandlerEEUlRSE_jE_E5CountEv:
	.fnstart
.LFB3502:
	@ args = 0, pretend = 0, frame = 0
	@ frame_needed = 0, uses_anonymous_args = 0
	@ link register save eliminated.
	ldr	r0, [r0, #12]
	bx	lr
	.cantunwind
	.fnend
	.size	_ZNK8opendnp318BufferedCollectionINS_7IndexedINS_7CounterEEEZNS_11RangeParser13InvokeRangeOfINS_11Group20Var5EEEvRKNS_12HeaderRecordERKNS_5RangeERKN7openpal6RSliceERNS_12IAPDUHandlerEEUlRSE_jE_E5CountEv, .-_ZNK8opendnp318BufferedCollectionINS_7IndexedINS_7CounterEEEZNS_11RangeParser13InvokeRangeOfINS_11Group20Var5EEEvRKNS_12HeaderRecordERKNS_5RangeERKN7openpal6RSliceERNS_12IAPDUHandlerEEUlRSE_jE_E5CountEv
	.section	.text._ZNK8opendnp318BufferedCollectionINS_7IndexedINS_7CounterEEEZNS_11RangeParser13InvokeRangeOfINS_11Group20Var2EEEvRKNS_12HeaderRecordERKNS_5RangeERKN7openpal6RSliceERNS_12IAPDUHandlerEEUlRSE_jE_E5CountEv,"axG",%progbits,_ZNK8opendnp318BufferedCollectionINS_7IndexedINS_7CounterEEEZNS_11RangeParser13InvokeRangeOfINS_11Group20Var2EEEvRKNS_12HeaderRecordERKNS_5RangeERKN7openpal6RSliceERNS_12IAPDUHandlerEEUlRSE_jE_E5CountEv,comdat
	.align	2
	.weak	_ZNK8opendnp318BufferedCollectionINS_7IndexedINS_7CounterEEEZNS_11RangeParser13InvokeRangeOfINS_11Group20Var2EEEvRKNS_12HeaderRecordERKNS_5RangeERKN7openpal6RSliceERNS_12IAPDUHandlerEEUlRSE_jE_E5CountEv
	.syntax unified
	.arm
	.fpu vfp
	.type	_ZNK8opendnp318BufferedCollectionINS_7IndexedINS_7CounterEEEZNS_11RangeParser13InvokeRangeOfINS_11Group20Var2EEEvRKNS_12HeaderRecordERKNS_5RangeERKN7openpal6RSliceERNS_12IAPDUHandlerEEUlRSE_jE_E5CountEv, %function
_ZNK8opendnp318BufferedCollectionINS_7IndexedINS_7CounterEEEZNS_11RangeParser13InvokeRangeOfINS_11Group20Var2EEEvRKNS_12HeaderRecordERKNS_5RangeERKN7openpal6RSliceERNS_12IAPDUHandlerEEUlRSE_jE_E5CountEv:
	.fnstart
.LFB3504:
	@ args = 0, pretend = 0, frame = 0
	@ frame_needed = 0, uses_anonymous_args = 0
	@ link register save eliminated.
	ldr	r0, [r0, #12]
	bx	lr
	.cantunwind
	.fnend
	.size	_ZNK8opendnp318BufferedCollectionINS_7IndexedINS_7CounterEEEZNS_11RangeParser13InvokeRangeOfINS_11Group20Var2EEEvRKNS_12HeaderRecordERKNS_5RangeERKN7openpal6RSliceERNS_12IAPDUHandlerEEUlRSE_jE_E5CountEv, .-_ZNK8opendnp318BufferedCollectionINS_7IndexedINS_7CounterEEEZNS_11RangeParser13InvokeRangeOfINS_11Group20Var2EEEvRKNS_12HeaderRecordERKNS_5RangeERKN7openpal6RSliceERNS_12IAPDUHandlerEEUlRSE_jE_E5CountEv
	.section	.text._ZNK8opendnp318BufferedCollectionINS_7IndexedINS_7CounterEEEZNS_11RangeParser13InvokeRangeOfINS_11Group20Var1EEEvRKNS_12HeaderRecordERKNS_5RangeERKN7openpal6RSliceERNS_12IAPDUHandlerEEUlRSE_jE_E5CountEv,"axG",%progbits,_ZNK8opendnp318BufferedCollectionINS_7IndexedINS_7CounterEEEZNS_11RangeParser13InvokeRangeOfINS_11Group20Var1EEEvRKNS_12HeaderRecordERKNS_5RangeERKN7openpal6RSliceERNS_12IAPDUHandlerEEUlRSE_jE_E5CountEv,comdat
	.align	2
	.weak	_ZNK8opendnp318BufferedCollectionINS_7IndexedINS_7CounterEEEZNS_11RangeParser13InvokeRangeOfINS_11Group20Var1EEEvRKNS_12HeaderRecordERKNS_5RangeERKN7openpal6RSliceERNS_12IAPDUHandlerEEUlRSE_jE_E5CountEv
	.syntax unified
	.arm
	.fpu vfp
	.type	_ZNK8opendnp318BufferedCollectionINS_7IndexedINS_7CounterEEEZNS_11RangeParser13InvokeRangeOfINS_11Group20Var1EEEvRKNS_12HeaderRecordERKNS_5RangeERKN7openpal6RSliceERNS_12IAPDUHandlerEEUlRSE_jE_E5CountEv, %function
_ZNK8opendnp318BufferedCollectionINS_7IndexedINS_7CounterEEEZNS_11RangeParser13InvokeRangeOfINS_11Group20Var1EEEvRKNS_12HeaderRecordERKNS_5RangeERKN7openpal6RSliceERNS_12IAPDUHandlerEEUlRSE_jE_E5CountEv:
	.fnstart
.LFB3506:
	@ args = 0, pretend = 0, frame = 0
	@ frame_needed = 0, uses_anonymous_args = 0
	@ link register save eliminated.
	ldr	r0, [r0, #12]
	bx	lr
	.cantunwind
	.fnend
	.size	_ZNK8opendnp318BufferedCollectionINS_7IndexedINS_7CounterEEEZNS_11RangeParser13InvokeRangeOfINS_11Group20Var1EEEvRKNS_12HeaderRecordERKNS_5RangeERKN7openpal6RSliceERNS_12IAPDUHandlerEEUlRSE_jE_E5CountEv, .-_ZNK8opendnp318BufferedCollectionINS_7IndexedINS_7CounterEEEZNS_11RangeParser13InvokeRangeOfINS_11Group20Var1EEEvRKNS_12HeaderRecordERKNS_5RangeERKN7openpal6RSliceERNS_12IAPDUHandlerEEUlRSE_jE_E5CountEv
	.section	.text._ZNK8opendnp318BufferedCollectionINS_7IndexedINS_18BinaryOutputStatusEEEZNS_11RangeParser13InvokeRangeOfINS_11Group10Var2EEEvRKNS_12HeaderRecordERKNS_5RangeERKN7openpal6RSliceERNS_12IAPDUHandlerEEUlRSE_jE_E5CountEv,"axG",%progbits,_ZNK8opendnp318BufferedCollectionINS_7IndexedINS_18BinaryOutputStatusEEEZNS_11RangeParser13InvokeRangeOfINS_11Group10Var2EEEvRKNS_12HeaderRecordERKNS_5RangeERKN7openpal6RSliceERNS_12IAPDUHandlerEEUlRSE_jE_E5CountEv,comdat
	.align	2
	.weak	_ZNK8opendnp318BufferedCollectionINS_7IndexedINS_18BinaryOutputStatusEEEZNS_11RangeParser13InvokeRangeOfINS_11Group10Var2EEEvRKNS_12HeaderRecordERKNS_5RangeERKN7openpal6RSliceERNS_12IAPDUHandlerEEUlRSE_jE_E5CountEv
	.syntax unified
	.arm
	.fpu vfp
	.type	_ZNK8opendnp318BufferedCollectionINS_7IndexedINS_18BinaryOutputStatusEEEZNS_11RangeParser13InvokeRangeOfINS_11Group10Var2EEEvRKNS_12HeaderRecordERKNS_5RangeERKN7openpal6RSliceERNS_12IAPDUHandlerEEUlRSE_jE_E5CountEv, %function
_ZNK8opendnp318BufferedCollectionINS_7IndexedINS_18BinaryOutputStatusEEEZNS_11RangeParser13InvokeRangeOfINS_11Group10Var2EEEvRKNS_12HeaderRecordERKNS_5RangeERKN7openpal6RSliceERNS_12IAPDUHandlerEEUlRSE_jE_E5CountEv:
	.fnstart
.LFB3508:
	@ args = 0, pretend = 0, frame = 0
	@ frame_needed = 0, uses_anonymous_args = 0
	@ link register save eliminated.
	ldr	r0, [r0, #12]
	bx	lr
	.cantunwind
	.fnend
	.size	_ZNK8opendnp318BufferedCollectionINS_7IndexedINS_18BinaryOutputStatusEEEZNS_11RangeParser13InvokeRangeOfINS_11Group10Var2EEEvRKNS_12HeaderRecordERKNS_5RangeERKN7openpal6RSliceERNS_12IAPDUHandlerEEUlRSE_jE_E5CountEv, .-_ZNK8opendnp318BufferedCollectionINS_7IndexedINS_18BinaryOutputStatusEEEZNS_11RangeParser13InvokeRangeOfINS_11Group10Var2EEEvRKNS_12HeaderRecordERKNS_5RangeERKN7openpal6RSliceERNS_12IAPDUHandlerEEUlRSE_jE_E5CountEv
	.section	.text._ZNK8opendnp318BufferedCollectionINS_7IndexedINS_15DoubleBitBinaryEEEZNS_11RangeParser13InvokeRangeOfINS_10Group3Var2EEEvRKNS_12HeaderRecordERKNS_5RangeERKN7openpal6RSliceERNS_12IAPDUHandlerEEUlRSE_jE_E5CountEv,"axG",%progbits,_ZNK8opendnp318BufferedCollectionINS_7IndexedINS_15DoubleBitBinaryEEEZNS_11RangeParser13InvokeRangeOfINS_10Group3Var2EEEvRKNS_12HeaderRecordERKNS_5RangeERKN7openpal6RSliceERNS_12IAPDUHandlerEEUlRSE_jE_E5CountEv,comdat
	.align	2
	.weak	_ZNK8opendnp318BufferedCollectionINS_7IndexedINS_15DoubleBitBinaryEEEZNS_11RangeParser13InvokeRangeOfINS_10Group3Var2EEEvRKNS_12HeaderRecordERKNS_5RangeERKN7openpal6RSliceERNS_12IAPDUHandlerEEUlRSE_jE_E5CountEv
	.syntax unified
	.arm
	.fpu vfp
	.type	_ZNK8opendnp318BufferedCollectionINS_7IndexedINS_15DoubleBitBinaryEEEZNS_11RangeParser13InvokeRangeOfINS_10Group3Var2EEEvRKNS_12HeaderRecordERKNS_5RangeERKN7openpal6RSliceERNS_12IAPDUHandlerEEUlRSE_jE_E5CountEv, %function
_ZNK8opendnp318BufferedCollectionINS_7IndexedINS_15DoubleBitBinaryEEEZNS_11RangeParser13InvokeRangeOfINS_10Group3Var2EEEvRKNS_12HeaderRecordERKNS_5RangeERKN7openpal6RSliceERNS_12IAPDUHandlerEEUlRSE_jE_E5CountEv:
	.fnstart
.LFB3510:
	@ args = 0, pretend = 0, frame = 0
	@ frame_needed = 0, uses_anonymous_args = 0
	@ link register save eliminated.
	ldr	r0, [r0, #12]
	bx	lr
	.cantunwind
	.fnend
	.size	_ZNK8opendnp318BufferedCollectionINS_7IndexedINS_15DoubleBitBinaryEEEZNS_11RangeParser13InvokeRangeOfINS_10Group3Var2EEEvRKNS_12HeaderRecordERKNS_5RangeERKN7openpal6RSliceERNS_12IAPDUHandlerEEUlRSE_jE_E5CountEv, .-_ZNK8opendnp318BufferedCollectionINS_7IndexedINS_15DoubleBitBinaryEEEZNS_11RangeParser13InvokeRangeOfINS_10Group3Var2EEEvRKNS_12HeaderRecordERKNS_5RangeERKN7openpal6RSliceERNS_12IAPDUHandlerEEUlRSE_jE_E5CountEv
	.section	.text._ZNK8opendnp318BufferedCollectionINS_7IndexedINS_18BinaryOutputStatusEEEZNS_11RangeParser23InvokeRangeBitfieldTypeIS2_EEvRKNS_12HeaderRecordERKNS_5RangeERKN7openpal6RSliceERNS_12IAPDUHandlerEEUlRSD_jE_E5CountEv,"axG",%progbits,_ZNK8opendnp318BufferedCollectionINS_7IndexedINS_18BinaryOutputStatusEEEZNS_11RangeParser23InvokeRangeBitfieldTypeIS2_EEvRKNS_12HeaderRecordERKNS_5RangeERKN7openpal6RSliceERNS_12IAPDUHandlerEEUlRSD_jE_E5CountEv,comdat
	.align	2
	.weak	_ZNK8opendnp318BufferedCollectionINS_7IndexedINS_18BinaryOutputStatusEEEZNS_11RangeParser23InvokeRangeBitfieldTypeIS2_EEvRKNS_12HeaderRecordERKNS_5RangeERKN7openpal6RSliceERNS_12IAPDUHandlerEEUlRSD_jE_E5CountEv
	.syntax unified
	.arm
	.fpu vfp
	.type	_ZNK8opendnp318BufferedCollectionINS_7IndexedINS_18BinaryOutputStatusEEEZNS_11RangeParser23InvokeRangeBitfieldTypeIS2_EEvRKNS_12HeaderRecordERKNS_5RangeERKN7openpal6RSliceERNS_12IAPDUHandlerEEUlRSD_jE_E5CountEv, %function
_ZNK8opendnp318BufferedCollectionINS_7IndexedINS_18BinaryOutputStatusEEEZNS_11RangeParser23InvokeRangeBitfieldTypeIS2_EEvRKNS_12HeaderRecordERKNS_5RangeERKN7openpal6RSliceERNS_12IAPDUHandlerEEUlRSD_jE_E5CountEv:
	.fnstart
.LFB3512:
	@ args = 0, pretend = 0, frame = 0
	@ frame_needed = 0, uses_anonymous_args = 0
	@ link register save eliminated.
	ldr	r0, [r0, #12]
	bx	lr
	.cantunwind
	.fnend
	.size	_ZNK8opendnp318BufferedCollectionINS_7IndexedINS_18BinaryOutputStatusEEEZNS_11RangeParser23InvokeRangeBitfieldTypeIS2_EEvRKNS_12HeaderRecordERKNS_5RangeERKN7openpal6RSliceERNS_12IAPDUHandlerEEUlRSD_jE_E5CountEv, .-_ZNK8opendnp318BufferedCollectionINS_7IndexedINS_18BinaryOutputStatusEEEZNS_11RangeParser23InvokeRangeBitfieldTypeIS2_EEvRKNS_12HeaderRecordERKNS_5RangeERKN7openpal6RSliceERNS_12IAPDUHandlerEEUlRSD_jE_E5CountEv
	.section	.text._ZNK8opendnp318BufferedCollectionINS_7IndexedINS_15DoubleBitBinaryEEEZNS_11RangeParser29InvokeRangeDoubleBitfieldTypeIS2_EEvRKNS_12HeaderRecordERKNS_5RangeERKN7openpal6RSliceERNS_12IAPDUHandlerEEUlRSD_jE_E5CountEv,"axG",%progbits,_ZNK8opendnp318BufferedCollectionINS_7IndexedINS_15DoubleBitBinaryEEEZNS_11RangeParser29InvokeRangeDoubleBitfieldTypeIS2_EEvRKNS_12HeaderRecordERKNS_5RangeERKN7openpal6RSliceERNS_12IAPDUHandlerEEUlRSD_jE_E5CountEv,comdat
	.align	2
	.weak	_ZNK8opendnp318BufferedCollectionINS_7IndexedINS_15DoubleBitBinaryEEEZNS_11RangeParser29InvokeRangeDoubleBitfieldTypeIS2_EEvRKNS_12HeaderRecordERKNS_5RangeERKN7openpal6RSliceERNS_12IAPDUHandlerEEUlRSD_jE_E5CountEv
	.syntax unified
	.arm
	.fpu vfp
	.type	_ZNK8opendnp318BufferedCollectionINS_7IndexedINS_15DoubleBitBinaryEEEZNS_11RangeParser29InvokeRangeDoubleBitfieldTypeIS2_EEvRKNS_12HeaderRecordERKNS_5RangeERKN7openpal6RSliceERNS_12IAPDUHandlerEEUlRSD_jE_E5CountEv, %function
_ZNK8opendnp318BufferedCollectionINS_7IndexedINS_15DoubleBitBinaryEEEZNS_11RangeParser29InvokeRangeDoubleBitfieldTypeIS2_EEvRKNS_12HeaderRecordERKNS_5RangeERKN7openpal6RSliceERNS_12IAPDUHandlerEEUlRSD_jE_E5CountEv:
	.fnstart
.LFB3514:
	@ args = 0, pretend = 0, frame = 0
	@ frame_needed = 0, uses_anonymous_args = 0
	@ link register save eliminated.
	ldr	r0, [r0, #12]
	bx	lr
	.cantunwind
	.fnend
	.size	_ZNK8opendnp318BufferedCollectionINS_7IndexedINS_15DoubleBitBinaryEEEZNS_11RangeParser29InvokeRangeDoubleBitfieldTypeIS2_EEvRKNS_12HeaderRecordERKNS_5RangeERKN7openpal6RSliceERNS_12IAPDUHandlerEEUlRSD_jE_E5CountEv, .-_ZNK8opendnp318BufferedCollectionINS_7IndexedINS_15DoubleBitBinaryEEEZNS_11RangeParser29InvokeRangeDoubleBitfieldTypeIS2_EEvRKNS_12HeaderRecordERKNS_5RangeERKN7openpal6RSliceERNS_12IAPDUHandlerEEUlRSD_jE_E5CountEv
	.section	.text._ZNK8opendnp318BufferedCollectionINS_7IndexedINS_6BinaryEEEZNS_11RangeParser13InvokeRangeOfINS_10Group1Var2EEEvRKNS_12HeaderRecordERKNS_5RangeERKN7openpal6RSliceERNS_12IAPDUHandlerEEUlRSE_jE_E5CountEv,"axG",%progbits,_ZNK8opendnp318BufferedCollectionINS_7IndexedINS_6BinaryEEEZNS_11RangeParser13InvokeRangeOfINS_10Group1Var2EEEvRKNS_12HeaderRecordERKNS_5RangeERKN7openpal6RSliceERNS_12IAPDUHandlerEEUlRSE_jE_E5CountEv,comdat
	.align	2
	.weak	_ZNK8opendnp318BufferedCollectionINS_7IndexedINS_6BinaryEEEZNS_11RangeParser13InvokeRangeOfINS_10Group1Var2EEEvRKNS_12HeaderRecordERKNS_5RangeERKN7openpal6RSliceERNS_12IAPDUHandlerEEUlRSE_jE_E5CountEv
	.syntax unified
	.arm
	.fpu vfp
	.type	_ZNK8opendnp318BufferedCollectionINS_7IndexedINS_6BinaryEEEZNS_11RangeParser13InvokeRangeOfINS_10Group1Var2EEEvRKNS_12HeaderRecordERKNS_5RangeERKN7openpal6RSliceERNS_12IAPDUHandlerEEUlRSE_jE_E5CountEv, %function
_ZNK8opendnp318BufferedCollectionINS_7IndexedINS_6BinaryEEEZNS_11RangeParser13InvokeRangeOfINS_10Group1Var2EEEvRKNS_12HeaderRecordERKNS_5RangeERKN7openpal6RSliceERNS_12IAPDUHandlerEEUlRSE_jE_E5CountEv:
	.fnstart
.LFB3516:
	@ args = 0, pretend = 0, frame = 0
	@ frame_needed = 0, uses_anonymous_args = 0
	@ link register save eliminated.
	ldr	r0, [r0, #12]
	bx	lr
	.cantunwind
	.fnend
	.size	_ZNK8opendnp318BufferedCollectionINS_7IndexedINS_6BinaryEEEZNS_11RangeParser13InvokeRangeOfINS_10Group1Var2EEEvRKNS_12HeaderRecordERKNS_5RangeERKN7openpal6RSliceERNS_12IAPDUHandlerEEUlRSE_jE_E5CountEv, .-_ZNK8opendnp318BufferedCollectionINS_7IndexedINS_6BinaryEEEZNS_11RangeParser13InvokeRangeOfINS_10Group1Var2EEEvRKNS_12HeaderRecordERKNS_5RangeERKN7openpal6RSliceERNS_12IAPDUHandlerEEUlRSE_jE_E5CountEv
	.section	.text._ZNK8opendnp318BufferedCollectionINS_7IndexedINS_6BinaryEEEZNS_11RangeParser23InvokeRangeBitfieldTypeIS2_EEvRKNS_12HeaderRecordERKNS_5RangeERKN7openpal6RSliceERNS_12IAPDUHandlerEEUlRSD_jE_E5CountEv,"axG",%progbits,_ZNK8opendnp318BufferedCollectionINS_7IndexedINS_6BinaryEEEZNS_11RangeParser23InvokeRangeBitfieldTypeIS2_EEvRKNS_12HeaderRecordERKNS_5RangeERKN7openpal6RSliceERNS_12IAPDUHandlerEEUlRSD_jE_E5CountEv,comdat
	.align	2
	.weak	_ZNK8opendnp318BufferedCollectionINS_7IndexedINS_6BinaryEEEZNS_11RangeParser23InvokeRangeBitfieldTypeIS2_EEvRKNS_12HeaderRecordERKNS_5RangeERKN7openpal6RSliceERNS_12IAPDUHandlerEEUlRSD_jE_E5CountEv
	.syntax unified
	.arm
	.fpu vfp
	.type	_ZNK8opendnp318BufferedCollectionINS_7IndexedINS_6BinaryEEEZNS_11RangeParser23InvokeRangeBitfieldTypeIS2_EEvRKNS_12HeaderRecordERKNS_5RangeERKN7openpal6RSliceERNS_12IAPDUHandlerEEUlRSD_jE_E5CountEv, %function
_ZNK8opendnp318BufferedCollectionINS_7IndexedINS_6BinaryEEEZNS_11RangeParser23InvokeRangeBitfieldTypeIS2_EEvRKNS_12HeaderRecordERKNS_5RangeERKN7openpal6RSliceERNS_12IAPDUHandlerEEUlRSD_jE_E5CountEv:
	.fnstart
.LFB3518:
	@ args = 0, pretend = 0, frame = 0
	@ frame_needed = 0, uses_anonymous_args = 0
	@ link register save eliminated.
	ldr	r0, [r0, #12]
	bx	lr
	.cantunwind
	.fnend
	.size	_ZNK8opendnp318BufferedCollectionINS_7IndexedINS_6BinaryEEEZNS_11RangeParser23InvokeRangeBitfieldTypeIS2_EEvRKNS_12HeaderRecordERKNS_5RangeERKN7openpal6RSliceERNS_12IAPDUHandlerEEUlRSD_jE_E5CountEv, .-_ZNK8opendnp318BufferedCollectionINS_7IndexedINS_6BinaryEEEZNS_11RangeParser23InvokeRangeBitfieldTypeIS2_EEvRKNS_12HeaderRecordERKNS_5RangeERKN7openpal6RSliceERNS_12IAPDUHandlerEEUlRSD_jE_E5CountEv
	.text
	.align	2
	.syntax unified
	.arm
	.fpu vfp
	.type	_ZNK8opendnp318BufferedCollectionINS_7IndexedINS_11OctetStringEEEZNS_11RangeParser21ParseRangeOfOctetDataERN7openpal6RSliceERKNS_12HeaderRecordERKNS_5RangeEPNS5_6LoggerEPNS_12IAPDUHandlerEEUlS7_jE_E5CountEv, %function
_ZNK8opendnp318BufferedCollectionINS_7IndexedINS_11OctetStringEEEZNS_11RangeParser21ParseRangeOfOctetDataERN7openpal6RSliceERKNS_12HeaderRecordERKNS_5RangeEPNS5_6LoggerEPNS_12IAPDUHandlerEEUlS7_jE_E5CountEv:
	.fnstart
.LFB3520:
	@ args = 0, pretend = 0, frame = 0
	@ frame_needed = 0, uses_anonymous_args = 0
	@ link register save eliminated.
	ldr	r0, [r0, #12]
	bx	lr
	.cantunwind
	.fnend
	.size	_ZNK8opendnp318BufferedCollectionINS_7IndexedINS_11OctetStringEEEZNS_11RangeParser21ParseRangeOfOctetDataERN7openpal6RSliceERKNS_12HeaderRecordERKNS_5RangeEPNS5_6LoggerEPNS_12IAPDUHandlerEEUlS7_jE_E5CountEv, .-_ZNK8opendnp318BufferedCollectionINS_7IndexedINS_11OctetStringEEEZNS_11RangeParser21ParseRangeOfOctetDataERN7openpal6RSliceERKNS_12HeaderRecordERKNS_5RangeEPNS5_6LoggerEPNS_12IAPDUHandlerEEUlS7_jE_E5CountEv
	.section	.text._ZN8opendnp311RangeParser23InvokeRangeBitfieldTypeINS_6BinaryEEEvRKNS_12HeaderRecordERKNS_5RangeERKN7openpal6RSliceERNS_12IAPDUHandlerE,"axG",%progbits,_ZN8opendnp311RangeParser23InvokeRangeBitfieldTypeINS_6BinaryEEEvRKNS_12HeaderRecordERKNS_5RangeERKN7openpal6RSliceERNS_12IAPDUHandlerE,comdat
	.align	2
	.weak	_ZN8opendnp311RangeParser23InvokeRangeBitfieldTypeINS_6BinaryEEEvRKNS_12HeaderRecordERKNS_5RangeERKN7openpal6RSliceERNS_12IAPDUHandlerE
	.syntax unified
	.arm
	.fpu vfp
	.type	_ZN8opendnp311RangeParser23InvokeRangeBitfieldTypeINS_6BinaryEEEvRKNS_12HeaderRecordERKNS_5RangeERKN7openpal6RSliceERNS_12IAPDUHandlerE, %function
_ZN8opendnp311RangeParser23InvokeRangeBitfieldTypeINS_6BinaryEEEvRKNS_12HeaderRecordERKNS_5RangeERKN7openpal6RSliceERNS_12IAPDUHandlerE:
	.fnstart
.LFB2834:
	@ args = 0, pretend = 0, frame = 40
	@ frame_needed = 0, uses_anonymous_args = 0
	push	{r4, r5, r6, r7, r8, lr}
	.save {r4, r5, r6, r7, r8, lr}
	mov	r8, r3
	ldr	r4, .L37
	ldr	r3, .L37+4
.LPIC0:
	add	r4, pc, r4
	.pad #40
	sub	sp, sp, #40
	ldrh	r6, [r1]
	ldrh	r5, [r1, #2]
	mov	lr, r1
	mov	ip, r0
	ldm	r2, {r0, r1}
	ldr	r4, [r4, r3]
	add	r3, sp, #4
	cmp	r6, r5
	stm	r3, {r0, r1}
	ldm	ip, {r0, r1, r2, r3}
	add	ip, r4, #8
	str	ip, [sp]
	add	ip, sp, #20
	addle	r7, r5, #1
	stm	ip, {r0, r1, r2, r3}
	suble	r7, r7, r6
	ldr	r0, [lr]	@ unaligned
	movgt	r7, #0
	str	r0, [sp, #36]
	mov	r1, ip
	mov	r2, sp
	mov	r0, r8
	str	r7, [sp, #12]
	strh	r6, [sp, #16]	@ movhi
	strh	r5, [sp, #18]	@ movhi
	bl	_ZN8opendnp312IAPDUHandler8OnHeaderERKNS_11RangeHeaderERKNS_11ICollectionINS_7IndexedINS_6BinaryEEEEE(PLT)
	add	sp, sp, #40
	@ sp needed
	pop	{r4, r5, r6, r7, r8, pc}
.L38:
	.align	2
.L37:
	.word	_GLOBAL_OFFSET_TABLE_-(.LPIC0+8)
	.word	_ZTVN8opendnp318BufferedCollectionINS_7IndexedINS_6BinaryEEEZNS_11RangeParser23InvokeRangeBitfieldTypeIS2_EEvRKNS_12HeaderRecordERKNS_5RangeERKN7openpal6RSliceERNS_12IAPDUHandlerEEUlRSD_jE_EE(GOT)
	.fnend
	.size	_ZN8opendnp311RangeParser23InvokeRangeBitfieldTypeINS_6BinaryEEEvRKNS_12HeaderRecordERKNS_5RangeERKN7openpal6RSliceERNS_12IAPDUHandlerE, .-_ZN8opendnp311RangeParser23InvokeRangeBitfieldTypeINS_6BinaryEEEvRKNS_12HeaderRecordERKNS_5RangeERKN7openpal6RSliceERNS_12IAPDUHandlerE
	.section	.text._ZN8opendnp311RangeParser13InvokeRangeOfINS_10Group1Var2EEEvRKNS_12HeaderRecordERKNS_5RangeERKN7openpal6RSliceERNS_12IAPDUHandlerE,"axG",%progbits,_ZN8opendnp311RangeParser13InvokeRangeOfINS_10Group1Var2EEEvRKNS_12HeaderRecordERKNS_5RangeERKN7openpal6RSliceERNS_12IAPDUHandlerE,comdat
	.align	2
	.weak	_ZN8opendnp311RangeParser13InvokeRangeOfINS_10Group1Var2EEEvRKNS_12HeaderRecordERKNS_5RangeERKN7openpal6RSliceERNS_12IAPDUHandlerE
	.syntax unified
	.arm
	.fpu vfp
	.type	_ZN8opendnp311RangeParser13InvokeRangeOfINS_10Group1Var2EEEvRKNS_12HeaderRecordERKNS_5RangeERKN7openpal6RSliceERNS_12IAPDUHandlerE, %function
_ZN8opendnp311RangeParser13InvokeRangeOfINS_10Group1Var2EEEvRKNS_12HeaderRecordERKNS_5RangeERKN7openpal6RSliceERNS_12IAPDUHandlerE:
	.fnstart
.LFB2842:
	@ args = 0, pretend = 0, frame = 40
	@ frame_needed = 0, uses_anonymous_args = 0
	push	{r4, r5, r6, r7, r8, lr}
	.save {r4, r5, r6, r7, r8, lr}
	mov	r8, r3
	ldr	r4, .L43
	ldr	r3, .L43+4
.LPIC1:
	add	r4, pc, r4
	.pad #40
	sub	sp, sp, #40
	ldrh	r6, [r1]
	ldrh	r5, [r1, #2]
	mov	lr, r1
	mov	ip, r0
	ldm	r2, {r0, r1}
	ldr	r4, [r4, r3]
	add	r3, sp, #4
	cmp	r6, r5
	stm	r3, {r0, r1}
	ldm	ip, {r0, r1, r2, r3}
	add	ip, r4, #8
	str	ip, [sp]
	add	ip, sp, #20
	addle	r7, r5, #1
	stm	ip, {r0, r1, r2, r3}
	suble	r7, r7, r6
	ldr	r0, [lr]	@ unaligned
	movgt	r7, #0
	str	r0, [sp, #36]
	mov	r1, ip
	mov	r2, sp
	mov	r0, r8
	str	r7, [sp, #12]
	strh	r6, [sp, #16]	@ movhi
	strh	r5, [sp, #18]	@ movhi
	bl	_ZN8opendnp312IAPDUHandler8OnHeaderERKNS_11RangeHeaderERKNS_11ICollectionINS_7IndexedINS_6BinaryEEEEE(PLT)
	add	sp, sp, #40
	@ sp needed
	pop	{r4, r5, r6, r7, r8, pc}
.L44:
	.align	2
.L43:
	.word	_GLOBAL_OFFSET_TABLE_-(.LPIC1+8)
	.word	_ZTVN8opendnp318BufferedCollectionINS_7IndexedINS_6BinaryEEEZNS_11RangeParser13InvokeRangeOfINS_10Group1Var2EEEvRKNS_12HeaderRecordERKNS_5RangeERKN7openpal6RSliceERNS_12IAPDUHandlerEEUlRSE_jE_EE(GOT)
	.fnend
	.size	_ZN8opendnp311RangeParser13InvokeRangeOfINS_10Group1Var2EEEvRKNS_12HeaderRecordERKNS_5RangeERKN7openpal6RSliceERNS_12IAPDUHandlerE, .-_ZN8opendnp311RangeParser13InvokeRangeOfINS_10Group1Var2EEEvRKNS_12HeaderRecordERKNS_5RangeERKN7openpal6RSliceERNS_12IAPDUHandlerE
	.section	.text._ZNK8opendnp318BufferedCollectionINS_7IndexedINS_8IINValueEEEZNS_11RangeParser23InvokeRangeBitfieldTypeIS2_EEvRKNS_12HeaderRecordERKNS_5RangeERKN7openpal6RSliceERNS_12IAPDUHandlerEEUlRSD_jE_E7ForeachERNS_8IVisitorIS3_EE,"axG",%progbits,_ZNK8opendnp318BufferedCollectionINS_7IndexedINS_8IINValueEEEZNS_11RangeParser23InvokeRangeBitfieldTypeIS2_EEvRKNS_12HeaderRecordERKNS_5RangeERKN7openpal6RSliceERNS_12IAPDUHandlerEEUlRSD_jE_E7ForeachERNS_8IVisitorIS3_EE,comdat
	.align	2
	.weak	_ZNK8opendnp318BufferedCollectionINS_7IndexedINS_8IINValueEEEZNS_11RangeParser23InvokeRangeBitfieldTypeIS2_EEvRKNS_12HeaderRecordERKNS_5RangeERKN7openpal6RSliceERNS_12IAPDUHandlerEEUlRSD_jE_E7ForeachERNS_8IVisitorIS3_EE
	.syntax unified
	.arm
	.fpu vfp
	.type	_ZNK8opendnp318BufferedCollectionINS_7IndexedINS_8IINValueEEEZNS_11RangeParser23InvokeRangeBitfieldTypeIS2_EEvRKNS_12HeaderRecordERKNS_5RangeERKN7openpal6RSliceERNS_12IAPDUHandlerEEUlRSD_jE_E7ForeachERNS_8IVisitorIS3_EE, %function
_ZNK8opendnp318BufferedCollectionINS_7IndexedINS_8IINValueEEEZNS_11RangeParser23InvokeRangeBitfieldTypeIS2_EEvRKNS_12HeaderRecordERKNS_5RangeERKN7openpal6RSliceERNS_12IAPDUHandlerEEUlRSD_jE_E7ForeachERNS_8IVisitorIS3_EE:
	.fnstart
.LFB3465:
	@ args = 0, pretend = 0, frame = 24
	@ frame_needed = 0, uses_anonymous_args = 0
	push	{r4, r5, r6, r7, r8, lr}
	.save {r4, r5, r6, r7, r8, lr}
	mov	r5, r0
	ldr	r3, [r0, #12]
	.pad #24
	sub	sp, sp, #24
	mov	r6, r1
	ldmib	r0, {r0, r1}
	add	r8, sp, #16
	cmp	r3, #0
	stm	r8, {r0, r1}
	beq	.L45
	mov	r4, #0
	add	r3, sp, #12
	str	r3, [sp, #4]
.L48:
	ldr	r3, [r6]
	mov	r1, r4
	mov	r0, r8
	ldr	r7, [r3]
	bl	_ZN8opendnp36GetBitERKN7openpal6RSliceEj(PLT)
	ldrh	r3, [r5, #16]
	ldr	r1, [sp, #4]
	add	r3, r3, r4
	strh	r3, [sp, #14]	@ movhi
	add	r4, r4, #1
	strb	r0, [sp, #12]
	mov	r0, r6
	blx	r7
	ldr	r3, [r5, #12]
	cmp	r3, r4
	bhi	.L48
.L45:
	add	sp, sp, #24
	@ sp needed
	pop	{r4, r5, r6, r7, r8, pc}
	.fnend
	.size	_ZNK8opendnp318BufferedCollectionINS_7IndexedINS_8IINValueEEEZNS_11RangeParser23InvokeRangeBitfieldTypeIS2_EEvRKNS_12HeaderRecordERKNS_5RangeERKN7openpal6RSliceERNS_12IAPDUHandlerEEUlRSD_jE_E7ForeachERNS_8IVisitorIS3_EE, .-_ZNK8opendnp318BufferedCollectionINS_7IndexedINS_8IINValueEEEZNS_11RangeParser23InvokeRangeBitfieldTypeIS2_EEvRKNS_12HeaderRecordERKNS_5RangeERKN7openpal6RSliceERNS_12IAPDUHandlerEEUlRSD_jE_E7ForeachERNS_8IVisitorIS3_EE
	.section	.text._ZNK8opendnp318BufferedCollectionINS_7IndexedINS_6BinaryEEEZNS_11RangeParser23InvokeRangeBitfieldTypeIS2_EEvRKNS_12HeaderRecordERKNS_5RangeERKN7openpal6RSliceERNS_12IAPDUHandlerEEUlRSD_jE_E7ForeachERNS_8IVisitorIS3_EE,"axG",%progbits,_ZNK8opendnp318BufferedCollectionINS_7IndexedINS_6BinaryEEEZNS_11RangeParser23InvokeRangeBitfieldTypeIS2_EEvRKNS_12HeaderRecordERKNS_5RangeERKN7openpal6RSliceERNS_12IAPDUHandlerEEUlRSD_jE_E7ForeachERNS_8IVisitorIS3_EE,comdat
	.align	2
	.weak	_ZNK8opendnp318BufferedCollectionINS_7IndexedINS_6BinaryEEEZNS_11RangeParser23InvokeRangeBitfieldTypeIS2_EEvRKNS_12HeaderRecordERKNS_5RangeERKN7openpal6RSliceERNS_12IAPDUHandlerEEUlRSD_jE_E7ForeachERNS_8IVisitorIS3_EE
	.syntax unified
	.arm
	.fpu vfp
	.type	_ZNK8opendnp318BufferedCollectionINS_7IndexedINS_6BinaryEEEZNS_11RangeParser23InvokeRangeBitfieldTypeIS2_EEvRKNS_12HeaderRecordERKNS_5RangeERKN7openpal6RSliceERNS_12IAPDUHandlerEEUlRSD_jE_E7ForeachERNS_8IVisitorIS3_EE, %function
_ZNK8opendnp318BufferedCollectionINS_7IndexedINS_6BinaryEEEZNS_11RangeParser23InvokeRangeBitfieldTypeIS2_EEvRKNS_12HeaderRecordERKNS_5RangeERKN7openpal6RSliceERNS_12IAPDUHandlerEEUlRSD_jE_E7ForeachERNS_8IVisitorIS3_EE:
	.fnstart
.LFB3519:
	@ args = 0, pretend = 0, frame = 64
	@ frame_needed = 0, uses_anonymous_args = 0
	push	{r4, r5, r6, r7, r8, r9, r10, fp, lr}
	.save {r4, r5, r6, r7, r8, r9, r10, fp, lr}
	mov	r5, r0
	ldr	r3, [r0, #12]
	mov	r6, r1
	ldmib	r0, {r0, r1}
	.pad #68
	sub	sp, sp, #68
	cmp	r3, #0
	stm	sp, {r0, r1}
	beq	.L50
	mov	r10, sp
	mov	r4, #0
	add	r8, sp, #8
	add	r7, sp, #32
.L53:
	ldr	r3, [r6]
	mov	r1, r4
	mov	r0, r10
	ldr	r9, [r3]
	bl	_ZN8opendnp36GetBitERKN7openpal6RSliceEj(PLT)
	mov	r1, r0
	mov	r0, r8
	bl	_ZN8opendnp36BinaryC1Eb(PLT)
	mov	lr, r8
	mov	ip, r7
	ldmia	lr!, {r0, r1, r2, r3}
	ldrh	fp, [r5, #16]
	stmia	ip!, {r0, r1, r2, r3}
	add	fp, fp, r4
	ldm	lr, {r0, r1}
	strh	fp, [sp, #56]	@ movhi
	add	r4, r4, #1
	stm	ip, {r0, r1}
	mov	r1, r7
	mov	r0, r6
	blx	r9
	ldr	r3, [r5, #12]
	cmp	r3, r4
	bhi	.L53
.L50:
	add	sp, sp, #68
	@ sp needed
	pop	{r4, r5, r6, r7, r8, r9, r10, fp, pc}
	.fnend
	.size	_ZNK8opendnp318BufferedCollectionINS_7IndexedINS_6BinaryEEEZNS_11RangeParser23InvokeRangeBitfieldTypeIS2_EEvRKNS_12HeaderRecordERKNS_5RangeERKN7openpal6RSliceERNS_12IAPDUHandlerEEUlRSD_jE_E7ForeachERNS_8IVisitorIS3_EE, .-_ZNK8opendnp318BufferedCollectionINS_7IndexedINS_6BinaryEEEZNS_11RangeParser23InvokeRangeBitfieldTypeIS2_EEvRKNS_12HeaderRecordERKNS_5RangeERKN7openpal6RSliceERNS_12IAPDUHandlerEEUlRSD_jE_E7ForeachERNS_8IVisitorIS3_EE
	.section	.text._ZNK8opendnp318BufferedCollectionINS_7IndexedINS_6BinaryEEEZNS_11RangeParser13InvokeRangeOfINS_10Group1Var2EEEvRKNS_12HeaderRecordERKNS_5RangeERKN7openpal6RSliceERNS_12IAPDUHandlerEEUlRSE_jE_E7ForeachERNS_8IVisitorIS3_EE,"axG",%progbits,_ZNK8opendnp318BufferedCollectionINS_7IndexedINS_6BinaryEEEZNS_11RangeParser13InvokeRangeOfINS_10Group1Var2EEEvRKNS_12HeaderRecordERKNS_5RangeERKN7openpal6RSliceERNS_12IAPDUHandlerEEUlRSE_jE_E7ForeachERNS_8IVisitorIS3_EE,comdat
	.align	2
	.weak	_ZNK8opendnp318BufferedCollectionINS_7IndexedINS_6BinaryEEEZNS_11RangeParser13InvokeRangeOfINS_10Group1Var2EEEvRKNS_12HeaderRecordERKNS_5RangeERKN7openpal6RSliceERNS_12IAPDUHandlerEEUlRSE_jE_E7ForeachERNS_8IVisitorIS3_EE
	.syntax unified
	.arm
	.fpu vfp
	.type	_ZNK8opendnp318BufferedCollectionINS_7IndexedINS_6BinaryEEEZNS_11RangeParser13InvokeRangeOfINS_10Group1Var2EEEvRKNS_12HeaderRecordERKNS_5RangeERKN7openpal6RSliceERNS_12IAPDUHandlerEEUlRSE_jE_E7ForeachERNS_8IVisitorIS3_EE, %function
_ZNK8opendnp318BufferedCollectionINS_7IndexedINS_6BinaryEEEZNS_11RangeParser13InvokeRangeOfINS_10Group1Var2EEEvRKNS_12HeaderRecordERKNS_5RangeERKN7openpal6RSliceERNS_12IAPDUHandlerEEUlRSE_jE_E7ForeachERNS_8IVisitorIS3_EE:
	.fnstart
.LFB3517:
	@ args = 0, pretend = 0, frame = 64
	@ frame_needed = 0, uses_anonymous_args = 0
	push	{r4, r5, r6, r7, r8, r9, r10, fp, lr}
	.save {r4, r5, r6, r7, r8, r9, r10, fp, lr}
	mov	r6, r0
	ldr	r3, [r0, #12]
	mov	r7, r1
	ldmib	r0, {r0, r1}
	.pad #68
	sub	sp, sp, #68
	cmp	r3, #0
	stm	sp, {r0, r1}
	beq	.L55
	mov	r10, sp
	mov	r4, #0
	add	r5, sp, #8
	add	r8, sp, #32
.L58:
	ldr	r3, [r7]
	mov	r0, r5
	ldr	r9, [r3]
	bl	_ZN8opendnp36BinaryC1Ev(PLT)
	mov	r1, r5
	mov	r0, r10
	bl	_ZN8opendnp310Group1Var210ReadTargetERN7openpal6RSliceERNS_6BinaryE(PLT)
	mov	lr, r5
	mov	ip, r8
	ldmia	lr!, {r0, r1, r2, r3}
	ldrh	fp, [r6, #16]
	stmia	ip!, {r0, r1, r2, r3}
	add	fp, fp, r4
	ldm	lr, {r0, r1}
	strh	fp, [sp, #56]	@ movhi
	add	r4, r4, #1
	stm	ip, {r0, r1}
	mov	r1, r8
	mov	r0, r7
	blx	r9
	ldr	r3, [r6, #12]
	cmp	r3, r4
	bhi	.L58
.L55:
	add	sp, sp, #68
	@ sp needed
	pop	{r4, r5, r6, r7, r8, r9, r10, fp, pc}
	.fnend
	.size	_ZNK8opendnp318BufferedCollectionINS_7IndexedINS_6BinaryEEEZNS_11RangeParser13InvokeRangeOfINS_10Group1Var2EEEvRKNS_12HeaderRecordERKNS_5RangeERKN7openpal6RSliceERNS_12IAPDUHandlerEEUlRSE_jE_E7ForeachERNS_8IVisitorIS3_EE, .-_ZNK8opendnp318BufferedCollectionINS_7IndexedINS_6BinaryEEEZNS_11RangeParser13InvokeRangeOfINS_10Group1Var2EEEvRKNS_12HeaderRecordERKNS_5RangeERKN7openpal6RSliceERNS_12IAPDUHandlerEEUlRSE_jE_E7ForeachERNS_8IVisitorIS3_EE
	.section	.text._ZN8opendnp311RangeParser29InvokeRangeDoubleBitfieldTypeINS_15DoubleBitBinaryEEEvRKNS_12HeaderRecordERKNS_5RangeERKN7openpal6RSliceERNS_12IAPDUHandlerE,"axG",%progbits,_ZN8opendnp311RangeParser29InvokeRangeDoubleBitfieldTypeINS_15DoubleBitBinaryEEEvRKNS_12HeaderRecordERKNS_5RangeERKN7openpal6RSliceERNS_12IAPDUHandlerE,comdat
	.align	2
	.weak	_ZN8opendnp311RangeParser29InvokeRangeDoubleBitfieldTypeINS_15DoubleBitBinaryEEEvRKNS_12HeaderRecordERKNS_5RangeERKN7openpal6RSliceERNS_12IAPDUHandlerE
	.syntax unified
	.arm
	.fpu vfp
	.type	_ZN8opendnp311RangeParser29InvokeRangeDoubleBitfieldTypeINS_15DoubleBitBinaryEEEvRKNS_12HeaderRecordERKNS_5RangeERKN7openpal6RSliceERNS_12IAPDUHandlerE, %function
_ZN8opendnp311RangeParser29InvokeRangeDoubleBitfieldTypeINS_15DoubleBitBinaryEEEvRKNS_12HeaderRecordERKNS_5RangeERKN7openpal6RSliceERNS_12IAPDUHandlerE:
	.fnstart
.LFB2847:
	@ args = 0, pretend = 0, frame = 40
	@ frame_needed = 0, uses_anonymous_args = 0
	push	{r4, r5, r6, r7, r8, lr}
	.save {r4, r5, r6, r7, r8, lr}
	mov	r8, r3
	ldr	r4, .L64
	ldr	r3, .L64+4
.LPIC2:
	add	r4, pc, r4
	.pad #40
	sub	sp, sp, #40
	ldrh	r6, [r1]
	ldrh	r5, [r1, #2]
	mov	lr, r1
	mov	ip, r0
	ldm	r2, {r0, r1}
	ldr	r4, [r4, r3]
	add	r3, sp, #4
	cmp	r6, r5
	stm	r3, {r0, r1}
	ldm	ip, {r0, r1, r2, r3}
	add	ip, r4, #8
	str	ip, [sp]
	add	ip, sp, #20
	addle	r7, r5, #1
	stm	ip, {r0, r1, r2, r3}
	suble	r7, r7, r6
	ldr	r0, [lr]	@ unaligned
	movgt	r7, #0
	str	r0, [sp, #36]
	mov	r1, ip
	mov	r2, sp
	mov	r0, r8
	str	r7, [sp, #12]
	strh	r6, [sp, #16]	@ movhi
	strh	r5, [sp, #18]	@ movhi
	bl	_ZN8opendnp312IAPDUHandler8OnHeaderERKNS_11RangeHeaderERKNS_11ICollectionINS_7IndexedINS_15DoubleBitBinaryEEEEE(PLT)
	add	sp, sp, #40
	@ sp needed
	pop	{r4, r5, r6, r7, r8, pc}
.L65:
	.align	2
.L64:
	.word	_GLOBAL_OFFSET_TABLE_-(.LPIC2+8)
	.word	_ZTVN8opendnp318BufferedCollectionINS_7IndexedINS_15DoubleBitBinaryEEEZNS_11RangeParser29InvokeRangeDoubleBitfieldTypeIS2_EEvRKNS_12HeaderRecordERKNS_5RangeERKN7openpal6RSliceERNS_12IAPDUHandlerEEUlRSD_jE_EE(GOT)
	.fnend
	.size	_ZN8opendnp311RangeParser29InvokeRangeDoubleBitfieldTypeINS_15DoubleBitBinaryEEEvRKNS_12HeaderRecordERKNS_5RangeERKN7openpal6RSliceERNS_12IAPDUHandlerE, .-_ZN8opendnp311RangeParser29InvokeRangeDoubleBitfieldTypeINS_15DoubleBitBinaryEEEvRKNS_12HeaderRecordERKNS_5RangeERKN7openpal6RSliceERNS_12IAPDUHandlerE
	.section	.text._ZN8opendnp311RangeParser13InvokeRangeOfINS_10Group3Var2EEEvRKNS_12HeaderRecordERKNS_5RangeERKN7openpal6RSliceERNS_12IAPDUHandlerE,"axG",%progbits,_ZN8opendnp311RangeParser13InvokeRangeOfINS_10Group3Var2EEEvRKNS_12HeaderRecordERKNS_5RangeERKN7openpal6RSliceERNS_12IAPDUHandlerE,comdat
	.align	2
	.weak	_ZN8opendnp311RangeParser13InvokeRangeOfINS_10Group3Var2EEEvRKNS_12HeaderRecordERKNS_5RangeERKN7openpal6RSliceERNS_12IAPDUHandlerE
	.syntax unified
	.arm
	.fpu vfp
	.type	_ZN8opendnp311RangeParser13InvokeRangeOfINS_10Group3Var2EEEvRKNS_12HeaderRecordERKNS_5RangeERKN7openpal6RSliceERNS_12IAPDUHandlerE, %function
_ZN8opendnp311RangeParser13InvokeRangeOfINS_10Group3Var2EEEvRKNS_12HeaderRecordERKNS_5RangeERKN7openpal6RSliceERNS_12IAPDUHandlerE:
	.fnstart
.LFB2863:
	@ args = 0, pretend = 0, frame = 40
	@ frame_needed = 0, uses_anonymous_args = 0
	push	{r4, r5, r6, r7, r8, lr}
	.save {r4, r5, r6, r7, r8, lr}
	mov	r8, r3
	ldr	r4, .L70
	ldr	r3, .L70+4
.LPIC3:
	add	r4, pc, r4
	.pad #40
	sub	sp, sp, #40
	ldrh	r6, [r1]
	ldrh	r5, [r1, #2]
	mov	lr, r1
	mov	ip, r0
	ldm	r2, {r0, r1}
	ldr	r4, [r4, r3]
	add	r3, sp, #4
	cmp	r6, r5
	stm	r3, {r0, r1}
	ldm	ip, {r0, r1, r2, r3}
	add	ip, r4, #8
	str	ip, [sp]
	add	ip, sp, #20
	addle	r7, r5, #1
	stm	ip, {r0, r1, r2, r3}
	suble	r7, r7, r6
	ldr	r0, [lr]	@ unaligned
	movgt	r7, #0
	str	r0, [sp, #36]
	mov	r1, ip
	mov	r2, sp
	mov	r0, r8
	str	r7, [sp, #12]
	strh	r6, [sp, #16]	@ movhi
	strh	r5, [sp, #18]	@ movhi
	bl	_ZN8opendnp312IAPDUHandler8OnHeaderERKNS_11RangeHeaderERKNS_11ICollectionINS_7IndexedINS_15DoubleBitBinaryEEEEE(PLT)
	add	sp, sp, #40
	@ sp needed
	pop	{r4, r5, r6, r7, r8, pc}
.L71:
	.align	2
.L70:
	.word	_GLOBAL_OFFSET_TABLE_-(.LPIC3+8)
	.word	_ZTVN8opendnp318BufferedCollectionINS_7IndexedINS_15DoubleBitBinaryEEEZNS_11RangeParser13InvokeRangeOfINS_10Group3Var2EEEvRKNS_12HeaderRecordERKNS_5RangeERKN7openpal6RSliceERNS_12IAPDUHandlerEEUlRSE_jE_EE(GOT)
	.fnend
	.size	_ZN8opendnp311RangeParser13InvokeRangeOfINS_10Group3Var2EEEvRKNS_12HeaderRecordERKNS_5RangeERKN7openpal6RSliceERNS_12IAPDUHandlerE, .-_ZN8opendnp311RangeParser13InvokeRangeOfINS_10Group3Var2EEEvRKNS_12HeaderRecordERKNS_5RangeERKN7openpal6RSliceERNS_12IAPDUHandlerE
	.section	.text._ZNK8opendnp318BufferedCollectionINS_7IndexedINS_15DoubleBitBinaryEEEZNS_11RangeParser29InvokeRangeDoubleBitfieldTypeIS2_EEvRKNS_12HeaderRecordERKNS_5RangeERKN7openpal6RSliceERNS_12IAPDUHandlerEEUlRSD_jE_E7ForeachERNS_8IVisitorIS3_EE,"axG",%progbits,_ZNK8opendnp318BufferedCollectionINS_7IndexedINS_15DoubleBitBinaryEEEZNS_11RangeParser29InvokeRangeDoubleBitfieldTypeIS2_EEvRKNS_12HeaderRecordERKNS_5RangeERKN7openpal6RSliceERNS_12IAPDUHandlerEEUlRSD_jE_E7ForeachERNS_8IVisitorIS3_EE,comdat
	.align	2
	.weak	_ZNK8opendnp318BufferedCollectionINS_7IndexedINS_15DoubleBitBinaryEEEZNS_11RangeParser29InvokeRangeDoubleBitfieldTypeIS2_EEvRKNS_12HeaderRecordERKNS_5RangeERKN7openpal6RSliceERNS_12IAPDUHandlerEEUlRSD_jE_E7ForeachERNS_8IVisitorIS3_EE
	.syntax unified
	.arm
	.fpu vfp
	.type	_ZNK8opendnp318BufferedCollectionINS_7IndexedINS_15DoubleBitBinaryEEEZNS_11RangeParser29InvokeRangeDoubleBitfieldTypeIS2_EEvRKNS_12HeaderRecordERKNS_5RangeERKN7openpal6RSliceERNS_12IAPDUHandlerEEUlRSD_jE_E7ForeachERNS_8IVisitorIS3_EE, %function
_ZNK8opendnp318BufferedCollectionINS_7IndexedINS_15DoubleBitBinaryEEEZNS_11RangeParser29InvokeRangeDoubleBitfieldTypeIS2_EEvRKNS_12HeaderRecordERKNS_5RangeERKN7openpal6RSliceERNS_12IAPDUHandlerEEUlRSD_jE_E7ForeachERNS_8IVisitorIS3_EE:
	.fnstart
.LFB3515:
	@ args = 0, pretend = 0, frame = 64
	@ frame_needed = 0, uses_anonymous_args = 0
	push	{r4, r5, r6, r7, r8, r9, r10, fp, lr}
	.save {r4, r5, r6, r7, r8, r9, r10, fp, lr}
	mov	r5, r0
	ldr	r3, [r0, #12]
	mov	r6, r1
	ldmib	r0, {r0, r1}
	.pad #68
	sub	sp, sp, #68
	cmp	r3, #0
	stm	sp, {r0, r1}
	beq	.L72
	mov	r10, sp
	mov	r4, #0
	add	r8, sp, #8
	add	r7, sp, #32
.L75:
	ldr	r3, [r6]
	mov	r1, r4
	mov	r0, r10
	ldr	r9, [r3]
	bl	_ZN8opendnp312GetDoubleBitERKN7openpal6RSliceEj(PLT)
	mov	r1, r0
	mov	r0, r8
	bl	_ZN8opendnp315DoubleBitBinaryC1ENS_9DoubleBitE(PLT)
	mov	lr, r8
	mov	ip, r7
	ldmia	lr!, {r0, r1, r2, r3}
	ldrh	fp, [r5, #16]
	stmia	ip!, {r0, r1, r2, r3}
	add	fp, fp, r4
	ldm	lr, {r0, r1}
	strh	fp, [sp, #56]	@ movhi
	add	r4, r4, #1
	stm	ip, {r0, r1}
	mov	r1, r7
	mov	r0, r6
	blx	r9
	ldr	r3, [r5, #12]
	cmp	r3, r4
	bhi	.L75
.L72:
	add	sp, sp, #68
	@ sp needed
	pop	{r4, r5, r6, r7, r8, r9, r10, fp, pc}
	.fnend
	.size	_ZNK8opendnp318BufferedCollectionINS_7IndexedINS_15DoubleBitBinaryEEEZNS_11RangeParser29InvokeRangeDoubleBitfieldTypeIS2_EEvRKNS_12HeaderRecordERKNS_5RangeERKN7openpal6RSliceERNS_12IAPDUHandlerEEUlRSD_jE_E7ForeachERNS_8IVisitorIS3_EE, .-_ZNK8opendnp318BufferedCollectionINS_7IndexedINS_15DoubleBitBinaryEEEZNS_11RangeParser29InvokeRangeDoubleBitfieldTypeIS2_EEvRKNS_12HeaderRecordERKNS_5RangeERKN7openpal6RSliceERNS_12IAPDUHandlerEEUlRSD_jE_E7ForeachERNS_8IVisitorIS3_EE
	.section	.text._ZN8opendnp311RangeParser23InvokeRangeBitfieldTypeINS_18BinaryOutputStatusEEEvRKNS_12HeaderRecordERKNS_5RangeERKN7openpal6RSliceERNS_12IAPDUHandlerE,"axG",%progbits,_ZN8opendnp311RangeParser23InvokeRangeBitfieldTypeINS_18BinaryOutputStatusEEEvRKNS_12HeaderRecordERKNS_5RangeERKN7openpal6RSliceERNS_12IAPDUHandlerE,comdat
	.align	2
	.weak	_ZN8opendnp311RangeParser23InvokeRangeBitfieldTypeINS_18BinaryOutputStatusEEEvRKNS_12HeaderRecordERKNS_5RangeERKN7openpal6RSliceERNS_12IAPDUHandlerE
	.syntax unified
	.arm
	.fpu vfp
	.type	_ZN8opendnp311RangeParser23InvokeRangeBitfieldTypeINS_18BinaryOutputStatusEEEvRKNS_12HeaderRecordERKNS_5RangeERKN7openpal6RSliceERNS_12IAPDUHandlerE, %function
_ZN8opendnp311RangeParser23InvokeRangeBitfieldTypeINS_18BinaryOutputStatusEEEvRKNS_12HeaderRecordERKNS_5RangeERKN7openpal6RSliceERNS_12IAPDUHandlerE:
	.fnstart
.LFB2855:
	@ args = 0, pretend = 0, frame = 40
	@ frame_needed = 0, uses_anonymous_args = 0
	push	{r4, r5, r6, r7, r8, lr}
	.save {r4, r5, r6, r7, r8, lr}
	mov	r8, r3
	ldr	r4, .L81
	ldr	r3, .L81+4
.LPIC4:
	add	r4, pc, r4
	.pad #40
	sub	sp, sp, #40
	ldrh	r6, [r1]
	ldrh	r5, [r1, #2]
	mov	lr, r1
	mov	ip, r0
	ldm	r2, {r0, r1}
	ldr	r4, [r4, r3]
	add	r3, sp, #4
	cmp	r6, r5
	stm	r3, {r0, r1}
	ldm	ip, {r0, r1, r2, r3}
	add	ip, r4, #8
	str	ip, [sp]
	add	ip, sp, #20
	addle	r7, r5, #1
	stm	ip, {r0, r1, r2, r3}
	suble	r7, r7, r6
	ldr	r0, [lr]	@ unaligned
	movgt	r7, #0
	str	r0, [sp, #36]
	mov	r1, ip
	mov	r2, sp
	mov	r0, r8
	str	r7, [sp, #12]
	strh	r6, [sp, #16]	@ movhi
	strh	r5, [sp, #18]	@ movhi
	bl	_ZN8opendnp312IAPDUHandler8OnHeaderERKNS_11RangeHeaderERKNS_11ICollectionINS_7IndexedINS_18BinaryOutputStatusEEEEE(PLT)
	add	sp, sp, #40
	@ sp needed
	pop	{r4, r5, r6, r7, r8, pc}
.L82:
	.align	2
.L81:
	.word	_GLOBAL_OFFSET_TABLE_-(.LPIC4+8)
	.word	_ZTVN8opendnp318BufferedCollectionINS_7IndexedINS_18BinaryOutputStatusEEEZNS_11RangeParser23InvokeRangeBitfieldTypeIS2_EEvRKNS_12HeaderRecordERKNS_5RangeERKN7openpal6RSliceERNS_12IAPDUHandlerEEUlRSD_jE_EE(GOT)
	.fnend
	.size	_ZN8opendnp311RangeParser23InvokeRangeBitfieldTypeINS_18BinaryOutputStatusEEEvRKNS_12HeaderRecordERKNS_5RangeERKN7openpal6RSliceERNS_12IAPDUHandlerE, .-_ZN8opendnp311RangeParser23InvokeRangeBitfieldTypeINS_18BinaryOutputStatusEEEvRKNS_12HeaderRecordERKNS_5RangeERKN7openpal6RSliceERNS_12IAPDUHandlerE
	.section	.text._ZN8opendnp311RangeParser13InvokeRangeOfINS_11Group10Var2EEEvRKNS_12HeaderRecordERKNS_5RangeERKN7openpal6RSliceERNS_12IAPDUHandlerE,"axG",%progbits,_ZN8opendnp311RangeParser13InvokeRangeOfINS_11Group10Var2EEEvRKNS_12HeaderRecordERKNS_5RangeERKN7openpal6RSliceERNS_12IAPDUHandlerE,comdat
	.align	2
	.weak	_ZN8opendnp311RangeParser13InvokeRangeOfINS_11Group10Var2EEEvRKNS_12HeaderRecordERKNS_5RangeERKN7openpal6RSliceERNS_12IAPDUHandlerE
	.syntax unified
	.arm
	.fpu vfp
	.type	_ZN8opendnp311RangeParser13InvokeRangeOfINS_11Group10Var2EEEvRKNS_12HeaderRecordERKNS_5RangeERKN7openpal6RSliceERNS_12IAPDUHandlerE, %function
_ZN8opendnp311RangeParser13InvokeRangeOfINS_11Group10Var2EEEvRKNS_12HeaderRecordERKNS_5RangeERKN7openpal6RSliceERNS_12IAPDUHandlerE:
	.fnstart
.LFB2868:
	@ args = 0, pretend = 0, frame = 40
	@ frame_needed = 0, uses_anonymous_args = 0
	push	{r4, r5, r6, r7, r8, lr}
	.save {r4, r5, r6, r7, r8, lr}
	mov	r8, r3
	ldr	r4, .L87
	ldr	r3, .L87+4
.LPIC5:
	add	r4, pc, r4
	.pad #40
	sub	sp, sp, #40
	ldrh	r6, [r1]
	ldrh	r5, [r1, #2]
	mov	lr, r1
	mov	ip, r0
	ldm	r2, {r0, r1}
	ldr	r4, [r4, r3]
	add	r3, sp, #4
	cmp	r6, r5
	stm	r3, {r0, r1}
	ldm	ip, {r0, r1, r2, r3}
	add	ip, r4, #8
	str	ip, [sp]
	add	ip, sp, #20
	addle	r7, r5, #1
	stm	ip, {r0, r1, r2, r3}
	suble	r7, r7, r6
	ldr	r0, [lr]	@ unaligned
	movgt	r7, #0
	str	r0, [sp, #36]
	mov	r1, ip
	mov	r2, sp
	mov	r0, r8
	str	r7, [sp, #12]
	strh	r6, [sp, #16]	@ movhi
	strh	r5, [sp, #18]	@ movhi
	bl	_ZN8opendnp312IAPDUHandler8OnHeaderERKNS_11RangeHeaderERKNS_11ICollectionINS_7IndexedINS_18BinaryOutputStatusEEEEE(PLT)
	add	sp, sp, #40
	@ sp needed
	pop	{r4, r5, r6, r7, r8, pc}
.L88:
	.align	2
.L87:
	.word	_GLOBAL_OFFSET_TABLE_-(.LPIC5+8)
	.word	_ZTVN8opendnp318BufferedCollectionINS_7IndexedINS_18BinaryOutputStatusEEEZNS_11RangeParser13InvokeRangeOfINS_11Group10Var2EEEvRKNS_12HeaderRecordERKNS_5RangeERKN7openpal6RSliceERNS_12IAPDUHandlerEEUlRSE_jE_EE(GOT)
	.fnend
	.size	_ZN8opendnp311RangeParser13InvokeRangeOfINS_11Group10Var2EEEvRKNS_12HeaderRecordERKNS_5RangeERKN7openpal6RSliceERNS_12IAPDUHandlerE, .-_ZN8opendnp311RangeParser13InvokeRangeOfINS_11Group10Var2EEEvRKNS_12HeaderRecordERKNS_5RangeERKN7openpal6RSliceERNS_12IAPDUHandlerE
	.section	.text._ZNK8opendnp318BufferedCollectionINS_7IndexedINS_18BinaryOutputStatusEEEZNS_11RangeParser23InvokeRangeBitfieldTypeIS2_EEvRKNS_12HeaderRecordERKNS_5RangeERKN7openpal6RSliceERNS_12IAPDUHandlerEEUlRSD_jE_E7ForeachERNS_8IVisitorIS3_EE,"axG",%progbits,_ZNK8opendnp318BufferedCollectionINS_7IndexedINS_18BinaryOutputStatusEEEZNS_11RangeParser23InvokeRangeBitfieldTypeIS2_EEvRKNS_12HeaderRecordERKNS_5RangeERKN7openpal6RSliceERNS_12IAPDUHandlerEEUlRSD_jE_E7ForeachERNS_8IVisitorIS3_EE,comdat
	.align	2
	.weak	_ZNK8opendnp318BufferedCollectionINS_7IndexedINS_18BinaryOutputStatusEEEZNS_11RangeParser23InvokeRangeBitfieldTypeIS2_EEvRKNS_12HeaderRecordERKNS_5RangeERKN7openpal6RSliceERNS_12IAPDUHandlerEEUlRSD_jE_E7ForeachERNS_8IVisitorIS3_EE
	.syntax unified
	.arm
	.fpu vfp
	.type	_ZNK8opendnp318BufferedCollectionINS_7IndexedINS_18BinaryOutputStatusEEEZNS_11RangeParser23InvokeRangeBitfieldTypeIS2_EEvRKNS_12HeaderRecordERKNS_5RangeERKN7openpal6RSliceERNS_12IAPDUHandlerEEUlRSD_jE_E7ForeachERNS_8IVisitorIS3_EE, %function
_ZNK8opendnp318BufferedCollectionINS_7IndexedINS_18BinaryOutputStatusEEEZNS_11RangeParser23InvokeRangeBitfieldTypeIS2_EEvRKNS_12HeaderRecordERKNS_5RangeERKN7openpal6RSliceERNS_12IAPDUHandlerEEUlRSD_jE_E7ForeachERNS_8IVisitorIS3_EE:
	.fnstart
.LFB3513:
	@ args = 0, pretend = 0, frame = 64
	@ frame_needed = 0, uses_anonymous_args = 0
	push	{r4, r5, r6, r7, r8, r9, r10, fp, lr}
	.save {r4, r5, r6, r7, r8, r9, r10, fp, lr}
	mov	r5, r0
	ldr	r3, [r0, #12]
	mov	r6, r1
	ldmib	r0, {r0, r1}
	.pad #68
	sub	sp, sp, #68
	cmp	r3, #0
	stm	sp, {r0, r1}
	beq	.L89
	mov	r10, sp
	mov	r4, #0
	add	r8, sp, #8
	add	r7, sp, #32
.L92:
	ldr	r3, [r6]
	mov	r1, r4
	mov	r0, r10
	ldr	r9, [r3]
	bl	_ZN8opendnp36GetBitERKN7openpal6RSliceEj(PLT)
	mov	r1, r0
	mov	r0, r8
	bl	_ZN8opendnp318BinaryOutputStatusC1Eb(PLT)
	mov	lr, r8
	mov	ip, r7
	ldmia	lr!, {r0, r1, r2, r3}
	ldrh	fp, [r5, #16]
	stmia	ip!, {r0, r1, r2, r3}
	add	fp, fp, r4
	ldm	lr, {r0, r1}
	strh	fp, [sp, #56]	@ movhi
	add	r4, r4, #1
	stm	ip, {r0, r1}
	mov	r1, r7
	mov	r0, r6
	blx	r9
	ldr	r3, [r5, #12]
	cmp	r3, r4
	bhi	.L92
.L89:
	add	sp, sp, #68
	@ sp needed
	pop	{r4, r5, r6, r7, r8, r9, r10, fp, pc}
	.fnend
	.size	_ZNK8opendnp318BufferedCollectionINS_7IndexedINS_18BinaryOutputStatusEEEZNS_11RangeParser23InvokeRangeBitfieldTypeIS2_EEvRKNS_12HeaderRecordERKNS_5RangeERKN7openpal6RSliceERNS_12IAPDUHandlerEEUlRSD_jE_E7ForeachERNS_8IVisitorIS3_EE, .-_ZNK8opendnp318BufferedCollectionINS_7IndexedINS_18BinaryOutputStatusEEEZNS_11RangeParser23InvokeRangeBitfieldTypeIS2_EEvRKNS_12HeaderRecordERKNS_5RangeERKN7openpal6RSliceERNS_12IAPDUHandlerEEUlRSD_jE_E7ForeachERNS_8IVisitorIS3_EE
	.section	.text._ZNK8opendnp318BufferedCollectionINS_7IndexedINS_15DoubleBitBinaryEEEZNS_11RangeParser13InvokeRangeOfINS_10Group3Var2EEEvRKNS_12HeaderRecordERKNS_5RangeERKN7openpal6RSliceERNS_12IAPDUHandlerEEUlRSE_jE_E7ForeachERNS_8IVisitorIS3_EE,"axG",%progbits,_ZNK8opendnp318BufferedCollectionINS_7IndexedINS_15DoubleBitBinaryEEEZNS_11RangeParser13InvokeRangeOfINS_10Group3Var2EEEvRKNS_12HeaderRecordERKNS_5RangeERKN7openpal6RSliceERNS_12IAPDUHandlerEEUlRSE_jE_E7ForeachERNS_8IVisitorIS3_EE,comdat
	.align	2
	.weak	_ZNK8opendnp318BufferedCollectionINS_7IndexedINS_15DoubleBitBinaryEEEZNS_11RangeParser13InvokeRangeOfINS_10Group3Var2EEEvRKNS_12HeaderRecordERKNS_5RangeERKN7openpal6RSliceERNS_12IAPDUHandlerEEUlRSE_jE_E7ForeachERNS_8IVisitorIS3_EE
	.syntax unified
	.arm
	.fpu vfp
	.type	_ZNK8opendnp318BufferedCollectionINS_7IndexedINS_15DoubleBitBinaryEEEZNS_11RangeParser13InvokeRangeOfINS_10Group3Var2EEEvRKNS_12HeaderRecordERKNS_5RangeERKN7openpal6RSliceERNS_12IAPDUHandlerEEUlRSE_jE_E7ForeachERNS_8IVisitorIS3_EE, %function
_ZNK8opendnp318BufferedCollectionINS_7IndexedINS_15DoubleBitBinaryEEEZNS_11RangeParser13InvokeRangeOfINS_10Group3Var2EEEvRKNS_12HeaderRecordERKNS_5RangeERKN7openpal6RSliceERNS_12IAPDUHandlerEEUlRSE_jE_E7ForeachERNS_8IVisitorIS3_EE:
	.fnstart
.LFB3511:
	@ args = 0, pretend = 0, frame = 64
	@ frame_needed = 0, uses_anonymous_args = 0
	push	{r4, r5, r6, r7, r8, r9, r10, fp, lr}
	.save {r4, r5, r6, r7, r8, r9, r10, fp, lr}
	mov	r6, r0
	ldr	r3, [r0, #12]
	mov	r7, r1
	ldmib	r0, {r0, r1}
	.pad #68
	sub	sp, sp, #68
	cmp	r3, #0
	stm	sp, {r0, r1}
	beq	.L94
	mov	r10, sp
	mov	r4, #0
	add	r5, sp, #8
	add	r8, sp, #32
.L97:
	ldr	r3, [r7]
	mov	r0, r5
	ldr	r9, [r3]
	bl	_ZN8opendnp315DoubleBitBinaryC1Ev(PLT)
	mov	r1, r5
	mov	r0, r10
	bl	_ZN8opendnp310Group3Var210ReadTargetERN7openpal6RSliceERNS_15DoubleBitBinaryE(PLT)
	mov	lr, r5
	mov	ip, r8
	ldmia	lr!, {r0, r1, r2, r3}
	ldrh	fp, [r6, #16]
	stmia	ip!, {r0, r1, r2, r3}
	add	fp, fp, r4
	ldm	lr, {r0, r1}
	strh	fp, [sp, #56]	@ movhi
	add	r4, r4, #1
	stm	ip, {r0, r1}
	mov	r1, r8
	mov	r0, r7
	blx	r9
	ldr	r3, [r6, #12]
	cmp	r3, r4
	bhi	.L97
.L94:
	add	sp, sp, #68
	@ sp needed
	pop	{r4, r5, r6, r7, r8, r9, r10, fp, pc}
	.fnend
	.size	_ZNK8opendnp318BufferedCollectionINS_7IndexedINS_15DoubleBitBinaryEEEZNS_11RangeParser13InvokeRangeOfINS_10Group3Var2EEEvRKNS_12HeaderRecordERKNS_5RangeERKN7openpal6RSliceERNS_12IAPDUHandlerEEUlRSE_jE_E7ForeachERNS_8IVisitorIS3_EE, .-_ZNK8opendnp318BufferedCollectionINS_7IndexedINS_15DoubleBitBinaryEEEZNS_11RangeParser13InvokeRangeOfINS_10Group3Var2EEEvRKNS_12HeaderRecordERKNS_5RangeERKN7openpal6RSliceERNS_12IAPDUHandlerEEUlRSE_jE_E7ForeachERNS_8IVisitorIS3_EE
	.section	.text._ZNK8opendnp318BufferedCollectionINS_7IndexedINS_18BinaryOutputStatusEEEZNS_11RangeParser13InvokeRangeOfINS_11Group10Var2EEEvRKNS_12HeaderRecordERKNS_5RangeERKN7openpal6RSliceERNS_12IAPDUHandlerEEUlRSE_jE_E7ForeachERNS_8IVisitorIS3_EE,"axG",%progbits,_ZNK8opendnp318BufferedCollectionINS_7IndexedINS_18BinaryOutputStatusEEEZNS_11RangeParser13InvokeRangeOfINS_11Group10Var2EEEvRKNS_12HeaderRecordERKNS_5RangeERKN7openpal6RSliceERNS_12IAPDUHandlerEEUlRSE_jE_E7ForeachERNS_8IVisitorIS3_EE,comdat
	.align	2
	.weak	_ZNK8opendnp318BufferedCollectionINS_7IndexedINS_18BinaryOutputStatusEEEZNS_11RangeParser13InvokeRangeOfINS_11Group10Var2EEEvRKNS_12HeaderRecordERKNS_5RangeERKN7openpal6RSliceERNS_12IAPDUHandlerEEUlRSE_jE_E7ForeachERNS_8IVisitorIS3_EE
	.syntax unified
	.arm
	.fpu vfp
	.type	_ZNK8opendnp318BufferedCollectionINS_7IndexedINS_18BinaryOutputStatusEEEZNS_11RangeParser13InvokeRangeOfINS_11Group10Var2EEEvRKNS_12HeaderRecordERKNS_5RangeERKN7openpal6RSliceERNS_12IAPDUHandlerEEUlRSE_jE_E7ForeachERNS_8IVisitorIS3_EE, %function
_ZNK8opendnp318BufferedCollectionINS_7IndexedINS_18BinaryOutputStatusEEEZNS_11RangeParser13InvokeRangeOfINS_11Group10Var2EEEvRKNS_12HeaderRecordERKNS_5RangeERKN7openpal6RSliceERNS_12IAPDUHandlerEEUlRSE_jE_E7ForeachERNS_8IVisitorIS3_EE:
	.fnstart
.LFB3509:
	@ args = 0, pretend = 0, frame = 64
	@ frame_needed = 0, uses_anonymous_args = 0
	push	{r4, r5, r6, r7, r8, r9, r10, fp, lr}
	.save {r4, r5, r6, r7, r8, r9, r10, fp, lr}
	mov	r6, r0
	ldr	r3, [r0, #12]
	mov	r7, r1
	ldmib	r0, {r0, r1}
	.pad #68
	sub	sp, sp, #68
	cmp	r3, #0
	stm	sp, {r0, r1}
	beq	.L99
	mov	r10, sp
	mov	r4, #0
	add	r5, sp, #8
	add	r8, sp, #32
.L102:
	ldr	r3, [r7]
	mov	r0, r5
	ldr	r9, [r3]
	bl	_ZN8opendnp318BinaryOutputStatusC1Ev(PLT)
	mov	r1, r5
	mov	r0, r10
	bl	_ZN8opendnp311Group10Var210ReadTargetERN7openpal6RSliceERNS_18BinaryOutputStatusE(PLT)
	mov	lr, r5
	mov	ip, r8
	ldmia	lr!, {r0, r1, r2, r3}
	ldrh	fp, [r6, #16]
	stmia	ip!, {r0, r1, r2, r3}
	add	fp, fp, r4
	ldm	lr, {r0, r1}
	strh	fp, [sp, #56]	@ movhi
	add	r4, r4, #1
	stm	ip, {r0, r1}
	mov	r1, r8
	mov	r0, r7
	blx	r9
	ldr	r3, [r6, #12]
	cmp	r3, r4
	bhi	.L102
.L99:
	add	sp, sp, #68
	@ sp needed
	pop	{r4, r5, r6, r7, r8, r9, r10, fp, pc}
	.fnend
	.size	_ZNK8opendnp318BufferedCollectionINS_7IndexedINS_18BinaryOutputStatusEEEZNS_11RangeParser13InvokeRangeOfINS_11Group10Var2EEEvRKNS_12HeaderRecordERKNS_5RangeERKN7openpal6RSliceERNS_12IAPDUHandlerEEUlRSE_jE_E7ForeachERNS_8IVisitorIS3_EE, .-_ZNK8opendnp318BufferedCollectionINS_7IndexedINS_18BinaryOutputStatusEEEZNS_11RangeParser13InvokeRangeOfINS_11Group10Var2EEEvRKNS_12HeaderRecordERKNS_5RangeERKN7openpal6RSliceERNS_12IAPDUHandlerEEUlRSE_jE_E7ForeachERNS_8IVisitorIS3_EE
	.section	.text._ZN8opendnp311RangeParser13InvokeRangeOfINS_11Group20Var1EEEvRKNS_12HeaderRecordERKNS_5RangeERKN7openpal6RSliceERNS_12IAPDUHandlerE,"axG",%progbits,_ZN8opendnp311RangeParser13InvokeRangeOfINS_11Group20Var1EEEvRKNS_12HeaderRecordERKNS_5RangeERKN7openpal6RSliceERNS_12IAPDUHandlerE,comdat
	.align	2
	.weak	_ZN8opendnp311RangeParser13InvokeRangeOfINS_11Group20Var1EEEvRKNS_12HeaderRecordERKNS_5RangeERKN7openpal6RSliceERNS_12IAPDUHandlerE
	.syntax unified
	.arm
	.fpu vfp
	.type	_ZN8opendnp311RangeParser13InvokeRangeOfINS_11Group20Var1EEEvRKNS_12HeaderRecordERKNS_5RangeERKN7openpal6RSliceERNS_12IAPDUHandlerE, %function
_ZN8opendnp311RangeParser13InvokeRangeOfINS_11Group20Var1EEEvRKNS_12HeaderRecordERKNS_5RangeERKN7openpal6RSliceERNS_12IAPDUHandlerE:
	.fnstart
.LFB2873:
	@ args = 0, pretend = 0, frame = 40
	@ frame_needed = 0, uses_anonymous_args = 0
	push	{r4, r5, r6, r7, r8, lr}
	.save {r4, r5, r6, r7, r8, lr}
	mov	r8, r3
	ldr	r4, .L108
	ldr	r3, .L108+4
.LPIC6:
	add	r4, pc, r4
	.pad #40
	sub	sp, sp, #40
	ldrh	r6, [r1]
	ldrh	r5, [r1, #2]
	mov	lr, r1
	mov	ip, r0
	ldm	r2, {r0, r1}
	ldr	r4, [r4, r3]
	add	r3, sp, #4
	cmp	r6, r5
	stm	r3, {r0, r1}
	ldm	ip, {r0, r1, r2, r3}
	add	ip, r4, #8
	str	ip, [sp]
	add	ip, sp, #20
	addle	r7, r5, #1
	stm	ip, {r0, r1, r2, r3}
	suble	r7, r7, r6
	ldr	r0, [lr]	@ unaligned
	movgt	r7, #0
	str	r0, [sp, #36]
	mov	r1, ip
	mov	r2, sp
	mov	r0, r8
	str	r7, [sp, #12]
	strh	r6, [sp, #16]	@ movhi
	strh	r5, [sp, #18]	@ movhi
	bl	_ZN8opendnp312IAPDUHandler8OnHeaderERKNS_11RangeHeaderERKNS_11ICollectionINS_7IndexedINS_7CounterEEEEE(PLT)
	add	sp, sp, #40
	@ sp needed
	pop	{r4, r5, r6, r7, r8, pc}
.L109:
	.align	2
.L108:
	.word	_GLOBAL_OFFSET_TABLE_-(.LPIC6+8)
	.word	_ZTVN8opendnp318BufferedCollectionINS_7IndexedINS_7CounterEEEZNS_11RangeParser13InvokeRangeOfINS_11Group20Var1EEEvRKNS_12HeaderRecordERKNS_5RangeERKN7openpal6RSliceERNS_12IAPDUHandlerEEUlRSE_jE_EE(GOT)
	.fnend
	.size	_ZN8opendnp311RangeParser13InvokeRangeOfINS_11Group20Var1EEEvRKNS_12HeaderRecordERKNS_5RangeERKN7openpal6RSliceERNS_12IAPDUHandlerE, .-_ZN8opendnp311RangeParser13InvokeRangeOfINS_11Group20Var1EEEvRKNS_12HeaderRecordERKNS_5RangeERKN7openpal6RSliceERNS_12IAPDUHandlerE
	.section	.text._ZN8opendnp311RangeParser13InvokeRangeOfINS_11Group20Var2EEEvRKNS_12HeaderRecordERKNS_5RangeERKN7openpal6RSliceERNS_12IAPDUHandlerE,"axG",%progbits,_ZN8opendnp311RangeParser13InvokeRangeOfINS_11Group20Var2EEEvRKNS_12HeaderRecordERKNS_5RangeERKN7openpal6RSliceERNS_12IAPDUHandlerE,comdat
	.align	2
	.weak	_ZN8opendnp311RangeParser13InvokeRangeOfINS_11Group20Var2EEEvRKNS_12HeaderRecordERKNS_5RangeERKN7openpal6RSliceERNS_12IAPDUHandlerE
	.syntax unified
	.arm
	.fpu vfp
	.type	_ZN8opendnp311RangeParser13InvokeRangeOfINS_11Group20Var2EEEvRKNS_12HeaderRecordERKNS_5RangeERKN7openpal6RSliceERNS_12IAPDUHandlerE, %function
_ZN8opendnp311RangeParser13InvokeRangeOfINS_11Group20Var2EEEvRKNS_12HeaderRecordERKNS_5RangeERKN7openpal6RSliceERNS_12IAPDUHandlerE:
	.fnstart
.LFB2881:
	@ args = 0, pretend = 0, frame = 40
	@ frame_needed = 0, uses_anonymous_args = 0
	push	{r4, r5, r6, r7, r8, lr}
	.save {r4, r5, r6, r7, r8, lr}
	mov	r8, r3
	ldr	r4, .L114
	ldr	r3, .L114+4
.LPIC7:
	add	r4, pc, r4
	.pad #40
	sub	sp, sp, #40
	ldrh	r6, [r1]
	ldrh	r5, [r1, #2]
	mov	lr, r1
	mov	ip, r0
	ldm	r2, {r0, r1}
	ldr	r4, [r4, r3]
	add	r3, sp, #4
	cmp	r6, r5
	stm	r3, {r0, r1}
	ldm	ip, {r0, r1, r2, r3}
	add	ip, r4, #8
	str	ip, [sp]
	add	ip, sp, #20
	addle	r7, r5, #1
	stm	ip, {r0, r1, r2, r3}
	suble	r7, r7, r6
	ldr	r0, [lr]	@ unaligned
	movgt	r7, #0
	str	r0, [sp, #36]
	mov	r1, ip
	mov	r2, sp
	mov	r0, r8
	str	r7, [sp, #12]
	strh	r6, [sp, #16]	@ movhi
	strh	r5, [sp, #18]	@ movhi
	bl	_ZN8opendnp312IAPDUHandler8OnHeaderERKNS_11RangeHeaderERKNS_11ICollectionINS_7IndexedINS_7CounterEEEEE(PLT)
	add	sp, sp, #40
	@ sp needed
	pop	{r4, r5, r6, r7, r8, pc}
.L115:
	.align	2
.L114:
	.word	_GLOBAL_OFFSET_TABLE_-(.LPIC7+8)
	.word	_ZTVN8opendnp318BufferedCollectionINS_7IndexedINS_7CounterEEEZNS_11RangeParser13InvokeRangeOfINS_11Group20Var2EEEvRKNS_12HeaderRecordERKNS_5RangeERKN7openpal6RSliceERNS_12IAPDUHandlerEEUlRSE_jE_EE(GOT)
	.fnend
	.size	_ZN8opendnp311RangeParser13InvokeRangeOfINS_11Group20Var2EEEvRKNS_12HeaderRecordERKNS_5RangeERKN7openpal6RSliceERNS_12IAPDUHandlerE, .-_ZN8opendnp311RangeParser13InvokeRangeOfINS_11Group20Var2EEEvRKNS_12HeaderRecordERKNS_5RangeERKN7openpal6RSliceERNS_12IAPDUHandlerE
	.section	.text._ZN8opendnp311RangeParser13InvokeRangeOfINS_11Group20Var5EEEvRKNS_12HeaderRecordERKNS_5RangeERKN7openpal6RSliceERNS_12IAPDUHandlerE,"axG",%progbits,_ZN8opendnp311RangeParser13InvokeRangeOfINS_11Group20Var5EEEvRKNS_12HeaderRecordERKNS_5RangeERKN7openpal6RSliceERNS_12IAPDUHandlerE,comdat
	.align	2
	.weak	_ZN8opendnp311RangeParser13InvokeRangeOfINS_11Group20Var5EEEvRKNS_12HeaderRecordERKNS_5RangeERKN7openpal6RSliceERNS_12IAPDUHandlerE
	.syntax unified
	.arm
	.fpu vfp
	.type	_ZN8opendnp311RangeParser13InvokeRangeOfINS_11Group20Var5EEEvRKNS_12HeaderRecordERKNS_5RangeERKN7openpal6RSliceERNS_12IAPDUHandlerE, %function
_ZN8opendnp311RangeParser13InvokeRangeOfINS_11Group20Var5EEEvRKNS_12HeaderRecordERKNS_5RangeERKN7openpal6RSliceERNS_12IAPDUHandlerE:
	.fnstart
.LFB2886:
	@ args = 0, pretend = 0, frame = 40
	@ frame_needed = 0, uses_anonymous_args = 0
	push	{r4, r5, r6, r7, r8, lr}
	.save {r4, r5, r6, r7, r8, lr}
	mov	r8, r3
	ldr	r4, .L120
	ldr	r3, .L120+4
.LPIC8:
	add	r4, pc, r4
	.pad #40
	sub	sp, sp, #40
	ldrh	r6, [r1]
	ldrh	r5, [r1, #2]
	mov	lr, r1
	mov	ip, r0
	ldm	r2, {r0, r1}
	ldr	r4, [r4, r3]
	add	r3, sp, #4
	cmp	r6, r5
	stm	r3, {r0, r1}
	ldm	ip, {r0, r1, r2, r3}
	add	ip, r4, #8
	str	ip, [sp]
	add	ip, sp, #20
	addle	r7, r5, #1
	stm	ip, {r0, r1, r2, r3}
	suble	r7, r7, r6
	ldr	r0, [lr]	@ unaligned
	movgt	r7, #0
	str	r0, [sp, #36]
	mov	r1, ip
	mov	r2, sp
	mov	r0, r8
	str	r7, [sp, #12]
	strh	r6, [sp, #16]	@ movhi
	strh	r5, [sp, #18]	@ movhi
	bl	_ZN8opendnp312IAPDUHandler8OnHeaderERKNS_11RangeHeaderERKNS_11ICollectionINS_7IndexedINS_7CounterEEEEE(PLT)
	add	sp, sp, #40
	@ sp needed
	pop	{r4, r5, r6, r7, r8, pc}
.L121:
	.align	2
.L120:
	.word	_GLOBAL_OFFSET_TABLE_-(.LPIC8+8)
	.word	_ZTVN8opendnp318BufferedCollectionINS_7IndexedINS_7CounterEEEZNS_11RangeParser13InvokeRangeOfINS_11Group20Var5EEEvRKNS_12HeaderRecordERKNS_5RangeERKN7openpal6RSliceERNS_12IAPDUHandlerEEUlRSE_jE_EE(GOT)
	.fnend
	.size	_ZN8opendnp311RangeParser13InvokeRangeOfINS_11Group20Var5EEEvRKNS_12HeaderRecordERKNS_5RangeERKN7openpal6RSliceERNS_12IAPDUHandlerE, .-_ZN8opendnp311RangeParser13InvokeRangeOfINS_11Group20Var5EEEvRKNS_12HeaderRecordERKNS_5RangeERKN7openpal6RSliceERNS_12IAPDUHandlerE
	.section	.text._ZN8opendnp311RangeParser13InvokeRangeOfINS_11Group20Var6EEEvRKNS_12HeaderRecordERKNS_5RangeERKN7openpal6RSliceERNS_12IAPDUHandlerE,"axG",%progbits,_ZN8opendnp311RangeParser13InvokeRangeOfINS_11Group20Var6EEEvRKNS_12HeaderRecordERKNS_5RangeERKN7openpal6RSliceERNS_12IAPDUHandlerE,comdat
	.align	2
	.weak	_ZN8opendnp311RangeParser13InvokeRangeOfINS_11Group20Var6EEEvRKNS_12HeaderRecordERKNS_5RangeERKN7openpal6RSliceERNS_12IAPDUHandlerE
	.syntax unified
	.arm
	.fpu vfp
	.type	_ZN8opendnp311RangeParser13InvokeRangeOfINS_11Group20Var6EEEvRKNS_12HeaderRecordERKNS_5RangeERKN7openpal6RSliceERNS_12IAPDUHandlerE, %function
_ZN8opendnp311RangeParser13InvokeRangeOfINS_11Group20Var6EEEvRKNS_12HeaderRecordERKNS_5RangeERKN7openpal6RSliceERNS_12IAPDUHandlerE:
	.fnstart
.LFB2891:
	@ args = 0, pretend = 0, frame = 40
	@ frame_needed = 0, uses_anonymous_args = 0
	push	{r4, r5, r6, r7, r8, lr}
	.save {r4, r5, r6, r7, r8, lr}
	mov	r8, r3
	ldr	r4, .L126
	ldr	r3, .L126+4
.LPIC9:
	add	r4, pc, r4
	.pad #40
	sub	sp, sp, #40
	ldrh	r6, [r1]
	ldrh	r5, [r1, #2]
	mov	lr, r1
	mov	ip, r0
	ldm	r2, {r0, r1}
	ldr	r4, [r4, r3]
	add	r3, sp, #4
	cmp	r6, r5
	stm	r3, {r0, r1}
	ldm	ip, {r0, r1, r2, r3}
	add	ip, r4, #8
	str	ip, [sp]
	add	ip, sp, #20
	addle	r7, r5, #1
	stm	ip, {r0, r1, r2, r3}
	suble	r7, r7, r6
	ldr	r0, [lr]	@ unaligned
	movgt	r7, #0
	str	r0, [sp, #36]
	mov	r1, ip
	mov	r2, sp
	mov	r0, r8
	str	r7, [sp, #12]
	strh	r6, [sp, #16]	@ movhi
	strh	r5, [sp, #18]	@ movhi
	bl	_ZN8opendnp312IAPDUHandler8OnHeaderERKNS_11RangeHeaderERKNS_11ICollectionINS_7IndexedINS_7CounterEEEEE(PLT)
	add	sp, sp, #40
	@ sp needed
	pop	{r4, r5, r6, r7, r8, pc}
.L127:
	.align	2
.L126:
	.word	_GLOBAL_OFFSET_TABLE_-(.LPIC9+8)
	.word	_ZTVN8opendnp318BufferedCollectionINS_7IndexedINS_7CounterEEEZNS_11RangeParser13InvokeRangeOfINS_11Group20Var6EEEvRKNS_12HeaderRecordERKNS_5RangeERKN7openpal6RSliceERNS_12IAPDUHandlerEEUlRSE_jE_EE(GOT)
	.fnend
	.size	_ZN8opendnp311RangeParser13InvokeRangeOfINS_11Group20Var6EEEvRKNS_12HeaderRecordERKNS_5RangeERKN7openpal6RSliceERNS_12IAPDUHandlerE, .-_ZN8opendnp311RangeParser13InvokeRangeOfINS_11Group20Var6EEEvRKNS_12HeaderRecordERKNS_5RangeERKN7openpal6RSliceERNS_12IAPDUHandlerE
	.section	.text._ZNK8opendnp318BufferedCollectionINS_7IndexedINS_7CounterEEEZNS_11RangeParser13InvokeRangeOfINS_11Group20Var1EEEvRKNS_12HeaderRecordERKNS_5RangeERKN7openpal6RSliceERNS_12IAPDUHandlerEEUlRSE_jE_E7ForeachERNS_8IVisitorIS3_EE,"axG",%progbits,_ZNK8opendnp318BufferedCollectionINS_7IndexedINS_7CounterEEEZNS_11RangeParser13InvokeRangeOfINS_11Group20Var1EEEvRKNS_12HeaderRecordERKNS_5RangeERKN7openpal6RSliceERNS_12IAPDUHandlerEEUlRSE_jE_E7ForeachERNS_8IVisitorIS3_EE,comdat
	.align	2
	.weak	_ZNK8opendnp318BufferedCollectionINS_7IndexedINS_7CounterEEEZNS_11RangeParser13InvokeRangeOfINS_11Group20Var1EEEvRKNS_12HeaderRecordERKNS_5RangeERKN7openpal6RSliceERNS_12IAPDUHandlerEEUlRSE_jE_E7ForeachERNS_8IVisitorIS3_EE
	.syntax unified
	.arm
	.fpu vfp
	.type	_ZNK8opendnp318BufferedCollectionINS_7IndexedINS_7CounterEEEZNS_11RangeParser13InvokeRangeOfINS_11Group20Var1EEEvRKNS_12HeaderRecordERKNS_5RangeERKN7openpal6RSliceERNS_12IAPDUHandlerEEUlRSE_jE_E7ForeachERNS_8IVisitorIS3_EE, %function
_ZNK8opendnp318BufferedCollectionINS_7IndexedINS_7CounterEEEZNS_11RangeParser13InvokeRangeOfINS_11Group20Var1EEEvRKNS_12HeaderRecordERKNS_5RangeERKN7openpal6RSliceERNS_12IAPDUHandlerEEUlRSE_jE_E7ForeachERNS_8IVisitorIS3_EE:
	.fnstart
.LFB3507:
	@ args = 0, pretend = 0, frame = 72
	@ frame_needed = 0, uses_anonymous_args = 0
	push	{r4, r5, r6, r7, r8, r9, r10, lr}
	.save {r4, r5, r6, r7, r8, r9, r10, lr}
	mov	r6, r0
	.pad #72
	sub	sp, sp, #72
	ldr	r3, [r0, #12]
	mov	r7, r1
	ldmib	r0, {r0, r1}
	add	r2, sp, #8
	cmp	r3, #0
	str	r2, [sp, #4]
	stm	r2, {r0, r1}
	beq	.L128
	mov	r4, #0
	add	r5, sp, #16
	add	r8, sp, #40
.L131:
	ldr	r3, [r7]
	mov	r0, r5
	ldr	r9, [r3]
	bl	_ZN8opendnp37CounterC1Ev(PLT)
	mov	r1, r5
	ldr	r0, [sp, #4]
	bl	_ZN8opendnp311Group20Var110ReadTargetERN7openpal6RSliceERNS_7CounterE(PLT)
	mov	lr, r5
	mov	ip, r8
	ldmia	lr!, {r0, r1, r2, r3}
	ldrh	r10, [r6, #16]
	stmia	ip!, {r0, r1, r2, r3}
	add	r10, r10, r4
	ldm	lr, {r0, r1}
	strh	r10, [sp, #64]	@ movhi
	add	r4, r4, #1
	stm	ip, {r0, r1}
	mov	r1, r8
	mov	r0, r7
	blx	r9
	ldr	r3, [r6, #12]
	cmp	r3, r4
	bhi	.L131
.L128:
	add	sp, sp, #72
	@ sp needed
	pop	{r4, r5, r6, r7, r8, r9, r10, pc}
	.fnend
	.size	_ZNK8opendnp318BufferedCollectionINS_7IndexedINS_7CounterEEEZNS_11RangeParser13InvokeRangeOfINS_11Group20Var1EEEvRKNS_12HeaderRecordERKNS_5RangeERKN7openpal6RSliceERNS_12IAPDUHandlerEEUlRSE_jE_E7ForeachERNS_8IVisitorIS3_EE, .-_ZNK8opendnp318BufferedCollectionINS_7IndexedINS_7CounterEEEZNS_11RangeParser13InvokeRangeOfINS_11Group20Var1EEEvRKNS_12HeaderRecordERKNS_5RangeERKN7openpal6RSliceERNS_12IAPDUHandlerEEUlRSE_jE_E7ForeachERNS_8IVisitorIS3_EE
	.section	.text._ZNK8opendnp318BufferedCollectionINS_7IndexedINS_7CounterEEEZNS_11RangeParser13InvokeRangeOfINS_11Group20Var2EEEvRKNS_12HeaderRecordERKNS_5RangeERKN7openpal6RSliceERNS_12IAPDUHandlerEEUlRSE_jE_E7ForeachERNS_8IVisitorIS3_EE,"axG",%progbits,_ZNK8opendnp318BufferedCollectionINS_7IndexedINS_7CounterEEEZNS_11RangeParser13InvokeRangeOfINS_11Group20Var2EEEvRKNS_12HeaderRecordERKNS_5RangeERKN7openpal6RSliceERNS_12IAPDUHandlerEEUlRSE_jE_E7ForeachERNS_8IVisitorIS3_EE,comdat
	.align	2
	.weak	_ZNK8opendnp318BufferedCollectionINS_7IndexedINS_7CounterEEEZNS_11RangeParser13InvokeRangeOfINS_11Group20Var2EEEvRKNS_12HeaderRecordERKNS_5RangeERKN7openpal6RSliceERNS_12IAPDUHandlerEEUlRSE_jE_E7ForeachERNS_8IVisitorIS3_EE
	.syntax unified
	.arm
	.fpu vfp
	.type	_ZNK8opendnp318BufferedCollectionINS_7IndexedINS_7CounterEEEZNS_11RangeParser13InvokeRangeOfINS_11Group20Var2EEEvRKNS_12HeaderRecordERKNS_5RangeERKN7openpal6RSliceERNS_12IAPDUHandlerEEUlRSE_jE_E7ForeachERNS_8IVisitorIS3_EE, %function
_ZNK8opendnp318BufferedCollectionINS_7IndexedINS_7CounterEEEZNS_11RangeParser13InvokeRangeOfINS_11Group20Var2EEEvRKNS_12HeaderRecordERKNS_5RangeERKN7openpal6RSliceERNS_12IAPDUHandlerEEUlRSE_jE_E7ForeachERNS_8IVisitorIS3_EE:
	.fnstart
.LFB3505:
	@ args = 0, pretend = 0, frame = 64
	@ frame_needed = 0, uses_anonymous_args = 0
	push	{r4, r5, r6, r7, r8, r9, r10, fp, lr}
	.save {r4, r5, r6, r7, r8, r9, r10, fp, lr}
	mov	r6, r0
	ldr	r3, [r0, #12]
	mov	r7, r1
	ldmib	r0, {r0, r1}
	.pad #68
	sub	sp, sp, #68
	cmp	r3, #0
	stm	sp, {r0, r1}
	beq	.L133
	mov	r10, sp
	mov	r4, #0
	add	r5, sp, #8
	add	r8, sp, #32
.L136:
	ldr	r3, [r7]
	mov	r0, r5
	ldr	r9, [r3]
	bl	_ZN8opendnp37CounterC1Ev(PLT)
	mov	r1, r5
	mov	r0, r10
	bl	_ZN8opendnp311Group20Var210ReadTargetERN7openpal6RSliceERNS_7CounterE(PLT)
	mov	lr, r5
	mov	ip, r8
	ldmia	lr!, {r0, r1, r2, r3}
	ldrh	fp, [r6, #16]
	stmia	ip!, {r0, r1, r2, r3}
	add	fp, fp, r4
	ldm	lr, {r0, r1}
	strh	fp, [sp, #56]	@ movhi
	add	r4, r4, #1
	stm	ip, {r0, r1}
	mov	r1, r8
	mov	r0, r7
	blx	r9
	ldr	r3, [r6, #12]
	cmp	r3, r4
	bhi	.L136
.L133:
	add	sp, sp, #68
	@ sp needed
	pop	{r4, r5, r6, r7, r8, r9, r10, fp, pc}
	.fnend
	.size	_ZNK8opendnp318BufferedCollectionINS_7IndexedINS_7CounterEEEZNS_11RangeParser13InvokeRangeOfINS_11Group20Var2EEEvRKNS_12HeaderRecordERKNS_5RangeERKN7openpal6RSliceERNS_12IAPDUHandlerEEUlRSE_jE_E7ForeachERNS_8IVisitorIS3_EE, .-_ZNK8opendnp318BufferedCollectionINS_7IndexedINS_7CounterEEEZNS_11RangeParser13InvokeRangeOfINS_11Group20Var2EEEvRKNS_12HeaderRecordERKNS_5RangeERKN7openpal6RSliceERNS_12IAPDUHandlerEEUlRSE_jE_E7ForeachERNS_8IVisitorIS3_EE
	.section	.text._ZNK8opendnp318BufferedCollectionINS_7IndexedINS_7CounterEEEZNS_11RangeParser13InvokeRangeOfINS_11Group20Var5EEEvRKNS_12HeaderRecordERKNS_5RangeERKN7openpal6RSliceERNS_12IAPDUHandlerEEUlRSE_jE_E7ForeachERNS_8IVisitorIS3_EE,"axG",%progbits,_ZNK8opendnp318BufferedCollectionINS_7IndexedINS_7CounterEEEZNS_11RangeParser13InvokeRangeOfINS_11Group20Var5EEEvRKNS_12HeaderRecordERKNS_5RangeERKN7openpal6RSliceERNS_12IAPDUHandlerEEUlRSE_jE_E7ForeachERNS_8IVisitorIS3_EE,comdat
	.align	2
	.weak	_ZNK8opendnp318BufferedCollectionINS_7IndexedINS_7CounterEEEZNS_11RangeParser13InvokeRangeOfINS_11Group20Var5EEEvRKNS_12HeaderRecordERKNS_5RangeERKN7openpal6RSliceERNS_12IAPDUHandlerEEUlRSE_jE_E7ForeachERNS_8IVisitorIS3_EE
	.syntax unified
	.arm
	.fpu vfp
	.type	_ZNK8opendnp318BufferedCollectionINS_7IndexedINS_7CounterEEEZNS_11RangeParser13InvokeRangeOfINS_11Group20Var5EEEvRKNS_12HeaderRecordERKNS_5RangeERKN7openpal6RSliceERNS_12IAPDUHandlerEEUlRSE_jE_E7ForeachERNS_8IVisitorIS3_EE, %function
_ZNK8opendnp318BufferedCollectionINS_7IndexedINS_7CounterEEEZNS_11RangeParser13InvokeRangeOfINS_11Group20Var5EEEvRKNS_12HeaderRecordERKNS_5RangeERKN7openpal6RSliceERNS_12IAPDUHandlerEEUlRSE_jE_E7ForeachERNS_8IVisitorIS3_EE:
	.fnstart
.LFB3503:
	@ args = 0, pretend = 0, frame = 64
	@ frame_needed = 0, uses_anonymous_args = 0
	push	{r4, r5, r6, r7, r8, r9, r10, fp, lr}
	.save {r4, r5, r6, r7, r8, r9, r10, fp, lr}
	mov	r6, r0
	ldr	r3, [r0, #12]
	mov	r7, r1
	ldmib	r0, {r0, r1}
	.pad #68
	sub	sp, sp, #68
	cmp	r3, #0
	stm	sp, {r0, r1}
	beq	.L138
	mov	r10, sp
	mov	r4, #0
	add	r5, sp, #8
	add	r8, sp, #32
.L141:
	ldr	r3, [r7]
	mov	r0, r5
	ldr	r9, [r3]
	bl	_ZN8opendnp37CounterC1Ev(PLT)
	mov	r1, r5
	mov	r0, r10
	bl	_ZN8opendnp311Group20Var510ReadTargetERN7openpal6RSliceERNS_7CounterE(PLT)
	mov	lr, r5
	mov	ip, r8
	ldmia	lr!, {r0, r1, r2, r3}
	ldrh	fp, [r6, #16]
	stmia	ip!, {r0, r1, r2, r3}
	add	fp, fp, r4
	ldm	lr, {r0, r1}
	strh	fp, [sp, #56]	@ movhi
	add	r4, r4, #1
	stm	ip, {r0, r1}
	mov	r1, r8
	mov	r0, r7
	blx	r9
	ldr	r3, [r6, #12]
	cmp	r3, r4
	bhi	.L141
.L138:
	add	sp, sp, #68
	@ sp needed
	pop	{r4, r5, r6, r7, r8, r9, r10, fp, pc}
	.fnend
	.size	_ZNK8opendnp318BufferedCollectionINS_7IndexedINS_7CounterEEEZNS_11RangeParser13InvokeRangeOfINS_11Group20Var5EEEvRKNS_12HeaderRecordERKNS_5RangeERKN7openpal6RSliceERNS_12IAPDUHandlerEEUlRSE_jE_E7ForeachERNS_8IVisitorIS3_EE, .-_ZNK8opendnp318BufferedCollectionINS_7IndexedINS_7CounterEEEZNS_11RangeParser13InvokeRangeOfINS_11Group20Var5EEEvRKNS_12HeaderRecordERKNS_5RangeERKN7openpal6RSliceERNS_12IAPDUHandlerEEUlRSE_jE_E7ForeachERNS_8IVisitorIS3_EE
	.section	.text._ZNK8opendnp318BufferedCollectionINS_7IndexedINS_7CounterEEEZNS_11RangeParser13InvokeRangeOfINS_11Group20Var6EEEvRKNS_12HeaderRecordERKNS_5RangeERKN7openpal6RSliceERNS_12IAPDUHandlerEEUlRSE_jE_E7ForeachERNS_8IVisitorIS3_EE,"axG",%progbits,_ZNK8opendnp318BufferedCollectionINS_7IndexedINS_7CounterEEEZNS_11RangeParser13InvokeRangeOfINS_11Group20Var6EEEvRKNS_12HeaderRecordERKNS_5RangeERKN7openpal6RSliceERNS_12IAPDUHandlerEEUlRSE_jE_E7ForeachERNS_8IVisitorIS3_EE,comdat
	.align	2
	.weak	_ZNK8opendnp318BufferedCollectionINS_7IndexedINS_7CounterEEEZNS_11RangeParser13InvokeRangeOfINS_11Group20Var6EEEvRKNS_12HeaderRecordERKNS_5RangeERKN7openpal6RSliceERNS_12IAPDUHandlerEEUlRSE_jE_E7ForeachERNS_8IVisitorIS3_EE
	.syntax unified
	.arm
	.fpu vfp
	.type	_ZNK8opendnp318BufferedCollectionINS_7IndexedINS_7CounterEEEZNS_11RangeParser13InvokeRangeOfINS_11Group20Var6EEEvRKNS_12HeaderRecordERKNS_5RangeERKN7openpal6RSliceERNS_12IAPDUHandlerEEUlRSE_jE_E7ForeachERNS_8IVisitorIS3_EE, %function
_ZNK8opendnp318BufferedCollectionINS_7IndexedINS_7CounterEEEZNS_11RangeParser13InvokeRangeOfINS_11Group20Var6EEEvRKNS_12HeaderRecordERKNS_5RangeERKN7openpal6RSliceERNS_12IAPDUHandlerEEUlRSE_jE_E7ForeachERNS_8IVisitorIS3_EE:
	.fnstart
.LFB3501:
	@ args = 0, pretend = 0, frame = 64
	@ frame_needed = 0, uses_anonymous_args = 0
	push	{r4, r5, r6, r7, r8, r9, r10, fp, lr}
	.save {r4, r5, r6, r7, r8, r9, r10, fp, lr}
	mov	r6, r0
	ldr	r3, [r0, #12]
	mov	r7, r1
	ldmib	r0, {r0, r1}
	.pad #68
	sub	sp, sp, #68
	cmp	r3, #0
	stm	sp, {r0, r1}
	beq	.L143
	mov	r10, sp
	mov	r4, #0
	add	r5, sp, #8
	add	r8, sp, #32
.L146:
	ldr	r3, [r7]
	mov	r0, r5
	ldr	r9, [r3]
	bl	_ZN8opendnp37CounterC1Ev(PLT)
	mov	r1, r5
	mov	r0, r10
	bl	_ZN8opendnp311Group20Var610ReadTargetERN7openpal6RSliceERNS_7CounterE(PLT)
	mov	lr, r5
	mov	ip, r8
	ldmia	lr!, {r0, r1, r2, r3}
	ldrh	fp, [r6, #16]
	stmia	ip!, {r0, r1, r2, r3}
	add	fp, fp, r4
	ldm	lr, {r0, r1}
	strh	fp, [sp, #56]	@ movhi
	add	r4, r4, #1
	stm	ip, {r0, r1}
	mov	r1, r8
	mov	r0, r7
	blx	r9
	ldr	r3, [r6, #12]
	cmp	r3, r4
	bhi	.L146
.L143:
	add	sp, sp, #68
	@ sp needed
	pop	{r4, r5, r6, r7, r8, r9, r10, fp, pc}
	.fnend
	.size	_ZNK8opendnp318BufferedCollectionINS_7IndexedINS_7CounterEEEZNS_11RangeParser13InvokeRangeOfINS_11Group20Var6EEEvRKNS_12HeaderRecordERKNS_5RangeERKN7openpal6RSliceERNS_12IAPDUHandlerEEUlRSE_jE_E7ForeachERNS_8IVisitorIS3_EE, .-_ZNK8opendnp318BufferedCollectionINS_7IndexedINS_7CounterEEEZNS_11RangeParser13InvokeRangeOfINS_11Group20Var6EEEvRKNS_12HeaderRecordERKNS_5RangeERKN7openpal6RSliceERNS_12IAPDUHandlerEEUlRSE_jE_E7ForeachERNS_8IVisitorIS3_EE
	.section	.text._ZN8opendnp311RangeParser13InvokeRangeOfINS_11Group21Var1EEEvRKNS_12HeaderRecordERKNS_5RangeERKN7openpal6RSliceERNS_12IAPDUHandlerE,"axG",%progbits,_ZN8opendnp311RangeParser13InvokeRangeOfINS_11Group21Var1EEEvRKNS_12HeaderRecordERKNS_5RangeERKN7openpal6RSliceERNS_12IAPDUHandlerE,comdat
	.align	2
	.weak	_ZN8opendnp311RangeParser13InvokeRangeOfINS_11Group21Var1EEEvRKNS_12HeaderRecordERKNS_5RangeERKN7openpal6RSliceERNS_12IAPDUHandlerE
	.syntax unified
	.arm
	.fpu vfp
	.type	_ZN8opendnp311RangeParser13InvokeRangeOfINS_11Group21Var1EEEvRKNS_12HeaderRecordERKNS_5RangeERKN7openpal6RSliceERNS_12IAPDUHandlerE, %function
_ZN8opendnp311RangeParser13InvokeRangeOfINS_11Group21Var1EEEvRKNS_12HeaderRecordERKNS_5RangeERKN7openpal6RSliceERNS_12IAPDUHandlerE:
	.fnstart
.LFB2896:
	@ args = 0, pretend = 0, frame = 40
	@ frame_needed = 0, uses_anonymous_args = 0
	push	{r4, r5, r6, r7, r8, lr}
	.save {r4, r5, r6, r7, r8, lr}
	mov	r8, r3
	ldr	r4, .L152
	ldr	r3, .L152+4
.LPIC10:
	add	r4, pc, r4
	.pad #40
	sub	sp, sp, #40
	ldrh	r6, [r1]
	ldrh	r5, [r1, #2]
	mov	lr, r1
	mov	ip, r0
	ldm	r2, {r0, r1}
	ldr	r4, [r4, r3]
	add	r3, sp, #4
	cmp	r6, r5
	stm	r3, {r0, r1}
	ldm	ip, {r0, r1, r2, r3}
	add	ip, r4, #8
	str	ip, [sp]
	add	ip, sp, #20
	addle	r7, r5, #1
	stm	ip, {r0, r1, r2, r3}
	suble	r7, r7, r6
	ldr	r0, [lr]	@ unaligned
	movgt	r7, #0
	str	r0, [sp, #36]
	mov	r1, ip
	mov	r2, sp
	mov	r0, r8
	str	r7, [sp, #12]
	strh	r6, [sp, #16]	@ movhi
	strh	r5, [sp, #18]	@ movhi
	bl	_ZN8opendnp312IAPDUHandler8OnHeaderERKNS_11RangeHeaderERKNS_11ICollectionINS_7IndexedINS_13FrozenCounterEEEEE(PLT)
	add	sp, sp, #40
	@ sp needed
	pop	{r4, r5, r6, r7, r8, pc}
.L153:
	.align	2
.L152:
	.word	_GLOBAL_OFFSET_TABLE_-(.LPIC10+8)
	.word	_ZTVN8opendnp318BufferedCollectionINS_7IndexedINS_13FrozenCounterEEEZNS_11RangeParser13InvokeRangeOfINS_11Group21Var1EEEvRKNS_12HeaderRecordERKNS_5RangeERKN7openpal6RSliceERNS_12IAPDUHandlerEEUlRSE_jE_EE(GOT)
	.fnend
	.size	_ZN8opendnp311RangeParser13InvokeRangeOfINS_11Group21Var1EEEvRKNS_12HeaderRecordERKNS_5RangeERKN7openpal6RSliceERNS_12IAPDUHandlerE, .-_ZN8opendnp311RangeParser13InvokeRangeOfINS_11Group21Var1EEEvRKNS_12HeaderRecordERKNS_5RangeERKN7openpal6RSliceERNS_12IAPDUHandlerE
	.section	.text._ZN8opendnp311RangeParser13InvokeRangeOfINS_11Group21Var2EEEvRKNS_12HeaderRecordERKNS_5RangeERKN7openpal6RSliceERNS_12IAPDUHandlerE,"axG",%progbits,_ZN8opendnp311RangeParser13InvokeRangeOfINS_11Group21Var2EEEvRKNS_12HeaderRecordERKNS_5RangeERKN7openpal6RSliceERNS_12IAPDUHandlerE,comdat
	.align	2
	.weak	_ZN8opendnp311RangeParser13InvokeRangeOfINS_11Group21Var2EEEvRKNS_12HeaderRecordERKNS_5RangeERKN7openpal6RSliceERNS_12IAPDUHandlerE
	.syntax unified
	.arm
	.fpu vfp
	.type	_ZN8opendnp311RangeParser13InvokeRangeOfINS_11Group21Var2EEEvRKNS_12HeaderRecordERKNS_5RangeERKN7openpal6RSliceERNS_12IAPDUHandlerE, %function
_ZN8opendnp311RangeParser13InvokeRangeOfINS_11Group21Var2EEEvRKNS_12HeaderRecordERKNS_5RangeERKN7openpal6RSliceERNS_12IAPDUHandlerE:
	.fnstart
.LFB2904:
	@ args = 0, pretend = 0, frame = 40
	@ frame_needed = 0, uses_anonymous_args = 0
	push	{r4, r5, r6, r7, r8, lr}
	.save {r4, r5, r6, r7, r8, lr}
	mov	r8, r3
	ldr	r4, .L158
	ldr	r3, .L158+4
.LPIC11:
	add	r4, pc, r4
	.pad #40
	sub	sp, sp, #40
	ldrh	r6, [r1]
	ldrh	r5, [r1, #2]
	mov	lr, r1
	mov	ip, r0
	ldm	r2, {r0, r1}
	ldr	r4, [r4, r3]
	add	r3, sp, #4
	cmp	r6, r5
	stm	r3, {r0, r1}
	ldm	ip, {r0, r1, r2, r3}
	add	ip, r4, #8
	str	ip, [sp]
	add	ip, sp, #20
	addle	r7, r5, #1
	stm	ip, {r0, r1, r2, r3}
	suble	r7, r7, r6
	ldr	r0, [lr]	@ unaligned
	movgt	r7, #0
	str	r0, [sp, #36]
	mov	r1, ip
	mov	r2, sp
	mov	r0, r8
	str	r7, [sp, #12]
	strh	r6, [sp, #16]	@ movhi
	strh	r5, [sp, #18]	@ movhi
	bl	_ZN8opendnp312IAPDUHandler8OnHeaderERKNS_11RangeHeaderERKNS_11ICollectionINS_7IndexedINS_13FrozenCounterEEEEE(PLT)
	add	sp, sp, #40
	@ sp needed
	pop	{r4, r5, r6, r7, r8, pc}
.L159:
	.align	2
.L158:
	.word	_GLOBAL_OFFSET_TABLE_-(.LPIC11+8)
	.word	_ZTVN8opendnp318BufferedCollectionINS_7IndexedINS_13FrozenCounterEEEZNS_11RangeParser13InvokeRangeOfINS_11Group21Var2EEEvRKNS_12HeaderRecordERKNS_5RangeERKN7openpal6RSliceERNS_12IAPDUHandlerEEUlRSE_jE_EE(GOT)
	.fnend
	.size	_ZN8opendnp311RangeParser13InvokeRangeOfINS_11Group21Var2EEEvRKNS_12HeaderRecordERKNS_5RangeERKN7openpal6RSliceERNS_12IAPDUHandlerE, .-_ZN8opendnp311RangeParser13InvokeRangeOfINS_11Group21Var2EEEvRKNS_12HeaderRecordERKNS_5RangeERKN7openpal6RSliceERNS_12IAPDUHandlerE
	.section	.text._ZN8opendnp311RangeParser13InvokeRangeOfINS_11Group21Var5EEEvRKNS_12HeaderRecordERKNS_5RangeERKN7openpal6RSliceERNS_12IAPDUHandlerE,"axG",%progbits,_ZN8opendnp311RangeParser13InvokeRangeOfINS_11Group21Var5EEEvRKNS_12HeaderRecordERKNS_5RangeERKN7openpal6RSliceERNS_12IAPDUHandlerE,comdat
	.align	2
	.weak	_ZN8opendnp311RangeParser13InvokeRangeOfINS_11Group21Var5EEEvRKNS_12HeaderRecordERKNS_5RangeERKN7openpal6RSliceERNS_12IAPDUHandlerE
	.syntax unified
	.arm
	.fpu vfp
	.type	_ZN8opendnp311RangeParser13InvokeRangeOfINS_11Group21Var5EEEvRKNS_12HeaderRecordERKNS_5RangeERKN7openpal6RSliceERNS_12IAPDUHandlerE, %function
_ZN8opendnp311RangeParser13InvokeRangeOfINS_11Group21Var5EEEvRKNS_12HeaderRecordERKNS_5RangeERKN7openpal6RSliceERNS_12IAPDUHandlerE:
	.fnstart
.LFB2909:
	@ args = 0, pretend = 0, frame = 40
	@ frame_needed = 0, uses_anonymous_args = 0
	push	{r4, r5, r6, r7, r8, lr}
	.save {r4, r5, r6, r7, r8, lr}
	mov	r8, r3
	ldr	r4, .L164
	ldr	r3, .L164+4
.LPIC12:
	add	r4, pc, r4
	.pad #40
	sub	sp, sp, #40
	ldrh	r6, [r1]
	ldrh	r5, [r1, #2]
	mov	lr, r1
	mov	ip, r0
	ldm	r2, {r0, r1}
	ldr	r4, [r4, r3]
	add	r3, sp, #4
	cmp	r6, r5
	stm	r3, {r0, r1}
	ldm	ip, {r0, r1, r2, r3}
	add	ip, r4, #8
	str	ip, [sp]
	add	ip, sp, #20
	addle	r7, r5, #1
	stm	ip, {r0, r1, r2, r3}
	suble	r7, r7, r6
	ldr	r0, [lr]	@ unaligned
	movgt	r7, #0
	str	r0, [sp, #36]
	mov	r1, ip
	mov	r2, sp
	mov	r0, r8
	str	r7, [sp, #12]
	strh	r6, [sp, #16]	@ movhi
	strh	r5, [sp, #18]	@ movhi
	bl	_ZN8opendnp312IAPDUHandler8OnHeaderERKNS_11RangeHeaderERKNS_11ICollectionINS_7IndexedINS_13FrozenCounterEEEEE(PLT)
	add	sp, sp, #40
	@ sp needed
	pop	{r4, r5, r6, r7, r8, pc}
.L165:
	.align	2
.L164:
	.word	_GLOBAL_OFFSET_TABLE_-(.LPIC12+8)
	.word	_ZTVN8opendnp318BufferedCollectionINS_7IndexedINS_13FrozenCounterEEEZNS_11RangeParser13InvokeRangeOfINS_11Group21Var5EEEvRKNS_12HeaderRecordERKNS_5RangeERKN7openpal6RSliceERNS_12IAPDUHandlerEEUlRSE_jE_EE(GOT)
	.fnend
	.size	_ZN8opendnp311RangeParser13InvokeRangeOfINS_11Group21Var5EEEvRKNS_12HeaderRecordERKNS_5RangeERKN7openpal6RSliceERNS_12IAPDUHandlerE, .-_ZN8opendnp311RangeParser13InvokeRangeOfINS_11Group21Var5EEEvRKNS_12HeaderRecordERKNS_5RangeERKN7openpal6RSliceERNS_12IAPDUHandlerE
	.section	.text._ZN8opendnp311RangeParser13InvokeRangeOfINS_11Group21Var6EEEvRKNS_12HeaderRecordERKNS_5RangeERKN7openpal6RSliceERNS_12IAPDUHandlerE,"axG",%progbits,_ZN8opendnp311RangeParser13InvokeRangeOfINS_11Group21Var6EEEvRKNS_12HeaderRecordERKNS_5RangeERKN7openpal6RSliceERNS_12IAPDUHandlerE,comdat
	.align	2
	.weak	_ZN8opendnp311RangeParser13InvokeRangeOfINS_11Group21Var6EEEvRKNS_12HeaderRecordERKNS_5RangeERKN7openpal6RSliceERNS_12IAPDUHandlerE
	.syntax unified
	.arm
	.fpu vfp
	.type	_ZN8opendnp311RangeParser13InvokeRangeOfINS_11Group21Var6EEEvRKNS_12HeaderRecordERKNS_5RangeERKN7openpal6RSliceERNS_12IAPDUHandlerE, %function
_ZN8opendnp311RangeParser13InvokeRangeOfINS_11Group21Var6EEEvRKNS_12HeaderRecordERKNS_5RangeERKN7openpal6RSliceERNS_12IAPDUHandlerE:
	.fnstart
.LFB2914:
	@ args = 0, pretend = 0, frame = 40
	@ frame_needed = 0, uses_anonymous_args = 0
	push	{r4, r5, r6, r7, r8, lr}
	.save {r4, r5, r6, r7, r8, lr}
	mov	r8, r3
	ldr	r4, .L170
	ldr	r3, .L170+4
.LPIC13:
	add	r4, pc, r4
	.pad #40
	sub	sp, sp, #40
	ldrh	r6, [r1]
	ldrh	r5, [r1, #2]
	mov	lr, r1
	mov	ip, r0
	ldm	r2, {r0, r1}
	ldr	r4, [r4, r3]
	add	r3, sp, #4
	cmp	r6, r5
	stm	r3, {r0, r1}
	ldm	ip, {r0, r1, r2, r3}
	add	ip, r4, #8
	str	ip, [sp]
	add	ip, sp, #20
	addle	r7, r5, #1
	stm	ip, {r0, r1, r2, r3}
	suble	r7, r7, r6
	ldr	r0, [lr]	@ unaligned
	movgt	r7, #0
	str	r0, [sp, #36]
	mov	r1, ip
	mov	r2, sp
	mov	r0, r8
	str	r7, [sp, #12]
	strh	r6, [sp, #16]	@ movhi
	strh	r5, [sp, #18]	@ movhi
	bl	_ZN8opendnp312IAPDUHandler8OnHeaderERKNS_11RangeHeaderERKNS_11ICollectionINS_7IndexedINS_13FrozenCounterEEEEE(PLT)
	add	sp, sp, #40
	@ sp needed
	pop	{r4, r5, r6, r7, r8, pc}
.L171:
	.align	2
.L170:
	.word	_GLOBAL_OFFSET_TABLE_-(.LPIC13+8)
	.word	_ZTVN8opendnp318BufferedCollectionINS_7IndexedINS_13FrozenCounterEEEZNS_11RangeParser13InvokeRangeOfINS_11Group21Var6EEEvRKNS_12HeaderRecordERKNS_5RangeERKN7openpal6RSliceERNS_12IAPDUHandlerEEUlRSE_jE_EE(GOT)
	.fnend
	.size	_ZN8opendnp311RangeParser13InvokeRangeOfINS_11Group21Var6EEEvRKNS_12HeaderRecordERKNS_5RangeERKN7openpal6RSliceERNS_12IAPDUHandlerE, .-_ZN8opendnp311RangeParser13InvokeRangeOfINS_11Group21Var6EEEvRKNS_12HeaderRecordERKNS_5RangeERKN7openpal6RSliceERNS_12IAPDUHandlerE
	.section	.text._ZN8opendnp311RangeParser13InvokeRangeOfINS_11Group21Var9EEEvRKNS_12HeaderRecordERKNS_5RangeERKN7openpal6RSliceERNS_12IAPDUHandlerE,"axG",%progbits,_ZN8opendnp311RangeParser13InvokeRangeOfINS_11Group21Var9EEEvRKNS_12HeaderRecordERKNS_5RangeERKN7openpal6RSliceERNS_12IAPDUHandlerE,comdat
	.align	2
	.weak	_ZN8opendnp311RangeParser13InvokeRangeOfINS_11Group21Var9EEEvRKNS_12HeaderRecordERKNS_5RangeERKN7openpal6RSliceERNS_12IAPDUHandlerE
	.syntax unified
	.arm
	.fpu vfp
	.type	_ZN8opendnp311RangeParser13InvokeRangeOfINS_11Group21Var9EEEvRKNS_12HeaderRecordERKNS_5RangeERKN7openpal6RSliceERNS_12IAPDUHandlerE, %function
_ZN8opendnp311RangeParser13InvokeRangeOfINS_11Group21Var9EEEvRKNS_12HeaderRecordERKNS_5RangeERKN7openpal6RSliceERNS_12IAPDUHandlerE:
	.fnstart
.LFB2919:
	@ args = 0, pretend = 0, frame = 40
	@ frame_needed = 0, uses_anonymous_args = 0
	push	{r4, r5, r6, r7, r8, lr}
	.save {r4, r5, r6, r7, r8, lr}
	mov	r8, r3
	ldr	r4, .L176
	ldr	r3, .L176+4
.LPIC14:
	add	r4, pc, r4
	.pad #40
	sub	sp, sp, #40
	ldrh	r6, [r1]
	ldrh	r5, [r1, #2]
	mov	lr, r1
	mov	ip, r0
	ldm	r2, {r0, r1}
	ldr	r4, [r4, r3]
	add	r3, sp, #4
	cmp	r6, r5
	stm	r3, {r0, r1}
	ldm	ip, {r0, r1, r2, r3}
	add	ip, r4, #8
	str	ip, [sp]
	add	ip, sp, #20
	addle	r7, r5, #1
	stm	ip, {r0, r1, r2, r3}
	suble	r7, r7, r6
	ldr	r0, [lr]	@ unaligned
	movgt	r7, #0
	str	r0, [sp, #36]
	mov	r1, ip
	mov	r2, sp
	mov	r0, r8
	str	r7, [sp, #12]
	strh	r6, [sp, #16]	@ movhi
	strh	r5, [sp, #18]	@ movhi
	bl	_ZN8opendnp312IAPDUHandler8OnHeaderERKNS_11RangeHeaderERKNS_11ICollectionINS_7IndexedINS_13FrozenCounterEEEEE(PLT)
	add	sp, sp, #40
	@ sp needed
	pop	{r4, r5, r6, r7, r8, pc}
.L177:
	.align	2
.L176:
	.word	_GLOBAL_OFFSET_TABLE_-(.LPIC14+8)
	.word	_ZTVN8opendnp318BufferedCollectionINS_7IndexedINS_13FrozenCounterEEEZNS_11RangeParser13InvokeRangeOfINS_11Group21Var9EEEvRKNS_12HeaderRecordERKNS_5RangeERKN7openpal6RSliceERNS_12IAPDUHandlerEEUlRSE_jE_EE(GOT)
	.fnend
	.size	_ZN8opendnp311RangeParser13InvokeRangeOfINS_11Group21Var9EEEvRKNS_12HeaderRecordERKNS_5RangeERKN7openpal6RSliceERNS_12IAPDUHandlerE, .-_ZN8opendnp311RangeParser13InvokeRangeOfINS_11Group21Var9EEEvRKNS_12HeaderRecordERKNS_5RangeERKN7openpal6RSliceERNS_12IAPDUHandlerE
	.section	.text._ZN8opendnp311RangeParser13InvokeRangeOfINS_12Group21Var10EEEvRKNS_12HeaderRecordERKNS_5RangeERKN7openpal6RSliceERNS_12IAPDUHandlerE,"axG",%progbits,_ZN8opendnp311RangeParser13InvokeRangeOfINS_12Group21Var10EEEvRKNS_12HeaderRecordERKNS_5RangeERKN7openpal6RSliceERNS_12IAPDUHandlerE,comdat
	.align	2
	.weak	_ZN8opendnp311RangeParser13InvokeRangeOfINS_12Group21Var10EEEvRKNS_12HeaderRecordERKNS_5RangeERKN7openpal6RSliceERNS_12IAPDUHandlerE
	.syntax unified
	.arm
	.fpu vfp
	.type	_ZN8opendnp311RangeParser13InvokeRangeOfINS_12Group21Var10EEEvRKNS_12HeaderRecordERKNS_5RangeERKN7openpal6RSliceERNS_12IAPDUHandlerE, %function
_ZN8opendnp311RangeParser13InvokeRangeOfINS_12Group21Var10EEEvRKNS_12HeaderRecordERKNS_5RangeERKN7openpal6RSliceERNS_12IAPDUHandlerE:
	.fnstart
.LFB2924:
	@ args = 0, pretend = 0, frame = 40
	@ frame_needed = 0, uses_anonymous_args = 0
	push	{r4, r5, r6, r7, r8, lr}
	.save {r4, r5, r6, r7, r8, lr}
	mov	r8, r3
	ldr	r4, .L182
	ldr	r3, .L182+4
.LPIC15:
	add	r4, pc, r4
	.pad #40
	sub	sp, sp, #40
	ldrh	r6, [r1]
	ldrh	r5, [r1, #2]
	mov	lr, r1
	mov	ip, r0
	ldm	r2, {r0, r1}
	ldr	r4, [r4, r3]
	add	r3, sp, #4
	cmp	r6, r5
	stm	r3, {r0, r1}
	ldm	ip, {r0, r1, r2, r3}
	add	ip, r4, #8
	str	ip, [sp]
	add	ip, sp, #20
	addle	r7, r5, #1
	stm	ip, {r0, r1, r2, r3}
	suble	r7, r7, r6
	ldr	r0, [lr]	@ unaligned
	movgt	r7, #0
	str	r0, [sp, #36]
	mov	r1, ip
	mov	r2, sp
	mov	r0, r8
	str	r7, [sp, #12]
	strh	r6, [sp, #16]	@ movhi
	strh	r5, [sp, #18]	@ movhi
	bl	_ZN8opendnp312IAPDUHandler8OnHeaderERKNS_11RangeHeaderERKNS_11ICollectionINS_7IndexedINS_13FrozenCounterEEEEE(PLT)
	add	sp, sp, #40
	@ sp needed
	pop	{r4, r5, r6, r7, r8, pc}
.L183:
	.align	2
.L182:
	.word	_GLOBAL_OFFSET_TABLE_-(.LPIC15+8)
	.word	_ZTVN8opendnp318BufferedCollectionINS_7IndexedINS_13FrozenCounterEEEZNS_11RangeParser13InvokeRangeOfINS_12Group21Var10EEEvRKNS_12HeaderRecordERKNS_5RangeERKN7openpal6RSliceERNS_12IAPDUHandlerEEUlRSE_jE_EE(GOT)
	.fnend
	.size	_ZN8opendnp311RangeParser13InvokeRangeOfINS_12Group21Var10EEEvRKNS_12HeaderRecordERKNS_5RangeERKN7openpal6RSliceERNS_12IAPDUHandlerE, .-_ZN8opendnp311RangeParser13InvokeRangeOfINS_12Group21Var10EEEvRKNS_12HeaderRecordERKNS_5RangeERKN7openpal6RSliceERNS_12IAPDUHandlerE
	.section	.text._ZNK8opendnp318BufferedCollectionINS_7IndexedINS_13FrozenCounterEEEZNS_11RangeParser13InvokeRangeOfINS_11Group21Var1EEEvRKNS_12HeaderRecordERKNS_5RangeERKN7openpal6RSliceERNS_12IAPDUHandlerEEUlRSE_jE_E7ForeachERNS_8IVisitorIS3_EE,"axG",%progbits,_ZNK8opendnp318BufferedCollectionINS_7IndexedINS_13FrozenCounterEEEZNS_11RangeParser13InvokeRangeOfINS_11Group21Var1EEEvRKNS_12HeaderRecordERKNS_5RangeERKN7openpal6RSliceERNS_12IAPDUHandlerEEUlRSE_jE_E7ForeachERNS_8IVisitorIS3_EE,comdat
	.align	2
	.weak	_ZNK8opendnp318BufferedCollectionINS_7IndexedINS_13FrozenCounterEEEZNS_11RangeParser13InvokeRangeOfINS_11Group21Var1EEEvRKNS_12HeaderRecordERKNS_5RangeERKN7openpal6RSliceERNS_12IAPDUHandlerEEUlRSE_jE_E7ForeachERNS_8IVisitorIS3_EE
	.syntax unified
	.arm
	.fpu vfp
	.type	_ZNK8opendnp318BufferedCollectionINS_7IndexedINS_13FrozenCounterEEEZNS_11RangeParser13InvokeRangeOfINS_11Group21Var1EEEvRKNS_12HeaderRecordERKNS_5RangeERKN7openpal6RSliceERNS_12IAPDUHandlerEEUlRSE_jE_E7ForeachERNS_8IVisitorIS3_EE, %function
_ZNK8opendnp318BufferedCollectionINS_7IndexedINS_13FrozenCounterEEEZNS_11RangeParser13InvokeRangeOfINS_11Group21Var1EEEvRKNS_12HeaderRecordERKNS_5RangeERKN7openpal6RSliceERNS_12IAPDUHandlerEEUlRSE_jE_E7ForeachERNS_8IVisitorIS3_EE:
	.fnstart
.LFB3499:
	@ args = 0, pretend = 0, frame = 72
	@ frame_needed = 0, uses_anonymous_args = 0
	push	{r4, r5, r6, r7, r8, r9, r10, lr}
	.save {r4, r5, r6, r7, r8, r9, r10, lr}
	mov	r6, r0
	.pad #72
	sub	sp, sp, #72
	ldr	r3, [r0, #12]
	mov	r7, r1
	ldmib	r0, {r0, r1}
	add	r2, sp, #8
	cmp	r3, #0
	str	r2, [sp, #4]
	stm	r2, {r0, r1}
	beq	.L184
	mov	r4, #0
	add	r5, sp, #16
	add	r8, sp, #40
.L187:
	ldr	r3, [r7]
	mov	r0, r5
	ldr	r9, [r3]
	bl	_ZN8opendnp313FrozenCounterC1Ev(PLT)
	mov	r1, r5
	ldr	r0, [sp, #4]
	bl	_ZN8opendnp311Group21Var110ReadTargetERN7openpal6RSliceERNS_13FrozenCounterE(PLT)
	mov	lr, r5
	mov	ip, r8
	ldmia	lr!, {r0, r1, r2, r3}
	ldrh	r10, [r6, #16]
	stmia	ip!, {r0, r1, r2, r3}
	add	r10, r10, r4
	ldm	lr, {r0, r1}
	strh	r10, [sp, #64]	@ movhi
	add	r4, r4, #1
	stm	ip, {r0, r1}
	mov	r1, r8
	mov	r0, r7
	blx	r9
	ldr	r3, [r6, #12]
	cmp	r3, r4
	bhi	.L187
.L184:
	add	sp, sp, #72
	@ sp needed
	pop	{r4, r5, r6, r7, r8, r9, r10, pc}
	.fnend
	.size	_ZNK8opendnp318BufferedCollectionINS_7IndexedINS_13FrozenCounterEEEZNS_11RangeParser13InvokeRangeOfINS_11Group21Var1EEEvRKNS_12HeaderRecordERKNS_5RangeERKN7openpal6RSliceERNS_12IAPDUHandlerEEUlRSE_jE_E7ForeachERNS_8IVisitorIS3_EE, .-_ZNK8opendnp318BufferedCollectionINS_7IndexedINS_13FrozenCounterEEEZNS_11RangeParser13InvokeRangeOfINS_11Group21Var1EEEvRKNS_12HeaderRecordERKNS_5RangeERKN7openpal6RSliceERNS_12IAPDUHandlerEEUlRSE_jE_E7ForeachERNS_8IVisitorIS3_EE
	.section	.text._ZNK8opendnp318BufferedCollectionINS_7IndexedINS_13FrozenCounterEEEZNS_11RangeParser13InvokeRangeOfINS_11Group21Var2EEEvRKNS_12HeaderRecordERKNS_5RangeERKN7openpal6RSliceERNS_12IAPDUHandlerEEUlRSE_jE_E7ForeachERNS_8IVisitorIS3_EE,"axG",%progbits,_ZNK8opendnp318BufferedCollectionINS_7IndexedINS_13FrozenCounterEEEZNS_11RangeParser13InvokeRangeOfINS_11Group21Var2EEEvRKNS_12HeaderRecordERKNS_5RangeERKN7openpal6RSliceERNS_12IAPDUHandlerEEUlRSE_jE_E7ForeachERNS_8IVisitorIS3_EE,comdat
	.align	2
	.weak	_ZNK8opendnp318BufferedCollectionINS_7IndexedINS_13FrozenCounterEEEZNS_11RangeParser13InvokeRangeOfINS_11Group21Var2EEEvRKNS_12HeaderRecordERKNS_5RangeERKN7openpal6RSliceERNS_12IAPDUHandlerEEUlRSE_jE_E7ForeachERNS_8IVisitorIS3_EE
	.syntax unified
	.arm
	.fpu vfp
	.type	_ZNK8opendnp318BufferedCollectionINS_7IndexedINS_13FrozenCounterEEEZNS_11RangeParser13InvokeRangeOfINS_11Group21Var2EEEvRKNS_12HeaderRecordERKNS_5RangeERKN7openpal6RSliceERNS_12IAPDUHandlerEEUlRSE_jE_E7ForeachERNS_8IVisitorIS3_EE, %function
_ZNK8opendnp318BufferedCollectionINS_7IndexedINS_13FrozenCounterEEEZNS_11RangeParser13InvokeRangeOfINS_11Group21Var2EEEvRKNS_12HeaderRecordERKNS_5RangeERKN7openpal6RSliceERNS_12IAPDUHandlerEEUlRSE_jE_E7ForeachERNS_8IVisitorIS3_EE:
	.fnstart
.LFB3497:
	@ args = 0, pretend = 0, frame = 64
	@ frame_needed = 0, uses_anonymous_args = 0
	push	{r4, r5, r6, r7, r8, r9, r10, fp, lr}
	.save {r4, r5, r6, r7, r8, r9, r10, fp, lr}
	mov	r6, r0
	ldr	r3, [r0, #12]
	mov	r7, r1
	ldmib	r0, {r0, r1}
	.pad #68
	sub	sp, sp, #68
	cmp	r3, #0
	stm	sp, {r0, r1}
	beq	.L189
	mov	r10, sp
	mov	r4, #0
	add	r5, sp, #8
	add	r8, sp, #32
.L192:
	ldr	r3, [r7]
	mov	r0, r5
	ldr	r9, [r3]
	bl	_ZN8opendnp313FrozenCounterC1Ev(PLT)
	mov	r1, r5
	mov	r0, r10
	bl	_ZN8opendnp311Group21Var210ReadTargetERN7openpal6RSliceERNS_13FrozenCounterE(PLT)
	mov	lr, r5
	mov	ip, r8
	ldmia	lr!, {r0, r1, r2, r3}
	ldrh	fp, [r6, #16]
	stmia	ip!, {r0, r1, r2, r3}
	add	fp, fp, r4
	ldm	lr, {r0, r1}
	strh	fp, [sp, #56]	@ movhi
	add	r4, r4, #1
	stm	ip, {r0, r1}
	mov	r1, r8
	mov	r0, r7
	blx	r9
	ldr	r3, [r6, #12]
	cmp	r3, r4
	bhi	.L192
.L189:
	add	sp, sp, #68
	@ sp needed
	pop	{r4, r5, r6, r7, r8, r9, r10, fp, pc}
	.fnend
	.size	_ZNK8opendnp318BufferedCollectionINS_7IndexedINS_13FrozenCounterEEEZNS_11RangeParser13InvokeRangeOfINS_11Group21Var2EEEvRKNS_12HeaderRecordERKNS_5RangeERKN7openpal6RSliceERNS_12IAPDUHandlerEEUlRSE_jE_E7ForeachERNS_8IVisitorIS3_EE, .-_ZNK8opendnp318BufferedCollectionINS_7IndexedINS_13FrozenCounterEEEZNS_11RangeParser13InvokeRangeOfINS_11Group21Var2EEEvRKNS_12HeaderRecordERKNS_5RangeERKN7openpal6RSliceERNS_12IAPDUHandlerEEUlRSE_jE_E7ForeachERNS_8IVisitorIS3_EE
	.section	.text._ZNK8opendnp318BufferedCollectionINS_7IndexedINS_13FrozenCounterEEEZNS_11RangeParser13InvokeRangeOfINS_11Group21Var5EEEvRKNS_12HeaderRecordERKNS_5RangeERKN7openpal6RSliceERNS_12IAPDUHandlerEEUlRSE_jE_E7ForeachERNS_8IVisitorIS3_EE,"axG",%progbits,_ZNK8opendnp318BufferedCollectionINS_7IndexedINS_13FrozenCounterEEEZNS_11RangeParser13InvokeRangeOfINS_11Group21Var5EEEvRKNS_12HeaderRecordERKNS_5RangeERKN7openpal6RSliceERNS_12IAPDUHandlerEEUlRSE_jE_E7ForeachERNS_8IVisitorIS3_EE,comdat
	.align	2
	.weak	_ZNK8opendnp318BufferedCollectionINS_7IndexedINS_13FrozenCounterEEEZNS_11RangeParser13InvokeRangeOfINS_11Group21Var5EEEvRKNS_12HeaderRecordERKNS_5RangeERKN7openpal6RSliceERNS_12IAPDUHandlerEEUlRSE_jE_E7ForeachERNS_8IVisitorIS3_EE
	.syntax unified
	.arm
	.fpu vfp
	.type	_ZNK8opendnp318BufferedCollectionINS_7IndexedINS_13FrozenCounterEEEZNS_11RangeParser13InvokeRangeOfINS_11Group21Var5EEEvRKNS_12HeaderRecordERKNS_5RangeERKN7openpal6RSliceERNS_12IAPDUHandlerEEUlRSE_jE_E7ForeachERNS_8IVisitorIS3_EE, %function
_ZNK8opendnp318BufferedCollectionINS_7IndexedINS_13FrozenCounterEEEZNS_11RangeParser13InvokeRangeOfINS_11Group21Var5EEEvRKNS_12HeaderRecordERKNS_5RangeERKN7openpal6RSliceERNS_12IAPDUHandlerEEUlRSE_jE_E7ForeachERNS_8IVisitorIS3_EE:
	.fnstart
.LFB3495:
	@ args = 0, pretend = 0, frame = 64
	@ frame_needed = 0, uses_anonymous_args = 0
	push	{r4, r5, r6, r7, r8, r9, r10, fp, lr}
	.save {r4, r5, r6, r7, r8, r9, r10, fp, lr}
	mov	r6, r0
	ldr	r3, [r0, #12]
	mov	r7, r1
	ldmib	r0, {r0, r1}
	.pad #68
	sub	sp, sp, #68
	cmp	r3, #0
	stm	sp, {r0, r1}
	beq	.L194
	mov	r10, sp
	mov	r4, #0
	add	r5, sp, #8
	add	r8, sp, #32
.L197:
	ldr	r3, [r7]
	mov	r0, r5
	ldr	r9, [r3]
	bl	_ZN8opendnp313FrozenCounterC1Ev(PLT)
	mov	r1, r5
	mov	r0, r10
	bl	_ZN8opendnp311Group21Var510ReadTargetERN7openpal6RSliceERNS_13FrozenCounterE(PLT)
	mov	lr, r5
	mov	ip, r8
	ldmia	lr!, {r0, r1, r2, r3}
	ldrh	fp, [r6, #16]
	stmia	ip!, {r0, r1, r2, r3}
	add	fp, fp, r4
	ldm	lr, {r0, r1}
	strh	fp, [sp, #56]	@ movhi
	add	r4, r4, #1
	stm	ip, {r0, r1}
	mov	r1, r8
	mov	r0, r7
	blx	r9
	ldr	r3, [r6, #12]
	cmp	r3, r4
	bhi	.L197
.L194:
	add	sp, sp, #68
	@ sp needed
	pop	{r4, r5, r6, r7, r8, r9, r10, fp, pc}
	.fnend
	.size	_ZNK8opendnp318BufferedCollectionINS_7IndexedINS_13FrozenCounterEEEZNS_11RangeParser13InvokeRangeOfINS_11Group21Var5EEEvRKNS_12HeaderRecordERKNS_5RangeERKN7openpal6RSliceERNS_12IAPDUHandlerEEUlRSE_jE_E7ForeachERNS_8IVisitorIS3_EE, .-_ZNK8opendnp318BufferedCollectionINS_7IndexedINS_13FrozenCounterEEEZNS_11RangeParser13InvokeRangeOfINS_11Group21Var5EEEvRKNS_12HeaderRecordERKNS_5RangeERKN7openpal6RSliceERNS_12IAPDUHandlerEEUlRSE_jE_E7ForeachERNS_8IVisitorIS3_EE
	.section	.text._ZNK8opendnp318BufferedCollectionINS_7IndexedINS_13FrozenCounterEEEZNS_11RangeParser13InvokeRangeOfINS_11Group21Var6EEEvRKNS_12HeaderRecordERKNS_5RangeERKN7openpal6RSliceERNS_12IAPDUHandlerEEUlRSE_jE_E7ForeachERNS_8IVisitorIS3_EE,"axG",%progbits,_ZNK8opendnp318BufferedCollectionINS_7IndexedINS_13FrozenCounterEEEZNS_11RangeParser13InvokeRangeOfINS_11Group21Var6EEEvRKNS_12HeaderRecordERKNS_5RangeERKN7openpal6RSliceERNS_12IAPDUHandlerEEUlRSE_jE_E7ForeachERNS_8IVisitorIS3_EE,comdat
	.align	2
	.weak	_ZNK8opendnp318BufferedCollectionINS_7IndexedINS_13FrozenCounterEEEZNS_11RangeParser13InvokeRangeOfINS_11Group21Var6EEEvRKNS_12HeaderRecordERKNS_5RangeERKN7openpal6RSliceERNS_12IAPDUHandlerEEUlRSE_jE_E7ForeachERNS_8IVisitorIS3_EE
	.syntax unified
	.arm
	.fpu vfp
	.type	_ZNK8opendnp318BufferedCollectionINS_7IndexedINS_13FrozenCounterEEEZNS_11RangeParser13InvokeRangeOfINS_11Group21Var6EEEvRKNS_12HeaderRecordERKNS_5RangeERKN7openpal6RSliceERNS_12IAPDUHandlerEEUlRSE_jE_E7ForeachERNS_8IVisitorIS3_EE, %function
_ZNK8opendnp318BufferedCollectionINS_7IndexedINS_13FrozenCounterEEEZNS_11RangeParser13InvokeRangeOfINS_11Group21Var6EEEvRKNS_12HeaderRecordERKNS_5RangeERKN7openpal6RSliceERNS_12IAPDUHandlerEEUlRSE_jE_E7ForeachERNS_8IVisitorIS3_EE:
	.fnstart
.LFB3493:
	@ args = 0, pretend = 0, frame = 64
	@ frame_needed = 0, uses_anonymous_args = 0
	push	{r4, r5, r6, r7, r8, r9, r10, fp, lr}
	.save {r4, r5, r6, r7, r8, r9, r10, fp, lr}
	mov	r6, r0
	ldr	r3, [r0, #12]
	mov	r7, r1
	ldmib	r0, {r0, r1}
	.pad #68
	sub	sp, sp, #68
	cmp	r3, #0
	stm	sp, {r0, r1}
	beq	.L199
	mov	r10, sp
	mov	r4, #0
	add	r5, sp, #8
	add	r8, sp, #32
.L202:
	ldr	r3, [r7]
	mov	r0, r5
	ldr	r9, [r3]
	bl	_ZN8opendnp313FrozenCounterC1Ev(PLT)
	mov	r1, r5
	mov	r0, r10
	bl	_ZN8opendnp311Group21Var610ReadTargetERN7openpal6RSliceERNS_13FrozenCounterE(PLT)
	mov	lr, r5
	mov	ip, r8
	ldmia	lr!, {r0, r1, r2, r3}
	ldrh	fp, [r6, #16]
	stmia	ip!, {r0, r1, r2, r3}
	add	fp, fp, r4
	ldm	lr, {r0, r1}
	strh	fp, [sp, #56]	@ movhi
	add	r4, r4, #1
	stm	ip, {r0, r1}
	mov	r1, r8
	mov	r0, r7
	blx	r9
	ldr	r3, [r6, #12]
	cmp	r3, r4
	bhi	.L202
.L199:
	add	sp, sp, #68
	@ sp needed
	pop	{r4, r5, r6, r7, r8, r9, r10, fp, pc}
	.fnend
	.size	_ZNK8opendnp318BufferedCollectionINS_7IndexedINS_13FrozenCounterEEEZNS_11RangeParser13InvokeRangeOfINS_11Group21Var6EEEvRKNS_12HeaderRecordERKNS_5RangeERKN7openpal6RSliceERNS_12IAPDUHandlerEEUlRSE_jE_E7ForeachERNS_8IVisitorIS3_EE, .-_ZNK8opendnp318BufferedCollectionINS_7IndexedINS_13FrozenCounterEEEZNS_11RangeParser13InvokeRangeOfINS_11Group21Var6EEEvRKNS_12HeaderRecordERKNS_5RangeERKN7openpal6RSliceERNS_12IAPDUHandlerEEUlRSE_jE_E7ForeachERNS_8IVisitorIS3_EE
	.section	.text._ZNK8opendnp318BufferedCollectionINS_7IndexedINS_13FrozenCounterEEEZNS_11RangeParser13InvokeRangeOfINS_11Group21Var9EEEvRKNS_12HeaderRecordERKNS_5RangeERKN7openpal6RSliceERNS_12IAPDUHandlerEEUlRSE_jE_E7ForeachERNS_8IVisitorIS3_EE,"axG",%progbits,_ZNK8opendnp318BufferedCollectionINS_7IndexedINS_13FrozenCounterEEEZNS_11RangeParser13InvokeRangeOfINS_11Group21Var9EEEvRKNS_12HeaderRecordERKNS_5RangeERKN7openpal6RSliceERNS_12IAPDUHandlerEEUlRSE_jE_E7ForeachERNS_8IVisitorIS3_EE,comdat
	.align	2
	.weak	_ZNK8opendnp318BufferedCollectionINS_7IndexedINS_13FrozenCounterEEEZNS_11RangeParser13InvokeRangeOfINS_11Group21Var9EEEvRKNS_12HeaderRecordERKNS_5RangeERKN7openpal6RSliceERNS_12IAPDUHandlerEEUlRSE_jE_E7ForeachERNS_8IVisitorIS3_EE
	.syntax unified
	.arm
	.fpu vfp
	.type	_ZNK8opendnp318BufferedCollectionINS_7IndexedINS_13FrozenCounterEEEZNS_11RangeParser13InvokeRangeOfINS_11Group21Var9EEEvRKNS_12HeaderRecordERKNS_5RangeERKN7openpal6RSliceERNS_12IAPDUHandlerEEUlRSE_jE_E7ForeachERNS_8IVisitorIS3_EE, %function
_ZNK8opendnp318BufferedCollectionINS_7IndexedINS_13FrozenCounterEEEZNS_11RangeParser13InvokeRangeOfINS_11Group21Var9EEEvRKNS_12HeaderRecordERKNS_5RangeERKN7openpal6RSliceERNS_12IAPDUHandlerEEUlRSE_jE_E7ForeachERNS_8IVisitorIS3_EE:
	.fnstart
.LFB3491:
	@ args = 0, pretend = 0, frame = 64
	@ frame_needed = 0, uses_anonymous_args = 0
	push	{r4, r5, r6, r7, r8, r9, r10, fp, lr}
	.save {r4, r5, r6, r7, r8, r9, r10, fp, lr}
	mov	r6, r0
	ldr	r3, [r0, #12]
	mov	r7, r1
	ldmib	r0, {r0, r1}
	.pad #68
	sub	sp, sp, #68
	cmp	r3, #0
	stm	sp, {r0, r1}
	beq	.L204
	mov	r10, sp
	mov	r4, #0
	add	r5, sp, #8
	add	r8, sp, #32
.L207:
	ldr	r3, [r7]
	mov	r0, r5
	ldr	r9, [r3]
	bl	_ZN8opendnp313FrozenCounterC1Ev(PLT)
	mov	r1, r5
	mov	r0, r10
	bl	_ZN8opendnp311Group21Var910ReadTargetERN7openpal6RSliceERNS_13FrozenCounterE(PLT)
	mov	lr, r5
	mov	ip, r8
	ldmia	lr!, {r0, r1, r2, r3}
	ldrh	fp, [r6, #16]
	stmia	ip!, {r0, r1, r2, r3}
	add	fp, fp, r4
	ldm	lr, {r0, r1}
	strh	fp, [sp, #56]	@ movhi
	add	r4, r4, #1
	stm	ip, {r0, r1}
	mov	r1, r8
	mov	r0, r7
	blx	r9
	ldr	r3, [r6, #12]
	cmp	r3, r4
	bhi	.L207
.L204:
	add	sp, sp, #68
	@ sp needed
	pop	{r4, r5, r6, r7, r8, r9, r10, fp, pc}
	.fnend
	.size	_ZNK8opendnp318BufferedCollectionINS_7IndexedINS_13FrozenCounterEEEZNS_11RangeParser13InvokeRangeOfINS_11Group21Var9EEEvRKNS_12HeaderRecordERKNS_5RangeERKN7openpal6RSliceERNS_12IAPDUHandlerEEUlRSE_jE_E7ForeachERNS_8IVisitorIS3_EE, .-_ZNK8opendnp318BufferedCollectionINS_7IndexedINS_13FrozenCounterEEEZNS_11RangeParser13InvokeRangeOfINS_11Group21Var9EEEvRKNS_12HeaderRecordERKNS_5RangeERKN7openpal6RSliceERNS_12IAPDUHandlerEEUlRSE_jE_E7ForeachERNS_8IVisitorIS3_EE
	.section	.text._ZNK8opendnp318BufferedCollectionINS_7IndexedINS_13FrozenCounterEEEZNS_11RangeParser13InvokeRangeOfINS_12Group21Var10EEEvRKNS_12HeaderRecordERKNS_5RangeERKN7openpal6RSliceERNS_12IAPDUHandlerEEUlRSE_jE_E7ForeachERNS_8IVisitorIS3_EE,"axG",%progbits,_ZNK8opendnp318BufferedCollectionINS_7IndexedINS_13FrozenCounterEEEZNS_11RangeParser13InvokeRangeOfINS_12Group21Var10EEEvRKNS_12HeaderRecordERKNS_5RangeERKN7openpal6RSliceERNS_12IAPDUHandlerEEUlRSE_jE_E7ForeachERNS_8IVisitorIS3_EE,comdat
	.align	2
	.weak	_ZNK8opendnp318BufferedCollectionINS_7IndexedINS_13FrozenCounterEEEZNS_11RangeParser13InvokeRangeOfINS_12Group21Var10EEEvRKNS_12HeaderRecordERKNS_5RangeERKN7openpal6RSliceERNS_12IAPDUHandlerEEUlRSE_jE_E7ForeachERNS_8IVisitorIS3_EE
	.syntax unified
	.arm
	.fpu vfp
	.type	_ZNK8opendnp318BufferedCollectionINS_7IndexedINS_13FrozenCounterEEEZNS_11RangeParser13InvokeRangeOfINS_12Group21Var10EEEvRKNS_12HeaderRecordERKNS_5RangeERKN7openpal6RSliceERNS_12IAPDUHandlerEEUlRSE_jE_E7ForeachERNS_8IVisitorIS3_EE, %function
_ZNK8opendnp318BufferedCollectionINS_7IndexedINS_13FrozenCounterEEEZNS_11RangeParser13InvokeRangeOfINS_12Group21Var10EEEvRKNS_12HeaderRecordERKNS_5RangeERKN7openpal6RSliceERNS_12IAPDUHandlerEEUlRSE_jE_E7ForeachERNS_8IVisitorIS3_EE:
	.fnstart
.LFB3489:
	@ args = 0, pretend = 0, frame = 64
	@ frame_needed = 0, uses_anonymous_args = 0
	push	{r4, r5, r6, r7, r8, r9, r10, fp, lr}
	.save {r4, r5, r6, r7, r8, r9, r10, fp, lr}
	mov	r6, r0
	ldr	r3, [r0, #12]
	mov	r7, r1
	ldmib	r0, {r0, r1}
	.pad #68
	sub	sp, sp, #68
	cmp	r3, #0
	stm	sp, {r0, r1}
	beq	.L209
	mov	r10, sp
	mov	r4, #0
	add	r5, sp, #8
	add	r8, sp, #32
.L212:
	ldr	r3, [r7]
	mov	r0, r5
	ldr	r9, [r3]
	bl	_ZN8opendnp313FrozenCounterC1Ev(PLT)
	mov	r1, r5
	mov	r0, r10
	bl	_ZN8opendnp312Group21Var1010ReadTargetERN7openpal6RSliceERNS_13FrozenCounterE(PLT)
	mov	lr, r5
	mov	ip, r8
	ldmia	lr!, {r0, r1, r2, r3}
	ldrh	fp, [r6, #16]
	stmia	ip!, {r0, r1, r2, r3}
	add	fp, fp, r4
	ldm	lr, {r0, r1}
	strh	fp, [sp, #56]	@ movhi
	add	r4, r4, #1
	stm	ip, {r0, r1}
	mov	r1, r8
	mov	r0, r7
	blx	r9
	ldr	r3, [r6, #12]
	cmp	r3, r4
	bhi	.L212
.L209:
	add	sp, sp, #68
	@ sp needed
	pop	{r4, r5, r6, r7, r8, r9, r10, fp, pc}
	.fnend
	.size	_ZNK8opendnp318BufferedCollectionINS_7IndexedINS_13FrozenCounterEEEZNS_11RangeParser13InvokeRangeOfINS_12Group21Var10EEEvRKNS_12HeaderRecordERKNS_5RangeERKN7openpal6RSliceERNS_12IAPDUHandlerEEUlRSE_jE_E7ForeachERNS_8IVisitorIS3_EE, .-_ZNK8opendnp318BufferedCollectionINS_7IndexedINS_13FrozenCounterEEEZNS_11RangeParser13InvokeRangeOfINS_12Group21Var10EEEvRKNS_12HeaderRecordERKNS_5RangeERKN7openpal6RSliceERNS_12IAPDUHandlerEEUlRSE_jE_E7ForeachERNS_8IVisitorIS3_EE
	.section	.text._ZN8opendnp311RangeParser13InvokeRangeOfINS_11Group30Var1EEEvRKNS_12HeaderRecordERKNS_5RangeERKN7openpal6RSliceERNS_12IAPDUHandlerE,"axG",%progbits,_ZN8opendnp311RangeParser13InvokeRangeOfINS_11Group30Var1EEEvRKNS_12HeaderRecordERKNS_5RangeERKN7openpal6RSliceERNS_12IAPDUHandlerE,comdat
	.align	2
	.weak	_ZN8opendnp311RangeParser13InvokeRangeOfINS_11Group30Var1EEEvRKNS_12HeaderRecordERKNS_5RangeERKN7openpal6RSliceERNS_12IAPDUHandlerE
	.syntax unified
	.arm
	.fpu vfp
	.type	_ZN8opendnp311RangeParser13InvokeRangeOfINS_11Group30Var1EEEvRKNS_12HeaderRecordERKNS_5RangeERKN7openpal6RSliceERNS_12IAPDUHandlerE, %function
_ZN8opendnp311RangeParser13InvokeRangeOfINS_11Group30Var1EEEvRKNS_12HeaderRecordERKNS_5RangeERKN7openpal6RSliceERNS_12IAPDUHandlerE:
	.fnstart
.LFB2929:
	@ args = 0, pretend = 0, frame = 40
	@ frame_needed = 0, uses_anonymous_args = 0
	push	{r4, r5, r6, r7, r8, lr}
	.save {r4, r5, r6, r7, r8, lr}
	mov	r8, r3
	ldr	r4, .L218
	ldr	r3, .L218+4
.LPIC16:
	add	r4, pc, r4
	.pad #40
	sub	sp, sp, #40
	ldrh	r6, [r1]
	ldrh	r5, [r1, #2]
	mov	lr, r1
	mov	ip, r0
	ldm	r2, {r0, r1}
	ldr	r4, [r4, r3]
	add	r3, sp, #4
	cmp	r6, r5
	stm	r3, {r0, r1}
	ldm	ip, {r0, r1, r2, r3}
	add	ip, r4, #8
	str	ip, [sp]
	add	ip, sp, #20
	addle	r7, r5, #1
	stm	ip, {r0, r1, r2, r3}
	suble	r7, r7, r6
	ldr	r0, [lr]	@ unaligned
	movgt	r7, #0
	str	r0, [sp, #36]
	mov	r1, ip
	mov	r2, sp
	mov	r0, r8
	str	r7, [sp, #12]
	strh	r6, [sp, #16]	@ movhi
	strh	r5, [sp, #18]	@ movhi
	bl	_ZN8opendnp312IAPDUHandler8OnHeaderERKNS_11RangeHeaderERKNS_11ICollectionINS_7IndexedINS_6AnalogEEEEE(PLT)
	add	sp, sp, #40
	@ sp needed
	pop	{r4, r5, r6, r7, r8, pc}
.L219:
	.align	2
.L218:
	.word	_GLOBAL_OFFSET_TABLE_-(.LPIC16+8)
	.word	_ZTVN8opendnp318BufferedCollectionINS_7IndexedINS_6AnalogEEEZNS_11RangeParser13InvokeRangeOfINS_11Group30Var1EEEvRKNS_12HeaderRecordERKNS_5RangeERKN7openpal6RSliceERNS_12IAPDUHandlerEEUlRSE_jE_EE(GOT)
	.fnend
	.size	_ZN8opendnp311RangeParser13InvokeRangeOfINS_11Group30Var1EEEvRKNS_12HeaderRecordERKNS_5RangeERKN7openpal6RSliceERNS_12IAPDUHandlerE, .-_ZN8opendnp311RangeParser13InvokeRangeOfINS_11Group30Var1EEEvRKNS_12HeaderRecordERKNS_5RangeERKN7openpal6RSliceERNS_12IAPDUHandlerE
	.section	.text._ZN8opendnp311RangeParser13InvokeRangeOfINS_11Group30Var2EEEvRKNS_12HeaderRecordERKNS_5RangeERKN7openpal6RSliceERNS_12IAPDUHandlerE,"axG",%progbits,_ZN8opendnp311RangeParser13InvokeRangeOfINS_11Group30Var2EEEvRKNS_12HeaderRecordERKNS_5RangeERKN7openpal6RSliceERNS_12IAPDUHandlerE,comdat
	.align	2
	.weak	_ZN8opendnp311RangeParser13InvokeRangeOfINS_11Group30Var2EEEvRKNS_12HeaderRecordERKNS_5RangeERKN7openpal6RSliceERNS_12IAPDUHandlerE
	.syntax unified
	.arm
	.fpu vfp
	.type	_ZN8opendnp311RangeParser13InvokeRangeOfINS_11Group30Var2EEEvRKNS_12HeaderRecordERKNS_5RangeERKN7openpal6RSliceERNS_12IAPDUHandlerE, %function
_ZN8opendnp311RangeParser13InvokeRangeOfINS_11Group30Var2EEEvRKNS_12HeaderRecordERKNS_5RangeERKN7openpal6RSliceERNS_12IAPDUHandlerE:
	.fnstart
.LFB2937:
	@ args = 0, pretend = 0, frame = 40
	@ frame_needed = 0, uses_anonymous_args = 0
	push	{r4, r5, r6, r7, r8, lr}
	.save {r4, r5, r6, r7, r8, lr}
	mov	r8, r3
	ldr	r4, .L224
	ldr	r3, .L224+4
.LPIC17:
	add	r4, pc, r4
	.pad #40
	sub	sp, sp, #40
	ldrh	r6, [r1]
	ldrh	r5, [r1, #2]
	mov	lr, r1
	mov	ip, r0
	ldm	r2, {r0, r1}
	ldr	r4, [r4, r3]
	add	r3, sp, #4
	cmp	r6, r5
	stm	r3, {r0, r1}
	ldm	ip, {r0, r1, r2, r3}
	add	ip, r4, #8
	str	ip, [sp]
	add	ip, sp, #20
	addle	r7, r5, #1
	stm	ip, {r0, r1, r2, r3}
	suble	r7, r7, r6
	ldr	r0, [lr]	@ unaligned
	movgt	r7, #0
	str	r0, [sp, #36]
	mov	r1, ip
	mov	r2, sp
	mov	r0, r8
	str	r7, [sp, #12]
	strh	r6, [sp, #16]	@ movhi
	strh	r5, [sp, #18]	@ movhi
	bl	_ZN8opendnp312IAPDUHandler8OnHeaderERKNS_11RangeHeaderERKNS_11ICollectionINS_7IndexedINS_6AnalogEEEEE(PLT)
	add	sp, sp, #40
	@ sp needed
	pop	{r4, r5, r6, r7, r8, pc}
.L225:
	.align	2
.L224:
	.word	_GLOBAL_OFFSET_TABLE_-(.LPIC17+8)
	.word	_ZTVN8opendnp318BufferedCollectionINS_7IndexedINS_6AnalogEEEZNS_11RangeParser13InvokeRangeOfINS_11Group30Var2EEEvRKNS_12HeaderRecordERKNS_5RangeERKN7openpal6RSliceERNS_12IAPDUHandlerEEUlRSE_jE_EE(GOT)
	.fnend
	.size	_ZN8opendnp311RangeParser13InvokeRangeOfINS_11Group30Var2EEEvRKNS_12HeaderRecordERKNS_5RangeERKN7openpal6RSliceERNS_12IAPDUHandlerE, .-_ZN8opendnp311RangeParser13InvokeRangeOfINS_11Group30Var2EEEvRKNS_12HeaderRecordERKNS_5RangeERKN7openpal6RSliceERNS_12IAPDUHandlerE
	.section	.text._ZN8opendnp311RangeParser13InvokeRangeOfINS_11Group30Var3EEEvRKNS_12HeaderRecordERKNS_5RangeERKN7openpal6RSliceERNS_12IAPDUHandlerE,"axG",%progbits,_ZN8opendnp311RangeParser13InvokeRangeOfINS_11Group30Var3EEEvRKNS_12HeaderRecordERKNS_5RangeERKN7openpal6RSliceERNS_12IAPDUHandlerE,comdat
	.align	2
	.weak	_ZN8opendnp311RangeParser13InvokeRangeOfINS_11Group30Var3EEEvRKNS_12HeaderRecordERKNS_5RangeERKN7openpal6RSliceERNS_12IAPDUHandlerE
	.syntax unified
	.arm
	.fpu vfp
	.type	_ZN8opendnp311RangeParser13InvokeRangeOfINS_11Group30Var3EEEvRKNS_12HeaderRecordERKNS_5RangeERKN7openpal6RSliceERNS_12IAPDUHandlerE, %function
_ZN8opendnp311RangeParser13InvokeRangeOfINS_11Group30Var3EEEvRKNS_12HeaderRecordERKNS_5RangeERKN7openpal6RSliceERNS_12IAPDUHandlerE:
	.fnstart
.LFB2942:
	@ args = 0, pretend = 0, frame = 40
	@ frame_needed = 0, uses_anonymous_args = 0
	push	{r4, r5, r6, r7, r8, lr}
	.save {r4, r5, r6, r7, r8, lr}
	mov	r8, r3
	ldr	r4, .L230
	ldr	r3, .L230+4
.LPIC18:
	add	r4, pc, r4
	.pad #40
	sub	sp, sp, #40
	ldrh	r6, [r1]
	ldrh	r5, [r1, #2]
	mov	lr, r1
	mov	ip, r0
	ldm	r2, {r0, r1}
	ldr	r4, [r4, r3]
	add	r3, sp, #4
	cmp	r6, r5
	stm	r3, {r0, r1}
	ldm	ip, {r0, r1, r2, r3}
	add	ip, r4, #8
	str	ip, [sp]
	add	ip, sp, #20
	addle	r7, r5, #1
	stm	ip, {r0, r1, r2, r3}
	suble	r7, r7, r6
	ldr	r0, [lr]	@ unaligned
	movgt	r7, #0
	str	r0, [sp, #36]
	mov	r1, ip
	mov	r2, sp
	mov	r0, r8
	str	r7, [sp, #12]
	strh	r6, [sp, #16]	@ movhi
	strh	r5, [sp, #18]	@ movhi
	bl	_ZN8opendnp312IAPDUHandler8OnHeaderERKNS_11RangeHeaderERKNS_11ICollectionINS_7IndexedINS_6AnalogEEEEE(PLT)
	add	sp, sp, #40
	@ sp needed
	pop	{r4, r5, r6, r7, r8, pc}
.L231:
	.align	2
.L230:
	.word	_GLOBAL_OFFSET_TABLE_-(.LPIC18+8)
	.word	_ZTVN8opendnp318BufferedCollectionINS_7IndexedINS_6AnalogEEEZNS_11RangeParser13InvokeRangeOfINS_11Group30Var3EEEvRKNS_12HeaderRecordERKNS_5RangeERKN7openpal6RSliceERNS_12IAPDUHandlerEEUlRSE_jE_EE(GOT)
	.fnend
	.size	_ZN8opendnp311RangeParser13InvokeRangeOfINS_11Group30Var3EEEvRKNS_12HeaderRecordERKNS_5RangeERKN7openpal6RSliceERNS_12IAPDUHandlerE, .-_ZN8opendnp311RangeParser13InvokeRangeOfINS_11Group30Var3EEEvRKNS_12HeaderRecordERKNS_5RangeERKN7openpal6RSliceERNS_12IAPDUHandlerE
	.section	.text._ZN8opendnp311RangeParser13InvokeRangeOfINS_11Group30Var4EEEvRKNS_12HeaderRecordERKNS_5RangeERKN7openpal6RSliceERNS_12IAPDUHandlerE,"axG",%progbits,_ZN8opendnp311RangeParser13InvokeRangeOfINS_11Group30Var4EEEvRKNS_12HeaderRecordERKNS_5RangeERKN7openpal6RSliceERNS_12IAPDUHandlerE,comdat
	.align	2
	.weak	_ZN8opendnp311RangeParser13InvokeRangeOfINS_11Group30Var4EEEvRKNS_12HeaderRecordERKNS_5RangeERKN7openpal6RSliceERNS_12IAPDUHandlerE
	.syntax unified
	.arm
	.fpu vfp
	.type	_ZN8opendnp311RangeParser13InvokeRangeOfINS_11Group30Var4EEEvRKNS_12HeaderRecordERKNS_5RangeERKN7openpal6RSliceERNS_12IAPDUHandlerE, %function
_ZN8opendnp311RangeParser13InvokeRangeOfINS_11Group30Var4EEEvRKNS_12HeaderRecordERKNS_5RangeERKN7openpal6RSliceERNS_12IAPDUHandlerE:
	.fnstart
.LFB2947:
	@ args = 0, pretend = 0, frame = 40
	@ frame_needed = 0, uses_anonymous_args = 0
	push	{r4, r5, r6, r7, r8, lr}
	.save {r4, r5, r6, r7, r8, lr}
	mov	r8, r3
	ldr	r4, .L236
	ldr	r3, .L236+4
.LPIC19:
	add	r4, pc, r4
	.pad #40
	sub	sp, sp, #40
	ldrh	r6, [r1]
	ldrh	r5, [r1, #2]
	mov	lr, r1
	mov	ip, r0
	ldm	r2, {r0, r1}
	ldr	r4, [r4, r3]
	add	r3, sp, #4
	cmp	r6, r5
	stm	r3, {r0, r1}
	ldm	ip, {r0, r1, r2, r3}
	add	ip, r4, #8
	str	ip, [sp]
	add	ip, sp, #20
	addle	r7, r5, #1
	stm	ip, {r0, r1, r2, r3}
	suble	r7, r7, r6
	ldr	r0, [lr]	@ unaligned
	movgt	r7, #0
	str	r0, [sp, #36]
	mov	r1, ip
	mov	r2, sp
	mov	r0, r8
	str	r7, [sp, #12]
	strh	r6, [sp, #16]	@ movhi
	strh	r5, [sp, #18]	@ movhi
	bl	_ZN8opendnp312IAPDUHandler8OnHeaderERKNS_11RangeHeaderERKNS_11ICollectionINS_7IndexedINS_6AnalogEEEEE(PLT)
	add	sp, sp, #40
	@ sp needed
	pop	{r4, r5, r6, r7, r8, pc}
.L237:
	.align	2
.L236:
	.word	_GLOBAL_OFFSET_TABLE_-(.LPIC19+8)
	.word	_ZTVN8opendnp318BufferedCollectionINS_7IndexedINS_6AnalogEEEZNS_11RangeParser13InvokeRangeOfINS_11Group30Var4EEEvRKNS_12HeaderRecordERKNS_5RangeERKN7openpal6RSliceERNS_12IAPDUHandlerEEUlRSE_jE_EE(GOT)
	.fnend
	.size	_ZN8opendnp311RangeParser13InvokeRangeOfINS_11Group30Var4EEEvRKNS_12HeaderRecordERKNS_5RangeERKN7openpal6RSliceERNS_12IAPDUHandlerE, .-_ZN8opendnp311RangeParser13InvokeRangeOfINS_11Group30Var4EEEvRKNS_12HeaderRecordERKNS_5RangeERKN7openpal6RSliceERNS_12IAPDUHandlerE
	.section	.text._ZN8opendnp311RangeParser13InvokeRangeOfINS_11Group30Var5EEEvRKNS_12HeaderRecordERKNS_5RangeERKN7openpal6RSliceERNS_12IAPDUHandlerE,"axG",%progbits,_ZN8opendnp311RangeParser13InvokeRangeOfINS_11Group30Var5EEEvRKNS_12HeaderRecordERKNS_5RangeERKN7openpal6RSliceERNS_12IAPDUHandlerE,comdat
	.align	2
	.weak	_ZN8opendnp311RangeParser13InvokeRangeOfINS_11Group30Var5EEEvRKNS_12HeaderRecordERKNS_5RangeERKN7openpal6RSliceERNS_12IAPDUHandlerE
	.syntax unified
	.arm
	.fpu vfp
	.type	_ZN8opendnp311RangeParser13InvokeRangeOfINS_11Group30Var5EEEvRKNS_12HeaderRecordERKNS_5RangeERKN7openpal6RSliceERNS_12IAPDUHandlerE, %function
_ZN8opendnp311RangeParser13InvokeRangeOfINS_11Group30Var5EEEvRKNS_12HeaderRecordERKNS_5RangeERKN7openpal6RSliceERNS_12IAPDUHandlerE:
	.fnstart
.LFB2952:
	@ args = 0, pretend = 0, frame = 40
	@ frame_needed = 0, uses_anonymous_args = 0
	push	{r4, r5, r6, r7, r8, lr}
	.save {r4, r5, r6, r7, r8, lr}
	mov	r8, r3
	ldr	r4, .L242
	ldr	r3, .L242+4
.LPIC20:
	add	r4, pc, r4
	.pad #40
	sub	sp, sp, #40
	ldrh	r6, [r1]
	ldrh	r5, [r1, #2]
	mov	lr, r1
	mov	ip, r0
	ldm	r2, {r0, r1}
	ldr	r4, [r4, r3]
	add	r3, sp, #4
	cmp	r6, r5
	stm	r3, {r0, r1}
	ldm	ip, {r0, r1, r2, r3}
	add	ip, r4, #8
	str	ip, [sp]
	add	ip, sp, #20
	addle	r7, r5, #1
	stm	ip, {r0, r1, r2, r3}
	suble	r7, r7, r6
	ldr	r0, [lr]	@ unaligned
	movgt	r7, #0
	str	r0, [sp, #36]
	mov	r1, ip
	mov	r2, sp
	mov	r0, r8
	str	r7, [sp, #12]
	strh	r6, [sp, #16]	@ movhi
	strh	r5, [sp, #18]	@ movhi
	bl	_ZN8opendnp312IAPDUHandler8OnHeaderERKNS_11RangeHeaderERKNS_11ICollectionINS_7IndexedINS_6AnalogEEEEE(PLT)
	add	sp, sp, #40
	@ sp needed
	pop	{r4, r5, r6, r7, r8, pc}
.L243:
	.align	2
.L242:
	.word	_GLOBAL_OFFSET_TABLE_-(.LPIC20+8)
	.word	_ZTVN8opendnp318BufferedCollectionINS_7IndexedINS_6AnalogEEEZNS_11RangeParser13InvokeRangeOfINS_11Group30Var5EEEvRKNS_12HeaderRecordERKNS_5RangeERKN7openpal6RSliceERNS_12IAPDUHandlerEEUlRSE_jE_EE(GOT)
	.fnend
	.size	_ZN8opendnp311RangeParser13InvokeRangeOfINS_11Group30Var5EEEvRKNS_12HeaderRecordERKNS_5RangeERKN7openpal6RSliceERNS_12IAPDUHandlerE, .-_ZN8opendnp311RangeParser13InvokeRangeOfINS_11Group30Var5EEEvRKNS_12HeaderRecordERKNS_5RangeERKN7openpal6RSliceERNS_12IAPDUHandlerE
	.section	.text._ZN8opendnp311RangeParser13InvokeRangeOfINS_11Group30Var6EEEvRKNS_12HeaderRecordERKNS_5RangeERKN7openpal6RSliceERNS_12IAPDUHandlerE,"axG",%progbits,_ZN8opendnp311RangeParser13InvokeRangeOfINS_11Group30Var6EEEvRKNS_12HeaderRecordERKNS_5RangeERKN7openpal6RSliceERNS_12IAPDUHandlerE,comdat
	.align	2
	.weak	_ZN8opendnp311RangeParser13InvokeRangeOfINS_11Group30Var6EEEvRKNS_12HeaderRecordERKNS_5RangeERKN7openpal6RSliceERNS_12IAPDUHandlerE
	.syntax unified
	.arm
	.fpu vfp
	.type	_ZN8opendnp311RangeParser13InvokeRangeOfINS_11Group30Var6EEEvRKNS_12HeaderRecordERKNS_5RangeERKN7openpal6RSliceERNS_12IAPDUHandlerE, %function
_ZN8opendnp311RangeParser13InvokeRangeOfINS_11Group30Var6EEEvRKNS_12HeaderRecordERKNS_5RangeERKN7openpal6RSliceERNS_12IAPDUHandlerE:
	.fnstart
.LFB2957:
	@ args = 0, pretend = 0, frame = 40
	@ frame_needed = 0, uses_anonymous_args = 0
	push	{r4, r5, r6, r7, r8, lr}
	.save {r4, r5, r6, r7, r8, lr}
	mov	r8, r3
	ldr	r4, .L248
	ldr	r3, .L248+4
.LPIC21:
	add	r4, pc, r4
	.pad #40
	sub	sp, sp, #40
	ldrh	r6, [r1]
	ldrh	r5, [r1, #2]
	mov	lr, r1
	mov	ip, r0
	ldm	r2, {r0, r1}
	ldr	r4, [r4, r3]
	add	r3, sp, #4
	cmp	r6, r5
	stm	r3, {r0, r1}
	ldm	ip, {r0, r1, r2, r3}
	add	ip, r4, #8
	str	ip, [sp]
	add	ip, sp, #20
	addle	r7, r5, #1
	stm	ip, {r0, r1, r2, r3}
	suble	r7, r7, r6
	ldr	r0, [lr]	@ unaligned
	movgt	r7, #0
	str	r0, [sp, #36]
	mov	r1, ip
	mov	r2, sp
	mov	r0, r8
	str	r7, [sp, #12]
	strh	r6, [sp, #16]	@ movhi
	strh	r5, [sp, #18]	@ movhi
	bl	_ZN8opendnp312IAPDUHandler8OnHeaderERKNS_11RangeHeaderERKNS_11ICollectionINS_7IndexedINS_6AnalogEEEEE(PLT)
	add	sp, sp, #40
	@ sp needed
	pop	{r4, r5, r6, r7, r8, pc}
.L249:
	.align	2
.L248:
	.word	_GLOBAL_OFFSET_TABLE_-(.LPIC21+8)
	.word	_ZTVN8opendnp318BufferedCollectionINS_7IndexedINS_6AnalogEEEZNS_11RangeParser13InvokeRangeOfINS_11Group30Var6EEEvRKNS_12HeaderRecordERKNS_5RangeERKN7openpal6RSliceERNS_12IAPDUHandlerEEUlRSE_jE_EE(GOT)
	.fnend
	.size	_ZN8opendnp311RangeParser13InvokeRangeOfINS_11Group30Var6EEEvRKNS_12HeaderRecordERKNS_5RangeERKN7openpal6RSliceERNS_12IAPDUHandlerE, .-_ZN8opendnp311RangeParser13InvokeRangeOfINS_11Group30Var6EEEvRKNS_12HeaderRecordERKNS_5RangeERKN7openpal6RSliceERNS_12IAPDUHandlerE
	.section	.text._ZNK8opendnp318BufferedCollectionINS_7IndexedINS_6AnalogEEEZNS_11RangeParser13InvokeRangeOfINS_11Group30Var1EEEvRKNS_12HeaderRecordERKNS_5RangeERKN7openpal6RSliceERNS_12IAPDUHandlerEEUlRSE_jE_E7ForeachERNS_8IVisitorIS3_EE,"axG",%progbits,_ZNK8opendnp318BufferedCollectionINS_7IndexedINS_6AnalogEEEZNS_11RangeParser13InvokeRangeOfINS_11Group30Var1EEEvRKNS_12HeaderRecordERKNS_5RangeERKN7openpal6RSliceERNS_12IAPDUHandlerEEUlRSE_jE_E7ForeachERNS_8IVisitorIS3_EE,comdat
	.align	2
	.weak	_ZNK8opendnp318BufferedCollectionINS_7IndexedINS_6AnalogEEEZNS_11RangeParser13InvokeRangeOfINS_11Group30Var1EEEvRKNS_12HeaderRecordERKNS_5RangeERKN7openpal6RSliceERNS_12IAPDUHandlerEEUlRSE_jE_E7ForeachERNS_8IVisitorIS3_EE
	.syntax unified
	.arm
	.fpu vfp
	.type	_ZNK8opendnp318BufferedCollectionINS_7IndexedINS_6AnalogEEEZNS_11RangeParser13InvokeRangeOfINS_11Group30Var1EEEvRKNS_12HeaderRecordERKNS_5RangeERKN7openpal6RSliceERNS_12IAPDUHandlerEEUlRSE_jE_E7ForeachERNS_8IVisitorIS3_EE, %function
_ZNK8opendnp318BufferedCollectionINS_7IndexedINS_6AnalogEEEZNS_11RangeParser13InvokeRangeOfINS_11Group30Var1EEEvRKNS_12HeaderRecordERKNS_5RangeERKN7openpal6RSliceERNS_12IAPDUHandlerEEUlRSE_jE_E7ForeachERNS_8IVisitorIS3_EE:
	.fnstart
.LFB3487:
	@ args = 0, pretend = 0, frame = 72
	@ frame_needed = 0, uses_anonymous_args = 0
	push	{r4, r5, r6, r7, r8, r9, r10, lr}
	.save {r4, r5, r6, r7, r8, r9, r10, lr}
	mov	r6, r0
	.pad #72
	sub	sp, sp, #72
	ldr	r3, [r0, #12]
	mov	r7, r1
	ldmib	r0, {r0, r1}
	add	r2, sp, #8
	cmp	r3, #0
	str	r2, [sp, #4]
	stm	r2, {r0, r1}
	beq	.L250
	mov	r4, #0
	add	r5, sp, #16
	add	r8, sp, #40
.L253:
	ldr	r3, [r7]
	mov	r0, r5
	ldr	r9, [r3]
	bl	_ZN8opendnp36AnalogC1Ev(PLT)
	mov	r1, r5
	ldr	r0, [sp, #4]
	bl	_ZN8opendnp311Group30Var110ReadTargetERN7openpal6RSliceERNS_6AnalogE(PLT)
	mov	lr, r5
	mov	ip, r8
	ldmia	lr!, {r0, r1, r2, r3}
	ldrh	r10, [r6, #16]
	stmia	ip!, {r0, r1, r2, r3}
	add	r10, r10, r4
	ldm	lr, {r0, r1}
	strh	r10, [sp, #64]	@ movhi
	add	r4, r4, #1
	stm	ip, {r0, r1}
	mov	r1, r8
	mov	r0, r7
	blx	r9
	ldr	r3, [r6, #12]
	cmp	r3, r4
	bhi	.L253
.L250:
	add	sp, sp, #72
	@ sp needed
	pop	{r4, r5, r6, r7, r8, r9, r10, pc}
	.fnend
	.size	_ZNK8opendnp318BufferedCollectionINS_7IndexedINS_6AnalogEEEZNS_11RangeParser13InvokeRangeOfINS_11Group30Var1EEEvRKNS_12HeaderRecordERKNS_5RangeERKN7openpal6RSliceERNS_12IAPDUHandlerEEUlRSE_jE_E7ForeachERNS_8IVisitorIS3_EE, .-_ZNK8opendnp318BufferedCollectionINS_7IndexedINS_6AnalogEEEZNS_11RangeParser13InvokeRangeOfINS_11Group30Var1EEEvRKNS_12HeaderRecordERKNS_5RangeERKN7openpal6RSliceERNS_12IAPDUHandlerEEUlRSE_jE_E7ForeachERNS_8IVisitorIS3_EE
	.section	.text._ZNK8opendnp318BufferedCollectionINS_7IndexedINS_6AnalogEEEZNS_11RangeParser13InvokeRangeOfINS_11Group30Var2EEEvRKNS_12HeaderRecordERKNS_5RangeERKN7openpal6RSliceERNS_12IAPDUHandlerEEUlRSE_jE_E7ForeachERNS_8IVisitorIS3_EE,"axG",%progbits,_ZNK8opendnp318BufferedCollectionINS_7IndexedINS_6AnalogEEEZNS_11RangeParser13InvokeRangeOfINS_11Group30Var2EEEvRKNS_12HeaderRecordERKNS_5RangeERKN7openpal6RSliceERNS_12IAPDUHandlerEEUlRSE_jE_E7ForeachERNS_8IVisitorIS3_EE,comdat
	.align	2
	.weak	_ZNK8opendnp318BufferedCollectionINS_7IndexedINS_6AnalogEEEZNS_11RangeParser13InvokeRangeOfINS_11Group30Var2EEEvRKNS_12HeaderRecordERKNS_5RangeERKN7openpal6RSliceERNS_12IAPDUHandlerEEUlRSE_jE_E7ForeachERNS_8IVisitorIS3_EE
	.syntax unified
	.arm
	.fpu vfp
	.type	_ZNK8opendnp318BufferedCollectionINS_7IndexedINS_6AnalogEEEZNS_11RangeParser13InvokeRangeOfINS_11Group30Var2EEEvRKNS_12HeaderRecordERKNS_5RangeERKN7openpal6RSliceERNS_12IAPDUHandlerEEUlRSE_jE_E7ForeachERNS_8IVisitorIS3_EE, %function
_ZNK8opendnp318BufferedCollectionINS_7IndexedINS_6AnalogEEEZNS_11RangeParser13InvokeRangeOfINS_11Group30Var2EEEvRKNS_12HeaderRecordERKNS_5RangeERKN7openpal6RSliceERNS_12IAPDUHandlerEEUlRSE_jE_E7ForeachERNS_8IVisitorIS3_EE:
	.fnstart
.LFB3485:
	@ args = 0, pretend = 0, frame = 64
	@ frame_needed = 0, uses_anonymous_args = 0
	push	{r4, r5, r6, r7, r8, r9, r10, fp, lr}
	.save {r4, r5, r6, r7, r8, r9, r10, fp, lr}
	mov	r6, r0
	ldr	r3, [r0, #12]
	mov	r7, r1
	ldmib	r0, {r0, r1}
	.pad #68
	sub	sp, sp, #68
	cmp	r3, #0
	stm	sp, {r0, r1}
	beq	.L255
	mov	r10, sp
	mov	r4, #0
	add	r5, sp, #8
	add	r8, sp, #32
.L258:
	ldr	r3, [r7]
	mov	r0, r5
	ldr	r9, [r3]
	bl	_ZN8opendnp36AnalogC1Ev(PLT)
	mov	r1, r5
	mov	r0, r10
	bl	_ZN8opendnp311Group30Var210ReadTargetERN7openpal6RSliceERNS_6AnalogE(PLT)
	mov	lr, r5
	mov	ip, r8
	ldmia	lr!, {r0, r1, r2, r3}
	ldrh	fp, [r6, #16]
	stmia	ip!, {r0, r1, r2, r3}
	add	fp, fp, r4
	ldm	lr, {r0, r1}
	strh	fp, [sp, #56]	@ movhi
	add	r4, r4, #1
	stm	ip, {r0, r1}
	mov	r1, r8
	mov	r0, r7
	blx	r9
	ldr	r3, [r6, #12]
	cmp	r3, r4
	bhi	.L258
.L255:
	add	sp, sp, #68
	@ sp needed
	pop	{r4, r5, r6, r7, r8, r9, r10, fp, pc}
	.fnend
	.size	_ZNK8opendnp318BufferedCollectionINS_7IndexedINS_6AnalogEEEZNS_11RangeParser13InvokeRangeOfINS_11Group30Var2EEEvRKNS_12HeaderRecordERKNS_5RangeERKN7openpal6RSliceERNS_12IAPDUHandlerEEUlRSE_jE_E7ForeachERNS_8IVisitorIS3_EE, .-_ZNK8opendnp318BufferedCollectionINS_7IndexedINS_6AnalogEEEZNS_11RangeParser13InvokeRangeOfINS_11Group30Var2EEEvRKNS_12HeaderRecordERKNS_5RangeERKN7openpal6RSliceERNS_12IAPDUHandlerEEUlRSE_jE_E7ForeachERNS_8IVisitorIS3_EE
	.section	.text._ZNK8opendnp318BufferedCollectionINS_7IndexedINS_6AnalogEEEZNS_11RangeParser13InvokeRangeOfINS_11Group30Var3EEEvRKNS_12HeaderRecordERKNS_5RangeERKN7openpal6RSliceERNS_12IAPDUHandlerEEUlRSE_jE_E7ForeachERNS_8IVisitorIS3_EE,"axG",%progbits,_ZNK8opendnp318BufferedCollectionINS_7IndexedINS_6AnalogEEEZNS_11RangeParser13InvokeRangeOfINS_11Group30Var3EEEvRKNS_12HeaderRecordERKNS_5RangeERKN7openpal6RSliceERNS_12IAPDUHandlerEEUlRSE_jE_E7ForeachERNS_8IVisitorIS3_EE,comdat
	.align	2
	.weak	_ZNK8opendnp318BufferedCollectionINS_7IndexedINS_6AnalogEEEZNS_11RangeParser13InvokeRangeOfINS_11Group30Var3EEEvRKNS_12HeaderRecordERKNS_5RangeERKN7openpal6RSliceERNS_12IAPDUHandlerEEUlRSE_jE_E7ForeachERNS_8IVisitorIS3_EE
	.syntax unified
	.arm
	.fpu vfp
	.type	_ZNK8opendnp318BufferedCollectionINS_7IndexedINS_6AnalogEEEZNS_11RangeParser13InvokeRangeOfINS_11Group30Var3EEEvRKNS_12HeaderRecordERKNS_5RangeERKN7openpal6RSliceERNS_12IAPDUHandlerEEUlRSE_jE_E7ForeachERNS_8IVisitorIS3_EE, %function
_ZNK8opendnp318BufferedCollectionINS_7IndexedINS_6AnalogEEEZNS_11RangeParser13InvokeRangeOfINS_11Group30Var3EEEvRKNS_12HeaderRecordERKNS_5RangeERKN7openpal6RSliceERNS_12IAPDUHandlerEEUlRSE_jE_E7ForeachERNS_8IVisitorIS3_EE:
	.fnstart
.LFB3483:
	@ args = 0, pretend = 0, frame = 64
	@ frame_needed = 0, uses_anonymous_args = 0
	push	{r4, r5, r6, r7, r8, r9, r10, fp, lr}
	.save {r4, r5, r6, r7, r8, r9, r10, fp, lr}
	mov	r6, r0
	ldr	r3, [r0, #12]
	mov	r7, r1
	ldmib	r0, {r0, r1}
	.pad #68
	sub	sp, sp, #68
	cmp	r3, #0
	stm	sp, {r0, r1}
	beq	.L260
	mov	r10, sp
	mov	r4, #0
	add	r5, sp, #8
	add	r8, sp, #32
.L263:
	ldr	r3, [r7]
	mov	r0, r5
	ldr	r9, [r3]
	bl	_ZN8opendnp36AnalogC1Ev(PLT)
	mov	r1, r5
	mov	r0, r10
	bl	_ZN8opendnp311Group30Var310ReadTargetERN7openpal6RSliceERNS_6AnalogE(PLT)
	mov	lr, r5
	mov	ip, r8
	ldmia	lr!, {r0, r1, r2, r3}
	ldrh	fp, [r6, #16]
	stmia	ip!, {r0, r1, r2, r3}
	add	fp, fp, r4
	ldm	lr, {r0, r1}
	strh	fp, [sp, #56]	@ movhi
	add	r4, r4, #1
	stm	ip, {r0, r1}
	mov	r1, r8
	mov	r0, r7
	blx	r9
	ldr	r3, [r6, #12]
	cmp	r3, r4
	bhi	.L263
.L260:
	add	sp, sp, #68
	@ sp needed
	pop	{r4, r5, r6, r7, r8, r9, r10, fp, pc}
	.fnend
	.size	_ZNK8opendnp318BufferedCollectionINS_7IndexedINS_6AnalogEEEZNS_11RangeParser13InvokeRangeOfINS_11Group30Var3EEEvRKNS_12HeaderRecordERKNS_5RangeERKN7openpal6RSliceERNS_12IAPDUHandlerEEUlRSE_jE_E7ForeachERNS_8IVisitorIS3_EE, .-_ZNK8opendnp318BufferedCollectionINS_7IndexedINS_6AnalogEEEZNS_11RangeParser13InvokeRangeOfINS_11Group30Var3EEEvRKNS_12HeaderRecordERKNS_5RangeERKN7openpal6RSliceERNS_12IAPDUHandlerEEUlRSE_jE_E7ForeachERNS_8IVisitorIS3_EE
	.section	.text._ZNK8opendnp318BufferedCollectionINS_7IndexedINS_6AnalogEEEZNS_11RangeParser13InvokeRangeOfINS_11Group30Var4EEEvRKNS_12HeaderRecordERKNS_5RangeERKN7openpal6RSliceERNS_12IAPDUHandlerEEUlRSE_jE_E7ForeachERNS_8IVisitorIS3_EE,"axG",%progbits,_ZNK8opendnp318BufferedCollectionINS_7IndexedINS_6AnalogEEEZNS_11RangeParser13InvokeRangeOfINS_11Group30Var4EEEvRKNS_12HeaderRecordERKNS_5RangeERKN7openpal6RSliceERNS_12IAPDUHandlerEEUlRSE_jE_E7ForeachERNS_8IVisitorIS3_EE,comdat
	.align	2
	.weak	_ZNK8opendnp318BufferedCollectionINS_7IndexedINS_6AnalogEEEZNS_11RangeParser13InvokeRangeOfINS_11Group30Var4EEEvRKNS_12HeaderRecordERKNS_5RangeERKN7openpal6RSliceERNS_12IAPDUHandlerEEUlRSE_jE_E7ForeachERNS_8IVisitorIS3_EE
	.syntax unified
	.arm
	.fpu vfp
	.type	_ZNK8opendnp318BufferedCollectionINS_7IndexedINS_6AnalogEEEZNS_11RangeParser13InvokeRangeOfINS_11Group30Var4EEEvRKNS_12HeaderRecordERKNS_5RangeERKN7openpal6RSliceERNS_12IAPDUHandlerEEUlRSE_jE_E7ForeachERNS_8IVisitorIS3_EE, %function
_ZNK8opendnp318BufferedCollectionINS_7IndexedINS_6AnalogEEEZNS_11RangeParser13InvokeRangeOfINS_11Group30Var4EEEvRKNS_12HeaderRecordERKNS_5RangeERKN7openpal6RSliceERNS_12IAPDUHandlerEEUlRSE_jE_E7ForeachERNS_8IVisitorIS3_EE:
	.fnstart
.LFB3481:
	@ args = 0, pretend = 0, frame = 64
	@ frame_needed = 0, uses_anonymous_args = 0
	push	{r4, r5, r6, r7, r8, r9, r10, fp, lr}
	.save {r4, r5, r6, r7, r8, r9, r10, fp, lr}
	mov	r6, r0
	ldr	r3, [r0, #12]
	mov	r7, r1
	ldmib	r0, {r0, r1}
	.pad #68
	sub	sp, sp, #68
	cmp	r3, #0
	stm	sp, {r0, r1}
	beq	.L265
	mov	r10, sp
	mov	r4, #0
	add	r5, sp, #8
	add	r8, sp, #32
.L268:
	ldr	r3, [r7]
	mov	r0, r5
	ldr	r9, [r3]
	bl	_ZN8opendnp36AnalogC1Ev(PLT)
	mov	r1, r5
	mov	r0, r10
	bl	_ZN8opendnp311Group30Var410ReadTargetERN7openpal6RSliceERNS_6AnalogE(PLT)
	mov	lr, r5
	mov	ip, r8
	ldmia	lr!, {r0, r1, r2, r3}
	ldrh	fp, [r6, #16]
	stmia	ip!, {r0, r1, r2, r3}
	add	fp, fp, r4
	ldm	lr, {r0, r1}
	strh	fp, [sp, #56]	@ movhi
	add	r4, r4, #1
	stm	ip, {r0, r1}
	mov	r1, r8
	mov	r0, r7
	blx	r9
	ldr	r3, [r6, #12]
	cmp	r3, r4
	bhi	.L268
.L265:
	add	sp, sp, #68
	@ sp needed
	pop	{r4, r5, r6, r7, r8, r9, r10, fp, pc}
	.fnend
	.size	_ZNK8opendnp318BufferedCollectionINS_7IndexedINS_6AnalogEEEZNS_11RangeParser13InvokeRangeOfINS_11Group30Var4EEEvRKNS_12HeaderRecordERKNS_5RangeERKN7openpal6RSliceERNS_12IAPDUHandlerEEUlRSE_jE_E7ForeachERNS_8IVisitorIS3_EE, .-_ZNK8opendnp318BufferedCollectionINS_7IndexedINS_6AnalogEEEZNS_11RangeParser13InvokeRangeOfINS_11Group30Var4EEEvRKNS_12HeaderRecordERKNS_5RangeERKN7openpal6RSliceERNS_12IAPDUHandlerEEUlRSE_jE_E7ForeachERNS_8IVisitorIS3_EE
	.section	.text._ZNK8opendnp318BufferedCollectionINS_7IndexedINS_6AnalogEEEZNS_11RangeParser13InvokeRangeOfINS_11Group30Var5EEEvRKNS_12HeaderRecordERKNS_5RangeERKN7openpal6RSliceERNS_12IAPDUHandlerEEUlRSE_jE_E7ForeachERNS_8IVisitorIS3_EE,"axG",%progbits,_ZNK8opendnp318BufferedCollectionINS_7IndexedINS_6AnalogEEEZNS_11RangeParser13InvokeRangeOfINS_11Group30Var5EEEvRKNS_12HeaderRecordERKNS_5RangeERKN7openpal6RSliceERNS_12IAPDUHandlerEEUlRSE_jE_E7ForeachERNS_8IVisitorIS3_EE,comdat
	.align	2
	.weak	_ZNK8opendnp318BufferedCollectionINS_7IndexedINS_6AnalogEEEZNS_11RangeParser13InvokeRangeOfINS_11Group30Var5EEEvRKNS_12HeaderRecordERKNS_5RangeERKN7openpal6RSliceERNS_12IAPDUHandlerEEUlRSE_jE_E7ForeachERNS_8IVisitorIS3_EE
	.syntax unified
	.arm
	.fpu vfp
	.type	_ZNK8opendnp318BufferedCollectionINS_7IndexedINS_6AnalogEEEZNS_11RangeParser13InvokeRangeOfINS_11Group30Var5EEEvRKNS_12HeaderRecordERKNS_5RangeERKN7openpal6RSliceERNS_12IAPDUHandlerEEUlRSE_jE_E7ForeachERNS_8IVisitorIS3_EE, %function
_ZNK8opendnp318BufferedCollectionINS_7IndexedINS_6AnalogEEEZNS_11RangeParser13InvokeRangeOfINS_11Group30Var5EEEvRKNS_12HeaderRecordERKNS_5RangeERKN7openpal6RSliceERNS_12IAPDUHandlerEEUlRSE_jE_E7ForeachERNS_8IVisitorIS3_EE:
	.fnstart
.LFB3479:
	@ args = 0, pretend = 0, frame = 64
	@ frame_needed = 0, uses_anonymous_args = 0
	push	{r4, r5, r6, r7, r8, r9, r10, fp, lr}
	.save {r4, r5, r6, r7, r8, r9, r10, fp, lr}
	mov	r6, r0
	ldr	r3, [r0, #12]
	mov	r7, r1
	ldmib	r0, {r0, r1}
	.pad #68
	sub	sp, sp, #68
	cmp	r3, #0
	stm	sp, {r0, r1}
	beq	.L270
	mov	r10, sp
	mov	r4, #0
	add	r5, sp, #8
	add	r8, sp, #32
.L273:
	ldr	r3, [r7]
	mov	r0, r5
	ldr	r9, [r3]
	bl	_ZN8opendnp36AnalogC1Ev(PLT)
	mov	r1, r5
	mov	r0, r10
	bl	_ZN8opendnp311Group30Var510ReadTargetERN7openpal6RSliceERNS_6AnalogE(PLT)
	mov	lr, r5
	mov	ip, r8
	ldmia	lr!, {r0, r1, r2, r3}
	ldrh	fp, [r6, #16]
	stmia	ip!, {r0, r1, r2, r3}
	add	fp, fp, r4
	ldm	lr, {r0, r1}
	strh	fp, [sp, #56]	@ movhi
	add	r4, r4, #1
	stm	ip, {r0, r1}
	mov	r1, r8
	mov	r0, r7
	blx	r9
	ldr	r3, [r6, #12]
	cmp	r3, r4
	bhi	.L273
.L270:
	add	sp, sp, #68
	@ sp needed
	pop	{r4, r5, r6, r7, r8, r9, r10, fp, pc}
	.fnend
	.size	_ZNK8opendnp318BufferedCollectionINS_7IndexedINS_6AnalogEEEZNS_11RangeParser13InvokeRangeOfINS_11Group30Var5EEEvRKNS_12HeaderRecordERKNS_5RangeERKN7openpal6RSliceERNS_12IAPDUHandlerEEUlRSE_jE_E7ForeachERNS_8IVisitorIS3_EE, .-_ZNK8opendnp318BufferedCollectionINS_7IndexedINS_6AnalogEEEZNS_11RangeParser13InvokeRangeOfINS_11Group30Var5EEEvRKNS_12HeaderRecordERKNS_5RangeERKN7openpal6RSliceERNS_12IAPDUHandlerEEUlRSE_jE_E7ForeachERNS_8IVisitorIS3_EE
	.section	.text._ZNK8opendnp318BufferedCollectionINS_7IndexedINS_6AnalogEEEZNS_11RangeParser13InvokeRangeOfINS_11Group30Var6EEEvRKNS_12HeaderRecordERKNS_5RangeERKN7openpal6RSliceERNS_12IAPDUHandlerEEUlRSE_jE_E7ForeachERNS_8IVisitorIS3_EE,"axG",%progbits,_ZNK8opendnp318BufferedCollectionINS_7IndexedINS_6AnalogEEEZNS_11RangeParser13InvokeRangeOfINS_11Group30Var6EEEvRKNS_12HeaderRecordERKNS_5RangeERKN7openpal6RSliceERNS_12IAPDUHandlerEEUlRSE_jE_E7ForeachERNS_8IVisitorIS3_EE,comdat
	.align	2
	.weak	_ZNK8opendnp318BufferedCollectionINS_7IndexedINS_6AnalogEEEZNS_11RangeParser13InvokeRangeOfINS_11Group30Var6EEEvRKNS_12HeaderRecordERKNS_5RangeERKN7openpal6RSliceERNS_12IAPDUHandlerEEUlRSE_jE_E7ForeachERNS_8IVisitorIS3_EE
	.syntax unified
	.arm
	.fpu vfp
	.type	_ZNK8opendnp318BufferedCollectionINS_7IndexedINS_6AnalogEEEZNS_11RangeParser13InvokeRangeOfINS_11Group30Var6EEEvRKNS_12HeaderRecordERKNS_5RangeERKN7openpal6RSliceERNS_12IAPDUHandlerEEUlRSE_jE_E7ForeachERNS_8IVisitorIS3_EE, %function
_ZNK8opendnp318BufferedCollectionINS_7IndexedINS_6AnalogEEEZNS_11RangeParser13InvokeRangeOfINS_11Group30Var6EEEvRKNS_12HeaderRecordERKNS_5RangeERKN7openpal6RSliceERNS_12IAPDUHandlerEEUlRSE_jE_E7ForeachERNS_8IVisitorIS3_EE:
	.fnstart
.LFB3477:
	@ args = 0, pretend = 0, frame = 64
	@ frame_needed = 0, uses_anonymous_args = 0
	push	{r4, r5, r6, r7, r8, r9, r10, fp, lr}
	.save {r4, r5, r6, r7, r8, r9, r10, fp, lr}
	mov	r6, r0
	ldr	r3, [r0, #12]
	mov	r7, r1
	ldmib	r0, {r0, r1}
	.pad #68
	sub	sp, sp, #68
	cmp	r3, #0
	stm	sp, {r0, r1}
	beq	.L275
	mov	r10, sp
	mov	r4, #0
	add	r5, sp, #8
	add	r8, sp, #32
.L278:
	ldr	r3, [r7]
	mov	r0, r5
	ldr	r9, [r3]
	bl	_ZN8opendnp36AnalogC1Ev(PLT)
	mov	r1, r5
	mov	r0, r10
	bl	_ZN8opendnp311Group30Var610ReadTargetERN7openpal6RSliceERNS_6AnalogE(PLT)
	mov	lr, r5
	mov	ip, r8
	ldmia	lr!, {r0, r1, r2, r3}
	ldrh	fp, [r6, #16]
	stmia	ip!, {r0, r1, r2, r3}
	add	fp, fp, r4
	ldm	lr, {r0, r1}
	strh	fp, [sp, #56]	@ movhi
	add	r4, r4, #1
	stm	ip, {r0, r1}
	mov	r1, r8
	mov	r0, r7
	blx	r9
	ldr	r3, [r6, #12]
	cmp	r3, r4
	bhi	.L278
.L275:
	add	sp, sp, #68
	@ sp needed
	pop	{r4, r5, r6, r7, r8, r9, r10, fp, pc}
	.fnend
	.size	_ZNK8opendnp318BufferedCollectionINS_7IndexedINS_6AnalogEEEZNS_11RangeParser13InvokeRangeOfINS_11Group30Var6EEEvRKNS_12HeaderRecordERKNS_5RangeERKN7openpal6RSliceERNS_12IAPDUHandlerEEUlRSE_jE_E7ForeachERNS_8IVisitorIS3_EE, .-_ZNK8opendnp318BufferedCollectionINS_7IndexedINS_6AnalogEEEZNS_11RangeParser13InvokeRangeOfINS_11Group30Var6EEEvRKNS_12HeaderRecordERKNS_5RangeERKN7openpal6RSliceERNS_12IAPDUHandlerEEUlRSE_jE_E7ForeachERNS_8IVisitorIS3_EE
	.section	.text._ZN8opendnp311RangeParser13InvokeRangeOfINS_11Group40Var1EEEvRKNS_12HeaderRecordERKNS_5RangeERKN7openpal6RSliceERNS_12IAPDUHandlerE,"axG",%progbits,_ZN8opendnp311RangeParser13InvokeRangeOfINS_11Group40Var1EEEvRKNS_12HeaderRecordERKNS_5RangeERKN7openpal6RSliceERNS_12IAPDUHandlerE,comdat
	.align	2
	.weak	_ZN8opendnp311RangeParser13InvokeRangeOfINS_11Group40Var1EEEvRKNS_12HeaderRecordERKNS_5RangeERKN7openpal6RSliceERNS_12IAPDUHandlerE
	.syntax unified
	.arm
	.fpu vfp
	.type	_ZN8opendnp311RangeParser13InvokeRangeOfINS_11Group40Var1EEEvRKNS_12HeaderRecordERKNS_5RangeERKN7openpal6RSliceERNS_12IAPDUHandlerE, %function
_ZN8opendnp311RangeParser13InvokeRangeOfINS_11Group40Var1EEEvRKNS_12HeaderRecordERKNS_5RangeERKN7openpal6RSliceERNS_12IAPDUHandlerE:
	.fnstart
.LFB2962:
	@ args = 0, pretend = 0, frame = 40
	@ frame_needed = 0, uses_anonymous_args = 0
	push	{r4, r5, r6, r7, r8, lr}
	.save {r4, r5, r6, r7, r8, lr}
	mov	r8, r3
	ldr	r4, .L284
	ldr	r3, .L284+4
.LPIC22:
	add	r4, pc, r4
	.pad #40
	sub	sp, sp, #40
	ldrh	r6, [r1]
	ldrh	r5, [r1, #2]
	mov	lr, r1
	mov	ip, r0
	ldm	r2, {r0, r1}
	ldr	r4, [r4, r3]
	add	r3, sp, #4
	cmp	r6, r5
	stm	r3, {r0, r1}
	ldm	ip, {r0, r1, r2, r3}
	add	ip, r4, #8
	str	ip, [sp]
	add	ip, sp, #20
	addle	r7, r5, #1
	stm	ip, {r0, r1, r2, r3}
	suble	r7, r7, r6
	ldr	r0, [lr]	@ unaligned
	movgt	r7, #0
	str	r0, [sp, #36]
	mov	r1, ip
	mov	r2, sp
	mov	r0, r8
	str	r7, [sp, #12]
	strh	r6, [sp, #16]	@ movhi
	strh	r5, [sp, #18]	@ movhi
	bl	_ZN8opendnp312IAPDUHandler8OnHeaderERKNS_11RangeHeaderERKNS_11ICollectionINS_7IndexedINS_18AnalogOutputStatusEEEEE(PLT)
	add	sp, sp, #40
	@ sp needed
	pop	{r4, r5, r6, r7, r8, pc}
.L285:
	.align	2
.L284:
	.word	_GLOBAL_OFFSET_TABLE_-(.LPIC22+8)
	.word	_ZTVN8opendnp318BufferedCollectionINS_7IndexedINS_18AnalogOutputStatusEEEZNS_11RangeParser13InvokeRangeOfINS_11Group40Var1EEEvRKNS_12HeaderRecordERKNS_5RangeERKN7openpal6RSliceERNS_12IAPDUHandlerEEUlRSE_jE_EE(GOT)
	.fnend
	.size	_ZN8opendnp311RangeParser13InvokeRangeOfINS_11Group40Var1EEEvRKNS_12HeaderRecordERKNS_5RangeERKN7openpal6RSliceERNS_12IAPDUHandlerE, .-_ZN8opendnp311RangeParser13InvokeRangeOfINS_11Group40Var1EEEvRKNS_12HeaderRecordERKNS_5RangeERKN7openpal6RSliceERNS_12IAPDUHandlerE
	.section	.text._ZN8opendnp311RangeParser13InvokeRangeOfINS_11Group40Var2EEEvRKNS_12HeaderRecordERKNS_5RangeERKN7openpal6RSliceERNS_12IAPDUHandlerE,"axG",%progbits,_ZN8opendnp311RangeParser13InvokeRangeOfINS_11Group40Var2EEEvRKNS_12HeaderRecordERKNS_5RangeERKN7openpal6RSliceERNS_12IAPDUHandlerE,comdat
	.align	2
	.weak	_ZN8opendnp311RangeParser13InvokeRangeOfINS_11Group40Var2EEEvRKNS_12HeaderRecordERKNS_5RangeERKN7openpal6RSliceERNS_12IAPDUHandlerE
	.syntax unified
	.arm
	.fpu vfp
	.type	_ZN8opendnp311RangeParser13InvokeRangeOfINS_11Group40Var2EEEvRKNS_12HeaderRecordERKNS_5RangeERKN7openpal6RSliceERNS_12IAPDUHandlerE, %function
_ZN8opendnp311RangeParser13InvokeRangeOfINS_11Group40Var2EEEvRKNS_12HeaderRecordERKNS_5RangeERKN7openpal6RSliceERNS_12IAPDUHandlerE:
	.fnstart
.LFB2970:
	@ args = 0, pretend = 0, frame = 40
	@ frame_needed = 0, uses_anonymous_args = 0
	push	{r4, r5, r6, r7, r8, lr}
	.save {r4, r5, r6, r7, r8, lr}
	mov	r8, r3
	ldr	r4, .L290
	ldr	r3, .L290+4
.LPIC23:
	add	r4, pc, r4
	.pad #40
	sub	sp, sp, #40
	ldrh	r6, [r1]
	ldrh	r5, [r1, #2]
	mov	lr, r1
	mov	ip, r0
	ldm	r2, {r0, r1}
	ldr	r4, [r4, r3]
	add	r3, sp, #4
	cmp	r6, r5
	stm	r3, {r0, r1}
	ldm	ip, {r0, r1, r2, r3}
	add	ip, r4, #8
	str	ip, [sp]
	add	ip, sp, #20
	addle	r7, r5, #1
	stm	ip, {r0, r1, r2, r3}
	suble	r7, r7, r6
	ldr	r0, [lr]	@ unaligned
	movgt	r7, #0
	str	r0, [sp, #36]
	mov	r1, ip
	mov	r2, sp
	mov	r0, r8
	str	r7, [sp, #12]
	strh	r6, [sp, #16]	@ movhi
	strh	r5, [sp, #18]	@ movhi
	bl	_ZN8opendnp312IAPDUHandler8OnHeaderERKNS_11RangeHeaderERKNS_11ICollectionINS_7IndexedINS_18AnalogOutputStatusEEEEE(PLT)
	add	sp, sp, #40
	@ sp needed
	pop	{r4, r5, r6, r7, r8, pc}
.L291:
	.align	2
.L290:
	.word	_GLOBAL_OFFSET_TABLE_-(.LPIC23+8)
	.word	_ZTVN8opendnp318BufferedCollectionINS_7IndexedINS_18AnalogOutputStatusEEEZNS_11RangeParser13InvokeRangeOfINS_11Group40Var2EEEvRKNS_12HeaderRecordERKNS_5RangeERKN7openpal6RSliceERNS_12IAPDUHandlerEEUlRSE_jE_EE(GOT)
	.fnend
	.size	_ZN8opendnp311RangeParser13InvokeRangeOfINS_11Group40Var2EEEvRKNS_12HeaderRecordERKNS_5RangeERKN7openpal6RSliceERNS_12IAPDUHandlerE, .-_ZN8opendnp311RangeParser13InvokeRangeOfINS_11Group40Var2EEEvRKNS_12HeaderRecordERKNS_5RangeERKN7openpal6RSliceERNS_12IAPDUHandlerE
	.section	.text._ZN8opendnp311RangeParser13InvokeRangeOfINS_11Group40Var3EEEvRKNS_12HeaderRecordERKNS_5RangeERKN7openpal6RSliceERNS_12IAPDUHandlerE,"axG",%progbits,_ZN8opendnp311RangeParser13InvokeRangeOfINS_11Group40Var3EEEvRKNS_12HeaderRecordERKNS_5RangeERKN7openpal6RSliceERNS_12IAPDUHandlerE,comdat
	.align	2
	.weak	_ZN8opendnp311RangeParser13InvokeRangeOfINS_11Group40Var3EEEvRKNS_12HeaderRecordERKNS_5RangeERKN7openpal6RSliceERNS_12IAPDUHandlerE
	.syntax unified
	.arm
	.fpu vfp
	.type	_ZN8opendnp311RangeParser13InvokeRangeOfINS_11Group40Var3EEEvRKNS_12HeaderRecordERKNS_5RangeERKN7openpal6RSliceERNS_12IAPDUHandlerE, %function
_ZN8opendnp311RangeParser13InvokeRangeOfINS_11Group40Var3EEEvRKNS_12HeaderRecordERKNS_5RangeERKN7openpal6RSliceERNS_12IAPDUHandlerE:
	.fnstart
.LFB2975:
	@ args = 0, pretend = 0, frame = 40
	@ frame_needed = 0, uses_anonymous_args = 0
	push	{r4, r5, r6, r7, r8, lr}
	.save {r4, r5, r6, r7, r8, lr}
	mov	r8, r3
	ldr	r4, .L296
	ldr	r3, .L296+4
.LPIC24:
	add	r4, pc, r4
	.pad #40
	sub	sp, sp, #40
	ldrh	r6, [r1]
	ldrh	r5, [r1, #2]
	mov	lr, r1
	mov	ip, r0
	ldm	r2, {r0, r1}
	ldr	r4, [r4, r3]
	add	r3, sp, #4
	cmp	r6, r5
	stm	r3, {r0, r1}
	ldm	ip, {r0, r1, r2, r3}
	add	ip, r4, #8
	str	ip, [sp]
	add	ip, sp, #20
	addle	r7, r5, #1
	stm	ip, {r0, r1, r2, r3}
	suble	r7, r7, r6
	ldr	r0, [lr]	@ unaligned
	movgt	r7, #0
	str	r0, [sp, #36]
	mov	r1, ip
	mov	r2, sp
	mov	r0, r8
	str	r7, [sp, #12]
	strh	r6, [sp, #16]	@ movhi
	strh	r5, [sp, #18]	@ movhi
	bl	_ZN8opendnp312IAPDUHandler8OnHeaderERKNS_11RangeHeaderERKNS_11ICollectionINS_7IndexedINS_18AnalogOutputStatusEEEEE(PLT)
	add	sp, sp, #40
	@ sp needed
	pop	{r4, r5, r6, r7, r8, pc}
.L297:
	.align	2
.L296:
	.word	_GLOBAL_OFFSET_TABLE_-(.LPIC24+8)
	.word	_ZTVN8opendnp318BufferedCollectionINS_7IndexedINS_18AnalogOutputStatusEEEZNS_11RangeParser13InvokeRangeOfINS_11Group40Var3EEEvRKNS_12HeaderRecordERKNS_5RangeERKN7openpal6RSliceERNS_12IAPDUHandlerEEUlRSE_jE_EE(GOT)
	.fnend
	.size	_ZN8opendnp311RangeParser13InvokeRangeOfINS_11Group40Var3EEEvRKNS_12HeaderRecordERKNS_5RangeERKN7openpal6RSliceERNS_12IAPDUHandlerE, .-_ZN8opendnp311RangeParser13InvokeRangeOfINS_11Group40Var3EEEvRKNS_12HeaderRecordERKNS_5RangeERKN7openpal6RSliceERNS_12IAPDUHandlerE
	.section	.text._ZN8opendnp311RangeParser13InvokeRangeOfINS_11Group40Var4EEEvRKNS_12HeaderRecordERKNS_5RangeERKN7openpal6RSliceERNS_12IAPDUHandlerE,"axG",%progbits,_ZN8opendnp311RangeParser13InvokeRangeOfINS_11Group40Var4EEEvRKNS_12HeaderRecordERKNS_5RangeERKN7openpal6RSliceERNS_12IAPDUHandlerE,comdat
	.align	2
	.weak	_ZN8opendnp311RangeParser13InvokeRangeOfINS_11Group40Var4EEEvRKNS_12HeaderRecordERKNS_5RangeERKN7openpal6RSliceERNS_12IAPDUHandlerE
	.syntax unified
	.arm
	.fpu vfp
	.type	_ZN8opendnp311RangeParser13InvokeRangeOfINS_11Group40Var4EEEvRKNS_12HeaderRecordERKNS_5RangeERKN7openpal6RSliceERNS_12IAPDUHandlerE, %function
_ZN8opendnp311RangeParser13InvokeRangeOfINS_11Group40Var4EEEvRKNS_12HeaderRecordERKNS_5RangeERKN7openpal6RSliceERNS_12IAPDUHandlerE:
	.fnstart
.LFB2980:
	@ args = 0, pretend = 0, frame = 40
	@ frame_needed = 0, uses_anonymous_args = 0
	push	{r4, r5, r6, r7, r8, lr}
	.save {r4, r5, r6, r7, r8, lr}
	mov	r8, r3
	ldr	r4, .L302
	ldr	r3, .L302+4
.LPIC25:
	add	r4, pc, r4
	.pad #40
	sub	sp, sp, #40
	ldrh	r6, [r1]
	ldrh	r5, [r1, #2]
	mov	lr, r1
	mov	ip, r0
	ldm	r2, {r0, r1}
	ldr	r4, [r4, r3]
	add	r3, sp, #4
	cmp	r6, r5
	stm	r3, {r0, r1}
	ldm	ip, {r0, r1, r2, r3}
	add	ip, r4, #8
	str	ip, [sp]
	add	ip, sp, #20
	addle	r7, r5, #1
	stm	ip, {r0, r1, r2, r3}
	suble	r7, r7, r6
	ldr	r0, [lr]	@ unaligned
	movgt	r7, #0
	str	r0, [sp, #36]
	mov	r1, ip
	mov	r2, sp
	mov	r0, r8
	str	r7, [sp, #12]
	strh	r6, [sp, #16]	@ movhi
	strh	r5, [sp, #18]	@ movhi
	bl	_ZN8opendnp312IAPDUHandler8OnHeaderERKNS_11RangeHeaderERKNS_11ICollectionINS_7IndexedINS_18AnalogOutputStatusEEEEE(PLT)
	add	sp, sp, #40
	@ sp needed
	pop	{r4, r5, r6, r7, r8, pc}
.L303:
	.align	2
.L302:
	.word	_GLOBAL_OFFSET_TABLE_-(.LPIC25+8)
	.word	_ZTVN8opendnp318BufferedCollectionINS_7IndexedINS_18AnalogOutputStatusEEEZNS_11RangeParser13InvokeRangeOfINS_11Group40Var4EEEvRKNS_12HeaderRecordERKNS_5RangeERKN7openpal6RSliceERNS_12IAPDUHandlerEEUlRSE_jE_EE(GOT)
	.fnend
	.size	_ZN8opendnp311RangeParser13InvokeRangeOfINS_11Group40Var4EEEvRKNS_12HeaderRecordERKNS_5RangeERKN7openpal6RSliceERNS_12IAPDUHandlerE, .-_ZN8opendnp311RangeParser13InvokeRangeOfINS_11Group40Var4EEEvRKNS_12HeaderRecordERKNS_5RangeERKN7openpal6RSliceERNS_12IAPDUHandlerE
	.section	.text._ZNK8opendnp318BufferedCollectionINS_7IndexedINS_18AnalogOutputStatusEEEZNS_11RangeParser13InvokeRangeOfINS_11Group40Var1EEEvRKNS_12HeaderRecordERKNS_5RangeERKN7openpal6RSliceERNS_12IAPDUHandlerEEUlRSE_jE_E7ForeachERNS_8IVisitorIS3_EE,"axG",%progbits,_ZNK8opendnp318BufferedCollectionINS_7IndexedINS_18AnalogOutputStatusEEEZNS_11RangeParser13InvokeRangeOfINS_11Group40Var1EEEvRKNS_12HeaderRecordERKNS_5RangeERKN7openpal6RSliceERNS_12IAPDUHandlerEEUlRSE_jE_E7ForeachERNS_8IVisitorIS3_EE,comdat
	.align	2
	.weak	_ZNK8opendnp318BufferedCollectionINS_7IndexedINS_18AnalogOutputStatusEEEZNS_11RangeParser13InvokeRangeOfINS_11Group40Var1EEEvRKNS_12HeaderRecordERKNS_5RangeERKN7openpal6RSliceERNS_12IAPDUHandlerEEUlRSE_jE_E7ForeachERNS_8IVisitorIS3_EE
	.syntax unified
	.arm
	.fpu vfp
	.type	_ZNK8opendnp318BufferedCollectionINS_7IndexedINS_18AnalogOutputStatusEEEZNS_11RangeParser13InvokeRangeOfINS_11Group40Var1EEEvRKNS_12HeaderRecordERKNS_5RangeERKN7openpal6RSliceERNS_12IAPDUHandlerEEUlRSE_jE_E7ForeachERNS_8IVisitorIS3_EE, %function
_ZNK8opendnp318BufferedCollectionINS_7IndexedINS_18AnalogOutputStatusEEEZNS_11RangeParser13InvokeRangeOfINS_11Group40Var1EEEvRKNS_12HeaderRecordERKNS_5RangeERKN7openpal6RSliceERNS_12IAPDUHandlerEEUlRSE_jE_E7ForeachERNS_8IVisitorIS3_EE:
	.fnstart
.LFB3475:
	@ args = 0, pretend = 0, frame = 72
	@ frame_needed = 0, uses_anonymous_args = 0
	push	{r4, r5, r6, r7, r8, r9, r10, lr}
	.save {r4, r5, r6, r7, r8, r9, r10, lr}
	mov	r6, r0
	.pad #72
	sub	sp, sp, #72
	ldr	r3, [r0, #12]
	mov	r7, r1
	ldmib	r0, {r0, r1}
	add	r2, sp, #8
	cmp	r3, #0
	str	r2, [sp, #4]
	stm	r2, {r0, r1}
	beq	.L304
	mov	r4, #0
	add	r5, sp, #16
	add	r8, sp, #40
.L307:
	ldr	r3, [r7]
	mov	r0, r5
	ldr	r9, [r3]
	bl	_ZN8opendnp318AnalogOutputStatusC1Ev(PLT)
	mov	r1, r5
	ldr	r0, [sp, #4]
	bl	_ZN8opendnp311Group40Var110ReadTargetERN7openpal6RSliceERNS_18AnalogOutputStatusE(PLT)
	mov	lr, r5
	mov	ip, r8
	ldmia	lr!, {r0, r1, r2, r3}
	ldrh	r10, [r6, #16]
	stmia	ip!, {r0, r1, r2, r3}
	add	r10, r10, r4
	ldm	lr, {r0, r1}
	strh	r10, [sp, #64]	@ movhi
	add	r4, r4, #1
	stm	ip, {r0, r1}
	mov	r1, r8
	mov	r0, r7
	blx	r9
	ldr	r3, [r6, #12]
	cmp	r3, r4
	bhi	.L307
.L304:
	add	sp, sp, #72
	@ sp needed
	pop	{r4, r5, r6, r7, r8, r9, r10, pc}
	.fnend
	.size	_ZNK8opendnp318BufferedCollectionINS_7IndexedINS_18AnalogOutputStatusEEEZNS_11RangeParser13InvokeRangeOfINS_11Group40Var1EEEvRKNS_12HeaderRecordERKNS_5RangeERKN7openpal6RSliceERNS_12IAPDUHandlerEEUlRSE_jE_E7ForeachERNS_8IVisitorIS3_EE, .-_ZNK8opendnp318BufferedCollectionINS_7IndexedINS_18AnalogOutputStatusEEEZNS_11RangeParser13InvokeRangeOfINS_11Group40Var1EEEvRKNS_12HeaderRecordERKNS_5RangeERKN7openpal6RSliceERNS_12IAPDUHandlerEEUlRSE_jE_E7ForeachERNS_8IVisitorIS3_EE
	.section	.text._ZNK8opendnp318BufferedCollectionINS_7IndexedINS_18AnalogOutputStatusEEEZNS_11RangeParser13InvokeRangeOfINS_11Group40Var2EEEvRKNS_12HeaderRecordERKNS_5RangeERKN7openpal6RSliceERNS_12IAPDUHandlerEEUlRSE_jE_E7ForeachERNS_8IVisitorIS3_EE,"axG",%progbits,_ZNK8opendnp318BufferedCollectionINS_7IndexedINS_18AnalogOutputStatusEEEZNS_11RangeParser13InvokeRangeOfINS_11Group40Var2EEEvRKNS_12HeaderRecordERKNS_5RangeERKN7openpal6RSliceERNS_12IAPDUHandlerEEUlRSE_jE_E7ForeachERNS_8IVisitorIS3_EE,comdat
	.align	2
	.weak	_ZNK8opendnp318BufferedCollectionINS_7IndexedINS_18AnalogOutputStatusEEEZNS_11RangeParser13InvokeRangeOfINS_11Group40Var2EEEvRKNS_12HeaderRecordERKNS_5RangeERKN7openpal6RSliceERNS_12IAPDUHandlerEEUlRSE_jE_E7ForeachERNS_8IVisitorIS3_EE
	.syntax unified
	.arm
	.fpu vfp
	.type	_ZNK8opendnp318BufferedCollectionINS_7IndexedINS_18AnalogOutputStatusEEEZNS_11RangeParser13InvokeRangeOfINS_11Group40Var2EEEvRKNS_12HeaderRecordERKNS_5RangeERKN7openpal6RSliceERNS_12IAPDUHandlerEEUlRSE_jE_E7ForeachERNS_8IVisitorIS3_EE, %function
_ZNK8opendnp318BufferedCollectionINS_7IndexedINS_18AnalogOutputStatusEEEZNS_11RangeParser13InvokeRangeOfINS_11Group40Var2EEEvRKNS_12HeaderRecordERKNS_5RangeERKN7openpal6RSliceERNS_12IAPDUHandlerEEUlRSE_jE_E7ForeachERNS_8IVisitorIS3_EE:
	.fnstart
.LFB3473:
	@ args = 0, pretend = 0, frame = 64
	@ frame_needed = 0, uses_anonymous_args = 0
	push	{r4, r5, r6, r7, r8, r9, r10, fp, lr}
	.save {r4, r5, r6, r7, r8, r9, r10, fp, lr}
	mov	r6, r0
	ldr	r3, [r0, #12]
	mov	r7, r1
	ldmib	r0, {r0, r1}
	.pad #68
	sub	sp, sp, #68
	cmp	r3, #0
	stm	sp, {r0, r1}
	beq	.L309
	mov	r10, sp
	mov	r4, #0
	add	r5, sp, #8
	add	r8, sp, #32
.L312:
	ldr	r3, [r7]
	mov	r0, r5
	ldr	r9, [r3]
	bl	_ZN8opendnp318AnalogOutputStatusC1Ev(PLT)
	mov	r1, r5
	mov	r0, r10
	bl	_ZN8opendnp311Group40Var210ReadTargetERN7openpal6RSliceERNS_18AnalogOutputStatusE(PLT)
	mov	lr, r5
	mov	ip, r8
	ldmia	lr!, {r0, r1, r2, r3}
	ldrh	fp, [r6, #16]
	stmia	ip!, {r0, r1, r2, r3}
	add	fp, fp, r4
	ldm	lr, {r0, r1}
	strh	fp, [sp, #56]	@ movhi
	add	r4, r4, #1
	stm	ip, {r0, r1}
	mov	r1, r8
	mov	r0, r7
	blx	r9
	ldr	r3, [r6, #12]
	cmp	r3, r4
	bhi	.L312
.L309:
	add	sp, sp, #68
	@ sp needed
	pop	{r4, r5, r6, r7, r8, r9, r10, fp, pc}
	.fnend
	.size	_ZNK8opendnp318BufferedCollectionINS_7IndexedINS_18AnalogOutputStatusEEEZNS_11RangeParser13InvokeRangeOfINS_11Group40Var2EEEvRKNS_12HeaderRecordERKNS_5RangeERKN7openpal6RSliceERNS_12IAPDUHandlerEEUlRSE_jE_E7ForeachERNS_8IVisitorIS3_EE, .-_ZNK8opendnp318BufferedCollectionINS_7IndexedINS_18AnalogOutputStatusEEEZNS_11RangeParser13InvokeRangeOfINS_11Group40Var2EEEvRKNS_12HeaderRecordERKNS_5RangeERKN7openpal6RSliceERNS_12IAPDUHandlerEEUlRSE_jE_E7ForeachERNS_8IVisitorIS3_EE
	.section	.text._ZNK8opendnp318BufferedCollectionINS_7IndexedINS_18AnalogOutputStatusEEEZNS_11RangeParser13InvokeRangeOfINS_11Group40Var3EEEvRKNS_12HeaderRecordERKNS_5RangeERKN7openpal6RSliceERNS_12IAPDUHandlerEEUlRSE_jE_E7ForeachERNS_8IVisitorIS3_EE,"axG",%progbits,_ZNK8opendnp318BufferedCollectionINS_7IndexedINS_18AnalogOutputStatusEEEZNS_11RangeParser13InvokeRangeOfINS_11Group40Var3EEEvRKNS_12HeaderRecordERKNS_5RangeERKN7openpal6RSliceERNS_12IAPDUHandlerEEUlRSE_jE_E7ForeachERNS_8IVisitorIS3_EE,comdat
	.align	2
	.weak	_ZNK8opendnp318BufferedCollectionINS_7IndexedINS_18AnalogOutputStatusEEEZNS_11RangeParser13InvokeRangeOfINS_11Group40Var3EEEvRKNS_12HeaderRecordERKNS_5RangeERKN7openpal6RSliceERNS_12IAPDUHandlerEEUlRSE_jE_E7ForeachERNS_8IVisitorIS3_EE
	.syntax unified
	.arm
	.fpu vfp
	.type	_ZNK8opendnp318BufferedCollectionINS_7IndexedINS_18AnalogOutputStatusEEEZNS_11RangeParser13InvokeRangeOfINS_11Group40Var3EEEvRKNS_12HeaderRecordERKNS_5RangeERKN7openpal6RSliceERNS_12IAPDUHandlerEEUlRSE_jE_E7ForeachERNS_8IVisitorIS3_EE, %function
_ZNK8opendnp318BufferedCollectionINS_7IndexedINS_18AnalogOutputStatusEEEZNS_11RangeParser13InvokeRangeOfINS_11Group40Var3EEEvRKNS_12HeaderRecordERKNS_5RangeERKN7openpal6RSliceERNS_12IAPDUHandlerEEUlRSE_jE_E7ForeachERNS_8IVisitorIS3_EE:
	.fnstart
.LFB3471:
	@ args = 0, pretend = 0, frame = 64
	@ frame_needed = 0, uses_anonymous_args = 0
	push	{r4, r5, r6, r7, r8, r9, r10, fp, lr}
	.save {r4, r5, r6, r7, r8, r9, r10, fp, lr}
	mov	r6, r0
	ldr	r3, [r0, #12]
	mov	r7, r1
	ldmib	r0, {r0, r1}
	.pad #68
	sub	sp, sp, #68
	cmp	r3, #0
	stm	sp, {r0, r1}
	beq	.L314
	mov	r10, sp
	mov	r4, #0
	add	r5, sp, #8
	add	r8, sp, #32
.L317:
	ldr	r3, [r7]
	mov	r0, r5
	ldr	r9, [r3]
	bl	_ZN8opendnp318AnalogOutputStatusC1Ev(PLT)
	mov	r1, r5
	mov	r0, r10
	bl	_ZN8opendnp311Group40Var310ReadTargetERN7openpal6RSliceERNS_18AnalogOutputStatusE(PLT)
	mov	lr, r5
	mov	ip, r8
	ldmia	lr!, {r0, r1, r2, r3}
	ldrh	fp, [r6, #16]
	stmia	ip!, {r0, r1, r2, r3}
	add	fp, fp, r4
	ldm	lr, {r0, r1}
	strh	fp, [sp, #56]	@ movhi
	add	r4, r4, #1
	stm	ip, {r0, r1}
	mov	r1, r8
	mov	r0, r7
	blx	r9
	ldr	r3, [r6, #12]
	cmp	r3, r4
	bhi	.L317
.L314:
	add	sp, sp, #68
	@ sp needed
	pop	{r4, r5, r6, r7, r8, r9, r10, fp, pc}
	.fnend
	.size	_ZNK8opendnp318BufferedCollectionINS_7IndexedINS_18AnalogOutputStatusEEEZNS_11RangeParser13InvokeRangeOfINS_11Group40Var3EEEvRKNS_12HeaderRecordERKNS_5RangeERKN7openpal6RSliceERNS_12IAPDUHandlerEEUlRSE_jE_E7ForeachERNS_8IVisitorIS3_EE, .-_ZNK8opendnp318BufferedCollectionINS_7IndexedINS_18AnalogOutputStatusEEEZNS_11RangeParser13InvokeRangeOfINS_11Group40Var3EEEvRKNS_12HeaderRecordERKNS_5RangeERKN7openpal6RSliceERNS_12IAPDUHandlerEEUlRSE_jE_E7ForeachERNS_8IVisitorIS3_EE
	.section	.text._ZNK8opendnp318BufferedCollectionINS_7IndexedINS_18AnalogOutputStatusEEEZNS_11RangeParser13InvokeRangeOfINS_11Group40Var4EEEvRKNS_12HeaderRecordERKNS_5RangeERKN7openpal6RSliceERNS_12IAPDUHandlerEEUlRSE_jE_E7ForeachERNS_8IVisitorIS3_EE,"axG",%progbits,_ZNK8opendnp318BufferedCollectionINS_7IndexedINS_18AnalogOutputStatusEEEZNS_11RangeParser13InvokeRangeOfINS_11Group40Var4EEEvRKNS_12HeaderRecordERKNS_5RangeERKN7openpal6RSliceERNS_12IAPDUHandlerEEUlRSE_jE_E7ForeachERNS_8IVisitorIS3_EE,comdat
	.align	2
	.weak	_ZNK8opendnp318BufferedCollectionINS_7IndexedINS_18AnalogOutputStatusEEEZNS_11RangeParser13InvokeRangeOfINS_11Group40Var4EEEvRKNS_12HeaderRecordERKNS_5RangeERKN7openpal6RSliceERNS_12IAPDUHandlerEEUlRSE_jE_E7ForeachERNS_8IVisitorIS3_EE
	.syntax unified
	.arm
	.fpu vfp
	.type	_ZNK8opendnp318BufferedCollectionINS_7IndexedINS_18AnalogOutputStatusEEEZNS_11RangeParser13InvokeRangeOfINS_11Group40Var4EEEvRKNS_12HeaderRecordERKNS_5RangeERKN7openpal6RSliceERNS_12IAPDUHandlerEEUlRSE_jE_E7ForeachERNS_8IVisitorIS3_EE, %function
_ZNK8opendnp318BufferedCollectionINS_7IndexedINS_18AnalogOutputStatusEEEZNS_11RangeParser13InvokeRangeOfINS_11Group40Var4EEEvRKNS_12HeaderRecordERKNS_5RangeERKN7openpal6RSliceERNS_12IAPDUHandlerEEUlRSE_jE_E7ForeachERNS_8IVisitorIS3_EE:
	.fnstart
.LFB3469:
	@ args = 0, pretend = 0, frame = 64
	@ frame_needed = 0, uses_anonymous_args = 0
	push	{r4, r5, r6, r7, r8, r9, r10, fp, lr}
	.save {r4, r5, r6, r7, r8, r9, r10, fp, lr}
	mov	r6, r0
	ldr	r3, [r0, #12]
	mov	r7, r1
	ldmib	r0, {r0, r1}
	.pad #68
	sub	sp, sp, #68
	cmp	r3, #0
	stm	sp, {r0, r1}
	beq	.L319
	mov	r10, sp
	mov	r4, #0
	add	r5, sp, #8
	add	r8, sp, #32
.L322:
	ldr	r3, [r7]
	mov	r0, r5
	ldr	r9, [r3]
	bl	_ZN8opendnp318AnalogOutputStatusC1Ev(PLT)
	mov	r1, r5
	mov	r0, r10
	bl	_ZN8opendnp311Group40Var410ReadTargetERN7openpal6RSliceERNS_18AnalogOutputStatusE(PLT)
	mov	lr, r5
	mov	ip, r8
	ldmia	lr!, {r0, r1, r2, r3}
	ldrh	fp, [r6, #16]
	stmia	ip!, {r0, r1, r2, r3}
	add	fp, fp, r4
	ldm	lr, {r0, r1}
	strh	fp, [sp, #56]	@ movhi
	add	r4, r4, #1
	stm	ip, {r0, r1}
	mov	r1, r8
	mov	r0, r7
	blx	r9
	ldr	r3, [r6, #12]
	cmp	r3, r4
	bhi	.L322
.L319:
	add	sp, sp, #68
	@ sp needed
	pop	{r4, r5, r6, r7, r8, r9, r10, fp, pc}
	.fnend
	.size	_ZNK8opendnp318BufferedCollectionINS_7IndexedINS_18AnalogOutputStatusEEEZNS_11RangeParser13InvokeRangeOfINS_11Group40Var4EEEvRKNS_12HeaderRecordERKNS_5RangeERKN7openpal6RSliceERNS_12IAPDUHandlerEEUlRSE_jE_E7ForeachERNS_8IVisitorIS3_EE, .-_ZNK8opendnp318BufferedCollectionINS_7IndexedINS_18AnalogOutputStatusEEEZNS_11RangeParser13InvokeRangeOfINS_11Group40Var4EEEvRKNS_12HeaderRecordERKNS_5RangeERKN7openpal6RSliceERNS_12IAPDUHandlerEEUlRSE_jE_E7ForeachERNS_8IVisitorIS3_EE
	.section	.text._ZN8opendnp311RangeParser13InvokeRangeOfINS_11Group50Var4EEEvRKNS_12HeaderRecordERKNS_5RangeERKN7openpal6RSliceERNS_12IAPDUHandlerE,"axG",%progbits,_ZN8opendnp311RangeParser13InvokeRangeOfINS_11Group50Var4EEEvRKNS_12HeaderRecordERKNS_5RangeERKN7openpal6RSliceERNS_12IAPDUHandlerE,comdat
	.align	2
	.weak	_ZN8opendnp311RangeParser13InvokeRangeOfINS_11Group50Var4EEEvRKNS_12HeaderRecordERKNS_5RangeERKN7openpal6RSliceERNS_12IAPDUHandlerE
	.syntax unified
	.arm
	.fpu vfp
	.type	_ZN8opendnp311RangeParser13InvokeRangeOfINS_11Group50Var4EEEvRKNS_12HeaderRecordERKNS_5RangeERKN7openpal6RSliceERNS_12IAPDUHandlerE, %function
_ZN8opendnp311RangeParser13InvokeRangeOfINS_11Group50Var4EEEvRKNS_12HeaderRecordERKNS_5RangeERKN7openpal6RSliceERNS_12IAPDUHandlerE:
	.fnstart
.LFB2985:
	@ args = 0, pretend = 0, frame = 40
	@ frame_needed = 0, uses_anonymous_args = 0
	push	{r4, r5, r6, r7, r8, lr}
	.save {r4, r5, r6, r7, r8, lr}
	mov	r8, r3
	ldr	r4, .L328
	ldr	r3, .L328+4
.LPIC26:
	add	r4, pc, r4
	.pad #40
	sub	sp, sp, #40
	ldrh	r6, [r1]
	ldrh	r5, [r1, #2]
	mov	lr, r1
	mov	ip, r0
	ldm	r2, {r0, r1}
	ldr	r4, [r4, r3]
	add	r3, sp, #4
	cmp	r6, r5
	stm	r3, {r0, r1}
	ldm	ip, {r0, r1, r2, r3}
	add	ip, r4, #8
	str	ip, [sp]
	add	ip, sp, #20
	addle	r7, r5, #1
	stm	ip, {r0, r1, r2, r3}
	suble	r7, r7, r6
	ldr	r0, [lr]	@ unaligned
	movgt	r7, #0
	str	r0, [sp, #36]
	mov	r1, ip
	mov	r2, sp
	mov	r0, r8
	str	r7, [sp, #12]
	strh	r6, [sp, #16]	@ movhi
	strh	r5, [sp, #18]	@ movhi
	bl	_ZN8opendnp312IAPDUHandler8OnHeaderERKNS_11RangeHeaderERKNS_11ICollectionINS_7IndexedINS_15TimeAndIntervalEEEEE(PLT)
	add	sp, sp, #40
	@ sp needed
	pop	{r4, r5, r6, r7, r8, pc}
.L329:
	.align	2
.L328:
	.word	_GLOBAL_OFFSET_TABLE_-(.LPIC26+8)
	.word	_ZTVN8opendnp318BufferedCollectionINS_7IndexedINS_15TimeAndIntervalEEEZNS_11RangeParser13InvokeRangeOfINS_11Group50Var4EEEvRKNS_12HeaderRecordERKNS_5RangeERKN7openpal6RSliceERNS_12IAPDUHandlerEEUlRSE_jE_EE(GOT)
	.fnend
	.size	_ZN8opendnp311RangeParser13InvokeRangeOfINS_11Group50Var4EEEvRKNS_12HeaderRecordERKNS_5RangeERKN7openpal6RSliceERNS_12IAPDUHandlerE, .-_ZN8opendnp311RangeParser13InvokeRangeOfINS_11Group50Var4EEEvRKNS_12HeaderRecordERKNS_5RangeERKN7openpal6RSliceERNS_12IAPDUHandlerE
	.section	.text._ZNK8opendnp318BufferedCollectionINS_7IndexedINS_15TimeAndIntervalEEEZNS_11RangeParser13InvokeRangeOfINS_11Group50Var4EEEvRKNS_12HeaderRecordERKNS_5RangeERKN7openpal6RSliceERNS_12IAPDUHandlerEEUlRSE_jE_E7ForeachERNS_8IVisitorIS3_EE,"axG",%progbits,_ZNK8opendnp318BufferedCollectionINS_7IndexedINS_15TimeAndIntervalEEEZNS_11RangeParser13InvokeRangeOfINS_11Group50Var4EEEvRKNS_12HeaderRecordERKNS_5RangeERKN7openpal6RSliceERNS_12IAPDUHandlerEEUlRSE_jE_E7ForeachERNS_8IVisitorIS3_EE,comdat
	.align	2
	.weak	_ZNK8opendnp318BufferedCollectionINS_7IndexedINS_15TimeAndIntervalEEEZNS_11RangeParser13InvokeRangeOfINS_11Group50Var4EEEvRKNS_12HeaderRecordERKNS_5RangeERKN7openpal6RSliceERNS_12IAPDUHandlerEEUlRSE_jE_E7ForeachERNS_8IVisitorIS3_EE
	.syntax unified
	.arm
	.fpu vfp
	.type	_ZNK8opendnp318BufferedCollectionINS_7IndexedINS_15TimeAndIntervalEEEZNS_11RangeParser13InvokeRangeOfINS_11Group50Var4EEEvRKNS_12HeaderRecordERKNS_5RangeERKN7openpal6RSliceERNS_12IAPDUHandlerEEUlRSE_jE_E7ForeachERNS_8IVisitorIS3_EE, %function
_ZNK8opendnp318BufferedCollectionINS_7IndexedINS_15TimeAndIntervalEEEZNS_11RangeParser13InvokeRangeOfINS_11Group50Var4EEEvRKNS_12HeaderRecordERKNS_5RangeERKN7openpal6RSliceERNS_12IAPDUHandlerEEUlRSE_jE_E7ForeachERNS_8IVisitorIS3_EE:
	.fnstart
.LFB3467:
	@ args = 0, pretend = 0, frame = 56
	@ frame_needed = 0, uses_anonymous_args = 0
	push	{r4, r5, r6, r7, r8, r9, lr}
	.save {r4, r5, r6, r7, r8, r9, lr}
	mov	r7, r0
	.pad #60
	sub	sp, sp, #60
	ldr	r3, [r0, #12]
	mov	r8, r1
	ldmib	r0, {r0, r1}
	add	r2, sp, #8
	cmp	r3, #0
	str	r2, [sp, #4]
	stm	r2, {r0, r1}
	beq	.L330
	mov	r6, #0
	add	r4, sp, #16
	add	r5, sp, #32
.L333:
	ldr	r3, [r8]
	mov	r0, r4
	ldr	r9, [r3]
	bl	_ZN8opendnp315TimeAndIntervalC1Ev(PLT)
	mov	r1, r4
	ldr	r0, [sp, #4]
	bl	_ZN8opendnp311Group50Var410ReadTargetERN7openpal6RSliceERNS_15TimeAndIntervalE(PLT)
	ldm	r4, {r0, r1, r2, r3}
	ldrh	ip, [r7, #16]
	stm	r5, {r0, r1, r2, r3}
	add	ip, ip, r6
	strh	ip, [sp, #48]	@ movhi
	mov	r1, r5
	mov	r0, r8
	blx	r9
	ldr	r3, [r7, #12]
	add	r6, r6, #1
	cmp	r3, r6
	bhi	.L333
.L330:
	add	sp, sp, #60
	@ sp needed
	pop	{r4, r5, r6, r7, r8, r9, pc}
	.fnend
	.size	_ZNK8opendnp318BufferedCollectionINS_7IndexedINS_15TimeAndIntervalEEEZNS_11RangeParser13InvokeRangeOfINS_11Group50Var4EEEvRKNS_12HeaderRecordERKNS_5RangeERKN7openpal6RSliceERNS_12IAPDUHandlerEEUlRSE_jE_E7ForeachERNS_8IVisitorIS3_EE, .-_ZNK8opendnp318BufferedCollectionINS_7IndexedINS_15TimeAndIntervalEEEZNS_11RangeParser13InvokeRangeOfINS_11Group50Var4EEEvRKNS_12HeaderRecordERKNS_5RangeERKN7openpal6RSliceERNS_12IAPDUHandlerEEUlRSE_jE_E7ForeachERNS_8IVisitorIS3_EE
	.section	.text._ZN8opendnp311RangeParser23InvokeRangeBitfieldTypeINS_8IINValueEEEvRKNS_12HeaderRecordERKNS_5RangeERKN7openpal6RSliceERNS_12IAPDUHandlerE,"axG",%progbits,_ZN8opendnp311RangeParser23InvokeRangeBitfieldTypeINS_8IINValueEEEvRKNS_12HeaderRecordERKNS_5RangeERKN7openpal6RSliceERNS_12IAPDUHandlerE,comdat
	.align	2
	.weak	_ZN8opendnp311RangeParser23InvokeRangeBitfieldTypeINS_8IINValueEEEvRKNS_12HeaderRecordERKNS_5RangeERKN7openpal6RSliceERNS_12IAPDUHandlerE
	.syntax unified
	.arm
	.fpu vfp
	.type	_ZN8opendnp311RangeParser23InvokeRangeBitfieldTypeINS_8IINValueEEEvRKNS_12HeaderRecordERKNS_5RangeERKN7openpal6RSliceERNS_12IAPDUHandlerE, %function
_ZN8opendnp311RangeParser23InvokeRangeBitfieldTypeINS_8IINValueEEEvRKNS_12HeaderRecordERKNS_5RangeERKN7openpal6RSliceERNS_12IAPDUHandlerE:
	.fnstart
.LFB2993:
	@ args = 0, pretend = 0, frame = 40
	@ frame_needed = 0, uses_anonymous_args = 0
	push	{r4, r5, r6, r7, r8, lr}
	.save {r4, r5, r6, r7, r8, lr}
	mov	r8, r3
	ldr	r4, .L339
	ldr	r3, .L339+4
.LPIC27:
	add	r4, pc, r4
	.pad #40
	sub	sp, sp, #40
	ldrh	r6, [r1]
	ldrh	r5, [r1, #2]
	mov	lr, r1
	mov	ip, r0
	ldm	r2, {r0, r1}
	ldr	r4, [r4, r3]
	add	r3, sp, #4
	cmp	r6, r5
	stm	r3, {r0, r1}
	ldm	ip, {r0, r1, r2, r3}
	add	ip, r4, #8
	str	ip, [sp]
	add	ip, sp, #20
	addle	r7, r5, #1
	stm	ip, {r0, r1, r2, r3}
	suble	r7, r7, r6
	ldr	r0, [lr]	@ unaligned
	movgt	r7, #0
	str	r0, [sp, #36]
	mov	r1, ip
	mov	r2, sp
	mov	r0, r8
	str	r7, [sp, #12]
	strh	r6, [sp, #16]	@ movhi
	strh	r5, [sp, #18]	@ movhi
	bl	_ZN8opendnp312IAPDUHandler8OnHeaderERKNS_11RangeHeaderERKNS_11ICollectionINS_7IndexedINS_8IINValueEEEEE(PLT)
	add	sp, sp, #40
	@ sp needed
	pop	{r4, r5, r6, r7, r8, pc}
.L340:
	.align	2
.L339:
	.word	_GLOBAL_OFFSET_TABLE_-(.LPIC27+8)
	.word	_ZTVN8opendnp318BufferedCollectionINS_7IndexedINS_8IINValueEEEZNS_11RangeParser23InvokeRangeBitfieldTypeIS2_EEvRKNS_12HeaderRecordERKNS_5RangeERKN7openpal6RSliceERNS_12IAPDUHandlerEEUlRSD_jE_EE(GOT)
	.fnend
	.size	_ZN8opendnp311RangeParser23InvokeRangeBitfieldTypeINS_8IINValueEEEvRKNS_12HeaderRecordERKNS_5RangeERKN7openpal6RSliceERNS_12IAPDUHandlerE, .-_ZN8opendnp311RangeParser23InvokeRangeBitfieldTypeINS_8IINValueEEEvRKNS_12HeaderRecordERKNS_5RangeERKN7openpal6RSliceERNS_12IAPDUHandlerE
	.section	.text._ZN8opendnp311RangeParser17InvokeRangeOfTypeINS_12Group121Var1EEEvRKNS_12HeaderRecordERKNS_5RangeERKN7openpal6RSliceERNS_12IAPDUHandlerE,"axG",%progbits,_ZN8opendnp311RangeParser17InvokeRangeOfTypeINS_12Group121Var1EEEvRKNS_12HeaderRecordERKNS_5RangeERKN7openpal6RSliceERNS_12IAPDUHandlerE,comdat
	.align	2
	.weak	_ZN8opendnp311RangeParser17InvokeRangeOfTypeINS_12Group121Var1EEEvRKNS_12HeaderRecordERKNS_5RangeERKN7openpal6RSliceERNS_12IAPDUHandlerE
	.syntax unified
	.arm
	.fpu vfp
	.type	_ZN8opendnp311RangeParser17InvokeRangeOfTypeINS_12Group121Var1EEEvRKNS_12HeaderRecordERKNS_5RangeERKN7openpal6RSliceERNS_12IAPDUHandlerE, %function
_ZN8opendnp311RangeParser17InvokeRangeOfTypeINS_12Group121Var1EEEvRKNS_12HeaderRecordERKNS_5RangeERKN7openpal6RSliceERNS_12IAPDUHandlerE:
	.fnstart
.LFB3001:
	@ args = 0, pretend = 0, frame = 40
	@ frame_needed = 0, uses_anonymous_args = 0
	push	{r4, r5, r6, r7, r8, lr}
	.save {r4, r5, r6, r7, r8, lr}
	mov	r8, r3
	ldr	r4, .L345
	ldr	r3, .L345+4
.LPIC28:
	add	r4, pc, r4
	.pad #40
	sub	sp, sp, #40
	ldrh	r6, [r1]
	ldrh	r5, [r1, #2]
	mov	lr, r1
	mov	ip, r0
	ldm	r2, {r0, r1}
	ldr	r4, [r4, r3]
	add	r3, sp, #4
	cmp	r6, r5
	stm	r3, {r0, r1}
	ldm	ip, {r0, r1, r2, r3}
	add	ip, r4, #8
	str	ip, [sp]
	add	ip, sp, #20
	addle	r7, r5, #1
	stm	ip, {r0, r1, r2, r3}
	suble	r7, r7, r6
	ldr	r0, [lr]	@ unaligned
	movgt	r7, #0
	str	r0, [sp, #36]
	mov	r1, ip
	mov	r2, sp
	mov	r0, r8
	str	r7, [sp, #12]
	strh	r6, [sp, #16]	@ movhi
	strh	r5, [sp, #18]	@ movhi
	bl	_ZN8opendnp312IAPDUHandler8OnHeaderERKNS_11RangeHeaderERKNS_11ICollectionINS_7IndexedINS_12Group121Var1EEEEE(PLT)
	add	sp, sp, #40
	@ sp needed
	pop	{r4, r5, r6, r7, r8, pc}
.L346:
	.align	2
.L345:
	.word	_GLOBAL_OFFSET_TABLE_-(.LPIC28+8)
	.word	_ZTVN8opendnp318BufferedCollectionINS_7IndexedINS_12Group121Var1EEEZNS_11RangeParser17InvokeRangeOfTypeIS2_EEvRKNS_12HeaderRecordERKNS_5RangeERKN7openpal6RSliceERNS_12IAPDUHandlerEEUlRSD_jE_EE(GOT)
	.fnend
	.size	_ZN8opendnp311RangeParser17InvokeRangeOfTypeINS_12Group121Var1EEEvRKNS_12HeaderRecordERKNS_5RangeERKN7openpal6RSliceERNS_12IAPDUHandlerE, .-_ZN8opendnp311RangeParser17InvokeRangeOfTypeINS_12Group121Var1EEEvRKNS_12HeaderRecordERKNS_5RangeERKN7openpal6RSliceERNS_12IAPDUHandlerE
	.section	.text._ZNK8opendnp318BufferedCollectionINS_7IndexedINS_12Group121Var1EEEZNS_11RangeParser17InvokeRangeOfTypeIS2_EEvRKNS_12HeaderRecordERKNS_5RangeERKN7openpal6RSliceERNS_12IAPDUHandlerEEUlRSD_jE_E7ForeachERNS_8IVisitorIS3_EE,"axG",%progbits,_ZNK8opendnp318BufferedCollectionINS_7IndexedINS_12Group121Var1EEEZNS_11RangeParser17InvokeRangeOfTypeIS2_EEvRKNS_12HeaderRecordERKNS_5RangeERKN7openpal6RSliceERNS_12IAPDUHandlerEEUlRSD_jE_E7ForeachERNS_8IVisitorIS3_EE,comdat
	.align	2
	.weak	_ZNK8opendnp318BufferedCollectionINS_7IndexedINS_12Group121Var1EEEZNS_11RangeParser17InvokeRangeOfTypeIS2_EEvRKNS_12HeaderRecordERKNS_5RangeERKN7openpal6RSliceERNS_12IAPDUHandlerEEUlRSD_jE_E7ForeachERNS_8IVisitorIS3_EE
	.syntax unified
	.arm
	.fpu vfp
	.type	_ZNK8opendnp318BufferedCollectionINS_7IndexedINS_12Group121Var1EEEZNS_11RangeParser17InvokeRangeOfTypeIS2_EEvRKNS_12HeaderRecordERKNS_5RangeERKN7openpal6RSliceERNS_12IAPDUHandlerEEUlRSD_jE_E7ForeachERNS_8IVisitorIS3_EE, %function
_ZNK8opendnp318BufferedCollectionINS_7IndexedINS_12Group121Var1EEEZNS_11RangeParser17InvokeRangeOfTypeIS2_EEvRKNS_12HeaderRecordERKNS_5RangeERKN7openpal6RSliceERNS_12IAPDUHandlerEEUlRSD_jE_E7ForeachERNS_8IVisitorIS3_EE:
	.fnstart
.LFB3463:
	@ args = 0, pretend = 0, frame = 40
	@ frame_needed = 0, uses_anonymous_args = 0
	push	{r4, r5, r6, r7, r8, r9, lr}
	.save {r4, r5, r6, r7, r8, r9, lr}
	mov	r6, r0
	ldr	r3, [r0, #12]
	.pad #44
	sub	sp, sp, #44
	mov	r7, r1
	ldmib	r0, {r0, r1}
	add	r8, sp, #12
	cmp	r3, #0
	stm	r8, {r0, r1}
	beq	.L347
	mov	r4, #0
	add	r5, sp, #28
	add	r3, sp, #20
	str	r3, [sp, #4]
.L350:
	ldr	r3, [r7]
	ldr	r0, [sp, #4]
	ldr	r9, [r3]
	bl	_ZN8opendnp312Group121Var1C1Ev(PLT)
	ldr	r1, [sp, #4]
	mov	r0, r8
	bl	_ZN8opendnp312Group121Var14ReadERN7openpal6RSliceERS0_(PLT)
	ldr	r2, [sp, #4]
	ldrh	r3, [r6, #16]
	ldm	r2, {r0, r1}
	add	r3, r3, r4
	strh	r3, [sp, #36]	@ movhi
	stm	r5, {r0, r1}
	mov	r1, r5
	mov	r0, r7
	blx	r9
	ldr	r3, [r6, #12]
	add	r4, r4, #1
	cmp	r3, r4
	bhi	.L350
.L347:
	add	sp, sp, #44
	@ sp needed
	pop	{r4, r5, r6, r7, r8, r9, pc}
	.fnend
	.size	_ZNK8opendnp318BufferedCollectionINS_7IndexedINS_12Group121Var1EEEZNS_11RangeParser17InvokeRangeOfTypeIS2_EEvRKNS_12HeaderRecordERKNS_5RangeERKN7openpal6RSliceERNS_12IAPDUHandlerEEUlRSD_jE_E7ForeachERNS_8IVisitorIS3_EE, .-_ZNK8opendnp318BufferedCollectionINS_7IndexedINS_12Group121Var1EEEZNS_11RangeParser17InvokeRangeOfTypeIS2_EEvRKNS_12HeaderRecordERKNS_5RangeERKN7openpal6RSliceERNS_12IAPDUHandlerEEUlRSD_jE_E7ForeachERNS_8IVisitorIS3_EE
	.section	.text._ZN7openpal12StaticBufferILj255EED0Ev,"axG",%progbits,_ZN7openpal12StaticBufferILj255EED5Ev,comdat
	.align	2
	.weak	_ZN7openpal12StaticBufferILj255EED0Ev
	.syntax unified
	.arm
	.fpu vfp
	.type	_ZN7openpal12StaticBufferILj255EED0Ev, %function
_ZN7openpal12StaticBufferILj255EED0Ev:
	.fnstart
.LFB2634:
	@ args = 0, pretend = 0, frame = 0
	@ frame_needed = 0, uses_anonymous_args = 0
	push	{r4, lr}
	mov	r1, #260
	mov	r4, r0
	bl	_ZdlPvj(PLT)
	mov	r0, r4
	pop	{r4, pc}
	.cantunwind
	.fnend
	.size	_ZN7openpal12StaticBufferILj255EED0Ev, .-_ZN7openpal12StaticBufferILj255EED0Ev
	.text
	.align	2
	.syntax unified
	.arm
	.fpu vfp
	.type	_ZNK8opendnp318BufferedCollectionINS_7IndexedINS_11OctetStringEEEZNS_11RangeParser21ParseRangeOfOctetDataERN7openpal6RSliceERKNS_12HeaderRecordERKNS_5RangeEPNS5_6LoggerEPNS_12IAPDUHandlerEEUlS7_jE_E7ForeachERNS_8IVisitorIS3_EE, %function
_ZNK8opendnp318BufferedCollectionINS_7IndexedINS_11OctetStringEEEZNS_11RangeParser21ParseRangeOfOctetDataERN7openpal6RSliceERKNS_12HeaderRecordERKNS_5RangeEPNS5_6LoggerEPNS_12IAPDUHandlerEEUlS7_jE_E7ForeachERNS_8IVisitorIS3_EE:
	.fnstart
.LFB3521:
	@ args = 0, pretend = 0, frame = 560
	@ frame_needed = 0, uses_anonymous_args = 0
	push	{r4, r5, r6, r7, r8, r9, r10, fp, lr}
	.save {r4, r5, r6, r7, r8, r9, r10, fp, lr}
	mov	r5, r0
	.pad #564
	sub	sp, sp, #564
	ldr	r3, [r0, #12]
	mov	r9, r1
	ldmib	r0, {r0, r1}
	add	r8, sp, #20
	ldr	r2, .L359
	cmp	r3, #0
	stm	r8, {r0, r1}
.LPIC29:
	add	r2, pc, r2
	beq	.L354
	ldr	r3, .L359+4
	mov	r6, #0
	add	r7, sp, #292
	ldr	r3, [r2, r3]
	add	fp, sp, #28
	add	r3, r3, #8
	str	r3, [sp]
	add	r3, sp, #296
	str	r3, [sp, #4]
	add	r3, sp, #32
	str	r3, [sp, #12]
	add	r3, sp, #556
	str	r3, [sp, #8]
.L357:
	ldr	r3, [r9]
	ldrb	r2, [r5, #29]	@ zero_extendqisi2
	mov	r1, r8
	mov	r0, r7
	ldr	r10, [r3]
	bl	_ZNK7openpal6RSlice4TakeEj(PLT)
	mov	r1, r7
	mov	r0, fp
	bl	_ZN8opendnp39OctetDataC2ERKN7openpal6RSliceE(PLT)
	ldrb	r1, [r5, #29]	@ zero_extendqisi2
	mov	r0, r8
	bl	_ZN7openpal6RSlice7AdvanceEj(PLT)
	ldrh	r4, [r5, #16]
	ldr	r3, [sp]
	mov	r2, #255
	ldr	r1, [sp, #12]
	ldr	r0, [sp, #4]
	add	r4, r4, r6
	str	r3, [sp, #292]
	bl	memcpy(PLT)
	ldr	r3, [sp, #8]
	ldrb	r2, [sp, #288]	@ zero_extendqisi2
	uxth	r4, r4
	strh	r4, [r3]	@ movhi
	mov	r1, r7
	strb	r2, [sp, #552]
	mov	r0, r9
	blx	r10
	ldr	r3, [r5, #12]
	add	r6, r6, #1
	cmp	r3, r6
	bhi	.L357
.L354:
	add	sp, sp, #564
	@ sp needed
	pop	{r4, r5, r6, r7, r8, r9, r10, fp, pc}
.L360:
	.align	2
.L359:
	.word	_GLOBAL_OFFSET_TABLE_-(.LPIC29+8)
	.word	_ZTVN7openpal12StaticBufferILj255EEE(GOT)
	.fnend
	.size	_ZNK8opendnp318BufferedCollectionINS_7IndexedINS_11OctetStringEEEZNS_11RangeParser21ParseRangeOfOctetDataERN7openpal6RSliceERKNS_12HeaderRecordERKNS_5RangeEPNS5_6LoggerEPNS_12IAPDUHandlerEEUlS7_jE_E7ForeachERNS_8IVisitorIS3_EE, .-_ZNK8opendnp318BufferedCollectionINS_7IndexedINS_11OctetStringEEEZNS_11RangeParser21ParseRangeOfOctetDataERN7openpal6RSliceERKNS_12HeaderRecordERKNS_5RangeEPNS5_6LoggerEPNS_12IAPDUHandlerEEUlS7_jE_E7ForeachERNS_8IVisitorIS3_EE
	.align	2
	.global	_ZN8opendnp311RangeParserC2ERKNS_5RangeEjPFvRKNS_12HeaderRecordES3_RKN7openpal6RSliceERNS_12IAPDUHandlerEE
	.syntax unified
	.arm
	.fpu vfp
	.type	_ZN8opendnp311RangeParserC2ERKNS_5RangeEjPFvRKNS_12HeaderRecordES3_RKN7openpal6RSliceERNS_12IAPDUHandlerEE, %function
_ZN8opendnp311RangeParserC2ERKNS_5RangeEjPFvRKNS_12HeaderRecordES3_RKN7openpal6RSliceERNS_12IAPDUHandlerEE:
	.fnstart
.LFB2370:
	@ args = 0, pretend = 0, frame = 0
	@ frame_needed = 0, uses_anonymous_args = 0
	@ link register save eliminated.
	mov	ip, r0
	ldr	r0, [r1]	@ unaligned
	stm	ip, {r0, r2, r3}
	mov	r0, ip
	bx	lr
	.cantunwind
	.fnend
	.size	_ZN8opendnp311RangeParserC2ERKNS_5RangeEjPFvRKNS_12HeaderRecordES3_RKN7openpal6RSliceERNS_12IAPDUHandlerEE, .-_ZN8opendnp311RangeParserC2ERKNS_5RangeEjPFvRKNS_12HeaderRecordES3_RKN7openpal6RSliceERNS_12IAPDUHandlerEE
	.global	_ZN8opendnp311RangeParserC1ERKNS_5RangeEjPFvRKNS_12HeaderRecordES3_RKN7openpal6RSliceERNS_12IAPDUHandlerEE
	.set	_ZN8opendnp311RangeParserC1ERKNS_5RangeEjPFvRKNS_12HeaderRecordES3_RKN7openpal6RSliceERNS_12IAPDUHandlerEE,_ZN8opendnp311RangeParserC2ERKNS_5RangeEjPFvRKNS_12HeaderRecordES3_RKN7openpal6RSliceERNS_12IAPDUHandlerEE
	.align	2
	.global	_ZNK8opendnp311RangeParser7ProcessERKNS_12HeaderRecordERN7openpal6RSliceEPNS_12IAPDUHandlerEPNS4_6LoggerE
	.syntax unified
	.arm
	.fpu vfp
	.type	_ZNK8opendnp311RangeParser7ProcessERKNS_12HeaderRecordERN7openpal6RSliceEPNS_12IAPDUHandlerEPNS4_6LoggerE, %function
_ZNK8opendnp311RangeParser7ProcessERKNS_12HeaderRecordERN7openpal6RSliceEPNS_12IAPDUHandlerEPNS4_6LoggerE:
	.fnstart
.LFB2373:
	@ args = 4, pretend = 0, frame = 8
	@ frame_needed = 0, uses_anonymous_args = 0
	push	{r4, r5, r6, lr}
	.save {r4, r5, r6, lr}
	.pad #8
	sub	sp, sp, #8
	ldr	ip, [r0, #4]
	ldr	lr, [r2]
	cmp	lr, ip
	bcs	.L363
	ldr	r3, [sp, #24]
	cmp	r3, #0
	beq	.L367
	add	r1, sp, #8
	mov	r4, #4
	mov	r0, r3
	str	r4, [r1, #-8]!
	bl	_ZNK7openpal6Logger9IsEnabledERKNS_10LogFiltersE(PLT)
	cmp	r0, #0
	beq	.L367
	add	r1, sp, #8
	ldr	r3, .L374
	ldr	r2, .L374+4
	ldr	r0, [sp, #24]
.LPIC30:
	add	r3, pc, r3
	str	r4, [r1, #-4]!
.LPIC31:
	add	r2, pc, r2
	bl	_ZN7openpal6Logger3LogERKNS_10LogFiltersEPKcS5_(PLT)
	mov	r0, r4
	add	sp, sp, #8
	@ sp needed
	pop	{r4, r5, r6, pc}
.L363:
	cmp	r3, #0
	mov	r5, r2
	beq	.L368
	mov	r4, r0
	mov	r0, r1
	ldr	r6, [r4, #8]
	mov	r1, r4
	blx	r6
	ldr	ip, [r4, #4]
.L368:
	mov	r0, r5
	mov	r1, ip
	bl	_ZN7openpal6RSlice7AdvanceEj(PLT)
	mov	r0, #0
	add	sp, sp, #8
	@ sp needed
	pop	{r4, r5, r6, pc}
.L367:
	mov	r0, #4
	add	sp, sp, #8
	@ sp needed
	pop	{r4, r5, r6, pc}
.L375:
	.align	2
.L374:
	.word	.LC0-(.LPIC30+8)
	.word	.LC1-(.LPIC31+8)
	.fnend
	.size	_ZNK8opendnp311RangeParser7ProcessERKNS_12HeaderRecordERN7openpal6RSliceEPNS_12IAPDUHandlerEPNS4_6LoggerE, .-_ZNK8opendnp311RangeParser7ProcessERKNS_12HeaderRecordERN7openpal6RSliceEPNS_12IAPDUHandlerEPNS4_6LoggerE
	.align	2
	.global	_ZN8opendnp311RangeParser21ParseRangeOfOctetDataERN7openpal6RSliceERKNS_12HeaderRecordERKNS_5RangeEPNS1_6LoggerEPNS_12IAPDUHandlerE
	.syntax unified
	.arm
	.fpu vfp
	.type	_ZN8opendnp311RangeParser21ParseRangeOfOctetDataERN7openpal6RSliceERKNS_12HeaderRecordERKNS_5RangeEPNS1_6LoggerEPNS_12IAPDUHandlerE, %function
_ZN8opendnp311RangeParser21ParseRangeOfOctetDataERN7openpal6RSliceERKNS_12HeaderRecordERKNS_5RangeEPNS1_6LoggerEPNS_12IAPDUHandlerE:
	.fnstart
.LFB2375:
	@ args = 4, pretend = 0, frame = 80
	@ frame_needed = 0, uses_anonymous_args = 0
	push	{r4, r5, r6, r7, r8, lr}
	.save {r4, r5, r6, r7, r8, lr}
	mov	lr, r1
	ldrb	r1, [r1, #9]	@ zero_extendqisi2
	.pad #80
	sub	sp, sp, #80
	mov	r7, r3
	cmp	r1, #0
	beq	.L377
	ldrh	ip, [r2]
	mov	r5, r2
	ldrh	r2, [r2, #2]
	mov	r6, r0
	cmp	ip, r2
	ble	.L394
	mov	ip, #0
	mov	r4, ip
.L378:
	ldr	r3, [sp, #104]
	cmp	r3, #0
	beq	.L383
	ldr	r0, [r5]	@ unaligned
	str	ip, [sp, #56]
	str	r0, [sp, #4]
	ldm	lr, {r0, r1, r2, r3}
	add	ip, sp, #8
	add	r7, sp, #4
	ldr	r8, .L395
	stm	ip, {r0, r1, r2, r3}
	add	r3, sp, #48
	ldm	r6, {r0, r1}
	add	ip, sp, #60
.LPIC32:
	add	r8, pc, r8
	stm	r3, {r0, r1}
	ldmia	r7!, {r0, r1, r2, r3}
	add	r8, r8, #8
	str	r8, [sp, #44]
	stmia	ip!, {r0, r1, r2, r3}
	ldm	lr, {r0, r1, r2, r3}
	ldr	lr, [r7]
	str	lr, [ip]
	add	ip, sp, #24
	stm	ip, {r0, r1, r2, r3}
	mov	r1, ip
	ldr	r0, [r5]	@ unaligned
	add	r2, sp, #44
	str	r0, [sp, #40]
	ldr	r0, [sp, #104]
	bl	_ZN8opendnp312IAPDUHandler8OnHeaderERKNS_11RangeHeaderERKNS_11ICollectionINS_7IndexedINS_11OctetStringEEEEE(PLT)
.L383:
	mov	r0, r6
	mov	r1, r4
	bl	_ZN7openpal6RSlice7AdvanceEj(PLT)
	mov	r0, #0
	add	sp, sp, #80
	@ sp needed
	pop	{r4, r5, r6, r7, r8, pc}
.L394:
	add	r2, r2, #1
	sub	ip, r2, ip
	ldr	r3, [r0]
	mul	r4, ip, r1
	cmp	r4, r3
	bls	.L378
	cmp	r7, #0
	beq	.L382
	add	r1, sp, #80
	mov	r4, #4
	str	r4, [r1, #-76]!
	mov	r0, r7
	bl	_ZNK7openpal6Logger9IsEnabledERKNS_10LogFiltersE(PLT)
	cmp	r0, #0
	beq	.L382
	add	r1, sp, #80
	ldr	r3, .L395+4
	ldr	r2, .L395+8
	mov	r0, r7
	str	r4, [r1, #-36]!
.LPIC33:
	add	r3, pc, r3
.LPIC34:
	add	r2, pc, r2
	bl	_ZN7openpal6Logger3LogERKNS_10LogFiltersEPKcS5_(PLT)
	mov	r0, r4
	add	sp, sp, #80
	@ sp needed
	pop	{r4, r5, r6, r7, r8, pc}
.L382:
	mov	r0, #4
	add	sp, sp, #80
	@ sp needed
	pop	{r4, r5, r6, r7, r8, pc}
.L377:
	cmp	r3, #0
	beq	.L393
	add	r1, sp, #80
	mov	r4, #4
	str	r4, [r1, #-56]!
	mov	r0, r3
	bl	_ZNK7openpal6Logger9IsEnabledERKNS_10LogFiltersE(PLT)
	cmp	r0, #0
	beq	.L393
	add	r1, sp, #80
	ldr	r3, .L395+12
	ldr	r2, .L395+16
	mov	r0, r7
	str	r4, [r1, #-36]!
.LPIC35:
	add	r3, pc, r3
.LPIC36:
	add	r2, pc, r2
	bl	_ZN7openpal6Logger3LogERKNS_10LogFiltersEPKcS5_(PLT)
.L393:
	mov	r0, #9
	add	sp, sp, #80
	@ sp needed
	pop	{r4, r5, r6, r7, r8, pc}
.L396:
	.align	2
.L395:
	.word	.LANCHOR0-(.LPIC32+8)
	.word	.LC2-(.LPIC33+8)
	.word	.LC3-(.LPIC34+8)
	.word	.LC4-(.LPIC35+8)
	.word	.LC5-(.LPIC36+8)
	.fnend
	.size	_ZN8opendnp311RangeParser21ParseRangeOfOctetDataERN7openpal6RSliceERKNS_12HeaderRecordERKNS_5RangeEPNS1_6LoggerEPNS_12IAPDUHandlerE, .-_ZN8opendnp311RangeParser21ParseRangeOfOctetDataERN7openpal6RSliceERKNS_12HeaderRecordERKNS_5RangeEPNS1_6LoggerEPNS_12IAPDUHandlerE
	.align	2
	.global	_ZN8opendnp311RangeParser19ParseRangeOfObjectsERN7openpal6RSliceERKNS_12HeaderRecordERKNS_5RangeEPNS1_6LoggerEPNS_12IAPDUHandlerE
	.syntax unified
	.arm
	.fpu vfp
	.type	_ZN8opendnp311RangeParser19ParseRangeOfObjectsERN7openpal6RSliceERKNS_12HeaderRecordERKNS_5RangeEPNS1_6LoggerEPNS_12IAPDUHandlerE, %function
_ZN8opendnp311RangeParser19ParseRangeOfObjectsERN7openpal6RSliceERKNS_12HeaderRecordERKNS_5RangeEPNS1_6LoggerEPNS_12IAPDUHandlerE:
	.fnstart
.LFB2374:
	@ args = 4, pretend = 0, frame = 128
	@ frame_needed = 0, uses_anonymous_args = 0
	ldrh	ip, [r1]
	push	{r4, r5, r6, r7, r8, lr}
	.save {r4, r5, r6, r7, r8, lr}
	mov	r5, r1
	ldr	lr, .L514
	ldr	r6, .L514+4
	cmp	ip, lr
.LPIC37:
	add	r6, pc, r6
	.pad #136
	sub	sp, sp, #136
	mov	r8, r0
	mov	r4, r2
	mov	r7, r3
	beq	.L399
	bls	.L507
	ldr	lr, .L514+8
	cmp	ip, lr
	beq	.L418
	bhi	.L419
	ldr	r3, .L514+12
	cmp	ip, r3
	beq	.L420
	bls	.L508
	ldr	r3, .L514+16
	cmp	ip, r3
	beq	.L425
	bcc	.L426
	add	r3, r3, #1
	cmp	ip, r3
	bne	.L398
	ldrh	r3, [r2, #2]
	ldrh	r1, [r2]
	cmp	r1, r3
	addle	r2, r3, #1
	suble	r2, r2, r1
	movgt	r2, #0
	addle	r2, r2, r2, lsl #3
	ldr	r3, .L514+20
	b	.L502
.L507:
	ldr	r3, .L514+24
	cmp	ip, r3
	beq	.L401
	bls	.L509
	ldr	r3, .L514+28
	cmp	ip, r3
	beq	.L410
	bls	.L510
	ldr	r3, .L514+32
	cmp	ip, r3
	beq	.L415
	add	r3, r3, #1
	cmp	ip, r3
	beq	.L416
	sub	r3, r3, #4
	cmp	ip, r3
	beq	.L511
.L398:
	cmp	r7, #0
	beq	.L501
	add	r1, sp, #136
	mov	r4, #4
	str	r4, [r1, #-128]!
	mov	r0, r7
	bl	_ZNK7openpal6Logger9IsEnabledERKNS_10LogFiltersE(PLT)
	cmp	r0, #0
	beq	.L501
	mov	r0, r5
	bl	_ZNK8opendnp312HeaderRecord16GetQualifierCodeEv(PLT)
	bl	_ZN8opendnp321QualifierCodeToStringENS_13QualifierCodeE(PLT)
	ldrb	r2, [r5, #9]	@ zero_extendqisi2
	ldrb	r3, [r5, #8]	@ zero_extendqisi2
	add	r5, sp, #16
	str	r2, [sp, #4]
	ldr	r2, .L514+36
	str	r3, [sp]
.LPIC38:
	add	r2, pc, r2
	mov	r1, #120
	mov	r3, r0
	mov	r0, r5
	bl	snprintf(PLT)
	add	r1, sp, #136
	ldr	r2, .L514+40
	mov	r3, r5
	mov	r0, r7
	str	r4, [r1, #-124]!
.LPIC39:
	add	r2, pc, r2
	bl	_ZN7openpal6Logger3LogERKNS_10LogFiltersEPKcS5_(PLT)
.L501:
	mov	r0, #8
	b	.L498
.L419:
	ldr	lr, .L514+44
	cmp	ip, lr
	beq	.L428
	bls	.L512
	cmp	ip, #28160
	beq	.L433
	ldr	r3, .L514+48
	cmp	ip, r3
	beq	.L434
	sub	r3, r3, #10496
	cmp	ip, r3
	bne	.L398
	ldrh	r3, [r2, #2]
	ldrh	r0, [r2]
	cmp	r0, r3
	addle	r3, r3, #1
	suble	r0, r3, r0
	movgt	r0, #0
	bl	_ZN8opendnp314NumBytesInBitsEj(PLT)
	ldr	r3, .L514+52
	mov	r1, r4
	ldr	r3, [r6, r3]
	mov	r2, r0
	b	.L500
.L509:
	sub	r3, r3, #4352
	cmp	ip, r3
	beq	.L403
	bls	.L513
	ldr	r3, .L514+56
	cmp	ip, r3
	beq	.L407
	add	r3, r3, #1
	cmp	ip, r3
	beq	.L408
	sub	r3, r3, #1792
	cmp	ip, r3
	bne	.L398
	ldrh	r3, [r4, #2]
	ldrh	r2, [r2]
	cmp	r2, r3
	addle	r3, r3, #1
	suble	r2, r3, r2
	movgt	r2, #0
	ldr	r3, .L514+60
	b	.L502
.L512:
	ldr	r3, .L514+64
	cmp	ip, r3
	beq	.L430
	bcc	.L431
	add	r3, r3, #1
	cmp	ip, r3
	bne	.L398
	ldrh	r3, [r2, #2]
	ldrh	r1, [r2]
	cmp	r1, r3
	addle	r2, r3, #1
	suble	r2, r2, r1
	movgt	r2, #0
	addle	r2, r2, r2, lsl #3
	ldr	r3, .L514+68
	b	.L502
.L510:
	sub	r3, r3, #252
	cmp	ip, r3
	beq	.L412
	add	r3, r3, #1
	cmp	ip, r3
	beq	.L413
	sub	r3, r3, #4
	cmp	ip, r3
	bne	.L398
	ldrh	r3, [r2, #2]
	ldrh	r1, [r2]
	cmp	r1, r3
	addle	r2, r3, #1
	suble	r2, r2, r1
	movgt	r2, #0
	addle	r2, r2, r2, lsl #1
	ldr	r3, .L514+72
	b	.L502
.L508:
	sub	r3, r3, #2
	cmp	ip, r3
	beq	.L422
	bhi	.L423
	ldr	r3, .L514+76
	cmp	ip, r3
	bne	.L398
	ldrh	r3, [r2, #2]
	ldrh	r1, [r2]
	cmp	r1, r3
	addle	r2, r3, #1
	suble	r2, r2, r1
	movgt	r2, #0
	lslle	r2, r2, #1
	ldr	r3, .L514+80
	b	.L502
.L513:
	sub	r3, r3, #512
	cmp	ip, r3
	beq	.L405
	add	r3, r3, #1
	cmp	ip, r3
	bne	.L398
	ldrh	r3, [r4, #2]
	ldrh	r2, [r2]
	cmp	r2, r3
	addle	r3, r3, #1
	suble	r2, r3, r2
	ldr	r3, .L514+84
	movgt	r2, #0
.L502:
	ldr	r3, [r6, r3]
	mov	r1, r4
.L500:
	add	r4, sp, #16
	mov	r0, r4
	bl	_ZN8opendnp311RangeParserC1ERKNS_5RangeEjPFvRKNS_12HeaderRecordES3_RKN7openpal6RSliceERNS_12IAPDUHandlerEE(PLT)
	mov	r0, r4
	str	r7, [sp]
	mov	r2, r8
	mov	r1, r5
	ldr	r3, [sp, #160]
	bl	_ZNK8opendnp311RangeParser7ProcessERKNS_12HeaderRecordERN7openpal6RSliceEPNS_12IAPDUHandlerEPNS4_6LoggerE(PLT)
.L498:
	add	sp, sp, #136
	@ sp needed
	pop	{r4, r5, r6, r7, r8, pc}
.L405:
	ldrh	r3, [r2, #2]
	ldrh	r0, [r2]
	cmp	r0, r3
	addle	r3, r3, #1
	suble	r0, r3, r0
	movgt	r0, #0
	bl	_ZN8opendnp314NumBytesInBitsEj(PLT)
	ldr	r3, .L514+88
	mov	r1, r4
	ldr	r3, [r6, r3]
	mov	r2, r0
	b	.L500
.L423:
	ldrh	r3, [r2, #2]
	ldrh	r1, [r2]
	cmp	r1, r3
	addle	r2, r3, #1
	suble	r2, r2, r1
	movgt	r2, #0
	addle	r2, r2, r2, lsl #1
	ldr	r3, .L514+92
	b	.L502
.L426:
	ldrh	r3, [r2, #2]
	ldrh	r1, [r2]
	cmp	r1, r3
	addle	r2, r3, #1
	suble	r2, r2, r1
	movgt	r2, #0
	lslle	r2, r2, #1
	ldr	r3, .L514+96
	b	.L502
.L403:
	ldrh	r3, [r2, #2]
	ldrh	r0, [r2]
	cmp	r0, r3
	addle	r3, r3, #1
	suble	r0, r3, r0
	movgt	r0, #0
	bl	_ZN8opendnp320NumBytesInDoubleBitsEj(PLT)
	ldr	r3, .L514+100
	mov	r1, r4
	ldr	r3, [r6, r3]
	mov	r2, r0
	b	.L500
.L431:
	ldrh	r3, [r2, #2]
	ldrh	r1, [r2]
	cmp	r1, r3
	addle	r2, r3, #1
	suble	r2, r2, r1
	movgt	r2, #0
	addle	r2, r2, r2, lsl #1
	ldr	r3, .L514+104
	b	.L502
.L416:
	ldrh	r3, [r2, #2]
	ldrh	r1, [r2]
	cmp	r1, r3
	addle	r2, r3, #1
	suble	r2, r2, r1
	movgt	r2, #0
	addle	r2, r2, r2, lsl #3
	ldr	r3, .L514+108
	b	.L502
.L434:
	ldrh	r3, [r2, #2]
	ldrh	r1, [r2]
	cmp	r1, r3
	addle	r2, r3, #1
	suble	r2, r2, r1
	movgt	r2, #0
	rsble	r2, r2, r2, lsl #3
	ldr	r3, .L514+112
	b	.L502
.L413:
	ldrh	r3, [r2, #2]
	ldrh	r1, [r2]
	cmp	r1, r3
	addle	r2, r3, #1
	suble	r2, r2, r1
	movgt	r2, #0
	lslle	r2, r2, #1
	ldr	r3, .L514+116
	b	.L502
.L408:
	ldrh	r3, [r4, #2]
	ldrh	r2, [r2]
	cmp	r2, r3
	addle	r3, r3, #1
	suble	r2, r3, r2
	movgt	r2, #0
	ldr	r3, .L514+120
	b	.L502
.L415:
	ldrh	r3, [r4, #2]
	ldrh	r2, [r2]
	cmp	r2, r3
	addle	r3, r3, #1
	suble	r3, r3, r2
	movgt	r2, #0
	addle	r2, r3, r3, lsl #2
	addle	r2, r3, r2, lsl #1
	ldr	r3, .L514+124
	b	.L502
.L433:
	ldr	ip, [sp, #160]
	str	ip, [sp]
	bl	_ZN8opendnp311RangeParser21ParseRangeOfOctetDataERN7openpal6RSliceERKNS_12HeaderRecordERKNS_5RangeEPNS1_6LoggerEPNS_12IAPDUHandlerE(PLT)
	b	.L498
.L511:
	ldrh	r3, [r2, #2]
	ldrh	r1, [r2]
	cmp	r1, r3
	addle	r2, r3, #1
	suble	r2, r2, r1
	movgt	r2, #0
	addle	r2, r2, r2, lsl #1
	ldr	r3, .L514+128
	b	.L502
.L422:
	ldrh	r3, [r2, #2]
	ldrh	r1, [r2]
	cmp	r1, r3
	addle	r2, r3, #1
	suble	r2, r2, r1
	movgt	r2, #0
	addle	r2, r2, r2, lsl #2
	ldr	r3, .L514+132
	b	.L502
.L425:
	ldrh	r3, [r2, #2]
	ldrh	r1, [r2]
	cmp	r1, r3
	addle	r2, r3, #1
	suble	r2, r2, r1
	movgt	r2, #0
	addle	r2, r2, r2, lsl #2
	ldr	r3, .L514+136
	b	.L502
.L430:
	ldrh	r3, [r2, #2]
	ldrh	r1, [r2]
	cmp	r1, r3
	addle	r2, r3, #1
	suble	r2, r2, r1
	movgt	r2, #0
	addle	r2, r2, r2, lsl #2
	ldr	r3, .L514+140
	b	.L502
.L412:
	ldrh	r3, [r2, #2]
	ldrh	r1, [r2]
	cmp	r1, r3
	addle	r2, r3, #1
	suble	r2, r2, r1
	movgt	r2, #0
	lslle	r2, r2, #2
	ldr	r3, .L514+144
	b	.L502
.L407:
	ldrh	r3, [r2, #2]
	ldrh	r0, [r2]
	cmp	r0, r3
	addle	r3, r3, #1
	suble	r0, r3, r0
	movgt	r0, #0
	bl	_ZN8opendnp314NumBytesInBitsEj(PLT)
	ldr	r3, .L514+148
	mov	r1, r4
	ldr	r3, [r6, r3]
	mov	r2, r0
	b	.L500
.L399:
	ldrh	r3, [r2, #2]
	ldrh	r1, [r2]
	cmp	r1, r3
	addle	r2, r3, #1
	suble	r2, r2, r1
	movgt	r2, #0
	lslle	r2, r2, #2
	ldr	r3, .L514+152
	b	.L502
.L418:
	ldrh	r3, [r2, #2]
	ldrh	r1, [r2]
	cmp	r1, r3
	addle	r2, r3, #1
	suble	r2, r2, r1
	movgt	r2, #0
	addle	r2, r2, r2, lsl #2
	ldr	r3, .L514+156
	b	.L502
.L420:
	ldrh	r3, [r2, #2]
	ldrh	r1, [r2]
	cmp	r1, r3
	addle	r2, r3, #1
	suble	r2, r2, r1
	movgt	r2, #0
	lslle	r2, r2, #2
	ldr	r3, .L514+160
	b	.L502
.L401:
	ldrh	r3, [r2, #2]
	ldrh	r1, [r2]
	cmp	r1, r3
	addle	r2, r3, #1
	suble	r2, r2, r1
	movgt	r2, #0
	addle	r2, r2, r2, lsl #2
	ldr	r3, .L514+164
	b	.L502
.L410:
	ldrh	r3, [r2, #2]
	ldrh	r1, [r2]
	cmp	r1, r3
	addle	r2, r3, #1
	suble	r2, r2, r1
	movgt	r2, #0
	addle	r2, r2, r2, lsl #2
	ldr	r3, .L514+168
	b	.L502
.L428:
	ldrh	r3, [r4, #2]
	ldrh	r2, [r2]
	cmp	r2, r3
	addle	r3, r3, #1
	suble	r3, r3, r2
	movgt	r2, #0
	addle	r2, r3, r3, lsl #2
	addle	r2, r3, r2, lsl #1
	ldr	r3, .L514+172
	b	.L502
.L515:
	.align	2
.L514:
	.word	5385
	.word	_GLOBAL_OFFSET_TABLE_-(.LPIC37+8)
	.word	10241
	.word	7683
	.word	7685
	.word	_ZN8opendnp311RangeParser13InvokeRangeOfINS_11Group30Var6EEEvRKNS_12HeaderRecordERKNS_5RangeERKN7openpal6RSliceERNS_12IAPDUHandlerE(GOT)
	.word	5121
	.word	5377
	.word	5381
	.word	.LC6-(.LPIC38+8)
	.word	.LC7-(.LPIC39+8)
	.word	12804
	.word	30977
	.word	_ZN8opendnp311RangeParser23InvokeRangeBitfieldTypeINS_8IINValueEEEvRKNS_12HeaderRecordERKNS_5RangeERKN7openpal6RSliceERNS_12IAPDUHandlerE(GOT)
	.word	2561
	.word	_ZN8opendnp311RangeParser13InvokeRangeOfINS_10Group3Var2EEEvRKNS_12HeaderRecordERKNS_5RangeERKN7openpal6RSliceERNS_12IAPDUHandlerE(GOT)
	.word	10243
	.word	_ZN8opendnp311RangeParser13InvokeRangeOfINS_11Group40Var4EEEvRKNS_12HeaderRecordERKNS_5RangeERKN7openpal6RSliceERNS_12IAPDUHandlerE(GOT)
	.word	_ZN8opendnp311RangeParser13InvokeRangeOfINS_11Group20Var2EEEvRKNS_12HeaderRecordERKNS_5RangeERKN7openpal6RSliceERNS_12IAPDUHandlerE(GOT)
	.word	5386
	.word	_ZN8opendnp311RangeParser13InvokeRangeOfINS_12Group21Var10EEEvRKNS_12HeaderRecordERKNS_5RangeERKN7openpal6RSliceERNS_12IAPDUHandlerE(GOT)
	.word	_ZN8opendnp311RangeParser13InvokeRangeOfINS_10Group1Var2EEEvRKNS_12HeaderRecordERKNS_5RangeERKN7openpal6RSliceERNS_12IAPDUHandlerE(GOT)
	.word	_ZN8opendnp311RangeParser23InvokeRangeBitfieldTypeINS_6BinaryEEEvRKNS_12HeaderRecordERKNS_5RangeERKN7openpal6RSliceERNS_12IAPDUHandlerE(GOT)
	.word	_ZN8opendnp311RangeParser13InvokeRangeOfINS_11Group30Var2EEEvRKNS_12HeaderRecordERKNS_5RangeERKN7openpal6RSliceERNS_12IAPDUHandlerE(GOT)
	.word	_ZN8opendnp311RangeParser13InvokeRangeOfINS_11Group30Var4EEEvRKNS_12HeaderRecordERKNS_5RangeERKN7openpal6RSliceERNS_12IAPDUHandlerE(GOT)
	.word	_ZN8opendnp311RangeParser29InvokeRangeDoubleBitfieldTypeINS_15DoubleBitBinaryEEEvRKNS_12HeaderRecordERKNS_5RangeERKN7openpal6RSliceERNS_12IAPDUHandlerE(GOT)
	.word	_ZN8opendnp311RangeParser13InvokeRangeOfINS_11Group40Var2EEEvRKNS_12HeaderRecordERKNS_5RangeERKN7openpal6RSliceERNS_12IAPDUHandlerE(GOT)
	.word	_ZN8opendnp311RangeParser13InvokeRangeOfINS_11Group21Var6EEEvRKNS_12HeaderRecordERKNS_5RangeERKN7openpal6RSliceERNS_12IAPDUHandlerE(GOT)
	.word	_ZN8opendnp311RangeParser17InvokeRangeOfTypeINS_12Group121Var1EEEvRKNS_12HeaderRecordERKNS_5RangeERKN7openpal6RSliceERNS_12IAPDUHandlerE(GOT)
	.word	_ZN8opendnp311RangeParser13InvokeRangeOfINS_11Group20Var6EEEvRKNS_12HeaderRecordERKNS_5RangeERKN7openpal6RSliceERNS_12IAPDUHandlerE(GOT)
	.word	_ZN8opendnp311RangeParser13InvokeRangeOfINS_11Group10Var2EEEvRKNS_12HeaderRecordERKNS_5RangeERKN7openpal6RSliceERNS_12IAPDUHandlerE(GOT)
	.word	_ZN8opendnp311RangeParser13InvokeRangeOfINS_11Group21Var5EEEvRKNS_12HeaderRecordERKNS_5RangeERKN7openpal6RSliceERNS_12IAPDUHandlerE(GOT)
	.word	_ZN8opendnp311RangeParser13InvokeRangeOfINS_11Group21Var2EEEvRKNS_12HeaderRecordERKNS_5RangeERKN7openpal6RSliceERNS_12IAPDUHandlerE(GOT)
	.word	_ZN8opendnp311RangeParser13InvokeRangeOfINS_11Group30Var1EEEvRKNS_12HeaderRecordERKNS_5RangeERKN7openpal6RSliceERNS_12IAPDUHandlerE(GOT)
	.word	_ZN8opendnp311RangeParser13InvokeRangeOfINS_11Group30Var5EEEvRKNS_12HeaderRecordERKNS_5RangeERKN7openpal6RSliceERNS_12IAPDUHandlerE(GOT)
	.word	_ZN8opendnp311RangeParser13InvokeRangeOfINS_11Group40Var3EEEvRKNS_12HeaderRecordERKNS_5RangeERKN7openpal6RSliceERNS_12IAPDUHandlerE(GOT)
	.word	_ZN8opendnp311RangeParser13InvokeRangeOfINS_11Group20Var5EEEvRKNS_12HeaderRecordERKNS_5RangeERKN7openpal6RSliceERNS_12IAPDUHandlerE(GOT)
	.word	_ZN8opendnp311RangeParser23InvokeRangeBitfieldTypeINS_18BinaryOutputStatusEEEvRKNS_12HeaderRecordERKNS_5RangeERKN7openpal6RSliceERNS_12IAPDUHandlerE(GOT)
	.word	_ZN8opendnp311RangeParser13InvokeRangeOfINS_11Group21Var9EEEvRKNS_12HeaderRecordERKNS_5RangeERKN7openpal6RSliceERNS_12IAPDUHandlerE(GOT)
	.word	_ZN8opendnp311RangeParser13InvokeRangeOfINS_11Group40Var1EEEvRKNS_12HeaderRecordERKNS_5RangeERKN7openpal6RSliceERNS_12IAPDUHandlerE(GOT)
	.word	_ZN8opendnp311RangeParser13InvokeRangeOfINS_11Group30Var3EEEvRKNS_12HeaderRecordERKNS_5RangeERKN7openpal6RSliceERNS_12IAPDUHandlerE(GOT)
	.word	_ZN8opendnp311RangeParser13InvokeRangeOfINS_11Group20Var1EEEvRKNS_12HeaderRecordERKNS_5RangeERKN7openpal6RSliceERNS_12IAPDUHandlerE(GOT)
	.word	_ZN8opendnp311RangeParser13InvokeRangeOfINS_11Group21Var1EEEvRKNS_12HeaderRecordERKNS_5RangeERKN7openpal6RSliceERNS_12IAPDUHandlerE(GOT)
	.word	_ZN8opendnp311RangeParser13InvokeRangeOfINS_11Group50Var4EEEvRKNS_12HeaderRecordERKNS_5RangeERKN7openpal6RSliceERNS_12IAPDUHandlerE(GOT)
	.fnend
	.size	_ZN8opendnp311RangeParser19ParseRangeOfObjectsERN7openpal6RSliceERKNS_12HeaderRecordERKNS_5RangeEPNS1_6LoggerEPNS_12IAPDUHandlerE, .-_ZN8opendnp311RangeParser19ParseRangeOfObjectsERN7openpal6RSliceERKNS_12HeaderRecordERKNS_5RangeEPNS1_6LoggerEPNS_12IAPDUHandlerE
	.align	2
	.global	_ZN8opendnp311RangeParser11ParseHeaderERN7openpal6RSliceERKNS_9NumParserERKNS_14ParserSettingsERKNS_12HeaderRecordEPNS1_6LoggerEPNS_12IAPDUHandlerE
	.syntax unified
	.arm
	.fpu vfp
	.type	_ZN8opendnp311RangeParser11ParseHeaderERN7openpal6RSliceERKNS_9NumParserERKNS_14ParserSettingsERKNS_12HeaderRecordEPNS1_6LoggerEPNS_12IAPDUHandlerE, %function
_ZN8opendnp311RangeParser11ParseHeaderERN7openpal6RSliceERKNS_9NumParserERKNS_14ParserSettingsERKNS_12HeaderRecordEPNS1_6LoggerEPNS_12IAPDUHandlerE:
	.fnstart
.LFB2372:
	@ args = 8, pretend = 0, frame = 136
	@ frame_needed = 0, uses_anonymous_args = 0
	push	{r4, r5, r6, r7, r8, r9, r10, fp, lr}
	.save {r4, r5, r6, r7, r8, r9, r10, fp, lr}
	.pad #164
	sub	sp, sp, #164
	add	r4, sp, #160
	mov	r8, r0
	mov	ip, #1
	mov	r0, r1
	str	ip, [r4, #-132]!
	mov	r6, r2
	mov	r5, r3
	mov	r2, r4
	ldr	r3, [sp, #200]
	mov	r1, r8
	bl	_ZNK8opendnp39NumParser10ParseRangeERN7openpal6RSliceERNS_5RangeEPNS1_6LoggerE(PLT)
	subs	r7, r0, #0
	bne	.L523
	ldr	r3, [sp, #200]
	cmp	r3, #0
	beq	.L519
	mov	r0, r3
	add	r1, sp, #160
	ldr	r3, [r6, #4]
	str	r3, [r1, #-128]!
	bl	_ZNK7openpal6Logger9IsEnabledERKNS_10LogFiltersE(PLT)
	cmp	r0, #0
	beq	.L519
	ldrh	r0, [r5]
	ldrb	r9, [r5, #8]	@ zero_extendqisi2
	ldrb	r10, [r5, #9]	@ zero_extendqisi2
	bl	_ZN8opendnp322GroupVariationToStringENS_14GroupVariationE(PLT)
	mov	fp, r0
	mov	r0, r5
	bl	_ZNK8opendnp312HeaderRecord16GetQualifierCodeEv(PLT)
	bl	_ZN8opendnp321QualifierCodeToStringENS_13QualifierCodeE(PLT)
	ldrh	r2, [sp, #28]
	ldrh	r1, [sp, #30]
	mov	r3, r9
	str	r2, [sp, #12]
	ldr	r2, .L529
	add	r9, sp, #40
	str	r1, [sp, #16]
.LPIC40:
	add	r2, pc, r2
	mov	r1, #120
	stm	sp, {r10, fp}
	str	r0, [sp, #8]
	mov	r0, r9
	bl	snprintf(PLT)
	ldr	r2, [r6, #4]
	add	r1, sp, #160
	mov	r3, r9
	str	r2, [r1, #-124]!
	ldr	r2, .L529+4
	ldr	r0, [sp, #200]
.LPIC41:
	add	r2, pc, r2
	bl	_ZN7openpal6Logger3LogERKNS_10LogFiltersEPKcS5_(PLT)
.L519:
	ldrb	r3, [r6]	@ zero_extendqisi2
	cmp	r3, #0
	ldr	r3, [sp, #204]
	bne	.L528
	cmp	r3, #0
	beq	.L523
	ldm	r5, {r0, r1, r2, r3}
	add	ip, sp, #40
	ldr	lr, [sp, #28]
	stm	ip, {r0, r1, r2, r3}
	mov	r1, ip
	ldr	r0, [sp, #204]
	str	lr, [sp, #56]
	bl	_ZN8opendnp312IAPDUHandler8OnHeaderERKNS_11RangeHeaderE(PLT)
.L523:
	mov	r0, r7
	add	sp, sp, #164
	@ sp needed
	pop	{r4, r5, r6, r7, r8, r9, r10, fp, pc}
.L528:
	str	r3, [sp]
	mov	r2, r4
	mov	r1, r5
	mov	r0, r8
	ldr	r3, [sp, #200]
	bl	_ZN8opendnp311RangeParser19ParseRangeOfObjectsERN7openpal6RSliceERKNS_12HeaderRecordERKNS_5RangeEPNS1_6LoggerEPNS_12IAPDUHandlerE(PLT)
	mov	r7, r0
	mov	r0, r7
	add	sp, sp, #164
	@ sp needed
	pop	{r4, r5, r6, r7, r8, r9, r10, fp, pc}
.L530:
	.align	2
.L529:
	.word	.LC8-(.LPIC40+8)
	.word	.LC9-(.LPIC41+8)
	.fnend
	.size	_ZN8opendnp311RangeParser11ParseHeaderERN7openpal6RSliceERKNS_9NumParserERKNS_14ParserSettingsERKNS_12HeaderRecordEPNS1_6LoggerEPNS_12IAPDUHandlerE, .-_ZN8opendnp311RangeParser11ParseHeaderERN7openpal6RSliceERKNS_9NumParserERKNS_14ParserSettingsERKNS_12HeaderRecordEPNS1_6LoggerEPNS_12IAPDUHandlerE
	.weak	_ZTSN7openpal12StaticBufferILj255EEE
	.section	.rodata._ZTSN7openpal12StaticBufferILj255EEE,"aG",%progbits,_ZTSN7openpal12StaticBufferILj255EEE,comdat
	.align	2
	.type	_ZTSN7openpal12StaticBufferILj255EEE, %object
	.size	_ZTSN7openpal12StaticBufferILj255EEE, 33
_ZTSN7openpal12StaticBufferILj255EEE:
	.ascii	"N7openpal12StaticBufferILj255EEE\000"
	.weak	_ZTIN7openpal12StaticBufferILj255EEE
	.section	.data.rel.ro._ZTIN7openpal12StaticBufferILj255EEE,"awG",%progbits,_ZTIN7openpal12StaticBufferILj255EEE,comdat
	.align	2
	.type	_ZTIN7openpal12StaticBufferILj255EEE, %object
	.size	_ZTIN7openpal12StaticBufferILj255EEE, 8
_ZTIN7openpal12StaticBufferILj255EEE:
	.word	_ZTVN10__cxxabiv117__class_type_infoE+8
	.word	_ZTSN7openpal12StaticBufferILj255EEE
	.weak	_ZTSN8opendnp311ICollectionINS_7IndexedINS_11OctetStringEEEEE
	.section	.rodata._ZTSN8opendnp311ICollectionINS_7IndexedINS_11OctetStringEEEEE,"aG",%progbits,_ZTSN8opendnp311ICollectionINS_7IndexedINS_11OctetStringEEEEE,comdat
	.align	2
	.type	_ZTSN8opendnp311ICollectionINS_7IndexedINS_11OctetStringEEEEE, %object
	.size	_ZTSN8opendnp311ICollectionINS_7IndexedINS_11OctetStringEEEEE, 58
_ZTSN8opendnp311ICollectionINS_7IndexedINS_11OctetStringEEEEE:
	.ascii	"N8opendnp311ICollectionINS_7IndexedINS_11OctetStrin"
	.ascii	"gEEEEE\000"
	.weak	_ZTIN8opendnp311ICollectionINS_7IndexedINS_11OctetStringEEEEE
	.section	.data.rel.ro._ZTIN8opendnp311ICollectionINS_7IndexedINS_11OctetStringEEEEE,"awG",%progbits,_ZTIN8opendnp311ICollectionINS_7IndexedINS_11OctetStringEEEEE,comdat
	.align	2
	.type	_ZTIN8opendnp311ICollectionINS_7IndexedINS_11OctetStringEEEEE, %object
	.size	_ZTIN8opendnp311ICollectionINS_7IndexedINS_11OctetStringEEEEE, 8
_ZTIN8opendnp311ICollectionINS_7IndexedINS_11OctetStringEEEEE:
	.word	_ZTVN10__cxxabiv117__class_type_infoE+8
	.word	_ZTSN8opendnp311ICollectionINS_7IndexedINS_11OctetStringEEEEE
	.weak	_ZTSN8opendnp311ICollectionINS_7IndexedINS_12Group121Var1EEEEE
	.section	.rodata._ZTSN8opendnp311ICollectionINS_7IndexedINS_12Group121Var1EEEEE,"aG",%progbits,_ZTSN8opendnp311ICollectionINS_7IndexedINS_12Group121Var1EEEEE,comdat
	.align	2
	.type	_ZTSN8opendnp311ICollectionINS_7IndexedINS_12Group121Var1EEEEE, %object
	.size	_ZTSN8opendnp311ICollectionINS_7IndexedINS_12Group121Var1EEEEE, 59
_ZTSN8opendnp311ICollectionINS_7IndexedINS_12Group121Var1EEEEE:
	.ascii	"N8opendnp311ICollectionINS_7IndexedINS_12Group121Va"
	.ascii	"r1EEEEE\000"
	.weak	_ZTIN8opendnp311ICollectionINS_7IndexedINS_12Group121Var1EEEEE
	.section	.data.rel.ro._ZTIN8opendnp311ICollectionINS_7IndexedINS_12Group121Var1EEEEE,"awG",%progbits,_ZTIN8opendnp311ICollectionINS_7IndexedINS_12Group121Var1EEEEE,comdat
	.align	2
	.type	_ZTIN8opendnp311ICollectionINS_7IndexedINS_12Group121Var1EEEEE, %object
	.size	_ZTIN8opendnp311ICollectionINS_7IndexedINS_12Group121Var1EEEEE, 8
_ZTIN8opendnp311ICollectionINS_7IndexedINS_12Group121Var1EEEEE:
	.word	_ZTVN10__cxxabiv117__class_type_infoE+8
	.word	_ZTSN8opendnp311ICollectionINS_7IndexedINS_12Group121Var1EEEEE
	.weak	_ZTSN8opendnp311ICollectionINS_7IndexedINS_15TimeAndIntervalEEEEE
	.section	.rodata._ZTSN8opendnp311ICollectionINS_7IndexedINS_15TimeAndIntervalEEEEE,"aG",%progbits,_ZTSN8opendnp311ICollectionINS_7IndexedINS_15TimeAndIntervalEEEEE,comdat
	.align	2
	.type	_ZTSN8opendnp311ICollectionINS_7IndexedINS_15TimeAndIntervalEEEEE, %object
	.size	_ZTSN8opendnp311ICollectionINS_7IndexedINS_15TimeAndIntervalEEEEE, 62
_ZTSN8opendnp311ICollectionINS_7IndexedINS_15TimeAndIntervalEEEEE:
	.ascii	"N8opendnp311ICollectionINS_7IndexedINS_15TimeAndInt"
	.ascii	"ervalEEEEE\000"
	.weak	_ZTIN8opendnp311ICollectionINS_7IndexedINS_15TimeAndIntervalEEEEE
	.section	.data.rel.ro._ZTIN8opendnp311ICollectionINS_7IndexedINS_15TimeAndIntervalEEEEE,"awG",%progbits,_ZTIN8opendnp311ICollectionINS_7IndexedINS_15TimeAndIntervalEEEEE,comdat
	.align	2
	.type	_ZTIN8opendnp311ICollectionINS_7IndexedINS_15TimeAndIntervalEEEEE, %object
	.size	_ZTIN8opendnp311ICollectionINS_7IndexedINS_15TimeAndIntervalEEEEE, 8
_ZTIN8opendnp311ICollectionINS_7IndexedINS_15TimeAndIntervalEEEEE:
	.word	_ZTVN10__cxxabiv117__class_type_infoE+8
	.word	_ZTSN8opendnp311ICollectionINS_7IndexedINS_15TimeAndIntervalEEEEE
	.weak	_ZTSN8opendnp311ICollectionINS_7IndexedINS_18AnalogOutputStatusEEEEE
	.section	.rodata._ZTSN8opendnp311ICollectionINS_7IndexedINS_18AnalogOutputStatusEEEEE,"aG",%progbits,_ZTSN8opendnp311ICollectionINS_7IndexedINS_18AnalogOutputStatusEEEEE,comdat
	.align	2
	.type	_ZTSN8opendnp311ICollectionINS_7IndexedINS_18AnalogOutputStatusEEEEE, %object
	.size	_ZTSN8opendnp311ICollectionINS_7IndexedINS_18AnalogOutputStatusEEEEE, 65
_ZTSN8opendnp311ICollectionINS_7IndexedINS_18AnalogOutputStatusEEEEE:
	.ascii	"N8opendnp311ICollectionINS_7IndexedINS_18AnalogOutp"
	.ascii	"utStatusEEEEE\000"
	.weak	_ZTIN8opendnp311ICollectionINS_7IndexedINS_18AnalogOutputStatusEEEEE
	.section	.data.rel.ro._ZTIN8opendnp311ICollectionINS_7IndexedINS_18AnalogOutputStatusEEEEE,"awG",%progbits,_ZTIN8opendnp311ICollectionINS_7IndexedINS_18AnalogOutputStatusEEEEE,comdat
	.align	2
	.type	_ZTIN8opendnp311ICollectionINS_7IndexedINS_18AnalogOutputStatusEEEEE, %object
	.size	_ZTIN8opendnp311ICollectionINS_7IndexedINS_18AnalogOutputStatusEEEEE, 8
_ZTIN8opendnp311ICollectionINS_7IndexedINS_18AnalogOutputStatusEEEEE:
	.word	_ZTVN10__cxxabiv117__class_type_infoE+8
	.word	_ZTSN8opendnp311ICollectionINS_7IndexedINS_18AnalogOutputStatusEEEEE
	.weak	_ZTSN8opendnp311ICollectionINS_7IndexedINS_6AnalogEEEEE
	.section	.rodata._ZTSN8opendnp311ICollectionINS_7IndexedINS_6AnalogEEEEE,"aG",%progbits,_ZTSN8opendnp311ICollectionINS_7IndexedINS_6AnalogEEEEE,comdat
	.align	2
	.type	_ZTSN8opendnp311ICollectionINS_7IndexedINS_6AnalogEEEEE, %object
	.size	_ZTSN8opendnp311ICollectionINS_7IndexedINS_6AnalogEEEEE, 52
_ZTSN8opendnp311ICollectionINS_7IndexedINS_6AnalogEEEEE:
	.ascii	"N8opendnp311ICollectionINS_7IndexedINS_6AnalogEEEEE"
	.ascii	"\000"
	.weak	_ZTIN8opendnp311ICollectionINS_7IndexedINS_6AnalogEEEEE
	.section	.data.rel.ro._ZTIN8opendnp311ICollectionINS_7IndexedINS_6AnalogEEEEE,"awG",%progbits,_ZTIN8opendnp311ICollectionINS_7IndexedINS_6AnalogEEEEE,comdat
	.align	2
	.type	_ZTIN8opendnp311ICollectionINS_7IndexedINS_6AnalogEEEEE, %object
	.size	_ZTIN8opendnp311ICollectionINS_7IndexedINS_6AnalogEEEEE, 8
_ZTIN8opendnp311ICollectionINS_7IndexedINS_6AnalogEEEEE:
	.word	_ZTVN10__cxxabiv117__class_type_infoE+8
	.word	_ZTSN8opendnp311ICollectionINS_7IndexedINS_6AnalogEEEEE
	.weak	_ZTSN8opendnp311ICollectionINS_7IndexedINS_13FrozenCounterEEEEE
	.section	.rodata._ZTSN8opendnp311ICollectionINS_7IndexedINS_13FrozenCounterEEEEE,"aG",%progbits,_ZTSN8opendnp311ICollectionINS_7IndexedINS_13FrozenCounterEEEEE,comdat
	.align	2
	.type	_ZTSN8opendnp311ICollectionINS_7IndexedINS_13FrozenCounterEEEEE, %object
	.size	_ZTSN8opendnp311ICollectionINS_7IndexedINS_13FrozenCounterEEEEE, 60
_ZTSN8opendnp311ICollectionINS_7IndexedINS_13FrozenCounterEEEEE:
	.ascii	"N8opendnp311ICollectionINS_7IndexedINS_13FrozenCoun"
	.ascii	"terEEEEE\000"
	.weak	_ZTIN8opendnp311ICollectionINS_7IndexedINS_13FrozenCounterEEEEE
	.section	.data.rel.ro._ZTIN8opendnp311ICollectionINS_7IndexedINS_13FrozenCounterEEEEE,"awG",%progbits,_ZTIN8opendnp311ICollectionINS_7IndexedINS_13FrozenCounterEEEEE,comdat
	.align	2
	.type	_ZTIN8opendnp311ICollectionINS_7IndexedINS_13FrozenCounterEEEEE, %object
	.size	_ZTIN8opendnp311ICollectionINS_7IndexedINS_13FrozenCounterEEEEE, 8
_ZTIN8opendnp311ICollectionINS_7IndexedINS_13FrozenCounterEEEEE:
	.word	_ZTVN10__cxxabiv117__class_type_infoE+8
	.word	_ZTSN8opendnp311ICollectionINS_7IndexedINS_13FrozenCounterEEEEE
	.weak	_ZTSN8opendnp311ICollectionINS_7IndexedINS_7CounterEEEEE
	.section	.rodata._ZTSN8opendnp311ICollectionINS_7IndexedINS_7CounterEEEEE,"aG",%progbits,_ZTSN8opendnp311ICollectionINS_7IndexedINS_7CounterEEEEE,comdat
	.align	2
	.type	_ZTSN8opendnp311ICollectionINS_7IndexedINS_7CounterEEEEE, %object
	.size	_ZTSN8opendnp311ICollectionINS_7IndexedINS_7CounterEEEEE, 53
_ZTSN8opendnp311ICollectionINS_7IndexedINS_7CounterEEEEE:
	.ascii	"N8opendnp311ICollectionINS_7IndexedINS_7CounterEEEE"
	.ascii	"E\000"
	.weak	_ZTIN8opendnp311ICollectionINS_7IndexedINS_7CounterEEEEE
	.section	.data.rel.ro._ZTIN8opendnp311ICollectionINS_7IndexedINS_7CounterEEEEE,"awG",%progbits,_ZTIN8opendnp311ICollectionINS_7IndexedINS_7CounterEEEEE,comdat
	.align	2
	.type	_ZTIN8opendnp311ICollectionINS_7IndexedINS_7CounterEEEEE, %object
	.size	_ZTIN8opendnp311ICollectionINS_7IndexedINS_7CounterEEEEE, 8
_ZTIN8opendnp311ICollectionINS_7IndexedINS_7CounterEEEEE:
	.word	_ZTVN10__cxxabiv117__class_type_infoE+8
	.word	_ZTSN8opendnp311ICollectionINS_7IndexedINS_7CounterEEEEE
	.weak	_ZTSN8opendnp311ICollectionINS_7IndexedINS_18BinaryOutputStatusEEEEE
	.section	.rodata._ZTSN8opendnp311ICollectionINS_7IndexedINS_18BinaryOutputStatusEEEEE,"aG",%progbits,_ZTSN8opendnp311ICollectionINS_7IndexedINS_18BinaryOutputStatusEEEEE,comdat
	.align	2
	.type	_ZTSN8opendnp311ICollectionINS_7IndexedINS_18BinaryOutputStatusEEEEE, %object
	.size	_ZTSN8opendnp311ICollectionINS_7IndexedINS_18BinaryOutputStatusEEEEE, 65
_ZTSN8opendnp311ICollectionINS_7IndexedINS_18BinaryOutputStatusEEEEE:
	.ascii	"N8opendnp311ICollectionINS_7IndexedINS_18BinaryOutp"
	.ascii	"utStatusEEEEE\000"
	.weak	_ZTIN8opendnp311ICollectionINS_7IndexedINS_18BinaryOutputStatusEEEEE
	.section	.data.rel.ro._ZTIN8opendnp311ICollectionINS_7IndexedINS_18BinaryOutputStatusEEEEE,"awG",%progbits,_ZTIN8opendnp311ICollectionINS_7IndexedINS_18BinaryOutputStatusEEEEE,comdat
	.align	2
	.type	_ZTIN8opendnp311ICollectionINS_7IndexedINS_18BinaryOutputStatusEEEEE, %object
	.size	_ZTIN8opendnp311ICollectionINS_7IndexedINS_18BinaryOutputStatusEEEEE, 8
_ZTIN8opendnp311ICollectionINS_7IndexedINS_18BinaryOutputStatusEEEEE:
	.word	_ZTVN10__cxxabiv117__class_type_infoE+8
	.word	_ZTSN8opendnp311ICollectionINS_7IndexedINS_18BinaryOutputStatusEEEEE
	.weak	_ZTSN8opendnp311ICollectionINS_7IndexedINS_15DoubleBitBinaryEEEEE
	.section	.rodata._ZTSN8opendnp311ICollectionINS_7IndexedINS_15DoubleBitBinaryEEEEE,"aG",%progbits,_ZTSN8opendnp311ICollectionINS_7IndexedINS_15DoubleBitBinaryEEEEE,comdat
	.align	2
	.type	_ZTSN8opendnp311ICollectionINS_7IndexedINS_15DoubleBitBinaryEEEEE, %object
	.size	_ZTSN8opendnp311ICollectionINS_7IndexedINS_15DoubleBitBinaryEEEEE, 62
_ZTSN8opendnp311ICollectionINS_7IndexedINS_15DoubleBitBinaryEEEEE:
	.ascii	"N8opendnp311ICollectionINS_7IndexedINS_15DoubleBitB"
	.ascii	"inaryEEEEE\000"
	.weak	_ZTIN8opendnp311ICollectionINS_7IndexedINS_15DoubleBitBinaryEEEEE
	.section	.data.rel.ro._ZTIN8opendnp311ICollectionINS_7IndexedINS_15DoubleBitBinaryEEEEE,"awG",%progbits,_ZTIN8opendnp311ICollectionINS_7IndexedINS_15DoubleBitBinaryEEEEE,comdat
	.align	2
	.type	_ZTIN8opendnp311ICollectionINS_7IndexedINS_15DoubleBitBinaryEEEEE, %object
	.size	_ZTIN8opendnp311ICollectionINS_7IndexedINS_15DoubleBitBinaryEEEEE, 8
_ZTIN8opendnp311ICollectionINS_7IndexedINS_15DoubleBitBinaryEEEEE:
	.word	_ZTVN10__cxxabiv117__class_type_infoE+8
	.word	_ZTSN8opendnp311ICollectionINS_7IndexedINS_15DoubleBitBinaryEEEEE
	.weak	_ZTSN8opendnp311ICollectionINS_7IndexedINS_6BinaryEEEEE
	.section	.rodata._ZTSN8opendnp311ICollectionINS_7IndexedINS_6BinaryEEEEE,"aG",%progbits,_ZTSN8opendnp311ICollectionINS_7IndexedINS_6BinaryEEEEE,comdat
	.align	2
	.type	_ZTSN8opendnp311ICollectionINS_7IndexedINS_6BinaryEEEEE, %object
	.size	_ZTSN8opendnp311ICollectionINS_7IndexedINS_6BinaryEEEEE, 52
_ZTSN8opendnp311ICollectionINS_7IndexedINS_6BinaryEEEEE:
	.ascii	"N8opendnp311ICollectionINS_7IndexedINS_6BinaryEEEEE"
	.ascii	"\000"
	.weak	_ZTIN8opendnp311ICollectionINS_7IndexedINS_6BinaryEEEEE
	.section	.data.rel.ro._ZTIN8opendnp311ICollectionINS_7IndexedINS_6BinaryEEEEE,"awG",%progbits,_ZTIN8opendnp311ICollectionINS_7IndexedINS_6BinaryEEEEE,comdat
	.align	2
	.type	_ZTIN8opendnp311ICollectionINS_7IndexedINS_6BinaryEEEEE, %object
	.size	_ZTIN8opendnp311ICollectionINS_7IndexedINS_6BinaryEEEEE, 8
_ZTIN8opendnp311ICollectionINS_7IndexedINS_6BinaryEEEEE:
	.word	_ZTVN10__cxxabiv117__class_type_infoE+8
	.word	_ZTSN8opendnp311ICollectionINS_7IndexedINS_6BinaryEEEEE
	.weak	_ZTSN8opendnp311ICollectionINS_7IndexedINS_8IINValueEEEEE
	.section	.rodata._ZTSN8opendnp311ICollectionINS_7IndexedINS_8IINValueEEEEE,"aG",%progbits,_ZTSN8opendnp311ICollectionINS_7IndexedINS_8IINValueEEEEE,comdat
	.align	2
	.type	_ZTSN8opendnp311ICollectionINS_7IndexedINS_8IINValueEEEEE, %object
	.size	_ZTSN8opendnp311ICollectionINS_7IndexedINS_8IINValueEEEEE, 54
_ZTSN8opendnp311ICollectionINS_7IndexedINS_8IINValueEEEEE:
	.ascii	"N8opendnp311ICollectionINS_7IndexedINS_8IINValueEEE"
	.ascii	"EE\000"
	.weak	_ZTIN8opendnp311ICollectionINS_7IndexedINS_8IINValueEEEEE
	.section	.data.rel.ro._ZTIN8opendnp311ICollectionINS_7IndexedINS_8IINValueEEEEE,"awG",%progbits,_ZTIN8opendnp311ICollectionINS_7IndexedINS_8IINValueEEEEE,comdat
	.align	2
	.type	_ZTIN8opendnp311ICollectionINS_7IndexedINS_8IINValueEEEEE, %object
	.size	_ZTIN8opendnp311ICollectionINS_7IndexedINS_8IINValueEEEEE, 8
_ZTIN8opendnp311ICollectionINS_7IndexedINS_8IINValueEEEEE:
	.word	_ZTVN10__cxxabiv117__class_type_infoE+8
	.word	_ZTSN8opendnp311ICollectionINS_7IndexedINS_8IINValueEEEEE
	.weak	_ZTSN8opendnp318BufferedCollectionINS_7IndexedINS_6BinaryEEEZNS_11RangeParser23InvokeRangeBitfieldTypeIS2_EEvRKNS_12HeaderRecordERKNS_5RangeERKN7openpal6RSliceERNS_12IAPDUHandlerEEUlRSD_jE_EE
	.section	.rodata._ZTSN8opendnp318BufferedCollectionINS_7IndexedINS_6BinaryEEEZNS_11RangeParser23InvokeRangeBitfieldTypeIS2_EEvRKNS_12HeaderRecordERKNS_5RangeERKN7openpal6RSliceERNS_12IAPDUHandlerEEUlRSD_jE_EE,"aG",%progbits,_ZTSN8opendnp318BufferedCollectionINS_7IndexedINS_6BinaryEEEZNS_11RangeParser23InvokeRangeBitfieldTypeIS2_EEvRKNS_12HeaderRecordERKNS_5RangeERKN7openpal6RSliceERNS_12IAPDUHandlerEEUlRSD_jE_EE,comdat
	.align	2
	.type	_ZTSN8opendnp318BufferedCollectionINS_7IndexedINS_6BinaryEEEZNS_11RangeParser23InvokeRangeBitfieldTypeIS2_EEvRKNS_12HeaderRecordERKNS_5RangeERKN7openpal6RSliceERNS_12IAPDUHandlerEEUlRSD_jE_EE, %object
	.size	_ZTSN8opendnp318BufferedCollectionINS_7IndexedINS_6BinaryEEEZNS_11RangeParser23InvokeRangeBitfieldTypeIS2_EEvRKNS_12HeaderRecordERKNS_5RangeERKN7openpal6RSliceERNS_12IAPDUHandlerEEUlRSD_jE_EE, 188
_ZTSN8opendnp318BufferedCollectionINS_7IndexedINS_6BinaryEEEZNS_11RangeParser23InvokeRangeBitfieldTypeIS2_EEvRKNS_12HeaderRecordERKNS_5RangeERKN7openpal6RSliceERNS_12IAPDUHandlerEEUlRSD_jE_EE:
	.ascii	"N8opendnp318BufferedCollectionINS_7IndexedINS_6Bina"
	.ascii	"ryEEEZNS_11RangeParser23InvokeRangeBitfieldTypeIS2_"
	.ascii	"EEvRKNS_12HeaderRecordERKNS_5RangeERKN7openpal6RSli"
	.ascii	"ceERNS_12IAPDUHandlerEEUlRSD_jE_EE\000"
	.weak	_ZTIN8opendnp318BufferedCollectionINS_7IndexedINS_6BinaryEEEZNS_11RangeParser23InvokeRangeBitfieldTypeIS2_EEvRKNS_12HeaderRecordERKNS_5RangeERKN7openpal6RSliceERNS_12IAPDUHandlerEEUlRSD_jE_EE
	.section	.data.rel.ro._ZTIN8opendnp318BufferedCollectionINS_7IndexedINS_6BinaryEEEZNS_11RangeParser23InvokeRangeBitfieldTypeIS2_EEvRKNS_12HeaderRecordERKNS_5RangeERKN7openpal6RSliceERNS_12IAPDUHandlerEEUlRSD_jE_EE,"awG",%progbits,_ZTIN8opendnp318BufferedCollectionINS_7IndexedINS_6BinaryEEEZNS_11RangeParser23InvokeRangeBitfieldTypeIS2_EEvRKNS_12HeaderRecordERKNS_5RangeERKN7openpal6RSliceERNS_12IAPDUHandlerEEUlRSD_jE_EE,comdat
	.align	2
	.type	_ZTIN8opendnp318BufferedCollectionINS_7IndexedINS_6BinaryEEEZNS_11RangeParser23InvokeRangeBitfieldTypeIS2_EEvRKNS_12HeaderRecordERKNS_5RangeERKN7openpal6RSliceERNS_12IAPDUHandlerEEUlRSD_jE_EE, %object
	.size	_ZTIN8opendnp318BufferedCollectionINS_7IndexedINS_6BinaryEEEZNS_11RangeParser23InvokeRangeBitfieldTypeIS2_EEvRKNS_12HeaderRecordERKNS_5RangeERKN7openpal6RSliceERNS_12IAPDUHandlerEEUlRSD_jE_EE, 12
_ZTIN8opendnp318BufferedCollectionINS_7IndexedINS_6BinaryEEEZNS_11RangeParser23InvokeRangeBitfieldTypeIS2_EEvRKNS_12HeaderRecordERKNS_5RangeERKN7openpal6RSliceERNS_12IAPDUHandlerEEUlRSD_jE_EE:
	.word	_ZTVN10__cxxabiv120__si_class_type_infoE+8
	.word	_ZTSN8opendnp318BufferedCollectionINS_7IndexedINS_6BinaryEEEZNS_11RangeParser23InvokeRangeBitfieldTypeIS2_EEvRKNS_12HeaderRecordERKNS_5RangeERKN7openpal6RSliceERNS_12IAPDUHandlerEEUlRSD_jE_EE
	.word	_ZTIN8opendnp311ICollectionINS_7IndexedINS_6BinaryEEEEE
	.weak	_ZTSN8opendnp318BufferedCollectionINS_7IndexedINS_6BinaryEEEZNS_11RangeParser13InvokeRangeOfINS_10Group1Var2EEEvRKNS_12HeaderRecordERKNS_5RangeERKN7openpal6RSliceERNS_12IAPDUHandlerEEUlRSE_jE_EE
	.section	.rodata._ZTSN8opendnp318BufferedCollectionINS_7IndexedINS_6BinaryEEEZNS_11RangeParser13InvokeRangeOfINS_10Group1Var2EEEvRKNS_12HeaderRecordERKNS_5RangeERKN7openpal6RSliceERNS_12IAPDUHandlerEEUlRSE_jE_EE,"aG",%progbits,_ZTSN8opendnp318BufferedCollectionINS_7IndexedINS_6BinaryEEEZNS_11RangeParser13InvokeRangeOfINS_10Group1Var2EEEvRKNS_12HeaderRecordERKNS_5RangeERKN7openpal6RSliceERNS_12IAPDUHandlerEEUlRSE_jE_EE,comdat
	.align	2
	.type	_ZTSN8opendnp318BufferedCollectionINS_7IndexedINS_6BinaryEEEZNS_11RangeParser13InvokeRangeOfINS_10Group1Var2EEEvRKNS_12HeaderRecordERKNS_5RangeERKN7openpal6RSliceERNS_12IAPDUHandlerEEUlRSE_jE_EE, %object
	.size	_ZTSN8opendnp318BufferedCollectionINS_7IndexedINS_6BinaryEEEZNS_11RangeParser13InvokeRangeOfINS_10Group1Var2EEEvRKNS_12HeaderRecordERKNS_5RangeERKN7openpal6RSliceERNS_12IAPDUHandlerEEUlRSE_jE_EE, 191
_ZTSN8opendnp318BufferedCollectionINS_7IndexedINS_6BinaryEEEZNS_11RangeParser13InvokeRangeOfINS_10Group1Var2EEEvRKNS_12HeaderRecordERKNS_5RangeERKN7openpal6RSliceERNS_12IAPDUHandlerEEUlRSE_jE_EE:
	.ascii	"N8opendnp318BufferedCollectionINS_7IndexedINS_6Bina"
	.ascii	"ryEEEZNS_11RangeParser13InvokeRangeOfINS_10Group1Va"
	.ascii	"r2EEEvRKNS_12HeaderRecordERKNS_5RangeERKN7openpal6R"
	.ascii	"SliceERNS_12IAPDUHandlerEEUlRSE_jE_EE\000"
	.weak	_ZTIN8opendnp318BufferedCollectionINS_7IndexedINS_6BinaryEEEZNS_11RangeParser13InvokeRangeOfINS_10Group1Var2EEEvRKNS_12HeaderRecordERKNS_5RangeERKN7openpal6RSliceERNS_12IAPDUHandlerEEUlRSE_jE_EE
	.section	.data.rel.ro._ZTIN8opendnp318BufferedCollectionINS_7IndexedINS_6BinaryEEEZNS_11RangeParser13InvokeRangeOfINS_10Group1Var2EEEvRKNS_12HeaderRecordERKNS_5RangeERKN7openpal6RSliceERNS_12IAPDUHandlerEEUlRSE_jE_EE,"awG",%progbits,_ZTIN8opendnp318BufferedCollectionINS_7IndexedINS_6BinaryEEEZNS_11RangeParser13InvokeRangeOfINS_10Group1Var2EEEvRKNS_12HeaderRecordERKNS_5RangeERKN7openpal6RSliceERNS_12IAPDUHandlerEEUlRSE_jE_EE,comdat
	.align	2
	.type	_ZTIN8opendnp318BufferedCollectionINS_7IndexedINS_6BinaryEEEZNS_11RangeParser13InvokeRangeOfINS_10Group1Var2EEEvRKNS_12HeaderRecordERKNS_5RangeERKN7openpal6RSliceERNS_12IAPDUHandlerEEUlRSE_jE_EE, %object
	.size	_ZTIN8opendnp318BufferedCollectionINS_7IndexedINS_6BinaryEEEZNS_11RangeParser13InvokeRangeOfINS_10Group1Var2EEEvRKNS_12HeaderRecordERKNS_5RangeERKN7openpal6RSliceERNS_12IAPDUHandlerEEUlRSE_jE_EE, 12
_ZTIN8opendnp318BufferedCollectionINS_7IndexedINS_6BinaryEEEZNS_11RangeParser13InvokeRangeOfINS_10Group1Var2EEEvRKNS_12HeaderRecordERKNS_5RangeERKN7openpal6RSliceERNS_12IAPDUHandlerEEUlRSE_jE_EE:
	.word	_ZTVN10__cxxabiv120__si_class_type_infoE+8
	.word	_ZTSN8opendnp318BufferedCollectionINS_7IndexedINS_6BinaryEEEZNS_11RangeParser13InvokeRangeOfINS_10Group1Var2EEEvRKNS_12HeaderRecordERKNS_5RangeERKN7openpal6RSliceERNS_12IAPDUHandlerEEUlRSE_jE_EE
	.word	_ZTIN8opendnp311ICollectionINS_7IndexedINS_6BinaryEEEEE
	.weak	_ZTSN8opendnp318BufferedCollectionINS_7IndexedINS_15DoubleBitBinaryEEEZNS_11RangeParser29InvokeRangeDoubleBitfieldTypeIS2_EEvRKNS_12HeaderRecordERKNS_5RangeERKN7openpal6RSliceERNS_12IAPDUHandlerEEUlRSD_jE_EE
	.section	.rodata._ZTSN8opendnp318BufferedCollectionINS_7IndexedINS_15DoubleBitBinaryEEEZNS_11RangeParser29InvokeRangeDoubleBitfieldTypeIS2_EEvRKNS_12HeaderRecordERKNS_5RangeERKN7openpal6RSliceERNS_12IAPDUHandlerEEUlRSD_jE_EE,"aG",%progbits,_ZTSN8opendnp318BufferedCollectionINS_7IndexedINS_15DoubleBitBinaryEEEZNS_11RangeParser29InvokeRangeDoubleBitfieldTypeIS2_EEvRKNS_12HeaderRecordERKNS_5RangeERKN7openpal6RSliceERNS_12IAPDUHandlerEEUlRSD_jE_EE,comdat
	.align	2
	.type	_ZTSN8opendnp318BufferedCollectionINS_7IndexedINS_15DoubleBitBinaryEEEZNS_11RangeParser29InvokeRangeDoubleBitfieldTypeIS2_EEvRKNS_12HeaderRecordERKNS_5RangeERKN7openpal6RSliceERNS_12IAPDUHandlerEEUlRSD_jE_EE, %object
	.size	_ZTSN8opendnp318BufferedCollectionINS_7IndexedINS_15DoubleBitBinaryEEEZNS_11RangeParser29InvokeRangeDoubleBitfieldTypeIS2_EEvRKNS_12HeaderRecordERKNS_5RangeERKN7openpal6RSliceERNS_12IAPDUHandlerEEUlRSD_jE_EE, 204
_ZTSN8opendnp318BufferedCollectionINS_7IndexedINS_15DoubleBitBinaryEEEZNS_11RangeParser29InvokeRangeDoubleBitfieldTypeIS2_EEvRKNS_12HeaderRecordERKNS_5RangeERKN7openpal6RSliceERNS_12IAPDUHandlerEEUlRSD_jE_EE:
	.ascii	"N8opendnp318BufferedCollectionINS_7IndexedINS_15Dou"
	.ascii	"bleBitBinaryEEEZNS_11RangeParser29InvokeRangeDouble"
	.ascii	"BitfieldTypeIS2_EEvRKNS_12HeaderRecordERKNS_5RangeE"
	.ascii	"RKN7openpal6RSliceERNS_12IAPDUHandlerEEUlRSD_jE_EE\000"
	.weak	_ZTIN8opendnp318BufferedCollectionINS_7IndexedINS_15DoubleBitBinaryEEEZNS_11RangeParser29InvokeRangeDoubleBitfieldTypeIS2_EEvRKNS_12HeaderRecordERKNS_5RangeERKN7openpal6RSliceERNS_12IAPDUHandlerEEUlRSD_jE_EE
	.section	.data.rel.ro._ZTIN8opendnp318BufferedCollectionINS_7IndexedINS_15DoubleBitBinaryEEEZNS_11RangeParser29InvokeRangeDoubleBitfieldTypeIS2_EEvRKNS_12HeaderRecordERKNS_5RangeERKN7openpal6RSliceERNS_12IAPDUHandlerEEUlRSD_jE_EE,"awG",%progbits,_ZTIN8opendnp318BufferedCollectionINS_7IndexedINS_15DoubleBitBinaryEEEZNS_11RangeParser29InvokeRangeDoubleBitfieldTypeIS2_EEvRKNS_12HeaderRecordERKNS_5RangeERKN7openpal6RSliceERNS_12IAPDUHandlerEEUlRSD_jE_EE,comdat
	.align	2
	.type	_ZTIN8opendnp318BufferedCollectionINS_7IndexedINS_15DoubleBitBinaryEEEZNS_11RangeParser29InvokeRangeDoubleBitfieldTypeIS2_EEvRKNS_12HeaderRecordERKNS_5RangeERKN7openpal6RSliceERNS_12IAPDUHandlerEEUlRSD_jE_EE, %object
	.size	_ZTIN8opendnp318BufferedCollectionINS_7IndexedINS_15DoubleBitBinaryEEEZNS_11RangeParser29InvokeRangeDoubleBitfieldTypeIS2_EEvRKNS_12HeaderRecordERKNS_5RangeERKN7openpal6RSliceERNS_12IAPDUHandlerEEUlRSD_jE_EE, 12
_ZTIN8opendnp318BufferedCollectionINS_7IndexedINS_15DoubleBitBinaryEEEZNS_11RangeParser29InvokeRangeDoubleBitfieldTypeIS2_EEvRKNS_12HeaderRecordERKNS_5RangeERKN7openpal6RSliceERNS_12IAPDUHandlerEEUlRSD_jE_EE:
	.word	_ZTVN10__cxxabiv120__si_class_type_infoE+8
	.word	_ZTSN8opendnp318BufferedCollectionINS_7IndexedINS_15DoubleBitBinaryEEEZNS_11RangeParser29InvokeRangeDoubleBitfieldTypeIS2_EEvRKNS_12HeaderRecordERKNS_5RangeERKN7openpal6RSliceERNS_12IAPDUHandlerEEUlRSD_jE_EE
	.word	_ZTIN8opendnp311ICollectionINS_7IndexedINS_15DoubleBitBinaryEEEEE
	.weak	_ZTSN8opendnp318BufferedCollectionINS_7IndexedINS_18BinaryOutputStatusEEEZNS_11RangeParser23InvokeRangeBitfieldTypeIS2_EEvRKNS_12HeaderRecordERKNS_5RangeERKN7openpal6RSliceERNS_12IAPDUHandlerEEUlRSD_jE_EE
	.section	.rodata._ZTSN8opendnp318BufferedCollectionINS_7IndexedINS_18BinaryOutputStatusEEEZNS_11RangeParser23InvokeRangeBitfieldTypeIS2_EEvRKNS_12HeaderRecordERKNS_5RangeERKN7openpal6RSliceERNS_12IAPDUHandlerEEUlRSD_jE_EE,"aG",%progbits,_ZTSN8opendnp318BufferedCollectionINS_7IndexedINS_18BinaryOutputStatusEEEZNS_11RangeParser23InvokeRangeBitfieldTypeIS2_EEvRKNS_12HeaderRecordERKNS_5RangeERKN7openpal6RSliceERNS_12IAPDUHandlerEEUlRSD_jE_EE,comdat
	.align	2
	.type	_ZTSN8opendnp318BufferedCollectionINS_7IndexedINS_18BinaryOutputStatusEEEZNS_11RangeParser23InvokeRangeBitfieldTypeIS2_EEvRKNS_12HeaderRecordERKNS_5RangeERKN7openpal6RSliceERNS_12IAPDUHandlerEEUlRSD_jE_EE, %object
	.size	_ZTSN8opendnp318BufferedCollectionINS_7IndexedINS_18BinaryOutputStatusEEEZNS_11RangeParser23InvokeRangeBitfieldTypeIS2_EEvRKNS_12HeaderRecordERKNS_5RangeERKN7openpal6RSliceERNS_12IAPDUHandlerEEUlRSD_jE_EE, 201
_ZTSN8opendnp318BufferedCollectionINS_7IndexedINS_18BinaryOutputStatusEEEZNS_11RangeParser23InvokeRangeBitfieldTypeIS2_EEvRKNS_12HeaderRecordERKNS_5RangeERKN7openpal6RSliceERNS_12IAPDUHandlerEEUlRSD_jE_EE:
	.ascii	"N8opendnp318BufferedCollectionINS_7IndexedINS_18Bin"
	.ascii	"aryOutputStatusEEEZNS_11RangeParser23InvokeRangeBit"
	.ascii	"fieldTypeIS2_EEvRKNS_12HeaderRecordERKNS_5RangeERKN"
	.ascii	"7openpal6RSliceERNS_12IAPDUHandlerEEUlRSD_jE_EE\000"
	.weak	_ZTIN8opendnp318BufferedCollectionINS_7IndexedINS_18BinaryOutputStatusEEEZNS_11RangeParser23InvokeRangeBitfieldTypeIS2_EEvRKNS_12HeaderRecordERKNS_5RangeERKN7openpal6RSliceERNS_12IAPDUHandlerEEUlRSD_jE_EE
	.section	.data.rel.ro._ZTIN8opendnp318BufferedCollectionINS_7IndexedINS_18BinaryOutputStatusEEEZNS_11RangeParser23InvokeRangeBitfieldTypeIS2_EEvRKNS_12HeaderRecordERKNS_5RangeERKN7openpal6RSliceERNS_12IAPDUHandlerEEUlRSD_jE_EE,"awG",%progbits,_ZTIN8opendnp318BufferedCollectionINS_7IndexedINS_18BinaryOutputStatusEEEZNS_11RangeParser23InvokeRangeBitfieldTypeIS2_EEvRKNS_12HeaderRecordERKNS_5RangeERKN7openpal6RSliceERNS_12IAPDUHandlerEEUlRSD_jE_EE,comdat
	.align	2
	.type	_ZTIN8opendnp318BufferedCollectionINS_7IndexedINS_18BinaryOutputStatusEEEZNS_11RangeParser23InvokeRangeBitfieldTypeIS2_EEvRKNS_12HeaderRecordERKNS_5RangeERKN7openpal6RSliceERNS_12IAPDUHandlerEEUlRSD_jE_EE, %object
	.size	_ZTIN8opendnp318BufferedCollectionINS_7IndexedINS_18BinaryOutputStatusEEEZNS_11RangeParser23InvokeRangeBitfieldTypeIS2_EEvRKNS_12HeaderRecordERKNS_5RangeERKN7openpal6RSliceERNS_12IAPDUHandlerEEUlRSD_jE_EE, 12
_ZTIN8opendnp318BufferedCollectionINS_7IndexedINS_18BinaryOutputStatusEEEZNS_11RangeParser23InvokeRangeBitfieldTypeIS2_EEvRKNS_12HeaderRecordERKNS_5RangeERKN7openpal6RSliceERNS_12IAPDUHandlerEEUlRSD_jE_EE:
	.word	_ZTVN10__cxxabiv120__si_class_type_infoE+8
	.word	_ZTSN8opendnp318BufferedCollectionINS_7IndexedINS_18BinaryOutputStatusEEEZNS_11RangeParser23InvokeRangeBitfieldTypeIS2_EEvRKNS_12HeaderRecordERKNS_5RangeERKN7openpal6RSliceERNS_12IAPDUHandlerEEUlRSD_jE_EE
	.word	_ZTIN8opendnp311ICollectionINS_7IndexedINS_18BinaryOutputStatusEEEEE
	.weak	_ZTSN8opendnp318BufferedCollectionINS_7IndexedINS_15DoubleBitBinaryEEEZNS_11RangeParser13InvokeRangeOfINS_10Group3Var2EEEvRKNS_12HeaderRecordERKNS_5RangeERKN7openpal6RSliceERNS_12IAPDUHandlerEEUlRSE_jE_EE
	.section	.rodata._ZTSN8opendnp318BufferedCollectionINS_7IndexedINS_15DoubleBitBinaryEEEZNS_11RangeParser13InvokeRangeOfINS_10Group3Var2EEEvRKNS_12HeaderRecordERKNS_5RangeERKN7openpal6RSliceERNS_12IAPDUHandlerEEUlRSE_jE_EE,"aG",%progbits,_ZTSN8opendnp318BufferedCollectionINS_7IndexedINS_15DoubleBitBinaryEEEZNS_11RangeParser13InvokeRangeOfINS_10Group3Var2EEEvRKNS_12HeaderRecordERKNS_5RangeERKN7openpal6RSliceERNS_12IAPDUHandlerEEUlRSE_jE_EE,comdat
	.align	2
	.type	_ZTSN8opendnp318BufferedCollectionINS_7IndexedINS_15DoubleBitBinaryEEEZNS_11RangeParser13InvokeRangeOfINS_10Group3Var2EEEvRKNS_12HeaderRecordERKNS_5RangeERKN7openpal6RSliceERNS_12IAPDUHandlerEEUlRSE_jE_EE, %object
	.size	_ZTSN8opendnp318BufferedCollectionINS_7IndexedINS_15DoubleBitBinaryEEEZNS_11RangeParser13InvokeRangeOfINS_10Group3Var2EEEvRKNS_12HeaderRecordERKNS_5RangeERKN7openpal6RSliceERNS_12IAPDUHandlerEEUlRSE_jE_EE, 201
_ZTSN8opendnp318BufferedCollectionINS_7IndexedINS_15DoubleBitBinaryEEEZNS_11RangeParser13InvokeRangeOfINS_10Group3Var2EEEvRKNS_12HeaderRecordERKNS_5RangeERKN7openpal6RSliceERNS_12IAPDUHandlerEEUlRSE_jE_EE:
	.ascii	"N8opendnp318BufferedCollectionINS_7IndexedINS_15Dou"
	.ascii	"bleBitBinaryEEEZNS_11RangeParser13InvokeRangeOfINS_"
	.ascii	"10Group3Var2EEEvRKNS_12HeaderRecordERKNS_5RangeERKN"
	.ascii	"7openpal6RSliceERNS_12IAPDUHandlerEEUlRSE_jE_EE\000"
	.weak	_ZTIN8opendnp318BufferedCollectionINS_7IndexedINS_15DoubleBitBinaryEEEZNS_11RangeParser13InvokeRangeOfINS_10Group3Var2EEEvRKNS_12HeaderRecordERKNS_5RangeERKN7openpal6RSliceERNS_12IAPDUHandlerEEUlRSE_jE_EE
	.section	.data.rel.ro._ZTIN8opendnp318BufferedCollectionINS_7IndexedINS_15DoubleBitBinaryEEEZNS_11RangeParser13InvokeRangeOfINS_10Group3Var2EEEvRKNS_12HeaderRecordERKNS_5RangeERKN7openpal6RSliceERNS_12IAPDUHandlerEEUlRSE_jE_EE,"awG",%progbits,_ZTIN8opendnp318BufferedCollectionINS_7IndexedINS_15DoubleBitBinaryEEEZNS_11RangeParser13InvokeRangeOfINS_10Group3Var2EEEvRKNS_12HeaderRecordERKNS_5RangeERKN7openpal6RSliceERNS_12IAPDUHandlerEEUlRSE_jE_EE,comdat
	.align	2
	.type	_ZTIN8opendnp318BufferedCollectionINS_7IndexedINS_15DoubleBitBinaryEEEZNS_11RangeParser13InvokeRangeOfINS_10Group3Var2EEEvRKNS_12HeaderRecordERKNS_5RangeERKN7openpal6RSliceERNS_12IAPDUHandlerEEUlRSE_jE_EE, %object
	.size	_ZTIN8opendnp318BufferedCollectionINS_7IndexedINS_15DoubleBitBinaryEEEZNS_11RangeParser13InvokeRangeOfINS_10Group3Var2EEEvRKNS_12HeaderRecordERKNS_5RangeERKN7openpal6RSliceERNS_12IAPDUHandlerEEUlRSE_jE_EE, 12
_ZTIN8opendnp318BufferedCollectionINS_7IndexedINS_15DoubleBitBinaryEEEZNS_11RangeParser13InvokeRangeOfINS_10Group3Var2EEEvRKNS_12HeaderRecordERKNS_5RangeERKN7openpal6RSliceERNS_12IAPDUHandlerEEUlRSE_jE_EE:
	.word	_ZTVN10__cxxabiv120__si_class_type_infoE+8
	.word	_ZTSN8opendnp318BufferedCollectionINS_7IndexedINS_15DoubleBitBinaryEEEZNS_11RangeParser13InvokeRangeOfINS_10Group3Var2EEEvRKNS_12HeaderRecordERKNS_5RangeERKN7openpal6RSliceERNS_12IAPDUHandlerEEUlRSE_jE_EE
	.word	_ZTIN8opendnp311ICollectionINS_7IndexedINS_15DoubleBitBinaryEEEEE
	.weak	_ZTSN8opendnp318BufferedCollectionINS_7IndexedINS_18BinaryOutputStatusEEEZNS_11RangeParser13InvokeRangeOfINS_11Group10Var2EEEvRKNS_12HeaderRecordERKNS_5RangeERKN7openpal6RSliceERNS_12IAPDUHandlerEEUlRSE_jE_EE
	.section	.rodata._ZTSN8opendnp318BufferedCollectionINS_7IndexedINS_18BinaryOutputStatusEEEZNS_11RangeParser13InvokeRangeOfINS_11Group10Var2EEEvRKNS_12HeaderRecordERKNS_5RangeERKN7openpal6RSliceERNS_12IAPDUHandlerEEUlRSE_jE_EE,"aG",%progbits,_ZTSN8opendnp318BufferedCollectionINS_7IndexedINS_18BinaryOutputStatusEEEZNS_11RangeParser13InvokeRangeOfINS_11Group10Var2EEEvRKNS_12HeaderRecordERKNS_5RangeERKN7openpal6RSliceERNS_12IAPDUHandlerEEUlRSE_jE_EE,comdat
	.align	2
	.type	_ZTSN8opendnp318BufferedCollectionINS_7IndexedINS_18BinaryOutputStatusEEEZNS_11RangeParser13InvokeRangeOfINS_11Group10Var2EEEvRKNS_12HeaderRecordERKNS_5RangeERKN7openpal6RSliceERNS_12IAPDUHandlerEEUlRSE_jE_EE, %object
	.size	_ZTSN8opendnp318BufferedCollectionINS_7IndexedINS_18BinaryOutputStatusEEEZNS_11RangeParser13InvokeRangeOfINS_11Group10Var2EEEvRKNS_12HeaderRecordERKNS_5RangeERKN7openpal6RSliceERNS_12IAPDUHandlerEEUlRSE_jE_EE, 205
_ZTSN8opendnp318BufferedCollectionINS_7IndexedINS_18BinaryOutputStatusEEEZNS_11RangeParser13InvokeRangeOfINS_11Group10Var2EEEvRKNS_12HeaderRecordERKNS_5RangeERKN7openpal6RSliceERNS_12IAPDUHandlerEEUlRSE_jE_EE:
	.ascii	"N8opendnp318BufferedCollectionINS_7IndexedINS_18Bin"
	.ascii	"aryOutputStatusEEEZNS_11RangeParser13InvokeRangeOfI"
	.ascii	"NS_11Group10Var2EEEvRKNS_12HeaderRecordERKNS_5Range"
	.ascii	"ERKN7openpal6RSliceERNS_12IAPDUHandlerEEUlRSE_jE_EE"
	.ascii	"\000"
	.weak	_ZTIN8opendnp318BufferedCollectionINS_7IndexedINS_18BinaryOutputStatusEEEZNS_11RangeParser13InvokeRangeOfINS_11Group10Var2EEEvRKNS_12HeaderRecordERKNS_5RangeERKN7openpal6RSliceERNS_12IAPDUHandlerEEUlRSE_jE_EE
	.section	.data.rel.ro._ZTIN8opendnp318BufferedCollectionINS_7IndexedINS_18BinaryOutputStatusEEEZNS_11RangeParser13InvokeRangeOfINS_11Group10Var2EEEvRKNS_12HeaderRecordERKNS_5RangeERKN7openpal6RSliceERNS_12IAPDUHandlerEEUlRSE_jE_EE,"awG",%progbits,_ZTIN8opendnp318BufferedCollectionINS_7IndexedINS_18BinaryOutputStatusEEEZNS_11RangeParser13InvokeRangeOfINS_11Group10Var2EEEvRKNS_12HeaderRecordERKNS_5RangeERKN7openpal6RSliceERNS_12IAPDUHandlerEEUlRSE_jE_EE,comdat
	.align	2
	.type	_ZTIN8opendnp318BufferedCollectionINS_7IndexedINS_18BinaryOutputStatusEEEZNS_11RangeParser13InvokeRangeOfINS_11Group10Var2EEEvRKNS_12HeaderRecordERKNS_5RangeERKN7openpal6RSliceERNS_12IAPDUHandlerEEUlRSE_jE_EE, %object
	.size	_ZTIN8opendnp318BufferedCollectionINS_7IndexedINS_18BinaryOutputStatusEEEZNS_11RangeParser13InvokeRangeOfINS_11Group10Var2EEEvRKNS_12HeaderRecordERKNS_5RangeERKN7openpal6RSliceERNS_12IAPDUHandlerEEUlRSE_jE_EE, 12
