	.arch armv6
	.eabi_attribute 28, 1
	.eabi_attribute 20, 1
	.eabi_attribute 21, 1
	.eabi_attribute 23, 3
	.eabi_attribute 24, 1
	.eabi_attribute 25, 1
	.eabi_attribute 26, 2
	.eabi_attribute 30, 2
	.eabi_attribute 34, 1
	.eabi_attribute 18, 4
	.file	"RestartOperationTask.cpp"
	.section	.text._ZNK8opendnp311IMasterTask10IsAuthTaskEv,"axG",%progbits,_ZNK8opendnp311IMasterTask10IsAuthTaskEv,comdat
	.align	2
	.weak	_ZNK8opendnp311IMasterTask10IsAuthTaskEv
	.syntax unified
	.arm
	.fpu vfp
	.type	_ZNK8opendnp311IMasterTask10IsAuthTaskEv, %function
_ZNK8opendnp311IMasterTask10IsAuthTaskEv:
	.fnstart
.LFB2267:
	@ args = 0, pretend = 0, frame = 0
	@ frame_needed = 0, uses_anonymous_args = 0
	@ link register save eliminated.
	mov	r0, #0
	bx	lr
	.cantunwind
	.fnend
	.size	_ZNK8opendnp311IMasterTask10IsAuthTaskEv, .-_ZNK8opendnp311IMasterTask10IsAuthTaskEv
	.section	.text._ZN8opendnp311IMasterTask10InitializeEv,"axG",%progbits,_ZN8opendnp311IMasterTask10InitializeEv,comdat
	.align	2
	.weak	_ZN8opendnp311IMasterTask10InitializeEv
	.syntax unified
	.arm
	.fpu vfp
	.type	_ZN8opendnp311IMasterTask10InitializeEv, %function
_ZN8opendnp311IMasterTask10InitializeEv:
	.fnstart
.LFB2268:
	@ args = 0, pretend = 0, frame = 0
	@ frame_needed = 0, uses_anonymous_args = 0
	@ link register save eliminated.
	bx	lr
	.cantunwind
	.fnend
	.size	_ZN8opendnp311IMasterTask10InitializeEv, .-_ZN8opendnp311IMasterTask10InitializeEv
	.section	.text._ZNK8opendnp321SimpleRequestTaskBase11IsRecurringEv,"axG",%progbits,_ZNK8opendnp321SimpleRequestTaskBase11IsRecurringEv,comdat
	.align	2
	.weak	_ZNK8opendnp321SimpleRequestTaskBase11IsRecurringEv
	.syntax unified
	.arm
	.fpu vfp
	.type	_ZNK8opendnp321SimpleRequestTaskBase11IsRecurringEv, %function
_ZNK8opendnp321SimpleRequestTaskBase11IsRecurringEv:
	.fnstart
.LFB2269:
	@ args = 0, pretend = 0, frame = 0
	@ frame_needed = 0, uses_anonymous_args = 0
	@ link register save eliminated.
	mov	r0, #0
	bx	lr
	.cantunwind
	.fnend
	.size	_ZNK8opendnp321SimpleRequestTaskBase11IsRecurringEv, .-_ZNK8opendnp321SimpleRequestTaskBase11IsRecurringEv
	.section	.text._ZNK8opendnp321SimpleRequestTaskBase8PriorityEv,"axG",%progbits,_ZNK8opendnp321SimpleRequestTaskBase8PriorityEv,comdat
	.align	2
	.weak	_ZNK8opendnp321SimpleRequestTaskBase8PriorityEv
	.syntax unified
	.arm
	.fpu vfp
	.type	_ZNK8opendnp321SimpleRequestTaskBase8PriorityEv, %function
_ZNK8opendnp321SimpleRequestTaskBase8PriorityEv:
	.fnstart
.LFB2270:
	@ args = 0, pretend = 0, frame = 0
	@ frame_needed = 0, uses_anonymous_args = 0
	@ link register save eliminated.
	ldr	r0, [r0, #68]
	bx	lr
	.cantunwind
	.fnend
	.size	_ZNK8opendnp321SimpleRequestTaskBase8PriorityEv, .-_ZNK8opendnp321SimpleRequestTaskBase8PriorityEv
	.section	.text._ZNK8opendnp321SimpleRequestTaskBase19BlocksLowerPriorityEv,"axG",%progbits,_ZNK8opendnp321SimpleRequestTaskBase19BlocksLowerPriorityEv,comdat
	.align	2
	.weak	_ZNK8opendnp321SimpleRequestTaskBase19BlocksLowerPriorityEv
	.syntax unified
	.arm
	.fpu vfp
	.type	_ZNK8opendnp321SimpleRequestTaskBase19BlocksLowerPriorityEv, %function
_ZNK8opendnp321SimpleRequestTaskBase19BlocksLowerPriorityEv:
	.fnstart
.LFB2271:
	@ args = 0, pretend = 0, frame = 0
	@ frame_needed = 0, uses_anonymous_args = 0
	@ link register save eliminated.
	mov	r0, #0
	bx	lr
	.cantunwind
	.fnend
	.size	_ZNK8opendnp321SimpleRequestTaskBase19BlocksLowerPriorityEv, .-_ZNK8opendnp321SimpleRequestTaskBase19BlocksLowerPriorityEv
	.section	.text._ZNK8opendnp321SimpleRequestTaskBase9IsEnabledEv,"axG",%progbits,_ZNK8opendnp321SimpleRequestTaskBase9IsEnabledEv,comdat
	.align	2
	.weak	_ZNK8opendnp321SimpleRequestTaskBase9IsEnabledEv
	.syntax unified
	.arm
	.fpu vfp
	.type	_ZNK8opendnp321SimpleRequestTaskBase9IsEnabledEv, %function
_ZNK8opendnp321SimpleRequestTaskBase9IsEnabledEv:
	.fnstart
.LFB2272:
	@ args = 0, pretend = 0, frame = 0
	@ frame_needed = 0, uses_anonymous_args = 0
	@ link register save eliminated.
	mov	r0, #1
	bx	lr
	.cantunwind
	.fnend
	.size	_ZNK8opendnp321SimpleRequestTaskBase9IsEnabledEv, .-_ZNK8opendnp321SimpleRequestTaskBase9IsEnabledEv
	.section	.text._ZNK8opendnp321SimpleRequestTaskBase11GetTaskTypeEv,"axG",%progbits,_ZNK8opendnp321SimpleRequestTaskBase11GetTaskTypeEv,comdat
	.align	2
	.weak	_ZNK8opendnp321SimpleRequestTaskBase11GetTaskTypeEv
	.syntax unified
	.arm
	.fpu vfp
	.type	_ZNK8opendnp321SimpleRequestTaskBase11GetTaskTypeEv, %function
_ZNK8opendnp321SimpleRequestTaskBase11GetTaskTypeEv:
	.fnstart
.LFB2273:
	@ args = 0, pretend = 0, frame = 0
	@ frame_needed = 0, uses_anonymous_args = 0
	@ link register save eliminated.
	mov	r0, #7
	bx	lr
	.cantunwind
	.fnend
	.size	_ZNK8opendnp321SimpleRequestTaskBase11GetTaskTypeEv, .-_ZNK8opendnp321SimpleRequestTaskBase11GetTaskTypeEv
	.section	.text._ZN8opendnp312IAPDUHandler14OnHeaderResultERKNS_12HeaderRecordERKNS_8IINFieldE,"axG",%progbits,_ZN8opendnp312IAPDUHandler14OnHeaderResultERKNS_12HeaderRecordERKNS_8IINFieldE,comdat
	.align	2
	.weak	_ZN8opendnp312IAPDUHandler14OnHeaderResultERKNS_12HeaderRecordERKNS_8IINFieldE
	.syntax unified
	.arm
	.fpu vfp
	.type	_ZN8opendnp312IAPDUHandler14OnHeaderResultERKNS_12HeaderRecordERKNS_8IINFieldE, %function
_ZN8opendnp312IAPDUHandler14OnHeaderResultERKNS_12HeaderRecordERKNS_8IINFieldE:
	.fnstart
.LFB2432:
	@ args = 0, pretend = 0, frame = 0
	@ frame_needed = 0, uses_anonymous_args = 0
	@ link register save eliminated.
	bx	lr
	.cantunwind
	.fnend
	.size	_ZN8opendnp312IAPDUHandler14OnHeaderResultERKNS_12HeaderRecordERKNS_8IINFieldE, .-_ZN8opendnp312IAPDUHandler14OnHeaderResultERKNS_12HeaderRecordERKNS_8IINFieldE
	.text
	.align	2
	.syntax unified
	.arm
	.fpu vfp
	.type	_ZNSt17_Function_handlerIFbRN8opendnp312HeaderWriterEEZNS0_20RestartOperationTaskC4ERNS0_18IMasterApplicationENS0_11RestartTypeERKSt8functionIFvRKNS0_22RestartOperationResultEEEN7openpal6LoggerERKNS0_10TaskConfigEEUlS2_E_E9_M_invokeERKSt9_Any_dataS2_, %function
_ZNSt17_Function_handlerIFbRN8opendnp312HeaderWriterEEZNS0_20RestartOperationTaskC4ERNS0_18IMasterApplicationENS0_11RestartTypeERKSt8functionIFvRKNS0_22RestartOperationResultEEEN7openpal6LoggerERKNS0_10TaskConfigEEUlS2_E_E9_M_invokeERKSt9_Any_dataS2_:
	.fnstart
.LFB2865:
	@ args = 0, pretend = 0, frame = 0
	@ frame_needed = 0, uses_anonymous_args = 0
	@ link register save eliminated.
	mov	r0, #1
	bx	lr
	.cantunwind
	.fnend
	.size	_ZNSt17_Function_handlerIFbRN8opendnp312HeaderWriterEEZNS0_20RestartOperationTaskC4ERNS0_18IMasterApplicationENS0_11RestartTypeERKSt8functionIFvRKNS0_22RestartOperationResultEEEN7openpal6LoggerERKNS0_10TaskConfigEEUlS2_E_E9_M_invokeERKSt9_Any_dataS2_, .-_ZNSt17_Function_handlerIFbRN8opendnp312HeaderWriterEEZNS0_20RestartOperationTaskC4ERNS0_18IMasterApplicationENS0_11RestartTypeERKSt8functionIFvRKNS0_22RestartOperationResultEEEN7openpal6LoggerERKNS0_10TaskConfigEEUlS2_E_E9_M_invokeERKSt9_Any_dataS2_
	.align	2
	.syntax unified
	.arm
	.fpu vfp
	.type	_ZNSt14_Function_base13_Base_managerIZN8opendnp320RestartOperationTaskC4ERNS1_18IMasterApplicationENS1_11RestartTypeERKSt8functionIFvRKNS1_22RestartOperationResultEEEN7openpal6LoggerERKNS1_10TaskConfigEEUlRNS1_12HeaderWriterEE_E10_M_managerERSt9_Any_dataRKSN_St18_Manager_operation, %function
_ZNSt14_Function_base13_Base_managerIZN8opendnp320RestartOperationTaskC4ERNS1_18IMasterApplicationENS1_11RestartTypeERKSt8functionIFvRKNS1_22RestartOperationResultEEEN7openpal6LoggerERKNS1_10TaskConfigEEUlRNS1_12HeaderWriterEE_E10_M_managerERSt9_Any_dataRKSN_St18_Manager_operation:
	.fnstart
.LFB2867:
	@ args = 0, pretend = 0, frame = 0
	@ frame_needed = 0, uses_anonymous_args = 0
	@ link register save eliminated.
	cmp	r2, #0
	beq	.L12
	cmp	r2, #1
	streq	r1, [r0]
	mov	r0, #0
	bx	lr
.L12:
	ldr	r3, .L15
.LPIC0:
	add	r3, pc, r3
	str	r3, [r0]
	mov	r0, #0
	bx	lr
.L16:
	.align	2
.L15:
	.word	.LANCHOR0-(.LPIC0+8)
	.cantunwind
	.fnend
	.size	_ZNSt14_Function_base13_Base_managerIZN8opendnp320RestartOperationTaskC4ERNS1_18IMasterApplicationENS1_11RestartTypeERKSt8functionIFvRKNS1_22RestartOperationResultEEEN7openpal6LoggerERKNS1_10TaskConfigEEUlRNS1_12HeaderWriterEE_E10_M_managerERSt9_Any_dataRKSN_St18_Manager_operation, .-_ZNSt14_Function_base13_Base_managerIZN8opendnp320RestartOperationTaskC4ERNS1_18IMasterApplicationENS1_11RestartTypeERKSt8functionIFvRKNS1_22RestartOperationResultEEEN7openpal6LoggerERKNS1_10TaskConfigEEUlRNS1_12HeaderWriterEE_E10_M_managerERSt9_Any_dataRKSN_St18_Manager_operation
	.section	.text._ZN8opendnp314FunctorVisitorINS_11Group52Var2EZNKS_11ICollectionIS1_E13ReadOnlyValueERS1_EUlRKS1_E_E7OnValueES6_,"axG",%progbits,_ZN8opendnp314FunctorVisitorINS_11Group52Var2EZNKS_11ICollectionIS1_E13ReadOnlyValueERS1_EUlRKS1_E_E7OnValueES6_,comdat
	.align	2
	.weak	_ZN8opendnp314FunctorVisitorINS_11Group52Var2EZNKS_11ICollectionIS1_E13ReadOnlyValueERS1_EUlRKS1_E_E7OnValueES6_
	.syntax unified
	.arm
	.fpu vfp
	.type	_ZN8opendnp314FunctorVisitorINS_11Group52Var2EZNKS_11ICollectionIS1_E13ReadOnlyValueERS1_EUlRKS1_E_E7OnValueES6_, %function
_ZN8opendnp314FunctorVisitorINS_11Group52Var2EZNKS_11ICollectionIS1_E13ReadOnlyValueERS1_EUlRKS1_E_E7OnValueES6_:
	.fnstart
.LFB3155:
	@ args = 0, pretend = 0, frame = 0
	@ frame_needed = 0, uses_anonymous_args = 0
	@ link register save eliminated.
	ldr	r3, [r0, #4]
	ldrh	r2, [r1]
	strh	r2, [r3]	@ movhi
	bx	lr
	.cantunwind
	.fnend
	.size	_ZN8opendnp314FunctorVisitorINS_11Group52Var2EZNKS_11ICollectionIS1_E13ReadOnlyValueERS1_EUlRKS1_E_E7OnValueES6_, .-_ZN8opendnp314FunctorVisitorINS_11Group52Var2EZNKS_11ICollectionIS1_E13ReadOnlyValueERS1_EUlRKS1_E_E7OnValueES6_
	.section	.text._ZN8opendnp314FunctorVisitorINS_11Group52Var1EZNKS_11ICollectionIS1_E13ReadOnlyValueERS1_EUlRKS1_E_E7OnValueES6_,"axG",%progbits,_ZN8opendnp314FunctorVisitorINS_11Group52Var1EZNKS_11ICollectionIS1_E13ReadOnlyValueERS1_EUlRKS1_E_E7OnValueES6_,comdat
	.align	2
	.weak	_ZN8opendnp314FunctorVisitorINS_11Group52Var1EZNKS_11ICollectionIS1_E13ReadOnlyValueERS1_EUlRKS1_E_E7OnValueES6_
	.syntax unified
	.arm
	.fpu vfp
	.type	_ZN8opendnp314FunctorVisitorINS_11Group52Var1EZNKS_11ICollectionIS1_E13ReadOnlyValueERS1_EUlRKS1_E_E7OnValueES6_, %function
_ZN8opendnp314FunctorVisitorINS_11Group52Var1EZNKS_11ICollectionIS1_E13ReadOnlyValueERS1_EUlRKS1_E_E7OnValueES6_:
	.fnstart
.LFB3156:
	@ args = 0, pretend = 0, frame = 0
	@ frame_needed = 0, uses_anonymous_args = 0
	@ link register save eliminated.
	ldr	r3, [r0, #4]
	ldrh	r2, [r1]
	strh	r2, [r3]	@ movhi
	bx	lr
	.cantunwind
	.fnend
	.size	_ZN8opendnp314FunctorVisitorINS_11Group52Var1EZNKS_11ICollectionIS1_E13ReadOnlyValueERS1_EUlRKS1_E_E7OnValueES6_, .-_ZN8opendnp314FunctorVisitorINS_11Group52Var1EZNKS_11ICollectionIS1_E13ReadOnlyValueERS1_EUlRKS1_E_E7OnValueES6_
	.text
	.align	2
	.global	_ZNK8opendnp320RestartOperationTask4NameEv
	.syntax unified
	.arm
	.fpu vfp
	.type	_ZNK8opendnp320RestartOperationTask4NameEv, %function
_ZNK8opendnp320RestartOperationTask4NameEv:
	.fnstart
.LFB2463:
	@ args = 0, pretend = 0, frame = 0
	@ frame_needed = 0, uses_anonymous_args = 0
	@ link register save eliminated.
	ldrb	r0, [r0, #64]	@ zero_extendqisi2
	b	_ZN8opendnp320FunctionCodeToStringENS_12FunctionCodeE(PLT)
	.cantunwind
	.fnend
	.size	_ZNK8opendnp320RestartOperationTask4NameEv, .-_ZNK8opendnp320RestartOperationTask4NameEv
	.align	2
	.global	_ZN8opendnp320RestartOperationTask14OnTaskCompleteENS_14TaskCompletionEN7openpal18MonotonicTimestampE
	.syntax unified
	.arm
	.fpu vfp
	.type	_ZN8opendnp320RestartOperationTask14OnTaskCompleteENS_14TaskCompletionEN7openpal18MonotonicTimestampE, %function
_ZN8opendnp320RestartOperationTask14OnTaskCompleteENS_14TaskCompletionEN7openpal18MonotonicTimestampE:
	.fnstart
.LFB2468:
	@ args = 8, pretend = 0, frame = 40
	@ frame_needed = 0, uses_anonymous_args = 0
	push	{r4, r5, r6, lr}
	.save {r4, r5, r6, lr}
	mov	r5, r0
	.pad #40
	sub	sp, sp, #40
	add	r0, r1, #88
	mov	r4, r1
	mov	r6, r2
	bl	_ZNK8opendnp312IAPDUHandler6ErrorsEv(PLT)
	ldrd	r2, [r4, #120]
	strh	r0, [sp, #24]	@ movhi
	orr	r0, r0, r0, lsr #8
	tst	r0, #255
	beq	.L21
	ldr	r0, [r4, #112]
	mov	r1, #1
	cmp	r0, #0
	strd	r2, [sp, #16]
	strb	r1, [sp, #8]
	beq	.L24
	ldr	r3, [r4, #116]
	add	r0, r4, #104
	add	r1, sp, #8
	blx	r3
	b	.L23
.L21:
	ldr	r1, [r4, #112]
	strb	r6, [sp, #24]
	cmp	r1, #0
	strd	r2, [sp, #32]
	beq	.L24
	ldr	r3, [r4, #116]
	add	r0, r4, #104
	add	r1, sp, #24
	blx	r3
.L23:
	mov	r0, sp
	bl	_ZN7openpal18MonotonicTimestamp3MaxEv(PLT)
	ldrd	r2, [sp]
	mov	r1, #0
	mov	r0, r5
	strb	r1, [r5]
	strd	r2, [r5, #8]
	add	sp, sp, #40
	@ sp needed
	pop	{r4, r5, r6, pc}
.L24:
	bl	_ZSt25__throw_bad_function_callv(PLT)
	.fnend
	.size	_ZN8opendnp320RestartOperationTask14OnTaskCompleteENS_14TaskCompletionEN7openpal18MonotonicTimestampE, .-_ZN8opendnp320RestartOperationTask14OnTaskCompleteENS_14TaskCompletionEN7openpal18MonotonicTimestampE
	.align	2
	.global	_ZN8opendnp320RestartOperationTask9IsAllowedEjNS_14GroupVariationENS_13QualifierCodeE
	.syntax unified
	.arm
	.fpu vfp
	.type	_ZN8opendnp320RestartOperationTask9IsAllowedEjNS_14GroupVariationENS_13QualifierCodeE, %function
_ZN8opendnp320RestartOperationTask9IsAllowedEjNS_14GroupVariationENS_13QualifierCodeE:
	.fnstart
.LFB2462:
	@ args = 0, pretend = 0, frame = 0
	@ frame_needed = 0, uses_anonymous_args = 0
	@ link register save eliminated.
	cmp	r1, #0
	bne	.L32
	sub	r2, r2, #13312
	sub	r2, r2, #1
	cmp	r2, #1
	movhi	r0, #0
	movls	r0, #1
	bx	lr
.L32:
	mov	r0, #0
	bx	lr
	.cantunwind
	.fnend
	.size	_ZN8opendnp320RestartOperationTask9IsAllowedEjNS_14GroupVariationENS_13QualifierCodeE, .-_ZN8opendnp320RestartOperationTask9IsAllowedEjNS_14GroupVariationENS_13QualifierCodeE
	.set	.LTHUNK0,_ZN8opendnp320RestartOperationTask9IsAllowedEjNS_14GroupVariationENS_13QualifierCodeE
	.align	2
	.global	_ZThn88_N8opendnp320RestartOperationTask9IsAllowedEjNS_14GroupVariationENS_13QualifierCodeE
	.syntax unified
	.arm
	.fpu vfp
	.type	_ZThn88_N8opendnp320RestartOperationTask9IsAllowedEjNS_14GroupVariationENS_13QualifierCodeE, %function
_ZThn88_N8opendnp320RestartOperationTask9IsAllowedEjNS_14GroupVariationENS_13QualifierCodeE:
	.fnstart
.LFB3190:
	@ args = 0, pretend = 0, frame = 0
	@ frame_needed = 0, uses_anonymous_args = 0
	sub	r0, r0, #88
	b	.LTHUNK0(PLT)
	.fnend
	.size	_ZThn88_N8opendnp320RestartOperationTask9IsAllowedEjNS_14GroupVariationENS_13QualifierCodeE, .-_ZThn88_N8opendnp320RestartOperationTask9IsAllowedEjNS_14GroupVariationENS_13QualifierCodeE
	.align	2
	.global	_ZN8opendnp320RestartOperationTask15ProcessResponseERKNS_18APDUResponseHeaderERKN7openpal6RSliceE
	.syntax unified
	.arm
	.fpu vfp
	.type	_ZN8opendnp320RestartOperationTask15ProcessResponseERKNS_18APDUResponseHeaderERKN7openpal6RSliceE, %function
_ZN8opendnp320RestartOperationTask15ProcessResponseERKNS_18APDUResponseHeaderERKN7openpal6RSliceE:
	.fnstart
.LFB2464:
	@ args = 0, pretend = 0, frame = 8
	@ frame_needed = 0, uses_anonymous_args = 0
	push	{r4, r5, r6, lr}
	.save {r4, r5, r6, lr}
	.pad #16
	sub	sp, sp, #16
	mov	r4, r2
	mov	r5, r0
	mov	r6, r1
	bl	_ZN8opendnp311IMasterTask22ValidateSingleResponseERKNS_18APDUResponseHeaderE(PLT)
	cmp	r0, #0
	bne	.L51
.L35:
	mov	r0, #0
	add	sp, sp, #16
	@ sp needed
	pop	{r4, r5, r6, pc}
.L51:
	mov	r1, r6
	mov	r0, r5
	bl	_ZN8opendnp311IMasterTask27ValidateInternalIndicationsERKNS_18APDUResponseHeaderE(PLT)
	cmp	r0, #0
	beq	.L35
	ldr	r3, [r4]
	cmp	r3, #0
	beq	.L35
	mov	r3, #1
	strb	r3, [sp, #8]
	mov	r2, #8192
	str	r2, [sp]
	mov	r0, r4
	ldr	r3, [sp, #8]
	add	r2, r5, #8
	add	r1, r5, #88
	bl	_ZN8opendnp310APDUParser5ParseERKN7openpal6RSliceERNS_12IAPDUHandlerEPNS1_6LoggerENS_14ParserSettingsE(PLT)
	cmp	r0, #0
	moveq	r0, #2
	bne	.L35
	add	sp, sp, #16
	@ sp needed
	pop	{r4, r5, r6, pc}
	.fnend
	.size	_ZN8opendnp320RestartOperationTask15ProcessResponseERKNS_18APDUResponseHeaderERKN7openpal6RSliceE, .-_ZN8opendnp320RestartOperationTask15ProcessResponseERKNS_18APDUResponseHeaderERKN7openpal6RSliceE
	.align	2
	.global	_ZN8opendnp320RestartOperationTask13ProcessHeaderERKNS_11CountHeaderERKNS_11ICollectionINS_11Group52Var1EEE
	.syntax unified
	.arm
	.fpu vfp
	.type	_ZN8opendnp320RestartOperationTask13ProcessHeaderERKNS_11CountHeaderERKNS_11ICollectionINS_11Group52Var1EEE, %function
_ZN8opendnp320RestartOperationTask13ProcessHeaderERKNS_11CountHeaderERKNS_11ICollectionINS_11Group52Var1EEE:
	.fnstart
.LFB2465:
	@ args = 0, pretend = 0, frame = 24
	@ frame_needed = 0, uses_anonymous_args = 0
	push	{r4, r5, r6, r7, lr}
	.save {r4, r5, r6, r7, lr}
	.pad #28
	sub	sp, sp, #28
	mov	r4, r2
	add	r5, sp, #12
	mov	r7, r0
	mov	r0, r5
	bl	_ZN8opendnp311Group52Var1C1Ev(PLT)
	ldr	r3, [r4]
	mov	r0, r4
	ldr	r6, .L58
	ldr	r3, [r3]
	blx	r3
.LPIC1:
	add	r6, pc, r6
	cmp	r0, #1
	beq	.L57
	mov	r3, #0
	mov	r1, #10
	add	r0, sp, #16
	strb	r3, [sp, #16]
	strb	r3, [sp, #17]
	bl	_ZN8opendnp38IINField6SetBitENS_6IINBitE(PLT)
	ldrb	r3, [sp, #17]	@ zero_extendqisi2
	strb	r3, [sp, #17]
.L54:
	ldrb	r3, [sp, #17]	@ zero_extendqisi2
	ldrb	r0, [sp, #16]	@ zero_extendqisi2
	orr	r0, r0, r3, lsl #8
	add	sp, sp, #28
	@ sp needed
	pop	{r4, r5, r6, r7, pc}
.L57:
	ldr	r3, .L58+4
	ldr	r2, [r4]
	add	r1, sp, #16
	ldr	r3, [r6, r3]
	ldr	r2, [r2, #4]
	add	r3, r3, #8
	mov	r0, r4
	str	r3, [sp, #16]
	str	r5, [sp, #20]
	blx	r2
	mov	r3, #0
	mov	r0, sp
	ldrh	r2, [sp, #12]
	bl	_ZN7openpal12TimeDuration7SecondsEx(PLT)
	ldrd	r0, [sp]
	mov	r3, #0
	strb	r3, [sp, #16]
	strd	r0, [r7, #120]
	strb	r3, [sp, #17]
	b	.L54
.L59:
	.align	2
.L58:
	.word	_GLOBAL_OFFSET_TABLE_-(.LPIC1+8)
	.word	_ZTVN8opendnp314FunctorVisitorINS_11Group52Var1EZNKS_11ICollectionIS1_E13ReadOnlyValueERS1_EUlRKS1_E_EE(GOT)
	.fnend
	.size	_ZN8opendnp320RestartOperationTask13ProcessHeaderERKNS_11CountHeaderERKNS_11ICollectionINS_11Group52Var1EEE, .-_ZN8opendnp320RestartOperationTask13ProcessHeaderERKNS_11CountHeaderERKNS_11ICollectionINS_11Group52Var1EEE
	.set	.LTHUNK1,_ZN8opendnp320RestartOperationTask13ProcessHeaderERKNS_11CountHeaderERKNS_11ICollectionINS_11Group52Var1EEE
	.align	2
	.global	_ZThn88_N8opendnp320RestartOperationTask13ProcessHeaderERKNS_11CountHeaderERKNS_11ICollectionINS_11Group52Var1EEE
	.syntax unified
	.arm
	.fpu vfp
	.type	_ZThn88_N8opendnp320RestartOperationTask13ProcessHeaderERKNS_11CountHeaderERKNS_11ICollectionINS_11Group52Var1EEE, %function
_ZThn88_N8opendnp320RestartOperationTask13ProcessHeaderERKNS_11CountHeaderERKNS_11ICollectionINS_11Group52Var1EEE:
	.fnstart
.LFB3191:
	@ args = 0, pretend = 0, frame = 0
	@ frame_needed = 0, uses_anonymous_args = 0
	sub	r0, r0, #88
	b	.LTHUNK1(PLT)
	.fnend
	.size	_ZThn88_N8opendnp320RestartOperationTask13ProcessHeaderERKNS_11CountHeaderERKNS_11ICollectionINS_11Group52Var1EEE, .-_ZThn88_N8opendnp320RestartOperationTask13ProcessHeaderERKNS_11CountHeaderERKNS_11ICollectionINS_11Group52Var1EEE
	.align	2
	.global	_ZN8opendnp320RestartOperationTask13ProcessHeaderERKNS_11CountHeaderERKNS_11ICollectionINS_11Group52Var2EEE
	.syntax unified
	.arm
	.fpu vfp
	.type	_ZN8opendnp320RestartOperationTask13ProcessHeaderERKNS_11CountHeaderERKNS_11ICollectionINS_11Group52Var2EEE, %function
_ZN8opendnp320RestartOperationTask13ProcessHeaderERKNS_11CountHeaderERKNS_11ICollectionINS_11Group52Var2EEE:
	.fnstart
.LFB2466:
	@ args = 0, pretend = 0, frame = 24
	@ frame_needed = 0, uses_anonymous_args = 0
	push	{r4, r5, r6, r7, lr}
	.save {r4, r5, r6, r7, lr}
	.pad #28
	sub	sp, sp, #28
	mov	r4, r2
	add	r5, sp, #12
	mov	r7, r0
	mov	r0, r5
	bl	_ZN8opendnp311Group52Var2C1Ev(PLT)
	ldr	r3, [r4]
	mov	r0, r4
	ldr	r6, .L66
	ldr	r3, [r3]
	blx	r3
.LPIC2:
	add	r6, pc, r6
	cmp	r0, #1
	beq	.L65
	mov	r3, #0
	mov	r1, #10
	add	r0, sp, #16
	strb	r3, [sp, #16]
	strb	r3, [sp, #17]
	bl	_ZN8opendnp38IINField6SetBitENS_6IINBitE(PLT)
	ldrb	r3, [sp, #17]	@ zero_extendqisi2
	strb	r3, [sp, #17]
.L62:
	ldrb	r3, [sp, #17]	@ zero_extendqisi2
	ldrb	r0, [sp, #16]	@ zero_extendqisi2
	orr	r0, r0, r3, lsl #8
	add	sp, sp, #28
	@ sp needed
	pop	{r4, r5, r6, r7, pc}
.L65:
	ldr	r3, .L66+4
	ldr	r2, [r4]
	add	r1, sp, #16
	ldr	r3, [r6, r3]
	ldr	r2, [r2, #4]
	add	r3, r3, #8
	mov	r0, r4
	str	r3, [sp, #16]
	str	r5, [sp, #20]
	blx	r2
	mov	r3, #0
	mov	r0, sp
	ldrh	r2, [sp, #12]
	bl	_ZN7openpal12TimeDuration12MillisecondsEx(PLT)
	ldrd	r0, [sp]
	mov	r3, #0
	strb	r3, [sp, #16]
	strd	r0, [r7, #120]
	strb	r3, [sp, #17]
	b	.L62
.L67:
	.align	2
.L66:
	.word	_GLOBAL_OFFSET_TABLE_-(.LPIC2+8)
	.word	_ZTVN8opendnp314FunctorVisitorINS_11Group52Var2EZNKS_11ICollectionIS1_E13ReadOnlyValueERS1_EUlRKS1_E_EE(GOT)
	.fnend
	.size	_ZN8opendnp320RestartOperationTask13ProcessHeaderERKNS_11CountHeaderERKNS_11ICollectionINS_11Group52Var2EEE, .-_ZN8opendnp320RestartOperationTask13ProcessHeaderERKNS_11CountHeaderERKNS_11ICollectionINS_11Group52Var2EEE
	.set	.LTHUNK2,_ZN8opendnp320RestartOperationTask13ProcessHeaderERKNS_11CountHeaderERKNS_11ICollectionINS_11Group52Var2EEE
	.align	2
	.global	_ZThn88_N8opendnp320RestartOperationTask13ProcessHeaderERKNS_11CountHeaderERKNS_11ICollectionINS_11Group52Var2EEE
	.syntax unified
	.arm
	.fpu vfp
	.type	_ZThn88_N8opendnp320RestartOperationTask13ProcessHeaderERKNS_11CountHeaderERKNS_11ICollectionINS_11Group52Var2EEE, %function
_ZThn88_N8opendnp320RestartOperationTask13ProcessHeaderERKNS_11CountHeaderERKNS_11ICollectionINS_11Group52Var2EEE:
	.fnstart
.LFB3192:
	@ args = 0, pretend = 0, frame = 0
	@ frame_needed = 0, uses_anonymous_args = 0
	sub	r0, r0, #88
	b	.LTHUNK2(PLT)
	.fnend
	.size	_ZThn88_N8opendnp320RestartOperationTask13ProcessHeaderERKNS_11CountHeaderERKNS_11ICollectionINS_11Group52Var2EEE, .-_ZThn88_N8opendnp320RestartOperationTask13ProcessHeaderERKNS_11CountHeaderERKNS_11ICollectionINS_11Group52Var2EEE
	.section	.text._ZN8opendnp320RestartOperationTaskD0Ev,"axG",%progbits,_ZN8opendnp320RestartOperationTaskD5Ev,comdat
	.align	2
	.weak	_ZN8opendnp320RestartOperationTaskD0Ev
	.syntax unified
	.arm
	.fpu vfp
	.type	_ZN8opendnp320RestartOperationTaskD0Ev, %function
_ZN8opendnp320RestartOperationTaskD0Ev:
	.fnstart
.LFB3131:
	@ args = 0, pretend = 0, frame = 0
	@ frame_needed = 0, uses_anonymous_args = 0
	push	{r4, r5, r6, lr}
	.save {r4, r5, r6, lr}
	mov	r4, r0
	ldr	r5, .L78
	ldr	r3, .L78+4
.LPIC3:
	add	r5, pc, r5
	ldr	r6, [r0, #112]
	ldr	r3, [r5, r3]
	cmp	r6, #0
	add	r2, r3, #8
	add	r3, r3, #80
	str	r2, [r0]
	str	r3, [r0, #88]
	beq	.L69
	add	r1, r0, #104
	mov	r0, r1
	mov	r2, #3
	blx	r6
.L69:
	ldr	r3, .L78+8
	ldr	r6, [r4, #80]
	ldr	r3, [r5, r3]
	cmp	r6, #0
	add	r3, r3, #8
	str	r3, [r4]
	beq	.L70
	add	r1, r4, #72
	mov	r0, r1
	mov	r2, #3
	blx	r6
.L70:
	mov	r0, r4
	bl	_ZN8opendnp311IMasterTaskD2Ev(PLT)
	mov	r0, r4
	mov	r1, #128
	bl	_ZdlPvj(PLT)
	mov	r0, r4
	pop	{r4, r5, r6, pc}
.L79:
	.align	2
.L78:
	.word	_GLOBAL_OFFSET_TABLE_-(.LPIC3+8)
	.word	_ZTVN8opendnp320RestartOperationTaskE(GOT)
	.word	_ZTVN8opendnp321SimpleRequestTaskBaseE(GOT)
	.global	__gxx_personality_v0
	.personality	__gxx_personality_v0
	.handlerdata
.LLSDA3131:
	.byte	0xff
	.byte	0xff
	.byte	0x1
	.uleb128 .LLSDACSE3131-.LLSDACSB3131
.LLSDACSB3131:
.LLSDACSE3131:
	.section	.text._ZN8opendnp320RestartOperationTaskD0Ev,"axG",%progbits,_ZN8opendnp320RestartOperationTaskD5Ev,comdat
	.fnend
	.size	_ZN8opendnp320RestartOperationTaskD0Ev, .-_ZN8opendnp320RestartOperationTaskD0Ev
	.section	.text._ZN8opendnp320RestartOperationTaskD2Ev,"axG",%progbits,_ZN8opendnp320RestartOperationTaskD5Ev,comdat
	.align	2
	.weak	_ZN8opendnp320RestartOperationTaskD2Ev
	.syntax unified
	.arm
	.fpu vfp
	.type	_ZN8opendnp320RestartOperationTaskD2Ev, %function
_ZN8opendnp320RestartOperationTaskD2Ev:
	.fnstart
.LFB3129:
	@ args = 0, pretend = 0, frame = 0
	@ frame_needed = 0, uses_anonymous_args = 0
	push	{r4, r5, r6, lr}
	.save {r4, r5, r6, lr}
	mov	r4, r0
	ldr	r5, .L90
	ldr	r3, .L90+4
.LPIC4:
	add	r5, pc, r5
	ldr	r6, [r0, #112]
	ldr	r3, [r5, r3]
	cmp	r6, #0
	add	r2, r3, #8
	add	r3, r3, #80
	str	r2, [r0]
	str	r3, [r0, #88]
	beq	.L81
	add	r1, r0, #104
	mov	r0, r1
	mov	r2, #3
	blx	r6
.L81:
	ldr	r3, .L90+8
	ldr	r6, [r4, #80]
	ldr	r3, [r5, r3]
	cmp	r6, #0
	add	r3, r3, #8
	str	r3, [r4]
	beq	.L82
	add	r1, r4, #72
	mov	r0, r1
	mov	r2, #3
	blx	r6
.L82:
	mov	r0, r4
	bl	_ZN8opendnp311IMasterTaskD2Ev(PLT)
	mov	r0, r4
	pop	{r4, r5, r6, pc}
.L91:
	.align	2
.L90:
	.word	_GLOBAL_OFFSET_TABLE_-(.LPIC4+8)
	.word	_ZTVN8opendnp320RestartOperationTaskE(GOT)
	.word	_ZTVN8opendnp321SimpleRequestTaskBaseE(GOT)
	.personality	__gxx_personality_v0
	.handlerdata
.LLSDA3129:
	.byte	0xff
	.byte	0xff
	.byte	0x1
	.uleb128 .LLSDACSE3129-.LLSDACSB3129
.LLSDACSB3129:
.LLSDACSE3129:
	.section	.text._ZN8opendnp320RestartOperationTaskD2Ev,"axG",%progbits,_ZN8opendnp320RestartOperationTaskD5Ev,comdat
	.fnend
	.size	_ZN8opendnp320RestartOperationTaskD2Ev, .-_ZN8opendnp320RestartOperationTaskD2Ev
	.weak	_ZN8opendnp320RestartOperationTaskD1Ev
	.set	_ZN8opendnp320RestartOperationTaskD1Ev,_ZN8opendnp320RestartOperationTaskD2Ev
	.section	.text._ZN7openpal6LoggerD2Ev,"axG",%progbits,_ZN7openpal6LoggerD5Ev,comdat
	.align	2
	.weak	_ZN7openpal6LoggerD2Ev
	.syntax unified
	.arm
	.fpu vfp
	.type	_ZN7openpal6LoggerD2Ev, %function
_ZN7openpal6LoggerD2Ev:
	.fnstart
.LFB1980:
	@ args = 0, pretend = 0, frame = 0
	@ frame_needed = 0, uses_anonymous_args = 0
	push	{r4, r5, r6, lr}
	mov	r4, r0
	ldr	r5, [r0, #12]
	ldr	r6, .L119
	cmp	r5, #0
.LPIC5:
	add	r6, pc, r6
	beq	.L94
	ldr	r3, .L119+4
	ldr	r3, [r6, r3]
	cmp	r3, #0
	beq	.L95
	add	r3, r5, #28
	mcr	p15, 0, r0, c7, c10, 5
.L111:
	ldrex	r2, [r3]
	sub	r1, r2, #1
	strex	r0, r1, [r3]
	cmp	r0, #0
	bne	.L111
	cmp	r2, #1
	mcr	p15, 0, r0, c7, c10, 5
	beq	.L117
.L94:
	ldr	r5, [r4, #4]
	cmp	r5, #0
	beq	.L107
	ldr	r3, .L119+4
	ldr	r3, [r6, r3]
	cmp	r3, #0
	beq	.L101
	add	r3, r5, #28
	mcr	p15, 0, r0, c7, c10, 5
.L110:
	ldrex	r2, [r3]
	sub	r1, r2, #1
	strex	r0, r1, [r3]
	cmp	r0, #0
	bne	.L110
	cmp	r2, #1
	mcr	p15, 0, r0, c7, c10, 5
	beq	.L118
.L107:
	mov	r0, r4
	pop	{r4, r5, r6, pc}
.L95:
	ldr	r3, [r5, #28]
	cmp	r3, #1
	sub	r3, r3, #1
	str	r3, [r5, #28]
	bne	.L94
	ldr	r3, [r5]
	mov	r0, r5
	ldr	r3, [r3, #8]
	blx	r3
	mcr	p15, 0, r0, c7, c10, 5
	ldr	r2, [r5, #32]
	sub	r3, r2, #1
	str	r3, [r5, #32]
	b	.L105
.L101:
	ldr	r3, [r5, #28]
	cmp	r3, #1
	sub	r3, r3, #1
	str	r3, [r5, #28]
	bne	.L107
	ldr	r3, [r5]
	mov	r0, r5
	ldr	r3, [r3, #8]
	blx	r3
	mcr	p15, 0, r0, c7, c10, 5
	ldr	r2, [r5, #32]
	sub	r3, r2, #1
	str	r3, [r5, #32]
	b	.L106
.L118:
	ldr	r3, [r5]
	mov	r0, r5
	ldr	r3, [r3, #8]
	blx	r3
	add	r3, r5, #32
	mcr	p15, 0, r0, c7, c10, 5
	mcr	p15, 0, r0, c7, c10, 5
.L108:
	ldrex	r2, [r3]
	sub	r1, r2, #1
	strex	r0, r1, [r3]
	cmp	r0, #0
	bne	.L108
	mcr	p15, 0, r0, c7, c10, 5
.L106:
	cmp	r2, #1
	bne	.L107
	ldr	r3, [r5]
	mov	r0, r5
	ldr	r3, [r3, #12]
	blx	r3
	b	.L107
.L117:
	ldr	r3, [r5]
	mov	r0, r5
	ldr	r3, [r3, #8]
	blx	r3
	add	r3, r5, #32
	mcr	p15, 0, r0, c7, c10, 5
	mcr	p15, 0, r0, c7, c10, 5
.L109:
	ldrex	r2, [r3]
	sub	r1, r2, #1
	strex	r0, r1, [r3]
	cmp	r0, #0
	bne	.L109
	mcr	p15, 0, r0, c7, c10, 5
.L105:
	cmp	r2, #1
	bne	.L94
	ldr	r3, [r5]
	mov	r0, r5
	ldr	r3, [r3, #12]
	blx	r3
	b	.L94
.L120:
	.align	2
.L119:
	.word	_GLOBAL_OFFSET_TABLE_-(.LPIC5+8)
	.word	_ZL28__gthrw___pthread_key_createPjPFvPvE(GOT)
	.cantunwind
	.fnend
	.size	_ZN7openpal6LoggerD2Ev, .-_ZN7openpal6LoggerD2Ev
	.weak	_ZN7openpal6LoggerD1Ev
	.set	_ZN7openpal6LoggerD1Ev,_ZN7openpal6LoggerD2Ev
	.text
	.align	2
	.global	_ZN8opendnp320RestartOperationTask14ToFunctionCodeENS_11RestartTypeE
	.syntax unified
	.arm
	.fpu vfp
	.type	_ZN8opendnp320RestartOperationTask14ToFunctionCodeENS_11RestartTypeE, %function
_ZN8opendnp320RestartOperationTask14ToFunctionCodeENS_11RestartTypeE:
	.fnstart
.LFB2467:
	@ args = 0, pretend = 0, frame = 0
	@ frame_needed = 0, uses_anonymous_args = 0
	@ link register save eliminated.
	cmp	r0, #0
	moveq	r0, #13
	movne	r0, #14
	bx	lr
	.cantunwind
	.fnend
	.size	_ZN8opendnp320RestartOperationTask14ToFunctionCodeENS_11RestartTypeE, .-_ZN8opendnp320RestartOperationTask14ToFunctionCodeENS_11RestartTypeE
	.align	2
	.global	_ZN8opendnp320RestartOperationTaskC2ERNS_18IMasterApplicationENS_11RestartTypeERKSt8functionIFvRKNS_22RestartOperationResultEEEN7openpal6LoggerERKNS_10TaskConfigE
	.syntax unified
	.arm
	.fpu vfp
	.type	_ZN8opendnp320RestartOperationTaskC2ERNS_18IMasterApplicationENS_11RestartTypeERKSt8functionIFvRKNS_22RestartOperationResultEEEN7openpal6LoggerERKNS_10TaskConfigE, %function
_ZN8opendnp320RestartOperationTaskC2ERNS_18IMasterApplicationENS_11RestartTypeERKSt8functionIFvRKNS_22RestartOperationResultEEEN7openpal6LoggerERKNS_10TaskConfigE:
	.fnstart
.LFB2460:
	@ args = 8, pretend = 0, frame = 32
	@ frame_needed = 0, uses_anonymous_args = 0
	push	{r4, r5, r6, r7, r8, r9, r10, lr}
	.save {r4, r5, r6, r7, r8, r9, r10, lr}
	.pad #48
	sub	sp, sp, #48
	mov	r4, r0
	mov	r0, r2
	ldr	r6, [sp, #80]
	mov	r9, r1
	mov	r7, r3
	ldr	r8, [sp, #84]
.LEHB0:
	bl	_ZN8opendnp320RestartOperationTask14ToFunctionCodeENS_11RestartTypeE(PLT)
.LEHE0:
	ldm	r6, {r1, r3}
	ldr	ip, .L202
	ldr	r5, .L202+4
	str	r1, [sp, #32]
	ldr	r1, .L202+8
.LPIC6:
	add	ip, pc, ip
	cmp	r3, #0
.LPIC7:
	add	r1, pc, r1
	str	r3, [sp, #36]
	str	ip, [sp, #28]
	str	r1, [sp, #24]
.LPIC8:
	add	r5, pc, r5
	mov	r2, r0
	beq	.L125
	ldr	r1, .L202+12
	ldr	r1, [r5, r1]
	cmp	r1, #0
	beq	.L126
	add	r3, r3, #28
	mcr	p15, 0, r0, c7, c10, 5
.L191:
	ldrex	r1, [r3]
	add	r1, r1, #1
	strex	r0, r1, [r3]
	cmp	r0, #0
	bne	.L191
	mcr	p15, 0, r0, c7, c10, 5
	ldr	ip, [r6, #12]
	ldr	r3, [r6, #8]
	cmp	ip, #0
	str	r3, [sp, #40]
	str	ip, [sp, #44]
	beq	.L128
.L193:
	add	ip, ip, #28
	mcr	p15, 0, r0, c7, c10, 5
.L190:
	ldrex	r3, [ip]
	add	r3, r3, #1
	strex	r1, r3, [ip]
	cmp	r1, #0
	bne	.L190
	mcr	p15, 0, r0, c7, c10, 5
.L128:
	add	r6, sp, #32
	add	r10, sp, #16
	str	r8, [sp, #8]
	mov	r1, r9
	str	r6, [sp, #4]
	str	r10, [sp]
	mov	r3, #110
	mov	r0, r4
.LEHB1:
	bl	_ZN8opendnp321SimpleRequestTaskBaseC2ERNS_18IMasterApplicationENS_12FunctionCodeEiRKSt8functionIFbRNS_12HeaderWriterEEEN7openpal6LoggerERKNS_10TaskConfigE(PLT)
.LEHE1:
	ldr	r6, [sp, #44]
	cmp	r6, #0
	beq	.L132
	ldr	r3, .L202+12
	ldr	r3, [r5, r3]
	cmp	r3, #0
	beq	.L133
	add	r3, r6, #28
	mcr	p15, 0, r0, c7, c10, 5
.L189:
	ldrex	r2, [r3]
	sub	r1, r2, #1
	strex	r0, r1, [r3]
	cmp	r0, #0
	bne	.L189
	cmp	r2, #1
	mcr	p15, 0, r0, c7, c10, 5
	beq	.L200
.L132:
	ldr	r6, [sp, #36]
	cmp	r6, #0
	beq	.L138
	ldr	r3, .L202+12
	ldr	r3, [r5, r3]
	cmp	r3, #0
	beq	.L139
	add	r3, r6, #28
	mcr	p15, 0, r0, c7, c10, 5
.L188:
	ldrex	r2, [r3]
	sub	r1, r2, #1
	strex	r0, r1, [r3]
	cmp	r0, #0
	bne	.L188
	cmp	r2, #1
	mcr	p15, 0, r0, c7, c10, 5
	beq	.L201
.L138:
	ldr	r3, [sp, #24]
	cmp	r3, #0
	beq	.L143
	mov	r2, #3
	mov	r1, r10
	mov	r0, r10
	blx	r3
.L143:
	add	r0, r4, #88
.LEHB2:
	bl	_ZN8opendnp312IAPDUHandlerC2Ev(PLT)
.LEHE2:
	ldr	r3, .L202+16
	mov	r2, #0
	add	r6, r4, #104
	ldr	r3, [r5, r3]
	str	r2, [r4, #112]
	ldr	r8, [r7, #8]
	add	r2, r3, #8
	cmp	r8, #0
	add	r3, r3, #80
	str	r2, [r4]
	str	r3, [r4, #88]
	beq	.L144
	mov	r2, #2
	mov	r1, r7
	mov	r0, r6
.LEHB3:
	blx	r8
.LEHE3:
	ldr	r2, [r7, #12]
	ldr	r3, [r7, #8]
	str	r2, [r4, #116]
	str	r3, [r4, #112]
.L144:
	add	r0, r4, #120
.LEHB4:
	bl	_ZN7openpal12TimeDuration3MinEv(PLT)
.LEHE4:
	mov	r0, r4
	add	sp, sp, #48
	@ sp needed
	pop	{r4, r5, r6, r7, r8, r9, r10, pc}
.L133:
	ldr	r3, [r6, #28]
	cmp	r3, #1
	sub	r3, r3, #1
	str	r3, [r6, #28]
	bne	.L132
	ldr	r3, [r6]
	mov	r0, r6
	ldr	r3, [r3, #8]
	blx	r3
	mcr	p15, 0, r0, c7, c10, 5
	ldr	r2, [r6, #32]
	sub	r3, r2, #1
	str	r3, [r6, #32]
	b	.L155
.L126:
	ldr	ip, [r6, #12]
	ldr	r1, [r3, #28]
	ldr	r0, [r6, #8]
	add	r1, r1, #1
	cmp	ip, #0
	str	r1, [r3, #28]
	str	ip, [sp, #44]
	str	r0, [sp, #40]
	beq	.L128
.L129:
	ldr	r3, [ip, #28]
	add	r3, r3, #1
	str	r3, [ip, #28]
	b	.L128
.L139:
	ldr	r3, [r6, #28]
	cmp	r3, #1
	sub	r3, r3, #1
	str	r3, [r6, #28]
	bne	.L138
	ldr	r3, [r6]
	mov	r0, r6
	ldr	r3, [r3, #8]
	blx	r3
	mcr	p15, 0, r0, c7, c10, 5
	ldr	r2, [r6, #32]
	sub	r3, r2, #1
	str	r3, [r6, #32]
	b	.L156
.L201:
	ldr	r3, [r6]
	mov	r0, r6
	ldr	r3, [r3, #8]
	blx	r3
	add	r3, r6, #32
	mcr	p15, 0, r0, c7, c10, 5
	mcr	p15, 0, r0, c7, c10, 5
.L186:
	ldrex	r2, [r3]
	sub	r1, r2, #1
	strex	r0, r1, [r3]
	cmp	r0, #0
	bne	.L186
	mcr	p15, 0, r0, c7, c10, 5
.L156:
	cmp	r2, #1
	bne	.L138
	ldr	r3, [r6]
	mov	r0, r6
	ldr	r3, [r3, #12]
	blx	r3
	b	.L138
.L200:
	ldr	r3, [r6]
	mov	r0, r6
	ldr	r3, [r3, #8]
	blx	r3
	add	r3, r6, #32
	mcr	p15, 0, r0, c7, c10, 5
	mcr	p15, 0, r0, c7, c10, 5
.L187:
	ldrex	r2, [r3]
	sub	r1, r2, #1
	strex	r0, r1, [r3]
	cmp	r0, #0
	bne	.L187
	mcr	p15, 0, r0, c7, c10, 5
.L155:
	cmp	r2, #1
	bne	.L132
	ldr	r3, [r6]
	mov	r0, r6
	ldr	r3, [r3, #12]
	blx	r3
	b	.L132
.L125:
	ldr	ip, [r6, #12]
	ldr	r3, [r6, #8]
	cmp	ip, #0
	str	ip, [sp, #44]
	str	r3, [sp, #40]
	beq	.L128
	ldr	r3, .L202+12
	ldr	r3, [r5, r3]
	cmp	r3, #0
	bne	.L193
	b	.L129
.L157:
	mov	r0, r6
	bl	_ZN7openpal6LoggerD1Ev(PLT)
	ldr	r3, [sp, #24]
	cmp	r3, #0
	beq	.L194
	mov	r2, #3
	mov	r1, r10
	mov	r0, r10
	blx	r3
.L194:
.LEHB5:
	bl	__cxa_end_cleanup(PLT)
.LEHE5:
.L160:
	ldr	r3, [r4, #112]
	cmp	r3, #0
	beq	.L148
	mov	r2, #3
	mov	r1, r6
	mov	r0, r6
	blx	r3
.L148:
	ldr	r3, .L202+20
	ldr	r6, [r4, #80]
	ldr	r3, [r5, r3]
	cmp	r6, #0
	add	r3, r3, #8
	str	r3, [r4]
	beq	.L153
	add	r1, r4, #72
	mov	r0, r1
	mov	r2, #3
	blx	r6
.L153:
	mov	r0, r4
	bl	_ZN8opendnp311IMasterTaskD2Ev(PLT)
	b	.L194
.L158:
	b	.L148
.L159:
	ldr	r3, [r4, #112]
	cmp	r3, #0
	beq	.L148
	mov	r2, #3
	mov	r1, r6
	mov	r0, r6
	blx	r3
	b	.L148
.L203:
	.align	2
.L202:
	.word	_ZNSt17_Function_handlerIFbRN8opendnp312HeaderWriterEEZNS0_20RestartOperationTaskC4ERNS0_18IMasterApplicationENS0_11RestartTypeERKSt8functionIFvRKNS0_22RestartOperationResultEEEN7openpal6LoggerERKNS0_10TaskConfigEEUlS2_E_E9_M_invokeERKSt9_Any_dataS2_-(.LPIC6+8)
	.word	_GLOBAL_OFFSET_TABLE_-(.LPIC8+8)
	.word	_ZNSt14_Function_base13_Base_managerIZN8opendnp320RestartOperationTaskC4ERNS1_18IMasterApplicationENS1_11RestartTypeERKSt8functionIFvRKNS1_22RestartOperationResultEEEN7openpal6LoggerERKNS1_10TaskConfigEEUlRNS1_12HeaderWriterEE_E10_M_managerERSt9_Any_dataRKSN_St18_Manager_operation-(.LPIC7+8)
	.word	_ZL28__gthrw___pthread_key_createPjPFvPvE(GOT)
	.word	_ZTVN8opendnp320RestartOperationTaskE(GOT)
	.word	_ZTVN8opendnp321SimpleRequestTaskBaseE(GOT)
	.personality	__gxx_personality_v0
	.handlerdata
.LLSDA2460:
	.byte	0xff
	.byte	0xff
	.byte	0x1
	.uleb128 .LLSDACSE2460-.LLSDACSB2460
.LLSDACSB2460:
	.uleb128 .LEHB0-.LFB2460
	.uleb128 .LEHE0-.LEHB0
	.uleb128 0
	.uleb128 0
	.uleb128 .LEHB1-.LFB2460
	.uleb128 .LEHE1-.LEHB1
	.uleb128 .L157-.LFB2460
	.uleb128 0
	.uleb128 .LEHB2-.LFB2460
	.uleb128 .LEHE2-.LEHB2
	.uleb128 .L158-.LFB2460
	.uleb128 0
	.uleb128 .LEHB3-.LFB2460
	.uleb128 .LEHE3-.LEHB3
	.uleb128 .L160-.LFB2460
	.uleb128 0
	.uleb128 .LEHB4-.LFB2460
	.uleb128 .LEHE4-.LEHB4
	.uleb128 .L159-.LFB2460
	.uleb128 0
	.uleb128 .LEHB5-.LFB2460
	.uleb128 .LEHE5-.LEHB5
	.uleb128 0
	.uleb128 0
.LLSDACSE2460:
	.text
	.fnend
	.size	_ZN8opendnp320RestartOperationTaskC2ERNS_18IMasterApplicationENS_11RestartTypeERKSt8functionIFvRKNS_22RestartOperationResultEEEN7openpal6LoggerERKNS_10TaskConfigE, .-_ZN8opendnp320RestartOperationTaskC2ERNS_18IMasterApplicationENS_11RestartTypeERKSt8functionIFvRKNS_22RestartOperationResultEEEN7openpal6LoggerERKNS_10TaskConfigE
	.global	_ZN8opendnp320RestartOperationTaskC1ERNS_18IMasterApplicationENS_11RestartTypeERKSt8functionIFvRKNS_22RestartOperationResultEEEN7openpal6LoggerERKNS_10TaskConfigE
	.set	_ZN8opendnp320RestartOperationTaskC1ERNS_18IMasterApplicationENS_11RestartTypeERKSt8functionIFvRKNS_22RestartOperationResultEEEN7openpal6LoggerERKNS_10TaskConfigE,_ZN8opendnp320RestartOperationTaskC2ERNS_18IMasterApplicationENS_11RestartTypeERKSt8functionIFvRKNS_22RestartOperationResultEEEN7openpal6LoggerERKNS_10TaskConfigE
	.global	_ZTSN8opendnp320RestartOperationTaskE
	.global	_ZTIN8opendnp320RestartOperationTaskE
	.weak	_ZTSN8opendnp38IVisitorINS_11Group52Var1EEE
	.section	.rodata._ZTSN8opendnp38IVisitorINS_11Group52Var1EEE,"aG",%progbits,_ZTSN8opendnp38IVisitorINS_11Group52Var1EEE,comdat
	.align	2
	.type	_ZTSN8opendnp38IVisitorINS_11Group52Var1EEE, %object
	.size	_ZTSN8opendnp38IVisitorINS_11Group52Var1EEE, 40
_ZTSN8opendnp38IVisitorINS_11Group52Var1EEE:
	.ascii	"N8opendnp38IVisitorINS_11Group52Var1EEE\000"
	.weak	_ZTIN8opendnp38IVisitorINS_11Group52Var1EEE
	.section	.data.rel.ro._ZTIN8opendnp38IVisitorINS_11Group52Var1EEE,"awG",%progbits,_ZTIN8opendnp38IVisitorINS_11Group52Var1EEE,comdat
	.align	2
	.type	_ZTIN8opendnp38IVisitorINS_11Group52Var1EEE, %object
	.size	_ZTIN8opendnp38IVisitorINS_11Group52Var1EEE, 8
_ZTIN8opendnp38IVisitorINS_11Group52Var1EEE:
	.word	_ZTVN10__cxxabiv117__class_type_infoE+8
	.word	_ZTSN8opendnp38IVisitorINS_11Group52Var1EEE
	.weak	_ZTSN8opendnp314FunctorVisitorINS_11Group52Var1EZNKS_11ICollectionIS1_E13ReadOnlyValueERS1_EUlRKS1_E_EE
	.section	.rodata._ZTSN8opendnp314FunctorVisitorINS_11Group52Var1EZNKS_11ICollectionIS1_E13ReadOnlyValueERS1_EUlRKS1_E_EE,"aG",%progbits,_ZTSN8opendnp314FunctorVisitorINS_11Group52Var1EZNKS_11ICollectionIS1_E13ReadOnlyValueERS1_EUlRKS1_E_EE,comdat
	.align	2
	.type	_ZTSN8opendnp314FunctorVisitorINS_11Group52Var1EZNKS_11ICollectionIS1_E13ReadOnlyValueERS1_EUlRKS1_E_EE, %object
	.size	_ZTSN8opendnp314FunctorVisitorINS_11Group52Var1EZNKS_11ICollectionIS1_E13ReadOnlyValueERS1_EUlRKS1_E_EE, 100
_ZTSN8opendnp314FunctorVisitorINS_11Group52Var1EZNKS_11ICollectionIS1_E13ReadOnlyValueERS1_EUlRKS1_E_EE:
	.ascii	"N8opendnp314FunctorVisitorINS_11Group52Var1EZNKS_11"
	.ascii	"ICollectionIS1_E13ReadOnlyValueERS1_EUlRKS1_E_EE\000"
	.weak	_ZTIN8opendnp314FunctorVisitorINS_11Group52Var1EZNKS_11ICollectionIS1_E13ReadOnlyValueERS1_EUlRKS1_E_EE
	.section	.data.rel.ro._ZTIN8opendnp314FunctorVisitorINS_11Group52Var1EZNKS_11ICollectionIS1_E13ReadOnlyValueERS1_EUlRKS1_E_EE,"awG",%progbits,_ZTIN8opendnp314FunctorVisitorINS_11Group52Var1EZNKS_11ICollectionIS1_E13ReadOnlyValueERS1_EUlRKS1_E_EE,comdat
	.align	2
	.type	_ZTIN8opendnp314FunctorVisitorINS_11Group52Var1EZNKS_11ICollectionIS1_E13ReadOnlyValueERS1_EUlRKS1_E_EE, %object
	.size	_ZTIN8opendnp314FunctorVisitorINS_11Group52Var1EZNKS_11ICollectionIS1_E13ReadOnlyValueERS1_EUlRKS1_E_EE, 12
_ZTIN8opendnp314FunctorVisitorINS_11Group52Var1EZNKS_11ICollectionIS1_E13ReadOnlyValueERS1_EUlRKS1_E_EE:
	.word	_ZTVN10__cxxabiv120__si_class_type_infoE+8
	.word	_ZTSN8opendnp314FunctorVisitorINS_11Group52Var1EZNKS_11ICollectionIS1_E13ReadOnlyValueERS1_EUlRKS1_E_EE
	.word	_ZTIN8opendnp38IVisitorINS_11Group52Var1EEE
	.weak	_ZTSN8opendnp38IVisitorINS_11Group52Var2EEE
	.section	.rodata._ZTSN8opendnp38IVisitorINS_11Group52Var2EEE,"aG",%progbits,_ZTSN8opendnp38IVisitorINS_11Group52Var2EEE,comdat
	.align	2
	.type	_ZTSN8opendnp38IVisitorINS_11Group52Var2EEE, %object
	.size	_ZTSN8opendnp38IVisitorINS_11Group52Var2EEE, 40
_ZTSN8opendnp38IVisitorINS_11Group52Var2EEE:
	.ascii	"N8opendnp38IVisitorINS_11Group52Var2EEE\000"
	.weak	_ZTIN8opendnp38IVisitorINS_11Group52Var2EEE
	.section	.data.rel.ro._ZTIN8opendnp38IVisitorINS_11Group52Var2EEE,"awG",%progbits,_ZTIN8opendnp38IVisitorINS_11Group52Var2EEE,comdat
	.align	2
	.type	_ZTIN8opendnp38IVisitorINS_11Group52Var2EEE, %object
	.size	_ZTIN8opendnp38IVisitorINS_11Group52Var2EEE, 8
_ZTIN8opendnp38IVisitorINS_11Group52Var2EEE:
	.word	_ZTVN10__cxxabiv117__class_type_infoE+8
	.word	_ZTSN8opendnp38IVisitorINS_11Group52Var2EEE
	.weak	_ZTSN8opendnp314FunctorVisitorINS_11Group52Var2EZNKS_11ICollectionIS1_E13ReadOnlyValueERS1_EUlRKS1_E_EE
	.section	.rodata._ZTSN8opendnp314FunctorVisitorINS_11Group52Var2EZNKS_11ICollectionIS1_E13ReadOnlyValueERS1_EUlRKS1_E_EE,"aG",%progbits,_ZTSN8opendnp314FunctorVisitorINS_11Group52Var2EZNKS_11ICollectionIS1_E13ReadOnlyValueERS1_EUlRKS1_E_EE,comdat
	.align	2
	.type	_ZTSN8opendnp314FunctorVisitorINS_11Group52Var2EZNKS_11ICollectionIS1_E13ReadOnlyValueERS1_EUlRKS1_E_EE, %object
	.size	_ZTSN8opendnp314FunctorVisitorINS_11Group52Var2EZNKS_11ICollectionIS1_E13ReadOnlyValueERS1_EUlRKS1_E_EE, 100
_ZTSN8opendnp314FunctorVisitorINS_11Group52Var2EZNKS_11ICollectionIS1_E13ReadOnlyValueERS1_EUlRKS1_E_EE:
	.ascii	"N8opendnp314FunctorVisitorINS_11Group52Var2EZNKS_11"
	.ascii	"ICollectionIS1_E13ReadOnlyValueERS1_EUlRKS1_E_EE\000"
	.weak	_ZTIN8opendnp314FunctorVisitorINS_11Group52Var2EZNKS_11ICollectionIS1_E13ReadOnlyValueERS1_EUlRKS1_E_EE
	.section	.data.rel.ro._ZTIN8opendnp314FunctorVisitorINS_11Group52Var2EZNKS_11ICollectionIS1_E13ReadOnlyValueERS1_EUlRKS1_E_EE,"awG",%progbits,_ZTIN8opendnp314FunctorVisitorINS_11Group52Var2EZNKS_11ICollectionIS1_E13ReadOnlyValueERS1_EUlRKS1_E_EE,comdat
	.align	2
	.type	_ZTIN8opendnp314FunctorVisitorINS_11Group52Var2EZNKS_11ICollectionIS1_E13ReadOnlyValueERS1_EUlRKS1_E_EE, %object
	.size	_ZTIN8opendnp314FunctorVisitorINS_11Group52Var2EZNKS_11ICollectionIS1_E13ReadOnlyValueERS1_EUlRKS1_E_EE, 12
_ZTIN8opendnp314FunctorVisitorINS_11Group52Var2EZNKS_11ICollectionIS1_E13ReadOnlyValueERS1_EUlRKS1_E_EE:
	.word	_ZTVN10__cxxabiv120__si_class_type_infoE+8
	.word	_ZTSN8opendnp314FunctorVisitorINS_11Group52Var2EZNKS_11ICollectionIS1_E13ReadOnlyValueERS1_EUlRKS1_E_EE
	.word	_ZTIN8opendnp38IVisitorINS_11Group52Var2EEE
	.global	_ZTVN8opendnp320RestartOperationTaskE
	.weak	_ZTVN8opendnp314FunctorVisitorINS_11Group52Var1EZNKS_11ICollectionIS1_E13ReadOnlyValueERS1_EUlRKS1_E_EE
	.section	.data.rel.ro._ZTVN8opendnp314FunctorVisitorINS_11Group52Var1EZNKS_11ICollectionIS1_E13ReadOnlyValueERS1_EUlRKS1_E_EE,"awG",%progbits,_ZTVN8opendnp314FunctorVisitorINS_11Group52Var1EZNKS_11ICollectionIS1_E13ReadOnlyValueERS1_EUlRKS1_E_EE,comdat
	.align	2
	.type	_ZTVN8opendnp314FunctorVisitorINS_11Group52Var1EZNKS_11ICollectionIS1_E13ReadOnlyValueERS1_EUlRKS1_E_EE, %object
	.size	_ZTVN8opendnp314FunctorVisitorINS_11Group52Var1EZNKS_11ICollectionIS1_E13ReadOnlyValueERS1_EUlRKS1_E_EE, 12
_ZTVN8opendnp314FunctorVisitorINS_11Group52Var1EZNKS_11ICollectionIS1_E13ReadOnlyValueERS1_EUlRKS1_E_EE:
	.word	0
	.word	_ZTIN8opendnp314FunctorVisitorINS_11Group52Var1EZNKS_11ICollectionIS1_E13ReadOnlyValueERS1_EUlRKS1_E_EE
	.word	_ZN8opendnp314FunctorVisitorINS_11Group52Var1EZNKS_11ICollectionIS1_E13ReadOnlyValueERS1_EUlRKS1_E_E7OnValueES6_
	.weak	_ZTVN8opendnp314FunctorVisitorINS_11Group52Var2EZNKS_11ICollectionIS1_E13ReadOnlyValueERS1_EUlRKS1_E_EE
	.section	.data.rel.ro._ZTVN8opendnp314FunctorVisitorINS_11Group52Var2EZNKS_11ICollectionIS1_E13ReadOnlyValueERS1_EUlRKS1_E_EE,"awG",%progbits,_ZTVN8opendnp314FunctorVisitorINS_11Group52Var2EZNKS_11ICollectionIS1_E13ReadOnlyValueERS1_EUlRKS1_E_EE,comdat
	.align	2
	.type	_ZTVN8opendnp314FunctorVisitorINS_11Group52Var2EZNKS_11ICollectionIS1_E13ReadOnlyValueERS1_EUlRKS1_E_EE, %object
	.size	_ZTVN8opendnp314FunctorVisitorINS_11Group52Var2EZNKS_11ICollectionIS1_E13ReadOnlyValueERS1_EUlRKS1_E_EE, 12
_ZTVN8opendnp314FunctorVisitorINS_11Group52Var2EZNKS_11ICollectionIS1_E13ReadOnlyValueERS1_EUlRKS1_E_EE:
	.word	0
	.word	_ZTIN8opendnp314FunctorVisitorINS_11Group52Var2EZNKS_11ICollectionIS1_E13ReadOnlyValueERS1_EUlRKS1_E_EE
	.word	_ZN8opendnp314FunctorVisitorINS_11Group52Var2EZNKS_11ICollectionIS1_E13ReadOnlyValueERS1_EUlRKS1_E_E7OnValueES6_
	.weakref	_ZL28__gthrw___pthread_key_createPjPFvPvE,__pthread_key_create
	.section	.rodata
	.align	2
	.type	_ZTSN8opendnp320RestartOperationTaskE, %object
	.size	_ZTSN8opendnp320RestartOperationTaskE, 34
_ZTSN8opendnp320RestartOperationTaskE:
	.ascii	"N8opendnp320RestartOperationTaskE\000"
	.space	2
	.type	_ZTSZN8opendnp320RestartOperationTaskC4ERNS_18IMasterApplicationENS_11RestartTypeERKSt8functionIFvRKNS_22RestartOperationResultEEEN7openpal6LoggerERKNS_10TaskConfigEEUlRNS_12HeaderWriterEE_, %object
	.size	_ZTSZN8opendnp320RestartOperationTaskC4ERNS_18IMasterApplicationENS_11RestartTypeERKSt8functionIFvRKNS_22RestartOperationResultEEEN7openpal6LoggerERKNS_10TaskConfigEEUlRNS_12HeaderWriterEE_, 187
_ZTSZN8opendnp320RestartOperationTaskC4ERNS_18IMasterApplicationENS_11RestartTypeERKSt8functionIFvRKNS_22RestartOperationResultEEEN7openpal6LoggerERKNS_10TaskConfigEEUlRNS_12HeaderWriterEE_:
	.ascii	"*ZN8opendnp320RestartOperationTaskC4ERNS_18IMasterA"
	.ascii	"pplicationENS_11RestartTypeERKSt8functionIFvRKNS_22"
	.ascii	"RestartOperationResultEEEN7openpal6LoggerERKNS_10Ta"
	.ascii	"skConfigEEUlRNS_12HeaderWriterEE_\000"
	.section	.data.rel.ro,"aw",%progbits
	.align	2
	.set	.LANCHOR0,. + 0
	.type	_ZTIZN8opendnp320RestartOperationTaskC4ERNS_18IMasterApplicationENS_11RestartTypeERKSt8functionIFvRKNS_22RestartOperationResultEEEN7openpal6LoggerERKNS_10TaskConfigEEUlRNS_12HeaderWriterEE_, %object
	.size	_ZTIZN8opendnp320RestartOperationTaskC4ERNS_18IMasterApplicationENS_11RestartTypeERKSt8functionIFvRKNS_22RestartOperationResultEEEN7openpal6LoggerERKNS_10TaskConfigEEUlRNS_12HeaderWriterEE_, 8
_ZTIZN8opendnp320RestartOperationTaskC4ERNS_18IMasterApplicationENS_11RestartTypeERKSt8functionIFvRKNS_22RestartOperationResultEEEN7openpal6LoggerERKNS_10TaskConfigEEUlRNS_12HeaderWriterEE_:
	.word	_ZTVN10__cxxabiv117__class_type_infoE+8
	.word	_ZTSZN8opendnp320RestartOperationTaskC4ERNS_18IMasterApplicationENS_11RestartTypeERKSt8functionIFvRKNS_22RestartOperationResultEEEN7openpal6LoggerERKNS_10TaskConfigEEUlRNS_12HeaderWriterEE_
	.type	_ZTIN8opendnp320RestartOperationTaskE, %object
	.size	_ZTIN8opendnp320RestartOperationTaskE, 32
_ZTIN8opendnp320RestartOperationTaskE:
	.word	_ZTVN10__cxxabiv121__vmi_class_type_infoE+8
	.word	_ZTSN8opendnp320RestartOperationTaskE
	.word	0
	.word	2
	.word	_ZTIN8opendnp321SimpleRequestTaskBaseE
	.word	2
	.word	_ZTIN8opendnp312IAPDUHandlerE
	.word	22528
	.type	_ZTVN8opendnp320RestartOperationTaskE, %object
	.size	_ZTVN8opendnp320RestartOperationTaskE, 296
_ZTVN8opendnp320RestartOperationTaskE:
	.word	0
	.word	_ZTIN8opendnp320RestartOperationTaskE
	.word	_ZN8opendnp320RestartOperationTaskD1Ev
	.word	_ZN8opendnp320RestartOperationTaskD0Ev
	.word	_ZNK8opendnp311IMasterTask10IsAuthTaskEv
	.word	_ZNK8opendnp320RestartOperationTask4NameEv
	.word	_ZNK8opendnp321SimpleRequestTaskBase8PriorityEv
	.word	_ZNK8opendnp321SimpleRequestTaskBase19BlocksLowerPriorityEv
	.word	_ZNK8opendnp321SimpleRequestTaskBase11IsRecurringEv
	.word	_ZN8opendnp321SimpleRequestTaskBase12BuildRequestERNS_11APDURequestEh
	.word	_ZN8opendnp311IMasterTask10InitializeEv
	.word	_ZN8opendnp320RestartOperationTask15ProcessResponseERKNS_18APDUResponseHeaderERKN7openpal6RSliceE
	.word	_ZN8opendnp320RestartOperationTask14OnTaskCompleteENS_14TaskCompletionEN7openpal18MonotonicTimestampE
	.word	_ZNK8opendnp321SimpleRequestTaskBase9IsEnabledEv
	.word	_ZNK8opendnp321SimpleRequestTaskBase11GetTaskTypeEv
	.word	_ZN8opendnp320RestartOperationTask9IsAllowedEjNS_14GroupVariationENS_13QualifierCodeE
	.word	_ZN8opendnp320RestartOperationTask13ProcessHeaderERKNS_11CountHeaderERKNS_11ICollectionINS_11Group52Var1EEE
	.word	_ZN8opendnp320RestartOperationTask13ProcessHeaderERKNS_11CountHeaderERKNS_11ICollectionINS_11Group52Var2EEE
	.word	-88
	.word	_ZTIN8opendnp320RestartOperationTaskE
	.word	_ZThn88_N8opendnp320RestartOperationTask9IsAllowedEjNS_14GroupVariationENS_13QualifierCodeE
	.word	_ZN8opendnp312IAPDUHandler13ProcessHeaderERKNS_16AllObjectsHeaderE
	.word	_ZN8opendnp312IAPDUHandler13ProcessHeaderERKNS_11RangeHeaderE
	.word	_ZN8opendnp312IAPDUHandler13ProcessHeaderERKNS_11CountHeaderE
	.word	_ZN8opendnp312IAPDUHandler13ProcessHeaderERKNS_16FreeFormatHeaderERKNS_12Group120Var1ERKN7openpal6RSliceE
	.word	_ZN8opendnp312IAPDUHandler13ProcessHeaderERKNS_16FreeFormatHeaderERKNS_12Group120Var2ERKN7openpal6RSliceE
	.word	_ZN8opendnp312IAPDUHandler13ProcessHeaderERKNS_16FreeFormatHeaderERKNS_12Group120Var5ERKN7openpal6RSliceE
	.word	_ZN8opendnp312IAPDUHandler13ProcessHeaderERKNS_16FreeFormatHeaderERKNS_12Group120Var6ERKN7openpal6RSliceE
	.word	_ZN8opendnp312IAPDUHandler13ProcessHeaderERKNS_16FreeFormatHeaderERKNS_12Group120Var8ERKN7openpal6RSliceE
	.word	_ZN8opendnp312IAPDUHandler13ProcessHeaderERKNS_16FreeFormatHeaderERKNS_12Group120Var7ERKN7openpal6RSliceE
	.word	_ZN8opendnp312IAPDUHandler13ProcessHeaderERKNS_16FreeFormatHeaderERKNS_12Group120Var9ERKN7openpal6RSliceE
	.word	_ZN8opendnp312IAPDUHandler13ProcessHeaderERKNS_16FreeFormatHeaderERKNS_13Group120Var10ERKN7openpal6RSliceE
	.word	_ZN8opendnp312IAPDUHandler13ProcessHeaderERKNS_16FreeFormatHeaderERKNS_13Group120Var11ERKN7openpal6RSliceE
	.word	_ZN8opendnp312IAPDUHandler13ProcessHeaderERKNS_16FreeFormatHeaderERKNS_13Group120Var12ERKN7openpal6RSliceE
	.word	_ZN8opendnp312IAPDUHandler13ProcessHeaderERKNS_16FreeFormatHeaderERKNS_13Group120Var13ERKN7openpal6RSliceE
	.word	_ZN8opendnp312IAPDUHandler13ProcessHeaderERKNS_16FreeFormatHeaderERKNS_13Group120Var14ERKN7openpal6RSliceE
	.word	_ZN8opendnp312IAPDUHandler13ProcessHeaderERKNS_16FreeFormatHeaderERKNS_13Group120Var15ERKN7openpal6RSliceE
	.word	_ZN8opendnp312IAPDUHandler13ProcessHeaderERKNS_11CountHeaderERKNS_11ICollectionINS_11Group50Var1EEE
	.word	_ZN8opendnp312IAPDUHandler13ProcessHeaderERKNS_11CountHeaderERKNS_11ICollectionINS_11Group51Var1EEE
	.word	_ZN8opendnp312IAPDUHandler13ProcessHeaderERKNS_11CountHeaderERKNS_11ICollectionINS_11Group51Var2EEE
	.word	_ZThn88_N8opendnp320RestartOperationTask13ProcessHeaderERKNS_11CountHeaderERKNS_11ICollectionINS_11Group52Var1EEE
	.word	_ZThn88_N8opendnp320RestartOperationTask13ProcessHeaderERKNS_11CountHeaderERKNS_11ICollectionINS_11Group52Var2EEE
	.word	_ZN8opendnp312IAPDUHandler13ProcessHeaderERKNS_11CountHeaderERKNS_11ICollectionINS_12Group120Var3EEE
	.word	_ZN8opendnp312IAPDUHandler13ProcessHeaderERKNS_11CountHeaderERKNS_11ICollectionINS_12Group120Var4EEE
	.word	_ZN8opendnp312IAPDUHandler13ProcessHeaderERKNS_11RangeHeaderERKNS_11ICollectionINS_7IndexedINS_8IINValueEEEEE
	.word	_ZN8opendnp312IAPDUHandler13ProcessHeaderERKNS_11RangeHeaderERKNS_11ICollectionINS_7IndexedINS_6BinaryEEEEE
	.word	_ZN8opendnp312IAPDUHandler13ProcessHeaderERKNS_11RangeHeaderERKNS_11ICollectionINS_7IndexedINS_15DoubleBitBinaryEEEEE
	.word	_ZN8opendnp312IAPDUHandler13ProcessHeaderERKNS_11RangeHeaderERKNS_11ICollectionINS_7IndexedINS_18BinaryOutputStatusEEEEE
	.word	_ZN8opendnp312IAPDUHandler13ProcessHeaderERKNS_11RangeHeaderERKNS_11ICollectionINS_7IndexedINS_7CounterEEEEE
	.word	_ZN8opendnp312IAPDUHandler13ProcessHeaderERKNS_11RangeHeaderERKNS_11ICollectionINS_7IndexedINS_13FrozenCounterEEEEE
	.word	_ZN8opendnp312IAPDUHandler13ProcessHeaderERKNS_11RangeHeaderERKNS_11ICollectionINS_7IndexedINS_6AnalogEEEEE
	.word	_ZN8opendnp312IAPDUHandler13ProcessHeaderERKNS_11RangeHeaderERKNS_11ICollectionINS_7IndexedINS_18AnalogOutputStatusEEEEE
	.word	_ZN8opendnp312IAPDUHandler13ProcessHeaderERKNS_11RangeHeaderERKNS_11ICollectionINS_7IndexedINS_11OctetStringEEEEE
	.word	_ZN8opendnp312IAPDUHandler13ProcessHeaderERKNS_11RangeHeaderERKNS_11ICollectionINS_7IndexedINS_15TimeAndIntervalEEEEE
	.word	_ZN8opendnp312IAPDUHandler13ProcessHeaderERKNS_11RangeHeaderERKNS_11ICollectionINS_7IndexedINS_12Group121Var1EEEEE
	.word	_ZN8opendnp312IAPDUHandler13ProcessHeaderERKNS_12PrefixHeaderERKNS_11ICollectionINS_7IndexedINS_6BinaryEEEEE
	.word	_ZN8opendnp312IAPDUHandler13ProcessHeaderERKNS_12PrefixHeaderERKNS_11ICollectionINS_7IndexedINS_18BinaryOutputStatusEEEEE
	.word	_ZN8opendnp312IAPDUHandler13ProcessHeaderERKNS_12PrefixHeaderERKNS_11ICollectionINS_7IndexedINS_15DoubleBitBinaryEEEEE
	.word	_ZN8opendnp312IAPDUHandler13ProcessHeaderERKNS_12PrefixHeaderERKNS_11ICollectionINS_7IndexedINS_7CounterEEEEE
	.word	_ZN8opendnp312IAPDUHandler13ProcessHeaderERKNS_12PrefixHeaderERKNS_11ICollectionINS_7IndexedINS_13FrozenCounterEEEEE
	.word	_ZN8opendnp312IAPDUHandler13ProcessHeaderERKNS_12PrefixHeaderERKNS_11ICollectionINS_7IndexedINS_6AnalogEEEEE
	.word	_ZN8opendnp312IAPDUHandler13ProcessHeaderERKNS_12PrefixHeaderERKNS_11ICollectionINS_7IndexedINS_18AnalogOutputStatusEEEEE
	.word	_ZN8opendnp312IAPDUHandler13ProcessHeaderERKNS_12PrefixHeaderERKNS_11ICollectionINS_7IndexedINS_11OctetStringEEEEE
	.word	_ZN8opendnp312IAPDUHandler13ProcessHeaderERKNS_12PrefixHeaderERKNS_11ICollectionINS_7IndexedINS_15TimeAndIntervalEEEEE
	.word	_ZN8opendnp312IAPDUHandler13ProcessHeaderERKNS_12PrefixHeaderERKNS_11ICollectionINS_7IndexedINS_18BinaryCommandEventEEEEE
	.word	_ZN8opendnp312IAPDUHandler13ProcessHeaderERKNS_12PrefixHeaderERKNS_11ICollectionINS_7IndexedINS_18AnalogCommandEventEEEEE
	.word	_ZN8opendnp312IAPDUHandler13ProcessHeaderERKNS_12PrefixHeaderERKNS_11ICollectionINS_7IndexedINS_12Group122Var1EEEEE
	.word	_ZN8opendnp312IAPDUHandler13ProcessHeaderERKNS_12PrefixHeaderERKNS_11ICollectionINS_7IndexedINS_12Group122Var2EEEEE
	.word	_ZN8opendnp312IAPDUHandler13ProcessHeaderERKNS_12PrefixHeaderERKNS_11ICollectionINS_7IndexedINS_23ControlRelayOutputBlockEEEEE
	.word	_ZN8opendnp312IAPDUHandler13ProcessHeaderERKNS_12PrefixHeaderERKNS_11ICollectionINS_7IndexedINS_17AnalogOutputInt16EEEEE
	.word	_ZN8opendnp312IAPDUHandler13ProcessHeaderERKNS_12PrefixHeaderERKNS_11ICollectionINS_7IndexedINS_17AnalogOutputInt32EEEEE
	.word	_ZN8opendnp312IAPDUHandler13ProcessHeaderERKNS_12PrefixHeaderERKNS_11ICollectionINS_7IndexedINS_19AnalogOutputFloat32EEEEE
	.word	_ZN8opendnp312IAPDUHandler13ProcessHeaderERKNS_12PrefixHeaderERKNS_11ICollectionINS_7IndexedINS_20AnalogOutputDouble64EEEEE
	.word	_ZN8opendnp312IAPDUHandler14OnHeaderResultERKNS_12HeaderRecordERKNS_8IINFieldE
	.ident	"GCC: (Raspbian 6.3.0-18+rpi1+deb9u1) 6.3.0 20170516"
	.section	.note.GNU-stack,"",%progbits
