	.arch armv6
	.eabi_attribute 28, 1
	.eabi_attribute 20, 1
	.eabi_attribute 21, 1
	.eabi_attribute 23, 3
	.eabi_attribute 24, 1
	.eabi_attribute 25, 1
	.eabi_attribute 26, 2
	.eabi_attribute 30, 2
	.eabi_attribute 34, 1
	.eabi_attribute 18, 4
	.file	"SecLinkLayerStates.cpp"
	.section	.text._ZNK8opendnp313SLLS_NotReset4NameEv,"axG",%progbits,_ZNK8opendnp313SLLS_NotReset4NameEv,comdat
	.align	2
	.weak	_ZNK8opendnp313SLLS_NotReset4NameEv
	.syntax unified
	.arm
	.fpu vfp
	.type	_ZNK8opendnp313SLLS_NotReset4NameEv, %function
_ZNK8opendnp313SLLS_NotReset4NameEv:
	.fnstart
.LFB2145:
	@ args = 0, pretend = 0, frame = 0
	@ frame_needed = 0, uses_anonymous_args = 0
	@ link register save eliminated.
	ldr	r0, .L2
.LPIC0:
	add	r0, pc, r0
	bx	lr
.L3:
	.align	2
.L2:
	.word	.LC0-(.LPIC0+8)
	.cantunwind
	.fnend
	.size	_ZNK8opendnp313SLLS_NotReset4NameEv, .-_ZNK8opendnp313SLLS_NotReset4NameEv
	.section	.text._ZNK8opendnp310SLLS_Reset4NameEv,"axG",%progbits,_ZNK8opendnp310SLLS_Reset4NameEv,comdat
	.align	2
	.weak	_ZNK8opendnp310SLLS_Reset4NameEv
	.syntax unified
	.arm
	.fpu vfp
	.type	_ZNK8opendnp310SLLS_Reset4NameEv, %function
_ZNK8opendnp310SLLS_Reset4NameEv:
	.fnstart
.LFB2150:
	@ args = 0, pretend = 0, frame = 0
	@ frame_needed = 0, uses_anonymous_args = 0
	@ link register save eliminated.
	ldr	r0, .L5
.LPIC1:
	add	r0, pc, r0
	bx	lr
.L6:
	.align	2
.L5:
	.word	.LC1-(.LPIC1+8)
	.cantunwind
	.fnend
	.size	_ZNK8opendnp310SLLS_Reset4NameEv, .-_ZNK8opendnp310SLLS_Reset4NameEv
	.section	.text._ZNK8opendnp322SLLS_TransmitWaitReset4NameEv,"axG",%progbits,_ZNK8opendnp322SLLS_TransmitWaitReset4NameEv,comdat
	.align	2
	.weak	_ZNK8opendnp322SLLS_TransmitWaitReset4NameEv
	.syntax unified
	.arm
	.fpu vfp
	.type	_ZNK8opendnp322SLLS_TransmitWaitReset4NameEv, %function
_ZNK8opendnp322SLLS_TransmitWaitReset4NameEv:
	.fnstart
.LFB2155:
	@ args = 0, pretend = 0, frame = 0
	@ frame_needed = 0, uses_anonymous_args = 0
	@ link register save eliminated.
	ldr	r0, .L8
.LPIC2:
	add	r0, pc, r0
	bx	lr
.L9:
	.align	2
.L8:
	.word	.LC2-(.LPIC2+8)
	.cantunwind
	.fnend
	.size	_ZNK8opendnp322SLLS_TransmitWaitReset4NameEv, .-_ZNK8opendnp322SLLS_TransmitWaitReset4NameEv
	.section	.text._ZNK8opendnp325SLLS_TransmitWaitNotReset4NameEv,"axG",%progbits,_ZNK8opendnp325SLLS_TransmitWaitNotReset4NameEv,comdat
	.align	2
	.weak	_ZNK8opendnp325SLLS_TransmitWaitNotReset4NameEv
	.syntax unified
	.arm
	.fpu vfp
	.type	_ZNK8opendnp325SLLS_TransmitWaitNotReset4NameEv, %function
_ZNK8opendnp325SLLS_TransmitWaitNotReset4NameEv:
	.fnstart
.LFB2160:
	@ args = 0, pretend = 0, frame = 0
	@ frame_needed = 0, uses_anonymous_args = 0
	@ link register save eliminated.
	ldr	r0, .L11
.LPIC3:
	add	r0, pc, r0
	bx	lr
.L12:
	.align	2
.L11:
	.word	.LC3-(.LPIC3+8)
	.cantunwind
	.fnend
	.size	_ZNK8opendnp325SLLS_TransmitWaitNotReset4NameEv, .-_ZNK8opendnp325SLLS_TransmitWaitNotReset4NameEv
	.section	.text._ZN8opendnp321SLLS_TransmitWaitBaseINS_13SLLS_NotResetEE16OnTransmitResultERNS_11LinkContextEb,"axG",%progbits,_ZN8opendnp321SLLS_TransmitWaitBaseINS_13SLLS_NotResetEE16OnTransmitResultERNS_11LinkContextEb,comdat
	.align	2
	.weak	_ZN8opendnp321SLLS_TransmitWaitBaseINS_13SLLS_NotResetEE16OnTransmitResultERNS_11LinkContextEb
	.syntax unified
	.arm
	.fpu vfp
	.type	_ZN8opendnp321SLLS_TransmitWaitBaseINS_13SLLS_NotResetEE16OnTransmitResultERNS_11LinkContextEb, %function
_ZN8opendnp321SLLS_TransmitWaitBaseINS_13SLLS_NotResetEE16OnTransmitResultERNS_11LinkContextEb:
	.fnstart
.LFB2776:
	@ args = 0, pretend = 0, frame = 0
	@ frame_needed = 0, uses_anonymous_args = 0
	@ link register save eliminated.
	ldr	r3, .L14
	ldr	r2, .L14+4
.LPIC4:
	add	r3, pc, r3
	ldr	r0, [r3, r2]
	bx	lr
.L15:
	.align	2
.L14:
	.word	_GLOBAL_OFFSET_TABLE_-(.LPIC4+8)
	.word	_ZN8opendnp313SLLS_NotReset8instanceE(GOT)
	.cantunwind
	.fnend
	.size	_ZN8opendnp321SLLS_TransmitWaitBaseINS_13SLLS_NotResetEE16OnTransmitResultERNS_11LinkContextEb, .-_ZN8opendnp321SLLS_TransmitWaitBaseINS_13SLLS_NotResetEE16OnTransmitResultERNS_11LinkContextEb
	.section	.text._ZN8opendnp321SLLS_TransmitWaitBaseINS_10SLLS_ResetEE16OnTransmitResultERNS_11LinkContextEb,"axG",%progbits,_ZN8opendnp321SLLS_TransmitWaitBaseINS_10SLLS_ResetEE16OnTransmitResultERNS_11LinkContextEb,comdat
	.align	2
	.weak	_ZN8opendnp321SLLS_TransmitWaitBaseINS_10SLLS_ResetEE16OnTransmitResultERNS_11LinkContextEb
	.syntax unified
	.arm
	.fpu vfp
	.type	_ZN8opendnp321SLLS_TransmitWaitBaseINS_10SLLS_ResetEE16OnTransmitResultERNS_11LinkContextEb, %function
_ZN8opendnp321SLLS_TransmitWaitBaseINS_10SLLS_ResetEE16OnTransmitResultERNS_11LinkContextEb:
	.fnstart
.LFB2781:
	@ args = 0, pretend = 0, frame = 0
	@ frame_needed = 0, uses_anonymous_args = 0
	@ link register save eliminated.
	ldr	r3, .L17
	ldr	r2, .L17+4
.LPIC5:
	add	r3, pc, r3
	ldr	r0, [r3, r2]
	bx	lr
.L18:
	.align	2
.L17:
	.word	_GLOBAL_OFFSET_TABLE_-(.LPIC5+8)
	.word	_ZN8opendnp310SLLS_Reset8instanceE(GOT)
	.cantunwind
	.fnend
	.size	_ZN8opendnp321SLLS_TransmitWaitBaseINS_10SLLS_ResetEE16OnTransmitResultERNS_11LinkContextEb, .-_ZN8opendnp321SLLS_TransmitWaitBaseINS_10SLLS_ResetEE16OnTransmitResultERNS_11LinkContextEb
	.text
	.align	2
	.global	_ZN8opendnp312SecStateBase16OnTransmitResultERNS_11LinkContextEb
	.syntax unified
	.arm
	.fpu vfp
	.type	_ZN8opendnp312SecStateBase16OnTransmitResultERNS_11LinkContextEb, %function
_ZN8opendnp312SecStateBase16OnTransmitResultERNS_11LinkContextEb:
	.fnstart
.LFB2161:
	@ args = 0, pretend = 0, frame = 128
	@ frame_needed = 0, uses_anonymous_args = 0
	push	{r4, r5, r6, r7, lr}
	.save {r4, r5, r6, r7, lr}
	.pad #132
	sub	sp, sp, #132
	add	r4, sp, #128
	add	r7, r1, #336
	mov	r6, #2
	str	r6, [r4, #-120]!
	mov	r5, r0
	mov	r1, r4
	mov	r0, r7
	bl	_ZNK7openpal6Logger9IsEnabledERKNS_10LogFiltersE(PLT)
	cmp	r0, #0
	beq	.L20
	ldr	r3, [r5]
	mov	r0, r5
	ldr	r3, [r3, #20]
	blx	r3
	ldr	r2, .L26
	mov	r1, #120
.LPIC6:
	add	r2, pc, r2
	mov	r3, r0
	mov	r0, r4
	bl	snprintf(PLT)
	add	r1, sp, #128
	ldr	r2, .L26+4
	mov	r3, r4
	mov	r0, r7
	str	r6, [r1, #-124]!
.LPIC7:
	add	r2, pc, r2
	bl	_ZN7openpal6Logger3LogERKNS_10LogFiltersEPKcS5_(PLT)
.L20:
	mov	r0, r5
	add	sp, sp, #132
	@ sp needed
	pop	{r4, r5, r6, r7, pc}
.L27:
	.align	2
.L26:
	.word	.LC4-(.LPIC6+8)
	.word	.LC5-(.LPIC7+8)
	.fnend
	.size	_ZN8opendnp312SecStateBase16OnTransmitResultERNS_11LinkContextEb, .-_ZN8opendnp312SecStateBase16OnTransmitResultERNS_11LinkContextEb
	.align	2
	.global	_ZN8opendnp313SLLS_NotReset16OnTestLinkStatusERNS_11LinkContextEb
	.syntax unified
	.arm
	.fpu vfp
	.type	_ZN8opendnp313SLLS_NotReset16OnTestLinkStatusERNS_11LinkContextEb, %function
_ZN8opendnp313SLLS_NotReset16OnTestLinkStatusERNS_11LinkContextEb:
	.fnstart
.LFB2162:
	@ args = 0, pretend = 0, frame = 8
	@ frame_needed = 0, uses_anonymous_args = 0
	push	{r4, r5, r6, r7, lr}
	.save {r4, r5, r6, r7, lr}
	.pad #12
	sub	sp, sp, #12
	ldr	r3, [r1, #440]
	add	r4, sp, #8
	add	r6, r1, #336
	add	r3, r3, #1
	mov	r5, #4
	str	r3, [r1, #440]
	str	r5, [r4, #-4]!
	mov	r7, r0
	mov	r1, r4
	mov	r0, r6
	bl	_ZNK7openpal6Logger9IsEnabledERKNS_10LogFiltersE(PLT)
	cmp	r0, #0
	beq	.L29
	ldr	r3, .L34
	ldr	r2, .L34+4
	mov	r1, r4
	mov	r0, r6
.LPIC8:
	add	r3, pc, r3
.LPIC9:
	add	r2, pc, r2
	str	r5, [sp, #4]
	bl	_ZN7openpal6Logger3LogERKNS_10LogFiltersEPKcS5_(PLT)
.L29:
	mov	r0, r7
	add	sp, sp, #12
	@ sp needed
	pop	{r4, r5, r6, r7, pc}
.L35:
	.align	2
.L34:
	.word	.LC6-(.LPIC8+8)
	.word	.LC7-(.LPIC9+8)
	.fnend
	.size	_ZN8opendnp313SLLS_NotReset16OnTestLinkStatusERNS_11LinkContextEb, .-_ZN8opendnp313SLLS_NotReset16OnTestLinkStatusERNS_11LinkContextEb
	.align	2
	.global	_ZN8opendnp313SLLS_NotReset19OnConfirmedUserDataERNS_11LinkContextEbRKN7openpal6RSliceE
	.syntax unified
	.arm
	.fpu vfp
	.type	_ZN8opendnp313SLLS_NotReset19OnConfirmedUserDataERNS_11LinkContextEbRKN7openpal6RSliceE, %function
_ZN8opendnp313SLLS_NotReset19OnConfirmedUserDataERNS_11LinkContextEbRKN7openpal6RSliceE:
	.fnstart
.LFB2163:
	@ args = 0, pretend = 0, frame = 8
	@ frame_needed = 0, uses_anonymous_args = 0
	push	{r4, r5, r6, r7, lr}
	.save {r4, r5, r6, r7, lr}
	.pad #12
	sub	sp, sp, #12
	ldr	r3, [r1, #440]
	add	r4, sp, #8
	add	r6, r1, #336
	add	r3, r3, #1
	mov	r5, #4
	str	r3, [r1, #440]
	str	r5, [r4, #-4]!
	mov	r7, r0
	mov	r1, r4
	mov	r0, r6
	bl	_ZNK7openpal6Logger9IsEnabledERKNS_10LogFiltersE(PLT)
	cmp	r0, #0
	beq	.L37
	ldr	r3, .L42
	ldr	r2, .L42+4
	mov	r1, r4
	mov	r0, r6
.LPIC10:
	add	r3, pc, r3
.LPIC11:
	add	r2, pc, r2
	str	r5, [sp, #4]
	bl	_ZN7openpal6Logger3LogERKNS_10LogFiltersEPKcS5_(PLT)
.L37:
	mov	r0, r7
	add	sp, sp, #12
	@ sp needed
	pop	{r4, r5, r6, r7, pc}
.L43:
	.align	2
.L42:
	.word	.LC8-(.LPIC10+8)
	.word	.LC9-(.LPIC11+8)
	.fnend
	.size	_ZN8opendnp313SLLS_NotReset19OnConfirmedUserDataERNS_11LinkContextEbRKN7openpal6RSliceE, .-_ZN8opendnp313SLLS_NotReset19OnConfirmedUserDataERNS_11LinkContextEbRKN7openpal6RSliceE
	.section	.text._ZN8opendnp321SLLS_TransmitWaitBaseINS_10SLLS_ResetEE19OnConfirmedUserDataERNS_11LinkContextEbRKN7openpal6RSliceE,"axG",%progbits,_ZN8opendnp321SLLS_TransmitWaitBaseINS_10SLLS_ResetEE19OnConfirmedUserDataERNS_11LinkContextEbRKN7openpal6RSliceE,comdat
	.align	2
	.weak	_ZN8opendnp321SLLS_TransmitWaitBaseINS_10SLLS_ResetEE19OnConfirmedUserDataERNS_11LinkContextEbRKN7openpal6RSliceE
	.syntax unified
	.arm
	.fpu vfp
	.type	_ZN8opendnp321SLLS_TransmitWaitBaseINS_10SLLS_ResetEE19OnConfirmedUserDataERNS_11LinkContextEbRKN7openpal6RSliceE, %function
_ZN8opendnp321SLLS_TransmitWaitBaseINS_10SLLS_ResetEE19OnConfirmedUserDataERNS_11LinkContextEbRKN7openpal6RSliceE:
	.fnstart
.LFB2780:
	@ args = 0, pretend = 0, frame = 8
	@ frame_needed = 0, uses_anonymous_args = 0
	push	{r4, r5, r6, r7, lr}
	.save {r4, r5, r6, r7, lr}
	.pad #12
	sub	sp, sp, #12
	add	r4, sp, #8
	add	r6, r1, #336
	mov	r5, #4
	str	r5, [r4, #-4]!
	mov	r7, r0
	mov	r1, r4
	mov	r0, r6
	bl	_ZNK7openpal6Logger9IsEnabledERKNS_10LogFiltersE(PLT)
	cmp	r0, #0
	beq	.L45
	ldr	r3, .L50
	ldr	r2, .L50+4
	mov	r1, r4
	mov	r0, r6
.LPIC12:
	add	r3, pc, r3
.LPIC13:
	add	r2, pc, r2
	str	r5, [sp, #4]
	bl	_ZN7openpal6Logger3LogERKNS_10LogFiltersEPKcS5_(PLT)
.L45:
	mov	r0, r7
	add	sp, sp, #12
	@ sp needed
	pop	{r4, r5, r6, r7, pc}
.L51:
	.align	2
.L50:
	.word	.LC10-(.LPIC12+8)
	.word	.LC11-(.LPIC13+8)
	.fnend
	.size	_ZN8opendnp321SLLS_TransmitWaitBaseINS_10SLLS_ResetEE19OnConfirmedUserDataERNS_11LinkContextEbRKN7openpal6RSliceE, .-_ZN8opendnp321SLLS_TransmitWaitBaseINS_10SLLS_ResetEE19OnConfirmedUserDataERNS_11LinkContextEbRKN7openpal6RSliceE
	.section	.text._ZN8opendnp321SLLS_TransmitWaitBaseINS_10SLLS_ResetEE16OnTestLinkStatusERNS_11LinkContextEb,"axG",%progbits,_ZN8opendnp321SLLS_TransmitWaitBaseINS_10SLLS_ResetEE16OnTestLinkStatusERNS_11LinkContextEb,comdat
	.align	2
	.weak	_ZN8opendnp321SLLS_TransmitWaitBaseINS_10SLLS_ResetEE16OnTestLinkStatusERNS_11LinkContextEb
	.syntax unified
	.arm
	.fpu vfp
	.type	_ZN8opendnp321SLLS_TransmitWaitBaseINS_10SLLS_ResetEE16OnTestLinkStatusERNS_11LinkContextEb, %function
_ZN8opendnp321SLLS_TransmitWaitBaseINS_10SLLS_ResetEE16OnTestLinkStatusERNS_11LinkContextEb:
	.fnstart
.LFB2779:
	@ args = 0, pretend = 0, frame = 8
	@ frame_needed = 0, uses_anonymous_args = 0
	push	{r4, r5, r6, r7, lr}
	.save {r4, r5, r6, r7, lr}
	.pad #12
	sub	sp, sp, #12
	add	r4, sp, #8
	add	r6, r1, #336
	mov	r5, #4
	str	r5, [r4, #-4]!
	mov	r7, r0
	mov	r1, r4
	mov	r0, r6
	bl	_ZNK7openpal6Logger9IsEnabledERKNS_10LogFiltersE(PLT)
	cmp	r0, #0
	beq	.L53
	ldr	r3, .L58
	ldr	r2, .L58+4
	mov	r1, r4
	mov	r0, r6
.LPIC14:
	add	r3, pc, r3
.LPIC15:
	add	r2, pc, r2
	str	r5, [sp, #4]
	bl	_ZN7openpal6Logger3LogERKNS_10LogFiltersEPKcS5_(PLT)
.L53:
	mov	r0, r7
	add	sp, sp, #12
	@ sp needed
	pop	{r4, r5, r6, r7, pc}
.L59:
	.align	2
.L58:
	.word	.LC10-(.LPIC14+8)
	.word	.LC12-(.LPIC15+8)
	.fnend
	.size	_ZN8opendnp321SLLS_TransmitWaitBaseINS_10SLLS_ResetEE16OnTestLinkStatusERNS_11LinkContextEb, .-_ZN8opendnp321SLLS_TransmitWaitBaseINS_10SLLS_ResetEE16OnTestLinkStatusERNS_11LinkContextEb
	.section	.text._ZN8opendnp321SLLS_TransmitWaitBaseINS_10SLLS_ResetEE19OnRequestLinkStatusERNS_11LinkContextE,"axG",%progbits,_ZN8opendnp321SLLS_TransmitWaitBaseINS_10SLLS_ResetEE19OnRequestLinkStatusERNS_11LinkContextE,comdat
	.align	2
	.weak	_ZN8opendnp321SLLS_TransmitWaitBaseINS_10SLLS_ResetEE19OnRequestLinkStatusERNS_11LinkContextE
	.syntax unified
	.arm
	.fpu vfp
	.type	_ZN8opendnp321SLLS_TransmitWaitBaseINS_10SLLS_ResetEE19OnRequestLinkStatusERNS_11LinkContextE, %function
_ZN8opendnp321SLLS_TransmitWaitBaseINS_10SLLS_ResetEE19OnRequestLinkStatusERNS_11LinkContextE:
	.fnstart
.LFB2778:
	@ args = 0, pretend = 0, frame = 8
	@ frame_needed = 0, uses_anonymous_args = 0
	push	{r4, r5, r6, r7, lr}
	.save {r4, r5, r6, r7, lr}
	.pad #12
	sub	sp, sp, #12
	add	r4, sp, #8
	add	r6, r1, #336
	mov	r5, #4
	str	r5, [r4, #-4]!
	mov	r7, r0
	mov	r1, r4
	mov	r0, r6
	bl	_ZNK7openpal6Logger9IsEnabledERKNS_10LogFiltersE(PLT)
	cmp	r0, #0
	beq	.L61
	ldr	r3, .L66
	ldr	r2, .L66+4
	mov	r1, r4
	mov	r0, r6
.LPIC16:
	add	r3, pc, r3
.LPIC17:
	add	r2, pc, r2
	str	r5, [sp, #4]
	bl	_ZN7openpal6Logger3LogERKNS_10LogFiltersEPKcS5_(PLT)
.L61:
	mov	r0, r7
	add	sp, sp, #12
	@ sp needed
	pop	{r4, r5, r6, r7, pc}
.L67:
	.align	2
.L66:
	.word	.LC10-(.LPIC16+8)
	.word	.LC13-(.LPIC17+8)
	.fnend
	.size	_ZN8opendnp321SLLS_TransmitWaitBaseINS_10SLLS_ResetEE19OnRequestLinkStatusERNS_11LinkContextE, .-_ZN8opendnp321SLLS_TransmitWaitBaseINS_10SLLS_ResetEE19OnRequestLinkStatusERNS_11LinkContextE
	.section	.text._ZN8opendnp321SLLS_TransmitWaitBaseINS_10SLLS_ResetEE17OnResetLinkStatesERNS_11LinkContextE,"axG",%progbits,_ZN8opendnp321SLLS_TransmitWaitBaseINS_10SLLS_ResetEE17OnResetLinkStatesERNS_11LinkContextE,comdat
	.align	2
	.weak	_ZN8opendnp321SLLS_TransmitWaitBaseINS_10SLLS_ResetEE17OnResetLinkStatesERNS_11LinkContextE
	.syntax unified
	.arm
	.fpu vfp
	.type	_ZN8opendnp321SLLS_TransmitWaitBaseINS_10SLLS_ResetEE17OnResetLinkStatesERNS_11LinkContextE, %function
_ZN8opendnp321SLLS_TransmitWaitBaseINS_10SLLS_ResetEE17OnResetLinkStatesERNS_11LinkContextE:
	.fnstart
.LFB2777:
	@ args = 0, pretend = 0, frame = 8
	@ frame_needed = 0, uses_anonymous_args = 0
	push	{r4, r5, r6, r7, lr}
	.save {r4, r5, r6, r7, lr}
	.pad #12
	sub	sp, sp, #12
	add	r4, sp, #8
	add	r6, r1, #336
	mov	r5, #4
	str	r5, [r4, #-4]!
	mov	r7, r0
	mov	r1, r4
	mov	r0, r6
	bl	_ZNK7openpal6Logger9IsEnabledERKNS_10LogFiltersE(PLT)
	cmp	r0, #0
	beq	.L69
	ldr	r3, .L74
	ldr	r2, .L74+4
	mov	r1, r4
	mov	r0, r6
.LPIC18:
	add	r3, pc, r3
.LPIC19:
	add	r2, pc, r2
	str	r5, [sp, #4]
	bl	_ZN7openpal6Logger3LogERKNS_10LogFiltersEPKcS5_(PLT)
.L69:
	mov	r0, r7
	add	sp, sp, #12
	@ sp needed
	pop	{r4, r5, r6, r7, pc}
.L75:
	.align	2
.L74:
	.word	.LC10-(.LPIC18+8)
	.word	.LC14-(.LPIC19+8)
	.fnend
	.size	_ZN8opendnp321SLLS_TransmitWaitBaseINS_10SLLS_ResetEE17OnResetLinkStatesERNS_11LinkContextE, .-_ZN8opendnp321SLLS_TransmitWaitBaseINS_10SLLS_ResetEE17OnResetLinkStatesERNS_11LinkContextE
	.section	.text._ZN8opendnp321SLLS_TransmitWaitBaseINS_13SLLS_NotResetEE19OnConfirmedUserDataERNS_11LinkContextEbRKN7openpal6RSliceE,"axG",%progbits,_ZN8opendnp321SLLS_TransmitWaitBaseINS_13SLLS_NotResetEE19OnConfirmedUserDataERNS_11LinkContextEbRKN7openpal6RSliceE,comdat
	.align	2
	.weak	_ZN8opendnp321SLLS_TransmitWaitBaseINS_13SLLS_NotResetEE19OnConfirmedUserDataERNS_11LinkContextEbRKN7openpal6RSliceE
	.syntax unified
	.arm
	.fpu vfp
	.type	_ZN8opendnp321SLLS_TransmitWaitBaseINS_13SLLS_NotResetEE19OnConfirmedUserDataERNS_11LinkContextEbRKN7openpal6RSliceE, %function
_ZN8opendnp321SLLS_TransmitWaitBaseINS_13SLLS_NotResetEE19OnConfirmedUserDataERNS_11LinkContextEbRKN7openpal6RSliceE:
	.fnstart
.LFB2775:
	@ args = 0, pretend = 0, frame = 8
	@ frame_needed = 0, uses_anonymous_args = 0
	push	{r4, r5, r6, r7, lr}
	.save {r4, r5, r6, r7, lr}
	.pad #12
	sub	sp, sp, #12
	add	r4, sp, #8
	add	r6, r1, #336
	mov	r5, #4
	str	r5, [r4, #-4]!
	mov	r7, r0
	mov	r1, r4
	mov	r0, r6
	bl	_ZNK7openpal6Logger9IsEnabledERKNS_10LogFiltersE(PLT)
	cmp	r0, #0
	beq	.L77
	ldr	r3, .L82
	ldr	r2, .L82+4
	mov	r1, r4
	mov	r0, r6
.LPIC20:
	add	r3, pc, r3
.LPIC21:
	add	r2, pc, r2
	str	r5, [sp, #4]
	bl	_ZN7openpal6Logger3LogERKNS_10LogFiltersEPKcS5_(PLT)
.L77:
	mov	r0, r7
	add	sp, sp, #12
	@ sp needed
	pop	{r4, r5, r6, r7, pc}
.L83:
	.align	2
.L82:
	.word	.LC10-(.LPIC20+8)
	.word	.LC11-(.LPIC21+8)
	.fnend
	.size	_ZN8opendnp321SLLS_TransmitWaitBaseINS_13SLLS_NotResetEE19OnConfirmedUserDataERNS_11LinkContextEbRKN7openpal6RSliceE, .-_ZN8opendnp321SLLS_TransmitWaitBaseINS_13SLLS_NotResetEE19OnConfirmedUserDataERNS_11LinkContextEbRKN7openpal6RSliceE
	.section	.text._ZN8opendnp321SLLS_TransmitWaitBaseINS_13SLLS_NotResetEE16OnTestLinkStatusERNS_11LinkContextEb,"axG",%progbits,_ZN8opendnp321SLLS_TransmitWaitBaseINS_13SLLS_NotResetEE16OnTestLinkStatusERNS_11LinkContextEb,comdat
	.align	2
	.weak	_ZN8opendnp321SLLS_TransmitWaitBaseINS_13SLLS_NotResetEE16OnTestLinkStatusERNS_11LinkContextEb
	.syntax unified
	.arm
	.fpu vfp
	.type	_ZN8opendnp321SLLS_TransmitWaitBaseINS_13SLLS_NotResetEE16OnTestLinkStatusERNS_11LinkContextEb, %function
_ZN8opendnp321SLLS_TransmitWaitBaseINS_13SLLS_NotResetEE16OnTestLinkStatusERNS_11LinkContextEb:
	.fnstart
.LFB2774:
	@ args = 0, pretend = 0, frame = 8
	@ frame_needed = 0, uses_anonymous_args = 0
	push	{r4, r5, r6, r7, lr}
	.save {r4, r5, r6, r7, lr}
	.pad #12
	sub	sp, sp, #12
	add	r4, sp, #8
	add	r6, r1, #336
	mov	r5, #4
	str	r5, [r4, #-4]!
	mov	r7, r0
	mov	r1, r4
	mov	r0, r6
	bl	_ZNK7openpal6Logger9IsEnabledERKNS_10LogFiltersE(PLT)
	cmp	r0, #0
	beq	.L85
	ldr	r3, .L90
	ldr	r2, .L90+4
	mov	r1, r4
	mov	r0, r6
.LPIC22:
	add	r3, pc, r3
.LPIC23:
	add	r2, pc, r2
	str	r5, [sp, #4]
	bl	_ZN7openpal6Logger3LogERKNS_10LogFiltersEPKcS5_(PLT)
.L85:
	mov	r0, r7
	add	sp, sp, #12
	@ sp needed
	pop	{r4, r5, r6, r7, pc}
.L91:
	.align	2
.L90:
	.word	.LC10-(.LPIC22+8)
	.word	.LC12-(.LPIC23+8)
	.fnend
	.size	_ZN8opendnp321SLLS_TransmitWaitBaseINS_13SLLS_NotResetEE16OnTestLinkStatusERNS_11LinkContextEb, .-_ZN8opendnp321SLLS_TransmitWaitBaseINS_13SLLS_NotResetEE16OnTestLinkStatusERNS_11LinkContextEb
	.section	.text._ZN8opendnp321SLLS_TransmitWaitBaseINS_13SLLS_NotResetEE19OnRequestLinkStatusERNS_11LinkContextE,"axG",%progbits,_ZN8opendnp321SLLS_TransmitWaitBaseINS_13SLLS_NotResetEE19OnRequestLinkStatusERNS_11LinkContextE,comdat
	.align	2
	.weak	_ZN8opendnp321SLLS_TransmitWaitBaseINS_13SLLS_NotResetEE19OnRequestLinkStatusERNS_11LinkContextE
	.syntax unified
	.arm
	.fpu vfp
	.type	_ZN8opendnp321SLLS_TransmitWaitBaseINS_13SLLS_NotResetEE19OnRequestLinkStatusERNS_11LinkContextE, %function
_ZN8opendnp321SLLS_TransmitWaitBaseINS_13SLLS_NotResetEE19OnRequestLinkStatusERNS_11LinkContextE:
	.fnstart
.LFB2773:
	@ args = 0, pretend = 0, frame = 8
	@ frame_needed = 0, uses_anonymous_args = 0
	push	{r4, r5, r6, r7, lr}
	.save {r4, r5, r6, r7, lr}
	.pad #12
	sub	sp, sp, #12
	add	r4, sp, #8
	add	r6, r1, #336
	mov	r5, #4
	str	r5, [r4, #-4]!
	mov	r7, r0
	mov	r1, r4
	mov	r0, r6
	bl	_ZNK7openpal6Logger9IsEnabledERKNS_10LogFiltersE(PLT)
	cmp	r0, #0
	beq	.L93
	ldr	r3, .L98
	ldr	r2, .L98+4
	mov	r1, r4
	mov	r0, r6
.LPIC24:
	add	r3, pc, r3
.LPIC25:
	add	r2, pc, r2
	str	r5, [sp, #4]
	bl	_ZN7openpal6Logger3LogERKNS_10LogFiltersEPKcS5_(PLT)
.L93:
	mov	r0, r7
	add	sp, sp, #12
	@ sp needed
	pop	{r4, r5, r6, r7, pc}
.L99:
	.align	2
.L98:
	.word	.LC10-(.LPIC24+8)
	.word	.LC13-(.LPIC25+8)
	.fnend
	.size	_ZN8opendnp321SLLS_TransmitWaitBaseINS_13SLLS_NotResetEE19OnRequestLinkStatusERNS_11LinkContextE, .-_ZN8opendnp321SLLS_TransmitWaitBaseINS_13SLLS_NotResetEE19OnRequestLinkStatusERNS_11LinkContextE
	.section	.text._ZN8opendnp321SLLS_TransmitWaitBaseINS_13SLLS_NotResetEE17OnResetLinkStatesERNS_11LinkContextE,"axG",%progbits,_ZN8opendnp321SLLS_TransmitWaitBaseINS_13SLLS_NotResetEE17OnResetLinkStatesERNS_11LinkContextE,comdat
	.align	2
	.weak	_ZN8opendnp321SLLS_TransmitWaitBaseINS_13SLLS_NotResetEE17OnResetLinkStatesERNS_11LinkContextE
	.syntax unified
	.arm
	.fpu vfp
	.type	_ZN8opendnp321SLLS_TransmitWaitBaseINS_13SLLS_NotResetEE17OnResetLinkStatesERNS_11LinkContextE, %function
_ZN8opendnp321SLLS_TransmitWaitBaseINS_13SLLS_NotResetEE17OnResetLinkStatesERNS_11LinkContextE:
	.fnstart
.LFB2772:
	@ args = 0, pretend = 0, frame = 8
	@ frame_needed = 0, uses_anonymous_args = 0
	push	{r4, r5, r6, r7, lr}
	.save {r4, r5, r6, r7, lr}
	.pad #12
	sub	sp, sp, #12
	add	r4, sp, #8
	add	r6, r1, #336
	mov	r5, #4
	str	r5, [r4, #-4]!
	mov	r7, r0
	mov	r1, r4
	mov	r0, r6
	bl	_ZNK7openpal6Logger9IsEnabledERKNS_10LogFiltersE(PLT)
	cmp	r0, #0
	beq	.L101
	ldr	r3, .L106
	ldr	r2, .L106+4
	mov	r1, r4
	mov	r0, r6
.LPIC26:
	add	r3, pc, r3
.LPIC27:
	add	r2, pc, r2
	str	r5, [sp, #4]
	bl	_ZN7openpal6Logger3LogERKNS_10LogFiltersEPKcS5_(PLT)
.L101:
	mov	r0, r7
	add	sp, sp, #12
	@ sp needed
	pop	{r4, r5, r6, r7, pc}
.L107:
	.align	2
.L106:
	.word	.LC10-(.LPIC26+8)
	.word	.LC14-(.LPIC27+8)
	.fnend
	.size	_ZN8opendnp321SLLS_TransmitWaitBaseINS_13SLLS_NotResetEE17OnResetLinkStatesERNS_11LinkContextE, .-_ZN8opendnp321SLLS_TransmitWaitBaseINS_13SLLS_NotResetEE17OnResetLinkStatesERNS_11LinkContextE
	.text
	.align	2
	.global	_ZN8opendnp310SLLS_Reset17OnResetLinkStatesERNS_11LinkContextE
	.syntax unified
	.arm
	.fpu vfp
	.type	_ZN8opendnp310SLLS_Reset17OnResetLinkStatesERNS_11LinkContextE, %function
_ZN8opendnp310SLLS_Reset17OnResetLinkStatesERNS_11LinkContextE:
	.fnstart
.LFB2168:
	@ args = 0, pretend = 0, frame = 0
	@ frame_needed = 0, uses_anonymous_args = 0
	push	{r4, lr}
	.save {r4, lr}
	mov	r0, r1
	mov	r4, r1
	bl	_ZN8opendnp311LinkContext8QueueAckEv(PLT)
	ldr	r3, .L110
	ldr	r2, .L110+4
.LPIC28:
	add	r3, pc, r3
	mov	r1, #1
	strb	r1, [r4, #420]
	ldr	r0, [r3, r2]
	pop	{r4, pc}
.L111:
	.align	2
.L110:
	.word	_GLOBAL_OFFSET_TABLE_-(.LPIC28+8)
	.word	_ZN8opendnp322SLLS_TransmitWaitReset8instanceE(GOT)
	.fnend
	.size	_ZN8opendnp310SLLS_Reset17OnResetLinkStatesERNS_11LinkContextE, .-_ZN8opendnp310SLLS_Reset17OnResetLinkStatesERNS_11LinkContextE
	.global	_ZN8opendnp313SLLS_NotReset17OnResetLinkStatesERNS_11LinkContextE
	.set	_ZN8opendnp313SLLS_NotReset17OnResetLinkStatesERNS_11LinkContextE,_ZN8opendnp310SLLS_Reset17OnResetLinkStatesERNS_11LinkContextE
	.align	2
	.global	_ZN8opendnp310SLLS_Reset19OnRequestLinkStatusERNS_11LinkContextE
	.syntax unified
	.arm
	.fpu vfp
	.type	_ZN8opendnp310SLLS_Reset19OnRequestLinkStatusERNS_11LinkContextE, %function
_ZN8opendnp310SLLS_Reset19OnRequestLinkStatusERNS_11LinkContextE:
	.fnstart
.LFB2169:
	@ args = 0, pretend = 0, frame = 0
	@ frame_needed = 0, uses_anonymous_args = 0
	mov	r0, r1
	push	{r4, lr}
	.save {r4, lr}
	bl	_ZN8opendnp311LinkContext15QueueLinkStatusEv(PLT)
	ldr	r3, .L114
	ldr	r2, .L114+4
.LPIC29:
	add	r3, pc, r3
	ldr	r0, [r3, r2]
	pop	{r4, pc}
.L115:
	.align	2
.L114:
	.word	_GLOBAL_OFFSET_TABLE_-(.LPIC29+8)
	.word	_ZN8opendnp322SLLS_TransmitWaitReset8instanceE(GOT)
	.fnend
	.size	_ZN8opendnp310SLLS_Reset19OnRequestLinkStatusERNS_11LinkContextE, .-_ZN8opendnp310SLLS_Reset19OnRequestLinkStatusERNS_11LinkContextE
	.align	2
	.global	_ZN8opendnp313SLLS_NotReset19OnRequestLinkStatusERNS_11LinkContextE
	.syntax unified
	.arm
	.fpu vfp
	.type	_ZN8opendnp313SLLS_NotReset19OnRequestLinkStatusERNS_11LinkContextE, %function
_ZN8opendnp313SLLS_NotReset19OnRequestLinkStatusERNS_11LinkContextE:
	.fnstart
.LFB2165:
	@ args = 0, pretend = 0, frame = 0
	@ frame_needed = 0, uses_anonymous_args = 0
	mov	r0, r1
	push	{r4, lr}
	.save {r4, lr}
	bl	_ZN8opendnp311LinkContext15QueueLinkStatusEv(PLT)
	ldr	r3, .L118
	ldr	r2, .L118+4
.LPIC30:
	add	r3, pc, r3
	ldr	r0, [r3, r2]
	pop	{r4, pc}
.L119:
	.align	2
.L118:
	.word	_GLOBAL_OFFSET_TABLE_-(.LPIC30+8)
	.word	_ZN8opendnp325SLLS_TransmitWaitNotReset8instanceE(GOT)
	.fnend
	.size	_ZN8opendnp313SLLS_NotReset19OnRequestLinkStatusERNS_11LinkContextE, .-_ZN8opendnp313SLLS_NotReset19OnRequestLinkStatusERNS_11LinkContextE
	.align	2
	.global	_ZN8opendnp310SLLS_Reset19OnConfirmedUserDataERNS_11LinkContextEbRKN7openpal6RSliceE
	.syntax unified
	.arm
	.fpu vfp
	.type	_ZN8opendnp310SLLS_Reset19OnConfirmedUserDataERNS_11LinkContextEbRKN7openpal6RSliceE, %function
_ZN8opendnp310SLLS_Reset19OnConfirmedUserDataERNS_11LinkContextEbRKN7openpal6RSliceE:
	.fnstart
.LFB2167:
	@ args = 0, pretend = 0, frame = 8
	@ frame_needed = 0, uses_anonymous_args = 0
	push	{r4, r5, r6, r7, lr}
	.save {r4, r5, r6, r7, lr}
	mov	r4, r1
	.pad #12
	sub	sp, sp, #12
	mov	r0, r1
	mov	r5, r2
	mov	r7, r3
	bl	_ZN8opendnp311LinkContext8QueueAckEv(PLT)
	ldrb	r3, [r4, #420]	@ zero_extendqisi2
	ldr	r6, .L129
	cmp	r3, r5
.LPIC33:
	add	r6, pc, r6
	beq	.L127
	add	r5, sp, #8
	add	r4, r4, #336
	mov	r7, #4
	str	r7, [r5, #-4]!
	mov	r0, r4
	mov	r1, r5
	bl	_ZNK7openpal6Logger9IsEnabledERKNS_10LogFiltersE(PLT)
	cmp	r0, #0
	bne	.L128
	ldr	r3, .L129+4
	ldr	r0, [r6, r3]
	add	sp, sp, #12
	@ sp needed
	pop	{r4, r5, r6, r7, pc}
.L128:
	ldr	r3, .L129+8
	ldr	r2, .L129+12
	mov	r0, r4
	mov	r1, r5
.LPIC31:
	add	r3, pc, r3
.LPIC32:
	add	r2, pc, r2
	str	r7, [sp, #4]
	bl	_ZN7openpal6Logger3LogERKNS_10LogFiltersEPKcS5_(PLT)
	ldr	r3, .L129+4
	ldr	r0, [r6, r3]
	add	sp, sp, #12
	@ sp needed
	pop	{r4, r5, r6, r7, pc}
.L127:
	eor	r3, r3, #1
	strb	r3, [r4, #420]
	mov	r0, r4
	mov	r1, r7
	bl	_ZN8opendnp311LinkContext10PushDataUpERKN7openpal6RSliceE(PLT)
	ldr	r3, .L129+4
	ldr	r0, [r6, r3]
	add	sp, sp, #12
	@ sp needed
	pop	{r4, r5, r6, r7, pc}
.L130:
	.align	2
.L129:
	.word	_GLOBAL_OFFSET_TABLE_-(.LPIC33+8)
	.word	_ZN8opendnp322SLLS_TransmitWaitReset8instanceE(GOT)
	.word	.LC15-(.LPIC31+8)
	.word	.LC16-(.LPIC32+8)
	.fnend
	.size	_ZN8opendnp310SLLS_Reset19OnConfirmedUserDataERNS_11LinkContextEbRKN7openpal6RSliceE, .-_ZN8opendnp310SLLS_Reset19OnConfirmedUserDataERNS_11LinkContextEbRKN7openpal6RSliceE
	.align	2
	.global	_ZN8opendnp310SLLS_Reset16OnTestLinkStatusERNS_11LinkContextEb
	.syntax unified
	.arm
	.fpu vfp
	.type	_ZN8opendnp310SLLS_Reset16OnTestLinkStatusERNS_11LinkContextEb, %function
_ZN8opendnp310SLLS_Reset16OnTestLinkStatusERNS_11LinkContextEb:
	.fnstart
.LFB2166:
	@ args = 0, pretend = 0, frame = 16
	@ frame_needed = 0, uses_anonymous_args = 0
	ldrb	r3, [r1, #420]	@ zero_extendqisi2
	push	{r4, r5, r6, r7, lr}
	.save {r4, r5, r6, r7, lr}
	.pad #20
	sub	sp, sp, #20
	ldr	r4, .L141
	cmp	r3, r2
.LPIC34:
	add	r4, pc, r4
	beq	.L139
	add	r6, sp, #16
	add	r4, r1, #336
	mov	r7, #4
	str	r7, [r6, #-4]!
	mov	r5, r0
	mov	r1, r6
	mov	r0, r4
	bl	_ZNK7openpal6Logger9IsEnabledERKNS_10LogFiltersE(PLT)
	cmp	r0, #0
	bne	.L140
.L134:
	mov	r0, r5
	add	sp, sp, #20
	@ sp needed
	pop	{r4, r5, r6, r7, pc}
.L140:
	ldr	r3, .L141+4
	ldr	r2, .L141+8
	mov	r1, r6
	mov	r0, r4
.LPIC35:
	add	r3, pc, r3
.LPIC36:
	add	r2, pc, r2
	str	r7, [sp, #12]
	bl	_ZN7openpal6Logger3LogERKNS_10LogFiltersEPKcS5_(PLT)
	b	.L134
.L139:
	mov	r0, r1
	str	r1, [sp, #4]
	bl	_ZN8opendnp311LinkContext8QueueAckEv(PLT)
	ldr	r1, [sp, #4]
	ldr	r3, .L141+12
	ldrb	r2, [r1, #420]	@ zero_extendqisi2
	eor	r2, r2, #1
	strb	r2, [r1, #420]
	ldr	r0, [r4, r3]
	add	sp, sp, #20
	@ sp needed
	pop	{r4, r5, r6, r7, pc}
.L142:
	.align	2
.L141:
	.word	_GLOBAL_OFFSET_TABLE_-(.LPIC34+8)
	.word	.LC17-(.LPIC35+8)
	.word	.LC18-(.LPIC36+8)
	.word	_ZN8opendnp322SLLS_TransmitWaitReset8instanceE(GOT)
	.fnend
	.size	_ZN8opendnp310SLLS_Reset16OnTestLinkStatusERNS_11LinkContextEb, .-_ZN8opendnp310SLLS_Reset16OnTestLinkStatusERNS_11LinkContextEb
	.section	.text.startup,"ax",%progbits
	.align	2
	.syntax unified
	.arm
	.fpu vfp
	.type	_GLOBAL__sub_I_SecLinkLayerStates.cpp, %function
_GLOBAL__sub_I_SecLinkLayerStates.cpp:
	.fnstart
.LFB2789:
	@ args = 0, pretend = 0, frame = 0
	@ frame_needed = 0, uses_anonymous_args = 0
	@ link register save eliminated.
	ldr	r3, .L144
	ldr	r1, .L144+4
	ldr	r0, .L144+8
.LPIC37:
	add	r3, pc, r3
	ldr	r2, .L144+12
	ldr	ip, [r3, r1]
	ldr	r0, [r3, r0]
	ldr	r1, .L144+16
	add	r0, r0, #8
	str	r0, [ip]
	ldr	r0, .L144+20
	ldr	ip, [r3, r1]
	ldr	r2, [r3, r2]
	ldr	r1, .L144+24
	add	r2, r2, #8
	str	r2, [ip]
	ldr	r2, .L144+28
	ldr	r0, [r3, r0]
	ldr	ip, [r3, r1]
	ldr	r1, .L144+32
	add	r0, r0, #8
	str	r0, [ip]
	ldr	r2, [r3, r2]
	ldr	r1, [r3, r1]
	add	r2, r2, #8
	str	r2, [r1]
	bx	lr
.L145:
	.align	2
.L144:
	.word	_GLOBAL_OFFSET_TABLE_-(.LPIC37+8)
	.word	_ZN8opendnp313SLLS_NotReset8instanceE(GOT)
	.word	_ZTVN8opendnp313SLLS_NotResetE(GOT)
	.word	_ZTVN8opendnp310SLLS_ResetE(GOT)
	.word	_ZN8opendnp310SLLS_Reset8instanceE(GOT)
	.word	_ZTVN8opendnp322SLLS_TransmitWaitResetE(GOT)
	.word	_ZN8opendnp322SLLS_TransmitWaitReset8instanceE(GOT)
	.word	_ZTVN8opendnp325SLLS_TransmitWaitNotResetE(GOT)
	.word	_ZN8opendnp325SLLS_TransmitWaitNotReset8instanceE(GOT)
	.cantunwind
	.fnend
	.size	_GLOBAL__sub_I_SecLinkLayerStates.cpp, .-_GLOBAL__sub_I_SecLinkLayerStates.cpp
	.section	.init_array,"aw"
	.align	2
	.word	_GLOBAL__sub_I_SecLinkLayerStates.cpp
	.global	_ZTSN8opendnp312SecStateBaseE
	.global	_ZTIN8opendnp312SecStateBaseE
	.global	_ZTSN8opendnp313SLLS_NotResetE
	.global	_ZTIN8opendnp313SLLS_NotResetE
	.global	_ZTSN8opendnp310SLLS_ResetE
	.global	_ZTIN8opendnp310SLLS_ResetE
	.weak	_ZTSN8opendnp321SLLS_TransmitWaitBaseINS_10SLLS_ResetEEE
	.section	.rodata._ZTSN8opendnp321SLLS_TransmitWaitBaseINS_10SLLS_ResetEEE,"aG",%progbits,_ZTSN8opendnp321SLLS_TransmitWaitBaseINS_10SLLS_ResetEEE,comdat
	.align	2
	.type	_ZTSN8opendnp321SLLS_TransmitWaitBaseINS_10SLLS_ResetEEE, %object
	.size	_ZTSN8opendnp321SLLS_TransmitWaitBaseINS_10SLLS_ResetEEE, 53
_ZTSN8opendnp321SLLS_TransmitWaitBaseINS_10SLLS_ResetEEE:
	.ascii	"N8opendnp321SLLS_TransmitWaitBaseINS_10SLLS_ResetEE"
	.ascii	"E\000"
	.weak	_ZTIN8opendnp321SLLS_TransmitWaitBaseINS_10SLLS_ResetEEE
	.section	.data.rel.ro._ZTIN8opendnp321SLLS_TransmitWaitBaseINS_10SLLS_ResetEEE,"awG",%progbits,_ZTIN8opendnp321SLLS_TransmitWaitBaseINS_10SLLS_ResetEEE,comdat
	.align	2
	.type	_ZTIN8opendnp321SLLS_TransmitWaitBaseINS_10SLLS_ResetEEE, %object
	.size	_ZTIN8opendnp321SLLS_TransmitWaitBaseINS_10SLLS_ResetEEE, 12
_ZTIN8opendnp321SLLS_TransmitWaitBaseINS_10SLLS_ResetEEE:
	.word	_ZTVN10__cxxabiv120__si_class_type_infoE+8
	.word	_ZTSN8opendnp321SLLS_TransmitWaitBaseINS_10SLLS_ResetEEE
	.word	_ZTIN8opendnp312SecStateBaseE
	.weak	_ZTSN8opendnp322SLLS_TransmitWaitResetE
	.section	.rodata._ZTSN8opendnp322SLLS_TransmitWaitResetE,"aG",%progbits,_ZTSN8opendnp322SLLS_TransmitWaitResetE,comdat
	.align	2
	.type	_ZTSN8opendnp322SLLS_TransmitWaitResetE, %object
	.size	_ZTSN8opendnp322SLLS_TransmitWaitResetE, 36
_ZTSN8opendnp322SLLS_TransmitWaitResetE:
	.ascii	"N8opendnp322SLLS_TransmitWaitResetE\000"
	.weak	_ZTIN8opendnp322SLLS_TransmitWaitResetE
	.section	.data.rel.ro._ZTIN8opendnp322SLLS_TransmitWaitResetE,"awG",%progbits,_ZTIN8opendnp322SLLS_TransmitWaitResetE,comdat
	.align	2
	.type	_ZTIN8opendnp322SLLS_TransmitWaitResetE, %object
	.size	_ZTIN8opendnp322SLLS_TransmitWaitResetE, 12
_ZTIN8opendnp322SLLS_TransmitWaitResetE:
	.word	_ZTVN10__cxxabiv120__si_class_type_infoE+8
	.word	_ZTSN8opendnp322SLLS_TransmitWaitResetE
	.word	_ZTIN8opendnp321SLLS_TransmitWaitBaseINS_10SLLS_ResetEEE
	.weak	_ZTSN8opendnp321SLLS_TransmitWaitBaseINS_13SLLS_NotResetEEE
	.section	.rodata._ZTSN8opendnp321SLLS_TransmitWaitBaseINS_13SLLS_NotResetEEE,"aG",%progbits,_ZTSN8opendnp321SLLS_TransmitWaitBaseINS_13SLLS_NotResetEEE,comdat
	.align	2
	.type	_ZTSN8opendnp321SLLS_TransmitWaitBaseINS_13SLLS_NotResetEEE, %object
	.size	_ZTSN8opendnp321SLLS_TransmitWaitBaseINS_13SLLS_NotResetEEE, 56
_ZTSN8opendnp321SLLS_TransmitWaitBaseINS_13SLLS_NotResetEEE:
	.ascii	"N8opendnp321SLLS_TransmitWaitBaseINS_13SLLS_NotRese"
	.ascii	"tEEE\000"
	.weak	_ZTIN8opendnp321SLLS_TransmitWaitBaseINS_13SLLS_NotResetEEE
	.section	.data.rel.ro._ZTIN8opendnp321SLLS_TransmitWaitBaseINS_13SLLS_NotResetEEE,"awG",%progbits,_ZTIN8opendnp321SLLS_TransmitWaitBaseINS_13SLLS_NotResetEEE,comdat
	.align	2
	.type	_ZTIN8opendnp321SLLS_TransmitWaitBaseINS_13SLLS_NotResetEEE, %object
	.size	_ZTIN8opendnp321SLLS_TransmitWaitBaseINS_13SLLS_NotResetEEE, 12
_ZTIN8opendnp321SLLS_TransmitWaitBaseINS_13SLLS_NotResetEEE:
	.word	_ZTVN10__cxxabiv120__si_class_type_infoE+8
	.word	_ZTSN8opendnp321SLLS_TransmitWaitBaseINS_13SLLS_NotResetEEE
	.word	_ZTIN8opendnp312SecStateBaseE
	.weak	_ZTSN8opendnp325SLLS_TransmitWaitNotResetE
	.section	.rodata._ZTSN8opendnp325SLLS_TransmitWaitNotResetE,"aG",%progbits,_ZTSN8opendnp325SLLS_TransmitWaitNotResetE,comdat
	.align	2
	.type	_ZTSN8opendnp325SLLS_TransmitWaitNotResetE, %object
	.size	_ZTSN8opendnp325SLLS_TransmitWaitNotResetE, 39
_ZTSN8opendnp325SLLS_TransmitWaitNotResetE:
	.ascii	"N8opendnp325SLLS_TransmitWaitNotResetE\000"
	.weak	_ZTIN8opendnp325SLLS_TransmitWaitNotResetE
	.section	.data.rel.ro._ZTIN8opendnp325SLLS_TransmitWaitNotResetE,"awG",%progbits,_ZTIN8opendnp325SLLS_TransmitWaitNotResetE,comdat
	.align	2
	.type	_ZTIN8opendnp325SLLS_TransmitWaitNotResetE, %object
	.size	_ZTIN8opendnp325SLLS_TransmitWaitNotResetE, 12
_ZTIN8opendnp325SLLS_TransmitWaitNotResetE:
	.word	_ZTVN10__cxxabiv120__si_class_type_infoE+8
	.word	_ZTSN8opendnp325SLLS_TransmitWaitNotResetE
	.word	_ZTIN8opendnp321SLLS_TransmitWaitBaseINS_13SLLS_NotResetEEE
	.global	_ZTVN8opendnp312SecStateBaseE
	.global	_ZTVN8opendnp313SLLS_NotResetE
	.global	_ZTVN8opendnp310SLLS_ResetE
	.weak	_ZTVN8opendnp322SLLS_TransmitWaitResetE
	.section	.data.rel.ro._ZTVN8opendnp322SLLS_TransmitWaitResetE,"awG",%progbits,_ZTVN8opendnp322SLLS_TransmitWaitResetE,comdat
	.align	2
	.type	_ZTVN8opendnp322SLLS_TransmitWaitResetE, %object
	.size	_ZTVN8opendnp322SLLS_TransmitWaitResetE, 32
_ZTVN8opendnp322SLLS_TransmitWaitResetE:
	.word	0
	.word	_ZTIN8opendnp322SLLS_TransmitWaitResetE
	.word	_ZN8opendnp321SLLS_TransmitWaitBaseINS_10SLLS_ResetEE17OnResetLinkStatesERNS_11LinkContextE
	.word	_ZN8opendnp321SLLS_TransmitWaitBaseINS_10SLLS_ResetEE19OnRequestLinkStatusERNS_11LinkContextE
	.word	_ZN8opendnp321SLLS_TransmitWaitBaseINS_10SLLS_ResetEE16OnTestLinkStatusERNS_11LinkContextEb
	.word	_ZN8opendnp321SLLS_TransmitWaitBaseINS_10SLLS_ResetEE19OnConfirmedUserDataERNS_11LinkContextEbRKN7openpal6RSliceE
	.word	_ZN8opendnp321SLLS_TransmitWaitBaseINS_10SLLS_ResetEE16OnTransmitResultERNS_11LinkContextEb
	.word	_ZNK8opendnp322SLLS_TransmitWaitReset4NameEv
	.weak	_ZTVN8opendnp325SLLS_TransmitWaitNotResetE
	.section	.data.rel.ro._ZTVN8opendnp325SLLS_TransmitWaitNotResetE,"awG",%progbits,_ZTVN8opendnp325SLLS_TransmitWaitNotResetE,comdat
	.align	2
	.type	_ZTVN8opendnp325SLLS_TransmitWaitNotResetE, %object
	.size	_ZTVN8opendnp325SLLS_TransmitWaitNotResetE, 32
_ZTVN8opendnp325SLLS_TransmitWaitNotResetE:
	.word	0
	.word	_ZTIN8opendnp325SLLS_TransmitWaitNotResetE
	.word	_ZN8opendnp321SLLS_TransmitWaitBaseINS_13SLLS_NotResetEE17OnResetLinkStatesERNS_11LinkContextE
	.word	_ZN8opendnp321SLLS_TransmitWaitBaseINS_13SLLS_NotResetEE19OnRequestLinkStatusERNS_11LinkContextE
	.word	_ZN8opendnp321SLLS_TransmitWaitBaseINS_13SLLS_NotResetEE16OnTestLinkStatusERNS_11LinkContextEb
	.word	_ZN8opendnp321SLLS_TransmitWaitBaseINS_13SLLS_NotResetEE19OnConfirmedUserDataERNS_11LinkContextEbRKN7openpal6RSliceE
	.word	_ZN8opendnp321SLLS_TransmitWaitBaseINS_13SLLS_NotResetEE16OnTransmitResultERNS_11LinkContextEb
	.word	_ZNK8opendnp325SLLS_TransmitWaitNotReset4NameEv
	.global	_ZN8opendnp325SLLS_TransmitWaitNotReset8instanceE
	.global	_ZN8opendnp322SLLS_TransmitWaitReset8instanceE
	.global	_ZN8opendnp310SLLS_Reset8instanceE
	.global	_ZN8opendnp313SLLS_NotReset8instanceE
	.section	.rodata
	.align	2
	.type	_ZTSN8opendnp312SecStateBaseE, %object
	.size	_ZTSN8opendnp312SecStateBaseE, 26
_ZTSN8opendnp312SecStateBaseE:
	.ascii	"N8opendnp312SecStateBaseE\000"
	.space	2
	.type	_ZTSN8opendnp313SLLS_NotResetE, %object
	.size	_ZTSN8opendnp313SLLS_NotResetE, 27
_ZTSN8opendnp313SLLS_NotResetE:
	.ascii	"N8opendnp313SLLS_NotResetE\000"
	.space	1
	.type	_ZTSN8opendnp310SLLS_ResetE, %object
	.size	_ZTSN8opendnp310SLLS_ResetE, 24
_ZTSN8opendnp310SLLS_ResetE:
	.ascii	"N8opendnp310SLLS_ResetE\000"
	.bss
	.align	2
	.type	_ZN8opendnp325SLLS_TransmitWaitNotReset8instanceE, %object
	.size	_ZN8opendnp325SLLS_TransmitWaitNotReset8instanceE, 4
_ZN8opendnp325SLLS_TransmitWaitNotReset8instanceE:
	.space	4
	.type	_ZN8opendnp322SLLS_TransmitWaitReset8instanceE, %object
	.size	_ZN8opendnp322SLLS_TransmitWaitReset8instanceE, 4
_ZN8opendnp322SLLS_TransmitWaitReset8instanceE:
	.space	4
	.type	_ZN8opendnp310SLLS_Reset8instanceE, %object
	.size	_ZN8opendnp310SLLS_Reset8instanceE, 4
_ZN8opendnp310SLLS_Reset8instanceE:
	.space	4
	.type	_ZN8opendnp313SLLS_NotReset8instanceE, %object
	.size	_ZN8opendnp313SLLS_NotReset8instanceE, 4
_ZN8opendnp313SLLS_NotReset8instanceE:
	.space	4
	.section	.data.rel.ro,"aw",%progbits
	.align	2
	.type	_ZTIN8opendnp312SecStateBaseE, %object
	.size	_ZTIN8opendnp312SecStateBaseE, 8
_ZTIN8opendnp312SecStateBaseE:
	.word	_ZTVN10__cxxabiv117__class_type_infoE+8
	.word	_ZTSN8opendnp312SecStateBaseE
	.type	_ZTIN8opendnp313SLLS_NotResetE, %object
	.size	_ZTIN8opendnp313SLLS_NotResetE, 12
_ZTIN8opendnp313SLLS_NotResetE:
	.word	_ZTVN10__cxxabiv120__si_class_type_infoE+8
	.word	_ZTSN8opendnp313SLLS_NotResetE
	.word	_ZTIN8opendnp312SecStateBaseE
	.type	_ZTIN8opendnp310SLLS_ResetE, %object
	.size	_ZTIN8opendnp310SLLS_ResetE, 12
_ZTIN8opendnp310SLLS_ResetE:
	.word	_ZTVN10__cxxabiv120__si_class_type_infoE+8
	.word	_ZTSN8opendnp310SLLS_ResetE
	.word	_ZTIN8opendnp312SecStateBaseE
	.type	_ZTVN8opendnp312SecStateBaseE, %object
	.size	_ZTVN8opendnp312SecStateBaseE, 32
_ZTVN8opendnp312SecStateBaseE:
	.word	0
	.word	_ZTIN8opendnp312SecStateBaseE
	.word	__cxa_pure_virtual
	.word	__cxa_pure_virtual
	.word	__cxa_pure_virtual
	.word	__cxa_pure_virtual
	.word	_ZN8opendnp312SecStateBase16OnTransmitResultERNS_11LinkContextEb
	.word	__cxa_pure_virtual
	.type	_ZTVN8opendnp313SLLS_NotResetE, %object
	.size	_ZTVN8opendnp313SLLS_NotResetE, 32
_ZTVN8opendnp313SLLS_NotResetE:
	.word	0
	.word	_ZTIN8opendnp313SLLS_NotResetE
	.word	_ZN8opendnp313SLLS_NotReset17OnResetLinkStatesERNS_11LinkContextE
	.word	_ZN8opendnp313SLLS_NotReset19OnRequestLinkStatusERNS_11LinkContextE
	.word	_ZN8opendnp313SLLS_NotReset16OnTestLinkStatusERNS_11LinkContextEb
	.word	_ZN8opendnp313SLLS_NotReset19OnConfirmedUserDataERNS_11LinkContextEbRKN7openpal6RSliceE
	.word	_ZN8opendnp312SecStateBase16OnTransmitResultERNS_11LinkContextEb
	.word	_ZNK8opendnp313SLLS_NotReset4NameEv
	.type	_ZTVN8opendnp310SLLS_ResetE, %object
	.size	_ZTVN8opendnp310SLLS_ResetE, 32
_ZTVN8opendnp310SLLS_ResetE:
	.word	0
	.word	_ZTIN8opendnp310SLLS_ResetE
	.word	_ZN8opendnp310SLLS_Reset17OnResetLinkStatesERNS_11LinkContextE
	.word	_ZN8opendnp310SLLS_Reset19OnRequestLinkStatusERNS_11LinkContextE
	.word	_ZN8opendnp310SLLS_Reset16OnTestLinkStatusERNS_11LinkContextEb
	.word	_ZN8opendnp310SLLS_Reset19OnConfirmedUserDataERNS_11LinkContextEbRKN7openpal6RSliceE
	.word	_ZN8opendnp312SecStateBase16OnTransmitResultERNS_11LinkContextEb
	.word	_ZNK8opendnp310SLLS_Reset4NameEv
	.section	.rodata._ZN8opendnp321SLLS_TransmitWaitBaseINS_10SLLS_ResetEE16OnTestLinkStatusERNS_11LinkContextEb.str1.4,"aMS",%progbits,1
	.align	2
.LC12:
	.ascii	"/home/pi/OpenPLC_v3/utils/dnp3_src/cpp/libs/src/ope"
	.ascii	"ndnp3/link/SecLinkLayerStates.h(97)\000"
	.section	.rodata._ZN8opendnp321SLLS_TransmitWaitBaseINS_10SLLS_ResetEE17OnResetLinkStatesERNS_11LinkContextE.str1.4,"aMS",%progbits,1
	.align	2
.LC14:
	.ascii	"/home/pi/OpenPLC_v3/utils/dnp3_src/cpp/libs/src/ope"
	.ascii	"ndnp3/link/SecLinkLayerStates.h(83)\000"
	.section	.rodata._ZN8opendnp321SLLS_TransmitWaitBaseINS_10SLLS_ResetEE19OnConfirmedUserDataERNS_11LinkContextEbRKN7openpal6RSliceE.str1.4,"aMS",%progbits,1
	.align	2
.LC10:
	.ascii	"Ignoring link frame, remote is flooding\000"
.LC11:
	.ascii	"/home/pi/OpenPLC_v3/utils/dnp3_src/cpp/libs/src/ope"
	.ascii	"ndnp3/link/SecLinkLayerStates.h(104)\000"
	.section	.rodata._ZN8opendnp321SLLS_TransmitWaitBaseINS_10SLLS_ResetEE19OnRequestLinkStatusERNS_11LinkContextE.str1.4,"aMS",%progbits,1
	.align	2
.LC13:
	.ascii	"/home/pi/OpenPLC_v3/utils/dnp3_src/cpp/libs/src/ope"
	.ascii	"ndnp3/link/SecLinkLayerStates.h(90)\000"
	.section	.rodata._ZNK8opendnp310SLLS_Reset4NameEv.str1.4,"aMS",%progbits,1
	.align	2
.LC1:
	.ascii	"SLLS_Reset\000"
	.section	.rodata._ZNK8opendnp313SLLS_NotReset4NameEv.str1.4,"aMS",%progbits,1
	.align	2
.LC0:
	.ascii	"SLLS_NotReset\000"
	.section	.rodata._ZNK8opendnp322SLLS_TransmitWaitReset4NameEv.str1.4,"aMS",%progbits,1
	.align	2
.LC2:
	.ascii	"SLLS_TransmitWaitReset\000"
	.section	.rodata._ZNK8opendnp325SLLS_TransmitWaitNotReset4NameEv.str1.4,"aMS",%progbits,1
	.align	2
.LC3:
	.ascii	"SLLS_TransmitWaitNotReset\000"
	.section	.rodata.str1.4,"aMS",%progbits,1
	.align	2
.LC4:
	.ascii	"Invalid event for state: %s\000"
.LC5:
	.ascii	"/home/pi/OpenPLC_v3/utils/dnp3_src/cpp/libs/src/ope"
	.ascii	"ndnp3/link/SecLinkLayerStates.cpp(39)\000"
	.space	3
.LC6:
	.ascii	"TestLinkStatus ignored\000"
	.space	1
.LC7:
	.ascii	"/home/pi/OpenPLC_v3/utils/dnp3_src/cpp/libs/src/ope"
	.ascii	"ndnp3/link/SecLinkLayerStates.cpp(51)\000"
	.space	3
.LC8:
	.ascii	"ConfirmedUserData ignored\000"
	.space	2
.LC9:
	.ascii	"/home/pi/OpenPLC_v3/utils/dnp3_src/cpp/libs/src/ope"
	.ascii	"ndnp3/link/SecLinkLayerStates.cpp(58)\000"
	.space	3
.LC15:
	.ascii	"Confirmed data w/ wrong FCB\000"
.LC16:
	.ascii	"/home/pi/OpenPLC_v3/utils/dnp3_src/cpp/libs/src/ope"
	.ascii	"ndnp3/link/SecLinkLayerStates.cpp(109)\000"
	.space	2
.LC17:
	.ascii	"Received TestLinkStatus with invalid FCB\000"
	.space	3
.LC18:
	.ascii	"/home/pi/OpenPLC_v3/utils/dnp3_src/cpp/libs/src/ope"
	.ascii	"ndnp3/link/SecLinkLayerStates.cpp(93)\000"
	.ident	"GCC: (Raspbian 6.3.0-18+rpi1+deb9u1) 6.3.0 20170516"
	.section	.note.GNU-stack,"",%progbits
