	.arch armv6
	.eabi_attribute 28, 1
	.eabi_attribute 20, 1
	.eabi_attribute 21, 1
	.eabi_attribute 23, 3
	.eabi_attribute 24, 1
	.eabi_attribute 25, 1
	.eabi_attribute 26, 2
	.eabi_attribute 30, 2
	.eabi_attribute 34, 1
	.eabi_attribute 18, 4
	.file	"SerialIOHandler.cpp"
	.section	.text._ZNK4asio6detail15system_category4nameEv,"axG",%progbits,_ZNK4asio6detail15system_category4nameEv,comdat
	.align	2
	.weak	_ZNK4asio6detail15system_category4nameEv
	.syntax unified
	.arm
	.fpu vfp
	.type	_ZNK4asio6detail15system_category4nameEv, %function
_ZNK4asio6detail15system_category4nameEv:
	.fnstart
.LFB2669:
	@ args = 0, pretend = 0, frame = 0
	@ frame_needed = 0, uses_anonymous_args = 0
	@ link register save eliminated.
	ldr	r0, .L2
.LPIC0:
	add	r0, pc, r0
	bx	lr
.L3:
	.align	2
.L2:
	.word	.LC0-(.LPIC0+8)
	.cantunwind
	.fnend
	.size	_ZNK4asio6detail15system_category4nameEv, .-_ZNK4asio6detail15system_category4nameEv
	.section	.text._ZNK4asio5error6detail14netdb_category4nameEv,"axG",%progbits,_ZNK4asio5error6detail14netdb_category4nameEv,comdat
	.align	2
	.weak	_ZNK4asio5error6detail14netdb_category4nameEv
	.syntax unified
	.arm
	.fpu vfp
	.type	_ZNK4asio5error6detail14netdb_category4nameEv, %function
_ZNK4asio5error6detail14netdb_category4nameEv:
	.fnstart
.LFB2690:
	@ args = 0, pretend = 0, frame = 0
	@ frame_needed = 0, uses_anonymous_args = 0
	@ link register save eliminated.
	ldr	r0, .L5
.LPIC1:
	add	r0, pc, r0
	bx	lr
.L6:
	.align	2
.L5:
	.word	.LC1-(.LPIC1+8)
	.cantunwind
	.fnend
	.size	_ZNK4asio5error6detail14netdb_category4nameEv, .-_ZNK4asio5error6detail14netdb_category4nameEv
	.section	.text._ZNK4asio5error6detail17addrinfo_category4nameEv,"axG",%progbits,_ZNK4asio5error6detail17addrinfo_category4nameEv,comdat
	.align	2
	.weak	_ZNK4asio5error6detail17addrinfo_category4nameEv
	.syntax unified
	.arm
	.fpu vfp
	.type	_ZNK4asio5error6detail17addrinfo_category4nameEv, %function
_ZNK4asio5error6detail17addrinfo_category4nameEv:
	.fnstart
.LFB2696:
	@ args = 0, pretend = 0, frame = 0
	@ frame_needed = 0, uses_anonymous_args = 0
	@ link register save eliminated.
	ldr	r0, .L8
.LPIC2:
	add	r0, pc, r0
	bx	lr
.L9:
	.align	2
.L8:
	.word	.LC2-(.LPIC2+8)
	.cantunwind
	.fnend
	.size	_ZNK4asio5error6detail17addrinfo_category4nameEv, .-_ZNK4asio5error6detail17addrinfo_category4nameEv
	.section	.text._ZNK4asio5error6detail13misc_category4nameEv,"axG",%progbits,_ZNK4asio5error6detail13misc_category4nameEv,comdat
	.align	2
	.weak	_ZNK4asio5error6detail13misc_category4nameEv
	.syntax unified
	.arm
	.fpu vfp
	.type	_ZNK4asio5error6detail13misc_category4nameEv, %function
_ZNK4asio5error6detail13misc_category4nameEv:
	.fnstart
.LFB2702:
	@ args = 0, pretend = 0, frame = 0
	@ frame_needed = 0, uses_anonymous_args = 0
	@ link register save eliminated.
	ldr	r0, .L11
.LPIC3:
	add	r0, pc, r0
	bx	lr
.L12:
	.align	2
.L11:
	.word	.LC3-(.LPIC3+8)
	.cantunwind
	.fnend
	.size	_ZNK4asio5error6detail13misc_category4nameEv, .-_ZNK4asio5error6detail13misc_category4nameEv
	.section	.text._ZN4asio6detail10service_idINS0_13epoll_reactorEED2Ev,"axG",%progbits,_ZN4asio6detail10service_idINS0_13epoll_reactorEED5Ev,comdat
	.align	2
	.weak	_ZN4asio6detail10service_idINS0_13epoll_reactorEED2Ev
	.syntax unified
	.arm
	.fpu vfp
	.type	_ZN4asio6detail10service_idINS0_13epoll_reactorEED2Ev, %function
_ZN4asio6detail10service_idINS0_13epoll_reactorEED2Ev:
	.fnstart
.LFB9851:
	@ args = 0, pretend = 0, frame = 0
	@ frame_needed = 0, uses_anonymous_args = 0
	@ link register save eliminated.
	bx	lr
	.cantunwind
	.fnend
	.size	_ZN4asio6detail10service_idINS0_13epoll_reactorEED2Ev, .-_ZN4asio6detail10service_idINS0_13epoll_reactorEED2Ev
	.weak	_ZN4asio6detail10service_idINS0_13epoll_reactorEED1Ev
	.set	_ZN4asio6detail10service_idINS0_13epoll_reactorEED1Ev,_ZN4asio6detail10service_idINS0_13epoll_reactorEED2Ev
	.section	.text._ZN4asio6detail10service_idINS0_15task_io_serviceEED2Ev,"axG",%progbits,_ZN4asio6detail10service_idINS0_15task_io_serviceEED5Ev,comdat
	.align	2
	.weak	_ZN4asio6detail10service_idINS0_15task_io_serviceEED2Ev
	.syntax unified
	.arm
	.fpu vfp
	.type	_ZN4asio6detail10service_idINS0_15task_io_serviceEED2Ev, %function
_ZN4asio6detail10service_idINS0_15task_io_serviceEED2Ev:
	.fnstart
.LFB9854:
	@ args = 0, pretend = 0, frame = 0
	@ frame_needed = 0, uses_anonymous_args = 0
	@ link register save eliminated.
	bx	lr
	.cantunwind
	.fnend
	.size	_ZN4asio6detail10service_idINS0_15task_io_serviceEED2Ev, .-_ZN4asio6detail10service_idINS0_15task_io_serviceEED2Ev
	.weak	_ZN4asio6detail10service_idINS0_15task_io_serviceEED1Ev
	.set	_ZN4asio6detail10service_idINS0_15task_io_serviceEED1Ev,_ZN4asio6detail10service_idINS0_15task_io_serviceEED2Ev
	.section	.text._ZN4asio6detail10service_idINS0_14strand_serviceEED2Ev,"axG",%progbits,_ZN4asio6detail10service_idINS0_14strand_serviceEED5Ev,comdat
	.align	2
	.weak	_ZN4asio6detail10service_idINS0_14strand_serviceEED2Ev
	.syntax unified
	.arm
	.fpu vfp
	.type	_ZN4asio6detail10service_idINS0_14strand_serviceEED2Ev, %function
_ZN4asio6detail10service_idINS0_14strand_serviceEED2Ev:
	.fnstart
.LFB9860:
	@ args = 0, pretend = 0, frame = 0
	@ frame_needed = 0, uses_anonymous_args = 0
	@ link register save eliminated.
	bx	lr
	.cantunwind
	.fnend
	.size	_ZN4asio6detail10service_idINS0_14strand_serviceEED2Ev, .-_ZN4asio6detail10service_idINS0_14strand_serviceEED2Ev
	.weak	_ZN4asio6detail10service_idINS0_14strand_serviceEED1Ev
	.set	_ZN4asio6detail10service_idINS0_14strand_serviceEED1Ev,_ZN4asio6detail10service_idINS0_14strand_serviceEED2Ev
	.section	.text._ZNSt23_Sp_counted_ptr_inplaceIN7asiopal13SerialChannelESaIS1_ELN9__gnu_cxx12_Lock_policyE1EED2Ev,"axG",%progbits,_ZNSt23_Sp_counted_ptr_inplaceIN7asiopal13SerialChannelESaIS1_ELN9__gnu_cxx12_Lock_policyE1EED5Ev,comdat
	.align	2
	.weak	_ZNSt23_Sp_counted_ptr_inplaceIN7asiopal13SerialChannelESaIS1_ELN9__gnu_cxx12_Lock_policyE1EED2Ev
	.syntax unified
	.arm
	.fpu vfp
	.type	_ZNSt23_Sp_counted_ptr_inplaceIN7asiopal13SerialChannelESaIS1_ELN9__gnu_cxx12_Lock_policyE1EED2Ev, %function
_ZNSt23_Sp_counted_ptr_inplaceIN7asiopal13SerialChannelESaIS1_ELN9__gnu_cxx12_Lock_policyE1EED2Ev:
	.fnstart
.LFB9870:
	@ args = 0, pretend = 0, frame = 0
	@ frame_needed = 0, uses_anonymous_args = 0
	@ link register save eliminated.
	bx	lr
	.cantunwind
	.fnend
	.size	_ZNSt23_Sp_counted_ptr_inplaceIN7asiopal13SerialChannelESaIS1_ELN9__gnu_cxx12_Lock_policyE1EED2Ev, .-_ZNSt23_Sp_counted_ptr_inplaceIN7asiopal13SerialChannelESaIS1_ELN9__gnu_cxx12_Lock_policyE1EED2Ev
	.weak	_ZNSt23_Sp_counted_ptr_inplaceIN7asiopal13SerialChannelESaIS1_ELN9__gnu_cxx12_Lock_policyE1EED1Ev
	.set	_ZNSt23_Sp_counted_ptr_inplaceIN7asiopal13SerialChannelESaIS1_ELN9__gnu_cxx12_Lock_policyE1EED1Ev,_ZNSt23_Sp_counted_ptr_inplaceIN7asiopal13SerialChannelESaIS1_ELN9__gnu_cxx12_Lock_policyE1EED2Ev
	.section	.text._ZNSt23_Sp_counted_ptr_inplaceIN7asiopal13SerialChannelESaIS1_ELN9__gnu_cxx12_Lock_policyE1EE10_M_destroyEv,"axG",%progbits,_ZNSt23_Sp_counted_ptr_inplaceIN7asiopal13SerialChannelESaIS1_ELN9__gnu_cxx12_Lock_policyE1EE10_M_destroyEv,comdat
	.align	2
	.weak	_ZNSt23_Sp_counted_ptr_inplaceIN7asiopal13SerialChannelESaIS1_ELN9__gnu_cxx12_Lock_policyE1EE10_M_destroyEv
	.syntax unified
	.arm
	.fpu vfp
	.type	_ZNSt23_Sp_counted_ptr_inplaceIN7asiopal13SerialChannelESaIS1_ELN9__gnu_cxx12_Lock_policyE1EE10_M_destroyEv, %function
_ZNSt23_Sp_counted_ptr_inplaceIN7asiopal13SerialChannelESaIS1_ELN9__gnu_cxx12_Lock_policyE1EE10_M_destroyEv:
	.fnstart
.LFB9874:
	@ args = 0, pretend = 0, frame = 0
	@ frame_needed = 0, uses_anonymous_args = 0
	@ link register save eliminated.
	b	_ZdlPv(PLT)
	.cantunwind
	.fnend
	.size	_ZNSt23_Sp_counted_ptr_inplaceIN7asiopal13SerialChannelESaIS1_ELN9__gnu_cxx12_Lock_policyE1EE10_M_destroyEv, .-_ZNSt23_Sp_counted_ptr_inplaceIN7asiopal13SerialChannelESaIS1_ELN9__gnu_cxx12_Lock_policyE1EE10_M_destroyEv
	.section	.text._ZNSt23_Sp_counted_ptr_inplaceIN7asiopal13SerialChannelESaIS1_ELN9__gnu_cxx12_Lock_policyE1EED0Ev,"axG",%progbits,_ZNSt23_Sp_counted_ptr_inplaceIN7asiopal13SerialChannelESaIS1_ELN9__gnu_cxx12_Lock_policyE1EED5Ev,comdat
	.align	2
	.weak	_ZNSt23_Sp_counted_ptr_inplaceIN7asiopal13SerialChannelESaIS1_ELN9__gnu_cxx12_Lock_policyE1EED0Ev
	.syntax unified
	.arm
	.fpu vfp
	.type	_ZNSt23_Sp_counted_ptr_inplaceIN7asiopal13SerialChannelESaIS1_ELN9__gnu_cxx12_Lock_policyE1EED0Ev, %function
_ZNSt23_Sp_counted_ptr_inplaceIN7asiopal13SerialChannelESaIS1_ELN9__gnu_cxx12_Lock_policyE1EED0Ev:
	.fnstart
.LFB9872:
	@ args = 0, pretend = 0, frame = 0
	@ frame_needed = 0, uses_anonymous_args = 0
	push	{r4, lr}
	mov	r1, #84
	mov	r4, r0
	bl	_ZdlPvj(PLT)
	mov	r0, r4
	pop	{r4, pc}
	.cantunwind
	.fnend
	.size	_ZNSt23_Sp_counted_ptr_inplaceIN7asiopal13SerialChannelESaIS1_ELN9__gnu_cxx12_Lock_policyE1EED0Ev, .-_ZNSt23_Sp_counted_ptr_inplaceIN7asiopal13SerialChannelESaIS1_ELN9__gnu_cxx12_Lock_policyE1EED0Ev
	.section	.text._ZN4asio6detail15system_categoryD2Ev,"axG",%progbits,_ZN4asio6detail15system_categoryD5Ev,comdat
	.align	2
	.weak	_ZN4asio6detail15system_categoryD2Ev
	.syntax unified
	.arm
	.fpu vfp
	.type	_ZN4asio6detail15system_categoryD2Ev, %function
_ZN4asio6detail15system_categoryD2Ev:
	.fnstart
.LFB9827:
	@ args = 0, pretend = 0, frame = 0
	@ frame_needed = 0, uses_anonymous_args = 0
	ldr	r3, .L22
	ldr	r2, .L22+4
.LPIC4:
	add	r3, pc, r3
	push	{r4, lr}
	mov	r4, r0
	ldr	r3, [r3, r2]
	add	r3, r3, #8
	str	r3, [r0]
	bl	_ZNSt3_V214error_categoryD2Ev(PLT)
	mov	r0, r4
	pop	{r4, pc}
.L23:
	.align	2
.L22:
	.word	_GLOBAL_OFFSET_TABLE_-(.LPIC4+8)
	.word	_ZTVN4asio6detail15system_categoryE(GOT)
	.cantunwind
	.fnend
	.size	_ZN4asio6detail15system_categoryD2Ev, .-_ZN4asio6detail15system_categoryD2Ev
	.weak	_ZN4asio6detail15system_categoryD1Ev
	.set	_ZN4asio6detail15system_categoryD1Ev,_ZN4asio6detail15system_categoryD2Ev
	.section	.text._ZN4asio6detail15system_categoryD0Ev,"axG",%progbits,_ZN4asio6detail15system_categoryD5Ev,comdat
	.align	2
	.weak	_ZN4asio6detail15system_categoryD0Ev
	.syntax unified
	.arm
	.fpu vfp
	.type	_ZN4asio6detail15system_categoryD0Ev, %function
_ZN4asio6detail15system_categoryD0Ev:
	.fnstart
.LFB9829:
	@ args = 0, pretend = 0, frame = 0
	@ frame_needed = 0, uses_anonymous_args = 0
	ldr	r3, .L26
	ldr	r2, .L26+4
.LPIC5:
	add	r3, pc, r3
	push	{r4, lr}
	mov	r4, r0
	ldr	r3, [r3, r2]
	add	r3, r3, #8
	str	r3, [r0]
	bl	_ZNSt3_V214error_categoryD2Ev(PLT)
	mov	r0, r4
	mov	r1, #4
	bl	_ZdlPvj(PLT)
	mov	r0, r4
	pop	{r4, pc}
.L27:
	.align	2
.L26:
	.word	_GLOBAL_OFFSET_TABLE_-(.LPIC5+8)
	.word	_ZTVN4asio6detail15system_categoryE(GOT)
	.cantunwind
	.fnend
	.size	_ZN4asio6detail15system_categoryD0Ev, .-_ZN4asio6detail15system_categoryD0Ev
	.section	.text._ZN4asio5error6detail14netdb_categoryD2Ev,"axG",%progbits,_ZN4asio5error6detail14netdb_categoryD5Ev,comdat
	.align	2
	.weak	_ZN4asio5error6detail14netdb_categoryD2Ev
	.syntax unified
	.arm
	.fpu vfp
	.type	_ZN4asio5error6detail14netdb_categoryD2Ev, %function
_ZN4asio5error6detail14netdb_categoryD2Ev:
	.fnstart
.LFB9823:
	@ args = 0, pretend = 0, frame = 0
	@ frame_needed = 0, uses_anonymous_args = 0
	ldr	r3, .L30
	ldr	r2, .L30+4
.LPIC6:
	add	r3, pc, r3
	push	{r4, lr}
	mov	r4, r0
	ldr	r3, [r3, r2]
	add	r3, r3, #8
	str	r3, [r0]
	bl	_ZNSt3_V214error_categoryD2Ev(PLT)
	mov	r0, r4
	pop	{r4, pc}
.L31:
	.align	2
.L30:
	.word	_GLOBAL_OFFSET_TABLE_-(.LPIC6+8)
	.word	_ZTVN4asio5error6detail14netdb_categoryE(GOT)
	.cantunwind
	.fnend
	.size	_ZN4asio5error6detail14netdb_categoryD2Ev, .-_ZN4asio5error6detail14netdb_categoryD2Ev
	.weak	_ZN4asio5error6detail14netdb_categoryD1Ev
	.set	_ZN4asio5error6detail14netdb_categoryD1Ev,_ZN4asio5error6detail14netdb_categoryD2Ev
	.section	.text._ZN4asio5error6detail14netdb_categoryD0Ev,"axG",%progbits,_ZN4asio5error6detail14netdb_categoryD5Ev,comdat
	.align	2
	.weak	_ZN4asio5error6detail14netdb_categoryD0Ev
	.syntax unified
	.arm
	.fpu vfp
	.type	_ZN4asio5error6detail14netdb_categoryD0Ev, %function
_ZN4asio5error6detail14netdb_categoryD0Ev:
	.fnstart
.LFB9825:
	@ args = 0, pretend = 0, frame = 0
	@ frame_needed = 0, uses_anonymous_args = 0
	ldr	r3, .L34
	ldr	r2, .L34+4
.LPIC7:
	add	r3, pc, r3
	push	{r4, lr}
	mov	r4, r0
	ldr	r3, [r3, r2]
	add	r3, r3, #8
	str	r3, [r0]
	bl	_ZNSt3_V214error_categoryD2Ev(PLT)
	mov	r0, r4
	mov	r1, #4
	bl	_ZdlPvj(PLT)
	mov	r0, r4
	pop	{r4, pc}
.L35:
	.align	2
.L34:
	.word	_GLOBAL_OFFSET_TABLE_-(.LPIC7+8)
	.word	_ZTVN4asio5error6detail14netdb_categoryE(GOT)
	.cantunwind
	.fnend
	.size	_ZN4asio5error6detail14netdb_categoryD0Ev, .-_ZN4asio5error6detail14netdb_categoryD0Ev
	.section	.text._ZN4asio5error6detail17addrinfo_categoryD2Ev,"axG",%progbits,_ZN4asio5error6detail17addrinfo_categoryD5Ev,comdat
	.align	2
	.weak	_ZN4asio5error6detail17addrinfo_categoryD2Ev
	.syntax unified
	.arm
	.fpu vfp
	.type	_ZN4asio5error6detail17addrinfo_categoryD2Ev, %function
_ZN4asio5error6detail17addrinfo_categoryD2Ev:
	.fnstart
.LFB9819:
	@ args = 0, pretend = 0, frame = 0
	@ frame_needed = 0, uses_anonymous_args = 0
	ldr	r3, .L38
	ldr	r2, .L38+4
.LPIC8:
	add	r3, pc, r3
	push	{r4, lr}
	mov	r4, r0
	ldr	r3, [r3, r2]
	add	r3, r3, #8
	str	r3, [r0]
	bl	_ZNSt3_V214error_categoryD2Ev(PLT)
	mov	r0, r4
	pop	{r4, pc}
.L39:
	.align	2
.L38:
	.word	_GLOBAL_OFFSET_TABLE_-(.LPIC8+8)
	.word	_ZTVN4asio5error6detail17addrinfo_categoryE(GOT)
	.cantunwind
	.fnend
	.size	_ZN4asio5error6detail17addrinfo_categoryD2Ev, .-_ZN4asio5error6detail17addrinfo_categoryD2Ev
	.weak	_ZN4asio5error6detail17addrinfo_categoryD1Ev
	.set	_ZN4asio5error6detail17addrinfo_categoryD1Ev,_ZN4asio5error6detail17addrinfo_categoryD2Ev
	.section	.text._ZN4asio5error6detail17addrinfo_categoryD0Ev,"axG",%progbits,_ZN4asio5error6detail17addrinfo_categoryD5Ev,comdat
	.align	2
	.weak	_ZN4asio5error6detail17addrinfo_categoryD0Ev
	.syntax unified
	.arm
	.fpu vfp
	.type	_ZN4asio5error6detail17addrinfo_categoryD0Ev, %function
_ZN4asio5error6detail17addrinfo_categoryD0Ev:
	.fnstart
.LFB9821:
	@ args = 0, pretend = 0, frame = 0
	@ frame_needed = 0, uses_anonymous_args = 0
	ldr	r3, .L42
	ldr	r2, .L42+4
.LPIC9:
	add	r3, pc, r3
	push	{r4, lr}
	mov	r4, r0
	ldr	r3, [r3, r2]
	add	r3, r3, #8
	str	r3, [r0]
	bl	_ZNSt3_V214error_categoryD2Ev(PLT)
	mov	r0, r4
	mov	r1, #4
	bl	_ZdlPvj(PLT)
	mov	r0, r4
	pop	{r4, pc}
.L43:
	.align	2
.L42:
	.word	_GLOBAL_OFFSET_TABLE_-(.LPIC9+8)
	.word	_ZTVN4asio5error6detail17addrinfo_categoryE(GOT)
	.cantunwind
	.fnend
	.size	_ZN4asio5error6detail17addrinfo_categoryD0Ev, .-_ZN4asio5error6detail17addrinfo_categoryD0Ev
	.section	.text._ZN4asio5error6detail13misc_categoryD2Ev,"axG",%progbits,_ZN4asio5error6detail13misc_categoryD5Ev,comdat
	.align	2
	.weak	_ZN4asio5error6detail13misc_categoryD2Ev
	.syntax unified
	.arm
	.fpu vfp
	.type	_ZN4asio5error6detail13misc_categoryD2Ev, %function
_ZN4asio5error6detail13misc_categoryD2Ev:
	.fnstart
.LFB9815:
	@ args = 0, pretend = 0, frame = 0
	@ frame_needed = 0, uses_anonymous_args = 0
	ldr	r3, .L46
	ldr	r2, .L46+4
.LPIC10:
	add	r3, pc, r3
	push	{r4, lr}
	mov	r4, r0
	ldr	r3, [r3, r2]
	add	r3, r3, #8
	str	r3, [r0]
	bl	_ZNSt3_V214error_categoryD2Ev(PLT)
	mov	r0, r4
	pop	{r4, pc}
.L47:
	.align	2
.L46:
	.word	_GLOBAL_OFFSET_TABLE_-(.LPIC10+8)
	.word	_ZTVN4asio5error6detail13misc_categoryE(GOT)
	.cantunwind
	.fnend
	.size	_ZN4asio5error6detail13misc_categoryD2Ev, .-_ZN4asio5error6detail13misc_categoryD2Ev
	.weak	_ZN4asio5error6detail13misc_categoryD1Ev
	.set	_ZN4asio5error6detail13misc_categoryD1Ev,_ZN4asio5error6detail13misc_categoryD2Ev
	.section	.text._ZN4asio5error6detail13misc_categoryD0Ev,"axG",%progbits,_ZN4asio5error6detail13misc_categoryD5Ev,comdat
	.align	2
	.weak	_ZN4asio5error6detail13misc_categoryD0Ev
	.syntax unified
	.arm
	.fpu vfp
	.type	_ZN4asio5error6detail13misc_categoryD0Ev, %function
_ZN4asio5error6detail13misc_categoryD0Ev:
	.fnstart
.LFB9817:
	@ args = 0, pretend = 0, frame = 0
	@ frame_needed = 0, uses_anonymous_args = 0
	ldr	r3, .L50
	ldr	r2, .L50+4
.LPIC11:
	add	r3, pc, r3
	push	{r4, lr}
	mov	r4, r0
	ldr	r3, [r3, r2]
	add	r3, r3, #8
	str	r3, [r0]
	bl	_ZNSt3_V214error_categoryD2Ev(PLT)
	mov	r0, r4
	mov	r1, #4
	bl	_ZdlPvj(PLT)
	mov	r0, r4
	pop	{r4, pc}
.L51:
	.align	2
.L50:
	.word	_GLOBAL_OFFSET_TABLE_-(.LPIC11+8)
	.word	_ZTVN4asio5error6detail13misc_categoryE(GOT)
	.cantunwind
	.fnend
	.size	_ZN4asio5error6detail13misc_categoryD0Ev, .-_ZN4asio5error6detail13misc_categoryD0Ev
	.section	.text._ZNSt23_Sp_counted_ptr_inplaceIN7asiopal13SerialChannelESaIS1_ELN9__gnu_cxx12_Lock_policyE1EE14_M_get_deleterERKSt9type_info,"axG",%progbits,_ZNSt23_Sp_counted_ptr_inplaceIN7asiopal13SerialChannelESaIS1_ELN9__gnu_cxx12_Lock_policyE1EE14_M_get_deleterERKSt9type_info,comdat
	.align	2
	.weak	_ZNSt23_Sp_counted_ptr_inplaceIN7asiopal13SerialChannelESaIS1_ELN9__gnu_cxx12_Lock_policyE1EE14_M_get_deleterERKSt9type_info
	.syntax unified
	.arm
	.fpu vfp
	.type	_ZNSt23_Sp_counted_ptr_inplaceIN7asiopal13SerialChannelESaIS1_ELN9__gnu_cxx12_Lock_policyE1EE14_M_get_deleterERKSt9type_info, %function
_ZNSt23_Sp_counted_ptr_inplaceIN7asiopal13SerialChannelESaIS1_ELN9__gnu_cxx12_Lock_policyE1EE14_M_get_deleterERKSt9type_info:
	.fnstart
.LFB9875:
	@ args = 0, pretend = 0, frame = 0
	@ frame_needed = 0, uses_anonymous_args = 0
	ldr	r3, .L57
	ldr	r2, .L57+4
.LPIC12:
	add	r3, pc, r3
	push	{r4, lr}
	mov	r4, r0
	ldr	r2, [r3, r2]
	mov	r0, r1
	mov	r1, r2
	bl	_ZNKSt9type_infoeqERKS_(PLT)
	cmp	r0, #0
	addne	r0, r4, #36
	pop	{r4, pc}
.L58:
	.align	2
.L57:
	.word	_GLOBAL_OFFSET_TABLE_-(.LPIC12+8)
	.word	_ZTISt19_Sp_make_shared_tag(GOT)
	.cantunwind
	.fnend
	.size	_ZNSt23_Sp_counted_ptr_inplaceIN7asiopal13SerialChannelESaIS1_ELN9__gnu_cxx12_Lock_policyE1EE14_M_get_deleterERKSt9type_info, .-_ZNSt23_Sp_counted_ptr_inplaceIN7asiopal13SerialChannelESaIS1_ELN9__gnu_cxx12_Lock_policyE1EE14_M_get_deleterERKSt9type_info
	.text
	.align	2
	.global	_ZN8asiodnp315SerialIOHandler10ResetStateEv
	.syntax unified
	.arm
	.fpu vfp
	.type	_ZN8asiodnp315SerialIOHandler10ResetStateEv, %function
_ZN8asiodnp315SerialIOHandler10ResetStateEv:
	.fnstart
.LFB7475:
	@ args = 0, pretend = 0, frame = 0
	@ frame_needed = 0, uses_anonymous_args = 0
	@ link register save eliminated.
	add	r0, r0, #664
	b	_ZN7openpal8TimerRef6CancelEv(PLT)
	.cantunwind
	.fnend
	.size	_ZN8asiodnp315SerialIOHandler10ResetStateEv, .-_ZN8asiodnp315SerialIOHandler10ResetStateEv
	.global	_ZN8asiodnp315SerialIOHandler20SuspendChannelAcceptEv
	.set	_ZN8asiodnp315SerialIOHandler20SuspendChannelAcceptEv,_ZN8asiodnp315SerialIOHandler10ResetStateEv
	.align	2
	.global	_ZN8asiodnp315SerialIOHandler12ShutdownImplEv
	.syntax unified
	.arm
	.fpu vfp
	.type	_ZN8asiodnp315SerialIOHandler12ShutdownImplEv, %function
_ZN8asiodnp315SerialIOHandler12ShutdownImplEv:
	.fnstart
.LFB7469:
	@ args = 0, pretend = 0, frame = 0
	@ frame_needed = 0, uses_anonymous_args = 0
	@ link register save eliminated.
	b	_ZN8asiodnp315SerialIOHandler10ResetStateEv(PLT)
	.cantunwind
	.fnend
	.size	_ZN8asiodnp315SerialIOHandler12ShutdownImplEv, .-_ZN8asiodnp315SerialIOHandler12ShutdownImplEv
	.section	.text._ZN4asio6detail7tss_ptrINS0_10call_stackINS0_15task_io_serviceENS0_27task_io_service_thread_infoEE7contextEED2Ev,"axG",%progbits,_ZN4asio6detail7tss_ptrINS0_10call_stackINS0_15task_io_serviceENS0_27task_io_service_thread_infoEE7contextEED5Ev,comdat
	.align	2
	.weak	_ZN4asio6detail7tss_ptrINS0_10call_stackINS0_15task_io_serviceENS0_27task_io_service_thread_infoEE7contextEED2Ev
	.syntax unified
	.arm
	.fpu vfp
	.type	_ZN4asio6detail7tss_ptrINS0_10call_stackINS0_15task_io_serviceENS0_27task_io_service_thread_infoEE7contextEED2Ev, %function
_ZN4asio6detail7tss_ptrINS0_10call_stackINS0_15task_io_serviceENS0_27task_io_service_thread_infoEE7contextEED2Ev:
	.fnstart
.LFB9848:
	@ args = 0, pretend = 0, frame = 0
	@ frame_needed = 0, uses_anonymous_args = 0
	push	{r4, lr}
	mov	r4, r0
	ldr	r0, [r0]
	bl	pthread_key_delete(PLT)
	mov	r0, r4
	pop	{r4, pc}
	.cantunwind
	.fnend
	.size	_ZN4asio6detail7tss_ptrINS0_10call_stackINS0_15task_io_serviceENS0_27task_io_service_thread_infoEE7contextEED2Ev, .-_ZN4asio6detail7tss_ptrINS0_10call_stackINS0_15task_io_serviceENS0_27task_io_service_thread_infoEE7contextEED2Ev
	.weak	_ZN4asio6detail7tss_ptrINS0_10call_stackINS0_15task_io_serviceENS0_27task_io_service_thread_infoEE7contextEED1Ev
	.set	_ZN4asio6detail7tss_ptrINS0_10call_stackINS0_15task_io_serviceENS0_27task_io_service_thread_infoEE7contextEED1Ev,_ZN4asio6detail7tss_ptrINS0_10call_stackINS0_15task_io_serviceENS0_27task_io_service_thread_infoEE7contextEED2Ev
	.section	.text._ZN4asio6detail7tss_ptrINS0_10call_stackINS0_14strand_service11strand_implEhE7contextEED2Ev,"axG",%progbits,_ZN4asio6detail7tss_ptrINS0_10call_stackINS0_14strand_service11strand_implEhE7contextEED5Ev,comdat
	.align	2
	.weak	_ZN4asio6detail7tss_ptrINS0_10call_stackINS0_14strand_service11strand_implEhE7contextEED2Ev
	.syntax unified
	.arm
	.fpu vfp
	.type	_ZN4asio6detail7tss_ptrINS0_10call_stackINS0_14strand_service11strand_implEhE7contextEED2Ev, %function
_ZN4asio6detail7tss_ptrINS0_10call_stackINS0_14strand_service11strand_implEhE7contextEED2Ev:
	.fnstart
.LFB9857:
	@ args = 0, pretend = 0, frame = 0
	@ frame_needed = 0, uses_anonymous_args = 0
	push	{r4, lr}
	mov	r4, r0
	ldr	r0, [r0]
	bl	pthread_key_delete(PLT)
	mov	r0, r4
	pop	{r4, pc}
	.cantunwind
	.fnend
	.size	_ZN4asio6detail7tss_ptrINS0_10call_stackINS0_14strand_service11strand_implEhE7contextEED2Ev, .-_ZN4asio6detail7tss_ptrINS0_10call_stackINS0_14strand_service11strand_implEhE7contextEED2Ev
	.weak	_ZN4asio6detail7tss_ptrINS0_10call_stackINS0_14strand_service11strand_implEhE7contextEED1Ev
	.set	_ZN4asio6detail7tss_ptrINS0_10call_stackINS0_14strand_service11strand_implEhE7contextEED1Ev,_ZN4asio6detail7tss_ptrINS0_10call_stackINS0_14strand_service11strand_implEhE7contextEED2Ev
	.text
	.align	2
	.syntax unified
	.arm
	.fpu vfp
	.type	_ZNSt14_Function_base13_Base_managerIZN7openpal8TimerRef5StartIZN8asiodnp315SerialIOHandler7TryOpenERKNS1_12TimeDurationEEUlvE_EEbS8_RKT_EUlvE_E10_M_managerERSt9_Any_dataRKSF_St18_Manager_operation, %function
_ZNSt14_Function_base13_Base_managerIZN7openpal8TimerRef5StartIZN8asiodnp315SerialIOHandler7TryOpenERKNS1_12TimeDurationEEUlvE_EEbS8_RKT_EUlvE_E10_M_managerERSt9_Any_dataRKSF_St18_Manager_operation:
	.fnstart
.LFB8962:
	@ args = 0, pretend = 0, frame = 0
	@ frame_needed = 0, uses_anonymous_args = 0
	push	{r4, r5, r6, lr}
	.save {r4, r5, r6, lr}
	mov	r5, r0
	cmp	r2, #3
	addls	pc, pc, r2, asl #2
	b	.L66
.L68:
	b	.L67
	b	.L69
	b	.L70
	b	.L71
	.p2align 1
.L71:
	ldr	r0, [r0]
	mov	r1, #24
	bl	_ZdlPvj(PLT)
.L66:
	mov	r0, #0
	pop	{r4, r5, r6, pc}
.L70:
	mov	r0, #24
	ldr	r4, [r1]
	bl	_Znwj(PLT)
	mov	ip, r4
	mov	r6, r0
	mov	lr, r0
	ldmia	ip!, {r0, r1, r2, r3}
	stmia	lr!, {r0, r1, r2, r3}
	ldm	ip, {r0, r1}
	str	r6, [r5]
	stm	lr, {r0, r1}
	mov	r0, #0
	pop	{r4, r5, r6, pc}
.L69:
	ldr	r3, [r1]
	str	r3, [r0]
	mov	r0, #0
	pop	{r4, r5, r6, pc}
.L67:
	ldr	r3, .L73
.LPIC13:
	add	r3, pc, r3
	str	r3, [r0]
	mov	r0, #0
	pop	{r4, r5, r6, pc}
.L74:
	.align	2
.L73:
	.word	.LANCHOR0-(.LPIC13+8)
	.fnend
	.size	_ZNSt14_Function_base13_Base_managerIZN7openpal8TimerRef5StartIZN8asiodnp315SerialIOHandler7TryOpenERKNS1_12TimeDurationEEUlvE_EEbS8_RKT_EUlvE_E10_M_managerERSt9_Any_dataRKSF_St18_Manager_operation, .-_ZNSt14_Function_base13_Base_managerIZN7openpal8TimerRef5StartIZN8asiodnp315SerialIOHandler7TryOpenERKNS1_12TimeDurationEEUlvE_EEbS8_RKT_EUlvE_E10_M_managerERSt9_Any_dataRKSF_St18_Manager_operation
	.section	.text._ZNK4asio6detail15system_category7messageB5cxx11Ei,"axG",%progbits,_ZNK4asio6detail15system_category7messageB5cxx11Ei,comdat
	.align	2
	.weak	_ZNK4asio6detail15system_category7messageB5cxx11Ei
	.syntax unified
	.arm
	.fpu vfp
	.type	_ZNK4asio6detail15system_category7messageB5cxx11Ei, %function
_ZNK4asio6detail15system_category7messageB5cxx11Ei:
	.fnstart
.LFB2670:
	@ args = 0, pretend = 0, frame = 264
	@ frame_needed = 0, uses_anonymous_args = 0
	cmp	r2, #125
	push	{r4, r5, r6, r7, r8, lr}
	.save {r4, r5, r6, r7, r8, lr}
	mov	r4, r0
	.pad #264
	sub	sp, sp, #264
	beq	.L85
	mov	r7, #0
	mov	r5, r2
	mov	r1, r7
	mov	r2, #252
	add	r0, sp, #12
	str	r7, [sp, #8]
	bl	memset(PLT)
	mov	r0, r5
	mov	r2, #256
	add	r1, sp, #8
	bl	strerror_r(PLT)
	add	r6, r4, #8
	str	r6, [r4]
	subs	r8, r0, #0
	beq	.L78
	bl	strlen(PLT)
	cmp	r0, #15
	mov	r5, r0
	str	r0, [sp, #4]
	bhi	.L86
	cmp	r0, #1
	beq	.L87
	cmp	r0, #0
	bne	.L88
.L82:
	mov	r3, #0
	str	r5, [r4, #4]
	mov	r0, r4
	strb	r3, [r6, r5]
	add	sp, sp, #264
	@ sp needed
	pop	{r4, r5, r6, r7, r8, pc}
.L86:
	mov	r2, r7
	add	r1, sp, #4
	mov	r0, r4
	bl	_ZNSt7__cxx1112basic_stringIcSt11char_traitsIcESaIcEE9_M_createERjj(PLT)
	ldr	r3, [sp, #4]
	str	r3, [r4, #8]
	str	r0, [r4]
.L80:
	mov	r2, r5
	mov	r1, r8
	bl	memcpy(PLT)
	ldr	r5, [sp, #4]
	ldr	r6, [r4]
	b	.L82
.L87:
	ldrb	r3, [r8]	@ zero_extendqisi2
	strb	r3, [r4, #8]
	b	.L82
.L85:
	add	r1, sp, #264
	add	r3, r0, #8
	mov	r2, #18
	str	r2, [r1, #-256]!
	str	r3, [r0]
	mov	r2, #0
	bl	_ZNSt7__cxx1112basic_stringIcSt11char_traitsIcESaIcEE9_M_createERjj(PLT)
	ldr	ip, .L89
	ldr	r6, [sp, #8]
.LPIC14:
	add	ip, pc, ip
	str	r6, [r4, #8]
	mov	r5, #0
	str	r0, [r4]
	mov	lr, r0
	ldmia	ip!, {r0, r1, r2, r3}
	ldrh	ip, [ip]	@ unaligned
	str	r0, [lr]	@ unaligned
	str	r1, [lr, #4]	@ unaligned
	strh	ip, [lr, #16]	@ unaligned
	str	r2, [lr, #8]	@ unaligned
	str	r3, [lr, #12]	@ unaligned
	ldr	r3, [sp, #8]
	ldr	r2, [r4]
	str	r3, [r4, #4]
	mov	r0, r4
	strb	r5, [r2, r3]
	add	sp, sp, #264
	@ sp needed
	pop	{r4, r5, r6, r7, r8, pc}
.L78:
	ldr	r0, .L89+4
.LPIC15:
	add	r0, pc, r0
	bl	_ZSt19__throw_logic_errorPKc(PLT)
.L88:
	mov	r0, r6
	b	.L80
.L90:
	.align	2
.L89:
	.word	.LC4-(.LPIC14+8)
	.word	.LC5-(.LPIC15+8)
	.fnend
	.size	_ZNK4asio6detail15system_category7messageB5cxx11Ei, .-_ZNK4asio6detail15system_category7messageB5cxx11Ei
	.section	.text._ZNK4asio5error6detail17addrinfo_category7messageB5cxx11Ei,"axG",%progbits,_ZNK4asio5error6detail17addrinfo_category7messageB5cxx11Ei,comdat
	.align	2
	.weak	_ZNK4asio5error6detail17addrinfo_category7messageB5cxx11Ei
	.syntax unified
	.arm
	.fpu vfp
	.type	_ZNK4asio5error6detail17addrinfo_category7messageB5cxx11Ei, %function
_ZNK4asio5error6detail17addrinfo_category7messageB5cxx11Ei:
	.fnstart
.LFB2697:
	@ args = 0, pretend = 0, frame = 8
	@ frame_needed = 0, uses_anonymous_args = 0
	push	{r4, r5, r6, lr}
	.save {r4, r5, r6, lr}
	cmn	r2, #8
	.pad #8
	sub	sp, sp, #8
	add	r1, sp, #8
	mov	r4, r0
	beq	.L96
	cmn	r2, #7
	beq	.L97
	add	r3, r0, #8
	mov	r2, #19
	str	r2, [r1, #-4]!
	str	r3, [r0]
	mov	r2, #0
	bl	_ZNSt7__cxx1112basic_stringIcSt11char_traitsIcESaIcEE9_M_createERjj(PLT)
	ldr	ip, .L98
	ldr	r6, [sp, #4]
.LPIC18:
	add	ip, pc, ip
	str	r6, [r4, #8]
	mov	r5, #0
	str	r0, [r4]
	mov	lr, r0
	ldmia	ip!, {r0, r1, r2, r3}
	ldrh	r6, [ip]	@ unaligned
	ldrb	ip, [ip, #2]	@ zero_extendqisi2
	str	r0, [lr]	@ unaligned
	str	r1, [lr, #4]	@ unaligned
	str	r2, [lr, #8]	@ unaligned
	str	r3, [lr, #12]	@ unaligned
	strh	r6, [lr, #16]	@ unaligned
	strb	ip, [lr, #18]
	ldr	r3, [sp, #4]
	ldr	r2, [r4]
	str	r3, [r4, #4]
	strb	r5, [r2, r3]
.L91:
	mov	r0, r4
	add	sp, sp, #8
	@ sp needed
	pop	{r4, r5, r6, pc}
.L97:
	add	r3, r0, #8
	mov	r2, #25
	str	r2, [r1, #-4]!
	str	r3, [r0]
	mov	r2, #0
	bl	_ZNSt7__cxx1112basic_stringIcSt11char_traitsIcESaIcEE9_M_createERjj(PLT)
	ldr	ip, .L98+4
	ldr	r6, [sp, #4]
.LPIC17:
	add	ip, pc, ip
	str	r6, [r4, #8]
	mov	r5, #0
	str	r0, [r4]
	mov	lr, r0
	ldmia	ip!, {r0, r1, r2, r3}
	str	r0, [lr]	@ unaligned
	str	r1, [lr, #4]	@ unaligned
	ldmia	ip!, {r0, r1}
	str	r3, [lr, #12]	@ unaligned
	str	r2, [lr, #8]	@ unaligned
	ldrb	r3, [ip]	@ zero_extendqisi2
	str	r0, [lr, #16]	@ unaligned
	str	r1, [lr, #20]	@ unaligned
	strb	r3, [lr, #24]
	ldr	r3, [sp, #4]
	ldr	r2, [r4]
	str	r3, [r4, #4]
	mov	r0, r4
	strb	r5, [r2, r3]
	add	sp, sp, #8
	@ sp needed
	pop	{r4, r5, r6, pc}
.L96:
	add	r3, r0, #8
	mov	r2, #17
	str	r2, [r1, #-4]!
	str	r3, [r0]
	mov	r2, #0
	bl	_ZNSt7__cxx1112basic_stringIcSt11char_traitsIcESaIcEE9_M_createERjj(PLT)
	ldr	ip, .L98+8
	ldr	r6, [sp, #4]
.LPIC16:
	add	ip, pc, ip
	str	r6, [r4, #8]
	mov	r5, #0
	str	r0, [r4]
	mov	lr, r0
	ldmia	ip!, {r0, r1, r2, r3}
	ldrb	ip, [ip]	@ zero_extendqisi2
	str	r0, [lr]	@ unaligned
	str	r1, [lr, #4]	@ unaligned
	strb	ip, [lr, #16]
	str	r2, [lr, #8]	@ unaligned
	str	r3, [lr, #12]	@ unaligned
	ldr	r3, [sp, #4]
	ldr	r2, [r4]
	str	r3, [r4, #4]
	strb	r5, [r2, r3]
	b	.L91
.L99:
	.align	2
.L98:
	.word	.LC8-(.LPIC18+8)
	.word	.LC7-(.LPIC17+8)
	.word	.LC6-(.LPIC16+8)
	.fnend
	.size	_ZNK4asio5error6detail17addrinfo_category7messageB5cxx11Ei, .-_ZNK4asio5error6detail17addrinfo_category7messageB5cxx11Ei
	.section	.text._ZNSt23_Sp_counted_ptr_inplaceIN7asiopal13SerialChannelESaIS1_ELN9__gnu_cxx12_Lock_policyE1EE10_M_disposeEv,"axG",%progbits,_ZNSt23_Sp_counted_ptr_inplaceIN7asiopal13SerialChannelESaIS1_ELN9__gnu_cxx12_Lock_policyE1EE10_M_disposeEv,comdat
	.align	2
	.weak	_ZNSt23_Sp_counted_ptr_inplaceIN7asiopal13SerialChannelESaIS1_ELN9__gnu_cxx12_Lock_policyE1EE10_M_disposeEv
	.syntax unified
	.arm
	.fpu vfp
	.type	_ZNSt23_Sp_counted_ptr_inplaceIN7asiopal13SerialChannelESaIS1_ELN9__gnu_cxx12_Lock_policyE1EE10_M_disposeEv, %function
_ZNSt23_Sp_counted_ptr_inplaceIN7asiopal13SerialChannelESaIS1_ELN9__gnu_cxx12_Lock_policyE1EE10_M_disposeEv:
	.fnstart
.LFB9873:
	@ args = 0, pretend = 0, frame = 40
	@ frame_needed = 0, uses_anonymous_args = 0
	push	{r4, r5, r6, r7, r8, r9, r10, fp, lr}
	.save {r4, r5, r6, r7, r8, r9, r10, fp, lr}
	mov	r6, r0
	ldr	r9, .L259
	ldr	r3, .L259+4
.LPIC19:
	add	r9, pc, r9
	ldr	r4, [r0, #68]
	ldr	r3, [r9, r3]
	cmn	r4, #1
	add	r3, r3, #8
	.pad #44
	sub	sp, sp, #44
	str	r3, [r0, #36]
	beq	.L101
	ldr	r3, [r0, #76]
	cmp	r3, #0
	beq	.L169
	ldr	r2, [r0, #80]
	add	r3, r3, #20
	str	r3, [sp, #20]
	mov	r0, r3
	ldr	r3, [r2, #20]
	ldrb	r5, [r6, #72]	@ zero_extendqisi2
	str	r3, [sp, #16]
	bl	pthread_mutex_lock(PLT)
	ldr	r1, [r6, #76]
	ldrb	r0, [r1, #80]	@ zero_extendqisi2
	cmp	r0, #0
	bne	.L103
	tst	r5, #4
	bne	.L249
.L104:
	mov	r5, #0
	ldr	r3, .L259+8
	mov	r7, r5
	mov	r10, #56
.LPIC20:
	add	r3, pc, r3
	str	r3, [sp, #12]
	str	r5, [sp, #8]
	str	r5, [sp]
	str	r9, [sp, #4]
.L114:
	ldr	r4, [r1, r10]
	cmp	r4, #0
	beq	.L105
	ldr	r3, [sp]
	ldr	r1, .L259+12
	ldr	r2, .L259+16
	lsl	r9, r3, #3
	ldr	r3, [sp, #4]
	ldr	r8, [r3, r1]
	ldr	fp, [r3, r2]
	b	.L107
.L109:
	ldr	r1, [r6, #76]
	mov	r3, #125
	add	r0, r1, r9
	str	r3, [r4, #12]
	ldr	r2, [r0, #56]
	str	fp, [r4, #16]
	cmp	r2, #0
	beq	.L111
	ldr	ip, [r2]
	cmp	ip, #0
	str	ip, [r0, #56]
	streq	ip, [r0, #60]
	str	r7, [r2]
.L111:
	cmp	r5, #0
	str	r7, [r4]
	strne	r4, [r5]
	beq	.L250
	ldr	r2, [r1, r10]
	mov	r5, r4
	cmp	r2, #0
	beq	.L105
.L256:
	mov	r4, r2
.L107:
	ldrb	r2, [r8]	@ zero_extendqisi2
	mcr	p15, 0, r0, c7, c10, 5
	tst	r2, #1
	bne	.L109
	mov	r0, r8
	bl	__cxa_guard_acquire(PLT)
	cmp	r0, #0
	beq	.L109
	mov	r0, r8
	bl	__cxa_guard_release(PLT)
	ldr	r3, [sp, #4]
	ldr	r1, .L259+20
	ldr	r2, [sp, #12]
	mov	r0, fp
	ldr	r1, [r3, r1]
	bl	__aeabi_atexit(PLT)
	b	.L109
.L119:
	add	r7, r4, #24
	mov	r0, r7
	bl	pthread_mutex_lock(PLT)
	ldr	r3, [r4, #132]
	cmp	r3, #0
	ldreq	r3, [sp, #8]
	ldrne	r2, [sp, #8]
	streq	r3, [r4, #128]
	strne	r2, [r3]
	ldr	r3, [r4, #96]
	str	r5, [r4, #132]
	orr	r3, r3, #1
	cmp	r3, #1
	str	r3, [r4, #96]
	add	r5, r4, #48
	beq	.L130
	mov	r0, r7
	bl	pthread_mutex_unlock(PLT)
	mov	r0, r5
	bl	pthread_cond_signal(PLT)
.L240:
	ldr	r4, [r6, #68]
	cmn	r4, #1
	beq	.L101
.L169:
	bl	__errno_location(PLT)
	mov	r3, #0
	str	r3, [r0]
	mov	r7, r0
	mov	r0, r4
	bl	close(PLT)
	ldr	r3, .L259+12
	ldr	r8, [r7]
	ldr	r5, [r9, r3]
	ldrb	r3, [r5]	@ zero_extendqisi2
	mcr	p15, 0, r0, c7, c10, 5
	tst	r3, #1
	mov	r10, r0
	beq	.L251
.L134:
	cmp	r10, #0
	bne	.L252
.L101:
	ldr	r3, .L259+24
	ldr	r4, [r6, #60]
	ldr	r3, [r9, r3]
	cmp	r4, #0
	add	r3, r3, #8
	str	r3, [r6, #36]
	beq	.L146
	ldr	r3, .L259+28
	ldr	r3, [r9, r3]
	cmp	r3, #0
	beq	.L147
	add	r3, r4, #28
	mcr	p15, 0, r0, c7, c10, 5
.L237:
	ldrex	r2, [r3]
	sub	r1, r2, #1
	strex	r0, r1, [r3]
	cmp	r0, #0
	bne	.L237
	cmp	r2, #1
	mcr	p15, 0, r0, c7, c10, 5
	beq	.L253
.L146:
	ldr	r4, [r6, #52]
	cmp	r4, #0
	beq	.L152
	ldr	r3, .L259+28
	ldr	r3, [r9, r3]
	cmp	r3, #0
	beq	.L153
	add	r3, r4, #28
	mcr	p15, 0, r0, c7, c10, 5
.L236:
	ldrex	r2, [r3]
	sub	r1, r2, #1
	strex	r0, r1, [r3]
	cmp	r0, #0
	bne	.L236
	cmp	r2, #1
	mcr	p15, 0, r0, c7, c10, 5
	beq	.L254
.L152:
	ldr	r0, [r6, #44]
	cmp	r0, #0
	beq	.L100
	ldr	r3, .L259+28
	ldr	r3, [r9, r3]
	cmp	r3, #0
	beq	.L159
	add	r3, r0, #32
	mcr	p15, 0, r0, c7, c10, 5
.L235:
	ldrex	r2, [r3]
	sub	r1, r2, #1
	strex	ip, r1, [r3]
	cmp	ip, #0
	bne	.L235
	cmp	r2, #1
	mcr	p15, 0, r0, c7, c10, 5
	beq	.L255
.L100:
	add	sp, sp, #44
	@ sp needed
	pop	{r4, r5, r6, r7, r8, r9, r10, fp, pc}
.L147:
	ldr	r3, [r4, #28]
	cmp	r3, #1
	sub	r3, r3, #1
	str	r3, [r4, #28]
	bne	.L146
	ldr	r3, [r4]
	mov	r0, r4
	ldr	r3, [r3, #8]
	blx	r3
	mcr	p15, 0, r0, c7, c10, 5
	ldr	r2, [r4, #32]
	sub	r3, r2, #1
	str	r3, [r4, #32]
	b	.L167
.L153:
	ldr	r3, [r4, #28]
	cmp	r3, #1
	sub	r3, r3, #1
	str	r3, [r4, #28]
	bne	.L152
	ldr	r3, [r4]
	mov	r0, r4
	ldr	r3, [r3, #8]
	blx	r3
	mcr	p15, 0, r0, c7, c10, 5
	ldr	r2, [r4, #32]
	sub	r3, r2, #1
	str	r3, [r4, #32]
	b	.L168
.L251:
	mov	r0, r5
	bl	__cxa_guard_acquire(PLT)
	cmp	r0, #0
	beq	.L134
	mov	r0, r5
	bl	__cxa_guard_release(PLT)
	ldr	r3, .L259+16
	ldr	r1, .L259+20
	ldr	r2, .L259+32
	ldr	r0, [r9, r3]
.LPIC21:
	add	r2, pc, r2
	ldr	r1, [r9, r1]
	bl	__aeabi_atexit(PLT)
	b	.L134
.L250:
	ldr	r2, [r1, r10]
	str	r4, [sp, #8]
	cmp	r2, #0
	mov	r5, r4
	bne	.L256
.L105:
	ldr	r3, [sp]
	add	r10, r10, #8
	add	r3, r3, #1
	cmp	r3, #3
	str	r3, [sp]
	bne	.L114
	ldr	r7, [sp, #16]
	mvn	r2, #0
	mov	r3, #1
	str	r2, [r1, #48]
	strb	r3, [r1, #80]
	add	r8, r7, #72
	ldr	r0, [sp, #20]
	ldr	r9, [sp, #4]
	bl	pthread_mutex_unlock(PLT)
	mov	r0, r8
	ldr	r4, [r6, #76]
	bl	pthread_mutex_lock(PLT)
	ldr	r3, [r7, #96]
	mov	r7, #0
	cmp	r4, r3
	mov	r0, r8
	ldreq	r2, [sp, #16]
	ldreq	r3, [r4, #12]
	streq	r3, [r2, #96]
	ldr	r3, [r4, #16]
	cmp	r3, #0
	ldrne	r2, [r4, #12]
	strne	r2, [r3, #12]
	ldr	r3, [r4, #12]
	cmp	r3, #0
	ldrne	r2, [r4, #16]
	strne	r2, [r3, #16]
	ldr	r2, [sp, #16]
	mov	r8, r2
	ldr	r3, [r2, #100]
	str	r7, [r4, #16]
	str	r3, [r4, #12]
	str	r4, [r2, #100]
	bl	pthread_mutex_unlock(PLT)
	ldr	r3, [sp, #8]
	str	r7, [r6, #76]
	cmp	r3, r7
	ldr	r4, [r8, #20]
	beq	.L240
	ldrb	r3, [r4, #20]	@ zero_extendqisi2
	cmp	r3, r7
	beq	.L119
	ldr	r3, .L259+36
	ldr	r3, [r9, r3]
	ldr	r0, [r3]
	bl	pthread_getspecific(PLT)
	cmp	r0, #0
	bne	.L228
	b	.L119
.L122:
	ldr	r0, [r0, #8]
	cmp	r0, #0
	beq	.L119
.L228:
	ldr	r3, [r0]
	cmp	r4, r3
	bne	.L122
	ldr	r3, [r0, #4]
	cmp	r3, #0
	beq	.L119
	ldr	r2, [r3, #8]
	cmp	r2, #0
	ldrne	r1, [sp, #8]
	ldreq	r2, [sp, #8]
	strne	r1, [r2]
	streq	r2, [r3, #4]
	str	r5, [r3, #8]
	b	.L240
.L159:
	ldr	r2, [r0, #32]
	sub	r3, r2, #1
	cmp	r2, #1
	str	r3, [r0, #32]
	bne	.L100
.L255:
	mcr	p15, 0, r0, c7, c10, 5
	ldr	r3, [r0]
	ldr	r3, [r3, #12]
	blx	r3
	add	sp, sp, #44
	@ sp needed
	pop	{r4, r5, r6, r7, r8, r9, r10, fp, pc}
.L103:
	ldr	r0, [sp, #20]
	bl	pthread_mutex_unlock(PLT)
	ldr	r4, [r6, #68]
	cmn	r4, #1
	bne	.L169
	b	.L101
.L252:
	ldrb	r3, [r5]	@ zero_extendqisi2
	mcr	p15, 0, r0, c7, c10, 5
	tst	r3, #1
	beq	.L257
.L138:
	cmp	r8, #11
	beq	.L258
	ldrb	r3, [r5]	@ zero_extendqisi2
	mcr	p15, 0, r0, c7, c10, 5
	tst	r3, #1
	bne	.L101
	mov	r0, r5
	bl	__cxa_guard_acquire(PLT)
	cmp	r0, #0
	beq	.L101
	mov	r0, r5
	bl	__cxa_guard_release(PLT)
	ldr	r3, .L259+16
	ldr	r1, .L259+20
	ldr	r2, .L259+40
	ldr	r0, [r9, r3]
.LPIC23:
	add	r2, pc, r2
	ldr	r1, [r9, r1]
	bl	__aeabi_atexit(PLT)
	b	.L101
.L253:
	ldr	r3, [r4]
	mov	r0, r4
	ldr	r3, [r3, #8]
	blx	r3
	add	r3, r4, #32
	mcr	p15, 0, r0, c7, c10, 5
	mcr	p15, 0, r0, c7, c10, 5
.L234:
	ldrex	r2, [r3]
	sub	r1, r2, #1
	strex	r0, r1, [r3]
	cmp	r0, #0
	bne	.L234
	mcr	p15, 0, r0, c7, c10, 5
.L167:
	cmp	r2, #1
	bne	.L146
	ldr	r3, [r4]
	mov	r0, r4
	ldr	r3, [r3, #12]
	blx	r3
	b	.L146
.L254:
	ldr	r3, [r4]
	mov	r0, r4
	ldr	r3, [r3, #8]
	blx	r3
	add	r3, r4, #32
	mcr	p15, 0, r0, c7, c10, 5
	mcr	p15, 0, r0, c7, c10, 5
.L233:
	ldrex	r2, [r3]
	sub	r1, r2, #1
	strex	r0, r1, [r3]
	cmp	r0, #0
	bne	.L233
	mcr	p15, 0, r0, c7, c10, 5
.L168:
	cmp	r2, #1
	bne	.L152
	ldr	r3, [r4]
	mov	r0, r4
	ldr	r3, [r3, #12]
	blx	r3
	b	.L152
.L249:
	str	r0, [sp, #24]
	str	r0, [sp, #28]
	str	r0, [sp, #32]
	str	r0, [sp, #36]
	ldr	r0, [sp, #16]
	add	ip, sp, #24
	mov	r1, #2
	mov	r2, r4
	mov	r3, ip
	ldr	r0, [r0, #56]
	bl	epoll_ctl(PLT)
	ldr	r1, [r6, #76]
	b	.L104
.L258:
	add	r2, sp, #40
	mov	r8, #0
	str	r8, [r2, #-16]!
	ldr	r1, .L259+44
	mov	r0, r4
	bl	ioctl(PLT)
	ldrb	r3, [r6, #72]	@ zero_extendqisi2
	mov	r0, r4
	bic	r3, r3, #3
	strb	r3, [r6, #72]
	str	r8, [r7]
	bl	close(PLT)
	ldrb	r3, [r5]	@ zero_extendqisi2
	mcr	p15, 0, r0, c7, c10, 5
	tst	r3, #1
	bne	.L101
	mov	r0, r5
	bl	__cxa_guard_acquire(PLT)
	cmp	r0, #0
	beq	.L101
	mov	r0, r5
	bl	__cxa_guard_release(PLT)
	ldr	r3, .L259+16
	ldr	r1, .L259+20
	ldr	r2, .L259+48
	ldr	r0, [r9, r3]
.LPIC24:
	add	r2, pc, r2
	ldr	r1, [r9, r1]
	bl	__aeabi_atexit(PLT)
	b	.L101
.L130:
	ldrb	r2, [r4, #120]	@ zero_extendqisi2
	cmp	r2, #0
	bne	.L132
	ldr	r0, [r4, #104]
	cmp	r0, #0
	beq	.L132
	strb	r3, [r4, #120]
	add	r3, sp, #24
	add	r1, r0, #48
	mov	ip, #-2147483639
	str	r1, [sp, #32]
	str	r2, [r3, #4]
	str	r2, [r3, #12]
	str	ip, [sp, #24]
	mov	r1, #3
	ldr	r2, [r0, #48]
	ldr	r0, [r0, #56]
	bl	epoll_ctl(PLT)
.L132:
	mov	r0, r7
	bl	pthread_mutex_unlock(PLT)
	b	.L240
.L257:
	mov	r0, r5
	bl	__cxa_guard_acquire(PLT)
	cmp	r0, #0
	beq	.L138
	mov	r0, r5
	bl	__cxa_guard_release(PLT)
	ldr	r3, .L259+16
	ldr	r1, .L259+20
	ldr	r2, .L259+52
	ldr	r0, [r9, r3]
.LPIC22:
	add	r2, pc, r2
	ldr	r1, [r9, r1]
	bl	__aeabi_atexit(PLT)
	b	.L138
.L260:
	.align	2
.L259:
	.word	_GLOBAL_OFFSET_TABLE_-(.LPIC19+8)
	.word	_ZTVN7asiopal13SerialChannelE(GOT)
	.word	__dso_handle-(.LPIC20+8)
	.word	_ZGVZN4asio15system_categoryEvE8instance(GOT)
	.word	_ZZN4asio15system_categoryEvE8instance(GOT)
	.word	_ZN4asio6detail15system_categoryD1Ev(GOT)
	.word	_ZTVN7asiopal13IAsyncChannelE(GOT)
	.word	_ZL28__gthrw___pthread_key_createPjPFvPvE(GOT)
	.word	__dso_handle-(.LPIC21+8)
	.word	_ZN4asio6detail10call_stackINS0_15task_io_serviceENS0_27task_io_service_thread_infoEE4top_E(GOT)
	.word	__dso_handle-(.LPIC23+8)
	.word	21537
	.word	__dso_handle-(.LPIC24+8)
	.word	__dso_handle-(.LPIC22+8)
	.global	__gxx_personality_v0
	.personality	__gxx_personality_v0
	.handlerdata
.LLSDA9873:
	.byte	0xff
	.byte	0xff
	.byte	0x1
	.uleb128 .LLSDACSE9873-.LLSDACSB9873
.LLSDACSB9873:
.LLSDACSE9873:
	.section	.text._ZNSt23_Sp_counted_ptr_inplaceIN7asiopal13SerialChannelESaIS1_ELN9__gnu_cxx12_Lock_policyE1EE10_M_disposeEv,"axG",%progbits,_ZNSt23_Sp_counted_ptr_inplaceIN7asiopal13SerialChannelESaIS1_ELN9__gnu_cxx12_Lock_policyE1EE10_M_disposeEv,comdat
	.fnend
	.size	_ZNSt23_Sp_counted_ptr_inplaceIN7asiopal13SerialChannelESaIS1_ELN9__gnu_cxx12_Lock_policyE1EE10_M_disposeEv, .-_ZNSt23_Sp_counted_ptr_inplaceIN7asiopal13SerialChannelESaIS1_ELN9__gnu_cxx12_Lock_policyE1EE10_M_disposeEv
	.section	.text._ZNK4asio5error6detail13misc_category7messageB5cxx11Ei,"axG",%progbits,_ZNK4asio5error6detail13misc_category7messageB5cxx11Ei,comdat
	.align	2
	.weak	_ZNK4asio5error6detail13misc_category7messageB5cxx11Ei
	.syntax unified
	.arm
	.fpu vfp
	.type	_ZNK4asio5error6detail13misc_category7messageB5cxx11Ei, %function
_ZNK4asio5error6detail13misc_category7messageB5cxx11Ei:
	.fnstart
.LFB2703:
	@ args = 0, pretend = 0, frame = 8
	@ frame_needed = 0, uses_anonymous_args = 0
	cmp	r2, #1
	push	{r4, r5, r6, lr}
	.save {r4, r5, r6, lr}
	mov	r4, r0
	.pad #8
	sub	sp, sp, #8
	beq	.L270
	cmp	r2, #2
	beq	.L271
	cmp	r2, #3
	beq	.L272
	cmp	r2, #4
	beq	.L273
	ldr	ip, .L274
	add	r3, r0, #8
.LPIC29:
	add	ip, pc, ip
	mov	r5, #15
	ldmia	ip!, {r0, r1, r2}
	mov	lr, #0
	str	r3, [r4]
	str	r5, [r4, #4]
	ldrh	r6, [ip]	@ unaligned
	ldrb	ip, [ip, #2]	@ zero_extendqisi2
	str	r0, [r4, #8]	@ unaligned
	str	r1, [r4, #12]	@ unaligned
	str	r2, [r4, #16]	@ unaligned
	strh	r6, [r4, #20]	@ unaligned
	strb	ip, [r4, #22]
	strb	lr, [r4, #23]
.L261:
	mov	r0, r4
	add	sp, sp, #8
	@ sp needed
	pop	{r4, r5, r6, pc}
.L273:
	add	r1, sp, #8
	add	r3, r0, #8
	mov	r2, #57
	str	r2, [r1, #-4]!
	str	r3, [r0]
	mov	r2, #0
	bl	_ZNSt7__cxx1112basic_stringIcSt11char_traitsIcESaIcEE9_M_createERjj(PLT)
	ldr	r5, .L274+4
	ldr	r3, [sp, #4]
.LPIC28:
	add	r5, pc, r5
	add	r6, r5, #48
	str	r3, [r4, #8]
	mov	lr, r0
	str	r0, [r4]
.L267:
	mov	ip, r5
	add	lr, lr, #16
	ldmia	ip!, {r0, r1, r2, r3}
	add	r5, r5, #16
	cmp	ip, r6
	str	r0, [lr, #-16]	@ unaligned
	str	r1, [lr, #-12]	@ unaligned
	str	r2, [lr, #-8]	@ unaligned
	str	r3, [lr, #-4]	@ unaligned
	bne	.L267
	ldmia	r5!, {r0, r1}
	mov	ip, #0
	ldrb	r3, [r5]	@ zero_extendqisi2
	str	r0, [lr]	@ unaligned
	str	r1, [lr, #4]	@ unaligned
	strb	r3, [lr, #8]
	ldr	r3, [sp, #4]
	ldr	r2, [r4]
	str	r3, [r4, #4]
	strb	ip, [r2, r3]
	b	.L261
.L270:
	ldr	ip, .L274+8
	add	r3, r0, #8
.LPIC25:
	add	ip, pc, ip
	mov	lr, #12
	ldmia	ip!, {r0, r1, r2}
	mov	ip, #0
	str	r3, [r4]
	str	lr, [r4, #4]
	str	r0, [r4, #8]	@ unaligned
	str	r1, [r4, #12]	@ unaligned
	str	r2, [r4, #16]	@ unaligned
	strb	ip, [r4, #20]
	b	.L261
.L271:
	ldr	r2, .L274+12
	add	r3, r0, #8
.LPIC26:
	add	r2, pc, r2
	mov	lr, #11
	ldmia	r2!, {r0, r1}
	mov	ip, #0
	str	r3, [r4]
	ldrh	r5, [r2]	@ unaligned
	ldrb	r2, [r2, #2]	@ zero_extendqisi2
	str	r0, [r4, #8]	@ unaligned
	str	r1, [r4, #12]	@ unaligned
	strh	r5, [r4, #16]	@ unaligned
	strb	r2, [r4, #18]
	str	lr, [r4, #4]
	strb	ip, [r4, #19]
	b	.L261
.L272:
	add	r1, sp, #8
	add	r3, r0, #8
	mov	r2, #17
	str	r2, [r1, #-4]!
	str	r3, [r0]
	mov	r2, #0
	bl	_ZNSt7__cxx1112basic_stringIcSt11char_traitsIcESaIcEE9_M_createERjj(PLT)
	ldr	ip, .L274+16
	ldr	r6, [sp, #4]
.LPIC27:
	add	ip, pc, ip
	str	r6, [r4, #8]
	mov	r5, #0
	str	r0, [r4]
	mov	lr, r0
	ldmia	ip!, {r0, r1, r2, r3}
	ldrb	ip, [ip]	@ zero_extendqisi2
	str	r0, [lr]	@ unaligned
	str	r1, [lr, #4]	@ unaligned
	strb	ip, [lr, #16]
	str	r2, [lr, #8]	@ unaligned
	str	r3, [lr, #12]	@ unaligned
	ldr	r3, [sp, #4]
	ldr	r2, [r4]
	str	r3, [r4, #4]
	strb	r5, [r2, r3]
	b	.L261
.L275:
	.align	2
.L274:
	.word	.LC13-(.LPIC29+8)
	.word	.LC12-(.LPIC28+8)
	.word	.LC9-(.LPIC25+8)
	.word	.LC10-(.LPIC26+8)
	.word	.LC11-(.LPIC27+8)
	.fnend
	.size	_ZNK4asio5error6detail13misc_category7messageB5cxx11Ei, .-_ZNK4asio5error6detail13misc_category7messageB5cxx11Ei
	.section	.text._ZNK4asio5error6detail14netdb_category7messageB5cxx11Ei,"axG",%progbits,_ZNK4asio5error6detail14netdb_category7messageB5cxx11Ei,comdat
	.align	2
	.weak	_ZNK4asio5error6detail14netdb_category7messageB5cxx11Ei
	.syntax unified
	.arm
	.fpu vfp
	.type	_ZNK4asio5error6detail14netdb_category7messageB5cxx11Ei, %function
_ZNK4asio5error6detail14netdb_category7messageB5cxx11Ei:
	.fnstart
.LFB2691:
	@ args = 0, pretend = 0, frame = 8
	@ frame_needed = 0, uses_anonymous_args = 0
	push	{r4, r5, r6, lr}
	.save {r4, r5, r6, lr}
	cmp	r2, #1
	.pad #8
	sub	sp, sp, #8
	add	r1, sp, #8
	mov	r4, r0
	beq	.L289
	cmp	r2, #2
	beq	.L290
	cmp	r2, #4
	beq	.L291
	cmp	r2, #3
	beq	.L292
	add	r3, r0, #8
	mov	r2, #16
	str	r2, [r1, #-4]!
	str	r3, [r0]
	mov	r2, #0
	bl	_ZNSt7__cxx1112basic_stringIcSt11char_traitsIcESaIcEE9_M_createERjj(PLT)
	ldr	ip, .L293
	ldr	r5, [sp, #4]
.LPIC34:
	add	ip, pc, ip
	str	r5, [r4, #8]
	str	r0, [r4]
	mov	lr, r0
	ldmia	ip!, {r0, r1, r2, r3}
	mov	ip, #0
	str	r0, [lr]	@ unaligned
	str	r1, [lr, #4]	@ unaligned
	str	r2, [lr, #8]	@ unaligned
	str	r3, [lr, #12]	@ unaligned
	ldr	r3, [sp, #4]
	ldr	r2, [r4]
	str	r3, [r4, #4]
	strb	ip, [r2, r3]
.L276:
	mov	r0, r4
	add	sp, sp, #8
	@ sp needed
	pop	{r4, r5, r6, pc}
.L292:
	add	r3, r0, #8
	mov	r2, #55
	str	r2, [r1, #-4]!
	str	r3, [r0]
	mov	r2, #0
	bl	_ZNSt7__cxx1112basic_stringIcSt11char_traitsIcESaIcEE9_M_createERjj(PLT)
	ldr	r5, .L293+4
	ldr	r3, [sp, #4]
.LPIC33:
	add	r5, pc, r5
	add	r6, r5, #48
	str	r3, [r4, #8]
	mov	lr, r0
	str	r0, [r4]
.L284:
	mov	ip, r5
	add	lr, lr, #16
	ldmia	ip!, {r0, r1, r2, r3}
	add	r5, r5, #16
	cmp	ip, r6
	str	r0, [lr, #-16]	@ unaligned
	str	r1, [lr, #-12]	@ unaligned
	str	r2, [lr, #-8]	@ unaligned
	str	r3, [lr, #-4]	@ unaligned
	bne	.L284
	ldrh	r2, [r5, #4]	@ unaligned
	ldrb	r3, [r5, #6]	@ zero_extendqisi2
	ldr	r0, [r5]
	strh	r2, [lr, #4]	@ unaligned
	strb	r3, [lr, #6]
	str	r0, [lr]	@ unaligned
	ldr	r3, [sp, #4]
	ldr	r2, [r4]
	mov	r1, #0
	str	r3, [r4, #4]
	strb	r1, [r2, r3]
	b	.L276
.L289:
	add	r3, r0, #8
	mov	r2, #30
	str	r2, [r1, #-4]!
	str	r3, [r0]
	mov	r2, #0
	bl	_ZNSt7__cxx1112basic_stringIcSt11char_traitsIcESaIcEE9_M_createERjj(PLT)
	ldr	ip, .L293+8
	ldr	r6, [sp, #4]
.LPIC30:
	add	ip, pc, ip
	str	r6, [r4, #8]
	mov	r5, #0
	str	r0, [r4]
	mov	lr, r0
	ldmia	ip!, {r0, r1, r2, r3}
	str	r0, [lr]	@ unaligned
	str	r1, [lr, #4]	@ unaligned
	str	r2, [lr, #8]	@ unaligned
	ldmia	ip!, {r0, r1, r2}
	str	r3, [lr, #12]	@ unaligned
	ldrh	r3, [ip]	@ unaligned
	str	r0, [lr, #16]	@ unaligned
	str	r1, [lr, #20]	@ unaligned
	strh	r3, [lr, #28]	@ unaligned
	str	r2, [lr, #24]	@ unaligned
	ldr	r3, [sp, #4]
	ldr	r2, [r4]
	str	r3, [r4, #4]
	strb	r5, [r2, r3]
	b	.L276
.L290:
	add	r3, r0, #8
	mov	r2, #51
	str	r2, [r1, #-4]!
	str	r3, [r0]
	mov	r2, #0
	bl	_ZNSt7__cxx1112basic_stringIcSt11char_traitsIcESaIcEE9_M_createERjj(PLT)
	ldr	r5, .L293+12
	ldr	r3, [sp, #4]
.LPIC31:
	add	r5, pc, r5
	add	r6, r5, #48
	str	r3, [r4, #8]
	mov	lr, r0
	str	r0, [r4]
.L280:
	mov	ip, r5
	add	lr, lr, #16
	ldmia	ip!, {r0, r1, r2, r3}
	add	r5, r5, #16
	cmp	ip, r6
	str	r0, [lr, #-16]	@ unaligned
	str	r1, [lr, #-12]	@ unaligned
	str	r2, [lr, #-8]	@ unaligned
	str	r3, [lr, #-4]	@ unaligned
	bne	.L280
	ldrh	r2, [r5]	@ unaligned
	ldrb	r3, [r5, #2]	@ zero_extendqisi2
	mov	r1, #0
	strh	r2, [lr]	@ unaligned
	strb	r3, [lr, #2]
	ldr	r3, [sp, #4]
	ldr	r2, [r4]
	str	r3, [r4, #4]
	strb	r1, [r2, r3]
	b	.L276
.L291:
	add	r3, r0, #8
	mov	r2, #56
	str	r2, [r1, #-4]!
	str	r3, [r0]
	mov	r2, #0
	bl	_ZNSt7__cxx1112basic_stringIcSt11char_traitsIcESaIcEE9_M_createERjj(PLT)
	ldr	r5, .L293+16
	ldr	r3, [sp, #4]
.LPIC32:
	add	r5, pc, r5
	add	r6, r5, #48
	str	r3, [r4, #8]
	mov	lr, r0
	str	r0, [r4]
.L282:
	mov	ip, r5
	add	lr, lr, #16
	ldmia	ip!, {r0, r1, r2, r3}
	add	r5, r5, #16
	cmp	ip, r6
	str	r0, [lr, #-16]	@ unaligned
	str	r1, [lr, #-12]	@ unaligned
	str	r2, [lr, #-8]	@ unaligned
	str	r3, [lr, #-4]	@ unaligned
	bne	.L282
	ldmia	r5!, {r0, r1}
	mov	ip, #0
	str	r0, [lr]	@ unaligned
	str	r1, [lr, #4]	@ unaligned
	ldr	r3, [sp, #4]
	ldr	r2, [r4]
	str	r3, [r4, #4]
	strb	ip, [r2, r3]
	b	.L276
.L294:
	.align	2
.L293:
	.word	.LC18-(.LPIC34+8)
	.word	.LC17-(.LPIC33+8)
	.word	.LC14-(.LPIC30+8)
	.word	.LC15-(.LPIC31+8)
	.word	.LC16-(.LPIC32+8)
	.fnend
	.size	_ZNK4asio5error6detail14netdb_category7messageB5cxx11Ei, .-_ZNK4asio5error6detail14netdb_category7messageB5cxx11Ei
	.section	.text._ZNSt12system_errorC2ESt10error_codePKc,"axG",%progbits,_ZNSt12system_errorC5ESt10error_codePKc,comdat
	.align	2
	.weak	_ZNSt12system_errorC2ESt10error_codePKc
	.syntax unified
	.arm
	.fpu vfp
	.type	_ZNSt12system_errorC2ESt10error_codePKc, %function
_ZNSt12system_errorC2ESt10error_codePKc:
	.fnstart
.LFB2630:
	@ args = 0, pretend = 0, frame = 80
	@ frame_needed = 0, uses_anonymous_args = 0
	push	{r4, r5, r6, r7, r8, r9, r10, fp, lr}
	.save {r4, r5, r6, r7, r8, r9, r10, fp, lr}
	.pad #92
	sub	sp, sp, #92
	add	r4, sp, #8
	add	r8, sp, #64
	stm	r4, {r1, r2}
	ldr	r2, [sp, #12]
	mov	r5, r0
	mov	r1, r2
	ldr	ip, [r2]
	mov	r0, r8
	ldr	r2, [sp, #8]
	ldr	r6, [ip, #16]
	mov	r7, r3
.LEHB0:
	blx	r6
.LEHE0:
	mov	r3, #2
	str	r3, [sp]
	ldr	r3, .L314
	mov	r2, #0
	ldr	r9, .L314+4
	mov	r0, r8
	mov	r1, r2
.LPIC35:
	add	r3, pc, r3
.LPIC36:
	add	r9, pc, r9
.LEHB1:
	bl	_ZNSt7__cxx1112basic_stringIcSt11char_traitsIcESaIcEE10_M_replaceEjjPKcj(PLT)
.LEHE1:
	mov	lr, r0
	add	r6, sp, #48
	str	r6, [sp, #40]
	ldr	r3, [lr], #8
	mov	ip, r0
	cmp	r3, lr
	moveq	r10, r6
	ldreq	r0, [lr]	@ unaligned
	ldreq	r1, [lr, #4]	@ unaligned
	ldreq	r2, [lr, #8]	@ unaligned
	ldreq	r3, [lr, #12]	@ unaligned
	ldrne	r2, [ip, #8]
	strne	r3, [sp, #40]
	stmiaeq	r10!, {r0, r1, r2, r3}
	mov	fp, #0
	strne	r2, [sp, #48]
	ldr	r3, [ip, #4]
	strb	fp, [ip, #8]
	str	r3, [sp, #44]
	mov	r0, r7
	str	lr, [ip]
	str	fp, [ip, #4]
	bl	strlen(PLT)
	add	r10, sp, #40
	mov	r3, r7
	mov	r2, fp
	mov	r1, fp
	str	r0, [sp]
	mov	r0, r10
.LEHB2:
	bl	_ZNSt7__cxx1112basic_stringIcSt11char_traitsIcESaIcEE10_M_replaceEjjPKcj(PLT)
.LEHE2:
	mov	lr, r0
	add	r7, sp, #24
	str	r7, [sp, #16]
	ldr	r3, [lr], #8
	mov	ip, r0
	cmp	r3, lr
	moveq	fp, r7
	ldreq	r0, [lr]	@ unaligned
	ldreq	r1, [lr, #4]	@ unaligned
	ldreq	r2, [lr, #8]	@ unaligned
	ldreq	r3, [lr, #12]	@ unaligned
	ldrne	r2, [ip, #8]
	strne	r3, [sp, #16]
	stmiaeq	fp!, {r0, r1, r2, r3}
	mov	r3, #0
	strne	r2, [sp, #24]
	ldr	r2, [ip, #4]
	add	fp, sp, #16
	str	r2, [sp, #20]
	strb	r3, [ip, #8]
	str	lr, [ip]
	str	r3, [ip, #4]
	mov	r1, fp
	mov	r0, r5
.LEHB3:
	bl	_ZNSt13runtime_errorC2ERKNSt7__cxx1112basic_stringIcSt11char_traitsIcESaIcEEE(PLT)
.LEHE3:
	ldr	r0, [sp, #16]
	cmp	r0, r7
	beq	.L300
	bl	_ZdlPv(PLT)
.L300:
	ldr	r0, [sp, #40]
	cmp	r0, r6
	beq	.L301
	bl	_ZdlPv(PLT)
.L301:
	ldr	r0, [sp, #64]
	add	r3, sp, #72
	cmp	r0, r3
	beq	.L302
	bl	_ZdlPv(PLT)
.L302:
	ldr	r2, .L314+8
	ldm	r4, {r0, r1}
	mov	r3, r5
	ldr	r2, [r9, r2]
	add	r2, r2, #8
	str	r2, [r3], #8
	stm	r3, {r0, r1}
	mov	r0, r5
	add	sp, sp, #92
	@ sp needed
	pop	{r4, r5, r6, r7, r8, r9, r10, fp, pc}
.L309:
.L307:
	ldr	r0, [sp, #64]
	add	r8, r8, #8
	cmp	r0, r8
	beq	.L308
	bl	_ZdlPv(PLT)
.L308:
.LEHB4:
	bl	__cxa_end_cleanup(PLT)
.LEHE4:
.L311:
	ldr	r0, [sp, #16]
	add	fp, fp, #8
	cmp	r0, fp
	beq	.L305
	bl	_ZdlPv(PLT)
.L305:
	ldr	r0, [sp, #40]
	add	r10, r10, #8
	cmp	r0, r10
	beq	.L307
	bl	_ZdlPv(PLT)
	b	.L307
.L310:
	b	.L305
.L315:
	.align	2
.L314:
	.word	.LC19-(.LPIC35+8)
	.word	_GLOBAL_OFFSET_TABLE_-(.LPIC36+8)
	.word	_ZTVSt12system_error(GOT)
	.personality	__gxx_personality_v0
	.handlerdata
.LLSDA2630:
	.byte	0xff
	.byte	0xff
	.byte	0x1
	.uleb128 .LLSDACSE2630-.LLSDACSB2630
.LLSDACSB2630:
	.uleb128 .LEHB0-.LFB2630
	.uleb128 .LEHE0-.LEHB0
	.uleb128 0
	.uleb128 0
	.uleb128 .LEHB1-.LFB2630
	.uleb128 .LEHE1-.LEHB1
	.uleb128 .L309-.LFB2630
	.uleb128 0
	.uleb128 .LEHB2-.LFB2630
	.uleb128 .LEHE2-.LEHB2
	.uleb128 .L310-.LFB2630
	.uleb128 0
	.uleb128 .LEHB3-.LFB2630
	.uleb128 .LEHE3-.LEHB3
	.uleb128 .L311-.LFB2630
	.uleb128 0
	.uleb128 .LEHB4-.LFB2630
	.uleb128 .LEHE4-.LEHB4
	.uleb128 0
	.uleb128 0
.LLSDACSE2630:
	.section	.text._ZNSt12system_errorC2ESt10error_codePKc,"axG",%progbits,_ZNSt12system_errorC5ESt10error_codePKc,comdat
	.fnend
	.size	_ZNSt12system_errorC2ESt10error_codePKc, .-_ZNSt12system_errorC2ESt10error_codePKc
	.weak	_ZNSt12system_errorC1ESt10error_codePKc
	.set	_ZNSt12system_errorC1ESt10error_codePKc,_ZNSt12system_errorC2ESt10error_codePKc
	.section	.text._ZN4asio6detail20posix_tss_ptr_createERj,"axG",%progbits,_ZN4asio6detail20posix_tss_ptr_createERj,comdat
	.align	2
	.weak	_ZN4asio6detail20posix_tss_ptr_createERj
	.syntax unified
	.arm
	.fpu vfp
	.type	_ZN4asio6detail20posix_tss_ptr_createERj, %function
_ZN4asio6detail20posix_tss_ptr_createERj:
	.fnstart
.LFB2708:
	@ args = 0, pretend = 0, frame = 24
	@ frame_needed = 0, uses_anonymous_args = 0
	push	{r4, r5, r6, lr}
	.save {r4, r5, r6, lr}
	mov	r1, #0
	.pad #24
	sub	sp, sp, #24
	bl	pthread_key_create(PLT)
	ldr	r4, .L330
	ldr	r3, .L330+4
.LPIC37:
	add	r4, pc, r4
	ldr	r6, [r4, r3]
	ldrb	r3, [r6]	@ zero_extendqisi2
	mcr	p15, 0, r0, c7, c10, 5
	tst	r3, #1
	mov	r5, r0
	beq	.L328
.L327:
	ldr	r3, .L330+8
	ldr	r6, [r4, r3]
.L318:
	cmp	r5, #0
	stm	sp, {r5, r6}
	bne	.L329
	add	sp, sp, #24
	@ sp needed
	pop	{r4, r5, r6, pc}
.L328:
	mov	r0, r6
	bl	__cxa_guard_acquire(PLT)
	cmp	r0, #0
	beq	.L327
	mov	r0, r6
	bl	__cxa_guard_release(PLT)
	ldr	r3, .L330+8
	ldr	r1, .L330+12
	ldr	r2, .L330+16
	ldr	r6, [r4, r3]
.LPIC38:
	add	r2, pc, r2
	ldr	r1, [r4, r1]
	mov	r0, r6
	bl	__aeabi_atexit(PLT)
	b	.L318
.L329:
	ldr	r3, .L330+20
	add	r5, sp, #8
	ldm	sp, {r1, r2}
.LPIC39:
	add	r3, pc, r3
	mov	r0, r5
.LEHB5:
	bl	_ZNSt12system_errorC1ESt10error_codePKc(PLT)
.LEHE5:
	mov	r0, #16
	bl	__cxa_allocate_exception(PLT)
	mov	r1, r5
	mov	r6, r0
	bl	_ZNSt13runtime_errorC2ERKS_(PLT)
	ldr	r3, .L330+24
	add	r2, sp, #24
	ldr	ip, .L330+28
	ldmdb	r2, {r0, r1}
	ldr	lr, [r4, r3]
	ldr	r2, .L330+32
	mov	r3, r6
	add	lr, lr, #8
	str	lr, [r3], #8
	stm	r3, {r0, r1}
	mov	r0, r6
	ldr	r2, [r4, r2]
	ldr	r1, [r4, ip]
.LEHB6:
	bl	__cxa_throw(PLT)
.LEHE6:
.L322:
	mov	r0, r5
	bl	_ZNSt12system_errorD1Ev(PLT)
.LEHB7:
	bl	__cxa_end_cleanup(PLT)
.LEHE7:
.L331:
	.align	2
.L330:
	.word	_GLOBAL_OFFSET_TABLE_-(.LPIC37+8)
	.word	_ZGVZN4asio15system_categoryEvE8instance(GOT)
	.word	_ZZN4asio15system_categoryEvE8instance(GOT)
	.word	_ZN4asio6detail15system_categoryD1Ev(GOT)
	.word	__dso_handle-(.LPIC38+8)
	.word	.LC20-(.LPIC39+8)
	.word	_ZTVSt12system_error(GOT)
	.word	_ZTISt12system_error(GOT)
	.word	_ZNSt12system_errorD1Ev(GOT)
	.personality	__gxx_personality_v0
	.handlerdata
.LLSDA2708:
	.byte	0xff
	.byte	0xff
	.byte	0x1
	.uleb128 .LLSDACSE2708-.LLSDACSB2708
.LLSDACSB2708:
	.uleb128 .LEHB5-.LFB2708
	.uleb128 .LEHE5-.LEHB5
	.uleb128 0
	.uleb128 0
	.uleb128 .LEHB6-.LFB2708
	.uleb128 .LEHE6-.LEHB6
	.uleb128 .L322-.LFB2708
	.uleb128 0
	.uleb128 .LEHB7-.LFB2708
	.uleb128 .LEHE7-.LEHB7
	.uleb128 0
	.uleb128 0
.LLSDACSE2708:
	.section	.text._ZN4asio6detail20posix_tss_ptr_createERj,"axG",%progbits,_ZN4asio6detail20posix_tss_ptr_createERj,comdat
	.fnend
	.size	_ZN4asio6detail20posix_tss_ptr_createERj, .-_ZN4asio6detail20posix_tss_ptr_createERj
	.section	.text._ZNSt16_Sp_counted_baseILN9__gnu_cxx12_Lock_policyE1EE10_M_releaseEv,"axG",%progbits,_ZNSt16_Sp_counted_baseILN9__gnu_cxx12_Lock_policyE1EE10_M_releaseEv,comdat
	.align	2
	.weak	_ZNSt16_Sp_counted_baseILN9__gnu_cxx12_Lock_policyE1EE10_M_releaseEv
	.syntax unified
	.arm
	.fpu vfp
	.type	_ZNSt16_Sp_counted_baseILN9__gnu_cxx12_Lock_policyE1EE10_M_releaseEv, %function
_ZNSt16_Sp_counted_baseILN9__gnu_cxx12_Lock_policyE1EE10_M_releaseEv:
	.fnstart
.LFB8401:
	@ args = 0, pretend = 0, frame = 0
	@ frame_needed = 0, uses_anonymous_args = 0
	ldr	r3, .L344
	ldr	r2, .L344+4
.LPIC40:
	add	r3, pc, r3
	push	{r4, r5, r6, lr}
	mov	r4, r0
	ldr	r3, [r3, r2]
	cmp	r3, #0
	beq	.L333
	add	r3, r0, #28
	mcr	p15, 0, r0, c7, c10, 5
.L340:
	ldrex	r2, [r3]
	sub	r1, r2, #1
	strex	ip, r1, [r3]
	cmp	ip, #0
	bne	.L340
	cmp	r2, #1
	mcr	p15, 0, r0, c7, c10, 5
	popne	{r4, r5, r6, pc}
	mov	r5, r4
	ldr	r3, [r5], #32
	ldr	r3, [r3, #8]
	blx	r3
	mcr	p15, 0, r0, c7, c10, 5
	mcr	p15, 0, r0, c7, c10, 5
.L339:
	ldrex	r3, [r5]
	sub	r2, r3, #1
	strex	r1, r2, [r5]
	cmp	r1, #0
	bne	.L339
	mcr	p15, 0, r0, c7, c10, 5
.L338:
	cmp	r3, #1
	popne	{r4, r5, r6, pc}
	ldr	r3, [r4]
	mov	r0, r4
	pop	{r4, r5, r6, lr}
	ldr	r3, [r3, #12]
	bx	r3	@ indirect register sibling call
.L333:
	ldr	r3, [r0, #28]
	cmp	r3, #1
	sub	r3, r3, #1
	str	r3, [r0, #28]
	popne	{r4, r5, r6, pc}
	ldr	r3, [r0]
	ldr	r3, [r3, #8]
	blx	r3
	mcr	p15, 0, r0, c7, c10, 5
	ldr	r3, [r4, #32]
	sub	r2, r3, #1
	str	r2, [r4, #32]
	b	.L338
.L345:
	.align	2
.L344:
	.word	_GLOBAL_OFFSET_TABLE_-(.LPIC40+8)
	.word	_ZL28__gthrw___pthread_key_createPjPFvPvE(GOT)
	.cantunwind
	.fnend
	.size	_ZNSt16_Sp_counted_baseILN9__gnu_cxx12_Lock_policyE1EE10_M_releaseEv, .-_ZNSt16_Sp_counted_baseILN9__gnu_cxx12_Lock_policyE1EE10_M_releaseEv
	.text
	.align	2
	.global	_ZN8asiodnp315SerialIOHandler7TryOpenERKN7openpal12TimeDurationE
	.syntax unified
	.arm
	.fpu vfp
	.type	_ZN8asiodnp315SerialIOHandler7TryOpenERKN7openpal12TimeDurationE, %function
_ZN8asiodnp315SerialIOHandler7TryOpenERKN7openpal12TimeDurationE:
	.fnstart
.LFB7473:
	@ args = 0, pretend = 0, frame = 192
	@ frame_needed = 0, uses_anonymous_args = 0
	push	{r4, r5, r6, r7, r8, r9, r10, lr}
	.save {r4, r5, r6, r7, r8, r9, r10, lr}
	mov	r8, r0
	.pad #192
	sub	sp, sp, #192
	mov	r0, #84
	mov	r7, r1
.LEHB8:
	bl	_Znwj(PLT)
.LEHE8:
	ldr	r5, .L452
	ldr	r1, .L452+4
.LPIC41:
	add	r5, pc, r5
	mov	r3, #0
	mov	r4, r0
	mov	r0, #1
	str	r3, [r4, #4]
	str	r3, [r4, #8]
	str	r3, [r4, #12]
	str	r3, [r4, #16]
	str	r3, [r4, #20]
	str	r3, [r4, #24]
	str	r0, [r4, #28]
	str	r0, [r4, #32]
	ldr	r3, [r8, #584]
	ldr	r2, [r5, r1]
	mov	r0, r4
	ldr	r1, [r8, #580]
	add	r2, r2, #8
	cmp	r3, #0
	str	r2, [r0], #36
	str	r3, [sp, #76]
	str	r1, [sp, #72]
	beq	.L347
	ldr	r2, .L452+8
	ldr	r6, [r5, r2]
	cmp	r6, #0
	beq	.L348
	add	r3, r3, #28
	mcr	p15, 0, r0, c7, c10, 5
.L436:
	ldrex	r2, [r3]
	add	r2, r2, #1
	strex	r1, r2, [r3]
	cmp	r1, #0
	bne	.L436
	mcr	p15, 0, r0, c7, c10, 5
.L347:
	add	r9, sp, #72
	mov	r1, r9
.LEHB9:
	bl	_ZN7asiopal13SerialChannelC1ESt10shared_ptrINS_8ExecutorEE(PLT)
.LEHE9:
	ldr	r10, [sp, #76]
	cmp	r10, #0
	beq	.L350
	ldr	r3, .L452+8
	ldr	r6, [r5, r3]
	cmp	r6, #0
	beq	.L351
	add	r3, r10, #28
	mcr	p15, 0, r0, c7, c10, 5
.L435:
	ldrex	r2, [r3]
	sub	r1, r2, #1
	strex	r0, r1, [r3]
	cmp	r0, #0
	bne	.L435
	cmp	r2, #1
	mcr	p15, 0, r0, c7, c10, 5
	beq	.L447
.L350:
	ldr	r3, .L452+12
	ldr	r2, [r4]
	mov	r0, r4
	ldr	r1, [r5, r3]
	ldr	r3, [r2, #16]
	blx	r3
	subs	r10, r0, #0
	beq	.L356
	ldr	r0, [r10, #8]
	cmp	r0, #0
	beq	.L360
	ldr	r3, [r0, #28]
	cmp	r3, #0
	beq	.L360
.L356:
	mov	r3, #0
	str	r3, [sp]
	bl	_ZNSt3_V215system_categoryEv(PLT)
	mov	r2, sp
	add	r1, r8, #616
	str	r0, [sp, #4]
	mov	r0, r10
.LEHB10:
	bl	_ZN7asiopal13SerialChannel4OpenERKNS_14SerialSettingsERSt10error_code(PLT)
	ldr	r3, [sp]
	cmp	r3, #0
	beq	.L367
	add	r10, r8, #16
	mov	r3, #4
	mov	r0, r10
	mov	r1, r9
	str	r3, [sp, #72]
	bl	_ZNK7openpal6Logger9IsEnabledERKNS_10LogFiltersE(PLT)
.LEHE10:
	cmp	r0, #0
	addeq	r6, sp, #48
	bne	.L448
.L368:
	ldrd	r2, [r7]
	str	r8, [sp, #48]
	add	ip, sp, #32
	strd	r2, [sp, #56]
	ldm	r6, {r0, r1, r2, r3}
	add	lr, sp, #24
	add	r6, r8, #664
	str	r6, [sp, #24]
	stm	ip, {r0, r1, r2, r3}
	mov	ip, r9
	str	r8, [sp, #32]
	ldmia	lr!, {r0, r1, r2, r3}
	mov	r10, #0
	str	r10, [sp, #16]
	ldr	r10, [r8, #44]
	stmia	ip!, {r0, r1, r2, r3}
	add	r10, r10, #1
	ldm	lr, {r0, r1}
	str	r10, [r8, #44]
	stm	ip, {r0, r1}
	mov	r0, #24
.LEHB11:
	bl	_Znwj(PLT)
.LEHE11:
	mov	lr, r9
	mov	ip, r0
	ldmia	lr!, {r0, r1, r2, r3}
	add	r8, sp, #8
	str	ip, [sp, #8]
	ldr	r9, .L452+16
	stmia	ip!, {r0, r1, r2, r3}
.LPIC44:
	add	r9, pc, r9
	ldm	lr, {r0, r1}
	ldr	r3, .L452+20
	mov	r2, r8
	stm	ip, {r0, r1}
.LPIC45:
	add	r3, pc, r3
	mov	r1, r7
	mov	r0, r6
	str	r9, [sp, #20]
	str	r3, [sp, #16]
.LEHB12:
	bl	_ZN7openpal8TimerRef11StartActionERKNS_12TimeDurationERKSt8functionIFvvEE(PLT)
.LEHE12:
	ldr	r3, [sp, #16]
	cmp	r3, #0
	beq	.L438
	mov	r2, #3
	mov	r1, r8
	mov	r0, r8
	blx	r3
.L438:
	ldr	r3, .L452+8
	ldr	r6, [r5, r3]
.L375:
	cmp	r6, #0
	beq	.L426
	add	r3, r4, #28
	mcr	p15, 0, r0, c7, c10, 5
.L431:
	ldrex	r2, [r3]
	sub	r1, r2, #1
	strex	r0, r1, [r3]
	cmp	r0, #0
	bne	.L431
	cmp	r2, #1
	mcr	p15, 0, r0, c7, c10, 5
	beq	.L449
.L346:
	add	sp, sp, #192
	@ sp needed
	pop	{r4, r5, r6, r7, r8, r9, r10, pc}
.L367:
	ldr	r3, .L452+8
	str	r10, [sp, #72]
	str	r4, [sp, #76]
	ldr	r6, [r5, r3]
	cmp	r6, #0
	beq	.L378
	add	r3, r4, #28
	mcr	p15, 0, r0, c7, c10, 5
.L433:
	ldrex	r2, [r3]
	add	r2, r2, #1
	strex	r1, r2, [r3]
	cmp	r1, #0
	bne	.L433
	mcr	p15, 0, r0, c7, c10, 5
.L379:
	mov	r1, r9
	mov	r0, r8
.LEHB13:
	bl	_ZN8asiodnp39IOHandler12OnNewChannelERKSt10shared_ptrIN7asiopal13IAsyncChannelEE(PLT)
.LEHE13:
	ldr	r5, [sp, #76]
	cmp	r5, #0
	beq	.L375
	cmp	r6, #0
	beq	.L382
	add	r3, r5, #28
	mcr	p15, 0, r0, c7, c10, 5
.L432:
	ldrex	r2, [r3]
	sub	r1, r2, #1
	strex	r0, r1, [r3]
	cmp	r0, #0
	bne	.L432
	cmp	r2, #1
	mcr	p15, 0, r0, c7, c10, 5
	bne	.L375
	ldr	r3, [r5]
	mov	r0, r5
	ldr	r3, [r3, #8]
	blx	r3
	add	r3, r5, #32
	mcr	p15, 0, r0, c7, c10, 5
	mcr	p15, 0, r0, c7, c10, 5
.L428:
	ldrex	r2, [r3]
	sub	r1, r2, #1
	strex	r0, r1, [r3]
	cmp	r0, #0
	bne	.L428
	mcr	p15, 0, r0, c7, c10, 5
.L397:
	cmp	r2, #1
	bne	.L375
	ldr	r3, [r5]
	mov	r0, r5
	ldr	r3, [r3, #12]
	blx	r3
	b	.L375
.L348:
	ldr	r2, [r3, #28]
	add	r2, r2, #1
	str	r2, [r3, #28]
	b	.L347
.L448:
	ldr	r3, [sp, #4]
	add	r6, sp, #48
	mov	r1, r3
	ldr	r3, [r3]
	mov	r0, r6
	ldr	r2, [sp]
	ldr	r3, [r3, #16]
.LEHB14:
	blx	r3
	ldr	r2, .L452+24
	ldr	r3, [sp, #48]
.LPIC42:
	add	r2, pc, r2
	mov	r1, #120
	mov	r0, r9
	bl	snprintf(PLT)
	ldr	r0, [sp, #48]
	add	r3, sp, #56
	cmp	r0, r3
	beq	.L369
	bl	_ZdlPv(PLT)
.L369:
	ldr	r2, .L452+28
	mov	ip, #4
	mov	r0, r10
	mov	r3, r9
.LPIC43:
	add	r2, pc, r2
	mov	r1, r6
	str	ip, [sp, #48]
	bl	_ZN7openpal6Logger3LogERKNS_10LogFiltersEPKcS5_(PLT)
.LEHE14:
	b	.L368
.L360:
	ldr	r3, .L452+8
	str	r10, [r10, #4]
	ldr	r6, [r5, r3]
	cmp	r6, #0
	beq	.L450
	add	r3, r4, #32
	mcr	p15, 0, r0, c7, c10, 5
.L434:
	ldrex	r2, [r3]
	add	r2, r2, #1
	strex	r1, r2, [r3]
	cmp	r1, #0
	bne	.L434
	mcr	p15, 0, r0, c7, c10, 5
	ldr	r0, [r10, #8]
	cmp	r0, #0
	beq	.L364
	add	r3, r0, #32
	mcr	p15, 0, r0, c7, c10, 5
.L429:
	ldrex	r2, [r3]
	sub	r1, r2, #1
	strex	ip, r1, [r3]
	cmp	ip, #0
	bne	.L429
	mcr	p15, 0, r0, c7, c10, 5
.L396:
	cmp	r2, #1
	beq	.L451
.L364:
	str	r4, [r10, #8]
	b	.L356
.L426:
	ldr	r3, [r4, #28]
	cmp	r3, #1
	sub	r3, r3, #1
	str	r3, [r4, #28]
	bne	.L346
	ldr	r3, [r4]
	mov	r0, r4
	ldr	r3, [r3, #8]
	blx	r3
	mcr	p15, 0, r0, c7, c10, 5
	ldr	r2, [r4, #32]
	sub	r3, r2, #1
	str	r3, [r4, #32]
	b	.L398
.L378:
	ldr	r3, [r4, #28]
	add	r3, r3, #1
	str	r3, [r4, #28]
	b	.L379
.L351:
	ldr	r3, [r10, #28]
	cmp	r3, #1
	sub	r3, r3, #1
	str	r3, [r10, #28]
	bne	.L350
	ldr	r3, [r10]
	mov	r0, r10
	ldr	r3, [r3, #8]
	blx	r3
	mcr	p15, 0, r0, c7, c10, 5
	ldr	r2, [r10, #32]
	sub	r3, r2, #1
	str	r3, [r10, #32]
	b	.L395
.L449:
	ldr	r3, [r4]
	mov	r0, r4
	ldr	r3, [r3, #8]
	blx	r3
	add	r3, r4, #32
	mcr	p15, 0, r0, c7, c10, 5
	mcr	p15, 0, r0, c7, c10, 5
.L427:
	ldrex	r2, [r3]
	sub	r1, r2, #1
	strex	r0, r1, [r3]
	cmp	r0, #0
	bne	.L427
	mcr	p15, 0, r0, c7, c10, 5
.L398:
	cmp	r2, #1
	bne	.L346
	ldr	r3, [r4]
	mov	r0, r4
	ldr	r3, [r3, #12]
	blx	r3
	b	.L346
.L447:
	ldr	r3, [r10]
	mov	r0, r10
	ldr	r3, [r3, #8]
	blx	r3
	add	r3, r10, #32
	mcr	p15, 0, r0, c7, c10, 5
	mcr	p15, 0, r0, c7, c10, 5
.L430:
	ldrex	r2, [r3]
	sub	r1, r2, #1
	strex	r0, r1, [r3]
	cmp	r0, #0
	bne	.L430
	mcr	p15, 0, r0, c7, c10, 5
.L395:
	cmp	r2, #1
	bne	.L350
	ldr	r3, [r10]
	mov	r0, r10
	ldr	r3, [r3, #12]
	blx	r3
	b	.L350
.L382:
	ldr	r3, [r5, #28]
	cmp	r3, #1
	sub	r3, r3, #1
	str	r3, [r5, #28]
	bne	.L375
	ldr	r3, [r5]
	mov	r0, r5
	ldr	r3, [r3, #8]
	blx	r3
	mcr	p15, 0, r0, c7, c10, 5
	ldr	r2, [r5, #32]
	sub	r3, r2, #1
	str	r3, [r5, #32]
	b	.L397
.L450:
	ldr	r3, [r4, #32]
	cmp	r0, #0
	add	r3, r3, #1
	str	r3, [r4, #32]
	beq	.L364
	ldr	r2, [r0, #32]
	sub	r3, r2, #1
	str	r3, [r0, #32]
	b	.L396
.L451:
	mcr	p15, 0, r0, c7, c10, 5
	ldr	r3, [r0]
	ldr	r3, [r3, #12]
	blx	r3
	b	.L364
.L400:
	ldr	r0, [sp, #76]
	cmp	r0, #0
	beq	.L373
	bl	_ZNSt16_Sp_counted_baseILN9__gnu_cxx12_Lock_policyE1EE10_M_releaseEv(PLT)
.L373:
	mov	r0, r4
	bl	_ZNSt16_Sp_counted_baseILN9__gnu_cxx12_Lock_policyE1EE10_M_releaseEv(PLT)
.LEHB15:
	bl	__cxa_end_cleanup(PLT)
.LEHE15:
.L402:
	ldr	r3, [sp, #16]
	cmp	r3, #0
	beq	.L373
	mov	r2, #3
	mov	r1, r8
	mov	r0, r8
	blx	r3
	b	.L373
.L403:
	ldr	r3, [sp, #16]
	cmp	r3, #0
	beq	.L373
	add	r1, sp, #8
	mov	r0, r1
	mov	r2, #3
	blx	r3
	b	.L373
.L399:
	b	.L373
.L401:
	ldr	r0, [sp, #76]
	cmp	r0, #0
	beq	.L358
	bl	_ZNSt16_Sp_counted_baseILN9__gnu_cxx12_Lock_policyE1EE10_M_releaseEv(PLT)
.L358:
	mov	r0, r4
	bl	_ZdlPv(PLT)
.LEHB16:
	bl	__cxa_end_cleanup(PLT)
.LEHE16:
.L453:
	.align	2
.L452:
	.word	_GLOBAL_OFFSET_TABLE_-(.LPIC41+8)
	.word	_ZTVSt23_Sp_counted_ptr_inplaceIN7asiopal13SerialChannelESaIS1_ELN9__gnu_cxx12_Lock_policyE1EE(GOT)
	.word	_ZL28__gthrw___pthread_key_createPjPFvPvE(GOT)
	.word	_ZTISt19_Sp_make_shared_tag(GOT)
	.word	_ZNSt17_Function_handlerIFvvEZN7openpal8TimerRef5StartIZN8asiodnp315SerialIOHandler7TryOpenERKNS1_12TimeDurationEEUlvE_EEbS8_RKT_EUlvE_E9_M_invokeERKSt9_Any_data-(.LPIC44+8)
	.word	_ZNSt14_Function_base13_Base_managerIZN7openpal8TimerRef5StartIZN8asiodnp315SerialIOHandler7TryOpenERKNS1_12TimeDurationEEUlvE_EEbS8_RKT_EUlvE_E10_M_managerERSt9_Any_dataRKSF_St18_Manager_operation-(.LPIC45+8)
	.word	.LC21-(.LPIC42+8)
	.word	.LC22-(.LPIC43+8)
	.personality	__gxx_personality_v0
	.handlerdata
.LLSDA7473:
	.byte	0xff
	.byte	0xff
	.byte	0x1
	.uleb128 .LLSDACSE7473-.LLSDACSB7473
.LLSDACSB7473:
	.uleb128 .LEHB8-.LFB7473
	.uleb128 .LEHE8-.LEHB8
	.uleb128 0
	.uleb128 0
	.uleb128 .LEHB9-.LFB7473
	.uleb128 .LEHE9-.LEHB9
	.uleb128 .L401-.LFB7473
	.uleb128 0
	.uleb128 .LEHB10-.LFB7473
	.uleb128 .LEHE10-.LEHB10
	.uleb128 .L399-.LFB7473
	.uleb128 0
	.uleb128 .LEHB11-.LFB7473
	.uleb128 .LEHE11-.LEHB11
	.uleb128 .L403-.LFB7473
	.uleb128 0
	.uleb128 .LEHB12-.LFB7473
	.uleb128 .LEHE12-.LEHB12
	.uleb128 .L402-.LFB7473
	.uleb128 0
	.uleb128 .LEHB13-.LFB7473
	.uleb128 .LEHE13-.LEHB13
	.uleb128 .L400-.LFB7473
	.uleb128 0
	.uleb128 .LEHB14-.LFB7473
	.uleb128 .LEHE14-.LEHB14
	.uleb128 .L399-.LFB7473
	.uleb128 0
	.uleb128 .LEHB15-.LFB7473
	.uleb128 .LEHE15-.LEHB15
	.uleb128 0
	.uleb128 0
	.uleb128 .LEHB16-.LFB7473
	.uleb128 .LEHE16-.LEHB16
	.uleb128 0
	.uleb128 0
.LLSDACSE7473:
	.text
	.fnend
	.size	_ZN8asiodnp315SerialIOHandler7TryOpenERKN7openpal12TimeDurationE, .-_ZN8asiodnp315SerialIOHandler7TryOpenERKN7openpal12TimeDurationE
	.align	2
	.global	_ZN8asiodnp315SerialIOHandler18BeginChannelAcceptEv
	.syntax unified
	.arm
	.fpu vfp
	.type	_ZN8asiodnp315SerialIOHandler18BeginChannelAcceptEv, %function
_ZN8asiodnp315SerialIOHandler18BeginChannelAcceptEv:
	.fnstart
.LFB7470:
	@ args = 0, pretend = 0, frame = 0
	@ frame_needed = 0, uses_anonymous_args = 0
	@ link register save eliminated.
	add	r1, r0, #592
	b	_ZN8asiodnp315SerialIOHandler7TryOpenERKN7openpal12TimeDurationE(PLT)
	.cantunwind
	.fnend
	.size	_ZN8asiodnp315SerialIOHandler18BeginChannelAcceptEv, .-_ZN8asiodnp315SerialIOHandler18BeginChannelAcceptEv
	.align	2
	.global	_ZN8asiodnp315SerialIOHandler17OnChannelShutdownEv
	.syntax unified
	.arm
	.fpu vfp
	.type	_ZN8asiodnp315SerialIOHandler17OnChannelShutdownEv, %function
_ZN8asiodnp315SerialIOHandler17OnChannelShutdownEv:
	.fnstart
.LFB7472:
	@ args = 0, pretend = 0, frame = 0
	@ frame_needed = 0, uses_anonymous_args = 0
	@ link register save eliminated.
	b	_ZN8asiodnp315SerialIOHandler18BeginChannelAcceptEv(PLT)
	.cantunwind
	.fnend
	.size	_ZN8asiodnp315SerialIOHandler17OnChannelShutdownEv, .-_ZN8asiodnp315SerialIOHandler17OnChannelShutdownEv
	.align	2
	.syntax unified
	.arm
	.fpu vfp
	.type	_ZNSt17_Function_handlerIFvvEZN7openpal8TimerRef5StartIZN8asiodnp315SerialIOHandler7TryOpenERKNS1_12TimeDurationEEUlvE_EEbS8_RKT_EUlvE_E9_M_invokeERKSt9_Any_data, %function
_ZNSt17_Function_handlerIFvvEZN7openpal8TimerRef5StartIZN8asiodnp315SerialIOHandler7TryOpenERKNS1_12TimeDurationEEUlvE_EEbS8_RKT_EUlvE_E9_M_invokeERKSt9_Any_data:
	.fnstart
.LFB8961:
	@ args = 0, pretend = 0, frame = 8
	@ frame_needed = 0, uses_anonymous_args = 0
	ldr	r3, [r0]
	push	{r4, r5, r6, lr}
	.save {r4, r5, r6, lr}
	mov	r2, r3
	ldr	r3, [r3]
	ldr	r5, [r2, #8]!
	mov	r1, #0
	str	r1, [r3, #4]
	ldr	r3, [r5, #608]
	.pad #8
	sub	sp, sp, #8
	add	r2, r2, #8
	ldr	ip, [r3]
	mov	r1, r3
	mov	r0, sp
	add	r3, r5, #600
	ldr	r6, [ip, #8]
	blx	r6
	mov	r1, sp
	mov	r0, r5
	bl	_ZN8asiodnp315SerialIOHandler7TryOpenERKN7openpal12TimeDurationE(PLT)
	add	sp, sp, #8
	@ sp needed
	pop	{r4, r5, r6, pc}
	.fnend
	.size	_ZNSt17_Function_handlerIFvvEZN7openpal8TimerRef5StartIZN8asiodnp315SerialIOHandler7TryOpenERKNS1_12TimeDurationEEUlvE_EEbS8_RKT_EUlvE_E9_M_invokeERKSt9_Any_data, .-_ZNSt17_Function_handlerIFvvEZN7openpal8TimerRef5StartIZN8asiodnp315SerialIOHandler7TryOpenERKNS1_12TimeDurationEEUlvE_EEbS8_RKT_EUlvE_E9_M_invokeERKSt9_Any_data
	.section	.text._ZNSt8_Rb_treeIPN8opendnp317IScheduleCallbackES2_St9_IdentityIS2_ESt4lessIS2_ESaIS2_EE8_M_eraseEPSt13_Rb_tree_nodeIS2_E,"axG",%progbits,_ZNSt8_Rb_treeIPN8opendnp317IScheduleCallbackES2_St9_IdentityIS2_ESt4lessIS2_ESaIS2_EE8_M_eraseEPSt13_Rb_tree_nodeIS2_E,comdat
	.align	2
	.weak	_ZNSt8_Rb_treeIPN8opendnp317IScheduleCallbackES2_St9_IdentityIS2_ESt4lessIS2_ESaIS2_EE8_M_eraseEPSt13_Rb_tree_nodeIS2_E
	.syntax unified
	.arm
	.fpu vfp
	.type	_ZNSt8_Rb_treeIPN8opendnp317IScheduleCallbackES2_St9_IdentityIS2_ESt4lessIS2_ESaIS2_EE8_M_eraseEPSt13_Rb_tree_nodeIS2_E, %function
_ZNSt8_Rb_treeIPN8opendnp317IScheduleCallbackES2_St9_IdentityIS2_ESt4lessIS2_ESaIS2_EE8_M_eraseEPSt13_Rb_tree_nodeIS2_E:
	.fnstart
.LFB8681:
	@ args = 0, pretend = 0, frame = 16
	@ frame_needed = 0, uses_anonymous_args = 0
	push	{r4, r5, r6, r7, r8, r9, r10, fp, lr}
	sub	sp, sp, #20
	subs	r3, r1, #0
	str	r3, [sp, #12]
	beq	.L458
	mov	r4, r0
.L462:
	ldr	r7, [r3, #12]
	cmp	r7, #0
	strne	r7, [sp, #4]
	movne	r3, r7
	beq	.L464
.L465:
	ldr	r8, [r3, #12]
	cmp	r8, #0
	strne	r8, [sp, #8]
	movne	r3, r8
	beq	.L467
.L468:
	ldr	r9, [r3, #12]
	cmp	r9, #0
	beq	.L470
.L471:
	ldr	r10, [r9, #12]
	cmp	r10, #0
	beq	.L473
.L474:
	ldr	fp, [r10, #12]
	cmp	fp, #0
	beq	.L476
.L477:
	ldr	r6, [fp, #12]
	cmp	r6, #0
	beq	.L479
.L480:
	ldr	r5, [r6, #12]
	cmp	r5, #0
	beq	.L482
.L483:
	ldr	r3, [r5, #12]
	cmp	r3, #0
	movne	r7, r3
	beq	.L484
.L485:
	ldr	r1, [r7, #12]
	mov	r0, r4
	bl	_ZNSt8_Rb_treeIPN8opendnp317IScheduleCallbackES2_St9_IdentityIS2_ESt4lessIS2_ESaIS2_EE8_M_eraseEPSt13_Rb_tree_nodeIS2_E(PLT)
	ldr	r8, [r7, #8]
	mov	r0, r7
	bl	_ZdlPv(PLT)
	subs	r7, r8, #0
	bne	.L485
.L484:
	ldr	r7, [r5, #8]
	mov	r0, r5
	bl	_ZdlPv(PLT)
	subs	r5, r7, #0
	bne	.L483
.L482:
	ldr	r5, [r6, #8]
	mov	r0, r6
	bl	_ZdlPv(PLT)
	subs	r6, r5, #0
	bne	.L480
.L479:
	ldr	r5, [fp, #8]
	mov	r0, fp
	bl	_ZdlPv(PLT)
	subs	fp, r5, #0
	bne	.L477
.L476:
	ldr	r5, [r10, #8]
	mov	r0, r10
	bl	_ZdlPv(PLT)
	subs	r10, r5, #0
	bne	.L474
.L473:
	ldr	r5, [r9, #8]
	mov	r0, r9
	bl	_ZdlPv(PLT)
	subs	r9, r5, #0
	bne	.L471
	ldr	r3, [sp, #8]
.L470:
	ldr	r5, [r3, #8]
	mov	r0, r3
	bl	_ZdlPv(PLT)
	subs	r3, r5, #0
	str	r3, [sp, #8]
	bne	.L468
	ldr	r3, [sp, #4]
.L467:
	ldr	r5, [r3, #8]
	mov	r0, r3
	bl	_ZdlPv(PLT)
	subs	r3, r5, #0
	str	r3, [sp, #4]
	bne	.L465
	ldr	r3, [sp, #12]
.L464:
	ldr	r5, [r3, #8]
	mov	r0, r3
	bl	_ZdlPv(PLT)
	subs	r3, r5, #0
	str	r3, [sp, #12]
	bne	.L462
.L458:
	add	sp, sp, #20
	@ sp needed
	pop	{r4, r5, r6, r7, r8, r9, r10, fp, pc}
	.cantunwind
	.fnend
	.size	_ZNSt8_Rb_treeIPN8opendnp317IScheduleCallbackES2_St9_IdentityIS2_ESt4lessIS2_ESaIS2_EE8_M_eraseEPSt13_Rb_tree_nodeIS2_E, .-_ZNSt8_Rb_treeIPN8opendnp317IScheduleCallbackES2_St9_IdentityIS2_ESt4lessIS2_ESaIS2_EE8_M_eraseEPSt13_Rb_tree_nodeIS2_E
	.section	.text._ZN8asiodnp39IOHandlerD2Ev,"axG",%progbits,_ZN8asiodnp39IOHandlerD5Ev,comdat
	.align	2
	.weak	_ZN8asiodnp39IOHandlerD2Ev
	.syntax unified
	.arm
	.fpu vfp
	.type	_ZN8asiodnp39IOHandlerD2Ev, %function
_ZN8asiodnp39IOHandlerD2Ev:
	.fnstart
.LFB7390:
	@ args = 0, pretend = 0, frame = 24
	@ frame_needed = 0, uses_anonymous_args = 0
	push	{r4, r5, r6, r7, r8, r9, r10, fp, lr}
	mov	r9, r0
	ldr	fp, .L706
	ldr	r3, .L706+4
.LPIC54:
	add	fp, pc, fp
	ldr	r1, .L706+8
	ldr	r3, [fp, r3]
	ldr	r0, [r0, #536]
	add	ip, r3, #8
	add	r3, r3, #52
	str	ip, [r9]
	str	r3, [r9, #4]
	ldr	r3, [fp, r1]
	cmp	r0, #0
	add	r3, r3, #8
	sub	sp, sp, #28
	str	r3, [r9, #504]
	beq	.L515
	ldr	r5, [r9, #572]
	ldr	r4, [r9, #556]
	add	r5, r5, #4
	cmp	r4, r5
	bcs	.L516
.L517:
	ldr	r0, [r4], #4
	bl	_ZdlPv(PLT)
	cmp	r5, r4
	bhi	.L517
	ldr	r0, [r9, #536]
.L516:
	bl	_ZdlPv(PLT)
.L515:
	ldr	r1, [r9, #520]
	add	r0, r9, #512
	bl	_ZNSt8_Rb_treeIPN8opendnp317IScheduleCallbackES2_St9_IdentityIS2_ESt4lessIS2_ESaIS2_EE8_M_eraseEPSt13_Rb_tree_nodeIS2_E(PLT)
	ldr	r4, [r9, #500]
	cmp	r4, #0
	beq	.L519
	ldr	r3, .L706+12
	ldr	r3, [fp, r3]
	cmp	r3, #0
	beq	.L520
	add	r3, r4, #28
	mcr	p15, 0, r0, c7, c10, 5
.L658:
	ldrex	r1, [r3]
	sub	r2, r1, #1
	strex	r0, r2, [r3]
	cmp	r0, #0
	bne	.L658
	cmp	r1, #1
	mcr	p15, 0, r0, c7, c10, 5
	beq	.L683
.L519:
	ldr	r4, [r9, #132]
	cmp	r4, #0
	beq	.L525
	ldr	r3, .L706+12
	ldr	r3, [fp, r3]
	cmp	r3, #0
	beq	.L526
	add	r3, r4, #28
	mcr	p15, 0, r0, c7, c10, 5
.L657:
	ldrex	r1, [r3]
	sub	r2, r1, #1
	strex	r0, r2, [r3]
	cmp	r0, #0
	bne	.L657
	cmp	r1, #1
	mcr	p15, 0, r0, c7, c10, 5
	beq	.L684
.L525:
	ldr	r4, [r9, #124]
	cmp	r4, #0
	beq	.L531
	ldr	r3, .L706+12
	ldr	r3, [fp, r3]
	cmp	r3, #0
	beq	.L532
	add	r3, r4, #28
	mcr	p15, 0, r0, c7, c10, 5
.L656:
	ldrex	r1, [r3]
	sub	r2, r1, #1
	strex	r0, r2, [r3]
	cmp	r0, #0
	bne	.L656
	cmp	r1, #1
	mcr	p15, 0, r0, c7, c10, 5
	beq	.L685
.L531:
	ldr	r3, [r9, #100]
	ldr	r2, [r9, #116]
	add	r8, r3, #4
	str	r3, [sp, #16]
	ldr	r3, [r9, #96]
	ldr	r6, [r9, #88]
	str	r3, [sp, #12]
	ldr	r3, [r9, #104]
	cmp	r2, r8
	strhi	r6, [sp, #20]
	str	r2, [sp, #8]
	str	r3, [sp, #4]
	ldr	r7, [r9, #108]
	movhi	r10, r2
	movhi	r6, fp
	bls	.L546
.L547:
	ldr	r4, [r8], #4
	add	fp, r4, #512
	b	.L545
.L688:
	add	r3, r5, #28
	mcr	p15, 0, r0, c7, c10, 5
.L655:
	ldrex	r2, [r3]
	sub	r1, r2, #1
	strex	r0, r1, [r3]
	cmp	r0, #0
	bne	.L655
	cmp	r2, #1
	mcr	p15, 0, r0, c7, c10, 5
	beq	.L686
.L540:
	add	r4, r4, #16
	cmp	r4, fp
	beq	.L687
.L545:
	ldr	r5, [r4, #12]
	cmp	r5, #0
	beq	.L540
	ldr	r3, .L706+12
	ldr	r3, [r6, r3]
	cmp	r3, #0
	bne	.L688
	ldr	r3, [r5, #28]
	cmp	r3, #1
	sub	r3, r3, #1
	str	r3, [r5, #28]
	bne	.L540
	ldr	r3, [r5]
	mov	r0, r5
	ldr	r3, [r3, #8]
	blx	r3
	mcr	p15, 0, r0, c7, c10, 5
	ldr	r2, [r5, #32]
	sub	r3, r2, #1
	str	r3, [r5, #32]
.L613:
	cmp	r2, #1
	bne	.L540
	ldr	r3, [r5]
	mov	r0, r5
	add	r4, r4, #16
	ldr	r3, [r3, #12]
	blx	r3
	cmp	r4, fp
	bne	.L545
.L687:
	cmp	r10, r8
	bhi	.L547
	mov	fp, r6
	ldr	r2, [sp, #8]
	ldr	r6, [sp, #20]
.L546:
	ldr	r3, [sp, #16]
	cmp	r3, r2
	beq	.L689
	ldr	r3, [sp, #12]
	cmp	r6, r3
	movne	r5, r3
	bne	.L561
	b	.L560
.L691:
	add	r3, r4, #28
	mcr	p15, 0, r0, c7, c10, 5
.L654:
	ldrex	r2, [r3]
	sub	r1, r2, #1
	strex	r0, r1, [r3]
	cmp	r0, #0
	bne	.L654
	cmp	r2, #1
	mcr	p15, 0, r0, c7, c10, 5
	beq	.L690
.L555:
	add	r6, r6, #16
	cmp	r5, r6
	beq	.L560
.L561:
	ldr	r4, [r6, #12]
	cmp	r4, #0
	beq	.L555
	ldr	r3, .L706+12
	ldr	r3, [fp, r3]
	cmp	r3, #0
	bne	.L691
	ldr	r3, [r4, #28]
	cmp	r3, #1
	sub	r3, r3, #1
	str	r3, [r4, #28]
	bne	.L555
	ldr	r3, [r4]
	mov	r0, r4
	ldr	r3, [r3, #8]
	blx	r3
	mcr	p15, 0, r0, c7, c10, 5
	ldr	r2, [r4, #32]
	sub	r3, r2, #1
	cmp	r2, #1
	str	r3, [r4, #32]
	bne	.L555
	ldr	r3, [r4]
	mov	r0, r4
	ldr	r3, [r3, #12]
	blx	r3
.L703:
	add	r6, r6, #16
	cmp	r5, r6
	bne	.L561
.L560:
	ldr	r3, [sp, #4]
	cmp	r3, r7
	movne	r5, r3
	bne	.L568
	b	.L552
.L693:
	add	r3, r4, #28
	mcr	p15, 0, r0, c7, c10, 5
.L653:
	ldrex	r2, [r3]
	sub	r1, r2, #1
	strex	r0, r1, [r3]
	cmp	r0, #0
	bne	.L653
	cmp	r2, #1
	mcr	p15, 0, r0, c7, c10, 5
	beq	.L692
.L563:
	add	r7, r7, #16
	cmp	r5, r7
	beq	.L552
.L568:
	ldr	r4, [r7, #12]
	cmp	r4, #0
	beq	.L563
	ldr	r3, .L706+12
	ldr	r3, [fp, r3]
	cmp	r3, #0
	bne	.L693
	ldr	r3, [r4, #28]
	cmp	r3, #1
	sub	r3, r3, #1
	str	r3, [r4, #28]
	bne	.L563
	ldr	r3, [r4]
	mov	r0, r4
	ldr	r3, [r3, #8]
	blx	r3
	mcr	p15, 0, r0, c7, c10, 5
	ldr	r2, [r4, #32]
	sub	r3, r2, #1
	cmp	r2, #1
	str	r3, [r4, #32]
	bne	.L563
	ldr	r3, [r4]
	mov	r0, r4
	ldr	r3, [r3, #12]
	blx	r3
.L702:
	add	r7, r7, #16
	cmp	r5, r7
	bne	.L568
.L552:
	ldr	r0, [r9, #80]
	cmp	r0, #0
	beq	.L550
	ldr	r5, [r9, #116]
	ldr	r4, [r9, #100]
	add	r5, r5, #4
	cmp	r4, r5
	bcs	.L576
.L577:
	ldr	r0, [r4], #4
	bl	_ZdlPv(PLT)
	cmp	r5, r4
	bhi	.L577
	ldr	r0, [r9, #80]
.L576:
	bl	_ZdlPv(PLT)
.L550:
	ldr	r4, [r9, #68]
	ldr	r6, [r9, #72]
	cmp	r4, r6
	bne	.L585
	b	.L578
.L696:
	add	r3, r5, #28
	mcr	p15, 0, r0, c7, c10, 5
.L651:
	ldrex	r2, [r3]
	sub	r1, r2, #1
	strex	r0, r1, [r3]
	cmp	r0, #0
	bne	.L651
	cmp	r2, #1
	mcr	p15, 0, r0, c7, c10, 5
	beq	.L694
.L580:
	add	r4, r4, #16
	cmp	r6, r4
	beq	.L695
.L585:
	ldr	r5, [r4, #12]
	cmp	r5, #0
	beq	.L580
	ldr	r3, .L706+12
	ldr	r3, [fp, r3]
	cmp	r3, #0
	bne	.L696
	ldr	r3, [r5, #28]
	cmp	r3, #1
	sub	r3, r3, #1
	str	r3, [r5, #28]
	bne	.L580
	ldr	r3, [r5]
	mov	r0, r5
	ldr	r3, [r3, #8]
	blx	r3
	mcr	p15, 0, r0, c7, c10, 5
	ldr	r3, [r5, #32]
	sub	r2, r3, #1
	cmp	r3, #1
	str	r2, [r5, #32]
	bne	.L580
	ldr	r3, [r5]
	mov	r0, r5
	ldr	r3, [r3, #12]
	blx	r3
.L701:
	add	r4, r4, #16
	cmp	r6, r4
	bne	.L585
.L695:
	ldr	r6, [r9, #68]
.L578:
	cmp	r6, #0
	beq	.L586
	mov	r0, r6
	bl	_ZdlPv(PLT)
.L586:
	ldr	r4, [r9, #36]
	cmp	r4, #0
	beq	.L588
	ldr	r3, .L706+12
	ldr	r3, [fp, r3]
	cmp	r3, #0
	beq	.L589
	add	r3, r4, #28
	mcr	p15, 0, r0, c7, c10, 5
.L650:
	ldrex	r1, [r3]
	sub	r2, r1, #1
	strex	r0, r2, [r3]
	cmp	r0, #0
	bne	.L650
	cmp	r1, #1
	mcr	p15, 0, r0, c7, c10, 5
	beq	.L697
.L588:
	ldr	r4, [r9, #28]
	cmp	r4, #0
	beq	.L594
	ldr	r3, .L706+12
	ldr	r3, [fp, r3]
	cmp	r3, #0
	beq	.L595
	add	r3, r4, #28
	mcr	p15, 0, r0, c7, c10, 5
.L649:
	ldrex	r1, [r3]
	sub	r2, r1, #1
	strex	r0, r2, [r3]
	cmp	r0, #0
	bne	.L649
	cmp	r1, #1
	mcr	p15, 0, r0, c7, c10, 5
	beq	.L698
.L594:
	ldr	r4, [r9, #20]
	cmp	r4, #0
	beq	.L600
	ldr	r3, .L706+12
	ldr	r3, [fp, r3]
	cmp	r3, #0
	beq	.L601
	add	r3, r4, #28
	mcr	p15, 0, r0, c7, c10, 5
.L648:
	ldrex	r1, [r3]
	sub	r2, r1, #1
	strex	r0, r2, [r3]
	cmp	r0, #0
	bne	.L648
	cmp	r1, #1
	mcr	p15, 0, r0, c7, c10, 5
	beq	.L699
.L600:
	ldr	r0, [r9, #12]
	cmp	r0, #0
	beq	.L623
	ldr	r3, .L706+12
	ldr	r3, [fp, r3]
	cmp	r3, #0
	beq	.L607
	add	r2, r0, #32
	mcr	p15, 0, r0, c7, c10, 5
.L647:
	ldrex	r3, [r2]
	sub	r1, r3, #1
	strex	ip, r1, [r2]
	cmp	ip, #0
	bne	.L647
	cmp	r3, #1
	mcr	p15, 0, r0, c7, c10, 5
	beq	.L700
.L623:
	mov	r0, r9
	add	sp, sp, #28
	@ sp needed
	pop	{r4, r5, r6, r7, r8, r9, r10, fp, pc}
.L686:
	ldr	r3, [r5]
	mov	r0, r5
	ldr	r3, [r3, #8]
	blx	r3
	add	r3, r5, #32
	mcr	p15, 0, r0, c7, c10, 5
	mcr	p15, 0, r0, c7, c10, 5
.L643:
	ldrex	r2, [r3]
	sub	r1, r2, #1
	strex	r0, r1, [r3]
	cmp	r0, #0
	bne	.L643
	mcr	p15, 0, r0, c7, c10, 5
	b	.L613
.L694:
	ldr	r3, [r5]
	mov	r0, r5
	ldr	r3, [r3, #8]
	blx	r3
	add	r2, r5, #32
	mcr	p15, 0, r0, c7, c10, 5
	mcr	p15, 0, r0, c7, c10, 5
.L639:
	ldrex	r3, [r2]
	sub	r1, r3, #1
	strex	r0, r1, [r2]
	cmp	r0, #0
	bne	.L639
	cmp	r3, #1
	mcr	p15, 0, r0, c7, c10, 5
	bne	.L580
	ldr	r3, [r5]
	mov	r0, r5
	ldr	r3, [r3, #12]
	blx	r3
	b	.L701
.L692:
	ldr	r3, [r4]
	mov	r0, r4
	ldr	r3, [r3, #8]
	blx	r3
	add	r3, r4, #32
	mcr	p15, 0, r0, c7, c10, 5
	mcr	p15, 0, r0, c7, c10, 5
.L641:
	ldrex	r2, [r3]
	sub	r1, r2, #1
	strex	r0, r1, [r3]
	cmp	r0, #0
	bne	.L641
	cmp	r2, #1
	mcr	p15, 0, r0, c7, c10, 5
	bne	.L563
	ldr	r3, [r4]
	mov	r0, r4
	ldr	r3, [r3, #12]
	blx	r3
	b	.L702
.L690:
	ldr	r3, [r4]
	mov	r0, r4
	ldr	r3, [r3, #8]
	blx	r3
	add	r3, r4, #32
	mcr	p15, 0, r0, c7, c10, 5
	mcr	p15, 0, r0, c7, c10, 5
.L642:
	ldrex	r2, [r3]
	sub	r1, r2, #1
	strex	r0, r1, [r3]
	cmp	r0, #0
	bne	.L642
	cmp	r2, #1
	mcr	p15, 0, r0, c7, c10, 5
	bne	.L555
	ldr	r3, [r4]
	mov	r0, r4
	ldr	r3, [r3, #12]
	blx	r3
	b	.L703
.L607:
	ldr	r3, [r0, #32]
	sub	r2, r3, #1
	cmp	r3, #1
	str	r2, [r0, #32]
	bne	.L623
.L700:
	mcr	p15, 0, r0, c7, c10, 5
	ldr	r3, [r0]
	ldr	r3, [r3, #12]
	blx	r3
	mov	r0, r9
	add	sp, sp, #28
	@ sp needed
	pop	{r4, r5, r6, r7, r8, r9, r10, fp, pc}
.L601:
	ldr	r3, [r4, #28]
	cmp	r3, #1
	sub	r3, r3, #1
	str	r3, [r4, #28]
	bne	.L600
	ldr	r3, [r4]
	mov	r0, r4
	ldr	r3, [r3, #8]
	blx	r3
	mcr	p15, 0, r0, c7, c10, 5
	ldr	r3, [r4, #32]
	sub	r1, r3, #1
	str	r1, [r4, #32]
	b	.L620
.L532:
	ldr	r3, [r4, #28]
	cmp	r3, #1
	sub	r3, r3, #1
	str	r3, [r4, #28]
	bne	.L531
	ldr	r3, [r4]
	mov	r0, r4
	ldr	r3, [r3, #8]
	blx	r3
	mcr	p15, 0, r0, c7, c10, 5
	ldr	r3, [r4, #32]
	sub	r1, r3, #1
	str	r1, [r4, #32]
	b	.L612
.L589:
	ldr	r3, [r4, #28]
	cmp	r3, #1
	sub	r3, r3, #1
	str	r3, [r4, #28]
	bne	.L588
	ldr	r3, [r4]
	mov	r0, r4
	ldr	r3, [r3, #8]
	blx	r3
	mcr	p15, 0, r0, c7, c10, 5
	ldr	r3, [r4, #32]
	sub	r1, r3, #1
	str	r1, [r4, #32]
	b	.L618
.L595:
	ldr	r3, [r4, #28]
	cmp	r3, #1
	sub	r3, r3, #1
	str	r3, [r4, #28]
	bne	.L594
	ldr	r3, [r4]
	mov	r0, r4
	ldr	r3, [r3, #8]
	blx	r3
	mcr	p15, 0, r0, c7, c10, 5
	ldr	r3, [r4, #32]
	sub	r1, r3, #1
	str	r1, [r4, #32]
	b	.L619
.L526:
	ldr	r3, [r4, #28]
	cmp	r3, #1
	sub	r3, r3, #1
	str	r3, [r4, #28]
	bne	.L525
	ldr	r3, [r4]
	mov	r0, r4
	ldr	r3, [r3, #8]
	blx	r3
	mcr	p15, 0, r0, c7, c10, 5
	ldr	r3, [r4, #32]
	sub	r1, r3, #1
	str	r1, [r4, #32]
	b	.L611
.L520:
	ldr	r3, [r4, #28]
	cmp	r3, #1
	sub	r3, r3, #1
	str	r3, [r4, #28]
	bne	.L519
	ldr	r3, [r4]
	mov	r0, r4
	ldr	r3, [r3, #8]
	blx	r3
	mcr	p15, 0, r0, c7, c10, 5
	ldr	r3, [r4, #32]
	sub	r1, r3, #1
	str	r1, [r4, #32]
	b	.L610
.L685:
	ldr	r3, [r4]
	mov	r0, r4
	ldr	r3, [r3, #8]
	blx	r3
	add	r1, r4, #32
	mcr	p15, 0, r0, c7, c10, 5
	mcr	p15, 0, r0, c7, c10, 5
.L644:
	ldrex	r3, [r1]
	sub	r2, r3, #1
	strex	r0, r2, [r1]
	cmp	r0, #0
	bne	.L644
	mcr	p15, 0, r0, c7, c10, 5
.L612:
	cmp	r3, #1
	bne	.L531
	ldr	r3, [r4]
	mov	r0, r4
	ldr	r3, [r3, #12]
	blx	r3
	b	.L531
.L697:
	ldr	r3, [r4]
	mov	r0, r4
	ldr	r3, [r3, #8]
	blx	r3
	add	r1, r4, #32
	mcr	p15, 0, r0, c7, c10, 5
	mcr	p15, 0, r0, c7, c10, 5
.L638:
	ldrex	r3, [r1]
	sub	r2, r3, #1
	strex	r0, r2, [r1]
	cmp	r0, #0
	bne	.L638
	mcr	p15, 0, r0, c7, c10, 5
.L618:
	cmp	r3, #1
	bne	.L588
	ldr	r3, [r4]
	mov	r0, r4
	ldr	r3, [r3, #12]
	blx	r3
	b	.L588
.L698:
	ldr	r3, [r4]
	mov	r0, r4
	ldr	r3, [r3, #8]
	blx	r3
	add	r1, r4, #32
	mcr	p15, 0, r0, c7, c10, 5
	mcr	p15, 0, r0, c7, c10, 5
.L637:
	ldrex	r3, [r1]
	sub	r2, r3, #1
	strex	r0, r2, [r1]
	cmp	r0, #0
	bne	.L637
	mcr	p15, 0, r0, c7, c10, 5
.L619:
	cmp	r3, #1
	bne	.L594
	ldr	r3, [r4]
	mov	r0, r4
	ldr	r3, [r3, #12]
	blx	r3
	b	.L594
.L699:
	ldr	r3, [r4]
	mov	r0, r4
	ldr	r3, [r3, #8]
	blx	r3
	add	r1, r4, #32
	mcr	p15, 0, r0, c7, c10, 5
	mcr	p15, 0, r0, c7, c10, 5
.L636:
	ldrex	r3, [r1]
	sub	r2, r3, #1
	strex	r0, r2, [r1]
	cmp	r0, #0
	bne	.L636
	mcr	p15, 0, r0, c7, c10, 5
.L620:
	cmp	r3, #1
	bne	.L600
	ldr	r3, [r4]
	mov	r0, r4
	ldr	r3, [r3, #12]
	blx	r3
	b	.L600
.L683:
	ldr	r3, [r4]
	mov	r0, r4
	ldr	r3, [r3, #8]
	blx	r3
	add	r1, r4, #32
	mcr	p15, 0, r0, c7, c10, 5
	mcr	p15, 0, r0, c7, c10, 5
.L646:
	ldrex	r3, [r1]
	sub	r2, r3, #1
	strex	r0, r2, [r1]
	cmp	r0, #0
	bne	.L646
	mcr	p15, 0, r0, c7, c10, 5
.L610:
	cmp	r3, #1
	bne	.L519
	ldr	r3, [r4]
	mov	r0, r4
	ldr	r3, [r3, #12]
	blx	r3
	b	.L519
.L684:
	ldr	r3, [r4]
	mov	r0, r4
	ldr	r3, [r3, #8]
	blx	r3
	add	r1, r4, #32
	mcr	p15, 0, r0, c7, c10, 5
	mcr	p15, 0, r0, c7, c10, 5
.L645:
	ldrex	r3, [r1]
	sub	r2, r3, #1
	strex	r0, r2, [r1]
	cmp	r0, #0
	bne	.L645
	mcr	p15, 0, r0, c7, c10, 5
.L611:
	cmp	r3, #1
	bne	.L525
	ldr	r3, [r4]
	mov	r0, r4
	ldr	r3, [r3, #12]
	blx	r3
	b	.L525
.L689:
	ldr	r3, [sp, #4]
	cmp	r6, r3
	movne	r5, r3
	bne	.L575
	b	.L552
.L705:
	add	r3, r4, #28
	mcr	p15, 0, r0, c7, c10, 5
.L652:
	ldrex	r2, [r3]
	sub	r1, r2, #1
	strex	r0, r1, [r3]
	cmp	r0, #0
	bne	.L652
	cmp	r2, #1
	mcr	p15, 0, r0, c7, c10, 5
	beq	.L704
.L570:
	add	r6, r6, #16
	cmp	r5, r6
	beq	.L552
.L575:
	ldr	r4, [r6, #12]
	cmp	r4, #0
	beq	.L570
	ldr	r3, .L706+12
	ldr	r3, [fp, r3]
	cmp	r3, #0
	bne	.L705
	ldr	r3, [r4, #28]
	cmp	r3, #1
	sub	r3, r3, #1
	str	r3, [r4, #28]
	bne	.L570
	ldr	r3, [r4]
	mov	r0, r4
	ldr	r3, [r3, #8]
	blx	r3
	mcr	p15, 0, r0, c7, c10, 5
	ldr	r3, [r4, #32]
	sub	r2, r3, #1
	str	r2, [r4, #32]
.L616:
	cmp	r3, #1
	bne	.L570
	ldr	r3, [r4]
	mov	r0, r4
	ldr	r3, [r3, #12]
	blx	r3
	b	.L570
.L704:
	ldr	r3, [r4]
	mov	r0, r4
	ldr	r3, [r3, #8]
	blx	r3
	add	r2, r4, #32
	mcr	p15, 0, r0, c7, c10, 5
	mcr	p15, 0, r0, c7, c10, 5
.L640:
	ldrex	r3, [r2]
	sub	r1, r3, #1
	strex	r0, r1, [r2]
	cmp	r0, #0
	bne	.L640
	mcr	p15, 0, r0, c7, c10, 5
	b	.L616
.L707:
	.align	2
.L706:
	.word	_GLOBAL_OFFSET_TABLE_-(.LPIC54+8)
	.word	_ZTVN8asiodnp39IOHandlerE(GOT)
	.word	_ZTVN8opendnp317MultidropTaskLockE(GOT)
	.word	_ZL28__gthrw___pthread_key_createPjPFvPvE(GOT)
	.cantunwind
	.fnend
	.size	_ZN8asiodnp39IOHandlerD2Ev, .-_ZN8asiodnp39IOHandlerD2Ev
	.set	.LTHUNK0,_ZN8asiodnp39IOHandlerD2Ev
	.align	2
	.weak	_ZThn4_N8asiodnp39IOHandlerD1Ev
	.syntax unified
	.arm
	.fpu vfp
	.type	_ZThn4_N8asiodnp39IOHandlerD1Ev, %function
_ZThn4_N8asiodnp39IOHandlerD1Ev:
	.fnstart
.LFB10103:
	@ args = 0, pretend = 0, frame = 0
	@ frame_needed = 0, uses_anonymous_args = 0
	sub	r0, r0, #4
	b	.LTHUNK0(PLT)
	.cantunwind
	.fnend
	.size	_ZThn4_N8asiodnp39IOHandlerD1Ev, .-_ZThn4_N8asiodnp39IOHandlerD1Ev
	.weak	_ZN8asiodnp39IOHandlerD1Ev
	.set	_ZN8asiodnp39IOHandlerD1Ev,_ZN8asiodnp39IOHandlerD2Ev
	.section	.text._ZN8asiodnp39IOHandlerD0Ev,"axG",%progbits,_ZN8asiodnp39IOHandlerD5Ev,comdat
	.align	2
	.weak	_ZN8asiodnp39IOHandlerD0Ev
	.syntax unified
	.arm
	.fpu vfp
	.type	_ZN8asiodnp39IOHandlerD0Ev, %function
_ZN8asiodnp39IOHandlerD0Ev:
	.fnstart
.LFB7392:
	@ args = 0, pretend = 0, frame = 0
	@ frame_needed = 0, uses_anonymous_args = 0
	push	{r4, lr}
	mov	r4, r0
	bl	_ZN8asiodnp39IOHandlerD1Ev(PLT)
	mov	r0, r4
	mov	r1, #580
	bl	_ZdlPvj(PLT)
	mov	r0, r4
	pop	{r4, pc}
	.cantunwind
	.fnend
	.size	_ZN8asiodnp39IOHandlerD0Ev, .-_ZN8asiodnp39IOHandlerD0Ev
	.set	.LTHUNK1,_ZN8asiodnp39IOHandlerD0Ev
	.align	2
	.weak	_ZThn4_N8asiodnp39IOHandlerD0Ev
	.syntax unified
	.arm
	.fpu vfp
	.type	_ZThn4_N8asiodnp39IOHandlerD0Ev, %function
_ZThn4_N8asiodnp39IOHandlerD0Ev:
	.fnstart
.LFB10104:
	@ args = 0, pretend = 0, frame = 0
	@ frame_needed = 0, uses_anonymous_args = 0
	sub	r0, r0, #4
	b	.LTHUNK1(PLT)
	.cantunwind
	.fnend
	.size	_ZThn4_N8asiodnp39IOHandlerD0Ev, .-_ZThn4_N8asiodnp39IOHandlerD0Ev
	.text
	.align	2
	.global	_ZN8asiodnp315SerialIOHandlerC2ERKN7openpal6LoggerERKSt10shared_ptrINS_16IChannelListenerEERKS5_IN7asiopal8ExecutorEERKNSA_12ChannelRetryERKNSA_14SerialSettingsE
	.syntax unified
	.arm
	.fpu vfp
	.type	_ZN8asiodnp315SerialIOHandlerC2ERKN7openpal6LoggerERKSt10shared_ptrINS_16IChannelListenerEERKS5_IN7asiopal8ExecutorEERKNSA_12ChannelRetryERKNSA_14SerialSettingsE, %function
_ZN8asiodnp315SerialIOHandlerC2ERKN7openpal6LoggerERKSt10shared_ptrINS_16IChannelListenerEERKS5_IN7asiopal8ExecutorEERKNSA_12ChannelRetryERKNSA_14SerialSettingsE:
	.fnstart
.LFB7467:
	@ args = 8, pretend = 0, frame = 8
	@ frame_needed = 0, uses_anonymous_args = 0
	push	{r4, r5, r6, r7, r8, r9, lr}
	.save {r4, r5, r6, r7, r8, r9, lr}
	.pad #12
	sub	sp, sp, #12
	ldr	r6, .L745
	mov	r4, r0
	mov	r7, r3
	ldr	r5, [sp, #44]
.LEHB17:
	bl	_ZN8asiodnp39IOHandlerC2ERKN7openpal6LoggerERKSt10shared_ptrINS_16IChannelListenerEE(PLT)
.LEHE17:
	ldr	r2, .L745+4
.LPIC55:
	add	r6, pc, r6
	ldr	r3, [r7, #4]
	ldr	r2, [r6, r2]
	ldr	r1, [r7]
	add	r0, r2, #8
	add	r2, r2, #52
	cmp	r3, #0
	stm	r4, {r0, r2}
	str	r1, [r4, #580]
	str	r3, [r4, #584]
	beq	.L711
	ldr	r2, .L745+8
	ldr	r2, [r6, r2]
	cmp	r2, #0
	beq	.L712
	add	r3, r3, #28
	mcr	p15, 0, r0, c7, c10, 5
.L736:
	ldrex	r2, [r3]
	add	r2, r2, #1
	strex	r1, r2, [r3]
	cmp	r1, #0
	bne	.L736
	mcr	p15, 0, r0, c7, c10, 5
.L711:
	ldr	ip, [sp, #40]
	add	lr, r4, #592
	ldr	r6, [r5, #4]
	ldmia	ip!, {r0, r1, r2, r3}
	add	r8, r4, #624
	stmia	lr!, {r0, r1, r2, r3}
	rsb	r3, r6, #0
	ldm	ip, {r0, r1}
	add	ip, r4, #616
	stm	lr, {r0, r1}
	str	r8, [r4, #616]
	ldr	r9, [r5]
	clz	r2, r9
	cmp	r9, r3
	lsr	r2, r2, #5
	moveq	r2, #0
	cmp	r2, #0
	beq	.L741
	ldr	r0, .L745+12
.LPIC56:
	add	r0, pc, r0
.LEHB18:
	bl	_ZSt19__throw_logic_errorPKc(PLT)
.LEHE18:
.L741:
	cmp	r6, #15
	str	r6, [sp, #4]
	bhi	.L742
	cmp	r6, #1
	beq	.L743
	cmp	r6, #0
	moveq	r3, r8
	bne	.L744
.L717:
	mov	r2, #0
	str	r6, [r4, #620]
	strb	r2, [r3, r6]
	ldrd	r2, [r5, #24]
	add	r0, r4, #640
	ldrb	lr, [r5, #32]	@ zero_extendqisi2
	ldrb	ip, [r5, #33]	@ zero_extendqisi2
	ldr	r1, [r7]
	strd	r2, [r0]
	ldrb	r0, [r5, #34]	@ zero_extendqisi2
	ldrd	r2, [r5, #40]
	strb	lr, [r4, #648]
	strb	r0, [r4, #650]
	strb	ip, [r4, #649]
	add	r0, r4, #664
	strd	r2, [r8, #32]
.LEHB19:
	bl	_ZN7openpal8TimerRefC1ERNS_9IExecutorE(PLT)
.LEHE19:
	mov	r0, r4
	add	sp, sp, #12
	@ sp needed
	pop	{r4, r5, r6, r7, r8, r9, pc}
.L712:
	ldr	r2, [r3, #28]
	add	r2, r2, #1
	str	r2, [r3, #28]
	b	.L711
.L742:
	mov	r0, ip
	add	r1, sp, #4
.LEHB20:
	bl	_ZNSt7__cxx1112basic_stringIcSt11char_traitsIcESaIcEE9_M_createERjj(PLT)
.LEHE20:
	ldr	r3, [sp, #4]
	str	r0, [r4, #616]
	str	r3, [r4, #624]
.L715:
	mov	r2, r6
	mov	r1, r9
	bl	memcpy(PLT)
	ldr	r6, [sp, #4]
	ldr	r3, [r4, #616]
	b	.L717
.L743:
	ldrb	r2, [r9]	@ zero_extendqisi2
	mov	r3, r8
	strb	r2, [r4, #624]
	b	.L717
.L725:
.L720:
	ldr	r0, [r4, #584]
	cmp	r0, #0
	beq	.L721
	bl	_ZNSt16_Sp_counted_baseILN9__gnu_cxx12_Lock_policyE1EE10_M_releaseEv(PLT)
.L721:
	mov	r0, r4
	bl	_ZN8asiodnp39IOHandlerD2Ev(PLT)
.LEHB21:
	bl	__cxa_end_cleanup(PLT)
.LEHE21:
.L744:
	mov	r0, r8
	b	.L715
.L726:
	ldr	r0, [r4, #616]
	cmp	r0, r8
	beq	.L720
	bl	_ZdlPv(PLT)
	b	.L720
.L746:
	.align	2
.L745:
	.word	_GLOBAL_OFFSET_TABLE_-(.LPIC55+8)
	.word	_ZTVN8asiodnp315SerialIOHandlerE(GOT)
	.word	_ZL28__gthrw___pthread_key_createPjPFvPvE(GOT)
	.word	.LC5-(.LPIC56+8)
	.personality	__gxx_personality_v0
	.handlerdata
.LLSDA7467:
	.byte	0xff
	.byte	0xff
	.byte	0x1
	.uleb128 .LLSDACSE7467-.LLSDACSB7467
.LLSDACSB7467:
	.uleb128 .LEHB17-.LFB7467
	.uleb128 .LEHE17-.LEHB17
	.uleb128 0
	.uleb128 0
	.uleb128 .LEHB18-.LFB7467
	.uleb128 .LEHE18-.LEHB18
	.uleb128 .L725-.LFB7467
	.uleb128 0
	.uleb128 .LEHB19-.LFB7467
	.uleb128 .LEHE19-.LEHB19
	.uleb128 .L726-.LFB7467
	.uleb128 0
	.uleb128 .LEHB20-.LFB7467
	.uleb128 .LEHE20-.LEHB20
	.uleb128 .L725-.LFB7467
	.uleb128 0
	.uleb128 .LEHB21-.LFB7467
	.uleb128 .LEHE21-.LEHB21
	.uleb128 0
	.uleb128 0
.LLSDACSE7467:
	.text
	.fnend
	.size	_ZN8asiodnp315SerialIOHandlerC2ERKN7openpal6LoggerERKSt10shared_ptrINS_16IChannelListenerEERKS5_IN7asiopal8ExecutorEERKNSA_12ChannelRetryERKNSA_14SerialSettingsE, .-_ZN8asiodnp315SerialIOHandlerC2ERKN7openpal6LoggerERKSt10shared_ptrINS_16IChannelListenerEERKS5_IN7asiopal8ExecutorEERKNSA_12ChannelRetryERKNSA_14SerialSettingsE
	.global	_ZN8asiodnp315SerialIOHandlerC1ERKN7openpal6LoggerERKSt10shared_ptrINS_16IChannelListenerEERKS5_IN7asiopal8ExecutorEERKNSA_12ChannelRetryERKNSA_14SerialSettingsE
	.set	_ZN8asiodnp315SerialIOHandlerC1ERKN7openpal6LoggerERKSt10shared_ptrINS_16IChannelListenerEERKS5_IN7asiopal8ExecutorEERKNSA_12ChannelRetryERKNSA_14SerialSettingsE,_ZN8asiodnp315SerialIOHandlerC2ERKN7openpal6LoggerERKSt10shared_ptrINS_16IChannelListenerEERKS5_IN7asiopal8ExecutorEERKNSA_12ChannelRetryERKNSA_14SerialSettingsE
	.section	.text._ZN8asiodnp315SerialIOHandlerD2Ev,"axG",%progbits,_ZN8asiodnp315SerialIOHandlerD5Ev,comdat
	.align	2
	.weak	_ZN8asiodnp315SerialIOHandlerD2Ev
	.syntax unified
	.arm
	.fpu vfp
	.type	_ZN8asiodnp315SerialIOHandlerD2Ev, %function
_ZN8asiodnp315SerialIOHandlerD2Ev:
	.fnstart
.LFB9775:
	@ args = 0, pretend = 0, frame = 0
	@ frame_needed = 0, uses_anonymous_args = 0
	push	{r4, r5, r6, lr}
	mov	r4, r0
	ldr	r5, .L763
	ldr	r3, .L763+4
.LPIC57:
	add	r5, pc, r5
	add	r0, r0, #664
	ldr	r3, [r5, r3]
	add	r2, r3, #8
	add	r3, r3, #52
	stm	r4, {r2, r3}
	bl	_ZN7openpal8TimerRefD1Ev(PLT)
	ldr	r0, [r4, #616]
	add	r3, r4, #624
	cmp	r0, r3
	beq	.L748
	bl	_ZdlPv(PLT)
.L748:
	ldr	r6, [r4, #584]
	cmp	r6, #0
	beq	.L750
	ldr	r3, .L763+8
	ldr	r3, [r5, r3]
	cmp	r3, #0
	beq	.L751
	add	r3, r6, #28
	mcr	p15, 0, r0, c7, c10, 5
.L758:
	ldrex	r2, [r3]
	sub	r1, r2, #1
	strex	r0, r1, [r3]
	cmp	r0, #0
	bne	.L758
	cmp	r2, #1
	mcr	p15, 0, r0, c7, c10, 5
	beq	.L762
.L750:
	mov	r0, r4
	bl	_ZN8asiodnp39IOHandlerD2Ev(PLT)
	mov	r0, r4
	pop	{r4, r5, r6, pc}
.L751:
	ldr	r3, [r6, #28]
	cmp	r3, #1
	sub	r3, r3, #1
	str	r3, [r6, #28]
	bne	.L750
	ldr	r3, [r6]
	mov	r0, r6
	ldr	r3, [r3, #8]
	blx	r3
	mcr	p15, 0, r0, c7, c10, 5
	ldr	r2, [r6, #32]
	sub	r3, r2, #1
	str	r3, [r6, #32]
	b	.L755
.L762:
	ldr	r3, [r6]
	mov	r0, r6
	ldr	r3, [r3, #8]
	blx	r3
	add	r3, r6, #32
	mcr	p15, 0, r0, c7, c10, 5
	mcr	p15, 0, r0, c7, c10, 5
.L757:
	ldrex	r2, [r3]
	sub	r1, r2, #1
	strex	r0, r1, [r3]
	cmp	r0, #0
	bne	.L757
	mcr	p15, 0, r0, c7, c10, 5
.L755:
	cmp	r2, #1
	bne	.L750
	ldr	r3, [r6]
	mov	r0, r6
	ldr	r3, [r3, #12]
	blx	r3
	b	.L750
.L764:
	.align	2
.L763:
	.word	_GLOBAL_OFFSET_TABLE_-(.LPIC57+8)
	.word	_ZTVN8asiodnp315SerialIOHandlerE(GOT)
	.word	_ZL28__gthrw___pthread_key_createPjPFvPvE(GOT)
	.cantunwind
	.fnend
	.size	_ZN8asiodnp315SerialIOHandlerD2Ev, .-_ZN8asiodnp315SerialIOHandlerD2Ev
	.weak	_ZN8asiodnp315SerialIOHandlerD1Ev
	.set	_ZN8asiodnp315SerialIOHandlerD1Ev,_ZN8asiodnp315SerialIOHandlerD2Ev
	.set	.LTHUNK2,_ZN8asiodnp315SerialIOHandlerD1Ev
	.align	2
	.weak	_ZThn4_N8asiodnp315SerialIOHandlerD1Ev
	.syntax unified
	.arm
	.fpu vfp
	.type	_ZThn4_N8asiodnp315SerialIOHandlerD1Ev, %function
_ZThn4_N8asiodnp315SerialIOHandlerD1Ev:
	.fnstart
.LFB10106:
	@ args = 0, pretend = 0, frame = 0
	@ frame_needed = 0, uses_anonymous_args = 0
	sub	r0, r0, #4
	b	.LTHUNK2(PLT)
	.cantunwind
	.fnend
	.size	_ZThn4_N8asiodnp315SerialIOHandlerD1Ev, .-_ZThn4_N8asiodnp315SerialIOHandlerD1Ev
	.section	.text._ZN8asiodnp315SerialIOHandlerD0Ev,"axG",%progbits,_ZN8asiodnp315SerialIOHandlerD5Ev,comdat
	.align	2
	.weak	_ZN8asiodnp315SerialIOHandlerD0Ev
	.syntax unified
	.arm
	.fpu vfp
	.type	_ZN8asiodnp315SerialIOHandlerD0Ev, %function
_ZN8asiodnp315SerialIOHandlerD0Ev:
	.fnstart
.LFB9777:
	@ args = 0, pretend = 0, frame = 0
	@ frame_needed = 0, uses_anonymous_args = 0
	push	{r4, r5, r6, lr}
	mov	r4, r0
	ldr	r5, .L781
	ldr	r3, .L781+4
.LPIC58:
	add	r5, pc, r5
	add	r0, r0, #664
	ldr	r3, [r5, r3]
	add	r2, r3, #8
	add	r3, r3, #52
	stm	r4, {r2, r3}
	bl	_ZN7openpal8TimerRefD1Ev(PLT)
	ldr	r0, [r4, #616]
	add	r3, r4, #624
	cmp	r0, r3
	beq	.L766
	bl	_ZdlPv(PLT)
.L766:
	ldr	r6, [r4, #584]
	cmp	r6, #0
	beq	.L768
	ldr	r3, .L781+8
	ldr	r3, [r5, r3]
	cmp	r3, #0
	beq	.L769
	add	r3, r6, #28
	mcr	p15, 0, r0, c7, c10, 5
.L776:
	ldrex	r2, [r3]
	sub	r1, r2, #1
	strex	r0, r1, [r3]
	cmp	r0, #0
	bne	.L776
	cmp	r2, #1
	mcr	p15, 0, r0, c7, c10, 5
	beq	.L780
.L768:
	mov	r0, r4
	bl	_ZN8asiodnp39IOHandlerD2Ev(PLT)
	mov	r0, r4
	mov	r1, #672
	bl	_ZdlPvj(PLT)
	mov	r0, r4
	pop	{r4, r5, r6, pc}
.L769:
	ldr	r3, [r6, #28]
	cmp	r3, #1
	sub	r3, r3, #1
	str	r3, [r6, #28]
	bne	.L768
	ldr	r3, [r6]
	mov	r0, r6
	ldr	r3, [r3, #8]
	blx	r3
	mcr	p15, 0, r0, c7, c10, 5
	ldr	r2, [r6, #32]
	sub	r3, r2, #1
	str	r3, [r6, #32]
	b	.L773
.L780:
	ldr	r3, [r6]
	mov	r0, r6
	ldr	r3, [r3, #8]
	blx	r3
	add	r3, r6, #32
	mcr	p15, 0, r0, c7, c10, 5
	mcr	p15, 0, r0, c7, c10, 5
.L775:
	ldrex	r2, [r3]
	sub	r1, r2, #1
	strex	r0, r1, [r3]
	cmp	r0, #0
	bne	.L775
	mcr	p15, 0, r0, c7, c10, 5
.L773:
	cmp	r2, #1
	bne	.L768
	ldr	r3, [r6]
	mov	r0, r6
	ldr	r3, [r3, #12]
	blx	r3
	b	.L768
.L782:
	.align	2
.L781:
	.word	_GLOBAL_OFFSET_TABLE_-(.LPIC58+8)
	.word	_ZTVN8asiodnp315SerialIOHandlerE(GOT)
	.word	_ZL28__gthrw___pthread_key_createPjPFvPvE(GOT)
	.cantunwind
	.fnend
	.size	_ZN8asiodnp315SerialIOHandlerD0Ev, .-_ZN8asiodnp315SerialIOHandlerD0Ev
	.set	.LTHUNK3,_ZN8asiodnp315SerialIOHandlerD0Ev
	.align	2
	.weak	_ZThn4_N8asiodnp315SerialIOHandlerD0Ev
	.syntax unified
	.arm
	.fpu vfp
	.type	_ZThn4_N8asiodnp315SerialIOHandlerD0Ev, %function
_ZThn4_N8asiodnp315SerialIOHandlerD0Ev:
	.fnstart
.LFB10107:
	@ args = 0, pretend = 0, frame = 0
	@ frame_needed = 0, uses_anonymous_args = 0
	sub	r0, r0, #4
	b	.LTHUNK3(PLT)
	.cantunwind
	.fnend
	.size	_ZThn4_N8asiodnp315SerialIOHandlerD0Ev, .-_ZThn4_N8asiodnp315SerialIOHandlerD0Ev
	.section	.text.startup,"ax",%progbits
	.align	2
	.syntax unified
	.arm
	.fpu vfp
	.type	_GLOBAL__sub_I_SerialIOHandler.cpp, %function
_GLOBAL__sub_I_SerialIOHandler.cpp:
	.fnstart
.LFB9976:
	@ args = 0, pretend = 0, frame = 0
	@ frame_needed = 0, uses_anonymous_args = 0
	push	{r4, r5, r6, lr}
	ldr	r4, .L822
	ldr	r3, .L822+4
.LPIC59:
	add	r4, pc, r4
	ldr	r5, [r4, r3]
	ldrb	r3, [r5]	@ zero_extendqisi2
	mcr	p15, 0, r0, c7, c10, 5
	tst	r3, #1
	beq	.L814
.L785:
	ldr	r3, .L822+8
	ldr	r5, [r4, r3]
	ldrb	r3, [r5]	@ zero_extendqisi2
	mcr	p15, 0, r0, c7, c10, 5
	tst	r3, #1
	beq	.L815
.L788:
	ldr	r3, .L822+12
	ldr	r5, [r4, r3]
	ldrb	r3, [r5]	@ zero_extendqisi2
	mcr	p15, 0, r0, c7, c10, 5
	tst	r3, #1
	beq	.L816
.L791:
	ldr	r3, .L822+16
	ldr	r5, [r4, r3]
	ldrb	r3, [r5]	@ zero_extendqisi2
	mcr	p15, 0, r0, c7, c10, 5
	tst	r3, #1
	beq	.L817
.L794:
	ldr	r3, .L822+20
	ldr	r3, [r4, r3]
	ldr	r2, [r3]
	tst	r2, #1
	beq	.L818
.L796:
	ldr	r3, .L822+24
	ldr	r3, [r4, r3]
	ldr	r2, [r3]
	tst	r2, #1
	beq	.L819
.L797:
	ldr	r3, .L822+28
	ldr	r3, [r4, r3]
	ldr	r2, [r3]
	tst	r2, #1
	beq	.L820
.L798:
	ldr	r3, .L822+32
	ldr	r3, [r4, r3]
	ldr	r2, [r3]
	tst	r2, #1
	beq	.L821
.L799:
	ldr	r3, .L822+36
	ldr	r3, [r4, r3]
	ldr	r2, [r3]
	tst	r2, #1
	popne	{r4, r5, r6, pc}
	ldr	r2, .L822+40
	mov	r0, #1
	ldr	r1, .L822+44
	str	r0, [r3]
	ldr	r0, [r4, r2]
	ldr	r2, .L822+48
	ldr	r1, [r4, r1]
.LPIC68:
	add	r2, pc, r2
	pop	{r4, r5, r6, lr}
	b	__aeabi_atexit(PLT)
.L817:
	mov	r0, r5
	bl	__cxa_guard_acquire(PLT)
	cmp	r0, #0
	beq	.L794
	mov	r0, r5
	bl	__cxa_guard_release(PLT)
	ldr	r3, .L822+52
	ldr	r1, .L822+56
	ldr	r2, .L822+60
	ldr	r0, [r4, r3]
.LPIC63:
	add	r2, pc, r2
	ldr	r1, [r4, r1]
	bl	__aeabi_atexit(PLT)
	b	.L794
.L816:
	mov	r0, r5
	bl	__cxa_guard_acquire(PLT)
	cmp	r0, #0
	beq	.L791
	mov	r0, r5
	bl	__cxa_guard_release(PLT)
	ldr	r3, .L822+64
	ldr	r1, .L822+68
	ldr	r2, .L822+72
	ldr	r0, [r4, r3]
.LPIC62:
	add	r2, pc, r2
	ldr	r1, [r4, r1]
	bl	__aeabi_atexit(PLT)
	b	.L791
.L815:
	mov	r0, r5
	bl	__cxa_guard_acquire(PLT)
	cmp	r0, #0
	beq	.L788
	mov	r0, r5
	bl	__cxa_guard_release(PLT)
	ldr	r3, .L822+76
	ldr	r1, .L822+80
	ldr	r2, .L822+84
	ldr	r0, [r4, r3]
.LPIC61:
	add	r2, pc, r2
	ldr	r1, [r4, r1]
	bl	__aeabi_atexit(PLT)
	b	.L788
.L814:
	mov	r0, r5
	bl	__cxa_guard_acquire(PLT)
	cmp	r0, #0
	beq	.L785
	mov	r0, r5
	bl	__cxa_guard_release(PLT)
	ldr	r3, .L822+88
	ldr	r1, .L822+92
	ldr	r2, .L822+96
	ldr	r0, [r4, r3]
.LPIC60:
	add	r2, pc, r2
	ldr	r1, [r4, r1]
	bl	__aeabi_atexit(PLT)
	b	.L785
.L821:
	ldr	r2, .L822+100
	mov	r1, #1
	str	r1, [r3]
	ldr	r5, [r4, r2]
	mov	r0, r5
	bl	_ZN4asio6detail20posix_tss_ptr_createERj(PLT)
	ldr	r3, .L822+104
	ldr	r2, .L822+108
	mov	r0, r5
.LPIC67:
	add	r2, pc, r2
	ldr	r1, [r4, r3]
	bl	__aeabi_atexit(PLT)
	b	.L799
.L820:
	ldr	r2, .L822+112
	mov	r0, #1
	ldr	r1, .L822+116
	str	r0, [r3]
	ldr	r0, [r4, r2]
	ldr	r2, .L822+120
	ldr	r1, [r4, r1]
.LPIC66:
	add	r2, pc, r2
	bl	__aeabi_atexit(PLT)
	b	.L798
.L819:
	ldr	r2, .L822+124
	mov	r0, #1
	ldr	r1, .L822+128
	str	r0, [r3]
	ldr	r0, [r4, r2]
	ldr	r2, .L822+132
	ldr	r1, [r4, r1]
.LPIC65:
	add	r2, pc, r2
	bl	__aeabi_atexit(PLT)
	b	.L797
.L818:
	ldr	r2, .L822+136
	mov	r1, #1
	str	r1, [r3]
	ldr	r5, [r4, r2]
	mov	r0, r5
	bl	_ZN4asio6detail20posix_tss_ptr_createERj(PLT)
	ldr	r3, .L822+140
	ldr	r2, .L822+144
	mov	r0, r5
.LPIC64:
	add	r2, pc, r2
	ldr	r1, [r4, r3]
	bl	__aeabi_atexit(PLT)
	b	.L796
.L823:
	.align	2
.L822:
	.word	_GLOBAL_OFFSET_TABLE_-(.LPIC59+8)
	.word	_ZGVZN4asio15system_categoryEvE8instance(GOT)
	.word	_ZGVZN4asio5error18get_netdb_categoryEvE8instance(GOT)
	.word	_ZGVZN4asio5error21get_addrinfo_categoryEvE8instance(GOT)
	.word	_ZGVZN4asio5error17get_misc_categoryEvE8instance(GOT)
	.word	_ZGVN4asio6detail10call_stackINS0_15task_io_serviceENS0_27task_io_service_thread_infoEE4top_E(GOT)
	.word	_ZGVN4asio6detail12service_baseINS0_13epoll_reactorEE2idE(GOT)
	.word	_ZGVN4asio6detail12service_baseINS0_15task_io_serviceEE2idE(GOT)
	.word	_ZGVN4asio6detail10call_stackINS0_14strand_service11strand_implEhE4top_E(GOT)
	.word	_ZGVN4asio6detail12service_baseINS0_14strand_serviceEE2idE(GOT)
	.word	_ZN4asio6detail12service_baseINS0_14strand_serviceEE2idE(GOT)
	.word	_ZN4asio6detail10service_idINS0_14strand_serviceEED1Ev(GOT)
	.word	__dso_handle-(.LPIC68+8)
	.word	_ZZN4asio5error17get_misc_categoryEvE8instance(GOT)
	.word	_ZN4asio5error6detail13misc_categoryD1Ev(GOT)
	.word	__dso_handle-(.LPIC63+8)
	.word	_ZZN4asio5error21get_addrinfo_categoryEvE8instance(GOT)
	.word	_ZN4asio5error6detail17addrinfo_categoryD1Ev(GOT)
	.word	__dso_handle-(.LPIC62+8)
	.word	_ZZN4asio5error18get_netdb_categoryEvE8instance(GOT)
	.word	_ZN4asio5error6detail14netdb_categoryD1Ev(GOT)
	.word	__dso_handle-(.LPIC61+8)
	.word	_ZZN4asio15system_categoryEvE8instance(GOT)
	.word	_ZN4asio6detail15system_categoryD1Ev(GOT)
	.word	__dso_handle-(.LPIC60+8)
	.word	_ZN4asio6detail10call_stackINS0_14strand_service11strand_implEhE4top_E(GOT)
	.word	_ZN4asio6detail7tss_ptrINS0_10call_stackINS0_14strand_service11strand_implEhE7contextEED1Ev(GOT)
	.word	__dso_handle-(.LPIC67+8)
	.word	_ZN4asio6detail12service_baseINS0_15task_io_serviceEE2idE(GOT)
	.word	_ZN4asio6detail10service_idINS0_15task_io_serviceEED1Ev(GOT)
	.word	__dso_handle-(.LPIC66+8)
	.word	_ZN4asio6detail12service_baseINS0_13epoll_reactorEE2idE(GOT)
	.word	_ZN4asio6detail10service_idINS0_13epoll_reactorEED1Ev(GOT)
	.word	__dso_handle-(.LPIC65+8)
	.word	_ZN4asio6detail10call_stackINS0_15task_io_serviceENS0_27task_io_service_thread_infoEE4top_E(GOT)
	.word	_ZN4asio6detail7tss_ptrINS0_10call_stackINS0_15task_io_serviceENS0_27task_io_service_thread_infoEE7contextEED1Ev(GOT)
	.word	__dso_handle-(.LPIC64+8)
	.cantunwind
	.fnend
	.size	_GLOBAL__sub_I_SerialIOHandler.cpp, .-_GLOBAL__sub_I_SerialIOHandler.cpp
	.section	.init_array,"aw"
	.align	2
	.word	_GLOBAL__sub_I_SerialIOHandler.cpp
	.weak	_ZTSN9__gnu_cxx7__mutexE
	.section	.rodata._ZTSN9__gnu_cxx7__mutexE,"aG",%progbits,_ZTSN9__gnu_cxx7__mutexE,comdat
	.align	2
	.type	_ZTSN9__gnu_cxx7__mutexE, %object
	.size	_ZTSN9__gnu_cxx7__mutexE, 21
_ZTSN9__gnu_cxx7__mutexE:
	.ascii	"N9__gnu_cxx7__mutexE\000"
	.weak	_ZTIN9__gnu_cxx7__mutexE
	.section	.data.rel.ro._ZTIN9__gnu_cxx7__mutexE,"awG",%progbits,_ZTIN9__gnu_cxx7__mutexE,comdat
	.align	2
	.type	_ZTIN9__gnu_cxx7__mutexE, %object
	.size	_ZTIN9__gnu_cxx7__mutexE, 8
_ZTIN9__gnu_cxx7__mutexE:
	.word	_ZTVN10__cxxabiv117__class_type_infoE+8
	.word	_ZTSN9__gnu_cxx7__mutexE
	.weak	_ZTSSt11_Mutex_baseILN9__gnu_cxx12_Lock_policyE1EE
	.section	.rodata._ZTSSt11_Mutex_baseILN9__gnu_cxx12_Lock_policyE1EE,"aG",%progbits,_ZTSSt11_Mutex_baseILN9__gnu_cxx12_Lock_policyE1EE,comdat
	.align	2
	.type	_ZTSSt11_Mutex_baseILN9__gnu_cxx12_Lock_policyE1EE, %object
	.size	_ZTSSt11_Mutex_baseILN9__gnu_cxx12_Lock_policyE1EE, 47
_ZTSSt11_Mutex_baseILN9__gnu_cxx12_Lock_policyE1EE:
	.ascii	"St11_Mutex_baseILN9__gnu_cxx12_Lock_policyE1EE\000"
	.weak	_ZTISt11_Mutex_baseILN9__gnu_cxx12_Lock_policyE1EE
	.section	.data.rel.ro._ZTISt11_Mutex_baseILN9__gnu_cxx12_Lock_policyE1EE,"awG",%progbits,_ZTISt11_Mutex_baseILN9__gnu_cxx12_Lock_policyE1EE,comdat
	.align	2
	.type	_ZTISt11_Mutex_baseILN9__gnu_cxx12_Lock_policyE1EE, %object
	.size	_ZTISt11_Mutex_baseILN9__gnu_cxx12_Lock_policyE1EE, 12
_ZTISt11_Mutex_baseILN9__gnu_cxx12_Lock_policyE1EE:
	.word	_ZTVN10__cxxabiv120__si_class_type_infoE+8
	.word	_ZTSSt11_Mutex_baseILN9__gnu_cxx12_Lock_policyE1EE
	.word	_ZTIN9__gnu_cxx7__mutexE
	.weak	_ZTSN7openpal10UncopyableE
	.section	.rodata._ZTSN7openpal10UncopyableE,"aG",%progbits,_ZTSN7openpal10UncopyableE,comdat
	.align	2
	.type	_ZTSN7openpal10UncopyableE, %object
	.size	_ZTSN7openpal10UncopyableE, 23
_ZTSN7openpal10UncopyableE:
	.ascii	"N7openpal10UncopyableE\000"
	.weak	_ZTIN7openpal10UncopyableE
	.section	.data.rel.ro._ZTIN7openpal10UncopyableE,"awG",%progbits,_ZTIN7openpal10UncopyableE,comdat
	.align	2
	.type	_ZTIN7openpal10UncopyableE, %object
	.size	_ZTIN7openpal10UncopyableE, 8
_ZTIN7openpal10UncopyableE:
	.word	_ZTVN10__cxxabiv117__class_type_infoE+8
	.word	_ZTSN7openpal10UncopyableE
	.weak	_ZTSSt23enable_shared_from_thisIN7asiopal13IAsyncChannelEE
	.section	.rodata._ZTSSt23enable_shared_from_thisIN7asiopal13IAsyncChannelEE,"aG",%progbits,_ZTSSt23enable_shared_from_thisIN7asiopal13IAsyncChannelEE,comdat
	.align	2
	.type	_ZTSSt23enable_shared_from_thisIN7asiopal13IAsyncChannelEE, %object
	.size	_ZTSSt23enable_shared_from_thisIN7asiopal13IAsyncChannelEE, 55
_ZTSSt23enable_shared_from_thisIN7asiopal13IAsyncChannelEE:
	.ascii	"St23enable_shared_from_thisIN7asiopal13IAsyncChanne"
	.ascii	"lEE\000"
	.weak	_ZTISt23enable_shared_from_thisIN7asiopal13IAsyncChannelEE
	.section	.data.rel.ro._ZTISt23enable_shared_from_thisIN7asiopal13IAsyncChannelEE,"awG",%progbits,_ZTISt23enable_shared_from_thisIN7asiopal13IAsyncChannelEE,comdat
	.align	2
	.type	_ZTISt23enable_shared_from_thisIN7asiopal13IAsyncChannelEE, %object
	.size	_ZTISt23enable_shared_from_thisIN7asiopal13IAsyncChannelEE, 8
_ZTISt23enable_shared_from_thisIN7asiopal13IAsyncChannelEE:
	.word	_ZTVN10__cxxabiv117__class_type_infoE+8
	.word	_ZTSSt23enable_shared_from_thisIN7asiopal13IAsyncChannelEE
	.weak	_ZGVN4asio6detail12service_baseINS0_14strand_serviceEE2idE
	.section	.bss._ZGVN4asio6detail12service_baseINS0_14strand_serviceEE2idE,"awG",%nobits,_ZGVN4asio6detail12service_baseINS0_14strand_serviceEE2idE,comdat
	.align	2
	.type	_ZGVN4asio6detail12service_baseINS0_14strand_serviceEE2idE, %gnu_unique_object
	.size	_ZGVN4asio6detail12service_baseINS0_14strand_serviceEE2idE, 4
_ZGVN4asio6detail12service_baseINS0_14strand_serviceEE2idE:
	.space	4
	.weak	_ZGVN4asio6detail10call_stackINS0_14strand_service11strand_implEhE4top_E
	.section	.bss._ZGVN4asio6detail10call_stackINS0_14strand_service11strand_implEhE4top_E,"awG",%nobits,_ZGVN4asio6detail10call_stackINS0_14strand_service11strand_implEhE4top_E,comdat
	.align	2
	.type	_ZGVN4asio6detail10call_stackINS0_14strand_service11strand_implEhE4top_E, %gnu_unique_object
	.size	_ZGVN4asio6detail10call_stackINS0_14strand_service11strand_implEhE4top_E, 4
_ZGVN4asio6detail10call_stackINS0_14strand_service11strand_implEhE4top_E:
	.space	4
	.weak	_ZGVN4asio6detail12service_baseINS0_15task_io_serviceEE2idE
	.section	.bss._ZGVN4asio6detail12service_baseINS0_15task_io_serviceEE2idE,"awG",%nobits,_ZGVN4asio6detail12service_baseINS0_15task_io_serviceEE2idE,comdat
	.align	2
	.type	_ZGVN4asio6detail12service_baseINS0_15task_io_serviceEE2idE, %gnu_unique_object
	.size	_ZGVN4asio6detail12service_baseINS0_15task_io_serviceEE2idE, 4
_ZGVN4asio6detail12service_baseINS0_15task_io_serviceEE2idE:
	.space	4
	.weak	_ZGVN4asio6detail12service_baseINS0_13epoll_reactorEE2idE
	.section	.bss._ZGVN4asio6detail12service_baseINS0_13epoll_reactorEE2idE,"awG",%nobits,_ZGVN4asio6detail12service_baseINS0_13epoll_reactorEE2idE,comdat
	.align	2
	.type	_ZGVN4asio6detail12service_baseINS0_13epoll_reactorEE2idE, %gnu_unique_object
	.size	_ZGVN4asio6detail12service_baseINS0_13epoll_reactorEE2idE, 4
_ZGVN4asio6detail12service_baseINS0_13epoll_reactorEE2idE:
	.space	4
	.weak	_ZGVN4asio6detail10call_stackINS0_15task_io_serviceENS0_27task_io_service_thread_infoEE4top_E
	.section	.bss._ZGVN4asio6detail10call_stackINS0_15task_io_serviceENS0_27task_io_service_thread_infoEE4top_E,"awG",%nobits,_ZGVN4asio6detail10call_stackINS0_15task_io_serviceENS0_27task_io_service_thread_infoEE4top_E,comdat
	.align	2
	.type	_ZGVN4asio6detail10call_stackINS0_15task_io_serviceENS0_27task_io_service_thread_infoEE4top_E, %gnu_unique_object
	.size	_ZGVN4asio6detail10call_stackINS0_15task_io_serviceENS0_27task_io_service_thread_infoEE4top_E, 4
_ZGVN4asio6detail10call_stackINS0_15task_io_serviceENS0_27task_io_service_thread_infoEE4top_E:
	.space	4
	.weak	_ZN4asio6detail12service_baseINS0_14strand_serviceEE2idE
	.section	.bss._ZN4asio6detail12service_baseINS0_14strand_serviceEE2idE,"awG",%nobits,_ZN4asio6detail12service_baseINS0_14strand_serviceEE2idE,comdat
	.align	2
	.type	_ZN4asio6detail12service_baseINS0_14strand_serviceEE2idE, %gnu_unique_object
	.size	_ZN4asio6detail12service_baseINS0_14strand_serviceEE2idE, 1
_ZN4asio6detail12service_baseINS0_14strand_serviceEE2idE:
	.space	1
	.weak	_ZN4asio6detail10call_stackINS0_14strand_service11strand_implEhE4top_E
	.section	.bss._ZN4asio6detail10call_stackINS0_14strand_service11strand_implEhE4top_E,"awG",%nobits,_ZN4asio6detail10call_stackINS0_14strand_service11strand_implEhE4top_E,comdat
	.align	2
	.type	_ZN4asio6detail10call_stackINS0_14strand_service11strand_implEhE4top_E, %gnu_unique_object
	.size	_ZN4asio6detail10call_stackINS0_14strand_service11strand_implEhE4top_E, 4
_ZN4asio6detail10call_stackINS0_14strand_service11strand_implEhE4top_E:
	.space	4
	.weak	_ZN4asio6detail12service_baseINS0_15task_io_serviceEE2idE
	.section	.bss._ZN4asio6detail12service_baseINS0_15task_io_serviceEE2idE,"awG",%nobits,_ZN4asio6detail12service_baseINS0_15task_io_serviceEE2idE,comdat
	.align	2
	.type	_ZN4asio6detail12service_baseINS0_15task_io_serviceEE2idE, %gnu_unique_object
	.size	_ZN4asio6detail12service_baseINS0_15task_io_serviceEE2idE, 1
_ZN4asio6detail12service_baseINS0_15task_io_serviceEE2idE:
	.space	1
	.weak	_ZN4asio6detail12service_baseINS0_13epoll_reactorEE2idE
	.section	.bss._ZN4asio6detail12service_baseINS0_13epoll_reactorEE2idE,"awG",%nobits,_ZN4asio6detail12service_baseINS0_13epoll_reactorEE2idE,comdat
	.align	2
	.type	_ZN4asio6detail12service_baseINS0_13epoll_reactorEE2idE, %gnu_unique_object
	.size	_ZN4asio6detail12service_baseINS0_13epoll_reactorEE2idE, 1
_ZN4asio6detail12service_baseINS0_13epoll_reactorEE2idE:
	.space	1
	.weak	_ZN4asio6detail10call_stackINS0_15task_io_serviceENS0_27task_io_service_thread_infoEE4top_E
	.section	.bss._ZN4asio6detail10call_stackINS0_15task_io_serviceENS0_27task_io_service_thread_infoEE4top_E,"awG",%nobits,_ZN4asio6detail10call_stackINS0_15task_io_serviceENS0_27task_io_service_thread_infoEE4top_E,comdat
	.align	2
	.type	_ZN4asio6detail10call_stackINS0_15task_io_serviceENS0_27task_io_service_thread_infoEE4top_E, %gnu_unique_object
	.size	_ZN4asio6detail10call_stackINS0_15task_io_serviceENS0_27task_io_service_thread_infoEE4top_E, 4
_ZN4asio6detail10call_stackINS0_15task_io_serviceENS0_27task_io_service_thread_infoEE4top_E:
	.space	4
	.weak	_ZTSSt16_Sp_counted_baseILN9__gnu_cxx12_Lock_policyE1EE
	.section	.rodata._ZTSSt16_Sp_counted_baseILN9__gnu_cxx12_Lock_policyE1EE,"aG",%progbits,_ZTSSt16_Sp_counted_baseILN9__gnu_cxx12_Lock_policyE1EE,comdat
	.align	2
	.type	_ZTSSt16_Sp_counted_baseILN9__gnu_cxx12_Lock_policyE1EE, %object
	.size	_ZTSSt16_Sp_counted_baseILN9__gnu_cxx12_Lock_policyE1EE, 52
_ZTSSt16_Sp_counted_baseILN9__gnu_cxx12_Lock_policyE1EE:
	.ascii	"St16_Sp_counted_baseILN9__gnu_cxx12_Lock_policyE1EE"
	.ascii	"\000"
	.weak	_ZTISt16_Sp_counted_baseILN9__gnu_cxx12_Lock_policyE1EE
	.section	.data.rel.ro._ZTISt16_Sp_counted_baseILN9__gnu_cxx12_Lock_policyE1EE,"awG",%progbits,_ZTISt16_Sp_counted_baseILN9__gnu_cxx12_Lock_policyE1EE,comdat
	.align	2
	.type	_ZTISt16_Sp_counted_baseILN9__gnu_cxx12_Lock_policyE1EE, %object
	.size	_ZTISt16_Sp_counted_baseILN9__gnu_cxx12_Lock_policyE1EE, 24
_ZTISt16_Sp_counted_baseILN9__gnu_cxx12_Lock_policyE1EE:
	.word	_ZTVN10__cxxabiv121__vmi_class_type_infoE+8
	.word	_ZTSSt16_Sp_counted_baseILN9__gnu_cxx12_Lock_policyE1EE
	.word	0
	.word	1
	.word	_ZTISt11_Mutex_baseILN9__gnu_cxx12_Lock_policyE1EE
	.word	1026
	.weak	_ZTSN4asio6detail15system_categoryE
	.section	.rodata._ZTSN4asio6detail15system_categoryE,"aG",%progbits,_ZTSN4asio6detail15system_categoryE,comdat
	.align	2
	.type	_ZTSN4asio6detail15system_categoryE, %object
	.size	_ZTSN4asio6detail15system_categoryE, 32
_ZTSN4asio6detail15system_categoryE:
	.ascii	"N4asio6detail15system_categoryE\000"
	.weak	_ZTIN4asio6detail15system_categoryE
	.section	.data.rel.ro._ZTIN4asio6detail15system_categoryE,"awG",%progbits,_ZTIN4asio6detail15system_categoryE,comdat
	.align	2
	.type	_ZTIN4asio6detail15system_categoryE, %object
	.size	_ZTIN4asio6detail15system_categoryE, 12
_ZTIN4asio6detail15system_categoryE:
	.word	_ZTVN10__cxxabiv120__si_class_type_infoE+8
	.word	_ZTSN4asio6detail15system_categoryE
	.word	_ZTINSt3_V214error_categoryE
	.weak	_ZTSN4asio5error6detail14netdb_categoryE
	.section	.rodata._ZTSN4asio5error6detail14netdb_categoryE,"aG",%progbits,_ZTSN4asio5error6detail14netdb_categoryE,comdat
	.align	2
	.type	_ZTSN4asio5error6detail14netdb_categoryE, %object
	.size	_ZTSN4asio5error6detail14netdb_categoryE, 37
_ZTSN4asio5error6detail14netdb_categoryE:
	.ascii	"N4asio5error6detail14netdb_categoryE\000"
	.weak	_ZTIN4asio5error6detail14netdb_categoryE
	.section	.data.rel.ro._ZTIN4asio5error6detail14netdb_categoryE,"awG",%progbits,_ZTIN4asio5error6detail14netdb_categoryE,comdat
	.align	2
	.type	_ZTIN4asio5error6detail14netdb_categoryE, %object
	.size	_ZTIN4asio5error6detail14netdb_categoryE, 12
_ZTIN4asio5error6detail14netdb_categoryE:
	.word	_ZTVN10__cxxabiv120__si_class_type_infoE+8
	.word	_ZTSN4asio5error6detail14netdb_categoryE
	.word	_ZTINSt3_V214error_categoryE
	.weak	_ZTSN4asio5error6detail17addrinfo_categoryE
	.section	.rodata._ZTSN4asio5error6detail17addrinfo_categoryE,"aG",%progbits,_ZTSN4asio5error6detail17addrinfo_categoryE,comdat
	.align	2
	.type	_ZTSN4asio5error6detail17addrinfo_categoryE, %object
	.size	_ZTSN4asio5error6detail17addrinfo_categoryE, 40
_ZTSN4asio5error6detail17addrinfo_categoryE:
	.ascii	"N4asio5error6detail17addrinfo_categoryE\000"
	.weak	_ZTIN4asio5error6detail17addrinfo_categoryE
	.section	.data.rel.ro._ZTIN4asio5error6detail17addrinfo_categoryE,"awG",%progbits,_ZTIN4asio5error6detail17addrinfo_categoryE,comdat
	.align	2
	.type	_ZTIN4asio5error6detail17addrinfo_categoryE, %object
	.size	_ZTIN4asio5error6detail17addrinfo_categoryE, 12
_ZTIN4asio5error6detail17addrinfo_categoryE:
	.word	_ZTVN10__cxxabiv120__si_class_type_infoE+8
	.word	_ZTSN4asio5error6detail17addrinfo_categoryE
	.word	_ZTINSt3_V214error_categoryE
	.weak	_ZTSN4asio5error6detail13misc_categoryE
	.section	.rodata._ZTSN4asio5error6detail13misc_categoryE,"aG",%progbits,_ZTSN4asio5error6detail13misc_categoryE,comdat
	.align	2
	.type	_ZTSN4asio5error6detail13misc_categoryE, %object
	.size	_ZTSN4asio5error6detail13misc_categoryE, 36
_ZTSN4asio5error6detail13misc_categoryE:
	.ascii	"N4asio5error6detail13misc_categoryE\000"
	.weak	_ZTIN4asio5error6detail13misc_categoryE
	.section	.data.rel.ro._ZTIN4asio5error6detail13misc_categoryE,"awG",%progbits,_ZTIN4asio5error6detail13misc_categoryE,comdat
	.align	2
	.type	_ZTIN4asio5error6detail13misc_categoryE, %object
	.size	_ZTIN4asio5error6detail13misc_categoryE, 12
_ZTIN4asio5error6detail13misc_categoryE:
	.word	_ZTVN10__cxxabiv120__si_class_type_infoE+8
	.word	_ZTSN4asio5error6detail13misc_categoryE
	.word	_ZTINSt3_V214error_categoryE
	.weak	_ZTSN7asiopal13IAsyncChannelE
	.section	.rodata._ZTSN7asiopal13IAsyncChannelE,"aG",%progbits,_ZTSN7asiopal13IAsyncChannelE,comdat
	.align	2
	.type	_ZTSN7asiopal13IAsyncChannelE, %object
	.size	_ZTSN7asiopal13IAsyncChannelE, 26
_ZTSN7asiopal13IAsyncChannelE:
	.ascii	"N7asiopal13IAsyncChannelE\000"
	.weak	_ZTIN7asiopal13IAsyncChannelE
	.section	.data.rel.ro._ZTIN7asiopal13IAsyncChannelE,"awG",%progbits,_ZTIN7asiopal13IAsyncChannelE,comdat
	.align	2
	.type	_ZTIN7asiopal13IAsyncChannelE, %object
	.size	_ZTIN7asiopal13IAsyncChannelE, 32
_ZTIN7asiopal13IAsyncChannelE:
	.word	_ZTVN10__cxxabiv121__vmi_class_type_infoE+8
	.word	_ZTSN7asiopal13IAsyncChannelE
	.word	0
	.word	2
	.word	_ZTISt23enable_shared_from_thisIN7asiopal13IAsyncChannelEE
	.word	1026
	.word	_ZTIN7openpal10UncopyableE
	.word	0
	.global	_ZTSN8asiodnp315SerialIOHandlerE
	.global	_ZTIN8asiodnp315SerialIOHandlerE
	.weak	_ZTSSt19_Sp_make_shared_tag
	.section	.rodata._ZTSSt19_Sp_make_shared_tag,"aG",%progbits,_ZTSSt19_Sp_make_shared_tag,comdat
	.align	2
	.type	_ZTSSt19_Sp_make_shared_tag, %object
	.size	_ZTSSt19_Sp_make_shared_tag, 24
_ZTSSt19_Sp_make_shared_tag:
	.ascii	"St19_Sp_make_shared_tag\000"
	.weak	_ZTISt19_Sp_make_shared_tag
	.section	.data.rel.ro._ZTISt19_Sp_make_shared_tag,"awG",%progbits,_ZTISt19_Sp_make_shared_tag,comdat
	.align	2
	.type	_ZTISt19_Sp_make_shared_tag, %object
	.size	_ZTISt19_Sp_make_shared_tag, 8
_ZTISt19_Sp_make_shared_tag:
	.word	_ZTVN10__cxxabiv117__class_type_infoE+8
	.word	_ZTSSt19_Sp_make_shared_tag
	.weak	_ZTSSt23_Sp_counted_ptr_inplaceIN7asiopal13SerialChannelESaIS1_ELN9__gnu_cxx12_Lock_policyE1EE
	.section	.rodata._ZTSSt23_Sp_counted_ptr_inplaceIN7asiopal13SerialChannelESaIS1_ELN9__gnu_cxx12_Lock_policyE1EE,"aG",%progbits,_ZTSSt23_Sp_counted_ptr_inplaceIN7asiopal13SerialChannelESaIS1_ELN9__gnu_cxx12_Lock_policyE1EE,comdat
	.align	2
	.type	_ZTSSt23_Sp_counted_ptr_inplaceIN7asiopal13SerialChannelESaIS1_ELN9__gnu_cxx12_Lock_policyE1EE, %object
	.size	_ZTSSt23_Sp_counted_ptr_inplaceIN7asiopal13SerialChannelESaIS1_ELN9__gnu_cxx12_Lock_policyE1EE, 91
_ZTSSt23_Sp_counted_ptr_inplaceIN7asiopal13SerialChannelESaIS1_ELN9__gnu_cxx12_Lock_policyE1EE:
	.ascii	"St23_Sp_counted_ptr_inplaceIN7asiopal13SerialChanne"
	.ascii	"lESaIS1_ELN9__gnu_cxx12_Lock_policyE1EE\000"
	.weak	_ZTISt23_Sp_counted_ptr_inplaceIN7asiopal13SerialChannelESaIS1_ELN9__gnu_cxx12_Lock_policyE1EE
	.section	.data.rel.ro._ZTISt23_Sp_counted_ptr_inplaceIN7asiopal13SerialChannelESaIS1_ELN9__gnu_cxx12_Lock_policyE1EE,"awG",%progbits,_ZTISt23_Sp_counted_ptr_inplaceIN7asiopal13SerialChannelESaIS1_ELN9__gnu_cxx12_Lock_policyE1EE,comdat
	.align	2
	.type	_ZTISt23_Sp_counted_ptr_inplaceIN7asiopal13SerialChannelESaIS1_ELN9__gnu_cxx12_Lock_policyE1EE, %object
	.size	_ZTISt23_Sp_counted_ptr_inplaceIN7asiopal13SerialChannelESaIS1_ELN9__gnu_cxx12_Lock_policyE1EE, 12
_ZTISt23_Sp_counted_ptr_inplaceIN7asiopal13SerialChannelESaIS1_ELN9__gnu_cxx12_Lock_policyE1EE:
	.word	_ZTVN10__cxxabiv120__si_class_type_infoE+8
	.word	_ZTSSt23_Sp_counted_ptr_inplaceIN7asiopal13SerialChannelESaIS1_ELN9__gnu_cxx12_Lock_policyE1EE
	.word	_ZTISt16_Sp_counted_baseILN9__gnu_cxx12_Lock_policyE1EE
	.weak	_ZTVN4asio6detail15system_categoryE
	.section	.data.rel.ro._ZTVN4asio6detail15system_categoryE,"awG",%progbits,_ZTVN4asio6detail15system_categoryE,comdat
	.align	2
	.type	_ZTVN4asio6detail15system_categoryE, %object
	.size	_ZTVN4asio6detail15system_categoryE, 40
_ZTVN4asio6detail15system_categoryE:
	.word	0
	.word	_ZTIN4asio6detail15system_categoryE
	.word	_ZN4asio6detail15system_categoryD1Ev
	.word	_ZN4asio6detail15system_categoryD0Ev
	.word	_ZNK4asio6detail15system_category4nameEv
	.word	_ZNKSt3_V214error_category10_M_messageB5cxx11Ei
	.word	_ZNK4asio6detail15system_category7messageB5cxx11Ei
	.word	_ZNKSt3_V214error_category23default_error_conditionEi
	.word	_ZNKSt3_V214error_category10equivalentEiRKSt15error_condition
	.word	_ZNKSt3_V214error_category10equivalentERKSt10error_codei
	.weak	_ZTVN4asio5error6detail14netdb_categoryE
	.section	.data.rel.ro._ZTVN4asio5error6detail14netdb_categoryE,"awG",%progbits,_ZTVN4asio5error6detail14netdb_categoryE,comdat
	.align	2
	.type	_ZTVN4asio5error6detail14netdb_categoryE, %object
	.size	_ZTVN4asio5error6detail14netdb_categoryE, 40
_ZTVN4asio5error6detail14netdb_categoryE:
	.word	0
	.word	_ZTIN4asio5error6detail14netdb_categoryE
	.word	_ZN4asio5error6detail14netdb_categoryD1Ev
	.word	_ZN4asio5error6detail14netdb_categoryD0Ev
	.word	_ZNK4asio5error6detail14netdb_category4nameEv
	.word	_ZNKSt3_V214error_category10_M_messageB5cxx11Ei
	.word	_ZNK4asio5error6detail14netdb_category7messageB5cxx11Ei
	.word	_ZNKSt3_V214error_category23default_error_conditionEi
	.word	_ZNKSt3_V214error_category10equivalentEiRKSt15error_condition
	.word	_ZNKSt3_V214error_category10equivalentERKSt10error_codei
	.weak	_ZTVN4asio5error6detail17addrinfo_categoryE
	.section	.data.rel.ro._ZTVN4asio5error6detail17addrinfo_categoryE,"awG",%progbits,_ZTVN4asio5error6detail17addrinfo_categoryE,comdat
	.align	2
	.type	_ZTVN4asio5error6detail17addrinfo_categoryE, %object
	.size	_ZTVN4asio5error6detail17addrinfo_categoryE, 40
_ZTVN4asio5error6detail17addrinfo_categoryE:
	.word	0
	.word	_ZTIN4asio5error6detail17addrinfo_categoryE
	.word	_ZN4asio5error6detail17addrinfo_categoryD1Ev
	.word	_ZN4asio5error6detail17addrinfo_categoryD0Ev
	.word	_ZNK4asio5error6detail17addrinfo_category4nameEv
	.word	_ZNKSt3_V214error_category10_M_messageB5cxx11Ei
	.word	_ZNK4asio5error6detail17addrinfo_category7messageB5cxx11Ei
	.word	_ZNKSt3_V214error_category23default_error_conditionEi
	.word	_ZNKSt3_V214error_category10equivalentEiRKSt15error_condition
	.word	_ZNKSt3_V214error_category10equivalentERKSt10error_codei
	.weak	_ZTVN4asio5error6detail13misc_categoryE
	.section	.data.rel.ro._ZTVN4asio5error6detail13misc_categoryE,"awG",%progbits,_ZTVN4asio5error6detail13misc_categoryE,comdat
	.align	2
	.type	_ZTVN4asio5error6detail13misc_categoryE, %object
	.size	_ZTVN4asio5error6detail13misc_categoryE, 40
_ZTVN4asio5error6detail13misc_categoryE:
	.word	0
	.word	_ZTIN4asio5error6detail13misc_categoryE
	.word	_ZN4asio5error6detail13misc_categoryD1Ev
	.word	_ZN4asio5error6detail13misc_categoryD0Ev
	.word	_ZNK4asio5error6detail13misc_category4nameEv
	.word	_ZNKSt3_V214error_category10_M_messageB5cxx11Ei
	.word	_ZNK4asio5error6detail13misc_category7messageB5cxx11Ei
	.word	_ZNKSt3_V214error_category23default_error_conditionEi
	.word	_ZNKSt3_V214error_category10equivalentEiRKSt15error_condition
	.word	_ZNKSt3_V214error_category10equivalentERKSt10error_codei
	.weak	_ZTVN7asiopal13IAsyncChannelE
	.section	.data.rel.ro._ZTVN7asiopal13IAsyncChannelE,"awG",%progbits,_ZTVN7asiopal13IAsyncChannelE,comdat
	.align	2
	.type	_ZTVN7asiopal13IAsyncChannelE, %object
	.size	_ZTVN7asiopal13IAsyncChannelE, 28
_ZTVN7asiopal13IAsyncChannelE:
	.word	0
	.word	_ZTIN7asiopal13IAsyncChannelE
	.word	0
	.word	0
	.word	__cxa_pure_virtual
	.word	__cxa_pure_virtual
	.word	__cxa_pure_virtual
	.global	_ZTVN8asiodnp315SerialIOHandlerE
	.weak	_ZTVSt23_Sp_counted_ptr_inplaceIN7asiopal13SerialChannelESaIS1_ELN9__gnu_cxx12_Lock_policyE1EE
	.section	.data.rel.ro._ZTVSt23_Sp_counted_ptr_inplaceIN7asiopal13SerialChannelESaIS1_ELN9__gnu_cxx12_Lock_policyE1EE,"awG",%progbits,_ZTVSt23_Sp_counted_ptr_inplaceIN7asiopal13SerialChannelESaIS1_ELN9__gnu_cxx12_Lock_policyE1EE,comdat
	.align	2
	.type	_ZTVSt23_Sp_counted_ptr_inplaceIN7asiopal13SerialChannelESaIS1_ELN9__gnu_cxx12_Lock_policyE1EE, %object
	.size	_ZTVSt23_Sp_counted_ptr_inplaceIN7asiopal13SerialChannelESaIS1_ELN9__gnu_cxx12_Lock_policyE1EE, 28
_ZTVSt23_Sp_counted_ptr_inplaceIN7asiopal13SerialChannelESaIS1_ELN9__gnu_cxx12_Lock_policyE1EE:
	.word	0
	.word	_ZTISt23_Sp_counted_ptr_inplaceIN7asiopal13SerialChannelESaIS1_ELN9__gnu_cxx12_Lock_policyE1EE
	.word	_ZNSt23_Sp_counted_ptr_inplaceIN7asiopal13SerialChannelESaIS1_ELN9__gnu_cxx12_Lock_policyE1EED1Ev
	.word	_ZNSt23_Sp_counted_ptr_inplaceIN7asiopal13SerialChannelESaIS1_ELN9__gnu_cxx12_Lock_policyE1EED0Ev
	.word	_ZNSt23_Sp_counted_ptr_inplaceIN7asiopal13SerialChannelESaIS1_ELN9__gnu_cxx12_Lock_policyE1EE10_M_disposeEv
	.word	_ZNSt23_Sp_counted_ptr_inplaceIN7asiopal13SerialChannelESaIS1_ELN9__gnu_cxx12_Lock_policyE1EE10_M_destroyEv
	.word	_ZNSt23_Sp_counted_ptr_inplaceIN7asiopal13SerialChannelESaIS1_ELN9__gnu_cxx12_Lock_policyE1EE14_M_get_deleterERKSt9type_info
	.weak	_ZGVZN4asio5error17get_misc_categoryEvE8instance
	.section	.bss._ZGVZN4asio5error17get_misc_categoryEvE8instance,"awG",%nobits,_ZGVZN4asio5error17get_misc_categoryEvE8instance,comdat
	.align	2
	.type	_ZGVZN4asio5error17get_misc_categoryEvE8instance, %gnu_unique_object
	.size	_ZGVZN4asio5error17get_misc_categoryEvE8instance, 4
_ZGVZN4asio5error17get_misc_categoryEvE8instance:
	.space	4
	.weak	_ZZN4asio5error17get_misc_categoryEvE8instance
	.section	.data.rel._ZZN4asio5error17get_misc_categoryEvE8instance,"awG",%progbits,_ZZN4asio5error17get_misc_categoryEvE8instance,comdat
	.align	2
	.type	_ZZN4asio5error17get_misc_categoryEvE8instance, %gnu_unique_object
	.size	_ZZN4asio5error17get_misc_categoryEvE8instance, 4
_ZZN4asio5error17get_misc_categoryEvE8instance:
	.word	_ZTVN4asio5error6detail13misc_categoryE+8
	.weak	_ZGVZN4asio5error21get_addrinfo_categoryEvE8instance
	.section	.bss._ZGVZN4asio5error21get_addrinfo_categoryEvE8instance,"awG",%nobits,_ZGVZN4asio5error21get_addrinfo_categoryEvE8instance,comdat
	.align	2
	.type	_ZGVZN4asio5error21get_addrinfo_categoryEvE8instance, %gnu_unique_object
	.size	_ZGVZN4asio5error21get_addrinfo_categoryEvE8instance, 4
_ZGVZN4asio5error21get_addrinfo_categoryEvE8instance:
	.space	4
	.weak	_ZZN4asio5error21get_addrinfo_categoryEvE8instance
	.section	.data.rel._ZZN4asio5error21get_addrinfo_categoryEvE8instance,"awG",%progbits,_ZZN4asio5error21get_addrinfo_categoryEvE8instance,comdat
	.align	2
	.type	_ZZN4asio5error21get_addrinfo_categoryEvE8instance, %gnu_unique_object
	.size	_ZZN4asio5error21get_addrinfo_categoryEvE8instance, 4
_ZZN4asio5error21get_addrinfo_categoryEvE8instance:
	.word	_ZTVN4asio5error6detail17addrinfo_categoryE+8
	.weak	_ZGVZN4asio5error18get_netdb_categoryEvE8instance
	.section	.bss._ZGVZN4asio5error18get_netdb_categoryEvE8instance,"awG",%nobits,_ZGVZN4asio5error18get_netdb_categoryEvE8instance,comdat
	.align	2
	.type	_ZGVZN4asio5error18get_netdb_categoryEvE8instance, %gnu_unique_object
	.size	_ZGVZN4asio5error18get_netdb_categoryEvE8instance, 4
_ZGVZN4asio5error18get_netdb_categoryEvE8instance:
	.space	4
	.weak	_ZZN4asio5error18get_netdb_categoryEvE8instance
	.section	.data.rel._ZZN4asio5error18get_netdb_categoryEvE8instance,"awG",%progbits,_ZZN4asio5error18get_netdb_categoryEvE8instance,comdat
	.align	2
	.type	_ZZN4asio5error18get_netdb_categoryEvE8instance, %gnu_unique_object
	.size	_ZZN4asio5error18get_netdb_categoryEvE8instance, 4
_ZZN4asio5error18get_netdb_categoryEvE8instance:
	.word	_ZTVN4asio5error6detail14netdb_categoryE+8
	.weak	_ZGVZN4asio15system_categoryEvE8instance
	.section	.bss._ZGVZN4asio15system_categoryEvE8instance,"awG",%nobits,_ZGVZN4asio15system_categoryEvE8instance,comdat
	.align	2
	.type	_ZGVZN4asio15system_categoryEvE8instance, %gnu_unique_object
	.size	_ZGVZN4asio15system_categoryEvE8instance, 4
_ZGVZN4asio15system_categoryEvE8instance:
	.space	4
	.weak	_ZZN4asio15system_categoryEvE8instance
	.section	.data.rel._ZZN4asio15system_categoryEvE8instance,"awG",%progbits,_ZZN4asio15system_categoryEvE8instance,comdat
	.align	2
	.type	_ZZN4asio15system_categoryEvE8instance, %gnu_unique_object
	.size	_ZZN4asio15system_categoryEvE8instance, 4
_ZZN4asio15system_categoryEvE8instance:
	.word	_ZTVN4asio6detail15system_categoryE+8
	.weakref	_ZL28__gthrw___pthread_key_createPjPFvPvE,__pthread_key_create
	.section	.rodata
	.align	2
	.type	_ZTSN8asiodnp315SerialIOHandlerE, %object
	.size	_ZTSN8asiodnp315SerialIOHandlerE, 29
_ZTSN8asiodnp315SerialIOHandlerE:
	.ascii	"N8asiodnp315SerialIOHandlerE\000"
	.space	3
	.type	_ZTSZN7openpal8TimerRef5StartIZN8asiodnp315SerialIOHandler7TryOpenERKNS_12TimeDurationEEUlvE_EEbS6_RKT_EUlvE_, %object
	.size	_ZTSZN7openpal8TimerRef5StartIZN8asiodnp315SerialIOHandler7TryOpenERKNS_12TimeDurationEEUlvE_EEbS6_RKT_EUlvE_, 107
_ZTSZN7openpal8TimerRef5StartIZN8asiodnp315SerialIOHandler7TryOpenERKNS_12TimeDurationEEUlvE_EEbS6_RKT_EUlvE_:
	.ascii	"*ZN7openpal8TimerRef5StartIZN8asiodnp315SerialIOHan"
	.ascii	"dler7TryOpenERKNS_12TimeDurationEEUlvE_EEbS6_RKT_EU"
	.ascii	"lvE_\000"
	.section	.data.rel.ro,"aw",%progbits
	.align	2
	.set	.LANCHOR0,. + 0
	.type	_ZTIZN7openpal8TimerRef5StartIZN8asiodnp315SerialIOHandler7TryOpenERKNS_12TimeDurationEEUlvE_EEbS6_RKT_EUlvE_, %object
	.size	_ZTIZN7openpal8TimerRef5StartIZN8asiodnp315SerialIOHandler7TryOpenERKNS_12TimeDurationEEUlvE_EEbS6_RKT_EUlvE_, 8
_ZTIZN7openpal8TimerRef5StartIZN8asiodnp315SerialIOHandler7TryOpenERKNS_12TimeDurationEEUlvE_EEbS6_RKT_EUlvE_:
	.word	_ZTVN10__cxxabiv117__class_type_infoE+8
	.word	_ZTSZN7openpal8TimerRef5StartIZN8asiodnp315SerialIOHandler7TryOpenERKNS_12TimeDurationEEUlvE_EEbS6_RKT_EUlvE_
	.type	_ZTIN8asiodnp315SerialIOHandlerE, %object
	.size	_ZTIN8asiodnp315SerialIOHandlerE, 12
_ZTIN8asiodnp315SerialIOHandlerE:
	.word	_ZTVN10__cxxabiv120__si_class_type_infoE+8
	.word	_ZTSN8asiodnp315SerialIOHandlerE
	.word	_ZTIN8asiodnp39IOHandlerE
	.type	_ZTVN8asiodnp315SerialIOHandlerE, %object
	.size	_ZTVN8asiodnp315SerialIOHandlerE, 68
_ZTVN8asiodnp315SerialIOHandlerE:
	.word	0
	.word	_ZTIN8asiodnp315SerialIOHandlerE
	.word	_ZN8asiodnp315SerialIOHandlerD1Ev
	.word	_ZN8asiodnp315SerialIOHandlerD0Ev
	.word	_ZN8asiodnp39IOHandler7OnFrameERKN8opendnp316LinkHeaderFieldsERKN7openpal6RSliceE
	.word	_ZN8asiodnp39IOHandler14OnReadCompleteERKSt10error_codej
	.word	_ZN8asiodnp39IOHandler15OnWriteCompleteERKSt10error_codej
	.word	_ZN8asiodnp315SerialIOHandler18BeginChannelAcceptEv
	.word	_ZN8asiodnp315SerialIOHandler20SuspendChannelAcceptEv
	.word	_ZN8asiodnp315SerialIOHandler12ShutdownImplEv
	.word	_ZN8asiodnp315SerialIOHandler17OnChannelShutdownEv
	.word	-4
	.word	_ZTIN8asiodnp315SerialIOHandlerE
	.word	_ZThn4_N8asiodnp315SerialIOHandlerD1Ev
	.word	_ZThn4_N8asiodnp315SerialIOHandlerD0Ev
	.word	_ZThn4_N8asiodnp39IOHandler14OnReadCompleteERKSt10error_codej
	.word	_ZThn4_N8asiodnp39IOHandler15OnWriteCompleteERKSt10error_codej
	.section	.rodata._ZN4asio6detail20posix_tss_ptr_createERj.str1.4,"aMS",%progbits,1
	.align	2
.LC20:
	.ascii	"tss\000"
	.section	.rodata._ZNK4asio5error6detail13misc_category4nameEv.str1.4,"aMS",%progbits,1
	.align	2
.LC3:
	.ascii	"asio.misc\000"
	.section	.rodata._ZNK4asio5error6detail13misc_category7messageB5cxx11Ei.str1.4,"aMS",%progbits,1
	.align	2
.LC9:
	.ascii	"Already open\000"
	.space	3
.LC10:
	.ascii	"End of file\000"
.LC11:
	.ascii	"Element not found\000"
	.space	2
.LC12:
	.ascii	"The descriptor does not fit into the select call's "
	.ascii	"fd_set\000"
	.space	2
.LC13:
	.ascii	"asio.misc error\000"
	.section	.rodata._ZNK4asio5error6detail14netdb_category4nameEv.str1.4,"aMS",%progbits,1
	.align	2
.LC1:
	.ascii	"asio.netdb\000"
	.section	.rodata._ZNK4asio5error6detail14netdb_category7messageB5cxx11Ei.str1.4,"aMS",%progbits,1
	.align	2
.LC14:
	.ascii	"Host not found (authoritative)\000"
	.space	1
.LC15:
	.ascii	"Host not found (non-authoritative), try again later"
	.ascii	"\000"
.LC16:
	.ascii	"The query is valid, but it does not have associated"
	.ascii	" data\000"
	.space	3
.LC17:
	.ascii	"A non-recoverable error occurred during database lo"
	.ascii	"okup\000"
.LC18:
	.ascii	"asio.netdb error\000"
	.section	.rodata._ZNK4asio5error6detail17addrinfo_category4nameEv.str1.4,"aMS",%progbits,1
	.align	2
.LC2:
	.ascii	"asio.addrinfo\000"
	.section	.rodata._ZNK4asio5error6detail17addrinfo_category7messageB5cxx11Ei.str1.4,"aMS",%progbits,1
	.align	2
.LC6:
	.ascii	"Service not found\000"
	.space	2
.LC7:
	.ascii	"Socket type not supported\000"
	.space	2
.LC8:
	.ascii	"asio.addrinfo error\000"
	.section	.rodata._ZNK4asio6detail15system_category4nameEv.str1.4,"aMS",%progbits,1
	.align	2
.LC0:
	.ascii	"asio.system\000"
	.section	.rodata._ZNK4asio6detail15system_category7messageB5cxx11Ei.str1.4,"aMS",%progbits,1
	.align	2
.LC4:
	.ascii	"Operation aborted.\000"
	.space	1
.LC5:
	.ascii	"basic_string::_M_construct null not valid\000"
	.section	.rodata._ZNSt12system_errorC2ESt10error_codePKc.str1.4,"aMS",%progbits,1
	.align	2
.LC19:
	.ascii	": \000"
	.section	.rodata.str1.4,"aMS",%progbits,1
	.align	2
.LC21:
	.ascii	"Error Connecting: %s\000"
	.space	3
.LC22:
	.ascii	"/home/pi/OpenPLC_v3/utils/dnp3_src/cpp/libs/src/asi"
	.ascii	"odnp3/SerialIOHandler.cpp(73)\000"
	.hidden	__dso_handle
	.ident	"GCC: (Raspbian 6.3.0-18+rpi1+deb9u1) 6.3.0 20170516"
	.section	.note.GNU-stack,"",%progbits
