	.arch armv6
	.eabi_attribute 28, 1
	.eabi_attribute 20, 1
	.eabi_attribute 21, 1
	.eabi_attribute 23, 3
	.eabi_attribute 24, 1
	.eabi_attribute 25, 1
	.eabi_attribute 26, 2
	.eabi_attribute 30, 2
	.eabi_attribute 34, 1
	.eabi_attribute 18, 4
	.file	"SerialChannel.cpp"
	.section	.text._ZNK4asio6detail15system_category4nameEv,"axG",%progbits,_ZNK4asio6detail15system_category4nameEv,comdat
	.align	2
	.weak	_ZNK4asio6detail15system_category4nameEv
	.syntax unified
	.arm
	.fpu vfp
	.type	_ZNK4asio6detail15system_category4nameEv, %function
_ZNK4asio6detail15system_category4nameEv:
	.fnstart
.LFB2064:
	@ args = 0, pretend = 0, frame = 0
	@ frame_needed = 0, uses_anonymous_args = 0
	@ link register save eliminated.
	ldr	r0, .L2
.LPIC0:
	add	r0, pc, r0
	bx	lr
.L3:
	.align	2
.L2:
	.word	.LC0-(.LPIC0+8)
	.cantunwind
	.fnend
	.size	_ZNK4asio6detail15system_category4nameEv, .-_ZNK4asio6detail15system_category4nameEv
	.section	.text._ZNK4asio5error6detail14netdb_category4nameEv,"axG",%progbits,_ZNK4asio5error6detail14netdb_category4nameEv,comdat
	.align	2
	.weak	_ZNK4asio5error6detail14netdb_category4nameEv
	.syntax unified
	.arm
	.fpu vfp
	.type	_ZNK4asio5error6detail14netdb_category4nameEv, %function
_ZNK4asio5error6detail14netdb_category4nameEv:
	.fnstart
.LFB2085:
	@ args = 0, pretend = 0, frame = 0
	@ frame_needed = 0, uses_anonymous_args = 0
	@ link register save eliminated.
	ldr	r0, .L5
.LPIC1:
	add	r0, pc, r0
	bx	lr
.L6:
	.align	2
.L5:
	.word	.LC1-(.LPIC1+8)
	.cantunwind
	.fnend
	.size	_ZNK4asio5error6detail14netdb_category4nameEv, .-_ZNK4asio5error6detail14netdb_category4nameEv
	.section	.text._ZNK4asio5error6detail17addrinfo_category4nameEv,"axG",%progbits,_ZNK4asio5error6detail17addrinfo_category4nameEv,comdat
	.align	2
	.weak	_ZNK4asio5error6detail17addrinfo_category4nameEv
	.syntax unified
	.arm
	.fpu vfp
	.type	_ZNK4asio5error6detail17addrinfo_category4nameEv, %function
_ZNK4asio5error6detail17addrinfo_category4nameEv:
	.fnstart
.LFB2091:
	@ args = 0, pretend = 0, frame = 0
	@ frame_needed = 0, uses_anonymous_args = 0
	@ link register save eliminated.
	ldr	r0, .L8
.LPIC2:
	add	r0, pc, r0
	bx	lr
.L9:
	.align	2
.L8:
	.word	.LC2-(.LPIC2+8)
	.cantunwind
	.fnend
	.size	_ZNK4asio5error6detail17addrinfo_category4nameEv, .-_ZNK4asio5error6detail17addrinfo_category4nameEv
	.section	.text._ZNK4asio5error6detail13misc_category4nameEv,"axG",%progbits,_ZNK4asio5error6detail13misc_category4nameEv,comdat
	.align	2
	.weak	_ZNK4asio5error6detail13misc_category4nameEv
	.syntax unified
	.arm
	.fpu vfp
	.type	_ZNK4asio5error6detail13misc_category4nameEv, %function
_ZNK4asio5error6detail13misc_category4nameEv:
	.fnstart
.LFB2097:
	@ args = 0, pretend = 0, frame = 0
	@ frame_needed = 0, uses_anonymous_args = 0
	@ link register save eliminated.
	ldr	r0, .L11
.LPIC3:
	add	r0, pc, r0
	bx	lr
.L12:
	.align	2
.L11:
	.word	.LC3-(.LPIC3+8)
	.cantunwind
	.fnend
	.size	_ZNK4asio5error6detail13misc_category4nameEv, .-_ZNK4asio5error6detail13misc_category4nameEv
	.section	.text._ZN4asio10io_service7service12fork_serviceENS0_10fork_eventE,"axG",%progbits,_ZN4asio10io_service7service12fork_serviceENS0_10fork_eventE,comdat
	.align	2
	.weak	_ZN4asio10io_service7service12fork_serviceENS0_10fork_eventE
	.syntax unified
	.arm
	.fpu vfp
	.type	_ZN4asio10io_service7service12fork_serviceENS0_10fork_eventE, %function
_ZN4asio10io_service7service12fork_serviceENS0_10fork_eventE:
	.fnstart
.LFB3178:
	@ args = 0, pretend = 0, frame = 0
	@ frame_needed = 0, uses_anonymous_args = 0
	@ link register save eliminated.
	bx	lr
	.cantunwind
	.fnend
	.size	_ZN4asio10io_service7service12fork_serviceENS0_10fork_eventE, .-_ZN4asio10io_service7service12fork_serviceENS0_10fork_eventE
	.section	.text._ZN4asio19serial_port_service16shutdown_serviceEv,"axG",%progbits,_ZN4asio19serial_port_service16shutdown_serviceEv,comdat
	.align	2
	.weak	_ZN4asio19serial_port_service16shutdown_serviceEv
	.syntax unified
	.arm
	.fpu vfp
	.type	_ZN4asio19serial_port_service16shutdown_serviceEv, %function
_ZN4asio19serial_port_service16shutdown_serviceEv:
	.fnstart
.LFB3973:
	@ args = 0, pretend = 0, frame = 0
	@ frame_needed = 0, uses_anonymous_args = 0
	@ link register save eliminated.
	bx	lr
	.cantunwind
	.fnend
	.size	_ZN4asio19serial_port_service16shutdown_serviceEv, .-_ZN4asio19serial_port_service16shutdown_serviceEv
	.section	.text._ZN4asio19serial_port_serviceD2Ev,"axG",%progbits,_ZN4asio19serial_port_serviceD5Ev,comdat
	.align	2
	.weak	_ZN4asio19serial_port_serviceD2Ev
	.syntax unified
	.arm
	.fpu vfp
	.type	_ZN4asio19serial_port_serviceD2Ev, %function
_ZN4asio19serial_port_serviceD2Ev:
	.fnstart
.LFB9040:
	@ args = 0, pretend = 0, frame = 0
	@ frame_needed = 0, uses_anonymous_args = 0
	@ link register save eliminated.
	bx	lr
	.cantunwind
	.fnend
	.size	_ZN4asio19serial_port_serviceD2Ev, .-_ZN4asio19serial_port_serviceD2Ev
	.weak	_ZN4asio19serial_port_serviceD1Ev
	.set	_ZN4asio19serial_port_serviceD1Ev,_ZN4asio19serial_port_serviceD2Ev
	.section	.text._ZN4asio6detail10service_idINS0_13epoll_reactorEED2Ev,"axG",%progbits,_ZN4asio6detail10service_idINS0_13epoll_reactorEED5Ev,comdat
	.align	2
	.weak	_ZN4asio6detail10service_idINS0_13epoll_reactorEED2Ev
	.syntax unified
	.arm
	.fpu vfp
	.type	_ZN4asio6detail10service_idINS0_13epoll_reactorEED2Ev, %function
_ZN4asio6detail10service_idINS0_13epoll_reactorEED2Ev:
	.fnstart
.LFB9092:
	@ args = 0, pretend = 0, frame = 0
	@ frame_needed = 0, uses_anonymous_args = 0
	@ link register save eliminated.
	bx	lr
	.cantunwind
	.fnend
	.size	_ZN4asio6detail10service_idINS0_13epoll_reactorEED2Ev, .-_ZN4asio6detail10service_idINS0_13epoll_reactorEED2Ev
	.weak	_ZN4asio6detail10service_idINS0_13epoll_reactorEED1Ev
	.set	_ZN4asio6detail10service_idINS0_13epoll_reactorEED1Ev,_ZN4asio6detail10service_idINS0_13epoll_reactorEED2Ev
	.section	.text._ZN4asio6detail10service_idINS0_15task_io_serviceEED2Ev,"axG",%progbits,_ZN4asio6detail10service_idINS0_15task_io_serviceEED5Ev,comdat
	.align	2
	.weak	_ZN4asio6detail10service_idINS0_15task_io_serviceEED2Ev
	.syntax unified
	.arm
	.fpu vfp
	.type	_ZN4asio6detail10service_idINS0_15task_io_serviceEED2Ev, %function
_ZN4asio6detail10service_idINS0_15task_io_serviceEED2Ev:
	.fnstart
.LFB9095:
	@ args = 0, pretend = 0, frame = 0
	@ frame_needed = 0, uses_anonymous_args = 0
	@ link register save eliminated.
	bx	lr
	.cantunwind
	.fnend
	.size	_ZN4asio6detail10service_idINS0_15task_io_serviceEED2Ev, .-_ZN4asio6detail10service_idINS0_15task_io_serviceEED2Ev
	.weak	_ZN4asio6detail10service_idINS0_15task_io_serviceEED1Ev
	.set	_ZN4asio6detail10service_idINS0_15task_io_serviceEED1Ev,_ZN4asio6detail10service_idINS0_15task_io_serviceEED2Ev
	.section	.text._ZN4asio6detail10service_idINS0_14strand_serviceEED2Ev,"axG",%progbits,_ZN4asio6detail10service_idINS0_14strand_serviceEED5Ev,comdat
	.align	2
	.weak	_ZN4asio6detail10service_idINS0_14strand_serviceEED2Ev
	.syntax unified
	.arm
	.fpu vfp
	.type	_ZN4asio6detail10service_idINS0_14strand_serviceEED2Ev, %function
_ZN4asio6detail10service_idINS0_14strand_serviceEED2Ev:
	.fnstart
.LFB9101:
	@ args = 0, pretend = 0, frame = 0
	@ frame_needed = 0, uses_anonymous_args = 0
	@ link register save eliminated.
	bx	lr
	.cantunwind
	.fnend
	.size	_ZN4asio6detail10service_idINS0_14strand_serviceEED2Ev, .-_ZN4asio6detail10service_idINS0_14strand_serviceEED2Ev
	.weak	_ZN4asio6detail10service_idINS0_14strand_serviceEED1Ev
	.set	_ZN4asio6detail10service_idINS0_14strand_serviceEED1Ev,_ZN4asio6detail10service_idINS0_14strand_serviceEED2Ev
	.section	.text._ZN4asio6detail10service_idINS_19serial_port_serviceEED2Ev,"axG",%progbits,_ZN4asio6detail10service_idINS_19serial_port_serviceEED5Ev,comdat
	.align	2
	.weak	_ZN4asio6detail10service_idINS_19serial_port_serviceEED2Ev
	.syntax unified
	.arm
	.fpu vfp
	.type	_ZN4asio6detail10service_idINS_19serial_port_serviceEED2Ev, %function
_ZN4asio6detail10service_idINS_19serial_port_serviceEED2Ev:
	.fnstart
.LFB9104:
	@ args = 0, pretend = 0, frame = 0
	@ frame_needed = 0, uses_anonymous_args = 0
	@ link register save eliminated.
	bx	lr
	.cantunwind
	.fnend
	.size	_ZN4asio6detail10service_idINS_19serial_port_serviceEED2Ev, .-_ZN4asio6detail10service_idINS_19serial_port_serviceEED2Ev
	.weak	_ZN4asio6detail10service_idINS_19serial_port_serviceEED1Ev
	.set	_ZN4asio6detail10service_idINS_19serial_port_serviceEED1Ev,_ZN4asio6detail10service_idINS_19serial_port_serviceEED2Ev
	.section	.text._ZN4asio19serial_port_serviceD0Ev,"axG",%progbits,_ZN4asio19serial_port_serviceD5Ev,comdat
	.align	2
	.weak	_ZN4asio19serial_port_serviceD0Ev
	.syntax unified
	.arm
	.fpu vfp
	.type	_ZN4asio19serial_port_serviceD0Ev, %function
_ZN4asio19serial_port_serviceD0Ev:
	.fnstart
.LFB9042:
	@ args = 0, pretend = 0, frame = 0
	@ frame_needed = 0, uses_anonymous_args = 0
	push	{r4, lr}
	mov	r1, #24
	mov	r4, r0
	bl	_ZdlPvj(PLT)
	mov	r0, r4
	pop	{r4, pc}
	.cantunwind
	.fnend
	.size	_ZN4asio19serial_port_serviceD0Ev, .-_ZN4asio19serial_port_serviceD0Ev
	.section	.text._ZN4asio6detail15system_categoryD2Ev,"axG",%progbits,_ZN4asio6detail15system_categoryD5Ev,comdat
	.align	2
	.weak	_ZN4asio6detail15system_categoryD2Ev
	.syntax unified
	.arm
	.fpu vfp
	.type	_ZN4asio6detail15system_categoryD2Ev, %function
_ZN4asio6detail15system_categoryD2Ev:
	.fnstart
.LFB9068:
	@ args = 0, pretend = 0, frame = 0
	@ frame_needed = 0, uses_anonymous_args = 0
	ldr	r3, .L24
	ldr	r2, .L24+4
.LPIC4:
	add	r3, pc, r3
	push	{r4, lr}
	mov	r4, r0
	ldr	r3, [r3, r2]
	add	r3, r3, #8
	str	r3, [r0]
	bl	_ZNSt3_V214error_categoryD2Ev(PLT)
	mov	r0, r4
	pop	{r4, pc}
.L25:
	.align	2
.L24:
	.word	_GLOBAL_OFFSET_TABLE_-(.LPIC4+8)
	.word	_ZTVN4asio6detail15system_categoryE(GOT)
	.cantunwind
	.fnend
	.size	_ZN4asio6detail15system_categoryD2Ev, .-_ZN4asio6detail15system_categoryD2Ev
	.weak	_ZN4asio6detail15system_categoryD1Ev
	.set	_ZN4asio6detail15system_categoryD1Ev,_ZN4asio6detail15system_categoryD2Ev
	.section	.text._ZN4asio6detail15system_categoryD0Ev,"axG",%progbits,_ZN4asio6detail15system_categoryD5Ev,comdat
	.align	2
	.weak	_ZN4asio6detail15system_categoryD0Ev
	.syntax unified
	.arm
	.fpu vfp
	.type	_ZN4asio6detail15system_categoryD0Ev, %function
_ZN4asio6detail15system_categoryD0Ev:
	.fnstart
.LFB9070:
	@ args = 0, pretend = 0, frame = 0
	@ frame_needed = 0, uses_anonymous_args = 0
	ldr	r3, .L28
	ldr	r2, .L28+4
.LPIC5:
	add	r3, pc, r3
	push	{r4, lr}
	mov	r4, r0
	ldr	r3, [r3, r2]
	add	r3, r3, #8
	str	r3, [r0]
	bl	_ZNSt3_V214error_categoryD2Ev(PLT)
	mov	r0, r4
	mov	r1, #4
	bl	_ZdlPvj(PLT)
	mov	r0, r4
	pop	{r4, pc}
.L29:
	.align	2
.L28:
	.word	_GLOBAL_OFFSET_TABLE_-(.LPIC5+8)
	.word	_ZTVN4asio6detail15system_categoryE(GOT)
	.cantunwind
	.fnend
	.size	_ZN4asio6detail15system_categoryD0Ev, .-_ZN4asio6detail15system_categoryD0Ev
	.section	.text._ZN4asio5error6detail13misc_categoryD2Ev,"axG",%progbits,_ZN4asio5error6detail13misc_categoryD5Ev,comdat
	.align	2
	.weak	_ZN4asio5error6detail13misc_categoryD2Ev
	.syntax unified
	.arm
	.fpu vfp
	.type	_ZN4asio5error6detail13misc_categoryD2Ev, %function
_ZN4asio5error6detail13misc_categoryD2Ev:
	.fnstart
.LFB9056:
	@ args = 0, pretend = 0, frame = 0
	@ frame_needed = 0, uses_anonymous_args = 0
	ldr	r3, .L32
	ldr	r2, .L32+4
.LPIC6:
	add	r3, pc, r3
	push	{r4, lr}
	mov	r4, r0
	ldr	r3, [r3, r2]
	add	r3, r3, #8
	str	r3, [r0]
	bl	_ZNSt3_V214error_categoryD2Ev(PLT)
	mov	r0, r4
	pop	{r4, pc}
.L33:
	.align	2
.L32:
	.word	_GLOBAL_OFFSET_TABLE_-(.LPIC6+8)
	.word	_ZTVN4asio5error6detail13misc_categoryE(GOT)
	.cantunwind
	.fnend
	.size	_ZN4asio5error6detail13misc_categoryD2Ev, .-_ZN4asio5error6detail13misc_categoryD2Ev
	.weak	_ZN4asio5error6detail13misc_categoryD1Ev
	.set	_ZN4asio5error6detail13misc_categoryD1Ev,_ZN4asio5error6detail13misc_categoryD2Ev
	.section	.text._ZN4asio5error6detail13misc_categoryD0Ev,"axG",%progbits,_ZN4asio5error6detail13misc_categoryD5Ev,comdat
	.align	2
	.weak	_ZN4asio5error6detail13misc_categoryD0Ev
	.syntax unified
	.arm
	.fpu vfp
	.type	_ZN4asio5error6detail13misc_categoryD0Ev, %function
_ZN4asio5error6detail13misc_categoryD0Ev:
	.fnstart
.LFB9058:
	@ args = 0, pretend = 0, frame = 0
	@ frame_needed = 0, uses_anonymous_args = 0
	ldr	r3, .L36
	ldr	r2, .L36+4
.LPIC7:
	add	r3, pc, r3
	push	{r4, lr}
	mov	r4, r0
	ldr	r3, [r3, r2]
	add	r3, r3, #8
	str	r3, [r0]
	bl	_ZNSt3_V214error_categoryD2Ev(PLT)
	mov	r0, r4
	mov	r1, #4
	bl	_ZdlPvj(PLT)
	mov	r0, r4
	pop	{r4, pc}
.L37:
	.align	2
.L36:
	.word	_GLOBAL_OFFSET_TABLE_-(.LPIC7+8)
	.word	_ZTVN4asio5error6detail13misc_categoryE(GOT)
	.cantunwind
	.fnend
	.size	_ZN4asio5error6detail13misc_categoryD0Ev, .-_ZN4asio5error6detail13misc_categoryD0Ev
	.section	.text._ZN4asio5error6detail14netdb_categoryD2Ev,"axG",%progbits,_ZN4asio5error6detail14netdb_categoryD5Ev,comdat
	.align	2
	.weak	_ZN4asio5error6detail14netdb_categoryD2Ev
	.syntax unified
	.arm
	.fpu vfp
	.type	_ZN4asio5error6detail14netdb_categoryD2Ev, %function
_ZN4asio5error6detail14netdb_categoryD2Ev:
	.fnstart
.LFB9064:
	@ args = 0, pretend = 0, frame = 0
	@ frame_needed = 0, uses_anonymous_args = 0
	ldr	r3, .L40
	ldr	r2, .L40+4
.LPIC8:
	add	r3, pc, r3
	push	{r4, lr}
	mov	r4, r0
	ldr	r3, [r3, r2]
	add	r3, r3, #8
	str	r3, [r0]
	bl	_ZNSt3_V214error_categoryD2Ev(PLT)
	mov	r0, r4
	pop	{r4, pc}
.L41:
	.align	2
.L40:
	.word	_GLOBAL_OFFSET_TABLE_-(.LPIC8+8)
	.word	_ZTVN4asio5error6detail14netdb_categoryE(GOT)
	.cantunwind
	.fnend
	.size	_ZN4asio5error6detail14netdb_categoryD2Ev, .-_ZN4asio5error6detail14netdb_categoryD2Ev
	.weak	_ZN4asio5error6detail14netdb_categoryD1Ev
	.set	_ZN4asio5error6detail14netdb_categoryD1Ev,_ZN4asio5error6detail14netdb_categoryD2Ev
	.section	.text._ZN4asio5error6detail14netdb_categoryD0Ev,"axG",%progbits,_ZN4asio5error6detail14netdb_categoryD5Ev,comdat
	.align	2
	.weak	_ZN4asio5error6detail14netdb_categoryD0Ev
	.syntax unified
	.arm
	.fpu vfp
	.type	_ZN4asio5error6detail14netdb_categoryD0Ev, %function
_ZN4asio5error6detail14netdb_categoryD0Ev:
	.fnstart
.LFB9066:
	@ args = 0, pretend = 0, frame = 0
	@ frame_needed = 0, uses_anonymous_args = 0
	ldr	r3, .L44
	ldr	r2, .L44+4
.LPIC9:
	add	r3, pc, r3
	push	{r4, lr}
	mov	r4, r0
	ldr	r3, [r3, r2]
	add	r3, r3, #8
	str	r3, [r0]
	bl	_ZNSt3_V214error_categoryD2Ev(PLT)
	mov	r0, r4
	mov	r1, #4
	bl	_ZdlPvj(PLT)
	mov	r0, r4
	pop	{r4, pc}
.L45:
	.align	2
.L44:
	.word	_GLOBAL_OFFSET_TABLE_-(.LPIC9+8)
	.word	_ZTVN4asio5error6detail14netdb_categoryE(GOT)
	.cantunwind
	.fnend
	.size	_ZN4asio5error6detail14netdb_categoryD0Ev, .-_ZN4asio5error6detail14netdb_categoryD0Ev
	.section	.text._ZN4asio5error6detail17addrinfo_categoryD2Ev,"axG",%progbits,_ZN4asio5error6detail17addrinfo_categoryD5Ev,comdat
	.align	2
	.weak	_ZN4asio5error6detail17addrinfo_categoryD2Ev
	.syntax unified
	.arm
	.fpu vfp
	.type	_ZN4asio5error6detail17addrinfo_categoryD2Ev, %function
_ZN4asio5error6detail17addrinfo_categoryD2Ev:
	.fnstart
.LFB9060:
	@ args = 0, pretend = 0, frame = 0
	@ frame_needed = 0, uses_anonymous_args = 0
	ldr	r3, .L48
	ldr	r2, .L48+4
.LPIC10:
	add	r3, pc, r3
	push	{r4, lr}
	mov	r4, r0
	ldr	r3, [r3, r2]
	add	r3, r3, #8
	str	r3, [r0]
	bl	_ZNSt3_V214error_categoryD2Ev(PLT)
	mov	r0, r4
	pop	{r4, pc}
.L49:
	.align	2
.L48:
	.word	_GLOBAL_OFFSET_TABLE_-(.LPIC10+8)
	.word	_ZTVN4asio5error6detail17addrinfo_categoryE(GOT)
	.cantunwind
	.fnend
	.size	_ZN4asio5error6detail17addrinfo_categoryD2Ev, .-_ZN4asio5error6detail17addrinfo_categoryD2Ev
	.weak	_ZN4asio5error6detail17addrinfo_categoryD1Ev
	.set	_ZN4asio5error6detail17addrinfo_categoryD1Ev,_ZN4asio5error6detail17addrinfo_categoryD2Ev
	.section	.text._ZN4asio5error6detail17addrinfo_categoryD0Ev,"axG",%progbits,_ZN4asio5error6detail17addrinfo_categoryD5Ev,comdat
	.align	2
	.weak	_ZN4asio5error6detail17addrinfo_categoryD0Ev
	.syntax unified
	.arm
	.fpu vfp
	.type	_ZN4asio5error6detail17addrinfo_categoryD0Ev, %function
_ZN4asio5error6detail17addrinfo_categoryD0Ev:
	.fnstart
.LFB9062:
	@ args = 0, pretend = 0, frame = 0
	@ frame_needed = 0, uses_anonymous_args = 0
	ldr	r3, .L52
	ldr	r2, .L52+4
.LPIC11:
	add	r3, pc, r3
	push	{r4, lr}
	mov	r4, r0
	ldr	r3, [r3, r2]
	add	r3, r3, #8
	str	r3, [r0]
	bl	_ZNSt3_V214error_categoryD2Ev(PLT)
	mov	r0, r4
	mov	r1, #4
	bl	_ZdlPvj(PLT)
	mov	r0, r4
	pop	{r4, pc}
.L53:
	.align	2
.L52:
	.word	_GLOBAL_OFFSET_TABLE_-(.LPIC11+8)
	.word	_ZTVN4asio5error6detail17addrinfo_categoryE(GOT)
	.cantunwind
	.fnend
	.size	_ZN4asio5error6detail17addrinfo_categoryD0Ev, .-_ZN4asio5error6detail17addrinfo_categoryD0Ev
	.section	.text._ZN4asio6detail7tss_ptrINS0_10call_stackINS0_15task_io_serviceENS0_27task_io_service_thread_infoEE7contextEED2Ev,"axG",%progbits,_ZN4asio6detail7tss_ptrINS0_10call_stackINS0_15task_io_serviceENS0_27task_io_service_thread_infoEE7contextEED5Ev,comdat
	.align	2
	.weak	_ZN4asio6detail7tss_ptrINS0_10call_stackINS0_15task_io_serviceENS0_27task_io_service_thread_infoEE7contextEED2Ev
	.syntax unified
	.arm
	.fpu vfp
	.type	_ZN4asio6detail7tss_ptrINS0_10call_stackINS0_15task_io_serviceENS0_27task_io_service_thread_infoEE7contextEED2Ev, %function
_ZN4asio6detail7tss_ptrINS0_10call_stackINS0_15task_io_serviceENS0_27task_io_service_thread_infoEE7contextEED2Ev:
	.fnstart
.LFB9089:
	@ args = 0, pretend = 0, frame = 0
	@ frame_needed = 0, uses_anonymous_args = 0
	push	{r4, lr}
	mov	r4, r0
	ldr	r0, [r0]
	bl	pthread_key_delete(PLT)
	mov	r0, r4
	pop	{r4, pc}
	.cantunwind
	.fnend
	.size	_ZN4asio6detail7tss_ptrINS0_10call_stackINS0_15task_io_serviceENS0_27task_io_service_thread_infoEE7contextEED2Ev, .-_ZN4asio6detail7tss_ptrINS0_10call_stackINS0_15task_io_serviceENS0_27task_io_service_thread_infoEE7contextEED2Ev
	.weak	_ZN4asio6detail7tss_ptrINS0_10call_stackINS0_15task_io_serviceENS0_27task_io_service_thread_infoEE7contextEED1Ev
	.set	_ZN4asio6detail7tss_ptrINS0_10call_stackINS0_15task_io_serviceENS0_27task_io_service_thread_infoEE7contextEED1Ev,_ZN4asio6detail7tss_ptrINS0_10call_stackINS0_15task_io_serviceENS0_27task_io_service_thread_infoEE7contextEED2Ev
	.section	.text._ZN4asio6detail7tss_ptrINS0_10call_stackINS0_14strand_service11strand_implEhE7contextEED2Ev,"axG",%progbits,_ZN4asio6detail7tss_ptrINS0_10call_stackINS0_14strand_service11strand_implEhE7contextEED5Ev,comdat
	.align	2
	.weak	_ZN4asio6detail7tss_ptrINS0_10call_stackINS0_14strand_service11strand_implEhE7contextEED2Ev
	.syntax unified
	.arm
	.fpu vfp
	.type	_ZN4asio6detail7tss_ptrINS0_10call_stackINS0_14strand_service11strand_implEhE7contextEED2Ev, %function
_ZN4asio6detail7tss_ptrINS0_10call_stackINS0_14strand_service11strand_implEhE7contextEED2Ev:
	.fnstart
.LFB9098:
	@ args = 0, pretend = 0, frame = 0
	@ frame_needed = 0, uses_anonymous_args = 0
	push	{r4, lr}
	mov	r4, r0
	ldr	r0, [r0]
	bl	pthread_key_delete(PLT)
	mov	r0, r4
	pop	{r4, pc}
	.cantunwind
	.fnend
	.size	_ZN4asio6detail7tss_ptrINS0_10call_stackINS0_14strand_service11strand_implEhE7contextEED2Ev, .-_ZN4asio6detail7tss_ptrINS0_10call_stackINS0_14strand_service11strand_implEhE7contextEED2Ev
	.weak	_ZN4asio6detail7tss_ptrINS0_10call_stackINS0_14strand_service11strand_implEhE7contextEED1Ev
	.set	_ZN4asio6detail7tss_ptrINS0_10call_stackINS0_14strand_service11strand_implEhE7contextEED1Ev,_ZN4asio6detail7tss_ptrINS0_10call_stackINS0_14strand_service11strand_implEhE7contextEED2Ev
	.section	.text._ZN4asio6detail13epoll_reactorD0Ev,"axG",%progbits,_ZN4asio6detail13epoll_reactorD5Ev,comdat
	.align	2
	.weak	_ZN4asio6detail13epoll_reactorD0Ev
	.syntax unified
	.arm
	.fpu vfp
	.type	_ZN4asio6detail13epoll_reactorD0Ev, %function
_ZN4asio6detail13epoll_reactorD0Ev:
	.fnstart
.LFB3057:
	@ args = 0, pretend = 0, frame = 16
	@ frame_needed = 0, uses_anonymous_args = 0
	ldr	r3, .L112
	ldr	r2, .L112+4
	push	{r4, r5, r6, r7, r8, r9, r10, fp, lr}
	.save {r4, r5, r6, r7, r8, r9, r10, fp, lr}
.LPIC20:
	add	r3, pc, r3
	.pad #20
	sub	sp, sp, #20
	str	r0, [sp, #4]
	ldr	r3, [r3, r2]
	mov	r2, r0
	ldr	r0, [r0, #56]
	add	r3, r3, #8
	cmn	r0, #1
	str	r3, [r2]
	beq	.L59
	bl	close(PLT)
.L59:
	ldr	r3, [sp, #4]
	ldr	r0, [r3, #60]
	cmn	r0, #1
	beq	.L60
	bl	close(PLT)
	ldr	r3, [sp, #4]
.L60:
	ldr	r10, [r3, #96]
	cmp	r10, #0
	addne	r8, sp, #8
	movne	r5, #0
	beq	.L70
.L71:
	ldr	fp, [r10, #12]
	add	r9, r10, #56
	add	r4, r10, #80
.L66:
	ldr	r1, [r4, #-8]
	cmp	r1, #0
	beq	.L68
	str	r1, [sp]
	bl	_ZNSt3_V215system_categoryEv(PLT)
	ldr	r1, [sp]
	mov	r7, r0
.L69:
	ldr	r3, [r1]
	ldr	r6, [r1, #4]
	cmp	r3, #0
	streq	r3, [r4, #-4]
	str	r3, [r4, #-8]
	mov	r3, #0
	str	r5, [r1]
	mov	r0, r3
	str	r5, [sp, #8]
	str	r7, [sp, #12]
	mov	r2, r8
	blx	r6
	ldr	r1, [r4, #-8]
	cmp	r1, #0
	bne	.L69
.L68:
	sub	r4, r4, #8
	cmp	r9, r4
	bne	.L66
	add	r0, r10, #20
	bl	pthread_mutex_destroy(PLT)
	mov	r0, r10
	mov	r1, #84
	bl	_ZdlPvj(PLT)
	subs	r10, fp, #0
	bne	.L71
	ldr	r3, [sp, #4]
.L70:
	ldr	r10, [r3, #100]
	cmp	r10, #0
	moveq	r4, r3
	beq	.L62
	add	r8, sp, #8
	mov	r5, #0
.L80:
	ldr	fp, [r10, #12]
	add	r9, r10, #56
	add	r4, r10, #80
.L76:
	ldr	r1, [r4, #-8]
	cmp	r1, #0
	beq	.L78
	str	r1, [sp]
	bl	_ZNSt3_V215system_categoryEv(PLT)
	ldr	r1, [sp]
	mov	r7, r0
.L79:
	ldr	r3, [r1]
	ldr	r6, [r1, #4]
	cmp	r3, #0
	streq	r3, [r4, #-4]
	str	r3, [r4, #-8]
	mov	r3, #0
	str	r5, [r1]
	mov	r0, r3
	str	r5, [sp, #8]
	str	r7, [sp, #12]
	mov	r2, r8
	blx	r6
	ldr	r1, [r4, #-8]
	cmp	r1, #0
	bne	.L79
.L78:
	sub	r4, r4, #8
	cmp	r9, r4
	bne	.L76
	add	r0, r10, #20
	bl	pthread_mutex_destroy(PLT)
	mov	r0, r10
	mov	r1, #84
	bl	_ZdlPvj(PLT)
	subs	r10, fp, #0
	bne	.L80
	ldr	r4, [sp, #4]
.L62:
	add	r0, r4, #72
	bl	pthread_mutex_destroy(PLT)
	ldr	r0, [r4, #52]
	cmn	r0, #1
	beq	.L73
	ldr	r3, [sp, #4]
	ldr	r3, [r3, #48]
	cmp	r0, r3
	beq	.L81
	bl	close(PLT)
.L73:
	ldr	r3, [sp, #4]
	ldr	r3, [r3, #48]
	cmn	r3, #1
	beq	.L82
.L81:
	mov	r0, r3
	bl	close(PLT)
.L82:
	ldr	r4, [sp, #4]
	add	r0, r4, #24
	bl	pthread_mutex_destroy(PLT)
	mov	r0, r4
	mov	r1, #104
	bl	_ZdlPvj(PLT)
	mov	r0, r4
	add	sp, sp, #20
	@ sp needed
	pop	{r4, r5, r6, r7, r8, r9, r10, fp, pc}
.L113:
	.align	2
.L112:
	.word	_GLOBAL_OFFSET_TABLE_-(.LPIC20+8)
	.word	_ZTVN4asio6detail13epoll_reactorE(GOT)
	.global	__gxx_personality_v0
	.personality	__gxx_personality_v0
	.handlerdata
.LLSDA3057:
	.byte	0xff
	.byte	0xff
	.byte	0x1
	.uleb128 .LLSDACSE3057-.LLSDACSB3057
.LLSDACSB3057:
.LLSDACSE3057:
	.section	.text._ZN4asio6detail13epoll_reactorD0Ev,"axG",%progbits,_ZN4asio6detail13epoll_reactorD5Ev,comdat
	.fnend
	.size	_ZN4asio6detail13epoll_reactorD0Ev, .-_ZN4asio6detail13epoll_reactorD0Ev
	.section	.text._ZN4asio6detail13epoll_reactorD2Ev,"axG",%progbits,_ZN4asio6detail13epoll_reactorD5Ev,comdat
	.align	2
	.weak	_ZN4asio6detail13epoll_reactorD2Ev
	.syntax unified
	.arm
	.fpu vfp
	.type	_ZN4asio6detail13epoll_reactorD2Ev, %function
_ZN4asio6detail13epoll_reactorD2Ev:
	.fnstart
.LFB3055:
	@ args = 0, pretend = 0, frame = 16
	@ frame_needed = 0, uses_anonymous_args = 0
	ldr	r3, .L167
	ldr	r2, .L167+4
	push	{r4, r5, r6, r7, r8, r9, r10, fp, lr}
	.save {r4, r5, r6, r7, r8, r9, r10, fp, lr}
.LPIC21:
	add	r3, pc, r3
	.pad #20
	sub	sp, sp, #20
	str	r0, [sp, #4]
	ldr	r3, [r3, r2]
	mov	r2, r0
	ldr	r0, [r0, #56]
	add	r3, r3, #8
	cmn	r0, #1
	str	r3, [r2]
	beq	.L115
	bl	close(PLT)
.L115:
	ldr	r3, [sp, #4]
	ldr	r0, [r3, #60]
	cmn	r0, #1
	beq	.L116
	bl	close(PLT)
	ldr	r3, [sp, #4]
.L116:
	ldr	r10, [r3, #96]
	cmp	r10, #0
	addne	r8, sp, #8
	movne	r5, #0
	beq	.L126
.L127:
	ldr	fp, [r10, #12]
	add	r9, r10, #56
	add	r4, r10, #80
.L122:
	ldr	r1, [r4, #-8]
	cmp	r1, #0
	beq	.L124
	str	r1, [sp]
	bl	_ZNSt3_V215system_categoryEv(PLT)
	ldr	r1, [sp]
	mov	r7, r0
.L125:
	ldr	r3, [r1]
	ldr	r6, [r1, #4]
	cmp	r3, #0
	streq	r3, [r4, #-4]
	str	r3, [r4, #-8]
	mov	r3, #0
	str	r5, [r1]
	mov	r0, r3
	str	r5, [sp, #8]
	str	r7, [sp, #12]
	mov	r2, r8
	blx	r6
	ldr	r1, [r4, #-8]
	cmp	r1, #0
	bne	.L125
.L124:
	sub	r4, r4, #8
	cmp	r9, r4
	bne	.L122
	add	r0, r10, #20
	bl	pthread_mutex_destroy(PLT)
	mov	r0, r10
	mov	r1, #84
	bl	_ZdlPvj(PLT)
	subs	r10, fp, #0
	bne	.L127
	ldr	r3, [sp, #4]
.L126:
	ldr	r10, [r3, #100]
	cmp	r10, #0
	moveq	r4, r3
	beq	.L118
	add	r8, sp, #8
	mov	r5, #0
.L136:
	ldr	fp, [r10, #12]
	add	r9, r10, #56
	add	r4, r10, #80
.L132:
	ldr	r1, [r4, #-8]
	cmp	r1, #0
	beq	.L134
	str	r1, [sp]
	bl	_ZNSt3_V215system_categoryEv(PLT)
	ldr	r1, [sp]
	mov	r7, r0
.L135:
	ldr	r3, [r1]
	ldr	r6, [r1, #4]
	cmp	r3, #0
	streq	r3, [r4, #-4]
	str	r3, [r4, #-8]
	mov	r3, #0
	str	r5, [r1]
	mov	r0, r3
	str	r5, [sp, #8]
	str	r7, [sp, #12]
	mov	r2, r8
	blx	r6
	ldr	r1, [r4, #-8]
	cmp	r1, #0
	bne	.L135
.L134:
	sub	r4, r4, #8
	cmp	r9, r4
	bne	.L132
	add	r0, r10, #20
	bl	pthread_mutex_destroy(PLT)
	mov	r0, r10
	mov	r1, #84
	bl	_ZdlPvj(PLT)
	subs	r10, fp, #0
	bne	.L136
	ldr	r4, [sp, #4]
.L118:
	add	r0, r4, #72
	bl	pthread_mutex_destroy(PLT)
	ldr	r0, [r4, #52]
	cmn	r0, #1
	beq	.L129
	ldr	r3, [sp, #4]
	ldr	r3, [r3, #48]
	cmp	r0, r3
	beq	.L137
	bl	close(PLT)
.L129:
	ldr	r3, [sp, #4]
	ldr	r3, [r3, #48]
	cmn	r3, #1
	beq	.L138
.L137:
	mov	r0, r3
	bl	close(PLT)
.L138:
	ldr	r4, [sp, #4]
	add	r0, r4, #24
	bl	pthread_mutex_destroy(PLT)
	mov	r0, r4
	add	sp, sp, #20
	@ sp needed
	pop	{r4, r5, r6, r7, r8, r9, r10, fp, pc}
.L168:
	.align	2
.L167:
	.word	_GLOBAL_OFFSET_TABLE_-(.LPIC21+8)
	.word	_ZTVN4asio6detail13epoll_reactorE(GOT)
	.personality	__gxx_personality_v0
	.handlerdata
.LLSDA3055:
	.byte	0xff
	.byte	0xff
	.byte	0x1
	.uleb128 .LLSDACSE3055-.LLSDACSB3055
.LLSDACSB3055:
.LLSDACSE3055:
	.section	.text._ZN4asio6detail13epoll_reactorD2Ev,"axG",%progbits,_ZN4asio6detail13epoll_reactorD5Ev,comdat
	.fnend
	.size	_ZN4asio6detail13epoll_reactorD2Ev, .-_ZN4asio6detail13epoll_reactorD2Ev
	.weak	_ZN4asio6detail13epoll_reactorD1Ev
	.set	_ZN4asio6detail13epoll_reactorD1Ev,_ZN4asio6detail13epoll_reactorD2Ev
	.section	.text._ZN4asio6detail13epoll_reactor16shutdown_serviceEv,"axG",%progbits,_ZN4asio6detail13epoll_reactor16shutdown_serviceEv,comdat
	.align	2
	.weak	_ZN4asio6detail13epoll_reactor16shutdown_serviceEv
	.syntax unified
	.arm
	.fpu vfp
	.type	_ZN4asio6detail13epoll_reactor16shutdown_serviceEv, %function
_ZN4asio6detail13epoll_reactor16shutdown_serviceEv:
	.fnstart
.LFB3058:
	@ args = 0, pretend = 0, frame = 24
	@ frame_needed = 0, uses_anonymous_args = 0
	push	{r4, r5, r6, r7, r8, r9, lr}
	.save {r4, r5, r6, r7, r8, r9, lr}
	mov	r4, r0
	add	r5, r0, #24
	.pad #28
	sub	sp, sp, #28
	mov	r0, r5
	mov	r6, #1
	bl	pthread_mutex_lock(PLT)
	mov	r0, r5
	strb	r6, [r4, #68]
	bl	pthread_mutex_unlock(PLT)
	ldr	r3, [r4, #96]
	mov	ip, #0
	cmp	r3, ip
	str	ip, [sp, #8]
	str	ip, [sp, #12]
	beq	.L186
	mov	r0, r6
	mov	r2, ip
	mov	r5, ip
	mov	r6, ip
	mov	r1, ip
.L170:
	ldr	lr, [r3, #56]
	cmp	lr, #0
	beq	.L173
	cmp	r2, #0
	moveq	r6, lr
	moveq	r5, r0
	mov	ip, r0
	strne	lr, [r2]
	ldr	r2, [r3, #60]
	str	r1, [r3, #56]
	str	r1, [r3, #60]
.L173:
	ldr	lr, [r3, #64]
	cmp	lr, #0
	beq	.L176
	cmp	r2, #0
	moveq	r6, lr
	moveq	r5, r0
	mov	ip, r0
	strne	lr, [r2]
	ldr	r2, [r3, #68]
	str	r1, [r3, #64]
	str	r1, [r3, #68]
.L176:
	ldr	lr, [r3, #72]
	cmp	lr, #0
	beq	.L179
	cmp	r2, #0
	moveq	r6, lr
	moveq	r5, r0
	mov	ip, r0
	strne	lr, [r2]
	ldr	r2, [r3, #76]
	str	r1, [r3, #72]
	str	r1, [r3, #76]
.L179:
	ldr	lr, [r3, #12]
	strb	r0, [r3, #80]
	str	lr, [r4, #96]
	ldr	lr, [r3, #16]
	cmp	lr, #0
	ldrne	r7, [r3, #12]
	strne	r7, [lr, #12]
	ldr	lr, [r3, #12]
	cmp	lr, #0
	ldrne	r7, [r3, #16]
	strne	r7, [lr, #16]
	ldr	lr, [r4, #100]
	str	r1, [r3, #16]
	str	lr, [r3, #12]
	str	r3, [r4, #100]
	ldr	r3, [r4, #96]
	cmp	r3, #0
	bne	.L170
	cmp	r5, #0
	strne	r6, [sp, #8]
	cmp	ip, #0
	strne	r2, [sp, #12]
.L186:
	ldr	r4, [r4, #64]
	cmp	r4, #0
	addne	r5, sp, #8
	beq	.L171
.L189:
	ldr	r3, [r4]
	mov	r1, r5
	mov	r0, r4
	ldr	r3, [r3, #24]
.LEHB0:
	blx	r3
.LEHE0:
	ldr	r4, [r4, #4]
	cmp	r4, #0
	bne	.L189
.L171:
	ldr	r4, [sp, #8]
	cmp	r4, #0
	beq	.L169
	mov	r6, #0
	str	r6, [sp, #8]
	str	r6, [sp, #12]
	bl	_ZNSt3_V215system_categoryEv(PLT)
	add	r7, sp, #16
	mov	r9, r0
.L190:
	ldr	r5, [r4]
	mov	r3, #0
	str	r6, [r4]
	ldr	r8, [r4, #4]
	mov	r1, r4
	mov	r0, r3
	str	r6, [sp, #16]
	str	r9, [sp, #20]
	mov	r2, r7
	blx	r8
	subs	r4, r5, #0
	bne	.L190
	ldr	r1, [sp, #8]
	cmp	r1, #0
	str	r1, [sp, #4]
	beq	.L169
	bl	_ZNSt3_V215system_categoryEv(PLT)
	ldr	r1, [sp, #4]
	mov	r6, r0
.L194:
	ldr	r3, [r1]
	ldr	r5, [r1, #4]
	cmp	r3, #0
	streq	r3, [sp, #12]
	str	r3, [sp, #8]
	mov	r3, #0
	str	r4, [r1]
	mov	r0, r3
	str	r4, [sp, #16]
	str	r6, [sp, #20]
	mov	r2, r7
	blx	r5
	ldr	r1, [sp, #8]
	cmp	r1, #0
	bne	.L194
.L169:
	add	sp, sp, #28
	@ sp needed
	pop	{r4, r5, r6, r7, r8, r9, pc}
.L201:
	ldr	r4, [sp, #8]
	cmp	r4, #0
	beq	.L198
	bl	_ZNSt3_V215system_categoryEv(PLT)
	add	r7, sp, #16
	mov	r5, #0
	mov	r6, r0
.L199:
	ldr	r3, [r4]
	ldr	r8, [r4, #4]
	cmp	r3, #0
	streq	r3, [sp, #12]
	str	r3, [sp, #8]
	mov	r3, #0
	str	r5, [r4]
	mov	r1, r4
	mov	r0, r3
	str	r5, [sp, #16]
	str	r6, [sp, #20]
	mov	r2, r7
	blx	r8
	ldr	r4, [sp, #8]
	cmp	r4, #0
	bne	.L199
.L198:
.LEHB1:
	bl	__cxa_end_cleanup(PLT)
.LEHE1:
	.personality	__gxx_personality_v0
	.handlerdata
.LLSDA3058:
	.byte	0xff
	.byte	0xff
	.byte	0x1
	.uleb128 .LLSDACSE3058-.LLSDACSB3058
.LLSDACSB3058:
	.uleb128 .LEHB0-.LFB3058
	.uleb128 .LEHE0-.LEHB0
	.uleb128 .L201-.LFB3058
	.uleb128 0
	.uleb128 .LEHB1-.LFB3058
	.uleb128 .LEHE1-.LEHB1
	.uleb128 0
	.uleb128 0
.LLSDACSE3058:
	.section	.text._ZN4asio6detail13epoll_reactor16shutdown_serviceEv,"axG",%progbits,_ZN4asio6detail13epoll_reactor16shutdown_serviceEv,comdat
	.fnend
	.size	_ZN4asio6detail13epoll_reactor16shutdown_serviceEv, .-_ZN4asio6detail13epoll_reactor16shutdown_serviceEv
	.section	.text.unlikely,"ax",%progbits
	.align	2
	.syntax unified
	.arm
	.fpu vfp
	.type	_ZN4asio6detail19descriptor_write_opINS_15const_buffers_1ENS0_8write_opINS_17basic_serial_portINS_19serial_port_serviceEEES2_NS0_14transfer_all_tENS0_15wrapped_handlerINS_10io_service6strandEZN7asiopal13SerialChannel14BeginWriteImplERKN7openpal6RSliceEEUlRKSt10error_codejE_NS0_26is_continuation_if_runningEEEEEE3ptr5resetEv, %function
_ZN4asio6detail19descriptor_write_opINS_15const_buffers_1ENS0_8write_opINS_17basic_serial_portINS_19serial_port_serviceEEES2_NS0_14transfer_all_tENS0_15wrapped_handlerINS_10io_service6strandEZN7asiopal13SerialChannel14BeginWriteImplERKN7openpal6RSliceEEUlRKSt10error_codejE_NS0_26is_continuation_if_runningEEEEEE3ptr5resetEv:
	.fnstart
.LFB8825:
	@ args = 0, pretend = 0, frame = 0
	@ frame_needed = 0, uses_anonymous_args = 0
	ldr	r2, [r0, #8]
	push	{r4, r5, r6, lr}
	cmp	r2, #0
	ldr	r4, [r0, #4]
	movne	r2, #0
	ldr	r3, .L257
	strne	r2, [r0, #8]
	cmp	r4, #0
.LPIC22:
	add	r3, pc, r3
	popeq	{r4, r5, r6, pc}
	ldr	r2, .L257+4
	mov	r5, r0
	ldr	r3, [r3, r2]
	ldr	r0, [r3]
	bl	pthread_getspecific(PLT)
	cmp	r0, #0
	beq	.L242
	ldr	r3, [r0, #4]
	cmp	r3, #0
	beq	.L242
	ldr	r2, [r3]
	cmp	r2, #0
	ldrbeq	r2, [r4, #72]	@ zero_extendqisi2
	strbeq	r2, [r4]
	streq	r4, [r3]
	beq	.L243
.L242:
	mov	r0, r4
	bl	_ZdlPv(PLT)
.L243:
	mov	r3, #0
	str	r3, [r5, #4]
	pop	{r4, r5, r6, pc}
.L258:
	.align	2
.L257:
	.word	_GLOBAL_OFFSET_TABLE_-(.LPIC22+8)
	.word	_ZN4asio6detail10call_stackINS0_15task_io_serviceENS0_27task_io_service_thread_infoEE4top_E(GOT)
	.cantunwind
	.fnend
	.size	_ZN4asio6detail19descriptor_write_opINS_15const_buffers_1ENS0_8write_opINS_17basic_serial_portINS_19serial_port_serviceEEES2_NS0_14transfer_all_tENS0_15wrapped_handlerINS_10io_service6strandEZN7asiopal13SerialChannel14BeginWriteImplERKN7openpal6RSliceEEUlRKSt10error_codejE_NS0_26is_continuation_if_runningEEEEEE3ptr5resetEv, .-_ZN4asio6detail19descriptor_write_opINS_15const_buffers_1ENS0_8write_opINS_17basic_serial_portINS_19serial_port_serviceEEES2_NS0_14transfer_all_tENS0_15wrapped_handlerINS_10io_service6strandEZN7asiopal13SerialChannel14BeginWriteImplERKN7openpal6RSliceEEUlRKSt10error_codejE_NS0_26is_continuation_if_runningEEEEEE3ptr5resetEv
	.align	2
	.syntax unified
	.arm
	.fpu vfp
	.type	_ZN4asio6detail18completion_handlerINS0_7binder2IZN7asiopal13SerialChannel14BeginWriteImplERKN7openpal6RSliceEEUlRKSt10error_codejE_S9_jEEE3ptr5resetEv, %function
_ZN4asio6detail18completion_handlerINS0_7binder2IZN7asiopal13SerialChannel14BeginWriteImplERKN7openpal6RSliceEEUlRKSt10error_codejE_S9_jEEE3ptr5resetEv:
	.fnstart
.LFB8757:
	@ args = 0, pretend = 0, frame = 0
	@ frame_needed = 0, uses_anonymous_args = 0
	ldr	r2, [r0, #8]
	push	{r4, r5, r6, lr}
	cmp	r2, #0
	ldr	r4, [r0, #4]
	movne	r2, #0
	ldr	r3, .L277
	strne	r2, [r0, #8]
	cmp	r4, #0
.LPIC23:
	add	r3, pc, r3
	popeq	{r4, r5, r6, pc}
	ldr	r2, .L277+4
	mov	r5, r0
	ldr	r3, [r3, r2]
	ldr	r0, [r3]
	bl	pthread_getspecific(PLT)
	cmp	r0, #0
	beq	.L262
	ldr	r3, [r0, #4]
	cmp	r3, #0
	beq	.L262
	ldr	r2, [r3]
	cmp	r2, #0
	ldrbeq	r2, [r4, #28]	@ zero_extendqisi2
	strbeq	r2, [r4]
	streq	r4, [r3]
	beq	.L263
.L262:
	mov	r0, r4
	bl	_ZdlPv(PLT)
.L263:
	mov	r3, #0
	str	r3, [r5, #4]
	pop	{r4, r5, r6, pc}
.L278:
	.align	2
.L277:
	.word	_GLOBAL_OFFSET_TABLE_-(.LPIC23+8)
	.word	_ZN4asio6detail10call_stackINS0_15task_io_serviceENS0_27task_io_service_thread_infoEE4top_E(GOT)
	.cantunwind
	.fnend
	.size	_ZN4asio6detail18completion_handlerINS0_7binder2IZN7asiopal13SerialChannel14BeginWriteImplERKN7openpal6RSliceEEUlRKSt10error_codejE_S9_jEEE3ptr5resetEv, .-_ZN4asio6detail18completion_handlerINS0_7binder2IZN7asiopal13SerialChannel14BeginWriteImplERKN7openpal6RSliceEEUlRKSt10error_codejE_S9_jEEE3ptr5resetEv
	.align	2
	.syntax unified
	.arm
	.fpu vfp
	.type	_ZN4asio6detail18completion_handlerINS0_7binder2IZN7asiopal13SerialChannel13BeginReadImplEN7openpal6WSliceEEUlRKSt10error_codejE_S7_jEEE3ptr5resetEv, %function
_ZN4asio6detail18completion_handlerINS0_7binder2IZN7asiopal13SerialChannel13BeginReadImplEN7openpal6WSliceEEUlRKSt10error_codejE_S7_jEEE3ptr5resetEv:
	.fnstart
.LFB9002:
	@ args = 0, pretend = 0, frame = 0
	@ frame_needed = 0, uses_anonymous_args = 0
	ldr	r2, [r0, #8]
	push	{r4, r5, r6, lr}
	cmp	r2, #0
	ldr	r4, [r0, #4]
	movne	r2, #0
	ldr	r3, .L297
	strne	r2, [r0, #8]
	cmp	r4, #0
.LPIC24:
	add	r3, pc, r3
	popeq	{r4, r5, r6, pc}
	ldr	r2, .L297+4
	mov	r5, r0
	ldr	r3, [r3, r2]
	ldr	r0, [r3]
	bl	pthread_getspecific(PLT)
	cmp	r0, #0
	beq	.L282
	ldr	r3, [r0, #4]
	cmp	r3, #0
	beq	.L282
	ldr	r2, [r3]
	cmp	r2, #0
	ldrbeq	r2, [r4, #28]	@ zero_extendqisi2
	strbeq	r2, [r4]
	streq	r4, [r3]
	beq	.L283
.L282:
	mov	r0, r4
	bl	_ZdlPv(PLT)
.L283:
	mov	r3, #0
	str	r3, [r5, #4]
	pop	{r4, r5, r6, pc}
.L298:
	.align	2
.L297:
	.word	_GLOBAL_OFFSET_TABLE_-(.LPIC24+8)
	.word	_ZN4asio6detail10call_stackINS0_15task_io_serviceENS0_27task_io_service_thread_infoEE4top_E(GOT)
	.cantunwind
	.fnend
	.size	_ZN4asio6detail18completion_handlerINS0_7binder2IZN7asiopal13SerialChannel13BeginReadImplEN7openpal6WSliceEEUlRKSt10error_codejE_S7_jEEE3ptr5resetEv, .-_ZN4asio6detail18completion_handlerINS0_7binder2IZN7asiopal13SerialChannel13BeginReadImplEN7openpal6WSliceEEUlRKSt10error_codejE_S7_jEEE3ptr5resetEv
	.align	2
	.syntax unified
	.arm
	.fpu vfp
	.type	_ZN4asio6detail18completion_handlerINS0_17rewrapped_handlerINS0_7binder2INS0_8write_opINS_17basic_serial_portINS_19serial_port_serviceEEENS_15const_buffers_1ENS0_14transfer_all_tENS0_15wrapped_handlerINS_10io_service6strandEZN7asiopal13SerialChannel14BeginWriteImplERKN7openpal6RSliceEEUlRKSt10error_codejE_NS0_26is_continuation_if_runningEEEEESJ_jEESM_EEE3ptr5resetEv, %function
_ZN4asio6detail18completion_handlerINS0_17rewrapped_handlerINS0_7binder2INS0_8write_opINS_17basic_serial_portINS_19serial_port_serviceEEENS_15const_buffers_1ENS0_14transfer_all_tENS0_15wrapped_handlerINS_10io_service6strandEZN7asiopal13SerialChannel14BeginWriteImplERKN7openpal6RSliceEEUlRKSt10error_codejE_NS0_26is_continuation_if_runningEEEEESJ_jEESM_EEE3ptr5resetEv:
	.fnstart
.LFB8965:
	@ args = 0, pretend = 0, frame = 0
	@ frame_needed = 0, uses_anonymous_args = 0
	ldr	r2, [r0, #8]
	push	{r4, r5, r6, lr}
	cmp	r2, #0
	ldr	r4, [r0, #4]
	movne	r2, #0
	ldr	r3, .L317
	strne	r2, [r0, #8]
	cmp	r4, #0
.LPIC25:
	add	r3, pc, r3
	popeq	{r4, r5, r6, pc}
	ldr	r2, .L317+4
	mov	r5, r0
	ldr	r3, [r3, r2]
	ldr	r0, [r3]
	bl	pthread_getspecific(PLT)
	cmp	r0, #0
	beq	.L302
	ldr	r3, [r0, #4]
	cmp	r3, #0
	beq	.L302
	ldr	r2, [r3]
	cmp	r2, #0
	ldrbeq	r2, [r4, #60]	@ zero_extendqisi2
	strbeq	r2, [r4]
	streq	r4, [r3]
	beq	.L303
.L302:
	mov	r0, r4
	bl	_ZdlPv(PLT)
.L303:
	mov	r3, #0
	str	r3, [r5, #4]
	pop	{r4, r5, r6, pc}
.L318:
	.align	2
.L317:
	.word	_GLOBAL_OFFSET_TABLE_-(.LPIC25+8)
	.word	_ZN4asio6detail10call_stackINS0_15task_io_serviceENS0_27task_io_service_thread_infoEE4top_E(GOT)
	.cantunwind
	.fnend
	.size	_ZN4asio6detail18completion_handlerINS0_17rewrapped_handlerINS0_7binder2INS0_8write_opINS_17basic_serial_portINS_19serial_port_serviceEEENS_15const_buffers_1ENS0_14transfer_all_tENS0_15wrapped_handlerINS_10io_service6strandEZN7asiopal13SerialChannel14BeginWriteImplERKN7openpal6RSliceEEUlRKSt10error_codejE_NS0_26is_continuation_if_runningEEEEESJ_jEESM_EEE3ptr5resetEv, .-_ZN4asio6detail18completion_handlerINS0_17rewrapped_handlerINS0_7binder2INS0_8write_opINS_17basic_serial_portINS_19serial_port_serviceEEENS_15const_buffers_1ENS0_14transfer_all_tENS0_15wrapped_handlerINS_10io_service6strandEZN7asiopal13SerialChannel14BeginWriteImplERKN7openpal6RSliceEEUlRKSt10error_codejE_NS0_26is_continuation_if_runningEEEEESJ_jEESM_EEE3ptr5resetEv
	.align	2
	.syntax unified
	.arm
	.fpu vfp
	.type	_ZN4asio6detail18descriptor_read_opINS_17mutable_buffers_1ENS0_15wrapped_handlerINS_10io_service6strandEZN7asiopal13SerialChannel13BeginReadImplEN7openpal6WSliceEEUlRKSt10error_codejE_NS0_26is_continuation_if_runningEEEE3ptr5resetEv, %function
_ZN4asio6detail18descriptor_read_opINS_17mutable_buffers_1ENS0_15wrapped_handlerINS_10io_service6strandEZN7asiopal13SerialChannel13BeginReadImplEN7openpal6WSliceEEUlRKSt10error_codejE_NS0_26is_continuation_if_runningEEEE3ptr5resetEv:
	.fnstart
.LFB8573:
	@ args = 0, pretend = 0, frame = 0
	@ frame_needed = 0, uses_anonymous_args = 0
	ldr	r2, [r0, #8]
	push	{r4, r5, r6, lr}
	cmp	r2, #0
	ldr	r4, [r0, #4]
	movne	r2, #0
	ldr	r3, .L337
	strne	r2, [r0, #8]
	cmp	r4, #0
.LPIC26:
	add	r3, pc, r3
	popeq	{r4, r5, r6, pc}
	ldr	r2, .L337+4
	mov	r5, r0
	ldr	r3, [r3, r2]
	ldr	r0, [r3]
	bl	pthread_getspecific(PLT)
	cmp	r0, #0
	beq	.L322
	ldr	r3, [r0, #4]
	cmp	r3, #0
	beq	.L322
	ldr	r2, [r3]
	cmp	r2, #0
	ldrbeq	r2, [r4, #52]	@ zero_extendqisi2
	strbeq	r2, [r4]
	streq	r4, [r3]
	beq	.L323
.L322:
	mov	r0, r4
	bl	_ZdlPv(PLT)
.L323:
	mov	r3, #0
	str	r3, [r5, #4]
	pop	{r4, r5, r6, pc}
.L338:
	.align	2
.L337:
	.word	_GLOBAL_OFFSET_TABLE_-(.LPIC26+8)
	.word	_ZN4asio6detail10call_stackINS0_15task_io_serviceENS0_27task_io_service_thread_infoEE4top_E(GOT)
	.cantunwind
	.fnend
	.size	_ZN4asio6detail18descriptor_read_opINS_17mutable_buffers_1ENS0_15wrapped_handlerINS_10io_service6strandEZN7asiopal13SerialChannel13BeginReadImplEN7openpal6WSliceEEUlRKSt10error_codejE_NS0_26is_continuation_if_runningEEEE3ptr5resetEv, .-_ZN4asio6detail18descriptor_read_opINS_17mutable_buffers_1ENS0_15wrapped_handlerINS_10io_service6strandEZN7asiopal13SerialChannel13BeginReadImplEN7openpal6WSliceEEUlRKSt10error_codejE_NS0_26is_continuation_if_runningEEEE3ptr5resetEv
	.align	2
	.syntax unified
	.arm
	.fpu vfp
	.type	_ZN4asio6detail18completion_handlerINS0_17rewrapped_handlerINS0_7binder2INS0_15wrapped_handlerINS_10io_service6strandEZN7asiopal13SerialChannel13BeginReadImplEN7openpal6WSliceEEUlRKSt10error_codejE_NS0_26is_continuation_if_runningEEESB_jEESE_EEE3ptr5resetEv, %function
_ZN4asio6detail18completion_handlerINS0_17rewrapped_handlerINS0_7binder2INS0_15wrapped_handlerINS_10io_service6strandEZN7asiopal13SerialChannel13BeginReadImplEN7openpal6WSliceEEUlRKSt10error_codejE_NS0_26is_continuation_if_runningEEESB_jEESE_EEE3ptr5resetEv:
	.fnstart
.LFB8916:
	@ args = 0, pretend = 0, frame = 0
	@ frame_needed = 0, uses_anonymous_args = 0
	ldr	r2, [r0, #8]
	push	{r4, r5, r6, lr}
	cmp	r2, #0
	ldr	r4, [r0, #4]
	movne	r2, #0
	ldr	r3, .L357
	strne	r2, [r0, #8]
	cmp	r4, #0
.LPIC27:
	add	r3, pc, r3
	popeq	{r4, r5, r6, pc}
	ldr	r2, .L357+4
	mov	r5, r0
	ldr	r3, [r3, r2]
	ldr	r0, [r3]
	bl	pthread_getspecific(PLT)
	cmp	r0, #0
	beq	.L342
	ldr	r3, [r0, #4]
	cmp	r3, #0
	beq	.L342
	ldr	r2, [r3]
	cmp	r2, #0
	ldrbeq	r2, [r4, #40]	@ zero_extendqisi2
	strbeq	r2, [r4]
	streq	r4, [r3]
	beq	.L343
.L342:
	mov	r0, r4
	bl	_ZdlPv(PLT)
.L343:
	mov	r3, #0
	str	r3, [r5, #4]
	pop	{r4, r5, r6, pc}
.L358:
	.align	2
.L357:
	.word	_GLOBAL_OFFSET_TABLE_-(.LPIC27+8)
	.word	_ZN4asio6detail10call_stackINS0_15task_io_serviceENS0_27task_io_service_thread_infoEE4top_E(GOT)
	.cantunwind
	.fnend
	.size	_ZN4asio6detail18completion_handlerINS0_17rewrapped_handlerINS0_7binder2INS0_15wrapped_handlerINS_10io_service6strandEZN7asiopal13SerialChannel13BeginReadImplEN7openpal6WSliceEEUlRKSt10error_codejE_NS0_26is_continuation_if_runningEEESB_jEESE_EEE3ptr5resetEv, .-_ZN4asio6detail18completion_handlerINS0_17rewrapped_handlerINS0_7binder2INS0_15wrapped_handlerINS_10io_service6strandEZN7asiopal13SerialChannel13BeginReadImplEN7openpal6WSliceEEUlRKSt10error_codejE_NS0_26is_continuation_if_runningEEESB_jEESE_EEE3ptr5resetEv
	.text
	.align	2
	.syntax unified
	.arm
	.fpu vfp
	.type	_ZN4asio6detail18completion_handlerINS0_7binder2IZN7asiopal13SerialChannel13BeginReadImplEN7openpal6WSliceEEUlRKSt10error_codejE_S7_jEEE11do_completeEPNS0_15task_io_serviceEPNS0_25task_io_service_operationES9_j, %function
_ZN4asio6detail18completion_handlerINS0_7binder2IZN7asiopal13SerialChannel13BeginReadImplEN7openpal6WSliceEEUlRKSt10error_codejE_S7_jEEE11do_completeEPNS0_15task_io_serviceEPNS0_25task_io_service_operationES9_j:
	.fnstart
.LFB8997:
	@ args = 0, pretend = 0, frame = 32
	@ frame_needed = 0, uses_anonymous_args = 0
	add	r3, r1, #12
	push	{r4, r5, r6, lr}
	.save {r4, r5, r6, lr}
	mov	r6, r1
	mov	r4, r0
	ldm	r3, {r0, r1, r2, r3}
	.pad #32
	sub	sp, sp, #32
	ldr	lr, .L399
	add	ip, sp, #16
	ldr	r5, .L399+4
.LPIC28:
	add	lr, pc, lr
	stm	ip, {r0, r1, r2, r3}
	mov	r3, #0
	str	r3, [sp, #12]
	str	r6, [sp, #8]
	str	ip, [sp, #4]
	ldr	r5, [lr, r5]
	mov	r3, lr
	ldr	r0, [r5]
	bl	pthread_getspecific(PLT)
	cmp	r0, #0
	beq	.L360
	ldr	r3, [r0, #4]
	cmp	r3, #0
	beq	.L360
	ldr	r2, [r3]
	cmp	r2, #0
	beq	.L395
.L360:
	mov	r0, r6
	bl	_ZdlPv(PLT)
.L361:
	mov	r1, #0
	cmp	r4, #0
	str	r1, [sp, #8]
	beq	.L362
	add	r3, sp, #32
	mov	r2, #1
	str	r1, [r3, #-32]!
.L391:
	ldrex	r0, [r3]
	strex	ip, r2, [r3]
	cmp	ip, #0
	bne	.L391
	mcr	p15, 0, r0, c7, c10, 5
	ldr	r3, [sp, #16]
	ldr	r2, [sp, #28]
	ldr	r0, [r3, #20]
	strb	r1, [r3, #29]
	cmp	r0, r1
	beq	.L366
	ldrb	r3, [r3, #28]	@ zero_extendqisi2
	cmp	r3, #0
	beq	.L396
.L366:
	mov	r3, #0
	mcr	p15, 0, r0, c7, c10, 5
	str	r3, [sp]
	ldr	r3, [sp, #12]
	cmp	r3, #0
	ldrne	r4, [sp, #8]
	beq	.L397
.L373:
	mov	r3, #0
	str	r3, [sp, #12]
.L368:
	cmp	r4, #0
	beq	.L359
	ldr	r0, [r5]
	bl	pthread_getspecific(PLT)
	cmp	r0, #0
	beq	.L371
	ldr	r3, [r0, #4]
	cmp	r3, #0
	beq	.L371
	ldr	r2, [r3]
	cmp	r2, #0
	beq	.L398
.L371:
	mov	r0, r4
	bl	_ZdlPv(PLT)
.L359:
	add	sp, sp, #32
	@ sp needed
	pop	{r4, r5, r6, pc}
.L396:
	ldr	r3, [r0]
	add	r1, sp, #20
	ldr	r3, [r3, #8]
.LEHB2:
	blx	r3
.LEHE2:
	b	.L366
.L397:
	ldr	r4, [sp, #8]
	b	.L368
.L362:
	ldr	r3, [sp, #12]
	cmp	r3, #0
	bne	.L373
	b	.L359
.L398:
	ldrb	r2, [r4, #28]	@ zero_extendqisi2
	strb	r2, [r4]
	str	r4, [r3]
	b	.L359
.L395:
	ldrb	r2, [r6, #28]	@ zero_extendqisi2
	strb	r2, [r6]
	str	r6, [r3]
	b	.L361
.L376:
	mov	r3, #0
	mcr	p15, 0, r0, c7, c10, 5
	add	r0, sp, #4
	str	r3, [sp]
	bl	_ZN4asio6detail18completion_handlerINS0_7binder2IZN7asiopal13SerialChannel13BeginReadImplEN7openpal6WSliceEEUlRKSt10error_codejE_S7_jEEE3ptr5resetEv(PLT)
.LEHB3:
	bl	__cxa_end_cleanup(PLT)
.LEHE3:
.L400:
	.align	2
.L399:
	.word	_GLOBAL_OFFSET_TABLE_-(.LPIC28+8)
	.word	_ZN4asio6detail10call_stackINS0_15task_io_serviceENS0_27task_io_service_thread_infoEE4top_E(GOT)
	.personality	__gxx_personality_v0
	.handlerdata
.LLSDA8997:
	.byte	0xff
	.byte	0xff
	.byte	0x1
	.uleb128 .LLSDACSE8997-.LLSDACSB8997
.LLSDACSB8997:
	.uleb128 .LEHB2-.LFB8997
	.uleb128 .LEHE2-.LEHB2
	.uleb128 .L376-.LFB8997
	.uleb128 0
	.uleb128 .LEHB3-.LFB8997
	.uleb128 .LEHE3-.LEHB3
	.uleb128 0
	.uleb128 0
.LLSDACSE8997:
	.text
	.fnend
	.size	_ZN4asio6detail18completion_handlerINS0_7binder2IZN7asiopal13SerialChannel13BeginReadImplEN7openpal6WSliceEEUlRKSt10error_codejE_S7_jEEE11do_completeEPNS0_15task_io_serviceEPNS0_25task_io_service_operationES9_j, .-_ZN4asio6detail18completion_handlerINS0_7binder2IZN7asiopal13SerialChannel13BeginReadImplEN7openpal6WSliceEEUlRKSt10error_codejE_S7_jEEE11do_completeEPNS0_15task_io_serviceEPNS0_25task_io_service_operationES9_j
	.align	2
	.syntax unified
	.arm
	.fpu vfp
	.type	_ZN4asio6detail18completion_handlerINS0_7binder2IZN7asiopal13SerialChannel14BeginWriteImplERKN7openpal6RSliceEEUlRKSt10error_codejE_S9_jEEE11do_completeEPNS0_15task_io_serviceEPNS0_25task_io_service_operationESB_j, %function
_ZN4asio6detail18completion_handlerINS0_7binder2IZN7asiopal13SerialChannel14BeginWriteImplERKN7openpal6RSliceEEUlRKSt10error_codejE_S9_jEEE11do_completeEPNS0_15task_io_serviceEPNS0_25task_io_service_operationESB_j:
	.fnstart
.LFB8603:
	@ args = 0, pretend = 0, frame = 32
	@ frame_needed = 0, uses_anonymous_args = 0
	add	r3, r1, #12
	push	{r4, r5, r6, lr}
	.save {r4, r5, r6, lr}
	mov	r6, r1
	mov	r4, r0
	ldm	r3, {r0, r1, r2, r3}
	.pad #32
	sub	sp, sp, #32
	ldr	lr, .L441
	add	ip, sp, #16
	ldr	r5, .L441+4
.LPIC29:
	add	lr, pc, lr
	stm	ip, {r0, r1, r2, r3}
	mov	r3, #0
	str	r3, [sp, #12]
	str	r6, [sp, #8]
	str	ip, [sp, #4]
	ldr	r5, [lr, r5]
	mov	r3, lr
	ldr	r0, [r5]
	bl	pthread_getspecific(PLT)
	cmp	r0, #0
	beq	.L402
	ldr	r3, [r0, #4]
	cmp	r3, #0
	beq	.L402
	ldr	r2, [r3]
	cmp	r2, #0
	beq	.L437
.L402:
	mov	r0, r6
	bl	_ZdlPv(PLT)
.L403:
	mov	r1, #0
	cmp	r4, #0
	str	r1, [sp, #8]
	beq	.L404
	add	r3, sp, #32
	mov	r2, #1
	str	r1, [r3, #-32]!
.L433:
	ldrex	r0, [r3]
	strex	ip, r2, [r3]
	cmp	ip, #0
	bne	.L433
	mcr	p15, 0, r0, c7, c10, 5
	ldr	r3, [sp, #16]
	ldr	r2, [sp, #28]
	ldr	r0, [r3, #20]
	strb	r1, [r3, #30]
	cmp	r0, r1
	beq	.L408
	ldrb	r3, [r3, #28]	@ zero_extendqisi2
	cmp	r3, #0
	beq	.L438
.L408:
	mov	r3, #0
	mcr	p15, 0, r0, c7, c10, 5
	str	r3, [sp]
	ldr	r3, [sp, #12]
	cmp	r3, #0
	ldrne	r4, [sp, #8]
	beq	.L439
.L415:
	mov	r3, #0
	str	r3, [sp, #12]
.L410:
	cmp	r4, #0
	beq	.L401
	ldr	r0, [r5]
	bl	pthread_getspecific(PLT)
	cmp	r0, #0
	beq	.L413
	ldr	r3, [r0, #4]
	cmp	r3, #0
	beq	.L413
	ldr	r2, [r3]
	cmp	r2, #0
	beq	.L440
.L413:
	mov	r0, r4
	bl	_ZdlPv(PLT)
.L401:
	add	sp, sp, #32
	@ sp needed
	pop	{r4, r5, r6, pc}
.L438:
	ldr	r3, [r0]
	add	r1, sp, #20
	ldr	r3, [r3, #12]
.LEHB4:
	blx	r3
.LEHE4:
	b	.L408
.L439:
	ldr	r4, [sp, #8]
	b	.L410
.L404:
	ldr	r3, [sp, #12]
	cmp	r3, #0
	bne	.L415
	b	.L401
.L440:
	ldrb	r2, [r4, #28]	@ zero_extendqisi2
	strb	r2, [r4]
	str	r4, [r3]
	b	.L401
.L437:
	ldrb	r2, [r6, #28]	@ zero_extendqisi2
	strb	r2, [r6]
	str	r6, [r3]
	b	.L403
.L418:
	mov	r3, #0
	mcr	p15, 0, r0, c7, c10, 5
	add	r0, sp, #4
	str	r3, [sp]
	bl	_ZN4asio6detail18completion_handlerINS0_7binder2IZN7asiopal13SerialChannel14BeginWriteImplERKN7openpal6RSliceEEUlRKSt10error_codejE_S9_jEEE3ptr5resetEv(PLT)
.LEHB5:
	bl	__cxa_end_cleanup(PLT)
.LEHE5:
.L442:
	.align	2
.L441:
	.word	_GLOBAL_OFFSET_TABLE_-(.LPIC29+8)
	.word	_ZN4asio6detail10call_stackINS0_15task_io_serviceENS0_27task_io_service_thread_infoEE4top_E(GOT)
	.personality	__gxx_personality_v0
	.handlerdata
.LLSDA8603:
	.byte	0xff
	.byte	0xff
	.byte	0x1
	.uleb128 .LLSDACSE8603-.LLSDACSB8603
.LLSDACSB8603:
	.uleb128 .LEHB4-.LFB8603
	.uleb128 .LEHE4-.LEHB4
	.uleb128 .L418-.LFB8603
	.uleb128 0
	.uleb128 .LEHB5-.LFB8603
	.uleb128 .LEHE5-.LEHB5
	.uleb128 0
	.uleb128 0
.LLSDACSE8603:
	.text
	.fnend
	.size	_ZN4asio6detail18completion_handlerINS0_7binder2IZN7asiopal13SerialChannel14BeginWriteImplERKN7openpal6RSliceEEUlRKSt10error_codejE_S9_jEEE11do_completeEPNS0_15task_io_serviceEPNS0_25task_io_service_operationESB_j, .-_ZN4asio6detail18completion_handlerINS0_7binder2IZN7asiopal13SerialChannel14BeginWriteImplERKN7openpal6RSliceEEUlRKSt10error_codejE_S9_jEEE11do_completeEPNS0_15task_io_serviceEPNS0_25task_io_service_operationESB_j
	.section	.text._ZNK4asio6detail15system_category7messageB5cxx11Ei,"axG",%progbits,_ZNK4asio6detail15system_category7messageB5cxx11Ei,comdat
	.align	2
	.weak	_ZNK4asio6detail15system_category7messageB5cxx11Ei
	.syntax unified
	.arm
	.fpu vfp
	.type	_ZNK4asio6detail15system_category7messageB5cxx11Ei, %function
_ZNK4asio6detail15system_category7messageB5cxx11Ei:
	.fnstart
.LFB2065:
	@ args = 0, pretend = 0, frame = 264
	@ frame_needed = 0, uses_anonymous_args = 0
	cmp	r2, #125
	push	{r4, r5, r6, r7, r8, lr}
	.save {r4, r5, r6, r7, r8, lr}
	mov	r4, r0
	.pad #264
	sub	sp, sp, #264
	beq	.L453
	mov	r7, #0
	mov	r5, r2
	mov	r1, r7
	mov	r2, #252
	add	r0, sp, #12
	str	r7, [sp, #8]
	bl	memset(PLT)
	mov	r0, r5
	mov	r2, #256
	add	r1, sp, #8
	bl	strerror_r(PLT)
	add	r6, r4, #8
	str	r6, [r4]
	subs	r8, r0, #0
	beq	.L446
	bl	strlen(PLT)
	cmp	r0, #15
	mov	r5, r0
	str	r0, [sp, #4]
	bhi	.L454
	cmp	r0, #1
	beq	.L455
	cmp	r0, #0
	bne	.L456
.L450:
	mov	r3, #0
	str	r5, [r4, #4]
	mov	r0, r4
	strb	r3, [r6, r5]
	add	sp, sp, #264
	@ sp needed
	pop	{r4, r5, r6, r7, r8, pc}
.L454:
	mov	r2, r7
	add	r1, sp, #4
	mov	r0, r4
	bl	_ZNSt7__cxx1112basic_stringIcSt11char_traitsIcESaIcEE9_M_createERjj(PLT)
	ldr	r3, [sp, #4]
	str	r3, [r4, #8]
	str	r0, [r4]
.L448:
	mov	r2, r5
	mov	r1, r8
	bl	memcpy(PLT)
	ldr	r5, [sp, #4]
	ldr	r6, [r4]
	b	.L450
.L455:
	ldrb	r3, [r8]	@ zero_extendqisi2
	strb	r3, [r4, #8]
	b	.L450
.L453:
	add	r1, sp, #264
	add	r3, r0, #8
	mov	r2, #18
	str	r2, [r1, #-256]!
	str	r3, [r0]
	mov	r2, #0
	bl	_ZNSt7__cxx1112basic_stringIcSt11char_traitsIcESaIcEE9_M_createERjj(PLT)
	ldr	ip, .L457
	ldr	r6, [sp, #8]
.LPIC30:
	add	ip, pc, ip
	str	r6, [r4, #8]
	mov	r5, #0
	str	r0, [r4]
	mov	lr, r0
	ldmia	ip!, {r0, r1, r2, r3}
	ldrh	ip, [ip]	@ unaligned
	str	r0, [lr]	@ unaligned
	str	r1, [lr, #4]	@ unaligned
	strh	ip, [lr, #16]	@ unaligned
	str	r2, [lr, #8]	@ unaligned
	str	r3, [lr, #12]	@ unaligned
	ldr	r3, [sp, #8]
	ldr	r2, [r4]
	str	r3, [r4, #4]
	mov	r0, r4
	strb	r5, [r2, r3]
	add	sp, sp, #264
	@ sp needed
	pop	{r4, r5, r6, r7, r8, pc}
.L446:
	ldr	r0, .L457+4
.LPIC31:
	add	r0, pc, r0
	bl	_ZSt19__throw_logic_errorPKc(PLT)
.L456:
	mov	r0, r6
	b	.L448
.L458:
	.align	2
.L457:
	.word	.LC4-(.LPIC30+8)
	.word	.LC5-(.LPIC31+8)
	.fnend
	.size	_ZNK4asio6detail15system_category7messageB5cxx11Ei, .-_ZNK4asio6detail15system_category7messageB5cxx11Ei
	.section	.text._ZN4asio6detail24descriptor_write_op_baseINS_15const_buffers_1EE10do_performEPNS0_10reactor_opE,"axG",%progbits,_ZN4asio6detail24descriptor_write_op_baseINS_15const_buffers_1EE10do_performEPNS0_10reactor_opE,comdat
	.align	2
	.weak	_ZN4asio6detail24descriptor_write_op_baseINS_15const_buffers_1EE10do_performEPNS0_10reactor_opE
	.syntax unified
	.arm
	.fpu vfp
	.type	_ZN4asio6detail24descriptor_write_op_baseINS_15const_buffers_1EE10do_performEPNS0_10reactor_opE, %function
_ZN4asio6detail24descriptor_write_op_baseINS_15const_buffers_1EE10do_performEPNS0_10reactor_opE:
	.fnstart
.LFB8870:
	@ args = 0, pretend = 0, frame = 40
	@ frame_needed = 0, uses_anonymous_args = 0
	ldr	r3, .L505
	push	{r4, r5, r6, r7, r8, r9, r10, fp, lr}
	.save {r4, r5, r6, r7, r8, r9, r10, fp, lr}
	.pad #44
	sub	sp, sp, #44
.LPIC32:
	add	r3, pc, r3
	mov	r4, r3
	ldr	r2, [r0, #32]
	str	r3, [sp, #12]
	ldr	r3, [r0, #36]
	mov	r5, r0
	str	r3, [sp, #32]
	str	r3, [sp, #36]
	str	r2, [sp, #28]
	bl	__errno_location(PLT)
	ldr	r3, .L505+4
	mov	r1, r4
	ldr	r2, .L505+8
	ldr	r6, [r1, r3]
	ldr	r3, .L505+12
	ldr	r4, [r4, r2]
.LPIC33:
	add	r3, pc, r3
	str	r3, [sp, #16]
	ldr	r3, .L505+16
	ldr	r10, [r5, #28]
.LPIC34:
	add	r3, pc, r3
	str	r3, [sp, #20]
	add	r9, sp, #28
	mov	r8, #0
	mov	fp, #1
	mov	r7, r0
.L467:
	mov	r2, fp
	str	r8, [r7]
	mov	r1, r9
	mov	r0, r10
	bl	writev(PLT)
	ldr	r3, [r7]
	str	r0, [sp, #4]
	ldrb	r2, [r4]	@ zero_extendqisi2
	mcr	p15, 0, r0, c7, c10, 5
	tst	r2, #1
	beq	.L498
.L461:
	str	r3, [r5, #12]
	str	r6, [r5, #16]
	ldrb	r3, [r4]	@ zero_extendqisi2
	mcr	p15, 0, r0, c7, c10, 5
	tst	r3, #1
	beq	.L499
.L464:
	ldr	r3, [r5, #16]
	cmp	r3, r6
	beq	.L500
.L466:
	ldrb	r3, [r4]	@ zero_extendqisi2
	mcr	p15, 0, r0, c7, c10, 5
	tst	r3, #1
	beq	.L501
.L469:
	ldr	r3, [r5, #16]
	cmp	r3, r6
	beq	.L502
.L470:
	ldrb	r3, [r4]	@ zero_extendqisi2
	mcr	p15, 0, r0, c7, c10, 5
	tst	r3, #1
	beq	.L503
.L473:
	ldr	r3, [r5, #16]
	cmp	r3, r6
	beq	.L504
.L474:
	ldr	r4, [sp, #4]
	cmp	r4, #0
	blt	.L476
	bl	_ZNSt3_V215system_categoryEv(PLT)
	mov	r3, #0
	str	r3, [r5, #12]
	mov	r3, #1
	str	r4, [r5, #20]
	str	r0, [r5, #16]
	mov	r0, r3
	add	sp, sp, #44
	@ sp needed
	pop	{r4, r5, r6, r7, r8, r9, r10, fp, pc}
.L504:
	ldr	r3, [r5, #12]
	cmp	r3, #11
	bne	.L474
.L475:
	mov	r3, #0
	mov	r0, r3
	add	sp, sp, #44
	@ sp needed
	pop	{r4, r5, r6, r7, r8, r9, r10, fp, pc}
.L499:
	mov	r0, r4
	bl	__cxa_guard_acquire(PLT)
	cmp	r0, #0
	beq	.L464
	mov	r0, r4
	bl	__cxa_guard_release(PLT)
	ldr	r3, .L505+20
	ldr	r1, [sp, #12]
	ldr	r2, [sp, #20]
	mov	r0, r6
	ldr	r1, [r1, r3]
	bl	__aeabi_atexit(PLT)
	ldr	r3, [r5, #16]
	cmp	r3, r6
	bne	.L466
.L500:
	ldr	r3, [r5, #12]
	cmp	r3, #4
	beq	.L467
	ldrb	r3, [r4]	@ zero_extendqisi2
	mcr	p15, 0, r0, c7, c10, 5
	tst	r3, #1
	bne	.L469
.L501:
	mov	r0, r4
	bl	__cxa_guard_acquire(PLT)
	cmp	r0, #0
	beq	.L469
	mov	r0, r4
	bl	__cxa_guard_release(PLT)
	ldr	r3, .L505+20
	ldr	r1, [sp, #12]
	ldr	r2, .L505+24
	mov	r0, r6
	ldr	r1, [r1, r3]
.LPIC35:
	add	r2, pc, r2
	bl	__aeabi_atexit(PLT)
	ldr	r3, [r5, #16]
	cmp	r3, r6
	bne	.L470
.L502:
	ldr	r3, [r5, #12]
	cmp	r3, #11
	beq	.L475
	ldrb	r3, [r4]	@ zero_extendqisi2
	mcr	p15, 0, r0, c7, c10, 5
	tst	r3, #1
	bne	.L473
.L503:
	mov	r0, r4
	bl	__cxa_guard_acquire(PLT)
	cmp	r0, #0
	beq	.L473
	mov	r0, r4
	bl	__cxa_guard_release(PLT)
	ldr	r3, .L505+20
	ldr	r1, [sp, #12]
	ldr	r2, .L505+28
	mov	r0, r6
.LPIC36:
	add	r2, pc, r2
	ldr	r1, [r1, r3]
	bl	__aeabi_atexit(PLT)
	b	.L473
.L498:
	mov	r0, r4
	str	r3, [sp, #8]
	bl	__cxa_guard_acquire(PLT)
	ldr	r3, [sp, #8]
	cmp	r0, #0
	beq	.L461
	mov	r0, r4
	bl	__cxa_guard_release(PLT)
	ldr	r3, [sp, #12]
	ldr	r1, .L505+20
	ldr	r2, [sp, #16]
	mov	r0, r6
	ldr	r1, [r3, r1]
	bl	__aeabi_atexit(PLT)
	ldr	r3, [sp, #8]
	b	.L461
.L476:
	mov	r3, #0
	str	r3, [r5, #20]
	mov	r3, #1
	mov	r0, r3
	add	sp, sp, #44
	@ sp needed
	pop	{r4, r5, r6, r7, r8, r9, r10, fp, pc}
.L506:
	.align	2
.L505:
	.word	_GLOBAL_OFFSET_TABLE_-(.LPIC32+8)
	.word	_ZZN4asio15system_categoryEvE8instance(GOT)
	.word	_ZGVZN4asio15system_categoryEvE8instance(GOT)
	.word	__dso_handle-(.LPIC33+8)
	.word	__dso_handle-(.LPIC34+8)
	.word	_ZN4asio6detail15system_categoryD1Ev(GOT)
	.word	__dso_handle-(.LPIC35+8)
	.word	__dso_handle-(.LPIC36+8)
	.fnend
	.size	_ZN4asio6detail24descriptor_write_op_baseINS_15const_buffers_1EE10do_performEPNS0_10reactor_opE, .-_ZN4asio6detail24descriptor_write_op_baseINS_15const_buffers_1EE10do_performEPNS0_10reactor_opE
	.section	.text._ZNK4asio5error6detail17addrinfo_category7messageB5cxx11Ei,"axG",%progbits,_ZNK4asio5error6detail17addrinfo_category7messageB5cxx11Ei,comdat
	.align	2
	.weak	_ZNK4asio5error6detail17addrinfo_category7messageB5cxx11Ei
	.syntax unified
	.arm
	.fpu vfp
	.type	_ZNK4asio5error6detail17addrinfo_category7messageB5cxx11Ei, %function
_ZNK4asio5error6detail17addrinfo_category7messageB5cxx11Ei:
	.fnstart
.LFB2092:
	@ args = 0, pretend = 0, frame = 8
	@ frame_needed = 0, uses_anonymous_args = 0
	push	{r4, r5, r6, lr}
	.save {r4, r5, r6, lr}
	cmn	r2, #8
	.pad #8
	sub	sp, sp, #8
	add	r1, sp, #8
	mov	r4, r0
	beq	.L512
	cmn	r2, #7
	beq	.L513
	add	r3, r0, #8
	mov	r2, #19
	str	r2, [r1, #-4]!
	str	r3, [r0]
	mov	r2, #0
	bl	_ZNSt7__cxx1112basic_stringIcSt11char_traitsIcESaIcEE9_M_createERjj(PLT)
	ldr	ip, .L514
	ldr	r6, [sp, #4]
.LPIC39:
	add	ip, pc, ip
	str	r6, [r4, #8]
	mov	r5, #0
	str	r0, [r4]
	mov	lr, r0
	ldmia	ip!, {r0, r1, r2, r3}
	ldrh	r6, [ip]	@ unaligned
	ldrb	ip, [ip, #2]	@ zero_extendqisi2
	str	r0, [lr]	@ unaligned
	str	r1, [lr, #4]	@ unaligned
	str	r2, [lr, #8]	@ unaligned
	str	r3, [lr, #12]	@ unaligned
	strh	r6, [lr, #16]	@ unaligned
	strb	ip, [lr, #18]
	ldr	r3, [sp, #4]
	ldr	r2, [r4]
	str	r3, [r4, #4]
	strb	r5, [r2, r3]
.L507:
	mov	r0, r4
	add	sp, sp, #8
	@ sp needed
	pop	{r4, r5, r6, pc}
.L513:
	add	r3, r0, #8
	mov	r2, #25
	str	r2, [r1, #-4]!
	str	r3, [r0]
	mov	r2, #0
	bl	_ZNSt7__cxx1112basic_stringIcSt11char_traitsIcESaIcEE9_M_createERjj(PLT)
	ldr	ip, .L514+4
	ldr	r6, [sp, #4]
.LPIC38:
	add	ip, pc, ip
	str	r6, [r4, #8]
	mov	r5, #0
	str	r0, [r4]
	mov	lr, r0
	ldmia	ip!, {r0, r1, r2, r3}
	str	r0, [lr]	@ unaligned
	str	r1, [lr, #4]	@ unaligned
	ldmia	ip!, {r0, r1}
	str	r3, [lr, #12]	@ unaligned
	str	r2, [lr, #8]	@ unaligned
	ldrb	r3, [ip]	@ zero_extendqisi2
	str	r0, [lr, #16]	@ unaligned
	str	r1, [lr, #20]	@ unaligned
	strb	r3, [lr, #24]
	ldr	r3, [sp, #4]
	ldr	r2, [r4]
	str	r3, [r4, #4]
	mov	r0, r4
	strb	r5, [r2, r3]
	add	sp, sp, #8
	@ sp needed
	pop	{r4, r5, r6, pc}
.L512:
	add	r3, r0, #8
	mov	r2, #17
	str	r2, [r1, #-4]!
	str	r3, [r0]
	mov	r2, #0
	bl	_ZNSt7__cxx1112basic_stringIcSt11char_traitsIcESaIcEE9_M_createERjj(PLT)
	ldr	ip, .L514+8
	ldr	r6, [sp, #4]
.LPIC37:
	add	ip, pc, ip
	str	r6, [r4, #8]
	mov	r5, #0
	str	r0, [r4]
	mov	lr, r0
	ldmia	ip!, {r0, r1, r2, r3}
	ldrb	ip, [ip]	@ zero_extendqisi2
	str	r0, [lr]	@ unaligned
	str	r1, [lr, #4]	@ unaligned
	strb	ip, [lr, #16]
	str	r2, [lr, #8]	@ unaligned
	str	r3, [lr, #12]	@ unaligned
	ldr	r3, [sp, #4]
	ldr	r2, [r4]
	str	r3, [r4, #4]
	strb	r5, [r2, r3]
	b	.L507
.L515:
	.align	2
.L514:
	.word	.LC8-(.LPIC39+8)
	.word	.LC7-(.LPIC38+8)
	.word	.LC6-(.LPIC37+8)
	.fnend
	.size	_ZNK4asio5error6detail17addrinfo_category7messageB5cxx11Ei, .-_ZNK4asio5error6detail17addrinfo_category7messageB5cxx11Ei
	.section	.text._ZNK4asio5error6detail14netdb_category7messageB5cxx11Ei,"axG",%progbits,_ZNK4asio5error6detail14netdb_category7messageB5cxx11Ei,comdat
	.align	2
	.weak	_ZNK4asio5error6detail14netdb_category7messageB5cxx11Ei
	.syntax unified
	.arm
	.fpu vfp
	.type	_ZNK4asio5error6detail14netdb_category7messageB5cxx11Ei, %function
_ZNK4asio5error6detail14netdb_category7messageB5cxx11Ei:
	.fnstart
.LFB2086:
	@ args = 0, pretend = 0, frame = 8
	@ frame_needed = 0, uses_anonymous_args = 0
	push	{r4, r5, r6, lr}
	.save {r4, r5, r6, lr}
	cmp	r2, #1
	.pad #8
	sub	sp, sp, #8
	add	r1, sp, #8
	mov	r4, r0
	beq	.L529
	cmp	r2, #2
	beq	.L530
	cmp	r2, #4
	beq	.L531
	cmp	r2, #3
	beq	.L532
	add	r3, r0, #8
	mov	r2, #16
	str	r2, [r1, #-4]!
	str	r3, [r0]
	mov	r2, #0
	bl	_ZNSt7__cxx1112basic_stringIcSt11char_traitsIcESaIcEE9_M_createERjj(PLT)
	ldr	ip, .L533
	ldr	r5, [sp, #4]
.LPIC44:
	add	ip, pc, ip
	str	r5, [r4, #8]
	str	r0, [r4]
	mov	lr, r0
	ldmia	ip!, {r0, r1, r2, r3}
	mov	ip, #0
	str	r0, [lr]	@ unaligned
	str	r1, [lr, #4]	@ unaligned
	str	r2, [lr, #8]	@ unaligned
	str	r3, [lr, #12]	@ unaligned
	ldr	r3, [sp, #4]
	ldr	r2, [r4]
	str	r3, [r4, #4]
	strb	ip, [r2, r3]
.L516:
	mov	r0, r4
	add	sp, sp, #8
	@ sp needed
	pop	{r4, r5, r6, pc}
.L532:
	add	r3, r0, #8
	mov	r2, #55
	str	r2, [r1, #-4]!
	str	r3, [r0]
	mov	r2, #0
	bl	_ZNSt7__cxx1112basic_stringIcSt11char_traitsIcESaIcEE9_M_createERjj(PLT)
	ldr	r5, .L533+4
	ldr	r3, [sp, #4]
.LPIC43:
	add	r5, pc, r5
	add	r6, r5, #48
	str	r3, [r4, #8]
	mov	lr, r0
	str	r0, [r4]
.L524:
	mov	ip, r5
	add	lr, lr, #16
	ldmia	ip!, {r0, r1, r2, r3}
	add	r5, r5, #16
	cmp	ip, r6
	str	r0, [lr, #-16]	@ unaligned
	str	r1, [lr, #-12]	@ unaligned
	str	r2, [lr, #-8]	@ unaligned
	str	r3, [lr, #-4]	@ unaligned
	bne	.L524
	ldrh	r2, [r5, #4]	@ unaligned
	ldrb	r3, [r5, #6]	@ zero_extendqisi2
	ldr	r0, [r5]
	strh	r2, [lr, #4]	@ unaligned
	strb	r3, [lr, #6]
	str	r0, [lr]	@ unaligned
	ldr	r3, [sp, #4]
	ldr	r2, [r4]
	mov	r1, #0
	str	r3, [r4, #4]
	strb	r1, [r2, r3]
	b	.L516
.L529:
	add	r3, r0, #8
	mov	r2, #30
	str	r2, [r1, #-4]!
	str	r3, [r0]
	mov	r2, #0
	bl	_ZNSt7__cxx1112basic_stringIcSt11char_traitsIcESaIcEE9_M_createERjj(PLT)
	ldr	ip, .L533+8
	ldr	r6, [sp, #4]
.LPIC40:
	add	ip, pc, ip
	str	r6, [r4, #8]
	mov	r5, #0
	str	r0, [r4]
	mov	lr, r0
	ldmia	ip!, {r0, r1, r2, r3}
	str	r0, [lr]	@ unaligned
	str	r1, [lr, #4]	@ unaligned
	str	r2, [lr, #8]	@ unaligned
	ldmia	ip!, {r0, r1, r2}
	str	r3, [lr, #12]	@ unaligned
	ldrh	r3, [ip]	@ unaligned
	str	r0, [lr, #16]	@ unaligned
	str	r1, [lr, #20]	@ unaligned
	strh	r3, [lr, #28]	@ unaligned
	str	r2, [lr, #24]	@ unaligned
	ldr	r3, [sp, #4]
	ldr	r2, [r4]
	str	r3, [r4, #4]
	strb	r5, [r2, r3]
	b	.L516
.L530:
	add	r3, r0, #8
	mov	r2, #51
	str	r2, [r1, #-4]!
	str	r3, [r0]
	mov	r2, #0
	bl	_ZNSt7__cxx1112basic_stringIcSt11char_traitsIcESaIcEE9_M_createERjj(PLT)
	ldr	r5, .L533+12
	ldr	r3, [sp, #4]
.LPIC41:
	add	r5, pc, r5
	add	r6, r5, #48
	str	r3, [r4, #8]
	mov	lr, r0
	str	r0, [r4]
.L520:
	mov	ip, r5
	add	lr, lr, #16
	ldmia	ip!, {r0, r1, r2, r3}
	add	r5, r5, #16
	cmp	ip, r6
	str	r0, [lr, #-16]	@ unaligned
	str	r1, [lr, #-12]	@ unaligned
	str	r2, [lr, #-8]	@ unaligned
	str	r3, [lr, #-4]	@ unaligned
	bne	.L520
	ldrh	r2, [r5]	@ unaligned
	ldrb	r3, [r5, #2]	@ zero_extendqisi2
	mov	r1, #0
	strh	r2, [lr]	@ unaligned
	strb	r3, [lr, #2]
	ldr	r3, [sp, #4]
	ldr	r2, [r4]
	str	r3, [r4, #4]
	strb	r1, [r2, r3]
	b	.L516
.L531:
	add	r3, r0, #8
	mov	r2, #56
	str	r2, [r1, #-4]!
	str	r3, [r0]
	mov	r2, #0
	bl	_ZNSt7__cxx1112basic_stringIcSt11char_traitsIcESaIcEE9_M_createERjj(PLT)
	ldr	r5, .L533+16
	ldr	r3, [sp, #4]
.LPIC42:
	add	r5, pc, r5
	add	r6, r5, #48
	str	r3, [r4, #8]
	mov	lr, r0
	str	r0, [r4]
.L522:
	mov	ip, r5
	add	lr, lr, #16
	ldmia	ip!, {r0, r1, r2, r3}
	add	r5, r5, #16
	cmp	ip, r6
	str	r0, [lr, #-16]	@ unaligned
	str	r1, [lr, #-12]	@ unaligned
	str	r2, [lr, #-8]	@ unaligned
	str	r3, [lr, #-4]	@ unaligned
	bne	.L522
	ldmia	r5!, {r0, r1}
	mov	ip, #0
	str	r0, [lr]	@ unaligned
	str	r1, [lr, #4]	@ unaligned
	ldr	r3, [sp, #4]
	ldr	r2, [r4]
	str	r3, [r4, #4]
	strb	ip, [r2, r3]
	b	.L516
.L534:
	.align	2
.L533:
	.word	.LC13-(.LPIC44+8)
	.word	.LC12-(.LPIC43+8)
	.word	.LC9-(.LPIC40+8)
	.word	.LC10-(.LPIC41+8)
	.word	.LC11-(.LPIC42+8)
	.fnend
	.size	_ZNK4asio5error6detail14netdb_category7messageB5cxx11Ei, .-_ZNK4asio5error6detail14netdb_category7messageB5cxx11Ei
	.section	.text._ZNK4asio5error6detail13misc_category7messageB5cxx11Ei,"axG",%progbits,_ZNK4asio5error6detail13misc_category7messageB5cxx11Ei,comdat
	.align	2
	.weak	_ZNK4asio5error6detail13misc_category7messageB5cxx11Ei
	.syntax unified
	.arm
	.fpu vfp
	.type	_ZNK4asio5error6detail13misc_category7messageB5cxx11Ei, %function
_ZNK4asio5error6detail13misc_category7messageB5cxx11Ei:
	.fnstart
.LFB2098:
	@ args = 0, pretend = 0, frame = 8
	@ frame_needed = 0, uses_anonymous_args = 0
	cmp	r2, #1
	push	{r4, r5, r6, lr}
	.save {r4, r5, r6, lr}
	mov	r4, r0
	.pad #8
	sub	sp, sp, #8
	beq	.L544
	cmp	r2, #2
	beq	.L545
	cmp	r2, #3
	beq	.L546
	cmp	r2, #4
	beq	.L547
	ldr	ip, .L548
	add	r3, r0, #8
.LPIC49:
	add	ip, pc, ip
	mov	r5, #15
	ldmia	ip!, {r0, r1, r2}
	mov	lr, #0
	str	r3, [r4]
	str	r5, [r4, #4]
	ldrh	r6, [ip]	@ unaligned
	ldrb	ip, [ip, #2]	@ zero_extendqisi2
	str	r0, [r4, #8]	@ unaligned
	str	r1, [r4, #12]	@ unaligned
	str	r2, [r4, #16]	@ unaligned
	strh	r6, [r4, #20]	@ unaligned
	strb	ip, [r4, #22]
	strb	lr, [r4, #23]
.L535:
	mov	r0, r4
	add	sp, sp, #8
	@ sp needed
	pop	{r4, r5, r6, pc}
.L547:
	add	r1, sp, #8
	add	r3, r0, #8
	mov	r2, #57
	str	r2, [r1, #-4]!
	str	r3, [r0]
	mov	r2, #0
	bl	_ZNSt7__cxx1112basic_stringIcSt11char_traitsIcESaIcEE9_M_createERjj(PLT)
	ldr	r5, .L548+4
	ldr	r3, [sp, #4]
.LPIC48:
	add	r5, pc, r5
	add	r6, r5, #48
	str	r3, [r4, #8]
	mov	lr, r0
	str	r0, [r4]
.L541:
	mov	ip, r5
	add	lr, lr, #16
	ldmia	ip!, {r0, r1, r2, r3}
	add	r5, r5, #16
	cmp	ip, r6
	str	r0, [lr, #-16]	@ unaligned
	str	r1, [lr, #-12]	@ unaligned
	str	r2, [lr, #-8]	@ unaligned
	str	r3, [lr, #-4]	@ unaligned
	bne	.L541
	ldmia	r5!, {r0, r1}
	mov	ip, #0
	ldrb	r3, [r5]	@ zero_extendqisi2
	str	r0, [lr]	@ unaligned
	str	r1, [lr, #4]	@ unaligned
	strb	r3, [lr, #8]
	ldr	r3, [sp, #4]
	ldr	r2, [r4]
	str	r3, [r4, #4]
	strb	ip, [r2, r3]
	b	.L535
.L544:
	ldr	ip, .L548+8
	add	r3, r0, #8
.LPIC45:
	add	ip, pc, ip
	mov	lr, #12
	ldmia	ip!, {r0, r1, r2}
	mov	ip, #0
	str	r3, [r4]
	str	lr, [r4, #4]
	str	r0, [r4, #8]	@ unaligned
	str	r1, [r4, #12]	@ unaligned
	str	r2, [r4, #16]	@ unaligned
	strb	ip, [r4, #20]
	b	.L535
.L545:
	ldr	r2, .L548+12
	add	r3, r0, #8
.LPIC46:
	add	r2, pc, r2
	mov	lr, #11
	ldmia	r2!, {r0, r1}
	mov	ip, #0
	str	r3, [r4]
	ldrh	r5, [r2]	@ unaligned
	ldrb	r2, [r2, #2]	@ zero_extendqisi2
	str	r0, [r4, #8]	@ unaligned
	str	r1, [r4, #12]	@ unaligned
	strh	r5, [r4, #16]	@ unaligned
	strb	r2, [r4, #18]
	str	lr, [r4, #4]
	strb	ip, [r4, #19]
	b	.L535
.L546:
	add	r1, sp, #8
	add	r3, r0, #8
	mov	r2, #17
	str	r2, [r1, #-4]!
	str	r3, [r0]
	mov	r2, #0
	bl	_ZNSt7__cxx1112basic_stringIcSt11char_traitsIcESaIcEE9_M_createERjj(PLT)
	ldr	ip, .L548+16
	ldr	r6, [sp, #4]
.LPIC47:
	add	ip, pc, ip
	str	r6, [r4, #8]
	mov	r5, #0
	str	r0, [r4]
	mov	lr, r0
	ldmia	ip!, {r0, r1, r2, r3}
	ldrb	ip, [ip]	@ zero_extendqisi2
	str	r0, [lr]	@ unaligned
	str	r1, [lr, #4]	@ unaligned
	strb	ip, [lr, #16]
	str	r2, [lr, #8]	@ unaligned
	str	r3, [lr, #12]	@ unaligned
	ldr	r3, [sp, #4]
	ldr	r2, [r4]
	str	r3, [r4, #4]
	strb	r5, [r2, r3]
	b	.L535
.L549:
	.align	2
.L548:
	.word	.LC18-(.LPIC49+8)
	.word	.LC17-(.LPIC48+8)
	.word	.LC14-(.LPIC45+8)
	.word	.LC15-(.LPIC46+8)
	.word	.LC16-(.LPIC47+8)
	.fnend
	.size	_ZNK4asio5error6detail13misc_category7messageB5cxx11Ei, .-_ZNK4asio5error6detail13misc_category7messageB5cxx11Ei
	.section	.text._ZN4asio6detail23descriptor_read_op_baseINS_17mutable_buffers_1EE10do_performEPNS0_10reactor_opE,"axG",%progbits,_ZN4asio6detail23descriptor_read_op_baseINS_17mutable_buffers_1EE10do_performEPNS0_10reactor_opE,comdat
	.align	2
	.weak	_ZN4asio6detail23descriptor_read_op_baseINS_17mutable_buffers_1EE10do_performEPNS0_10reactor_opE
	.syntax unified
	.arm
	.fpu vfp
	.type	_ZN4asio6detail23descriptor_read_op_baseINS_17mutable_buffers_1EE10do_performEPNS0_10reactor_opE, %function
_ZN4asio6detail23descriptor_read_op_baseINS_17mutable_buffers_1EE10do_performEPNS0_10reactor_opE:
	.fnstart
.LFB8740:
	@ args = 0, pretend = 0, frame = 32
	@ frame_needed = 0, uses_anonymous_args = 0
	ldr	r3, .L610
	push	{r4, r5, r6, r7, r8, r9, r10, fp, lr}
	.save {r4, r5, r6, r7, r8, r9, r10, fp, lr}
	.pad #36
	sub	sp, sp, #36
.LPIC50:
	add	r3, pc, r3
	mov	r4, r3
	ldr	r2, [r0, #32]
	str	r3, [sp, #4]
	ldr	r3, [r0, #36]
	mov	r5, r0
	str	r3, [sp, #24]
	str	r3, [sp, #28]
	str	r2, [sp, #20]
	bl	__errno_location(PLT)
	ldr	r3, .L610+4
	mov	r1, r4
	ldr	r2, .L610+8
	ldr	r6, [r1, r3]
	ldr	r3, .L610+12
	ldr	r4, [r4, r2]
.LPIC51:
	add	r3, pc, r3
	str	r3, [sp, #8]
	ldr	r3, .L610+16
	ldr	fp, [r5, #28]
.LPIC53:
	add	r3, pc, r3
	str	r3, [sp, #12]
	add	r10, sp, #20
	mov	r9, #0
	mov	r7, r0
.L563:
	mov	r2, #1
	str	r9, [r7]
	mov	r1, r10
	mov	r0, fp
	bl	readv(PLT)
	ldr	r3, [r7]
	ldrb	r2, [r4]	@ zero_extendqisi2
	mcr	p15, 0, r0, c7, c10, 5
	tst	r2, #1
	mov	r8, r0
	beq	.L601
.L552:
	cmp	r8, #0
	str	r3, [r5, #12]
	str	r6, [r5, #16]
	beq	.L602
.L554:
	ldrb	r3, [r4]	@ zero_extendqisi2
	mcr	p15, 0, r0, c7, c10, 5
	tst	r3, #1
	beq	.L603
.L560:
	ldr	r3, [r5, #16]
	cmp	r3, r6
	beq	.L604
.L562:
	ldrb	r3, [r4]	@ zero_extendqisi2
	mcr	p15, 0, r0, c7, c10, 5
	tst	r3, #1
	beq	.L605
.L565:
	ldr	r3, [r5, #16]
	cmp	r3, r6
	beq	.L606
.L566:
	ldrb	r3, [r4]	@ zero_extendqisi2
	mcr	p15, 0, r0, c7, c10, 5
	tst	r3, #1
	beq	.L607
.L569:
	ldr	r3, [r5, #16]
	cmp	r3, r6
	beq	.L608
.L570:
	cmp	r8, #0
	ble	.L609
	bl	_ZNSt3_V215system_categoryEv(PLT)
	mov	r3, #0
	str	r3, [r5, #12]
	mov	r3, #1
	str	r8, [r5, #20]
	str	r0, [r5, #16]
	mov	r0, r3
	add	sp, sp, #36
	@ sp needed
	pop	{r4, r5, r6, r7, r8, r9, r10, fp, pc}
.L601:
	mov	r0, r4
	str	r3, [sp]
	bl	__cxa_guard_acquire(PLT)
	ldr	r3, [sp]
	cmp	r0, #0
	beq	.L552
	mov	r0, r4
	bl	__cxa_guard_release(PLT)
	ldr	r3, [sp, #4]
	ldr	r1, .L610+20
	ldr	r2, [sp, #8]
	mov	r0, r6
	ldr	r1, [r3, r1]
	bl	__aeabi_atexit(PLT)
	ldr	r3, [sp]
	cmp	r8, #0
	str	r3, [r5, #12]
	str	r6, [r5, #16]
	bne	.L554
.L602:
	ldr	r2, [sp, #4]
	ldr	r3, .L610+24
	ldr	r4, [r2, r3]
	ldrb	r3, [r4]	@ zero_extendqisi2
	mcr	p15, 0, r0, c7, c10, 5
	tst	r3, #1
	beq	.L555
	ldr	r3, .L610+28
	ldr	r4, [r2, r3]
.L556:
	mov	r3, #2
	str	r3, [r5, #12]
	mov	r3, #1
	str	r4, [r5, #16]
.L594:
	mov	r0, r3
	add	sp, sp, #36
	@ sp needed
	pop	{r4, r5, r6, r7, r8, r9, r10, fp, pc}
.L603:
	mov	r0, r4
	bl	__cxa_guard_acquire(PLT)
	cmp	r0, #0
	beq	.L560
	mov	r0, r4
	bl	__cxa_guard_release(PLT)
	ldr	r3, .L610+20
	ldr	r1, [sp, #4]
	ldr	r2, [sp, #12]
	mov	r0, r6
	ldr	r1, [r1, r3]
	bl	__aeabi_atexit(PLT)
	ldr	r3, [r5, #16]
	cmp	r3, r6
	bne	.L562
.L604:
	ldr	r3, [r5, #12]
	cmp	r3, #4
	beq	.L563
	ldrb	r3, [r4]	@ zero_extendqisi2
	mcr	p15, 0, r0, c7, c10, 5
	tst	r3, #1
	bne	.L565
.L605:
	mov	r0, r4
	bl	__cxa_guard_acquire(PLT)
	cmp	r0, #0
	beq	.L565
	mov	r0, r4
	bl	__cxa_guard_release(PLT)
	ldr	r3, .L610+20
	ldr	r1, [sp, #4]
	ldr	r2, .L610+32
	mov	r0, r6
.LPIC54:
	add	r2, pc, r2
	ldr	r1, [r1, r3]
	bl	__aeabi_atexit(PLT)
	b	.L565
.L555:
	mov	r0, r4
	bl	__cxa_guard_acquire(PLT)
	cmp	r0, #0
	bne	.L593
	ldr	r3, .L610+28
	ldr	r2, [sp, #4]
	ldr	r4, [r2, r3]
	b	.L556
.L609:
	mov	r3, #0
	str	r3, [r5, #20]
	mov	r3, #1
	mov	r0, r3
	add	sp, sp, #36
	@ sp needed
	pop	{r4, r5, r6, r7, r8, r9, r10, fp, pc}
.L606:
	ldr	r3, [r5, #12]
	cmp	r3, #11
	bne	.L566
	b	.L567
.L593:
	mov	r0, r4
	bl	__cxa_guard_release(PLT)
	ldr	r0, [sp, #4]
	ldr	r3, .L610+28
	ldr	r1, .L610+36
	ldr	r2, .L610+40
	ldr	r4, [r0, r3]
	ldr	r1, [r0, r1]
.LPIC52:
	add	r2, pc, r2
	mov	r0, r4
	bl	__aeabi_atexit(PLT)
	b	.L556
.L607:
	mov	r0, r4
	bl	__cxa_guard_acquire(PLT)
	cmp	r0, #0
	beq	.L569
	mov	r0, r4
	bl	__cxa_guard_release(PLT)
	ldr	r3, .L610+20
	ldr	r1, [sp, #4]
	ldr	r2, .L610+44
	mov	r0, r6
.LPIC55:
	add	r2, pc, r2
	ldr	r1, [r1, r3]
	bl	__aeabi_atexit(PLT)
	b	.L569
.L608:
	ldr	r3, [r5, #12]
	cmp	r3, #11
	bne	.L570
.L567:
	mov	r3, #0
	b	.L594
.L611:
	.align	2
.L610:
	.word	_GLOBAL_OFFSET_TABLE_-(.LPIC50+8)
	.word	_ZZN4asio15system_categoryEvE8instance(GOT)
	.word	_ZGVZN4asio15system_categoryEvE8instance(GOT)
	.word	__dso_handle-(.LPIC51+8)
	.word	__dso_handle-(.LPIC53+8)
	.word	_ZN4asio6detail15system_categoryD1Ev(GOT)
	.word	_ZGVZN4asio5error17get_misc_categoryEvE8instance(GOT)
	.word	_ZZN4asio5error17get_misc_categoryEvE8instance(GOT)
	.word	__dso_handle-(.LPIC54+8)
	.word	_ZN4asio5error6detail13misc_categoryD1Ev(GOT)
	.word	__dso_handle-(.LPIC52+8)
	.word	__dso_handle-(.LPIC55+8)
	.fnend
	.size	_ZN4asio6detail23descriptor_read_op_baseINS_17mutable_buffers_1EE10do_performEPNS0_10reactor_opE, .-_ZN4asio6detail23descriptor_read_op_baseINS_17mutable_buffers_1EE10do_performEPNS0_10reactor_opE
	.section	.text._ZN7asiopal13SerialChannelD2Ev,"axG",%progbits,_ZN7asiopal13SerialChannelD5Ev,comdat
	.align	2
	.weak	_ZN7asiopal13SerialChannelD2Ev
	.syntax unified
	.arm
	.fpu vfp
	.type	_ZN7asiopal13SerialChannelD2Ev, %function
_ZN7asiopal13SerialChannelD2Ev:
	.fnstart
.LFB9016:
	@ args = 0, pretend = 0, frame = 40
	@ frame_needed = 0, uses_anonymous_args = 0
	push	{r4, r5, r6, r7, r8, r9, r10, fp, lr}
	.save {r4, r5, r6, r7, r8, r9, r10, fp, lr}
	mov	r6, r0
	ldr	r9, .L772
	ldr	r3, .L772+4
.LPIC56:
	add	r9, pc, r9
	ldr	r4, [r0, #32]
	ldr	r3, [r9, r3]
	cmn	r4, #1
	add	r3, r3, #8
	.pad #44
	sub	sp, sp, #44
	str	r3, [r0]
	beq	.L613
	ldr	r3, [r0, #40]
	cmp	r3, #0
	beq	.L681
	ldr	r2, [r0, #44]
	add	r3, r3, #20
	str	r3, [sp, #20]
	mov	r0, r3
	ldr	r3, [r2, #20]
	ldrb	r5, [r6, #36]	@ zero_extendqisi2
	str	r3, [sp, #16]
	bl	pthread_mutex_lock(PLT)
	ldr	r1, [r6, #40]
	ldrb	r0, [r1, #80]	@ zero_extendqisi2
	cmp	r0, #0
	bne	.L615
	tst	r5, #4
	bne	.L762
.L616:
	mov	r5, #0
	ldr	r3, .L772+8
	mov	r7, r5
	mov	r10, #56
.LPIC57:
	add	r3, pc, r3
	str	r3, [sp, #12]
	str	r5, [sp, #8]
	str	r5, [sp]
	str	r9, [sp, #4]
.L626:
	ldr	r4, [r1, r10]
	cmp	r4, #0
	beq	.L617
	ldr	r3, [sp]
	ldr	r1, .L772+12
	ldr	r2, .L772+16
	lsl	r9, r3, #3
	ldr	r3, [sp, #4]
	ldr	r8, [r3, r1]
	ldr	fp, [r3, r2]
	b	.L619
.L621:
	ldr	r1, [r6, #40]
	mov	r3, #125
	add	r0, r1, r9
	str	r3, [r4, #12]
	ldr	r2, [r0, #56]
	str	fp, [r4, #16]
	cmp	r2, #0
	beq	.L623
	ldr	ip, [r2]
	cmp	ip, #0
	str	ip, [r0, #56]
	streq	ip, [r0, #60]
	str	r7, [r2]
.L623:
	cmp	r5, #0
	str	r7, [r4]
	strne	r4, [r5]
	beq	.L763
	ldr	r2, [r1, r10]
	mov	r5, r4
	cmp	r2, #0
	beq	.L617
.L769:
	mov	r4, r2
.L619:
	ldrb	r2, [r8]	@ zero_extendqisi2
	mcr	p15, 0, r0, c7, c10, 5
	tst	r2, #1
	bne	.L621
	mov	r0, r8
	bl	__cxa_guard_acquire(PLT)
	cmp	r0, #0
	beq	.L621
	mov	r0, r8
	bl	__cxa_guard_release(PLT)
	ldr	r3, [sp, #4]
	ldr	r1, .L772+20
	ldr	r2, [sp, #12]
	mov	r0, fp
	ldr	r1, [r3, r1]
	bl	__aeabi_atexit(PLT)
	b	.L621
.L631:
	add	r7, r4, #24
	mov	r0, r7
	bl	pthread_mutex_lock(PLT)
	ldr	r3, [r4, #132]
	cmp	r3, #0
	ldreq	r3, [sp, #8]
	ldrne	r2, [sp, #8]
	streq	r3, [r4, #128]
	strne	r2, [r3]
	ldr	r3, [r4, #96]
	str	r5, [r4, #132]
	orr	r3, r3, #1
	cmp	r3, #1
	str	r3, [r4, #96]
	add	r5, r4, #48
	beq	.L642
	mov	r0, r7
	bl	pthread_mutex_unlock(PLT)
	mov	r0, r5
	bl	pthread_cond_signal(PLT)
.L753:
	ldr	r4, [r6, #32]
	cmn	r4, #1
	beq	.L613
.L681:
	bl	__errno_location(PLT)
	mov	r3, #0
	str	r3, [r0]
	mov	r7, r0
	mov	r0, r4
	bl	close(PLT)
	ldr	r3, .L772+12
	ldr	r8, [r7]
	ldr	r5, [r9, r3]
	ldrb	r3, [r5]	@ zero_extendqisi2
	mcr	p15, 0, r0, c7, c10, 5
	tst	r3, #1
	mov	r10, r0
	beq	.L764
.L646:
	cmp	r10, #0
	bne	.L765
.L613:
	ldr	r3, .L772+24
	ldr	r4, [r6, #24]
	ldr	r3, [r9, r3]
	cmp	r4, #0
	add	r3, r3, #8
	str	r3, [r6]
	beq	.L658
	ldr	r3, .L772+28
	ldr	r3, [r9, r3]
	cmp	r3, #0
	beq	.L659
	add	r3, r4, #28
	mcr	p15, 0, r0, c7, c10, 5
.L750:
	ldrex	r2, [r3]
	sub	r1, r2, #1
	strex	r0, r1, [r3]
	cmp	r0, #0
	bne	.L750
	cmp	r2, #1
	mcr	p15, 0, r0, c7, c10, 5
	beq	.L766
.L658:
	ldr	r4, [r6, #16]
	cmp	r4, #0
	beq	.L664
	ldr	r3, .L772+28
	ldr	r3, [r9, r3]
	cmp	r3, #0
	beq	.L665
	add	r3, r4, #28
	mcr	p15, 0, r0, c7, c10, 5
.L749:
	ldrex	r2, [r3]
	sub	r1, r2, #1
	strex	r0, r1, [r3]
	cmp	r0, #0
	bne	.L749
	cmp	r2, #1
	mcr	p15, 0, r0, c7, c10, 5
	beq	.L767
.L664:
	ldr	r0, [r6, #8]
	cmp	r0, #0
	beq	.L701
	ldr	r3, .L772+28
	ldr	r3, [r9, r3]
	cmp	r3, #0
	beq	.L671
	add	r3, r0, #32
	mcr	p15, 0, r0, c7, c10, 5
.L748:
	ldrex	r2, [r3]
	sub	r1, r2, #1
	strex	ip, r1, [r3]
	cmp	ip, #0
	bne	.L748
	cmp	r2, #1
	mcr	p15, 0, r0, c7, c10, 5
	beq	.L768
.L701:
	mov	r0, r6
	add	sp, sp, #44
	@ sp needed
	pop	{r4, r5, r6, r7, r8, r9, r10, fp, pc}
.L659:
	ldr	r3, [r4, #28]
	cmp	r3, #1
	sub	r3, r3, #1
	str	r3, [r4, #28]
	bne	.L658
	ldr	r3, [r4]
	mov	r0, r4
	ldr	r3, [r3, #8]
	blx	r3
	mcr	p15, 0, r0, c7, c10, 5
	ldr	r2, [r4, #32]
	sub	r3, r2, #1
	str	r3, [r4, #32]
	b	.L679
.L665:
	ldr	r3, [r4, #28]
	cmp	r3, #1
	sub	r3, r3, #1
	str	r3, [r4, #28]
	bne	.L664
	ldr	r3, [r4]
	mov	r0, r4
	ldr	r3, [r3, #8]
	blx	r3
	mcr	p15, 0, r0, c7, c10, 5
	ldr	r2, [r4, #32]
	sub	r3, r2, #1
	str	r3, [r4, #32]
	b	.L680
.L764:
	mov	r0, r5
	bl	__cxa_guard_acquire(PLT)
	cmp	r0, #0
	beq	.L646
	mov	r0, r5
	bl	__cxa_guard_release(PLT)
	ldr	r3, .L772+16
	ldr	r1, .L772+20
	ldr	r2, .L772+32
	ldr	r0, [r9, r3]
.LPIC58:
	add	r2, pc, r2
	ldr	r1, [r9, r1]
	bl	__aeabi_atexit(PLT)
	b	.L646
.L763:
	ldr	r2, [r1, r10]
	str	r4, [sp, #8]
	cmp	r2, #0
	mov	r5, r4
	bne	.L769
.L617:
	ldr	r3, [sp]
	add	r10, r10, #8
	add	r3, r3, #1
	cmp	r3, #3
	str	r3, [sp]
	bne	.L626
	ldr	r7, [sp, #16]
	mvn	r2, #0
	mov	r3, #1
	str	r2, [r1, #48]
	strb	r3, [r1, #80]
	add	r8, r7, #72
	ldr	r0, [sp, #20]
	ldr	r9, [sp, #4]
	bl	pthread_mutex_unlock(PLT)
	mov	r0, r8
	ldr	r4, [r6, #40]
	bl	pthread_mutex_lock(PLT)
	ldr	r3, [r7, #96]
	mov	r7, #0
	cmp	r4, r3
	mov	r0, r8
	ldreq	r2, [sp, #16]
	ldreq	r3, [r4, #12]
	streq	r3, [r2, #96]
	ldr	r3, [r4, #16]
	cmp	r3, #0
	ldrne	r2, [r4, #12]
	strne	r2, [r3, #12]
	ldr	r3, [r4, #12]
	cmp	r3, #0
	ldrne	r2, [r4, #16]
	strne	r2, [r3, #16]
	ldr	r2, [sp, #16]
	mov	r8, r2
	ldr	r3, [r2, #100]
	str	r7, [r4, #16]
	str	r3, [r4, #12]
	str	r4, [r2, #100]
	bl	pthread_mutex_unlock(PLT)
	ldr	r3, [sp, #8]
	str	r7, [r6, #40]
	cmp	r3, r7
	ldr	r4, [r8, #20]
	beq	.L753
	ldrb	r3, [r4, #20]	@ zero_extendqisi2
	cmp	r3, r7
	beq	.L631
	ldr	r3, .L772+36
	ldr	r3, [r9, r3]
	ldr	r0, [r3]
	bl	pthread_getspecific(PLT)
	cmp	r0, #0
	bne	.L741
	b	.L631
.L634:
	ldr	r0, [r0, #8]
	cmp	r0, #0
	beq	.L631
.L741:
	ldr	r3, [r0]
	cmp	r4, r3
	bne	.L634
	ldr	r3, [r0, #4]
	cmp	r3, #0
	beq	.L631
	ldr	r2, [r3, #8]
	cmp	r2, #0
	ldrne	r1, [sp, #8]
	ldreq	r2, [sp, #8]
	strne	r1, [r2]
	streq	r2, [r3, #4]
	str	r5, [r3, #8]
	b	.L753
.L671:
	ldr	r2, [r0, #32]
	sub	r3, r2, #1
	cmp	r2, #1
	str	r3, [r0, #32]
	bne	.L701
.L768:
	mcr	p15, 0, r0, c7, c10, 5
	ldr	r3, [r0]
	ldr	r3, [r3, #12]
	blx	r3
	mov	r0, r6
	add	sp, sp, #44
	@ sp needed
	pop	{r4, r5, r6, r7, r8, r9, r10, fp, pc}
.L615:
	ldr	r0, [sp, #20]
	bl	pthread_mutex_unlock(PLT)
	ldr	r4, [r6, #32]
	cmn	r4, #1
	bne	.L681
	b	.L613
.L765:
	ldrb	r3, [r5]	@ zero_extendqisi2
	mcr	p15, 0, r0, c7, c10, 5
	tst	r3, #1
	beq	.L770
.L650:
	cmp	r8, #11
	beq	.L771
	ldrb	r3, [r5]	@ zero_extendqisi2
	mcr	p15, 0, r0, c7, c10, 5
	tst	r3, #1
	bne	.L613
	mov	r0, r5
	bl	__cxa_guard_acquire(PLT)
	cmp	r0, #0
	beq	.L613
	mov	r0, r5
	bl	__cxa_guard_release(PLT)
	ldr	r3, .L772+16
	ldr	r1, .L772+20
	ldr	r2, .L772+40
	ldr	r0, [r9, r3]
.LPIC60:
	add	r2, pc, r2
	ldr	r1, [r9, r1]
	bl	__aeabi_atexit(PLT)
	b	.L613
.L766:
	ldr	r3, [r4]
	mov	r0, r4
	ldr	r3, [r3, #8]
	blx	r3
	add	r3, r4, #32
	mcr	p15, 0, r0, c7, c10, 5
	mcr	p15, 0, r0, c7, c10, 5
.L747:
	ldrex	r2, [r3]
	sub	r1, r2, #1
	strex	r0, r1, [r3]
	cmp	r0, #0
	bne	.L747
	mcr	p15, 0, r0, c7, c10, 5
.L679:
	cmp	r2, #1
	bne	.L658
	ldr	r3, [r4]
	mov	r0, r4
	ldr	r3, [r3, #12]
	blx	r3
	b	.L658
.L767:
	ldr	r3, [r4]
	mov	r0, r4
	ldr	r3, [r3, #8]
	blx	r3
	add	r3, r4, #32
	mcr	p15, 0, r0, c7, c10, 5
	mcr	p15, 0, r0, c7, c10, 5
.L746:
	ldrex	r2, [r3]
	sub	r1, r2, #1
	strex	r0, r1, [r3]
	cmp	r0, #0
	bne	.L746
	mcr	p15, 0, r0, c7, c10, 5
.L680:
	cmp	r2, #1
	bne	.L664
	ldr	r3, [r4]
	mov	r0, r4
	ldr	r3, [r3, #12]
	blx	r3
	b	.L664
.L762:
	str	r0, [sp, #24]
	str	r0, [sp, #28]
	str	r0, [sp, #32]
	str	r0, [sp, #36]
	ldr	r0, [sp, #16]
	add	ip, sp, #24
	mov	r1, #2
	mov	r2, r4
	mov	r3, ip
	ldr	r0, [r0, #56]
	bl	epoll_ctl(PLT)
	ldr	r1, [r6, #40]
	b	.L616
.L771:
	add	r2, sp, #40
	mov	r8, #0
	str	r8, [r2, #-16]!
	ldr	r1, .L772+44
	mov	r0, r4
	bl	ioctl(PLT)
	ldrb	r3, [r6, #36]	@ zero_extendqisi2
	mov	r0, r4
	bic	r3, r3, #3
	strb	r3, [r6, #36]
	str	r8, [r7]
	bl	close(PLT)
	ldrb	r3, [r5]	@ zero_extendqisi2
	mcr	p15, 0, r0, c7, c10, 5
	tst	r3, #1
	bne	.L613
	mov	r0, r5
	bl	__cxa_guard_acquire(PLT)
	cmp	r0, #0
	beq	.L613
	mov	r0, r5
	bl	__cxa_guard_release(PLT)
	ldr	r3, .L772+16
	ldr	r1, .L772+20
	ldr	r2, .L772+48
	ldr	r0, [r9, r3]
.LPIC61:
	add	r2, pc, r2
	ldr	r1, [r9, r1]
	bl	__aeabi_atexit(PLT)
	b	.L613
.L642:
	ldrb	r2, [r4, #120]	@ zero_extendqisi2
	cmp	r2, #0
	bne	.L644
	ldr	r1, [r4, #104]
	cmp	r1, #0
	beq	.L644
	strb	r3, [r4, #120]
	add	r3, sp, #24
	add	r0, r1, #48
	mov	ip, #-2147483639
	str	r0, [sp, #32]
	str	r2, [r3, #4]
	str	r2, [r3, #12]
	str	ip, [sp, #24]
	ldr	r0, [r1, #56]
	ldr	r2, [r1, #48]
	mov	r1, #3
	bl	epoll_ctl(PLT)
.L644:
	mov	r0, r7
	bl	pthread_mutex_unlock(PLT)
	b	.L753
.L770:
	mov	r0, r5
	bl	__cxa_guard_acquire(PLT)
	cmp	r0, #0
	beq	.L650
	mov	r0, r5
	bl	__cxa_guard_release(PLT)
	ldr	r3, .L772+16
	ldr	r1, .L772+20
	ldr	r2, .L772+52
	ldr	r0, [r9, r3]
.LPIC59:
	add	r2, pc, r2
	ldr	r1, [r9, r1]
	bl	__aeabi_atexit(PLT)
	b	.L650
.L773:
	.align	2
.L772:
	.word	_GLOBAL_OFFSET_TABLE_-(.LPIC56+8)
	.word	_ZTVN7asiopal13SerialChannelE(GOT)
	.word	__dso_handle-(.LPIC57+8)
	.word	_ZGVZN4asio15system_categoryEvE8instance(GOT)
	.word	_ZZN4asio15system_categoryEvE8instance(GOT)
	.word	_ZN4asio6detail15system_categoryD1Ev(GOT)
	.word	_ZTVN7asiopal13IAsyncChannelE(GOT)
	.word	_ZL28__gthrw___pthread_key_createPjPFvPvE(GOT)
	.word	__dso_handle-(.LPIC58+8)
	.word	_ZN4asio6detail10call_stackINS0_15task_io_serviceENS0_27task_io_service_thread_infoEE4top_E(GOT)
	.word	__dso_handle-(.LPIC60+8)
	.word	21537
	.word	__dso_handle-(.LPIC61+8)
	.word	__dso_handle-(.LPIC59+8)
	.personality	__gxx_personality_v0
	.handlerdata
.LLSDA9016:
	.byte	0xff
	.byte	0xff
	.byte	0x1
	.uleb128 .LLSDACSE9016-.LLSDACSB9016
.LLSDACSB9016:
.LLSDACSE9016:
	.section	.text._ZN7asiopal13SerialChannelD2Ev,"axG",%progbits,_ZN7asiopal13SerialChannelD5Ev,comdat
	.fnend
	.size	_ZN7asiopal13SerialChannelD2Ev, .-_ZN7asiopal13SerialChannelD2Ev
	.weak	_ZN7asiopal13SerialChannelD1Ev
	.set	_ZN7asiopal13SerialChannelD1Ev,_ZN7asiopal13SerialChannelD2Ev
	.section	.text._ZN7asiopal13SerialChannelD0Ev,"axG",%progbits,_ZN7asiopal13SerialChannelD5Ev,comdat
	.align	2
	.weak	_ZN7asiopal13SerialChannelD0Ev
	.syntax unified
	.arm
	.fpu vfp
	.type	_ZN7asiopal13SerialChannelD0Ev, %function
_ZN7asiopal13SerialChannelD0Ev:
	.fnstart
.LFB9018:
	@ args = 0, pretend = 0, frame = 40
	@ frame_needed = 0, uses_anonymous_args = 0
	push	{r4, r5, r6, r7, r8, r9, r10, fp, lr}
	.save {r4, r5, r6, r7, r8, r9, r10, fp, lr}
	mov	r6, r0
	ldr	r9, .L934
	ldr	r3, .L934+4
.LPIC62:
	add	r9, pc, r9
	ldr	r4, [r0, #32]
	ldr	r3, [r9, r3]
	cmn	r4, #1
	add	r3, r3, #8
	.pad #44
	sub	sp, sp, #44
	str	r3, [r0]
	beq	.L775
	ldr	r3, [r0, #40]
	cmp	r3, #0
	beq	.L843
	ldr	r2, [r0, #44]
	add	r3, r3, #20
	str	r3, [sp, #20]
	mov	r0, r3
	ldr	r3, [r2, #20]
	ldrb	r5, [r6, #36]	@ zero_extendqisi2
	str	r3, [sp, #16]
	bl	pthread_mutex_lock(PLT)
	ldr	r1, [r6, #40]
	ldrb	r0, [r1, #80]	@ zero_extendqisi2
	cmp	r0, #0
	bne	.L777
	tst	r5, #4
	bne	.L924
.L778:
	mov	r5, #0
	ldr	r3, .L934+8
	mov	r7, r5
	mov	r10, #56
.LPIC63:
	add	r3, pc, r3
	str	r3, [sp, #12]
	str	r5, [sp, #8]
	str	r5, [sp]
	str	r9, [sp, #4]
.L788:
	ldr	r4, [r1, r10]
	cmp	r4, #0
	beq	.L779
	ldr	r3, [sp]
	ldr	r1, .L934+12
	ldr	r2, .L934+16
	lsl	r9, r3, #3
	ldr	r3, [sp, #4]
	ldr	r8, [r3, r1]
	ldr	fp, [r3, r2]
	b	.L781
.L783:
	ldr	r1, [r6, #40]
	mov	r3, #125
	add	r0, r1, r9
	str	r3, [r4, #12]
	ldr	r2, [r0, #56]
	str	fp, [r4, #16]
	cmp	r2, #0
	beq	.L785
	ldr	ip, [r2]
	cmp	ip, #0
	str	ip, [r0, #56]
	streq	ip, [r0, #60]
	str	r7, [r2]
.L785:
	cmp	r5, #0
	str	r7, [r4]
	strne	r4, [r5]
	beq	.L925
	ldr	r2, [r1, r10]
	mov	r5, r4
	cmp	r2, #0
	beq	.L779
.L931:
	mov	r4, r2
.L781:
	ldrb	r2, [r8]	@ zero_extendqisi2
	mcr	p15, 0, r0, c7, c10, 5
	tst	r2, #1
	bne	.L783
	mov	r0, r8
	bl	__cxa_guard_acquire(PLT)
	cmp	r0, #0
	beq	.L783
	mov	r0, r8
	bl	__cxa_guard_release(PLT)
	ldr	r3, [sp, #4]
	ldr	r1, .L934+20
	ldr	r2, [sp, #12]
	mov	r0, fp
	ldr	r1, [r3, r1]
	bl	__aeabi_atexit(PLT)
	b	.L783
.L793:
	add	r7, r4, #24
	mov	r0, r7
	bl	pthread_mutex_lock(PLT)
	ldr	r3, [r4, #132]
	cmp	r3, #0
	ldreq	r3, [sp, #8]
	ldrne	r2, [sp, #8]
	streq	r3, [r4, #128]
	strne	r2, [r3]
	ldr	r3, [r4, #96]
	str	r5, [r4, #132]
	orr	r3, r3, #1
	cmp	r3, #1
	str	r3, [r4, #96]
	add	r5, r4, #48
	beq	.L804
	mov	r0, r7
	bl	pthread_mutex_unlock(PLT)
	mov	r0, r5
	bl	pthread_cond_signal(PLT)
.L915:
	ldr	r4, [r6, #32]
	cmn	r4, #1
	beq	.L775
.L843:
	bl	__errno_location(PLT)
	mov	r3, #0
	str	r3, [r0]
	mov	r7, r0
	mov	r0, r4
	bl	close(PLT)
	ldr	r3, .L934+12
	ldr	r8, [r7]
	ldr	r5, [r9, r3]
	ldrb	r3, [r5]	@ zero_extendqisi2
	mcr	p15, 0, r0, c7, c10, 5
	tst	r3, #1
	mov	r10, r0
	beq	.L926
.L808:
	cmp	r10, #0
	bne	.L927
.L775:
	ldr	r3, .L934+24
	ldr	r4, [r6, #24]
	ldr	r3, [r9, r3]
	cmp	r4, #0
	add	r3, r3, #8
	str	r3, [r6]
	beq	.L820
	ldr	r3, .L934+28
	ldr	r3, [r9, r3]
	cmp	r3, #0
	beq	.L821
	add	r3, r4, #28
	mcr	p15, 0, r0, c7, c10, 5
.L912:
	ldrex	r2, [r3]
	sub	r1, r2, #1
	strex	r0, r1, [r3]
	cmp	r0, #0
	bne	.L912
	cmp	r2, #1
	mcr	p15, 0, r0, c7, c10, 5
	beq	.L928
.L820:
	ldr	r4, [r6, #16]
	cmp	r4, #0
	beq	.L826
	ldr	r3, .L934+28
	ldr	r3, [r9, r3]
	cmp	r3, #0
	beq	.L827
	add	r3, r4, #28
	mcr	p15, 0, r0, c7, c10, 5
.L911:
	ldrex	r2, [r3]
	sub	r1, r2, #1
	strex	r0, r1, [r3]
	cmp	r0, #0
	bne	.L911
	cmp	r2, #1
	mcr	p15, 0, r0, c7, c10, 5
	beq	.L929
.L826:
	ldr	r0, [r6, #8]
	cmp	r0, #0
	beq	.L832
	ldr	r3, .L934+28
	ldr	r3, [r9, r3]
	cmp	r3, #0
	beq	.L833
	add	r3, r0, #32
	mcr	p15, 0, r0, c7, c10, 5
.L910:
	ldrex	r2, [r3]
	sub	r1, r2, #1
	strex	ip, r1, [r3]
	cmp	ip, #0
	bne	.L910
	cmp	r2, #1
	mcr	p15, 0, r0, c7, c10, 5
	beq	.L930
.L832:
	mov	r0, r6
	mov	r1, #48
	bl	_ZdlPvj(PLT)
	mov	r0, r6
	add	sp, sp, #44
	@ sp needed
	pop	{r4, r5, r6, r7, r8, r9, r10, fp, pc}
.L821:
	ldr	r3, [r4, #28]
	cmp	r3, #1
	sub	r3, r3, #1
	str	r3, [r4, #28]
	bne	.L820
	ldr	r3, [r4]
	mov	r0, r4
	ldr	r3, [r3, #8]
	blx	r3
	mcr	p15, 0, r0, c7, c10, 5
	ldr	r2, [r4, #32]
	sub	r3, r2, #1
	str	r3, [r4, #32]
	b	.L841
.L827:
	ldr	r3, [r4, #28]
	cmp	r3, #1
	sub	r3, r3, #1
	str	r3, [r4, #28]
	bne	.L826
	ldr	r3, [r4]
	mov	r0, r4
	ldr	r3, [r3, #8]
	blx	r3
	mcr	p15, 0, r0, c7, c10, 5
	ldr	r2, [r4, #32]
	sub	r3, r2, #1
	str	r3, [r4, #32]
	b	.L842
.L926:
	mov	r0, r5
	bl	__cxa_guard_acquire(PLT)
	cmp	r0, #0
	beq	.L808
	mov	r0, r5
	bl	__cxa_guard_release(PLT)
	ldr	r3, .L934+16
	ldr	r1, .L934+20
	ldr	r2, .L934+32
	ldr	r0, [r9, r3]
.LPIC64:
	add	r2, pc, r2
	ldr	r1, [r9, r1]
	bl	__aeabi_atexit(PLT)
	b	.L808
.L925:
	ldr	r2, [r1, r10]
	str	r4, [sp, #8]
	cmp	r2, #0
	mov	r5, r4
	bne	.L931
.L779:
	ldr	r3, [sp]
	add	r10, r10, #8
	add	r3, r3, #1
	cmp	r3, #3
	str	r3, [sp]
	bne	.L788
	ldr	r7, [sp, #16]
	mvn	r2, #0
	mov	r3, #1
	str	r2, [r1, #48]
	strb	r3, [r1, #80]
	add	r8, r7, #72
	ldr	r0, [sp, #20]
	ldr	r9, [sp, #4]
	bl	pthread_mutex_unlock(PLT)
	mov	r0, r8
	ldr	r4, [r6, #40]
	bl	pthread_mutex_lock(PLT)
	ldr	r3, [r7, #96]
	mov	r7, #0
	cmp	r4, r3
	mov	r0, r8
	ldreq	r2, [sp, #16]
	ldreq	r3, [r4, #12]
	streq	r3, [r2, #96]
	ldr	r3, [r4, #16]
	cmp	r3, #0
	ldrne	r2, [r4, #12]
	strne	r2, [r3, #12]
	ldr	r3, [r4, #12]
	cmp	r3, #0
	ldrne	r2, [r4, #16]
	strne	r2, [r3, #16]
	ldr	r2, [sp, #16]
	mov	r8, r2
	ldr	r3, [r2, #100]
	str	r7, [r4, #16]
	str	r3, [r4, #12]
	str	r4, [r2, #100]
	bl	pthread_mutex_unlock(PLT)
	ldr	r3, [sp, #8]
	str	r7, [r6, #40]
	cmp	r3, r7
	ldr	r4, [r8, #20]
	beq	.L915
	ldrb	r3, [r4, #20]	@ zero_extendqisi2
	cmp	r3, r7
	beq	.L793
	ldr	r3, .L934+36
	ldr	r3, [r9, r3]
	ldr	r0, [r3]
	bl	pthread_getspecific(PLT)
	cmp	r0, #0
	bne	.L902
	b	.L793
.L796:
	ldr	r0, [r0, #8]
	cmp	r0, #0
	beq	.L793
.L902:
	ldr	r3, [r0]
	cmp	r4, r3
	bne	.L796
	ldr	r3, [r0, #4]
	cmp	r3, #0
	beq	.L793
	ldr	r2, [r3, #8]
	cmp	r2, #0
	ldrne	r1, [sp, #8]
	ldreq	r2, [sp, #8]
	strne	r1, [r2]
	streq	r2, [r3, #4]
	str	r5, [r3, #8]
	b	.L915
.L833:
	ldr	r2, [r0, #32]
	sub	r3, r2, #1
	cmp	r2, #1
	str	r3, [r0, #32]
	bne	.L832
.L930:
	mcr	p15, 0, r0, c7, c10, 5
	ldr	r3, [r0]
	ldr	r3, [r3, #12]
	blx	r3
	b	.L832
.L777:
	ldr	r0, [sp, #20]
	bl	pthread_mutex_unlock(PLT)
	ldr	r4, [r6, #32]
	cmn	r4, #1
	bne	.L843
	b	.L775
.L927:
	ldrb	r3, [r5]	@ zero_extendqisi2
	mcr	p15, 0, r0, c7, c10, 5
	tst	r3, #1
	beq	.L932
.L812:
	cmp	r8, #11
	beq	.L933
	ldrb	r3, [r5]	@ zero_extendqisi2
	mcr	p15, 0, r0, c7, c10, 5
	tst	r3, #1
	bne	.L775
	mov	r0, r5
	bl	__cxa_guard_acquire(PLT)
	cmp	r0, #0
	beq	.L775
	mov	r0, r5
	bl	__cxa_guard_release(PLT)
	ldr	r3, .L934+16
	ldr	r1, .L934+20
	ldr	r2, .L934+40
	ldr	r0, [r9, r3]
.LPIC66:
	add	r2, pc, r2
	ldr	r1, [r9, r1]
	bl	__aeabi_atexit(PLT)
	b	.L775
.L928:
	ldr	r3, [r4]
	mov	r0, r4
	ldr	r3, [r3, #8]
	blx	r3
	add	r3, r4, #32
	mcr	p15, 0, r0, c7, c10, 5
	mcr	p15, 0, r0, c7, c10, 5
.L909:
	ldrex	r2, [r3]
	sub	r1, r2, #1
	strex	r0, r1, [r3]
	cmp	r0, #0
	bne	.L909
	mcr	p15, 0, r0, c7, c10, 5
.L841:
	cmp	r2, #1
	bne	.L820
	ldr	r3, [r4]
	mov	r0, r4
	ldr	r3, [r3, #12]
	blx	r3
	b	.L820
.L929:
	ldr	r3, [r4]
	mov	r0, r4
	ldr	r3, [r3, #8]
	blx	r3
	add	r3, r4, #32
	mcr	p15, 0, r0, c7, c10, 5
	mcr	p15, 0, r0, c7, c10, 5
.L908:
	ldrex	r2, [r3]
	sub	r1, r2, #1
	strex	r0, r1, [r3]
	cmp	r0, #0
	bne	.L908
	mcr	p15, 0, r0, c7, c10, 5
.L842:
	cmp	r2, #1
	bne	.L826
	ldr	r3, [r4]
	mov	r0, r4
	ldr	r3, [r3, #12]
	blx	r3
	b	.L826
.L924:
	str	r0, [sp, #24]
	str	r0, [sp, #28]
	str	r0, [sp, #32]
	str	r0, [sp, #36]
	ldr	r0, [sp, #16]
	add	ip, sp, #24
	mov	r1, #2
	mov	r2, r4
	mov	r3, ip
	ldr	r0, [r0, #56]
	bl	epoll_ctl(PLT)
	ldr	r1, [r6, #40]
	b	.L778
.L933:
	add	r2, sp, #40
	mov	r8, #0
	str	r8, [r2, #-16]!
	ldr	r1, .L934+44
	mov	r0, r4
	bl	ioctl(PLT)
	ldrb	r3, [r6, #36]	@ zero_extendqisi2
	mov	r0, r4
	bic	r3, r3, #3
	strb	r3, [r6, #36]
	str	r8, [r7]
	bl	close(PLT)
	ldrb	r3, [r5]	@ zero_extendqisi2
	mcr	p15, 0, r0, c7, c10, 5
	tst	r3, #1
	bne	.L775
	mov	r0, r5
	bl	__cxa_guard_acquire(PLT)
	cmp	r0, #0
	beq	.L775
	mov	r0, r5
	bl	__cxa_guard_release(PLT)
	ldr	r3, .L934+16
	ldr	r1, .L934+20
	ldr	r2, .L934+48
	ldr	r0, [r9, r3]
.LPIC67:
	add	r2, pc, r2
	ldr	r1, [r9, r1]
	bl	__aeabi_atexit(PLT)
	b	.L775
.L804:
	ldrb	r2, [r4, #120]	@ zero_extendqisi2
	cmp	r2, #0
	bne	.L806
	ldr	r0, [r4, #104]
	cmp	r0, #0
	beq	.L806
	strb	r3, [r4, #120]
	add	r3, sp, #24
	add	r1, r0, #48
	mov	ip, #-2147483639
	str	r1, [sp, #32]
	str	r2, [r3, #4]
	str	r2, [r3, #12]
	str	ip, [sp, #24]
	mov	r1, #3
	ldr	r2, [r0, #48]
	ldr	r0, [r0, #56]
	bl	epoll_ctl(PLT)
.L806:
	mov	r0, r7
	bl	pthread_mutex_unlock(PLT)
	b	.L915
.L932:
	mov	r0, r5
	bl	__cxa_guard_acquire(PLT)
	cmp	r0, #0
	beq	.L812
	mov	r0, r5
	bl	__cxa_guard_release(PLT)
	ldr	r3, .L934+16
	ldr	r1, .L934+20
	ldr	r2, .L934+52
	ldr	r0, [r9, r3]
.LPIC65:
	add	r2, pc, r2
	ldr	r1, [r9, r1]
	bl	__aeabi_atexit(PLT)
	b	.L812
.L935:
	.align	2
.L934:
	.word	_GLOBAL_OFFSET_TABLE_-(.LPIC62+8)
	.word	_ZTVN7asiopal13SerialChannelE(GOT)
	.word	__dso_handle-(.LPIC63+8)
	.word	_ZGVZN4asio15system_categoryEvE8instance(GOT)
	.word	_ZZN4asio15system_categoryEvE8instance(GOT)
	.word	_ZN4asio6detail15system_categoryD1Ev(GOT)
	.word	_ZTVN7asiopal13IAsyncChannelE(GOT)
	.word	_ZL28__gthrw___pthread_key_createPjPFvPvE(GOT)
	.word	__dso_handle-(.LPIC64+8)
	.word	_ZN4asio6detail10call_stackINS0_15task_io_serviceENS0_27task_io_service_thread_infoEE4top_E(GOT)
	.word	__dso_handle-(.LPIC66+8)
	.word	21537
	.word	__dso_handle-(.LPIC67+8)
	.word	__dso_handle-(.LPIC65+8)
	.personality	__gxx_personality_v0
	.handlerdata
.LLSDA9018:
	.byte	0xff
	.byte	0xff
	.byte	0x1
	.uleb128 .LLSDACSE9018-.LLSDACSB9018
.LLSDACSB9018:
.LLSDACSE9018:
	.section	.text._ZN7asiopal13SerialChannelD0Ev,"axG",%progbits,_ZN7asiopal13SerialChannelD5Ev,comdat
	.fnend
	.size	_ZN7asiopal13SerialChannelD0Ev, .-_ZN7asiopal13SerialChannelD0Ev
	.text
	.align	2
	.global	_ZN7asiopal13SerialChannel12ShutdownImplEv
	.syntax unified
	.arm
	.fpu vfp
	.type	_ZN7asiopal13SerialChannel12ShutdownImplEv, %function
_ZN7asiopal13SerialChannel12ShutdownImplEv:
	.fnstart
.LFB6799:
	@ args = 0, pretend = 0, frame = 40
	@ frame_needed = 0, uses_anonymous_args = 0
	push	{r4, r5, r6, r7, r8, r9, r10, fp, lr}
	.save {r4, r5, r6, r7, r8, r9, r10, fp, lr}
	.pad #44
	sub	sp, sp, #44
	ldr	r3, .L1064
	ldr	r4, [r0, #32]
.LPIC68:
	add	r3, pc, r3
	cmn	r4, #1
	mov	r6, r0
	str	r3, [sp]
	beq	.L937
	ldr	r3, [r0, #40]
	cmp	r3, #0
	beq	.L938
	ldr	r2, [r0, #44]
	add	r3, r3, #20
	str	r3, [sp, #20]
	mov	r0, r3
	ldr	r3, [r2, #20]
	ldrb	r5, [r6, #36]	@ zero_extendqisi2
	str	r3, [sp, #16]
	bl	pthread_mutex_lock(PLT)
	ldr	r1, [r6, #40]
	ldrb	r0, [r1, #80]	@ zero_extendqisi2
	cmp	r0, #0
	bne	.L939
	tst	r5, #4
	bne	.L1057
.L940:
	mov	r5, #0
	ldr	r3, .L1064+4
	mov	r7, r5
	mov	r9, #56
.LPIC69:
	add	r3, pc, r3
	str	r3, [sp, #12]
	str	r5, [sp, #8]
	str	r5, [sp, #4]
.L950:
	ldr	r4, [r1, r9]
	cmp	r4, #0
	beq	.L941
	ldr	r3, [sp, #4]
	ldr	r1, .L1064+8
	ldr	r2, .L1064+12
	lsl	fp, r3, #3
	ldr	r3, [sp]
	ldr	r8, [r3, r1]
	ldr	r10, [r3, r2]
	b	.L943
.L945:
	ldr	r1, [r6, #40]
	mov	r3, #125
	add	r0, r1, fp
	str	r3, [r4, #12]
	ldr	r2, [r0, #56]
	str	r10, [r4, #16]
	cmp	r2, #0
	beq	.L947
	ldr	ip, [r2]
	cmp	ip, #0
	str	ip, [r0, #56]
	streq	ip, [r0, #60]
	str	r7, [r2]
.L947:
	cmp	r5, #0
	str	r7, [r4]
	strne	r4, [r5]
	beq	.L1058
	ldr	r2, [r1, r9]
	mov	r5, r4
	cmp	r2, #0
	beq	.L941
.L1061:
	mov	r4, r2
.L943:
	ldrb	r2, [r8]	@ zero_extendqisi2
	mcr	p15, 0, r0, c7, c10, 5
	tst	r2, #1
	bne	.L945
	mov	r0, r8
	bl	__cxa_guard_acquire(PLT)
	cmp	r0, #0
	beq	.L945
	mov	r0, r8
	bl	__cxa_guard_release(PLT)
	ldr	r3, [sp]
	ldr	r1, .L1064+16
	ldr	r2, [sp, #12]
	mov	r0, r10
	ldr	r1, [r3, r1]
	bl	__aeabi_atexit(PLT)
	b	.L945
.L955:
	add	r7, r4, #24
	mov	r0, r7
	bl	pthread_mutex_lock(PLT)
	ldr	r3, [r4, #132]
	cmp	r3, #0
	ldreq	r3, [sp, #8]
	ldrne	r2, [sp, #8]
	streq	r3, [r4, #128]
	strne	r2, [r3]
	ldr	r3, [r4, #96]
	str	r5, [r4, #132]
	orr	r3, r3, #1
	cmp	r3, #1
	str	r3, [r4, #96]
	add	r5, r4, #48
	beq	.L966
	mov	r0, r7
	bl	pthread_mutex_unlock(PLT)
	mov	r0, r5
	bl	pthread_cond_signal(PLT)
.L1052:
	ldr	r4, [r6, #32]
	cmn	r4, #1
	beq	.L937
.L938:
	bl	__errno_location(PLT)
	mov	r3, #0
	str	r3, [r0]
	mov	r7, r0
	mov	r0, r4
	bl	close(PLT)
	ldr	r2, [sp]
	ldr	r3, .L1064+8
	ldr	r8, [r7]
	ldr	r5, [r2, r3]
	ldrb	r3, [r5]	@ zero_extendqisi2
	mcr	p15, 0, r0, c7, c10, 5
	tst	r3, #1
	mov	r9, r0
	beq	.L1059
.L970:
	cmp	r9, #0
	bne	.L1060
.L937:
	mvn	r2, #0
	mov	r3, #0
	str	r2, [r6, #32]
	strb	r3, [r6, #36]
	add	sp, sp, #44
	@ sp needed
	pop	{r4, r5, r6, r7, r8, r9, r10, fp, pc}
.L1059:
	mov	r0, r5
	bl	__cxa_guard_acquire(PLT)
	cmp	r0, #0
	beq	.L970
	mov	r0, r5
	bl	__cxa_guard_release(PLT)
	ldr	r0, [sp]
	ldr	r3, .L1064+12
	ldr	r1, .L1064+16
	ldr	r2, .L1064+20
	ldr	r1, [r0, r1]
.LPIC70:
	add	r2, pc, r2
	ldr	r0, [r0, r3]
	bl	__aeabi_atexit(PLT)
	b	.L970
.L1058:
	ldr	r2, [r1, r9]
	str	r4, [sp, #8]
	cmp	r2, #0
	mov	r5, r4
	bne	.L1061
.L941:
	ldr	r3, [sp, #4]
	add	r9, r9, #8
	add	r3, r3, #1
	cmp	r3, #3
	str	r3, [sp, #4]
	bne	.L950
	ldr	r7, [sp, #16]
	mvn	r2, #0
	mov	r3, #1
	str	r2, [r1, #48]
	strb	r3, [r1, #80]
	add	r8, r7, #72
	ldr	r0, [sp, #20]
	bl	pthread_mutex_unlock(PLT)
	mov	r0, r8
	ldr	r4, [r6, #40]
	bl	pthread_mutex_lock(PLT)
	ldr	r3, [r7, #96]
	mov	r7, #0
	cmp	r4, r3
	mov	r0, r8
	ldreq	r2, [sp, #16]
	ldreq	r3, [r4, #12]
	streq	r3, [r2, #96]
	ldr	r3, [r4, #16]
	cmp	r3, #0
	ldrne	r2, [r4, #12]
	strne	r2, [r3, #12]
	ldr	r3, [r4, #12]
	cmp	r3, #0
	ldrne	r2, [r4, #16]
	strne	r2, [r3, #16]
	ldr	r2, [sp, #16]
	mov	r8, r2
	ldr	r3, [r2, #100]
	str	r7, [r4, #16]
	str	r3, [r4, #12]
	str	r4, [r2, #100]
	bl	pthread_mutex_unlock(PLT)
	ldr	r3, [sp, #8]
	str	r7, [r6, #40]
	cmp	r3, r7
	ldr	r4, [r8, #20]
	beq	.L1052
	ldrb	r3, [r4, #20]	@ zero_extendqisi2
	cmp	r3, r7
	beq	.L955
	ldr	r2, [sp]
	ldr	r3, .L1064+24
	ldr	r3, [r2, r3]
	ldr	r0, [r3]
	bl	pthread_getspecific(PLT)
	cmp	r0, #0
	bne	.L1044
	b	.L955
.L958:
	ldr	r0, [r0, #8]
	cmp	r0, #0
	beq	.L955
.L1044:
	ldr	r3, [r0]
	cmp	r4, r3
	bne	.L958
	ldr	r3, [r0, #4]
	cmp	r3, #0
	beq	.L955
	ldr	r2, [r3, #8]
	cmp	r2, #0
	ldrne	r1, [sp, #8]
	ldreq	r2, [sp, #8]
	strne	r1, [r2]
	streq	r2, [r3, #4]
	str	r5, [r3, #8]
	b	.L1052
.L939:
	ldr	r0, [sp, #20]
	bl	pthread_mutex_unlock(PLT)
	ldr	r4, [r6, #32]
	cmn	r4, #1
	bne	.L938
	b	.L937
.L1060:
	ldrb	r3, [r5]	@ zero_extendqisi2
	mcr	p15, 0, r0, c7, c10, 5
	tst	r3, #1
	beq	.L1062
.L974:
	cmp	r8, #11
	beq	.L1063
	ldrb	r3, [r5]	@ zero_extendqisi2
	mcr	p15, 0, r0, c7, c10, 5
	tst	r3, #1
	bne	.L937
	mov	r0, r5
	bl	__cxa_guard_acquire(PLT)
	cmp	r0, #0
	beq	.L937
	mov	r0, r5
	bl	__cxa_guard_release(PLT)
	ldr	r0, [sp]
	ldr	r3, .L1064+12
	ldr	r1, .L1064+16
	ldr	r2, .L1064+28
	ldr	r1, [r0, r1]
.LPIC72:
	add	r2, pc, r2
	ldr	r0, [r0, r3]
	bl	__aeabi_atexit(PLT)
	b	.L937
.L1057:
	str	r0, [sp, #24]
	str	r0, [sp, #28]
	str	r0, [sp, #32]
	str	r0, [sp, #36]
	ldr	r0, [sp, #16]
	add	ip, sp, #24
	mov	r1, #2
	mov	r2, r4
	mov	r3, ip
	ldr	r0, [r0, #56]
	bl	epoll_ctl(PLT)
	ldr	r1, [r6, #40]
	b	.L940
.L1063:
	add	r2, sp, #40
	mov	r8, #0
	str	r8, [r2, #-16]!
	ldr	r1, .L1064+32
	mov	r0, r4
	bl	ioctl(PLT)
	ldrb	r3, [r6, #36]	@ zero_extendqisi2
	mov	r0, r4
	bic	r3, r3, #3
	strb	r3, [r6, #36]
	str	r8, [r7]
	bl	close(PLT)
	ldrb	r3, [r5]	@ zero_extendqisi2
	mcr	p15, 0, r0, c7, c10, 5
	tst	r3, #1
	bne	.L937
	mov	r0, r5
	bl	__cxa_guard_acquire(PLT)
	cmp	r0, #0
	beq	.L937
	mov	r0, r5
	bl	__cxa_guard_release(PLT)
	ldr	r0, [sp]
	ldr	r3, .L1064+12
	ldr	r1, .L1064+16
	ldr	r2, .L1064+36
	ldr	r1, [r0, r1]
.LPIC73:
	add	r2, pc, r2
	ldr	r0, [r0, r3]
	bl	__aeabi_atexit(PLT)
	b	.L937
.L966:
	ldrb	r2, [r4, #120]	@ zero_extendqisi2
	cmp	r2, #0
	bne	.L968
	ldr	r0, [r4, #104]
	cmp	r0, #0
	beq	.L968
	strb	r3, [r4, #120]
	add	r3, sp, #24
	add	r1, r0, #48
	mov	ip, #-2147483639
	str	r1, [sp, #32]
	str	r2, [r3, #4]
	str	r2, [r3, #12]
	str	ip, [sp, #24]
	mov	r1, #3
	ldr	r2, [r0, #48]
	ldr	r0, [r0, #56]
	bl	epoll_ctl(PLT)
.L968:
	mov	r0, r7
	bl	pthread_mutex_unlock(PLT)
	b	.L1052
.L1062:
	mov	r0, r5
	bl	__cxa_guard_acquire(PLT)
	cmp	r0, #0
	beq	.L974
	mov	r0, r5
	bl	__cxa_guard_release(PLT)
	ldr	r0, [sp]
	ldr	r3, .L1064+12
	ldr	r1, .L1064+16
	ldr	r2, .L1064+40
	ldr	r1, [r0, r1]
.LPIC71:
	add	r2, pc, r2
	ldr	r0, [r0, r3]
	bl	__aeabi_atexit(PLT)
	b	.L974
.L1065:
	.align	2
.L1064:
	.word	_GLOBAL_OFFSET_TABLE_-(.LPIC68+8)
	.word	__dso_handle-(.LPIC69+8)
	.word	_ZGVZN4asio15system_categoryEvE8instance(GOT)
	.word	_ZZN4asio15system_categoryEvE8instance(GOT)
	.word	_ZN4asio6detail15system_categoryD1Ev(GOT)
	.word	__dso_handle-(.LPIC70+8)
	.word	_ZN4asio6detail10call_stackINS0_15task_io_serviceENS0_27task_io_service_thread_infoEE4top_E(GOT)
	.word	__dso_handle-(.LPIC72+8)
	.word	21537
	.word	__dso_handle-(.LPIC73+8)
	.word	__dso_handle-(.LPIC71+8)
	.fnend
	.size	_ZN7asiopal13SerialChannel12ShutdownImplEv, .-_ZN7asiopal13SerialChannel12ShutdownImplEv
	.section	.text._ZNSt12system_errorC2ESt10error_codePKc,"axG",%progbits,_ZNSt12system_errorC5ESt10error_codePKc,comdat
	.align	2
	.weak	_ZNSt12system_errorC2ESt10error_codePKc
	.syntax unified
	.arm
	.fpu vfp
	.type	_ZNSt12system_errorC2ESt10error_codePKc, %function
_ZNSt12system_errorC2ESt10error_codePKc:
	.fnstart
.LFB2025:
	@ args = 0, pretend = 0, frame = 80
	@ frame_needed = 0, uses_anonymous_args = 0
	push	{r4, r5, r6, r7, r8, r9, r10, fp, lr}
	.save {r4, r5, r6, r7, r8, r9, r10, fp, lr}
	.pad #92
	sub	sp, sp, #92
	add	r4, sp, #8
	add	r8, sp, #64
	stm	r4, {r1, r2}
	ldr	r2, [sp, #12]
	mov	r5, r0
	mov	r1, r2
	ldr	ip, [r2]
	mov	r0, r8
	ldr	r2, [sp, #8]
	ldr	r6, [ip, #16]
	mov	r7, r3
.LEHB6:
	blx	r6
.LEHE6:
	mov	r3, #2
	str	r3, [sp]
	ldr	r3, .L1085
	mov	r2, #0
	ldr	r9, .L1085+4
	mov	r0, r8
	mov	r1, r2
.LPIC74:
	add	r3, pc, r3
.LPIC75:
	add	r9, pc, r9
.LEHB7:
	bl	_ZNSt7__cxx1112basic_stringIcSt11char_traitsIcESaIcEE10_M_replaceEjjPKcj(PLT)
.LEHE7:
	mov	lr, r0
	add	r6, sp, #48
	str	r6, [sp, #40]
	ldr	r3, [lr], #8
	mov	ip, r0
	cmp	r3, lr
	moveq	r10, r6
	ldreq	r0, [lr]	@ unaligned
	ldreq	r1, [lr, #4]	@ unaligned
	ldreq	r2, [lr, #8]	@ unaligned
	ldreq	r3, [lr, #12]	@ unaligned
	ldrne	r2, [ip, #8]
	strne	r3, [sp, #40]
	stmiaeq	r10!, {r0, r1, r2, r3}
	mov	fp, #0
	strne	r2, [sp, #48]
	ldr	r3, [ip, #4]
	strb	fp, [ip, #8]
	str	r3, [sp, #44]
	mov	r0, r7
	str	lr, [ip]
	str	fp, [ip, #4]
	bl	strlen(PLT)
	add	r10, sp, #40
	mov	r3, r7
	mov	r2, fp
	mov	r1, fp
	str	r0, [sp]
	mov	r0, r10
.LEHB8:
	bl	_ZNSt7__cxx1112basic_stringIcSt11char_traitsIcESaIcEE10_M_replaceEjjPKcj(PLT)
.LEHE8:
	mov	lr, r0
	add	r7, sp, #24
	str	r7, [sp, #16]
	ldr	r3, [lr], #8
	mov	ip, r0
	cmp	r3, lr
	moveq	fp, r7
	ldreq	r0, [lr]	@ unaligned
	ldreq	r1, [lr, #4]	@ unaligned
	ldreq	r2, [lr, #8]	@ unaligned
	ldreq	r3, [lr, #12]	@ unaligned
	ldrne	r2, [ip, #8]
	strne	r3, [sp, #16]
	stmiaeq	fp!, {r0, r1, r2, r3}
	mov	r3, #0
	strne	r2, [sp, #24]
	ldr	r2, [ip, #4]
	add	fp, sp, #16
	str	r2, [sp, #20]
	strb	r3, [ip, #8]
	str	lr, [ip]
	str	r3, [ip, #4]
	mov	r1, fp
	mov	r0, r5
.LEHB9:
	bl	_ZNSt13runtime_errorC2ERKNSt7__cxx1112basic_stringIcSt11char_traitsIcESaIcEEE(PLT)
.LEHE9:
	ldr	r0, [sp, #16]
	cmp	r0, r7
	beq	.L1071
	bl	_ZdlPv(PLT)
.L1071:
	ldr	r0, [sp, #40]
	cmp	r0, r6
	beq	.L1072
	bl	_ZdlPv(PLT)
.L1072:
	ldr	r0, [sp, #64]
	add	r3, sp, #72
	cmp	r0, r3
	beq	.L1073
	bl	_ZdlPv(PLT)
.L1073:
	ldr	r2, .L1085+8
	ldm	r4, {r0, r1}
	mov	r3, r5
	ldr	r2, [r9, r2]
	add	r2, r2, #8
	str	r2, [r3], #8
	stm	r3, {r0, r1}
	mov	r0, r5
	add	sp, sp, #92
	@ sp needed
	pop	{r4, r5, r6, r7, r8, r9, r10, fp, pc}
.L1080:
.L1078:
	ldr	r0, [sp, #64]
	add	r8, r8, #8
	cmp	r0, r8
	beq	.L1079
	bl	_ZdlPv(PLT)
.L1079:
.LEHB10:
	bl	__cxa_end_cleanup(PLT)
.LEHE10:
.L1082:
	ldr	r0, [sp, #16]
	add	fp, fp, #8
	cmp	r0, fp
	beq	.L1076
	bl	_ZdlPv(PLT)
.L1076:
	ldr	r0, [sp, #40]
	add	r10, r10, #8
	cmp	r0, r10
	beq	.L1078
	bl	_ZdlPv(PLT)
	b	.L1078
.L1081:
	b	.L1076
.L1086:
	.align	2
.L1085:
	.word	.LC19-(.LPIC74+8)
	.word	_GLOBAL_OFFSET_TABLE_-(.LPIC75+8)
	.word	_ZTVSt12system_error(GOT)
	.personality	__gxx_personality_v0
	.handlerdata
.LLSDA2025:
	.byte	0xff
	.byte	0xff
	.byte	0x1
	.uleb128 .LLSDACSE2025-.LLSDACSB2025
.LLSDACSB2025:
	.uleb128 .LEHB6-.LFB2025
	.uleb128 .LEHE6-.LEHB6
	.uleb128 0
	.uleb128 0
	.uleb128 .LEHB7-.LFB2025
	.uleb128 .LEHE7-.LEHB7
	.uleb128 .L1080-.LFB2025
	.uleb128 0
	.uleb128 .LEHB8-.LFB2025
	.uleb128 .LEHE8-.LEHB8
	.uleb128 .L1081-.LFB2025
	.uleb128 0
	.uleb128 .LEHB9-.LFB2025
	.uleb128 .LEHE9-.LEHB9
	.uleb128 .L1082-.LFB2025
	.uleb128 0
	.uleb128 .LEHB10-.LFB2025
	.uleb128 .LEHE10-.LEHB10
	.uleb128 0
	.uleb128 0
.LLSDACSE2025:
	.section	.text._ZNSt12system_errorC2ESt10error_codePKc,"axG",%progbits,_ZNSt12system_errorC5ESt10error_codePKc,comdat
	.fnend
	.size	_ZNSt12system_errorC2ESt10error_codePKc, .-_ZNSt12system_errorC2ESt10error_codePKc
	.weak	_ZNSt12system_errorC1ESt10error_codePKc
	.set	_ZNSt12system_errorC1ESt10error_codePKc,_ZNSt12system_errorC2ESt10error_codePKc
	.section	.text._ZN4asio15system_categoryEv,"axG",%progbits,_ZN4asio15system_categoryEv,comdat
	.align	2
	.weak	_ZN4asio15system_categoryEv
	.syntax unified
	.arm
	.fpu vfp
	.type	_ZN4asio15system_categoryEv, %function
_ZN4asio15system_categoryEv:
	.fnstart
.LFB2068:
	@ args = 0, pretend = 0, frame = 0
	@ frame_needed = 0, uses_anonymous_args = 0
	push	{r4, r5, r6, lr}
	ldr	r4, .L1097
	ldr	r3, .L1097+4
.LPIC76:
	add	r4, pc, r4
	ldr	r5, [r4, r3]
	ldrb	r3, [r5]	@ zero_extendqisi2
	mcr	p15, 0, r0, c7, c10, 5
	tst	r3, #1
	beq	.L1096
.L1095:
	ldr	r3, .L1097+8
	ldr	r4, [r4, r3]
	mov	r0, r4
	pop	{r4, r5, r6, pc}
.L1096:
	mov	r0, r5
	bl	__cxa_guard_acquire(PLT)
	cmp	r0, #0
	beq	.L1095
	mov	r0, r5
	bl	__cxa_guard_release(PLT)
	ldr	r3, .L1097+8
	ldr	r1, .L1097+12
	ldr	r2, .L1097+16
	ldr	r1, [r4, r1]
	ldr	r4, [r4, r3]
.LPIC77:
	add	r2, pc, r2
	mov	r0, r4
	bl	__aeabi_atexit(PLT)
	mov	r0, r4
	pop	{r4, r5, r6, pc}
.L1098:
	.align	2
.L1097:
	.word	_GLOBAL_OFFSET_TABLE_-(.LPIC76+8)
	.word	_ZGVZN4asio15system_categoryEvE8instance(GOT)
	.word	_ZZN4asio15system_categoryEvE8instance(GOT)
	.word	_ZN4asio6detail15system_categoryD1Ev(GOT)
	.word	__dso_handle-(.LPIC77+8)
	.cantunwind
	.fnend
	.size	_ZN4asio15system_categoryEv, .-_ZN4asio15system_categoryEv
	.section	.text._ZN4asio6detail14do_throw_errorERKSt10error_codePKc,"axG",%progbits,_ZN4asio6detail14do_throw_errorERKSt10error_codePKc,comdat
	.align	2
	.weak	_ZN4asio6detail14do_throw_errorERKSt10error_codePKc
	.syntax unified
	.arm
	.fpu vfp
	.type	_ZN4asio6detail14do_throw_errorERKSt10error_codePKc, %function
_ZN4asio6detail14do_throw_errorERKSt10error_codePKc:
	.fnstart
.LFB2079:
	@ args = 0, pretend = 0, frame = 16
	@ frame_needed = 0, uses_anonymous_args = 0
	push	{r4, r5, r6, lr}
	.save {r4, r5, r6, lr}
	.pad #16
	sub	sp, sp, #16
	mov	r3, r1
	ldm	r0, {r1, r2}
	mov	r0, sp
.LEHB11:
	bl	_ZNSt12system_errorC1ESt10error_codePKc(PLT)
.LEHE11:
	mov	r0, #16
	bl	__cxa_allocate_exception(PLT)
	mov	r1, sp
	mov	r5, sp
	mov	r6, r0
	bl	_ZNSt13runtime_errorC2ERKS_(PLT)
	ldr	r3, .L1103
	ldr	r2, .L1103+4
.LPIC78:
	add	r3, pc, r3
	add	r1, sp, #16
	ldr	r4, [r3, r2]
	ldmdb	r1, {r0, r1}
	ldr	lr, .L1103+8
	ldr	ip, .L1103+12
	mov	r2, r6
	add	r4, r4, #8
	str	r4, [r2], #8
	stm	r2, {r0, r1}
	mov	r0, r6
	ldr	r2, [r3, lr]
	ldr	r1, [r3, ip]
.LEHB12:
	bl	__cxa_throw(PLT)
.LEHE12:
.L1101:
	mov	r0, r5
	bl	_ZNSt12system_errorD1Ev(PLT)
.LEHB13:
	bl	__cxa_end_cleanup(PLT)
.LEHE13:
.L1104:
	.align	2
.L1103:
	.word	_GLOBAL_OFFSET_TABLE_-(.LPIC78+8)
	.word	_ZTVSt12system_error(GOT)
	.word	_ZNSt12system_errorD1Ev(GOT)
	.word	_ZTISt12system_error(GOT)
	.personality	__gxx_personality_v0
	.handlerdata
.LLSDA2079:
	.byte	0xff
	.byte	0xff
	.byte	0x1
	.uleb128 .LLSDACSE2079-.LLSDACSB2079
.LLSDACSB2079:
	.uleb128 .LEHB11-.LFB2079
	.uleb128 .LEHE11-.LEHB11
	.uleb128 0
	.uleb128 0
	.uleb128 .LEHB12-.LFB2079
	.uleb128 .LEHE12-.LEHB12
	.uleb128 .L1101-.LFB2079
	.uleb128 0
	.uleb128 .LEHB13-.LFB2079
	.uleb128 .LEHE13-.LEHB13
	.uleb128 0
	.uleb128 0
.LLSDACSE2079:
	.section	.text._ZN4asio6detail14do_throw_errorERKSt10error_codePKc,"axG",%progbits,_ZN4asio6detail14do_throw_errorERKSt10error_codePKc,comdat
	.fnend
	.size	_ZN4asio6detail14do_throw_errorERKSt10error_codePKc, .-_ZN4asio6detail14do_throw_errorERKSt10error_codePKc
	.section	.text._ZN4asio6detail13epoll_reactor12fork_serviceENS_10io_service10fork_eventE,"axG",%progbits,_ZN4asio6detail13epoll_reactor12fork_serviceENS_10io_service10fork_eventE,comdat
	.align	2
	.weak	_ZN4asio6detail13epoll_reactor12fork_serviceENS_10io_service10fork_eventE
	.syntax unified
	.arm
	.fpu vfp
	.type	_ZN4asio6detail13epoll_reactor12fork_serviceENS_10io_service10fork_eventE, %function
_ZN4asio6detail13epoll_reactor12fork_serviceENS_10io_service10fork_eventE:
	.fnstart
.LFB3059:
	@ args = 0, pretend = 0, frame = 56
	@ frame_needed = 0, uses_anonymous_args = 0
	push	{r4, r5, r6, r7, r8, r9, r10, fp, lr}
	.save {r4, r5, r6, r7, r8, r9, r10, fp, lr}
	cmp	r1, #2
	ldr	r8, .L1213
	.pad #60
	sub	sp, sp, #60
.LPIC79:
	add	r8, pc, r8
	beq	.L1203
	add	sp, sp, #60
	@ sp needed
	pop	{r4, r5, r6, r7, r8, r9, r10, fp, pc}
.L1203:
	mov	r5, r0
	ldr	r0, [r0, #56]
	cmn	r0, #1
	beq	.L1107
.LEHB14:
	bl	close(PLT)
.L1107:
	mvn	r3, #0
	str	r3, [r5, #56]
	mov	r0, #524288
	bl	epoll_create1(PLT)
	cmn	r0, #1
	mov	r4, r0
	beq	.L1204
.L1108:
	ldr	r0, [r5, #60]
	str	r4, [r5, #56]
	cmn	r0, #1
	beq	.L1114
	bl	close(PLT)
.L1114:
	mvn	r3, #0
	str	r3, [r5, #60]
	mov	r1, #524288
	mov	r0, #1
	bl	timerfd_create(PLT)
	cmn	r0, #1
	mov	r4, r0
	beq	.L1205
.L1115:
	ldr	r3, [r5, #52]
	str	r4, [r5, #60]
	cmn	r3, #1
	add	r4, r5, #48
	beq	.L1116
	ldr	r0, [r5, #48]
	cmp	r3, r0
	beq	.L1117
	mov	r0, r3
	bl	close(PLT)
.L1116:
	ldr	r0, [r5, #48]
	cmn	r0, #1
	beq	.L1118
.L1117:
	bl	close(PLT)
.L1118:
	mvn	r3, #0
	str	r3, [r5, #52]
	str	r3, [r5, #48]
	ldr	r1, .L1213+4
	mov	r0, #0
	bl	eventfd(PLT)
	cmn	r0, #1
	mov	r2, r0
	str	r0, [r5, #48]
	str	r0, [r5, #52]
	beq	.L1206
.L1119:
	add	r6, sp, #8
	mov	ip, #-2147483639
	mov	r3, r6
	mov	r7, #0
	mov	r1, #1
	ldr	r0, [r5, #56]
	str	ip, [sp, #8]
	add	r10, sp, #56
	str	r4, [sp, #16]
	str	r7, [r6, #4]
	str	r7, [r6, #12]
	bl	epoll_ctl(PLT)
	mov	r2, #1
	mov	r3, #0
	ldr	r0, [r5, #52]
	strd	r2, [r10, #-16]!
	mov	r2, #8
	mov	r1, r10
	bl	write(PLT)
	ldr	r2, [r5, #60]
	cmn	r2, #1
	beq	.L1127
	mov	r0, #9
	add	ip, r5, #60
	str	r0, [sp, #8]
	mov	r3, r6
	mov	r1, #1
	ldr	r0, [r5, #56]
	str	ip, [sp, #16]
	bl	epoll_ctl(PLT)
	ldr	r0, [r5, #60]
	cmn	r0, #1
	beq	.L1127
	ldr	r4, [r5, #64]
	str	r7, [sp, #24]
	cmp	r4, r7
	str	r7, [sp, #28]
	beq	.L1128
	ldr	r1, .L1213+8
.L1129:
	ldr	r3, [r4]
	mov	r0, r4
	ldr	r3, [r3, #16]
	blx	r3
.LEHE14:
	ldr	r4, [r4, #4]
	cmp	r4, #0
	mov	r1, r0
	bne	.L1129
	ldr	r2, .L1213+12
	asr	r3, r0, #31
	cmp	r0, #0
	smull	r0, r2, r2, r1
	rsb	r3, r3, r2, asr #18
	str	r3, [sp, #32]
	beq	.L1207
	ldr	r2, .L1213+16
	mov	r4, #1000
	ldr	r0, [r5, #60]
	mul	r3, r2, r3
	sub	r1, r1, r3
	mul	r4, r4, r1
.L1146:
	mov	r1, #0
.L1131:
	mov	r3, r10
	add	r2, sp, #24
	str	r4, [sp, #36]
	bl	timerfd_settime(PLT)
.L1132:
	add	r3, r5, #72
	mov	r0, r3
	str	r3, [sp]
	bl	pthread_mutex_lock(PLT)
	ldr	r4, [r5, #96]
	cmp	r4, #0
	beq	.L1139
	ldr	r3, .L1213+20
	mov	r7, #1
.LPIC84:
	add	r3, pc, r3
	str	r3, [sp, #4]
	b	.L1140
.L1134:
	ldr	r4, [r4, #12]
	cmp	r4, #0
	beq	.L1139
.L1140:
	ldr	ip, [r4, #52]
	mov	r3, r6
	ldr	r2, [r4, #48]
	mov	r1, r7
	ldr	r0, [r5, #56]
	str	r4, [sp, #16]
	str	ip, [sp, #8]
	bl	epoll_ctl(PLT)
	cmp	r0, #0
	beq	.L1134
	bl	__errno_location(PLT)
	ldr	r3, .L1213+24
	ldr	fp, [r8, r3]
	ldr	r9, [r0]
	ldrb	r3, [fp]	@ zero_extendqisi2
	mcr	p15, 0, r0, c7, c10, 5
	tst	r3, #1
	beq	.L1208
.L1201:
	ldr	r3, .L1213+28
	ldr	fp, [r8, r3]
.L1136:
	cmp	r9, #0
	str	r9, [sp, #40]
	str	fp, [sp, #44]
	beq	.L1134
	ldr	r1, .L1213+32
	mov	r0, r10
.LPIC85:
	add	r1, pc, r1
.LEHB15:
	bl	_ZN4asio6detail14do_throw_errorERKSt10error_codePKc(PLT)
.LEHE15:
.L1127:
	mov	r0, #0
	mov	ip, #-2147483639
	str	r0, [r10, #4]
	str	r0, [r10, #12]
	mov	r3, r10
	ldr	r2, [r5, #48]
	mov	r1, #3
	ldr	r0, [r5, #56]
	str	r4, [sp, #48]
	str	ip, [sp, #40]
	bl	epoll_ctl(PLT)
	b	.L1132
.L1208:
	mov	r0, fp
	bl	__cxa_guard_acquire(PLT)
	cmp	r0, #0
	beq	.L1201
	mov	r0, fp
	bl	__cxa_guard_release(PLT)
	ldr	r3, .L1213+28
	ldr	r1, .L1213+36
	ldr	r2, [sp, #4]
	ldr	fp, [r8, r3]
	ldr	r1, [r8, r1]
	mov	r0, fp
	bl	__aeabi_atexit(PLT)
	b	.L1136
.L1139:
	ldr	r0, [sp]
	bl	pthread_mutex_unlock(PLT)
	add	sp, sp, #60
	@ sp needed
	pop	{r4, r5, r6, r7, r8, r9, r10, fp, pc}
.L1205:
	bl	__errno_location(PLT)
	ldr	r3, [r0]
	cmp	r3, #22
	bne	.L1115
	mov	r1, #0
	mov	r0, #1
	bl	timerfd_create(PLT)
	cmn	r0, #1
	mov	r4, r0
	beq	.L1115
	mov	r2, #1
	mov	r1, #2
.LEHB16:
	bl	fcntl(PLT)
	b	.L1115
.L1204:
	bl	__errno_location(PLT)
	ldr	r6, [r0]
	mov	r7, r0
	sub	r3, r6, #22
	bics	r3, r3, #16
	beq	.L1209
.L1109:
	ldr	r3, .L1213+24
	ldr	r7, [r8, r3]
	ldrb	r3, [r7]	@ zero_extendqisi2
	mcr	p15, 0, r0, c7, c10, 5
	tst	r3, #1
	beq	.L1142
.L1199:
	ldr	r3, .L1213+28
	ldr	r7, [r8, r3]
.L1112:
	cmp	r6, #0
	str	r6, [sp, #40]
	str	r7, [sp, #44]
	beq	.L1108
	ldr	r1, .L1213+40
	add	r0, sp, #40
.LPIC81:
	add	r1, pc, r1
	bl	_ZN4asio6detail14do_throw_errorERKSt10error_codePKc(PLT)
.L1206:
	bl	__errno_location(PLT)
	ldr	r3, [r0]
	mov	r6, r0
	cmp	r3, #22
	beq	.L1210
.L1121:
	add	r0, sp, #24
	bl	pipe(PLT)
	cmp	r0, #0
	bne	.L1211
	ldr	r0, [sp, #24]
	mov	r2, #2048
	mov	r1, #4
	str	r0, [r5, #48]
	bl	fcntl(PLT)
	mov	r2, #1
	mov	r1, #2
	ldr	r0, [r5, #48]
	bl	fcntl(PLT)
	ldr	r0, [sp, #28]
	mov	r2, #2048
	mov	r1, #4
	str	r0, [r5, #52]
	bl	fcntl(PLT)
	mov	r2, #1
	mov	r1, #2
	ldr	r0, [r5, #52]
	bl	fcntl(PLT)
.L1122:
	ldr	r2, [r5, #48]
	b	.L1119
.L1207:
	mov	r1, #1
	mov	r4, r1
	ldr	r0, [r5, #60]
	b	.L1131
.L1147:
	ldr	r0, [sp]
	bl	pthread_mutex_unlock(PLT)
	bl	__cxa_end_cleanup(PLT)
.L1211:
	ldr	r3, .L1213+24
	ldr	r6, [r6]
	ldr	r7, [r8, r3]
	ldrb	r3, [r7]	@ zero_extendqisi2
	mcr	p15, 0, r0, c7, c10, 5
	tst	r3, #1
	beq	.L1212
.L1200:
	ldr	r3, .L1213+28
	ldr	r7, [r8, r3]
.L1124:
	cmp	r6, #0
	str	r6, [sp, #40]
	str	r7, [sp, #44]
	beq	.L1122
	ldr	r1, .L1213+44
	add	r0, sp, #40
.LPIC83:
	add	r1, pc, r1
	bl	_ZN4asio6detail14do_throw_errorERKSt10error_codePKc(PLT)
.L1209:
	ldr	r0, .L1213+48
	bl	epoll_create(PLT)
	cmn	r0, #1
	bne	.L1110
	ldr	r6, [r7]
	b	.L1109
.L1142:
	mov	r0, r7
	bl	__cxa_guard_acquire(PLT)
	cmp	r0, #0
	beq	.L1199
	mov	r0, r7
	bl	__cxa_guard_release(PLT)
	ldr	r3, .L1213+28
	ldr	r1, .L1213+36
	ldr	r2, .L1213+52
	ldr	r7, [r8, r3]
.LPIC80:
	add	r2, pc, r2
	ldr	r1, [r8, r1]
	mov	r0, r7
	bl	__aeabi_atexit(PLT)
	b	.L1112
.L1128:
	mov	r3, #300
	str	r3, [sp, #32]
	b	.L1146
.L1110:
	mov	r2, #1
	mov	r1, #2
	mov	r4, r0
	bl	fcntl(PLT)
	b	.L1108
.L1212:
	mov	r0, r7
	bl	__cxa_guard_acquire(PLT)
	cmp	r0, #0
	beq	.L1200
	mov	r0, r7
	bl	__cxa_guard_release(PLT)
	ldr	r3, .L1213+28
	ldr	r1, .L1213+36
	ldr	r2, .L1213+56
	ldr	r7, [r8, r3]
.LPIC82:
	add	r2, pc, r2
	ldr	r1, [r8, r1]
	mov	r0, r7
	bl	__aeabi_atexit(PLT)
	b	.L1124
.L1210:
	mov	r1, #0
	mov	r0, r1
	bl	eventfd(PLT)
	cmn	r0, #1
	str	r0, [r5, #48]
	str	r0, [r5, #52]
	beq	.L1121
	mov	r2, #2048
	mov	r1, #4
	bl	fcntl(PLT)
	mov	r2, #1
	mov	r1, #2
	ldr	r0, [r5, #48]
	bl	fcntl(PLT)
.LEHE16:
	ldr	r2, [r5, #48]
	cmn	r2, #1
	bne	.L1119
	b	.L1121
.L1214:
	.align	2
.L1213:
	.word	_GLOBAL_OFFSET_TABLE_-(.LPIC79+8)
	.word	526336
	.word	300000000
	.word	1125899907
	.word	1000000
	.word	__dso_handle-(.LPIC84+8)
	.word	_ZGVZN4asio15system_categoryEvE8instance(GOT)
	.word	_ZZN4asio15system_categoryEvE8instance(GOT)
	.word	.LC22-(.LPIC85+8)
	.word	_ZN4asio6detail15system_categoryD1Ev(GOT)
	.word	.LC20-(.LPIC81+8)
	.word	.LC21-(.LPIC83+8)
	.word	20000
	.word	__dso_handle-(.LPIC80+8)
	.word	__dso_handle-(.LPIC82+8)
	.personality	__gxx_personality_v0
	.handlerdata
.LLSDA3059:
	.byte	0xff
	.byte	0xff
	.byte	0x1
	.uleb128 .LLSDACSE3059-.LLSDACSB3059
.LLSDACSB3059:
	.uleb128 .LEHB14-.LFB3059
	.uleb128 .LEHE14-.LEHB14
	.uleb128 0
	.uleb128 0
	.uleb128 .LEHB15-.LFB3059
	.uleb128 .LEHE15-.LEHB15
	.uleb128 .L1147-.LFB3059
	.uleb128 0
	.uleb128 .LEHB16-.LFB3059
	.uleb128 .LEHE16-.LEHB16
	.uleb128 0
	.uleb128 0
.LLSDACSE3059:
	.section	.text._ZN4asio6detail13epoll_reactor12fork_serviceENS_10io_service10fork_eventE,"axG",%progbits,_ZN4asio6detail13epoll_reactor12fork_serviceENS_10io_service10fork_eventE,comdat
	.fnend
	.size	_ZN4asio6detail13epoll_reactor12fork_serviceENS_10io_service10fork_eventE, .-_ZN4asio6detail13epoll_reactor12fork_serviceENS_10io_service10fork_eventE
	.section	.text._ZN4asio6detail20posix_tss_ptr_createERj,"axG",%progbits,_ZN4asio6detail20posix_tss_ptr_createERj,comdat
	.align	2
	.weak	_ZN4asio6detail20posix_tss_ptr_createERj
	.syntax unified
	.arm
	.fpu vfp
	.type	_ZN4asio6detail20posix_tss_ptr_createERj, %function
_ZN4asio6detail20posix_tss_ptr_createERj:
	.fnstart
.LFB2103:
	@ args = 0, pretend = 0, frame = 8
	@ frame_needed = 0, uses_anonymous_args = 0
	push	{r4, r5, r6, lr}
	.save {r4, r5, r6, lr}
	mov	r1, #0
	.pad #8
	sub	sp, sp, #8
	bl	pthread_key_create(PLT)
	ldr	r4, .L1227
	ldr	r3, .L1227+4
.LPIC86:
	add	r4, pc, r4
	ldr	r6, [r4, r3]
	ldrb	r3, [r6]	@ zero_extendqisi2
	mcr	p15, 0, r0, c7, c10, 5
	tst	r3, #1
	mov	r5, r0
	beq	.L1225
.L1224:
	ldr	r3, .L1227+8
	ldr	r4, [r4, r3]
.L1217:
	cmp	r5, #0
	str	r5, [sp]
	str	r4, [sp, #4]
	bne	.L1226
	add	sp, sp, #8
	@ sp needed
	pop	{r4, r5, r6, pc}
.L1225:
	mov	r0, r6
	bl	__cxa_guard_acquire(PLT)
	cmp	r0, #0
	beq	.L1224
	mov	r0, r6
	bl	__cxa_guard_release(PLT)
	ldr	r3, .L1227+8
	ldr	r1, .L1227+12
	ldr	r2, .L1227+16
	ldr	r1, [r4, r1]
	ldr	r4, [r4, r3]
.LPIC87:
	add	r2, pc, r2
	mov	r0, r4
	bl	__aeabi_atexit(PLT)
	b	.L1217
.L1226:
	ldr	r1, .L1227+20
	mov	r0, sp
.LPIC88:
	add	r1, pc, r1
	bl	_ZN4asio6detail14do_throw_errorERKSt10error_codePKc(PLT)
.L1228:
	.align	2
.L1227:
	.word	_GLOBAL_OFFSET_TABLE_-(.LPIC86+8)
	.word	_ZGVZN4asio15system_categoryEvE8instance(GOT)
	.word	_ZZN4asio15system_categoryEvE8instance(GOT)
	.word	_ZN4asio6detail15system_categoryD1Ev(GOT)
	.word	__dso_handle-(.LPIC87+8)
	.word	.LC23-(.LPIC88+8)
	.fnend
	.size	_ZN4asio6detail20posix_tss_ptr_createERj, .-_ZN4asio6detail20posix_tss_ptr_createERj
	.section	.text._ZN4asio6detail13epoll_reactor32perform_io_cleanup_on_block_exitD2Ev,"axG",%progbits,_ZN4asio6detail13epoll_reactor32perform_io_cleanup_on_block_exitD5Ev,comdat
	.align	2
	.weak	_ZN4asio6detail13epoll_reactor32perform_io_cleanup_on_block_exitD2Ev
	.syntax unified
	.arm
	.fpu vfp
	.type	_ZN4asio6detail13epoll_reactor32perform_io_cleanup_on_block_exitD2Ev, %function
_ZN4asio6detail13epoll_reactor32perform_io_cleanup_on_block_exitD2Ev:
	.fnstart
.LFB3083:
	@ args = 0, pretend = 0, frame = 24
	@ frame_needed = 0, uses_anonymous_args = 0
	ldr	r2, [r0, #12]
	ldr	r3, .L1285
	cmp	r2, #0
	push	{r4, r5, r6, r7, r8, lr}
	.save {r4, r5, r6, r7, r8, lr}
.LPIC89:
	add	r3, pc, r3
	.pad #24
	sub	sp, sp, #24
	mov	r4, r0
	beq	.L1230
	ldr	r2, [r0, #4]
	cmp	r2, #0
	beq	.L1260
	ldr	r2, [r0]
	ldr	r5, [r2, #20]
	ldrb	r2, [r5, #20]	@ zero_extendqisi2
	cmp	r2, #0
	bne	.L1284
.L1232:
	add	r6, r5, #24
	mov	r0, r6
	bl	pthread_mutex_lock(PLT)
	ldr	r3, [r4, #4]
	cmp	r3, #0
	beq	.L1240
	ldr	r2, [r5, #132]
	cmp	r2, #0
	strne	r3, [r2]
	streq	r3, [r5, #128]
	ldr	r2, [r4, #8]
	mov	r3, #0
	str	r2, [r5, #132]
	str	r3, [r4, #4]
	str	r3, [r4, #8]
.L1240:
	ldr	r3, [r5, #96]
	add	r7, r5, #48
	orr	r3, r3, #1
	cmp	r3, #1
	str	r3, [r5, #96]
	beq	.L1243
	mov	r0, r6
	bl	pthread_mutex_unlock(PLT)
	mov	r0, r7
	bl	pthread_cond_signal(PLT)
.L1244:
	ldr	r1, [r4, #4]
.L1247:
	cmp	r1, #0
	beq	.L1260
	str	r1, [sp, #4]
	bl	_ZNSt3_V215system_categoryEv(PLT)
	ldr	r1, [sp, #4]
	add	r7, sp, #8
	mov	r5, #0
	mov	r8, r0
.L1250:
	ldr	r3, [r1]
	ldr	r6, [r1, #4]
	cmp	r3, #0
	streq	r3, [r4, #8]
	str	r3, [r4, #4]
	mov	r3, #0
	str	r5, [r1]
	mov	r0, r3
	str	r5, [sp, #8]
	str	r8, [sp, #12]
	mov	r2, r7
	blx	r6
	ldr	r1, [r4, #4]
	cmp	r1, #0
	bne	.L1250
.L1260:
	mov	r0, r4
	add	sp, sp, #24
	@ sp needed
	pop	{r4, r5, r6, r7, r8, pc}
.L1284:
	ldr	r2, .L1285+4
	ldr	r3, [r3, r2]
	ldr	r0, [r3]
	bl	pthread_getspecific(PLT)
	cmp	r0, #0
	bne	.L1278
	b	.L1232
.L1235:
	ldr	r0, [r0, #8]
	cmp	r0, #0
	beq	.L1232
.L1278:
	ldr	r3, [r0]
	cmp	r5, r3
	bne	.L1235
	ldr	r3, [r0, #4]
	cmp	r3, #0
	beq	.L1232
	ldr	r2, [r4, #4]
	cmp	r2, #0
	beq	.L1260
	ldr	r1, [r3, #8]
	mov	r0, r4
	cmp	r1, #0
	strne	r2, [r1]
	streq	r2, [r3, #4]
	ldr	r2, [r4, #8]
	str	r2, [r3, #8]
	add	sp, sp, #24
	@ sp needed
	pop	{r4, r5, r6, r7, r8, pc}
.L1243:
	ldrb	r2, [r5, #120]	@ zero_extendqisi2
	cmp	r2, #0
	bne	.L1245
	ldr	r0, [r5, #104]
	cmp	r0, #0
	beq	.L1245
	add	r1, r0, #48
	add	r7, sp, #8
	mov	ip, #-2147483639
	strb	r3, [r5, #120]
	str	r1, [sp, #16]
	str	r2, [sp, #12]
	str	r2, [sp, #20]
	str	ip, [sp, #8]
	mov	r3, r7
	ldr	r2, [r0, #48]
	mov	r1, #3
	ldr	r0, [r0, #56]
	bl	epoll_ctl(PLT)
.L1245:
	mov	r0, r6
	bl	pthread_mutex_unlock(PLT)
	b	.L1244
.L1230:
	ldr	r3, [r0]
	ldr	r3, [r3, #20]
	mcr	p15, 0, r0, c7, c10, 5
	add	r3, r3, #124
.L1280:
	ldrex	r2, [r3]
	add	r2, r2, #1
	strex	r1, r2, [r3]
	cmp	r1, #0
	bne	.L1280
	mcr	p15, 0, r0, c7, c10, 5
	ldr	r1, [r4, #4]
	b	.L1247
.L1286:
	.align	2
.L1285:
	.word	_GLOBAL_OFFSET_TABLE_-(.LPIC89+8)
	.word	_ZN4asio6detail10call_stackINS0_15task_io_serviceENS0_27task_io_service_thread_infoEE4top_E(GOT)
	.personality	__gxx_personality_v0
	.handlerdata
.LLSDA3083:
	.byte	0xff
	.byte	0xff
	.byte	0x1
	.uleb128 .LLSDACSE3083-.LLSDACSB3083
.LLSDACSB3083:
.LLSDACSE3083:
	.section	.text._ZN4asio6detail13epoll_reactor32perform_io_cleanup_on_block_exitD2Ev,"axG",%progbits,_ZN4asio6detail13epoll_reactor32perform_io_cleanup_on_block_exitD5Ev,comdat
	.fnend
	.size	_ZN4asio6detail13epoll_reactor32perform_io_cleanup_on_block_exitD2Ev, .-_ZN4asio6detail13epoll_reactor32perform_io_cleanup_on_block_exitD2Ev
	.weak	_ZN4asio6detail13epoll_reactor32perform_io_cleanup_on_block_exitD1Ev
	.set	_ZN4asio6detail13epoll_reactor32perform_io_cleanup_on_block_exitD1Ev,_ZN4asio6detail13epoll_reactor32perform_io_cleanup_on_block_exitD2Ev
	.section	.text._ZN4asio6detail13epoll_reactor16descriptor_state11do_completeEPNS0_15task_io_serviceEPNS0_25task_io_service_operationERKSt10error_codej,"axG",%progbits,_ZN4asio6detail13epoll_reactor16descriptor_state11do_completeEPNS0_15task_io_serviceEPNS0_25task_io_service_operationERKSt10error_codej,comdat
	.align	2
	.weak	_ZN4asio6detail13epoll_reactor16descriptor_state11do_completeEPNS0_15task_io_serviceEPNS0_25task_io_service_operationERKSt10error_codej
	.syntax unified
	.arm
	.fpu vfp
	.type	_ZN4asio6detail13epoll_reactor16descriptor_state11do_completeEPNS0_15task_io_serviceEPNS0_25task_io_service_operationERKSt10error_codej, %function
_ZN4asio6detail13epoll_reactor16descriptor_state11do_completeEPNS0_15task_io_serviceEPNS0_25task_io_service_operationERKSt10error_codej:
	.fnstart
.LFB3089:
	@ args = 0, pretend = 0, frame = 48
	@ frame_needed = 0, uses_anonymous_args = 0
	push	{r4, r5, r6, r7, r8, r9, r10, fp, lr}
	.save {r4, r5, r6, r7, r8, r9, r10, fp, lr}
	cmp	r0, #0
	ldr	r10, .L1376
	.pad #52
	sub	sp, sp, #52
.LPIC90:
	add	r10, pc, r10
	beq	.L1287
	add	fp, r1, #20
	mov	r5, r1
	str	r0, [sp, #4]
	mov	r0, fp
	mov	r8, r3
	str	r2, [sp, #8]
	bl	pthread_mutex_lock(PLT)
	ldr	r3, .L1376+4
	ldr	r2, [r5, #44]
	mov	r6, #0
	str	r2, [sp, #32]
	str	r6, [sp, #36]
	str	r6, [sp, #40]
	str	r6, [sp, #44]
	ldr	r7, [r10, r3]
	sub	r9, r5, #24
	add	r7, r7, #8
.L1296:
	ldr	r3, [r7], #-4
	orr	r3, r3, #24
	tst	r3, r8
	bne	.L1366
.L1291:
	sub	r5, r5, #8
	cmp	r9, r5
	bne	.L1296
	ldr	r5, [sp, #36]
	cmp	r5, #0
	str	r5, [sp, #44]
	beq	.L1297
	ldr	r3, [r5]
	cmp	r3, #0
	str	r3, [sp, #36]
	streq	r3, [sp, #40]
	mov	r3, #0
	str	r3, [r5]
.L1297:
	mov	r0, fp
	bl	pthread_mutex_unlock(PLT)
	ldr	r3, [sp, #44]
	cmp	r3, #0
	beq	.L1299
	ldr	r3, [sp, #36]
	cmp	r3, #0
	beq	.L1309
	ldr	r3, [sp, #32]
	ldr	r4, [r3, #20]
	ldrb	r3, [r4, #20]	@ zero_extendqisi2
	cmp	r3, #0
	bne	.L1374
.L1301:
	add	r7, r4, #24
	mov	r0, r7
	bl	pthread_mutex_lock(PLT)
	ldr	r3, [sp, #36]
	cmp	r3, #0
	beq	.L1310
	ldr	r2, [r4, #132]
	cmp	r2, #0
	strne	r3, [r2]
	ldr	r2, [sp, #40]
	streq	r3, [r4, #128]
	mov	r3, #0
	str	r2, [r4, #132]
	str	r3, [sp, #36]
	str	r3, [sp, #40]
.L1310:
	ldr	r3, [r4, #96]
	add	r6, r4, #48
	orr	r3, r3, #1
	cmp	r3, #1
	str	r3, [r4, #96]
	beq	.L1313
	mov	r0, r7
	bl	pthread_mutex_unlock(PLT)
	mov	r0, r6
	bl	pthread_cond_signal(PLT)
.L1317:
	ldr	r1, [sp, #36]
	cmp	r1, #0
	beq	.L1309
	str	r1, [sp, #12]
	bl	_ZNSt3_V215system_categoryEv(PLT)
	ldr	r1, [sp, #12]
	add	r6, sp, #16
	mov	r4, #0
	mov	r7, r0
.L1319:
	ldr	r3, [r1]
	ldr	r8, [r1, #4]
	cmp	r3, #0
	streq	r3, [sp, #40]
	str	r3, [sp, #36]
	mov	r3, #0
	str	r4, [r1]
	mov	r0, r3
	str	r4, [sp, #16]
	str	r7, [sp, #20]
	mov	r2, r6
	blx	r8
	ldr	r1, [sp, #36]
	cmp	r1, #0
	bne	.L1319
.L1309:
	cmp	r5, #0
	beq	.L1287
	ldmib	sp, {r0, r2}
	ldr	r4, [r5, #4]
	mov	r1, r5
	mov	r3, #0
.LEHB17:
	blx	r4
.LEHE17:
.L1287:
	add	sp, sp, #52
	@ sp needed
	pop	{r4, r5, r6, r7, r8, r9, r10, fp, pc}
.L1375:
	ldr	r3, [r4, #24]
	mov	r0, r4
.LEHB18:
	blx	r3
.LEHE18:
	cmp	r0, #0
	beq	.L1291
	ldr	r3, [r5, #72]
	cmp	r3, #0
	beq	.L1292
	ldr	r2, [r3]
	cmp	r2, #0
	str	r2, [r5, #72]
	streq	r2, [r5, #76]
	str	r6, [r3]
.L1292:
	ldr	r3, [sp, #40]
	str	r6, [r4]
	cmp	r3, #0
	strne	r4, [r3]
	streq	r4, [sp, #40]
	strne	r4, [sp, #40]
	streq	r4, [sp, #36]
.L1366:
	ldr	r4, [r5, #72]
	cmp	r4, #0
	bne	.L1375
	b	.L1291
.L1374:
	ldr	r3, .L1376+8
	ldr	r3, [r10, r3]
	ldr	r0, [r3]
	bl	pthread_getspecific(PLT)
	cmp	r0, #0
	bne	.L1367
	b	.L1301
.L1304:
	ldr	r0, [r0, #8]
	cmp	r0, #0
	beq	.L1301
.L1367:
	ldr	r3, [r0]
	cmp	r4, r3
	bne	.L1304
	ldr	r3, [r0, #4]
	cmp	r3, #0
	beq	.L1301
	ldr	r2, [sp, #36]
	cmp	r2, #0
	beq	.L1309
	ldr	r1, [r3, #8]
	cmp	r1, #0
	strne	r2, [r1]
	streq	r2, [r3, #4]
	ldr	r2, [sp, #40]
	str	r2, [r3, #8]
	b	.L1309
.L1313:
	ldrb	r2, [r4, #120]	@ zero_extendqisi2
	cmp	r2, #0
	bne	.L1315
	ldr	r0, [r4, #104]
	cmp	r0, #0
	beq	.L1315
	add	r1, r0, #48
	add	r6, sp, #16
	mov	ip, #-2147483639
	strb	r3, [r4, #120]
	str	r1, [sp, #24]
	str	r2, [sp, #20]
	str	r2, [sp, #28]
	str	ip, [sp, #16]
	mov	r3, r6
	ldr	r2, [r0, #48]
	mov	r1, #3
	ldr	r0, [r0, #56]
	bl	epoll_ctl(PLT)
.L1315:
	mov	r0, r7
	bl	pthread_mutex_unlock(PLT)
	b	.L1317
.L1299:
	ldr	r3, [sp, #32]
	ldr	r3, [r3, #20]
	mcr	p15, 0, r0, c7, c10, 5
	add	r3, r3, #124
.L1370:
	ldrex	r2, [r3]
	add	r2, r2, #1
	strex	r1, r2, [r3]
	cmp	r1, #0
	bne	.L1370
	mcr	p15, 0, r0, c7, c10, 5
	b	.L1317
.L1324:
	mov	r0, fp
	bl	pthread_mutex_unlock(PLT)
	add	r0, sp, #32
	bl	_ZN4asio6detail13epoll_reactor32perform_io_cleanup_on_block_exitD1Ev(PLT)
.LEHB19:
	bl	__cxa_end_cleanup(PLT)
.LEHE19:
.L1377:
	.align	2
.L1376:
	.word	_GLOBAL_OFFSET_TABLE_-(.LPIC90+8)
	.word	_ZZN4asio6detail13epoll_reactor16descriptor_state10perform_ioEjE4flag(GOT)
	.word	_ZN4asio6detail10call_stackINS0_15task_io_serviceENS0_27task_io_service_thread_infoEE4top_E(GOT)
	.personality	__gxx_personality_v0
	.handlerdata
.LLSDA3089:
	.byte	0xff
	.byte	0xff
	.byte	0x1
	.uleb128 .LLSDACSE3089-.LLSDACSB3089
.LLSDACSB3089:
	.uleb128 .LEHB17-.LFB3089
	.uleb128 .LEHE17-.LEHB17
	.uleb128 0
	.uleb128 0
	.uleb128 .LEHB18-.LFB3089
	.uleb128 .LEHE18-.LEHB18
	.uleb128 .L1324-.LFB3089
	.uleb128 0
	.uleb128 .LEHB19-.LFB3089
	.uleb128 .LEHE19-.LEHB19
	.uleb128 0
	.uleb128 0
.LLSDACSE3089:
	.section	.text._ZN4asio6detail13epoll_reactor16descriptor_state11do_completeEPNS0_15task_io_serviceEPNS0_25task_io_service_operationERKSt10error_codej,"axG",%progbits,_ZN4asio6detail13epoll_reactor16descriptor_state11do_completeEPNS0_15task_io_serviceEPNS0_25task_io_service_operationERKSt10error_codej,comdat
	.fnend
	.size	_ZN4asio6detail13epoll_reactor16descriptor_state11do_completeEPNS0_15task_io_serviceEPNS0_25task_io_service_operationERKSt10error_codej, .-_ZN4asio6detail13epoll_reactor16descriptor_state11do_completeEPNS0_15task_io_serviceEPNS0_25task_io_service_operationERKSt10error_codej
	.section	.text._ZN4asio6detail15task_io_service25post_immediate_completionEPNS0_25task_io_service_operationEb,"axG",%progbits,_ZN4asio6detail15task_io_service25post_immediate_completionEPNS0_25task_io_service_operationEb,comdat
	.align	2
	.weak	_ZN4asio6detail15task_io_service25post_immediate_completionEPNS0_25task_io_service_operationEb
	.syntax unified
	.arm
	.fpu vfp
	.type	_ZN4asio6detail15task_io_service25post_immediate_completionEPNS0_25task_io_service_operationEb, %function
_ZN4asio6detail15task_io_service25post_immediate_completionEPNS0_25task_io_service_operationEb:
	.fnstart
.LFB3121:
	@ args = 0, pretend = 0, frame = 16
	@ frame_needed = 0, uses_anonymous_args = 0
	push	{r4, r5, r6, lr}
	mov	r5, r1
	ldrb	r1, [r0, #20]	@ zero_extendqisi2
	ldr	r3, .L1412
	sub	sp, sp, #16
	orrs	r2, r2, r1
.LPIC91:
	add	r3, pc, r3
	mov	r4, r0
	beq	.L1379
	ldr	r2, .L1412+4
	ldr	r3, [r3, r2]
	ldr	r0, [r3]
	bl	pthread_getspecific(PLT)
	cmp	r0, #0
	bne	.L1406
	b	.L1379
.L1382:
	ldr	r0, [r0, #8]
	cmp	r0, #0
	beq	.L1379
.L1406:
	ldr	r3, [r0]
	cmp	r4, r3
	bne	.L1382
	ldr	r3, [r0, #4]
	cmp	r3, #0
	beq	.L1379
	ldr	r1, [r3, #8]
	ldr	r2, [r3, #12]
	cmp	r1, #0
	add	r2, r2, #1
	mov	r0, #0
	str	r2, [r3, #12]
	str	r0, [r5]
	strne	r5, [r1]
	streq	r5, [r3, #8]
	strne	r5, [r3, #8]
	streq	r5, [r3, #4]
	add	sp, sp, #16
	@ sp needed
	pop	{r4, r5, r6, pc}
.L1379:
	add	r3, r4, #124
	mcr	p15, 0, r0, c7, c10, 5
.L1408:
	ldrex	r2, [r3]
	add	r2, r2, #1
	strex	r1, r2, [r3]
	cmp	r1, #0
	bne	.L1408
	add	r6, r4, #24
	mcr	p15, 0, r0, c7, c10, 5
	mov	r0, r6
	bl	pthread_mutex_lock(PLT)
	ldr	r3, [r4, #132]
	mov	r2, #0
	cmp	r3, r2
	str	r2, [r5]
	strne	r5, [r3]
	ldr	r3, [r4, #96]
	strne	r5, [r4, #132]
	orr	r3, r3, #1
	streq	r5, [r4, #132]
	streq	r5, [r4, #128]
	cmp	r3, #1
	add	r5, r4, #48
	str	r3, [r4, #96]
	beq	.L1389
	mov	r0, r6
	bl	pthread_mutex_unlock(PLT)
	mov	r0, r5
	bl	pthread_cond_signal(PLT)
	add	sp, sp, #16
	@ sp needed
	pop	{r4, r5, r6, pc}
.L1389:
	ldrb	r1, [r4, #120]	@ zero_extendqisi2
	cmp	r1, #0
	bne	.L1391
	ldr	r0, [r4, #104]
	cmp	r0, #0
	beq	.L1391
	strb	r3, [r4, #120]
	add	lr, r0, #48
	mov	r4, #-2147483639
	ldr	r2, [r0, #48]
	str	r1, [sp, #4]
	str	r1, [sp, #12]
	mov	r3, sp
	ldr	r0, [r0, #56]
	mov	r1, #3
	str	r4, [sp]
	str	lr, [sp, #8]
	bl	epoll_ctl(PLT)
.L1391:
	mov	r0, r6
	bl	pthread_mutex_unlock(PLT)
	add	sp, sp, #16
	@ sp needed
	pop	{r4, r5, r6, pc}
.L1413:
	.align	2
.L1412:
	.word	_GLOBAL_OFFSET_TABLE_-(.LPIC91+8)
	.word	_ZN4asio6detail10call_stackINS0_15task_io_serviceENS0_27task_io_service_thread_infoEE4top_E(GOT)
	.cantunwind
	.fnend
	.size	_ZN4asio6detail15task_io_service25post_immediate_completionEPNS0_25task_io_service_operationEb, .-_ZN4asio6detail15task_io_service25post_immediate_completionEPNS0_25task_io_service_operationEb
	.text
	.align	2
	.global	_ZN7asiopal13SerialChannel13BeginReadImplEN7openpal6WSliceE
	.syntax unified
	.arm
	.fpu vfp
	.type	_ZN7asiopal13SerialChannel13BeginReadImplEN7openpal6WSliceE, %function
_ZN7asiopal13SerialChannel13BeginReadImplEN7openpal6WSliceE:
	.fnstart
.LFB6789:
	@ args = 0, pretend = 0, frame = 72
	@ frame_needed = 0, uses_anonymous_args = 0
	ldr	r3, [r0, #12]
	push	{r4, r5, r6, r7, r8, r9, r10, fp, lr}
	.save {r4, r5, r6, r7, r8, r9, r10, fp, lr}
	mov	r5, r0
	ldr	r6, .L1594
	.pad #76
	sub	sp, sp, #76
	ldr	r0, .L1594+4
	ldr	ip, [r3, #20]
	ldr	r4, [r3, #24]
.LPIC92:
	add	r6, pc, r6
	add	r3, sp, #16
	str	r5, [sp, #64]
	stm	r3, {r1, r2}
	str	ip, [sp, #56]
	str	r4, [sp, #60]
	ldr	r3, [r6, r0]
	ldr	fp, [sp, #20]
	mov	r9, r1
	ldr	r0, [r3]
	ldr	r3, [r5, #44]
	str	r3, [sp, #4]
	bl	pthread_getspecific(PLT)
	cmp	r0, #0
	bne	.L1419
	b	.L1487
.L1418:
	ldr	r0, [r0, #8]
	cmp	r0, #0
	beq	.L1487
.L1419:
	ldr	r3, [r0]
	cmp	r4, r3
	bne	.L1418
	ldr	r0, [r0, #4]
	adds	r3, r0, #0
	movne	r3, #1
	str	r3, [sp, #8]
	b	.L1415
.L1487:
	str	r0, [sp, #8]
.L1415:
	ldr	r3, .L1594+8
	add	r8, sp, #28
	mov	r10, #0
	add	r7, sp, #56
	str	r10, [r8, #4]
	str	r10, [r8, #8]
	str	r7, [sp, #28]
	ldr	r3, [r6, r3]
	str	r3, [sp, #12]
	ldr	r0, [r3]
	bl	pthread_getspecific(PLT)
	cmp	r0, #0
	beq	.L1420
	ldr	r3, [r0, #4]
	cmp	r3, r10
	beq	.L1420
	ldr	r4, [r3]
	cmp	r4, r10
	beq	.L1420
	str	r10, [r3]
	ldrb	r3, [r4]	@ zero_extendqisi2
	cmp	r3, #51
	bls	.L1584
.L1568:
	strb	r3, [r4, #52]
	ldr	r3, .L1594+12
	mov	r2, #0
.LPIC93:
	add	r3, pc, r3
	ldr	r10, [r5, #32]
	str	r4, [sp, #32]
	str	r2, [r4, #8]
	stm	r4, {r2, r3}
	str	r2, [r4, #12]
	str	r2, [sp]
	bl	_ZNSt3_V215system_categoryEv(PLT)
	ldr	ip, .L1594+16
	ldr	r2, [sp]
	cmp	r9, #0
	str	r2, [r4, #20]
	mov	r3, r0
	str	r3, [r4, #16]
	ldr	r2, [r6, ip]
	ldm	r7, {r0, r1}
	str	r2, [r4, #24]
	ldr	ip, [sp, #64]
	add	r2, r4, #40
	str	r10, [r4, #28]
	str	fp, [r4, #32]
	str	r9, [r4, #36]
	str	r4, [sp, #36]
	stm	r2, {r0, r1}
	str	ip, [r4, #48]
	beq	.L1423
	ldrb	r2, [r5, #36]	@ zero_extendqisi2
	ands	r9, r2, #3
	beq	.L1585
.L1424:
	ldr	r3, [r5, #40]
	ldr	r2, [sp, #4]
	cmp	r3, #0
	ldr	r9, [r2, #20]
	beq	.L1586
	add	r6, r3, #20
	mov	r0, r6
	bl	pthread_mutex_lock(PLT)
	ldr	r3, [r5, #40]
	ldrb	r2, [r3, #80]	@ zero_extendqisi2
	cmp	r2, #0
	bne	.L1587
	ldr	r1, [r3, #56]
	cmp	r1, #0
	beq	.L1588
.L1464:
	ldr	r2, [r3, #60]
	mov	r1, #0
	cmp	r2, r1
	str	r1, [r4]
	strne	r4, [r2]
	streq	r4, [r3, #60]
	strne	r4, [r3, #60]
	streq	r4, [r3, #56]
	ldr	r3, [r9, #20]
	mcr	p15, 0, r0, c7, c10, 5
	add	r3, r3, #124
.L1563:
	ldrex	r2, [r3]
	add	r2, r2, #1
	strex	r1, r2, [r3]
	cmp	r1, #0
	bne	.L1563
	mov	r0, r6
	mcr	p15, 0, r0, c7, c10, 5
	bl	pthread_mutex_unlock(PLT)
	b	.L1414
.L1585:
	cmn	r10, #1
	bne	.L1425
	ldr	r3, .L1594+20
	ldr	r5, [r6, r3]
	ldrb	r3, [r5]	@ zero_extendqisi2
	mcr	p15, 0, r0, c7, c10, 5
	tst	r3, #1
	beq	.L1589
.L1569:
	ldr	r3, .L1594+24
	ldr	r7, [r6, r3]
.L1427:
	mov	r3, #9
	str	r7, [r4, #16]
	str	r3, [r4, #12]
.L1423:
	ldr	r3, [sp, #4]
	ldr	r2, [sp, #8]
	ldr	r3, [r3, #20]
	ldr	r5, [r3, #20]
	ldrb	r3, [r5, #20]	@ zero_extendqisi2
	orrs	r3, r2, r3
	bne	.L1590
.L1471:
	add	r3, r5, #124
	mcr	p15, 0, r0, c7, c10, 5
.L1562:
	ldrex	r2, [r3]
	add	r2, r2, #1
	strex	r1, r2, [r3]
	cmp	r1, #0
	bne	.L1562
	add	r6, r5, #24
	mcr	p15, 0, r0, c7, c10, 5
	mov	r0, r6
	bl	pthread_mutex_lock(PLT)
	ldr	r3, [r5, #132]
	mov	r2, #0
	cmp	r3, r2
	str	r2, [r4]
	strne	r4, [r3]
	ldr	r3, [r5, #96]
	strne	r4, [r5, #132]
	orr	r3, r3, #1
	streq	r4, [r5, #132]
	streq	r4, [r5, #128]
	cmp	r3, #1
	add	r4, r5, #48
	str	r3, [r5, #96]
	beq	.L1480
.L1576:
	mov	r0, r6
	bl	pthread_mutex_unlock(PLT)
	mov	r0, r4
	bl	pthread_cond_signal(PLT)
.L1414:
	add	sp, sp, #76
	@ sp needed
	pop	{r4, r5, r6, r7, r8, r9, r10, fp, pc}
.L1590:
	ldr	r3, [sp, #12]
	ldr	r0, [r3]
	bl	pthread_getspecific(PLT)
	cmp	r0, #0
	bne	.L1553
	b	.L1471
.L1474:
	ldr	r0, [r0, #8]
	cmp	r0, #0
	beq	.L1471
.L1553:
	ldr	r3, [r0]
	cmp	r5, r3
	bne	.L1474
	ldr	r3, [r0, #4]
	cmp	r3, #0
	beq	.L1471
.L1475:
	ldr	r1, [r3, #8]
	ldr	r2, [r3, #12]
	cmp	r1, #0
	add	r2, r2, #1
	mov	r0, #0
	str	r2, [r3, #12]
	str	r0, [r4]
	strne	r4, [r1]
	streq	r4, [r3, #8]
	strne	r4, [r3, #8]
	streq	r4, [r3, #4]
	add	sp, sp, #76
	@ sp needed
	pop	{r4, r5, r6, r7, r8, r9, r10, fp, pc}
.L1584:
	mov	r0, r4
	bl	_ZdlPv(PLT)
.L1420:
	mov	r0, #53
.LEHB20:
	bl	_Znwj(PLT)
.LEHE20:
	mov	r3, #52
	mov	r4, r0
	b	.L1568
.L1480:
	ldrb	r2, [r5, #120]	@ zero_extendqisi2
	cmp	r2, #0
	bne	.L1458
	ldr	r0, [r5, #104]
	cmp	r0, #0
	beq	.L1458
	add	r1, sp, #40
	strb	r3, [r5, #120]
	mov	lr, #-2147483639
	add	ip, r0, #48
	mov	r3, r1
	str	r2, [sp, #44]
	str	r2, [sp, #52]
.L1578:
	str	lr, [sp, #40]
	str	ip, [sp, #48]
	mov	r1, #3
	ldr	r2, [r0, #48]
	ldr	r0, [r0, #56]
	bl	epoll_ctl(PLT)
.L1458:
	mov	r0, r6
	bl	pthread_mutex_unlock(PLT)
	add	sp, sp, #76
	@ sp needed
	pop	{r4, r5, r6, r7, r8, r9, r10, fp, pc}
.L1425:
	str	r3, [sp]
	bl	__errno_location(PLT)
	add	r2, sp, #72
	mov	r1, #1
	str	r1, [r2, #-32]!
	ldr	r1, .L1594+28
	mov	r7, r0
	str	r9, [r0]
	mov	r0, r10
	bl	ioctl(PLT)
	ldr	r2, .L1594+20
	ldr	r10, [r7]
	ldr	r7, [r6, r2]
	ldrb	r2, [r7]	@ zero_extendqisi2
	mcr	p15, 0, r0, c7, c10, 5
	ldr	r3, [sp]
	tst	r2, #1
	mov	r9, r0
	beq	.L1591
.L1570:
	ldr	r2, .L1594+24
	ldr	r7, [r6, r2]
.L1431:
	cmp	r9, #0
	str	r10, [r4, #12]
	str	r7, [r4, #16]
	blt	.L1423
	mov	r2, #0
	str	r3, [r4, #16]
	str	r2, [r4, #12]
	ldrb	r3, [r5, #36]	@ zero_extendqisi2
	ldr	r10, [r5, #32]
	orr	r3, r3, #2
	strb	r3, [r5, #36]
	b	.L1424
.L1591:
	mov	r0, r7
	str	r3, [sp]
	bl	__cxa_guard_acquire(PLT)
	ldr	r3, [sp]
	cmp	r0, #0
	beq	.L1570
	mov	r0, r7
	str	r3, [sp]
	bl	__cxa_guard_release(PLT)
	ldr	r0, .L1594+24
	ldr	r1, .L1594+32
	ldr	r2, .L1594+36
	ldr	r7, [r6, r0]
.LPIC95:
	add	r2, pc, r2
	ldr	r1, [r6, r1]
	mov	r0, r7
	bl	__aeabi_atexit(PLT)
	ldr	r3, [sp]
	b	.L1431
.L1586:
	ldr	r3, .L1594+20
	ldr	r5, [r6, r3]
	ldrb	r3, [r5]	@ zero_extendqisi2
	mcr	p15, 0, r0, c7, c10, 5
	tst	r3, #1
	beq	.L1592
.L1571:
	ldr	r3, .L1594+24
	ldr	r7, [r6, r3]
.L1435:
	ldr	r5, [r9, #20]
	mov	r2, #9
	str	r7, [r4, #16]
	ldrb	r3, [r5, #20]	@ zero_extendqisi2
	str	r2, [r4, #12]
	ldr	r2, [sp, #8]
	orrs	r3, r2, r3
	beq	.L1437
	ldr	r3, [sp, #12]
	ldr	r0, [r3]
	bl	pthread_getspecific(PLT)
	cmp	r0, #0
	beq	.L1437
	ldr	r3, [r0]
	cmp	r3, r5
	bne	.L1440
	b	.L1438
.L1550:
	ldr	r3, [r0]
	cmp	r5, r3
	beq	.L1438
.L1440:
	ldr	r0, [r0, #8]
	cmp	r0, #0
	bne	.L1550
.L1437:
	add	r3, r5, #124
	mcr	p15, 0, r0, c7, c10, 5
.L1565:
	ldrex	r2, [r3]
	add	r2, r2, #1
	strex	r1, r2, [r3]
	cmp	r1, #0
	bne	.L1565
	add	r6, r5, #24
	mcr	p15, 0, r0, c7, c10, 5
	mov	r0, r6
	bl	pthread_mutex_lock(PLT)
	ldr	r3, [r5, #132]
	mov	r2, #0
	cmp	r3, r2
	str	r2, [r4]
	strne	r4, [r3]
	ldr	r3, [r5, #96]
	strne	r4, [r5, #132]
	orr	r3, r3, #1
	streq	r4, [r5, #132]
	streq	r4, [r5, #128]
	cmp	r3, #1
	add	r4, r5, #48
	str	r3, [r5, #96]
	bne	.L1576
	ldrb	r1, [r5, #120]	@ zero_extendqisi2
	cmp	r1, #0
	bne	.L1458
	ldr	r0, [r5, #104]
	cmp	r0, #0
	beq	.L1458
	add	r2, sp, #40
	strb	r3, [r5, #120]
	mov	lr, #-2147483639
	add	ip, r0, #48
	mov	r3, r2
	str	r1, [sp, #44]
	str	r1, [sp, #52]
	b	.L1578
.L1587:
	ldr	r5, [r9, #20]
	ldr	r2, [sp, #8]
	ldrb	r3, [r5, #20]	@ zero_extendqisi2
	orrs	r3, r2, r3
	beq	.L1451
	ldr	r3, [sp, #12]
	ldr	r0, [r3]
	bl	pthread_getspecific(PLT)
	cmp	r0, #0
	bne	.L1551
	b	.L1451
.L1454:
	ldr	r0, [r0, #8]
	cmp	r0, #0
	beq	.L1451
.L1551:
	ldr	r3, [r0]
	cmp	r5, r3
	bne	.L1454
	ldr	r3, [r0, #4]
	cmp	r3, #0
	beq	.L1451
	ldr	r1, [r3, #8]
	ldr	r2, [r3, #12]
	cmp	r1, #0
	add	r2, r2, #1
	mov	r0, #0
	str	r2, [r3, #12]
	str	r0, [r4]
	strne	r4, [r1]
	streq	r4, [r3, #8]
	strne	r4, [r3, #8]
	streq	r4, [r3, #4]
	b	.L1458
.L1451:
	add	r3, r5, #124
	mcr	p15, 0, r0, c7, c10, 5
.L1564:
	ldrex	r2, [r3]
	add	r2, r2, #1
	strex	r1, r2, [r3]
	cmp	r1, #0
	bne	.L1564
	add	r7, r5, #24
	mcr	p15, 0, r0, c7, c10, 5
	mov	r0, r7
	bl	pthread_mutex_lock(PLT)
	ldr	r3, [r5, #132]
	mov	r2, #0
	cmp	r3, r2
	str	r2, [r4]
	strne	r4, [r3]
	ldr	r3, [r5, #96]
	strne	r4, [r5, #132]
	orr	r3, r3, #1
	streq	r4, [r5, #132]
	streq	r4, [r5, #128]
	cmp	r3, #1
	add	r4, r5, #48
	str	r3, [r5, #96]
	beq	.L1461
	mov	r0, r7
	bl	pthread_mutex_unlock(PLT)
	mov	r0, r4
	bl	pthread_cond_signal(PLT)
	b	.L1458
.L1588:
	ldr	r2, [r3, #72]
	cmp	r2, #0
	beq	.L1593
	ldr	r0, [r3, #52]
	add	ip, sp, #40
	str	r3, [sp, #48]
	str	r0, [sp, #40]
	mov	r2, r10
	ldr	r0, [r9, #56]
	mov	r3, ip
	str	r1, [sp, #44]
	str	r1, [sp, #52]
	mov	r1, #3
	bl	epoll_ctl(PLT)
.L1573:
	ldr	r3, [r5, #40]
	b	.L1464
.L1461:
	ldrb	r2, [r5, #120]	@ zero_extendqisi2
	cmp	r2, #0
	bne	.L1463
	ldr	r0, [r5, #104]
	cmp	r0, #0
	beq	.L1463
	strb	r3, [r5, #120]
	add	r3, sp, #40
	add	r1, r0, #48
	mov	ip, #-2147483639
	str	r1, [sp, #48]
	str	r2, [r3, #4]
	str	r2, [r3, #12]
	str	ip, [sp, #40]
	mov	r1, #3
	ldr	r2, [r0, #48]
	ldr	r0, [r0, #56]
	bl	epoll_ctl(PLT)
.L1463:
	mov	r0, r7
	bl	pthread_mutex_unlock(PLT)
	b	.L1458
.L1592:
	mov	r0, r5
	bl	__cxa_guard_acquire(PLT)
	cmp	r0, #0
	beq	.L1571
	mov	r0, r5
	bl	__cxa_guard_release(PLT)
	ldr	r3, .L1594+24
	ldr	r1, .L1594+32
	ldr	r2, .L1594+40
	ldr	r7, [r6, r3]
.LPIC96:
	add	r2, pc, r2
	ldr	r1, [r6, r1]
	mov	r0, r7
	bl	__aeabi_atexit(PLT)
	b	.L1435
.L1589:
	mov	r0, r5
	bl	__cxa_guard_acquire(PLT)
	cmp	r0, #0
	beq	.L1569
	mov	r0, r5
	bl	__cxa_guard_release(PLT)
	ldr	r3, .L1594+24
	ldr	r1, .L1594+32
	ldr	r2, .L1594+44
	ldr	r7, [r6, r3]
.LPIC94:
	add	r2, pc, r2
	ldr	r1, [r6, r1]
	mov	r0, r7
	bl	__aeabi_atexit(PLT)
	b	.L1427
.L1438:
	ldr	r3, [r0, #4]
	cmp	r3, #0
	bne	.L1475
	b	.L1437
.L1593:
	ldr	r3, [r4, #24]
	mov	r0, r4
.LEHB21:
	blx	r3
.LEHE21:
	cmp	r0, #0
	beq	.L1573
	mov	r0, r6
	bl	pthread_mutex_unlock(PLT)
	ldr	r2, [sp, #8]
	mov	r1, r4
	ldr	r0, [r9, #20]
	bl	_ZN4asio6detail15task_io_service25post_immediate_completionEPNS0_25task_io_service_operationEb(PLT)
	b	.L1414
.L1488:
	mov	r0, r6
	bl	pthread_mutex_unlock(PLT)
	mov	r0, r8
	bl	_ZN4asio6detail18descriptor_read_opINS_17mutable_buffers_1ENS0_15wrapped_handlerINS_10io_service6strandEZN7asiopal13SerialChannel13BeginReadImplEN7openpal6WSliceEEUlRKSt10error_codejE_NS0_26is_continuation_if_runningEEEE3ptr5resetEv(PLT)
.LEHB22:
	bl	__cxa_end_cleanup(PLT)
.LEHE22:
.L1595:
	.align	2
.L1594:
	.word	_GLOBAL_OFFSET_TABLE_-(.LPIC92+8)
	.word	_ZN4asio6detail10call_stackINS0_14strand_service11strand_implEhE4top_E(GOT)
	.word	_ZN4asio6detail10call_stackINS0_15task_io_serviceENS0_27task_io_service_thread_infoEE4top_E(GOT)
	.word	_ZN4asio6detail18descriptor_read_opINS_17mutable_buffers_1ENS0_15wrapped_handlerINS_10io_service6strandEZN7asiopal13SerialChannel13BeginReadImplEN7openpal6WSliceEEUlRKSt10error_codejE_NS0_26is_continuation_if_runningEEEE11do_completeEPNS0_15task_io_serviceEPNS0_25task_io_service_operationESC_j-(.LPIC93+8)
	.word	_ZN4asio6detail23descriptor_read_op_baseINS_17mutable_buffers_1EE10do_performEPNS0_10reactor_opE(GOT)
	.word	_ZGVZN4asio15system_categoryEvE8instance(GOT)
	.word	_ZZN4asio15system_categoryEvE8instance(GOT)
	.word	21537
	.word	_ZN4asio6detail15system_categoryD1Ev(GOT)
	.word	__dso_handle-(.LPIC95+8)
	.word	__dso_handle-(.LPIC96+8)
	.word	__dso_handle-(.LPIC94+8)
	.personality	__gxx_personality_v0
	.handlerdata
.LLSDA6789:
	.byte	0xff
	.byte	0xff
	.byte	0x1
	.uleb128 .LLSDACSE6789-.LLSDACSB6789
.LLSDACSB6789:
	.uleb128 .LEHB20-.LFB6789
	.uleb128 .LEHE20-.LEHB20
	.uleb128 0
	.uleb128 0
	.uleb128 .LEHB21-.LFB6789
	.uleb128 .LEHE21-.LEHB21
	.uleb128 .L1488-.LFB6789
	.uleb128 0
	.uleb128 .LEHB22-.LFB6789
	.uleb128 .LEHE22-.LEHB22
	.uleb128 0
	.uleb128 0
.LLSDACSE6789:
	.text
	.fnend
	.size	_ZN7asiopal13SerialChannel13BeginReadImplEN7openpal6WSliceE, .-_ZN7asiopal13SerialChannel13BeginReadImplEN7openpal6WSliceE
	.section	.text._ZN4asio6detail14strand_service16on_dispatch_exitD2Ev,"axG",%progbits,_ZN4asio6detail14strand_service16on_dispatch_exitD5Ev,comdat
	.align	2
	.weak	_ZN4asio6detail14strand_service16on_dispatch_exitD2Ev
	.syntax unified
	.arm
	.fpu vfp
	.type	_ZN4asio6detail14strand_service16on_dispatch_exitD2Ev, %function
_ZN4asio6detail14strand_service16on_dispatch_exitD2Ev:
	.fnstart
.LFB6165:
	@ args = 0, pretend = 0, frame = 16
	@ frame_needed = 0, uses_anonymous_args = 0
	push	{r4, r5, r6, r7, lr}
	mov	r5, r0
	ldr	r0, [r0, #4]
	sub	sp, sp, #20
	add	r0, r0, #12
	bl	pthread_mutex_lock(PLT)
	ldr	r0, [r5, #4]
	ldr	r6, .L1640
	ldr	r4, [r0, #40]
.LPIC97:
	add	r6, pc, r6
	cmp	r4, #0
	ldreq	r4, [r0, #48]
	beq	.L1598
	ldr	r3, [r0, #52]
	cmp	r3, #0
	strne	r4, [r3]
	ldrne	r4, [r0, #48]
	ldr	r2, [r0, #44]
	mov	r3, #0
	streq	r4, [r0, #48]
	str	r2, [r0, #52]
	str	r3, [r0, #40]
	str	r3, [r0, #44]
.L1598:
	adds	r3, r4, #0
	movne	r3, #1
	strb	r3, [r0, #36]
	add	r0, r0, #12
	bl	pthread_mutex_unlock(PLT)
	cmp	r4, #0
	bne	.L1638
.L1620:
	mov	r0, r5
	add	sp, sp, #20
	@ sp needed
	pop	{r4, r5, r6, r7, pc}
.L1638:
	ldm	r5, {r4, r7}
	ldrb	r3, [r4, #20]	@ zero_extendqisi2
	cmp	r3, #0
	bne	.L1639
.L1602:
	add	r3, r4, #124
	mcr	p15, 0, r0, c7, c10, 5
.L1634:
	ldrex	r2, [r3]
	add	r2, r2, #1
	strex	r1, r2, [r3]
	cmp	r1, #0
	bne	.L1634
	add	r6, r4, #24
	mcr	p15, 0, r0, c7, c10, 5
	mov	r0, r6
	bl	pthread_mutex_lock(PLT)
	ldr	r3, [r4, #132]
	mov	r2, #0
	cmp	r3, r2
	str	r2, [r7]
	strne	r7, [r3]
	ldr	r3, [r4, #96]
	strne	r7, [r4, #132]
	orr	r3, r3, #1
	streq	r7, [r4, #132]
	streq	r7, [r4, #128]
	cmp	r3, #1
	add	r7, r4, #48
	str	r3, [r4, #96]
	beq	.L1611
	mov	r0, r6
	bl	pthread_mutex_unlock(PLT)
	mov	r0, r7
	bl	pthread_cond_signal(PLT)
	mov	r0, r5
	add	sp, sp, #20
	@ sp needed
	pop	{r4, r5, r6, r7, pc}
.L1611:
	ldrb	r2, [r4, #120]	@ zero_extendqisi2
	cmp	r2, #0
	bne	.L1613
	ldr	r0, [r4, #104]
	cmp	r0, #0
	beq	.L1613
	add	ip, r0, #48
	strb	r3, [r4, #120]
	mov	lr, #-2147483639
	str	r2, [sp, #4]
	str	r2, [sp, #12]
	mov	r3, sp
	ldr	r2, [r0, #48]
	mov	r1, #3
	ldr	r0, [r0, #56]
	str	lr, [sp]
	str	ip, [sp, #8]
	bl	epoll_ctl(PLT)
.L1613:
	mov	r0, r6
	bl	pthread_mutex_unlock(PLT)
	mov	r0, r5
	add	sp, sp, #20
	@ sp needed
	pop	{r4, r5, r6, r7, pc}
.L1639:
	ldr	r3, .L1640+4
	ldr	r3, [r6, r3]
	ldr	r0, [r3]
	bl	pthread_getspecific(PLT)
	cmp	r0, #0
	bne	.L1632
	b	.L1602
.L1605:
	ldr	r0, [r0, #8]
	cmp	r0, #0
	beq	.L1602
.L1632:
	ldr	r3, [r0]
	cmp	r4, r3
	bne	.L1605
	ldr	r3, [r0, #4]
	cmp	r3, #0
	beq	.L1602
	ldr	r1, [r3, #8]
	ldr	r2, [r3, #12]
	cmp	r1, #0
	add	r2, r2, #1
	mov	r0, #0
	str	r2, [r3, #12]
	str	r0, [r7]
	strne	r7, [r1]
	streq	r7, [r3, #8]
	strne	r7, [r3, #8]
	streq	r7, [r3, #4]
	b	.L1620
.L1641:
	.align	2
.L1640:
	.word	_GLOBAL_OFFSET_TABLE_-(.LPIC97+8)
	.word	_ZN4asio6detail10call_stackINS0_15task_io_serviceENS0_27task_io_service_thread_infoEE4top_E(GOT)
	.cantunwind
	.fnend
	.size	_ZN4asio6detail14strand_service16on_dispatch_exitD2Ev, .-_ZN4asio6detail14strand_service16on_dispatch_exitD2Ev
	.weak	_ZN4asio6detail14strand_service16on_dispatch_exitD1Ev
	.set	_ZN4asio6detail14strand_service16on_dispatch_exitD1Ev,_ZN4asio6detail14strand_service16on_dispatch_exitD2Ev
	.text
	.align	2
	.syntax unified
	.arm
	.fpu vfp
	.type	_ZN4asio6detail14strand_service8dispatchINS0_7binder2IZN7asiopal13SerialChannel13BeginReadImplEN7openpal6WSliceEEUlRKSt10error_codejE_S8_jEEEEvRPNS1_11strand_implERT_, %function
_ZN4asio6detail14strand_service8dispatchINS0_7binder2IZN7asiopal13SerialChannel13BeginReadImplEN7openpal6WSliceEEUlRKSt10error_codejE_S8_jEEEEvRPNS1_11strand_implERT_:
	.fnstart
.LFB8982:
	@ args = 0, pretend = 0, frame = 64
	@ frame_needed = 0, uses_anonymous_args = 0
	push	{r4, r5, r6, r7, r8, r9, r10, fp, lr}
	.save {r4, r5, r6, r7, r8, r9, r10, fp, lr}
	mov	r6, r0
	ldr	r7, .L1829
	ldr	r3, .L1829+4
.LPIC98:
	add	r7, pc, r7
	.pad #68
	sub	sp, sp, #68
	ldr	r8, [r7, r3]
	mov	r5, r1
	mov	r9, r2
	ldr	r0, [r8]
	ldr	r4, [r1]
	bl	pthread_getspecific(PLT)
	cmp	r0, #0
	bne	.L1796
	b	.L1643
.L1646:
	ldr	r0, [r0, #8]
	cmp	r0, #0
	beq	.L1643
.L1796:
	ldr	r3, [r0]
	cmp	r4, r3
	bne	.L1646
	ldr	r3, [r0, #4]
	cmp	r3, #0
	addne	r3, sp, #64
	movne	r1, #0
	strne	r1, [r3, #-16]!
	movne	r2, #1
	beq	.L1643
.L1808:
	ldrex	r0, [r3]
	strex	ip, r2, [r3]
	cmp	ip, #0
	bne	.L1808
	mcr	p15, 0, r0, c7, c10, 5
	ldr	r3, [r9]
	ldr	r2, [r9, #12]
	ldr	r0, [r3, #20]
	strb	r1, [r3, #29]
	cmp	r0, r1
	beq	.L1651
	ldrb	r3, [r3, #28]	@ zero_extendqisi2
	cmp	r3, #0
	bne	.L1651
	ldr	r3, [r0]
	add	r1, r9, #4
	ldr	r3, [r3, #8]
.LEHB23:
	blx	r3
.LEHE23:
.L1651:
	mov	r3, #0
	mcr	p15, 0, r0, c7, c10, 5
	str	r3, [sp, #48]
.L1642:
	add	sp, sp, #68
	@ sp needed
	pop	{r4, r5, r6, r7, r8, r9, r10, fp, pc}
.L1643:
	ldr	r3, .L1829+8
	add	r10, sp, #12
	mov	fp, #0
	str	r9, [sp, #12]
	str	fp, [r10, #4]
	str	fp, [r10, #8]
	ldr	r7, [r7, r3]
	ldr	r0, [r7]
	bl	pthread_getspecific(PLT)
	cmp	r0, #0
	beq	.L1653
	ldr	r3, [r0, #4]
	cmp	r3, fp
	beq	.L1653
	ldr	r4, [r3]
	cmp	r4, fp
	beq	.L1653
	str	fp, [r3]
	ldrb	r3, [r4]	@ zero_extendqisi2
	cmp	r3, #27
	bls	.L1819
.L1811:
	strb	r3, [r4, #28]
	ldr	lr, .L1829+12
	ldm	r9, {r0, r1, r2, r3}
	add	ip, r4, #12
.LPIC99:
	add	lr, pc, lr
	str	r4, [sp, #16]
	str	lr, [r4, #4]
	mov	lr, #0
	str	lr, [r4]
	str	lr, [r4, #8]
	stm	ip, {r0, r1, r2, r3}
	ldr	r0, [r7]
	str	r4, [sp, #20]
	ldr	r9, [r6, #20]
	bl	pthread_getspecific(PLT)
	subs	r3, r0, #0
	bne	.L1798
	b	.L1656
.L1659:
	ldr	r3, [r3, #8]
	cmp	r3, #0
	beq	.L1656
.L1798:
	ldr	r2, [r3]
	cmp	r9, r2
	bne	.L1659
	ldr	r0, [r5]
	ldr	r9, [r3, #4]
	add	r0, r0, #12
	bl	pthread_mutex_lock(PLT)
	cmp	r9, #0
	beq	.L1661
	ldr	r0, [r5]
	ldrb	r9, [r0, #36]	@ zero_extendqisi2
	cmp	r9, #0
	beq	.L1820
.L1663:
	ldr	r3, [r0, #44]
	mov	r2, #0
	cmp	r3, r2
	str	r2, [r4]
	add	r0, r0, #12
	strne	r4, [r3]
	streq	r4, [r0, #32]
	strne	r4, [r0, #32]
	streq	r4, [r0, #28]
	bl	pthread_mutex_unlock(PLT)
	b	.L1642
.L1819:
	mov	r0, r4
	bl	_ZdlPv(PLT)
.L1653:
	mov	r0, #29
.LEHB24:
	bl	_Znwj(PLT)
.LEHE24:
	mov	r3, #28
	mov	r4, r0
	b	.L1811
.L1656:
	ldr	r0, [r5]
	add	r0, r0, #12
	bl	pthread_mutex_lock(PLT)
.L1661:
	ldr	r0, [r5]
	ldrb	r8, [r0, #36]	@ zero_extendqisi2
	cmp	r8, #0
	bne	.L1663
	mov	r3, #1
	strb	r3, [r0, #36]
	add	r0, r0, #12
	bl	pthread_mutex_unlock(PLT)
	ldr	r5, [r5]
	str	r8, [r4]
	ldr	r3, [r5, #52]
	cmp	r3, #0
	strne	r4, [r3]
	streq	r4, [r5, #52]
	strne	r4, [r5, #52]
	streq	r4, [r5, #48]
	ldr	r4, [r6, #20]
	ldrb	r3, [r4, #20]	@ zero_extendqisi2
	cmp	r3, #0
	bne	.L1821
.L1672:
	add	r3, r4, #124
	mcr	p15, 0, r0, c7, c10, 5
.L1807:
	ldrex	r2, [r3]
	add	r2, r2, #1
	strex	r1, r2, [r3]
	cmp	r1, #0
	bne	.L1807
	add	r6, r4, #24
	mcr	p15, 0, r0, c7, c10, 5
	mov	r0, r6
	bl	pthread_mutex_lock(PLT)
	ldr	r3, [r4, #132]
	mov	r2, #0
	cmp	r3, r2
	str	r2, [r5]
	strne	r5, [r3]
	ldr	r3, [r4, #96]
	strne	r5, [r4, #132]
	orr	r3, r3, #1
	streq	r5, [r4, #132]
	streq	r5, [r4, #128]
	cmp	r3, #1
	add	r5, r4, #48
	str	r3, [r4, #96]
	beq	.L1681
	mov	r0, r6
	bl	pthread_mutex_unlock(PLT)
	mov	r0, r5
	bl	pthread_cond_signal(PLT)
	b	.L1642
.L1820:
	mov	r3, #1
	strb	r3, [r0, #36]
	add	r0, r0, #12
	bl	pthread_mutex_unlock(PLT)
	ldr	r3, [r5]
	ldr	r0, [r8]
	ldr	fp, [sp, #20]
	str	r3, [sp, #24]
	str	r9, [sp, #16]
	str	r9, [sp, #20]
	bl	pthread_getspecific(PLT)
	add	r3, sp, #24
	mov	r1, r3
	str	r3, [sp, #28]
	add	r4, sp, #48
	str	r0, [sp, #32]
	ldr	r0, [r8]
	bl	pthread_setspecific(PLT)
	add	r3, fp, #12
	ldr	r6, [r6, #20]
	ldm	r3, {r0, r1, r2, r3}
	ldr	ip, [r5]
	str	fp, [sp, #40]
	stm	r4, {r0, r1, r2, r3}
	ldr	r0, [r7]
	stmib	sp, {r6, ip}
	str	r9, [sp, #44]
	str	r4, [sp, #36]
	bl	pthread_getspecific(PLT)
	cmp	r0, #0
	beq	.L1665
	ldr	r3, [r0, #4]
	cmp	r3, #0
	beq	.L1665
	ldr	r2, [r3]
	cmp	r2, #0
	beq	.L1822
.L1665:
	mov	r0, fp
	bl	_ZdlPv(PLT)
.L1684:
	mov	r1, #0
	cmp	r6, #0
	str	r1, [sp, #40]
	beq	.L1685
	add	r3, sp, #64
	mov	r2, #1
	str	r1, [r3, #-64]!
.L1806:
	ldrex	r0, [r3]
	strex	ip, r2, [r3]
	cmp	ip, #0
	bne	.L1806
	mcr	p15, 0, r0, c7, c10, 5
	ldr	r3, [sp, #48]
	ldr	r2, [sp, #60]
	ldr	r0, [r3, #20]
	strb	r1, [r3, #29]
	cmp	r0, r1
	beq	.L1689
	ldrb	r3, [r3, #28]	@ zero_extendqisi2
	cmp	r3, #0
	beq	.L1823
.L1689:
	mov	r3, #0
	mcr	p15, 0, r0, c7, c10, 5
	str	r3, [sp]
	ldr	r3, [sp, #44]
	cmp	r3, #0
	ldrne	r6, [sp, #40]
	beq	.L1824
.L1719:
	mov	r3, #0
	str	r3, [sp, #44]
.L1691:
	cmp	r6, #0
	beq	.L1692
	ldr	r0, [r7]
	bl	pthread_getspecific(PLT)
	cmp	r0, #0
	beq	.L1693
	ldr	r3, [r0, #4]
	cmp	r3, #0
	beq	.L1693
	ldr	r2, [r3]
	cmp	r2, #0
	beq	.L1825
.L1693:
	mov	r0, r6
	bl	_ZdlPv(PLT)
.L1692:
	ldr	r0, [sp, #8]
	add	r0, r0, #12
	bl	pthread_mutex_lock(PLT)
	ldr	r0, [sp, #8]
	ldr	r5, [r0, #40]
	cmp	r5, #0
	ldreq	r5, [r0, #48]
	beq	.L1695
	ldr	r3, [r0, #52]
	cmp	r3, #0
	strne	r5, [r3]
	ldrne	r5, [r0, #48]
	ldr	r2, [r0, #44]
	mov	r3, #0
	streq	r5, [r0, #48]
	str	r2, [r0, #52]
	str	r3, [r0, #40]
	str	r3, [r0, #44]
.L1695:
	adds	r3, r5, #0
	movne	r3, #1
	strb	r3, [r0, #36]
	add	r0, r0, #12
	bl	pthread_mutex_unlock(PLT)
	cmp	r5, #0
	bne	.L1826
.L1699:
	ldr	r0, [r8]
	ldr	r1, [sp, #32]
	bl	pthread_setspecific(PLT)
	ldr	r3, [sp, #20]
	ldr	r4, [sp, #16]
	cmp	r3, #0
	movne	r3, #0
	strne	r3, [sp, #20]
	cmp	r4, #0
	beq	.L1642
	ldr	r0, [r7]
	bl	pthread_getspecific(PLT)
	cmp	r0, #0
	beq	.L1715
	ldr	r3, [r0, #4]
	cmp	r3, #0
	beq	.L1715
	ldr	r2, [r3]
	cmp	r2, #0
	beq	.L1827
.L1715:
	mov	r0, r4
	bl	_ZdlPv(PLT)
	add	sp, sp, #68
	@ sp needed
	pop	{r4, r5, r6, r7, r8, r9, r10, fp, pc}
.L1826:
	ldmib	sp, {r5, r6}
	ldrb	r3, [r5, #20]	@ zero_extendqisi2
	cmp	r3, #0
	bne	.L1828
.L1700:
	add	r3, r5, #124
	mcr	p15, 0, r0, c7, c10, 5
.L1805:
	ldrex	r2, [r3]
	add	r2, r2, #1
	strex	r1, r2, [r3]
	cmp	r1, #0
	bne	.L1805
	add	r9, r5, #24
	mcr	p15, 0, r0, c7, c10, 5
	mov	r0, r9
	bl	pthread_mutex_lock(PLT)
	ldr	r3, [r5, #132]
	mov	r2, #0
	cmp	r3, r2
	str	r2, [r6]
	strne	r6, [r3]
	ldr	r3, [r5, #96]
	strne	r6, [r5, #132]
	orr	r3, r3, #1
	streq	r6, [r5, #132]
	streq	r6, [r5, #128]
	cmp	r3, #1
	add	r6, r5, #48
	str	r3, [r5, #96]
	beq	.L1709
	mov	r0, r9
	bl	pthread_mutex_unlock(PLT)
	mov	r0, r6
	bl	pthread_cond_signal(PLT)
	b	.L1699
.L1823:
	ldr	r3, [r0]
	add	r1, sp, #52
	ldr	r3, [r3, #8]
.LEHB25:
	blx	r3
.LEHE25:
	b	.L1689
.L1825:
	ldrb	r2, [r6, #28]	@ zero_extendqisi2
	strb	r2, [r6]
	str	r6, [r3]
	b	.L1692
.L1822:
	ldrb	r2, [fp, #28]	@ zero_extendqisi2
	strb	r2, [fp]
	str	fp, [r3]
	b	.L1684
.L1681:
	ldrb	r1, [r4, #120]	@ zero_extendqisi2
	cmp	r1, #0
	bne	.L1683
	ldr	r0, [r4, #104]
	cmp	r0, #0
	beq	.L1683
	add	ip, r0, #48
	add	r2, sp, #48
	mov	lr, #-2147483639
	strb	r3, [r4, #120]
	str	r1, [sp, #52]
	str	r1, [sp, #60]
	str	ip, [sp, #56]
	mov	r3, r2
	str	lr, [sp, #48]
	mov	r1, #3
	ldr	r2, [r0, #48]
	ldr	r0, [r0, #56]
	bl	epoll_ctl(PLT)
.L1683:
	mov	r0, r6
	bl	pthread_mutex_unlock(PLT)
	b	.L1642
.L1709:
	ldrb	r2, [r5, #120]	@ zero_extendqisi2
	cmp	r2, #0
	bne	.L1711
	ldr	r0, [r5, #104]
	cmp	r0, #0
	beq	.L1711
	add	r1, r0, #48
	mov	ip, #-2147483639
	strb	r3, [r5, #120]
	str	r1, [sp, #56]
	str	r2, [r4, #4]
	str	r2, [r4, #12]
	str	ip, [sp, #48]
	mov	r3, r4
	ldr	r2, [r0, #48]
	mov	r1, #3
	ldr	r0, [r0, #56]
	bl	epoll_ctl(PLT)
.L1711:
	mov	r0, r9
	bl	pthread_mutex_unlock(PLT)
	b	.L1699
.L1824:
	ldr	r6, [sp, #40]
	b	.L1691
.L1821:
	ldr	r0, [r7]
	bl	pthread_getspecific(PLT)
	cmp	r0, #0
	bne	.L1799
	b	.L1672
.L1675:
	ldr	r0, [r0, #8]
	cmp	r0, #0
	beq	.L1672
.L1799:
	ldr	r3, [r0]
	cmp	r4, r3
	bne	.L1675
	ldr	r3, [r0, #4]
	cmp	r3, #0
	beq	.L1672
	ldr	r1, [r3, #8]
	ldr	r2, [r3, #12]
	cmp	r1, #0
	add	r2, r2, #1
	mov	r0, #0
	str	r2, [r3, #12]
	str	r0, [r5]
	strne	r5, [r1]
	streq	r5, [r3, #8]
	strne	r5, [r3, #8]
	streq	r5, [r3, #4]
	b	.L1642
.L1827:
	ldrb	r2, [r4, #28]	@ zero_extendqisi2
	strb	r2, [r4]
	str	r4, [r3]
	b	.L1642
.L1828:
	ldr	r0, [r7]
	bl	pthread_getspecific(PLT)
	cmp	r0, #0
	beq	.L1700
	ldr	r3, [r0]
	cmp	r3, r5
	beq	.L1701
.L1703:
	ldr	r0, [r0, #8]
	cmp	r0, #0
	beq	.L1700
	ldr	r3, [r0]
	cmp	r5, r3
	bne	.L1703
.L1701:
	ldr	r3, [r0, #4]
	cmp	r3, #0
	beq	.L1700
	ldr	r1, [r3, #8]
	ldr	r2, [r3, #12]
	cmp	r1, #0
	add	r2, r2, #1
	mov	r0, #0
	str	r2, [r3, #12]
	str	r0, [r6]
	strne	r6, [r1]
	streq	r6, [r3, #8]
	strne	r6, [r3, #8]
	streq	r6, [r3, #4]
	b	.L1699
.L1685:
	ldr	r3, [sp, #44]
	cmp	r3, #0
	bne	.L1719
	b	.L1692
.L1722:
	mov	r3, #0
	mcr	p15, 0, r0, c7, c10, 5
	add	r0, sp, #36
	str	r3, [sp]
	bl	_ZN4asio6detail18completion_handlerINS0_7binder2IZN7asiopal13SerialChannel13BeginReadImplEN7openpal6WSliceEEUlRKSt10error_codejE_S7_jEEE3ptr5resetEv(PLT)
	add	r0, sp, #4
	bl	_ZN4asio6detail14strand_service16on_dispatch_exitD1Ev(PLT)
	ldr	r1, [sp, #32]
	ldr	r0, [r8]
	bl	pthread_setspecific(PLT)
	mov	r0, r10
	bl	_ZN4asio6detail18completion_handlerINS0_7binder2IZN7asiopal13SerialChannel13BeginReadImplEN7openpal6WSliceEEUlRKSt10error_codejE_S7_jEEE3ptr5resetEv(PLT)
.LEHB26:
	bl	__cxa_end_cleanup(PLT)
.L1721:
	mov	r3, #0
	mcr	p15, 0, r0, c7, c10, 5
	str	r3, [sp, #48]
	bl	__cxa_end_cleanup(PLT)
.LEHE26:
.L1830:
	.align	2
.L1829:
	.word	_GLOBAL_OFFSET_TABLE_-(.LPIC98+8)
	.word	_ZN4asio6detail10call_stackINS0_14strand_service11strand_implEhE4top_E(GOT)
	.word	_ZN4asio6detail10call_stackINS0_15task_io_serviceENS0_27task_io_service_thread_infoEE4top_E(GOT)
	.word	_ZN4asio6detail18completion_handlerINS0_7binder2IZN7asiopal13SerialChannel13BeginReadImplEN7openpal6WSliceEEUlRKSt10error_codejE_S7_jEEE11do_completeEPNS0_15task_io_serviceEPNS0_25task_io_service_operationES9_j-(.LPIC99+8)
	.personality	__gxx_personality_v0
	.handlerdata
.LLSDA8982:
	.byte	0xff
	.byte	0xff
	.byte	0x1
	.uleb128 .LLSDACSE8982-.LLSDACSB8982
.LLSDACSB8982:
	.uleb128 .LEHB23-.LFB8982
	.uleb128 .LEHE23-.LEHB23
	.uleb128 .L1721-.LFB8982
	.uleb128 0
	.uleb128 .LEHB24-.LFB8982
	.uleb128 .LEHE24-.LEHB24
	.uleb128 0
	.uleb128 0
	.uleb128 .LEHB25-.LFB8982
	.uleb128 .LEHE25-.LEHB25
	.uleb128 .L1722-.LFB8982
	.uleb128 0
	.uleb128 .LEHB26-.LFB8982
	.uleb128 .LEHE26-.LEHB26
	.uleb128 0
	.uleb128 0
.LLSDACSE8982:
	.text
	.fnend
	.size	_ZN4asio6detail14strand_service8dispatchINS0_7binder2IZN7asiopal13SerialChannel13BeginReadImplEN7openpal6WSliceEEUlRKSt10error_codejE_S8_jEEEEvRPNS1_11strand_implERT_, .-_ZN4asio6detail14strand_service8dispatchINS0_7binder2IZN7asiopal13SerialChannel13BeginReadImplEN7openpal6WSliceEEUlRKSt10error_codejE_S8_jEEEEvRPNS1_11strand_implERT_
	.align	2
	.syntax unified
	.arm
	.fpu vfp
	.type	_ZN4asio6detail18completion_handlerINS0_17rewrapped_handlerINS0_7binder2INS0_15wrapped_handlerINS_10io_service6strandEZN7asiopal13SerialChannel13BeginReadImplEN7openpal6WSliceEEUlRKSt10error_codejE_NS0_26is_continuation_if_runningEEESB_jEESE_EEE11do_completeEPNS0_15task_io_serviceEPNS0_25task_io_service_operationESD_j, %function
_ZN4asio6detail18completion_handlerINS0_17rewrapped_handlerINS0_7binder2INS0_15wrapped_handlerINS_10io_service6strandEZN7asiopal13SerialChannel13BeginReadImplEN7openpal6WSliceEEUlRKSt10error_codejE_NS0_26is_continuation_if_runningEEESB_jEESE_EEE11do_completeEPNS0_15task_io_serviceEPNS0_25task_io_service_operationESD_j:
	.fnstart
.LFB8908:
	@ args = 0, pretend = 0, frame = 80
	@ frame_needed = 0, uses_anonymous_args = 0
	add	r3, r1, #16
	push	{r4, r5, r6, r7, lr}
	.save {r4, r5, r6, r7, lr}
	mov	r4, r1
	.pad #84
	sub	sp, sp, #84
	mov	r5, r0
	ldm	r3, {r0, r1}
	add	r2, r4, #28
	add	r3, sp, #56
	add	r6, sp, #68
	stm	r3, {r0, r1}
	ldm	r2, {r0, r1}
	ldr	r3, .L1864
	ldr	r2, .L1864+4
	stm	r6, {r0, r1}
	ldr	r0, [r4, #24]
	ldr	r1, [r4, #36]
.LPIC100:
	add	r3, pc, r3
	ldr	ip, [r4, #12]
	str	r0, [sp, #64]
	str	r1, [sp, #76]
	mov	r0, #0
	add	r1, sp, #52
	str	r0, [sp, #12]
	str	r4, [sp, #8]
	str	ip, [sp, #52]
	str	r1, [sp, #4]
	ldr	r7, [r3, r2]
	ldr	r0, [r7]
	bl	pthread_getspecific(PLT)
	cmp	r0, #0
	beq	.L1832
	ldr	r3, [r0, #4]
	cmp	r3, #0
	beq	.L1832
	ldr	r2, [r3]
	cmp	r2, #0
	beq	.L1862
.L1832:
	mov	r0, r4
	bl	_ZdlPv(PLT)
.L1833:
	mov	r2, #0
	cmp	r5, #0
	str	r2, [sp, #8]
	beq	.L1834
	add	r3, sp, #80
	mov	r1, #1
	str	r2, [r3, #-80]!
.L1860:
	ldrex	r2, [r3]
	strex	r0, r1, [r3]
	cmp	r0, #0
	bne	.L1860
	mcr	p15, 0, r0, c7, c10, 5
	ldr	r3, [sp, #76]
	ldm	r6, {r0, r1}
	str	r3, [sp, #28]
	add	r3, sp, #20
	ldr	r2, [sp, #64]
	stm	r3, {r0, r1}
	add	r3, sp, #16
	str	r2, [sp, #16]
	ldm	r3, {r0, r1, r2, r3}
	add	ip, sp, #32
	stm	ip, {r0, r1, r2, r3}
	mov	r2, ip
	add	r1, sp, #60
	ldr	r0, [sp, #56]
.LEHB27:
	bl	_ZN4asio6detail14strand_service8dispatchINS0_7binder2IZN7asiopal13SerialChannel13BeginReadImplEN7openpal6WSliceEEUlRKSt10error_codejE_S8_jEEEEvRPNS1_11strand_implERT_(PLT)
.LEHE27:
	mov	r3, #0
	mcr	p15, 0, r0, c7, c10, 5
	str	r3, [sp]
	ldr	r3, [sp, #12]
	ldr	r5, [sp, #8]
	cmp	r3, #0
	beq	.L1835
.L1839:
	mov	r3, #0
	str	r3, [sp, #12]
.L1835:
	cmp	r5, #0
	beq	.L1831
	ldr	r0, [r7]
	bl	pthread_getspecific(PLT)
	cmp	r0, #0
	beq	.L1837
	ldr	r3, [r0, #4]
	cmp	r3, #0
	beq	.L1837
	ldr	r2, [r3]
	cmp	r2, #0
	beq	.L1863
.L1837:
	mov	r0, r5
	bl	_ZdlPv(PLT)
.L1831:
	add	sp, sp, #84
	@ sp needed
	pop	{r4, r5, r6, r7, pc}
.L1834:
	ldr	r3, [sp, #12]
	cmp	r3, #0
	bne	.L1839
	b	.L1831
.L1863:
	ldrb	r2, [r5, #40]	@ zero_extendqisi2
	strb	r2, [r5]
	str	r5, [r3]
	b	.L1831
.L1862:
	ldrb	r2, [r4, #40]	@ zero_extendqisi2
	strb	r2, [r4]
	str	r4, [r3]
	b	.L1833
.L1841:
	mov	r3, #0
	mcr	p15, 0, r0, c7, c10, 5
	add	r0, sp, #4
	str	r3, [sp]
	bl	_ZN4asio6detail18completion_handlerINS0_17rewrapped_handlerINS0_7binder2INS0_15wrapped_handlerINS_10io_service6strandEZN7asiopal13SerialChannel13BeginReadImplEN7openpal6WSliceEEUlRKSt10error_codejE_NS0_26is_continuation_if_runningEEESB_jEESE_EEE3ptr5resetEv(PLT)
.LEHB28:
	bl	__cxa_end_cleanup(PLT)
.LEHE28:
.L1865:
	.align	2
.L1864:
	.word	_GLOBAL_OFFSET_TABLE_-(.LPIC100+8)
	.word	_ZN4asio6detail10call_stackINS0_15task_io_serviceENS0_27task_io_service_thread_infoEE4top_E(GOT)
	.personality	__gxx_personality_v0
	.handlerdata
.LLSDA8908:
	.byte	0xff
	.byte	0xff
	.byte	0x1
	.uleb128 .LLSDACSE8908-.LLSDACSB8908
.LLSDACSB8908:
	.uleb128 .LEHB27-.LFB8908
	.uleb128 .LEHE27-.LEHB27
	.uleb128 .L1841-.LFB8908
	.uleb128 0
	.uleb128 .LEHB28-.LFB8908
	.uleb128 .LEHE28-.LEHB28
	.uleb128 0
	.uleb128 0
.LLSDACSE8908:
	.text
	.fnend
	.size	_ZN4asio6detail18completion_handlerINS0_17rewrapped_handlerINS0_7binder2INS0_15wrapped_handlerINS_10io_service6strandEZN7asiopal13SerialChannel13BeginReadImplEN7openpal6WSliceEEUlRKSt10error_codejE_NS0_26is_continuation_if_runningEEESB_jEESE_EEE11do_completeEPNS0_15task_io_serviceEPNS0_25task_io_service_operationESD_j, .-_ZN4asio6detail18completion_handlerINS0_17rewrapped_handlerINS0_7binder2INS0_15wrapped_handlerINS_10io_service6strandEZN7asiopal13SerialChannel13BeginReadImplEN7openpal6WSliceEEUlRKSt10error_codejE_NS0_26is_continuation_if_runningEEESB_jEESE_EEE11do_completeEPNS0_15task_io_serviceEPNS0_25task_io_service_operationESD_j
	.align	2
	.syntax unified
	.arm
	.fpu vfp
	.type	_ZN4asio6detail18descriptor_read_opINS_17mutable_buffers_1ENS0_15wrapped_handlerINS_10io_service6strandEZN7asiopal13SerialChannel13BeginReadImplEN7openpal6WSliceEEUlRKSt10error_codejE_NS0_26is_continuation_if_runningEEEE11do_completeEPNS0_15task_io_serviceEPNS0_25task_io_service_operationESC_j, %function
_ZN4asio6detail18descriptor_read_opINS_17mutable_buffers_1ENS0_15wrapped_handlerINS_10io_service6strandEZN7asiopal13SerialChannel13BeginReadImplEN7openpal6WSliceEEUlRKSt10error_codejE_NS0_26is_continuation_if_runningEEEE11do_completeEPNS0_15task_io_serviceEPNS0_25task_io_service_operationESC_j:
	.fnstart
.LFB8577:
	@ args = 0, pretend = 0, frame = 232
	@ frame_needed = 0, uses_anonymous_args = 0
	add	r3, r1, #40
	push	{r4, r5, r6, r7, r8, r9, r10, fp, lr}
	.save {r4, r5, r6, r7, r8, r9, r10, fp, lr}
	mov	r4, r1
	.pad #236
	sub	sp, sp, #236
	mov	r7, r0
	ldm	r3, {r0, r1}
	add	r6, sp, #116
	add	r3, r4, #12
	stm	r6, {r0, r1}
	ldm	r3, {r0, r1}
	ldr	r10, .L2070
	add	r8, sp, #128
	ldr	r2, [r4, #48]
	ldr	r3, .L2070+4
	stm	r8, {r0, r1}
.LPIC101:
	add	r10, pc, r10
	ldr	r1, [r4, #20]
	str	r2, [sp, #124]
	mov	r2, #0
	str	r4, [sp, #12]
	str	r6, [sp, #8]
	str	r1, [sp, #136]
	str	r2, [sp, #16]
	ldr	r5, [r10, r3]
	ldr	r0, [r5]
	bl	pthread_getspecific(PLT)
	cmp	r0, #0
	beq	.L1867
	ldr	r3, [r0, #4]
	cmp	r3, #0
	beq	.L1867
	ldr	r2, [r3]
	cmp	r2, #0
	beq	.L2060
.L1867:
	mov	r0, r4
	bl	_ZdlPv(PLT)
.L1868:
	mov	r2, #0
	cmp	r7, #0
	str	r2, [sp, #12]
	beq	.L1869
	add	r3, sp, #232
	mov	r1, #1
	str	r2, [r3, #-232]!
.L2053:
	ldrex	r2, [r3]
	strex	r0, r1, [r3]
	cmp	r0, #0
	bne	.L2053
	mcr	p15, 0, r0, c7, c10, 5
	ldm	r6, {r0, r1}
	add	r2, sp, #144
	ldr	r3, [sp, #136]
	stm	r2, {r0, r1}
	ldm	r8, {r0, r1}
	str	r3, [sp, #224]
	add	r3, sp, #156
	add	r6, sp, #204
	stm	r3, {r0, r1}
	ldm	r2, {r0, r1}
	ldr	r2, .L2070+8
	add	r9, sp, #216
	stm	r6, {r0, r1}
	ldm	r3, {r0, r1}
	ldr	r3, [sp, #124]
	ldr	r8, [sp, #116]
	stm	r9, {r0, r1}
	str	r3, [sp, #140]
	str	r3, [sp, #152]
	str	r3, [sp, #200]
	str	r3, [sp, #212]
	ldr	r7, [r10, r2]
	ldr	r4, [sp, #120]
	ldr	r0, [r7]
	bl	pthread_getspecific(PLT)
	cmp	r0, #0
	bne	.L2043
	b	.L1870
.L1873:
	ldr	r0, [r0, #8]
	cmp	r0, #0
	beq	.L1870
.L2043:
	ldr	r3, [r0]
	cmp	r4, r3
	bne	.L1873
	ldr	r3, [r0, #4]
	cmp	r3, #0
	addne	r3, sp, #232
	movne	r2, #0
	strne	r2, [r3, #-228]!
	movne	r2, #1
	beq	.L1870
.L2052:
	ldrex	r1, [r3]
	strex	r0, r2, [r3]
	cmp	r0, #0
	bne	.L2052
	mcr	p15, 0, r0, c7, c10, 5
	ldr	r3, [sp, #224]
	ldm	r9, {r0, r1}
	str	r3, [sp, #56]
	ldr	r2, [sp, #212]
	add	r3, sp, #48
	str	r2, [sp, #44]
	stm	r3, {r0, r1}
	add	r3, sp, #44
	add	ip, sp, #76
	ldm	r3, {r0, r1, r2, r3}
	stm	ip, {r0, r1, r2, r3}
	mov	r2, ip
	add	r1, sp, #208
	ldr	r0, [sp, #204]
.LEHB29:
	bl	_ZN4asio6detail14strand_service8dispatchINS0_7binder2IZN7asiopal13SerialChannel13BeginReadImplEN7openpal6WSliceEEUlRKSt10error_codejE_S8_jEEEEvRPNS1_11strand_implERT_(PLT)
.LEHE29:
	mov	r3, #0
	mcr	p15, 0, r0, c7, c10, 5
	str	r3, [sp, #4]
.L1876:
	mov	r3, #0
	mcr	p15, 0, r0, c7, c10, 5
	str	r3, [sp]
	ldr	r3, [sp, #16]
	ldr	r7, [sp, #12]
	cmp	r3, #0
	beq	.L1937
.L1943:
	mov	r3, #0
	str	r3, [sp, #16]
.L1937:
	cmp	r7, #0
	beq	.L1866
	ldr	r0, [r5]
	bl	pthread_getspecific(PLT)
	cmp	r0, #0
	beq	.L1939
	ldr	r3, [r0, #4]
	cmp	r3, #0
	beq	.L1939
	ldr	r2, [r3]
	cmp	r2, #0
	beq	.L2061
.L1939:
	mov	r0, r7
	bl	_ZdlPv(PLT)
.L1866:
	add	sp, sp, #236
	@ sp needed
	pop	{r4, r5, r6, r7, r8, r9, r10, fp, pc}
.L1870:
	add	r4, sp, #20
	mov	fp, #0
	add	r3, sp, #200
	ldr	r0, [r5]
	str	fp, [r4, #4]
	str	fp, [r4, #8]
	str	r3, [sp, #20]
	bl	pthread_getspecific(PLT)
	cmp	r0, #0
	beq	.L1877
	ldr	r3, [r0, #4]
	cmp	r3, fp
	beq	.L1877
	ldr	r10, [r3]
	cmp	r10, fp
	beq	.L1877
	str	fp, [r3]
	ldrb	r3, [r10]	@ zero_extendqisi2
	cmp	r3, #39
	bls	.L2062
.L2056:
	strb	r3, [r10, #40]
	ldr	ip, [sp, #200]
	ldm	r6, {r0, r1}
	ldr	r2, .L2070+12
	add	r3, r10, #16
	str	ip, [r10, #12]
.LPIC102:
	add	r2, pc, r2
	mov	ip, #0
	str	ip, [r10, #8]
	str	r10, [sp, #24]
	str	r2, [r10, #4]
	str	ip, [r10]
	stm	r3, {r0, r1}
	ldm	r9, {r0, r1}
	add	r3, r10, #28
	ldr	r2, [sp, #224]
	ldr	ip, [sp, #212]
	str	r10, [sp, #28]
	str	ip, [r10, #24]
	stm	r3, {r0, r1}
	str	r2, [r10, #36]
	ldr	r0, [r5]
	ldr	r6, [r8, #20]
	bl	pthread_getspecific(PLT)
	subs	r3, r0, #0
	bne	.L2044
	b	.L1880
.L1883:
	ldr	r3, [r3, #8]
	cmp	r3, #0
	beq	.L1880
.L2044:
	ldr	r2, [r3]
	cmp	r6, r2
	bne	.L1883
	ldr	r0, [sp, #120]
	ldr	r6, [r3, #4]
	add	r0, r0, #12
	bl	pthread_mutex_lock(PLT)
	cmp	r6, #0
	beq	.L1885
	ldr	r0, [sp, #120]
	ldrb	r9, [r0, #36]	@ zero_extendqisi2
	cmp	r9, #0
	beq	.L2063
.L1887:
	ldr	r3, [r0, #44]
	mov	r2, #0
	cmp	r3, r2
	str	r2, [r10]
	add	r0, r0, #12
	strne	r10, [r3]
	streq	r10, [r0, #32]
	strne	r10, [r0, #32]
	streq	r10, [r0, #28]
	bl	pthread_mutex_unlock(PLT)
	b	.L1876
.L1869:
	ldr	r3, [sp, #16]
	cmp	r3, #0
	bne	.L1943
	b	.L1866
.L2062:
	mov	r0, r10
	bl	_ZdlPv(PLT)
.L1877:
	mov	r0, #41
.LEHB30:
	bl	_Znwj(PLT)
.LEHE30:
	mov	r10, r0
	mov	r3, #40
	b	.L2056
.L1880:
	ldr	r0, [sp, #120]
	add	r0, r0, #12
	bl	pthread_mutex_lock(PLT)
.L1885:
	ldr	r0, [sp, #120]
	ldrb	r4, [r0, #36]	@ zero_extendqisi2
	cmp	r4, #0
	bne	.L1887
	mov	r3, #1
	strb	r3, [r0, #36]
	add	r0, r0, #12
	bl	pthread_mutex_unlock(PLT)
	ldr	r6, [sp, #120]
	str	r4, [r10]
	ldr	r4, [r8, #20]
	ldr	r3, [r6, #52]
	cmp	r3, #0
	strne	r10, [r3]
	ldrb	r3, [r4, #20]	@ zero_extendqisi2
	strne	r10, [r6, #52]
	streq	r10, [r6, #52]
	streq	r10, [r6, #48]
	cmp	r3, #0
	bne	.L2064
.L1896:
	add	r3, r4, #124
	mcr	p15, 0, r0, c7, c10, 5
.L2051:
	ldrex	r2, [r3]
	add	r2, r2, #1
	strex	r1, r2, [r3]
	cmp	r1, #0
	bne	.L2051
	add	r7, r4, #24
	mcr	p15, 0, r0, c7, c10, 5
	mov	r0, r7
	bl	pthread_mutex_lock(PLT)
	ldr	r3, [r4, #132]
	mov	r2, #0
	cmp	r3, r2
	str	r2, [r6]
	strne	r6, [r3]
	ldr	r3, [r4, #96]
	strne	r6, [r4, #132]
	orr	r3, r3, #1
	streq	r6, [r4, #132]
	streq	r6, [r4, #128]
	cmp	r3, #1
	add	r6, r4, #48
	str	r3, [r4, #96]
	beq	.L1905
	mov	r0, r7
	bl	pthread_mutex_unlock(PLT)
	mov	r0, r6
	bl	pthread_cond_signal(PLT)
	b	.L1876
.L2061:
	ldrb	r2, [r7, #52]	@ zero_extendqisi2
	strb	r2, [r7]
	str	r7, [r3]
	b	.L1866
.L2060:
	ldrb	r2, [r4, #52]	@ zero_extendqisi2
	strb	r2, [r4]
	str	r4, [r3]
	b	.L1868
.L2063:
	mov	r3, #1
	strb	r3, [r0, #36]
	add	r0, r0, #12
	bl	pthread_mutex_unlock(PLT)
	ldr	r3, [sp, #120]
	ldr	r0, [r7]
	ldr	r6, [sp, #28]
	str	r3, [sp, #76]
	str	r9, [sp, #24]
	str	r9, [sp, #28]
	bl	pthread_getspecific(PLT)
	add	r3, sp, #76
	mov	r1, r3
	str	r3, [sp, #80]
	add	fp, sp, #184
	add	r10, sp, #168
	str	r0, [sp, #84]
	ldr	r0, [r7]
	bl	pthread_setspecific(PLT)
	add	r3, r6, #16
	add	r2, r6, #28
	ldm	r3, {r0, r1}
	add	r3, sp, #172
	ldr	r8, [r8, #20]
	ldr	ip, [r6, #12]
	stm	r3, {r0, r1}
	ldm	r2, {r0, r1}
	ldr	r3, [r6, #24]
	ldr	r2, [r6, #36]
	str	ip, [sp, #168]
	stm	fp, {r0, r1}
	str	r3, [sp, #180]
	ldr	r3, [sp, #120]
	ldr	r0, [r5]
	str	r8, [sp, #44]
	str	r6, [sp, #36]
	str	r9, [sp, #40]
	str	r2, [sp, #192]
	str	r3, [sp, #48]
	str	r10, [sp, #32]
	bl	pthread_getspecific(PLT)
	cmp	r0, #0
	beq	.L1889
	ldr	r3, [r0, #4]
	cmp	r3, #0
	beq	.L1889
	ldr	r2, [r3]
	cmp	r2, #0
	beq	.L2065
.L1889:
	mov	r0, r6
	bl	_ZdlPv(PLT)
.L1908:
	mov	r2, #0
	cmp	r8, #0
	str	r2, [sp, #36]
	beq	.L1909
	add	r3, sp, #232
	mov	r1, #1
	str	r2, [r3, #-228]!
.L2050:
	ldrex	r2, [r3]
	strex	r0, r1, [r3]
	cmp	r0, #0
	bne	.L2050
	mcr	p15, 0, r0, c7, c10, 5
	ldr	r3, [sp, #192]
	ldm	fp, {r0, r1}
	str	r3, [sp, #72]
	add	r3, sp, #64
	ldr	r2, [sp, #180]
	stm	r3, {r0, r1}
	add	r3, sp, #60
	str	r2, [sp, #60]
	ldm	r3, {r0, r1, r2, r3}
	add	ip, sp, #96
	stm	ip, {r0, r1, r2, r3}
	mov	r2, ip
	add	r1, sp, #176
	ldr	r0, [sp, #172]
.LEHB31:
	bl	_ZN4asio6detail14strand_service8dispatchINS0_7binder2IZN7asiopal13SerialChannel13BeginReadImplEN7openpal6WSliceEEUlRKSt10error_codejE_S8_jEEEEvRPNS1_11strand_implERT_(PLT)
.LEHE31:
	mov	r3, #0
	mcr	p15, 0, r0, c7, c10, 5
	str	r3, [sp, #4]
	ldr	r3, [sp, #40]
	ldr	r8, [sp, #36]
	cmp	r3, #0
	beq	.L1910
.L1942:
	mov	r3, #0
	str	r3, [sp, #40]
.L1910:
	cmp	r8, #0
	beq	.L1911
	ldr	r0, [r5]
	bl	pthread_getspecific(PLT)
	cmp	r0, #0
	beq	.L1912
	ldr	r3, [r0, #4]
	cmp	r3, #0
	beq	.L1912
	ldr	r2, [r3]
	cmp	r2, #0
	beq	.L2066
.L1912:
	mov	r0, r8
	bl	_ZdlPv(PLT)
.L1911:
	ldr	r0, [sp, #48]
	add	r0, r0, #12
	bl	pthread_mutex_lock(PLT)
	ldr	r0, [sp, #48]
	ldr	r4, [r0, #40]
	cmp	r4, #0
	ldreq	r4, [r0, #48]
	beq	.L1914
	ldr	r3, [r0, #52]
	cmp	r3, #0
	strne	r4, [r3]
	ldrne	r4, [r0, #48]
	ldr	r2, [r0, #44]
	mov	r3, #0
	streq	r4, [r0, #48]
	str	r2, [r0, #52]
	str	r3, [r0, #40]
	str	r3, [r0, #44]
.L1914:
	adds	r3, r4, #0
	movne	r3, #1
	strb	r3, [r0, #36]
	add	r0, r0, #12
	bl	pthread_mutex_unlock(PLT)
	cmp	r4, #0
	bne	.L2067
.L1919:
	ldr	r0, [r7]
	ldr	r1, [sp, #84]
	bl	pthread_setspecific(PLT)
	ldr	r3, [sp, #28]
	ldr	r4, [sp, #24]
	cmp	r3, #0
	movne	r3, #0
	strne	r3, [sp, #28]
	cmp	r4, #0
	beq	.L1876
	ldr	r0, [r5]
	bl	pthread_getspecific(PLT)
	cmp	r0, #0
	beq	.L1935
	ldr	r3, [r0, #4]
	cmp	r3, #0
	beq	.L1935
	ldr	r2, [r3]
	cmp	r2, #0
	beq	.L2068
.L1935:
	mov	r0, r4
	bl	_ZdlPv(PLT)
	b	.L1876
.L2067:
	ldr	r4, [sp, #44]
	ldr	r6, [sp, #48]
	ldrb	r3, [r4, #20]	@ zero_extendqisi2
	cmp	r3, #0
	bne	.L2069
.L1920:
	add	r3, r4, #124
	mcr	p15, 0, r0, c7, c10, 5
.L2049:
	ldrex	r2, [r3]
	add	r2, r2, #1
	strex	r1, r2, [r3]
	cmp	r1, #0
	bne	.L2049
	add	r8, r4, #24
	mcr	p15, 0, r0, c7, c10, 5
	mov	r0, r8
	bl	pthread_mutex_lock(PLT)
	ldr	r3, [r4, #132]
	mov	r2, #0
	cmp	r3, r2
	str	r2, [r6]
	strne	r6, [r3]
	ldr	r3, [r4, #96]
	strne	r6, [r4, #132]
	orr	r3, r3, #1
	streq	r6, [r4, #132]
	streq	r6, [r4, #128]
	cmp	r3, #1
	add	r6, r4, #48
	str	r3, [r4, #96]
	beq	.L1929
	mov	r0, r8
	bl	pthread_mutex_unlock(PLT)
	mov	r0, r6
	bl	pthread_cond_signal(PLT)
	b	.L1919
.L1905:
	ldrb	r2, [r4, #120]	@ zero_extendqisi2
	cmp	r2, #0
	bne	.L1907
	ldr	r0, [r4, #104]
	cmp	r0, #0
	beq	.L1907
	strb	r3, [r4, #120]
	add	r3, sp, #168
	add	r1, r0, #48
	mov	ip, #-2147483639
	str	r1, [sp, #176]
	str	r2, [r3, #4]
	str	r2, [r3, #12]
	str	ip, [sp, #168]
	mov	r1, #3
	ldr	r2, [r0, #48]
	ldr	r0, [r0, #56]
	bl	epoll_ctl(PLT)
.L1907:
	mov	r0, r7
	bl	pthread_mutex_unlock(PLT)
	b	.L1876
.L1929:
	ldrb	r2, [r4, #120]	@ zero_extendqisi2
	cmp	r2, #0
	bne	.L1931
	ldr	r0, [r4, #104]
	cmp	r0, #0
	beq	.L1931
	add	r1, r0, #48
	mov	ip, #-2147483639
	strb	r3, [r4, #120]
	str	r1, [sp, #176]
	str	r2, [r10, #4]
	str	r2, [r10, #12]
	str	ip, [sp, #168]
	mov	r3, r10
	ldr	r2, [r0, #48]
	mov	r1, #3
	ldr	r0, [r0, #56]
	bl	epoll_ctl(PLT)
.L1931:
	mov	r0, r8
	bl	pthread_mutex_unlock(PLT)
	b	.L1919
.L2068:
	ldrb	r2, [r4, #40]	@ zero_extendqisi2
	strb	r2, [r4]
	str	r4, [r3]
	b	.L1876
.L2064:
	ldr	r0, [r5]
	bl	pthread_getspecific(PLT)
	cmp	r0, #0
	beq	.L1896
	ldr	r3, [r0]
	cmp	r3, r4
	beq	.L1897
.L1899:
	ldr	r0, [r0, #8]
	cmp	r0, #0
	beq	.L1896
	ldr	r3, [r0]
	cmp	r4, r3
	bne	.L1899
.L1897:
	ldr	r3, [r0, #4]
	cmp	r3, #0
	beq	.L1896
	ldr	r1, [r3, #8]
	ldr	r2, [r3, #12]
	cmp	r1, #0
	add	r2, r2, #1
	mov	r0, #0
	str	r2, [r3, #12]
	str	r0, [r6]
	strne	r6, [r1]
	streq	r6, [r3, #8]
	strne	r6, [r3, #8]
	streq	r6, [r3, #4]
	b	.L1876
.L2069:
	ldr	r0, [r5]
	bl	pthread_getspecific(PLT)
	cmp	r0, #0
	beq	.L1920
	ldr	r3, [r0]
	cmp	r3, r4
	beq	.L1921
.L1923:
	ldr	r0, [r0, #8]
	cmp	r0, #0
	beq	.L1920
	ldr	r3, [r0]
	cmp	r4, r3
	bne	.L1923
.L1921:
	ldr	r3, [r0, #4]
	cmp	r3, #0
	beq	.L1920
	ldr	r1, [r3, #8]
	ldr	r2, [r3, #12]
	cmp	r1, #0
	add	r2, r2, #1
	mov	r0, #0
	str	r2, [r3, #12]
	str	r0, [r6]
	strne	r6, [r1]
	streq	r6, [r3, #8]
	strne	r6, [r3, #8]
	streq	r6, [r3, #4]
	b	.L1919
.L1909:
	ldr	r3, [sp, #40]
	cmp	r3, #0
	bne	.L1942
	b	.L1911
.L2065:
	ldrb	r2, [r6, #40]	@ zero_extendqisi2
	strb	r2, [r6]
	str	r6, [r3]
	b	.L1908
.L2066:
	ldrb	r2, [r8, #40]	@ zero_extendqisi2
	strb	r2, [r8]
	str	r8, [r3]
	b	.L1911
.L1948:
	mov	r3, #0
	mcr	p15, 0, r0, c7, c10, 5
	add	r0, sp, #32
	str	r3, [sp, #4]
	bl	_ZN4asio6detail18completion_handlerINS0_17rewrapped_handlerINS0_7binder2INS0_15wrapped_handlerINS_10io_service6strandEZN7asiopal13SerialChannel13BeginReadImplEN7openpal6WSliceEEUlRKSt10error_codejE_NS0_26is_continuation_if_runningEEESB_jEESE_EEE3ptr5resetEv(PLT)
	add	r0, sp, #44
	bl	_ZN4asio6detail14strand_service16on_dispatch_exitD1Ev(PLT)
	ldr	r0, [r7]
	ldr	r1, [sp, #84]
	bl	pthread_setspecific(PLT)
	mov	r0, r4
	bl	_ZN4asio6detail18completion_handlerINS0_17rewrapped_handlerINS0_7binder2INS0_15wrapped_handlerINS_10io_service6strandEZN7asiopal13SerialChannel13BeginReadImplEN7openpal6WSliceEEUlRKSt10error_codejE_NS0_26is_continuation_if_runningEEESB_jEESE_EEE3ptr5resetEv(PLT)
.L1916:
	mov	r3, #0
	mcr	p15, 0, r0, c7, c10, 5
	add	r0, sp, #8
	str	r3, [sp]
	bl	_ZN4asio6detail18descriptor_read_opINS_17mutable_buffers_1ENS0_15wrapped_handlerINS_10io_service6strandEZN7asiopal13SerialChannel13BeginReadImplEN7openpal6WSliceEEUlRKSt10error_codejE_NS0_26is_continuation_if_runningEEEE3ptr5resetEv(PLT)
.LEHB32:
	bl	__cxa_end_cleanup(PLT)
.LEHE32:
.L1947:
	mov	r3, #0
	mcr	p15, 0, r0, c7, c10, 5
	str	r3, [sp, #4]
	b	.L1916
.L1946:
	b	.L1916
.L2071:
	.align	2
.L2070:
	.word	_GLOBAL_OFFSET_TABLE_-(.LPIC101+8)
	.word	_ZN4asio6detail10call_stackINS0_15task_io_serviceENS0_27task_io_service_thread_infoEE4top_E(GOT)
	.word	_ZN4asio6detail10call_stackINS0_14strand_service11strand_implEhE4top_E(GOT)
	.word	_ZN4asio6detail18completion_handlerINS0_17rewrapped_handlerINS0_7binder2INS0_15wrapped_handlerINS_10io_service6strandEZN7asiopal13SerialChannel13BeginReadImplEN7openpal6WSliceEEUlRKSt10error_codejE_NS0_26is_continuation_if_runningEEESB_jEESE_EEE11do_completeEPNS0_15task_io_serviceEPNS0_25task_io_service_operationESD_j-(.LPIC102+8)
	.personality	__gxx_personality_v0
	.handlerdata
.LLSDA8577:
	.byte	0xff
	.byte	0xff
	.byte	0x1
	.uleb128 .LLSDACSE8577-.LLSDACSB8577
.LLSDACSB8577:
	.uleb128 .LEHB29-.LFB8577
	.uleb128 .LEHE29-.LEHB29
	.uleb128 .L1947-.LFB8577
	.uleb128 0
	.uleb128 .LEHB30-.LFB8577
	.uleb128 .LEHE30-.LEHB30
	.uleb128 .L1946-.LFB8577
	.uleb128 0
	.uleb128 .LEHB31-.LFB8577
	.uleb128 .LEHE31-.LEHB31
	.uleb128 .L1948-.LFB8577
	.uleb128 0
	.uleb128 .LEHB32-.LFB8577
	.uleb128 .LEHE32-.LEHB32
	.uleb128 0
	.uleb128 0
.LLSDACSE8577:
	.text
	.fnend
	.size	_ZN4asio6detail18descriptor_read_opINS_17mutable_buffers_1ENS0_15wrapped_handlerINS_10io_service6strandEZN7asiopal13SerialChannel13BeginReadImplEN7openpal6WSliceEEUlRKSt10error_codejE_NS0_26is_continuation_if_runningEEEE11do_completeEPNS0_15task_io_serviceEPNS0_25task_io_service_operationESC_j, .-_ZN4asio6detail18descriptor_read_opINS_17mutable_buffers_1ENS0_15wrapped_handlerINS_10io_service6strandEZN7asiopal13SerialChannel13BeginReadImplEN7openpal6WSliceEEUlRKSt10error_codejE_NS0_26is_continuation_if_runningEEEE11do_completeEPNS0_15task_io_serviceEPNS0_25task_io_service_operationESC_j
	.align	2
	.syntax unified
	.arm
	.fpu vfp
	.type	_ZN4asio6detail8write_opINS_17basic_serial_portINS_19serial_port_serviceEEENS_15const_buffers_1ENS0_14transfer_all_tENS0_15wrapped_handlerINS_10io_service6strandEZN7asiopal13SerialChannel14BeginWriteImplERKN7openpal6RSliceEEUlRKSt10error_codejE_NS0_26is_continuation_if_runningEEEEclESI_ji, %function
_ZN4asio6detail8write_opINS_17basic_serial_portINS_19serial_port_serviceEEENS_15const_buffers_1ENS0_14transfer_all_tENS0_15wrapped_handlerINS_10io_service6strandEZN7asiopal13SerialChannel14BeginWriteImplERKN7openpal6RSliceEEUlRKSt10error_codejE_NS0_26is_continuation_if_runningEEEEclESI_ji:
	.fnstart
.LFB7964:
	@ args = 0, pretend = 0, frame = 144
	@ frame_needed = 0, uses_anonymous_args = 0
	push	{r4, r5, r6, r7, r8, r9, r10, fp, lr}
	.save {r4, r5, r6, r7, r8, r9, r10, fp, lr}
	cmp	r3, #1
	ldr	r5, .L2456
	.pad #148
	sub	sp, sp, #148
	str	r3, [r0, #12]
	mov	r4, r0
.LPIC103:
	add	r5, pc, r5
	bne	.L2371
	ldr	r2, [r1]
	ldr	ip, [r0, #16]
	cmp	r2, #0
	movne	r7, #0
	ldr	r2, [r0, #8]
	moveq	r7, #65536
.L2076:
	cmp	r2, ip
	movcc	r7, #0
	ldr	r6, [r4]
	strcc	r7, [sp, #8]
	bcs	.L2435
.L2077:
	ldmib	r4, {r0, r1}
	add	r2, r4, #20
	add	r9, sp, #112
	ldr	lr, [r6, #12]
	stm	r9, {r0, r1}
	ldm	r2, {r0, r1}
	cmp	r3, #0
	ldr	r2, [r4, #28]
	add	r8, sp, #128
	str	r3, [sp, #120]
	moveq	r3, #1
	str	r6, [sp, #108]
	str	ip, [sp, #124]
	str	r2, [sp, #136]
	str	lr, [sp, #12]
	stm	r8, {r0, r1}
	streq	r3, [sp, #20]
	bne	.L2436
.L2078:
	ldr	r3, .L2456+4
	add	fp, sp, #72
	mov	r2, #0
	add	r1, sp, #108
	str	r2, [fp, #4]
	str	r2, [fp, #8]
	str	r2, [sp, #4]
	str	r1, [sp, #72]
	ldr	r10, [r5, r3]
	ldr	r0, [r10]
	bl	pthread_getspecific(PLT)
	cmp	r0, #0
	beq	.L2084
	ldr	r3, [r0, #4]
	cmp	r3, #0
	beq	.L2084
	ldr	r4, [r3]
	cmp	r4, #0
	beq	.L2084
	ldr	r2, [sp, #4]
	str	r2, [r3]
	ldrb	r3, [r4]	@ zero_extendqisi2
	cmp	r3, #71
	bls	.L2437
.L2410:
	strb	r3, [r4, #72]
	ldr	r3, .L2456+8
	mov	r2, #0
.LPIC104:
	add	r3, pc, r3
	ldr	r1, [r6]
	str	r4, [sp, #76]
	stm	r4, {r2, r3}
	str	r2, [r4, #8]
	str	r2, [r4, #12]
	str	r1, [sp, #4]
	str	r2, [sp, #16]
	bl	_ZNSt3_V215system_categoryEv(PLT)
	ldr	ip, .L2456+12
	ldr	r2, [sp, #16]
	ldr	lr, [sp, #120]
	str	r2, [r4, #20]
	cmp	r7, #0
	mov	r3, r0
	ldm	r9, {r0, r1}
	str	r3, [r4, #16]
	ldr	r2, [r5, ip]
	ldr	ip, [sp, #4]
	str	r2, [r4, #24]
	ldr	r2, [sp, #8]
	str	ip, [r4, #28]
	ldr	ip, [sp, #108]
	str	r2, [r4, #32]
	add	r2, r4, #44
	str	ip, [r4, #40]
	str	r7, [r4, #36]
	stm	r2, {r0, r1}
	ldm	r8, {r0, r1}
	ldr	ip, [sp, #136]
	ldr	r8, [sp, #124]
	add	r2, r4, #60
	str	lr, [r4, #52]
	str	r8, [r4, #56]
	stm	r2, {r0, r1}
	str	ip, [r4, #68]
	str	r4, [sp, #80]
	beq	.L2087
	ldrb	r2, [r6, #4]	@ zero_extendqisi2
	ands	r8, r2, #3
	beq	.L2438
.L2088:
	ldr	r3, [r6, #8]
	ldr	r2, [sp, #12]
	cmp	r3, #0
	ldr	r8, [r2, #20]
	beq	.L2439
	add	r5, r3, #20
	mov	r0, r5
	bl	pthread_mutex_lock(PLT)
	ldr	r3, [r6, #8]
	ldrb	r2, [r3, #80]	@ zero_extendqisi2
	cmp	r2, #0
	bne	.L2440
	ldr	r2, [r3, #64]
	cmp	r2, #0
	beq	.L2441
.L2128:
	ldr	r2, [r3, #68]
	mov	r1, #0
	cmp	r2, r1
	str	r1, [r4]
	strne	r4, [r2]
	streq	r4, [r3, #68]
	strne	r4, [r3, #68]
	streq	r4, [r3, #64]
	ldr	r3, [r8, #20]
	mcr	p15, 0, r0, c7, c10, 5
	add	r3, r3, #124
.L2405:
	ldrex	r2, [r3]
	add	r2, r2, #1
	strex	r1, r2, [r3]
	cmp	r1, #0
	bne	.L2405
	mov	r0, r5
	mcr	p15, 0, r0, c7, c10, 5
	bl	pthread_mutex_unlock(PLT)
	b	.L2072
.L2444:
	ldr	r3, .L2456+16
	ldr	r6, [r5, r3]
	ldrb	r3, [r6]	@ zero_extendqisi2
	mcr	p15, 0, r0, c7, c10, 5
	tst	r3, #1
	beq	.L2442
.L2411:
	ldr	r3, .L2456+20
	ldr	r7, [r5, r3]
.L2091:
	mov	r3, #9
	str	r7, [r4, #16]
	str	r3, [r4, #12]
.L2087:
	ldr	r3, [sp, #12]
	ldr	r2, [sp, #20]
	ldr	r3, [r3, #20]
	ldr	r5, [r3, #20]
	ldrb	r3, [r5, #20]	@ zero_extendqisi2
	orrs	r3, r2, r3
	beq	.L2134
	ldr	r0, [r10]
	bl	pthread_getspecific(PLT)
	cmp	r0, #0
	bne	.L2377
	b	.L2134
.L2137:
	ldr	r0, [r0, #8]
	cmp	r0, #0
	beq	.L2134
.L2377:
	ldr	r3, [r0]
	cmp	r5, r3
	bne	.L2137
	ldr	r3, [r0, #4]
	cmp	r3, #0
	beq	.L2134
.L2138:
	ldr	r1, [r3, #8]
	ldr	r2, [r3, #12]
	cmp	r1, #0
	add	r2, r2, #1
	mov	r0, #0
	str	r2, [r3, #12]
	str	r0, [r4]
	strne	r4, [r1]
	streq	r4, [r3, #8]
	strne	r4, [r3, #8]
	streq	r4, [r3, #4]
	add	sp, sp, #148
	@ sp needed
	pop	{r4, r5, r6, r7, r8, r9, r10, fp, pc}
.L2134:
	add	r3, r5, #124
	mcr	p15, 0, r0, c7, c10, 5
.L2404:
	ldrex	r2, [r3]
	add	r2, r2, #1
	strex	r1, r2, [r3]
	cmp	r1, #0
	bne	.L2404
	add	r6, r5, #24
	mcr	p15, 0, r0, c7, c10, 5
	mov	r0, r6
	bl	pthread_mutex_lock(PLT)
	ldr	r3, [r5, #132]
	mov	r2, #0
	cmp	r3, r2
	str	r2, [r4]
	strne	r4, [r3]
	ldr	r3, [r5, #96]
	strne	r4, [r5, #132]
	orr	r3, r3, #1
	streq	r4, [r5, #132]
	streq	r4, [r5, #128]
	cmp	r3, #1
	add	r4, r5, #48
	str	r3, [r5, #96]
	beq	.L2143
.L2422:
	mov	r0, r6
	bl	pthread_mutex_unlock(PLT)
	mov	r0, r4
	bl	pthread_cond_signal(PLT)
.L2072:
	add	sp, sp, #148
	@ sp needed
	pop	{r4, r5, r6, r7, r8, r9, r10, fp, pc}
.L2371:
	ldr	ip, [r0, #16]
	add	ip, r2, ip
	str	ip, [r0, #16]
	ldr	r0, [r1]
	cmp	r0, #0
	beq	.L2443
.L2147:
	ldm	r1, {r0, r1}
	add	r3, sp, #76
	str	ip, [sp, #84]
	ldr	r2, [r4, #28]
	stm	r3, {r0, r1}
	add	r3, sp, #72
	str	r2, [sp, #72]
	ldm	r3, {r0, r1, r2, r3}
	add	r6, sp, #108
	ldr	ip, .L2456+24
	ldr	r8, [r4, #20]
	stm	r6, {r0, r1, r2, r3}
	ldr	r7, [r5, ip]
	ldr	r9, [r4, #24]
	ldr	r0, [r7]
	bl	pthread_getspecific(PLT)
	cmp	r0, #0
	bne	.L2379
	b	.L2153
.L2151:
	ldr	r0, [r0, #8]
	cmp	r0, #0
	beq	.L2153
.L2379:
	ldr	r3, [r0]
	cmp	r9, r3
	bne	.L2151
	ldr	r3, [r0, #4]
	cmp	r3, #0
	addne	r3, sp, #144
	movne	r1, #0
	strne	r1, [r3, #-56]!
	movne	r2, #1
	beq	.L2153
.L2403:
	ldrex	r0, [r3]
	strex	ip, r2, [r3]
	cmp	ip, #0
	bne	.L2403
	mcr	p15, 0, r0, c7, c10, 5
	ldr	r3, [sp, #108]
	ldr	r2, [sp, #120]
	ldr	r0, [r3, #20]
	strb	r1, [r3, #30]
	cmp	r0, r1
	beq	.L2157
	ldrb	r3, [r3, #28]	@ zero_extendqisi2
	cmp	r3, #0
	bne	.L2157
	ldr	r3, [r0]
	add	r1, sp, #112
	ldr	r3, [r3, #12]
.LEHB33:
	blx	r3
.LEHE33:
.L2157:
	mov	r3, #0
	mcr	p15, 0, r0, c7, c10, 5
	str	r3, [sp, #88]
	add	sp, sp, #148
	@ sp needed
	pop	{r4, r5, r6, r7, r8, r9, r10, fp, pc}
.L2435:
	sub	r2, r2, ip
	ldr	r10, [r4, #4]
	cmp	r2, r7
	movcc	r7, r2
	add	r2, r10, ip
	str	r2, [sp, #8]
	b	.L2077
.L2437:
	mov	r0, r4
	bl	_ZdlPv(PLT)
.L2084:
	mov	r0, #73
.LEHB34:
	bl	_Znwj(PLT)
	mov	r3, #72
	mov	r4, r0
	b	.L2410
.L2443:
	cmp	r2, #0
	beq	.L2147
	ldr	r2, [r4, #8]
	cmp	ip, r2
	beq	.L2147
	mov	r7, #65536
	b	.L2076
.L2143:
	ldrb	r2, [r5, #120]	@ zero_extendqisi2
	cmp	r2, #0
	bne	.L2145
	ldr	r0, [r5, #104]
	cmp	r0, #0
	beq	.L2145
	add	r1, sp, #88
	strb	r3, [r5, #120]
	mov	lr, #-2147483639
	add	ip, r0, #48
	mov	r3, r1
	str	r2, [sp, #92]
	str	r2, [sp, #100]
.L2424:
	str	lr, [sp, #88]
	str	ip, [sp, #96]
	mov	r1, #3
	ldr	r2, [r0, #48]
	ldr	r0, [r0, #56]
	bl	epoll_ctl(PLT)
.L2145:
	mov	r0, r6
	bl	pthread_mutex_unlock(PLT)
	add	sp, sp, #148
	@ sp needed
	pop	{r4, r5, r6, r7, r8, r9, r10, fp, pc}
.L2436:
	ldr	r3, .L2456+24
	ldr	r4, [sp, #132]
	ldr	r3, [r5, r3]
	ldr	r0, [r3]
	bl	pthread_getspecific(PLT)
	cmp	r0, #0
	bne	.L2083
	b	.L2232
.L2082:
	ldr	r0, [r0, #8]
	cmp	r0, #0
	beq	.L2232
.L2083:
	ldr	r3, [r0]
	cmp	r4, r3
	bne	.L2082
	ldr	r0, [r0, #4]
	adds	r3, r0, #0
	movne	r3, #1
	str	r3, [sp, #20]
	b	.L2078
.L2438:
	ldr	r2, [sp, #4]
	cmn	r2, #1
	beq	.L2444
	str	r3, [sp, #8]
	bl	__errno_location(PLT)
	add	r2, sp, #144
	mov	r1, #1
	str	r1, [r2, #-56]!
	ldr	r1, .L2456+28
	mov	r7, r0
	str	r8, [r0]
	ldr	r0, [sp, #4]
	bl	ioctl(PLT)
	ldr	r2, .L2456+16
	ldr	r9, [r7]
	ldr	r7, [r5, r2]
	ldrb	r2, [r7]	@ zero_extendqisi2
	mcr	p15, 0, r0, c7, c10, 5
	ldr	r3, [sp, #8]
	tst	r2, #1
	mov	r8, r0
	beq	.L2445
.L2412:
	ldr	r2, .L2456+20
	ldr	r7, [r5, r2]
.L2095:
	cmp	r8, #0
	str	r9, [r4, #12]
	str	r7, [r4, #16]
	blt	.L2087
	mov	r2, #0
	str	r2, [r4, #12]
	str	r3, [r4, #16]
	ldrb	r3, [r6, #4]	@ zero_extendqisi2
	ldr	r2, [r6]
	orr	r3, r3, #2
	str	r2, [sp, #4]
	strb	r3, [r6, #4]
	b	.L2088
.L2232:
	str	r0, [sp, #20]
	b	.L2078
.L2445:
	mov	r0, r7
	str	r3, [sp, #4]
	bl	__cxa_guard_acquire(PLT)
	ldr	r3, [sp, #4]
	cmp	r0, #0
	beq	.L2412
	mov	r0, r7
	str	r3, [sp, #4]
	bl	__cxa_guard_release(PLT)
	ldr	r0, .L2456+20
	ldr	r1, .L2456+32
	ldr	r2, .L2456+36
	ldr	r7, [r5, r0]
.LPIC106:
	add	r2, pc, r2
	ldr	r1, [r5, r1]
	mov	r0, r7
	bl	__aeabi_atexit(PLT)
	ldr	r3, [sp, #4]
	b	.L2095
.L2440:
	ldr	r6, [r8, #20]
	ldr	r2, [sp, #20]
	ldrb	r3, [r6, #20]	@ zero_extendqisi2
	orrs	r3, r2, r3
	beq	.L2115
	ldr	r0, [r10]
	bl	pthread_getspecific(PLT)
	cmp	r0, #0
	bne	.L2376
	b	.L2115
.L2118:
	ldr	r0, [r0, #8]
	cmp	r0, #0
	beq	.L2115
.L2376:
	ldr	r3, [r0]
	cmp	r6, r3
	bne	.L2118
	ldr	r3, [r0, #4]
	cmp	r3, #0
	beq	.L2115
	ldr	r1, [r3, #8]
	ldr	r2, [r3, #12]
	cmp	r1, #0
	add	r2, r2, #1
	mov	r0, #0
	str	r2, [r3, #12]
	str	r0, [r4]
	strne	r4, [r1]
	streq	r4, [r3, #8]
	strne	r4, [r3, #8]
	streq	r4, [r3, #4]
.L2122:
	mov	r0, r5
	bl	pthread_mutex_unlock(PLT)
	b	.L2072
.L2115:
	add	r3, r6, #124
	mcr	p15, 0, r0, c7, c10, 5
.L2406:
	ldrex	r2, [r3]
	add	r2, r2, #1
	strex	r1, r2, [r3]
	cmp	r1, #0
	bne	.L2406
	add	r7, r6, #24
	mcr	p15, 0, r0, c7, c10, 5
	mov	r0, r7
	bl	pthread_mutex_lock(PLT)
	ldr	r3, [r6, #132]
	mov	r2, #0
	cmp	r3, r2
	str	r2, [r4]
	strne	r4, [r3]
	ldr	r3, [r6, #96]
	strne	r4, [r6, #132]
	orr	r3, r3, #1
	streq	r4, [r6, #132]
	streq	r4, [r6, #128]
	cmp	r3, #1
	add	r4, r6, #48
	str	r3, [r6, #96]
	beq	.L2125
	mov	r0, r7
	bl	pthread_mutex_unlock(PLT)
	mov	r0, r4
	bl	pthread_cond_signal(PLT)
	b	.L2122
.L2153:
	ldr	r3, .L2456+4
	add	r9, sp, #36
	mov	fp, #0
	str	r6, [sp, #36]
	str	fp, [r9, #4]
	str	fp, [r9, #8]
	ldr	r10, [r5, r3]
	ldr	r0, [r10]
	bl	pthread_getspecific(PLT)
	cmp	r0, #0
	beq	.L2159
	ldr	r3, [r0, #4]
	cmp	r3, fp
	beq	.L2159
	ldr	r5, [r3]
	cmp	r5, fp
	beq	.L2159
	str	fp, [r3]
	ldrb	r3, [r5]	@ zero_extendqisi2
	cmp	r3, #27
	bls	.L2446
.L2418:
	strb	r3, [r5, #28]
	ldr	lr, .L2456+40
	ldm	r6, {r0, r1, r2, r3}
	add	ip, r5, #12
.LPIC108:
	add	lr, pc, lr
	str	r5, [sp, #40]
	str	lr, [r5, #4]
	mov	lr, #0
	str	lr, [r5]
	str	lr, [r5, #8]
	stm	ip, {r0, r1, r2, r3}
	ldr	r0, [r10]
	str	r5, [sp, #44]
	ldr	r6, [r8, #20]
	bl	pthread_getspecific(PLT)
	subs	r3, r0, #0
	beq	.L2162
	ldr	r2, [r3]
	cmp	r2, r6
	bne	.L2165
	b	.L2163
.L2381:
	ldr	r2, [r3]
	cmp	r6, r2
	beq	.L2163
.L2165:
	ldr	r3, [r3, #8]
	cmp	r3, #0
	bne	.L2381
.L2162:
	ldr	r0, [r4, #24]
	add	r0, r0, #12
	bl	pthread_mutex_lock(PLT)
.L2167:
	ldr	r0, [r4, #24]
	ldrb	r7, [r0, #36]	@ zero_extendqisi2
	cmp	r7, #0
	bne	.L2169
	mov	r3, #1
	strb	r3, [r0, #36]
	add	r0, r0, #12
	bl	pthread_mutex_unlock(PLT)
	ldr	r6, [r4, #24]
	ldr	r4, [r8, #20]
	str	r7, [r5]
	ldr	r3, [r6, #52]
	cmp	r3, #0
	strne	r5, [r3]
	ldrb	r3, [r4, #20]	@ zero_extendqisi2
	strne	r5, [r6, #52]
	streq	r5, [r6, #52]
	streq	r5, [r6, #48]
	cmp	r3, #0
	bne	.L2447
.L2178:
	add	r3, r4, #124
	mcr	p15, 0, r0, c7, c10, 5
.L2402:
	ldrex	r2, [r3]
	add	r2, r2, #1
	strex	r1, r2, [r3]
	cmp	r1, #0
	bne	.L2402
	add	r5, r4, #24
	mcr	p15, 0, r0, c7, c10, 5
	mov	r0, r5
	bl	pthread_mutex_lock(PLT)
	ldr	r3, [r4, #132]
	mov	r2, #0
	cmp	r3, r2
	str	r2, [r6]
	strne	r6, [r3]
	ldr	r3, [r4, #96]
	strne	r6, [r4, #132]
	orr	r3, r3, #1
	streq	r6, [r4, #132]
	streq	r6, [r4, #128]
	cmp	r3, #1
	add	r6, r4, #48
	str	r3, [r4, #96]
	beq	.L2187
	mov	r0, r5
	bl	pthread_mutex_unlock(PLT)
	mov	r0, r6
	bl	pthread_cond_signal(PLT)
	b	.L2072
.L2439:
	ldr	r3, .L2456+16
	ldr	r6, [r5, r3]
	ldrb	r3, [r6]	@ zero_extendqisi2
	mcr	p15, 0, r0, c7, c10, 5
	tst	r3, #1
	beq	.L2448
.L2413:
	ldr	r3, .L2456+20
	ldr	r7, [r5, r3]
.L2099:
	ldr	r5, [r8, #20]
	mov	r2, #9
	str	r7, [r4, #16]
	ldrb	r3, [r5, #20]	@ zero_extendqisi2
	str	r2, [r4, #12]
	ldr	r2, [sp, #20]
	orrs	r3, r2, r3
	beq	.L2101
	ldr	r0, [r10]
	bl	pthread_getspecific(PLT)
	cmp	r0, #0
	bne	.L2375
	b	.L2101
.L2104:
	ldr	r0, [r0, #8]
	cmp	r0, #0
	beq	.L2101
.L2375:
	ldr	r3, [r0]
	cmp	r5, r3
	bne	.L2104
	ldr	r3, [r0, #4]
	cmp	r3, #0
	bne	.L2138
.L2101:
	add	r3, r5, #124
	mcr	p15, 0, r0, c7, c10, 5
.L2407:
	ldrex	r2, [r3]
	add	r2, r2, #1
	strex	r1, r2, [r3]
	cmp	r1, #0
	bne	.L2407
	add	r6, r5, #24
	mcr	p15, 0, r0, c7, c10, 5
	mov	r0, r6
	bl	pthread_mutex_lock(PLT)
	ldr	r3, [r5, #132]
	mov	r2, #0
	cmp	r3, r2
	str	r2, [r4]
	strne	r4, [r3]
	ldr	r3, [r5, #96]
	strne	r4, [r5, #132]
	orr	r3, r3, #1
	streq	r4, [r5, #132]
	streq	r4, [r5, #128]
	cmp	r3, #1
	add	r4, r5, #48
	str	r3, [r5, #96]
	bne	.L2422
	ldrb	r1, [r5, #120]	@ zero_extendqisi2
	cmp	r1, #0
	bne	.L2145
	ldr	r0, [r5, #104]
	cmp	r0, #0
	beq	.L2145
	add	r2, sp, #88
	strb	r3, [r5, #120]
	mov	lr, #-2147483639
	add	ip, r0, #48
	mov	r3, r2
	str	r1, [sp, #92]
	str	r1, [sp, #100]
	b	.L2424
.L2169:
	ldr	r3, [r0, #44]
	mov	r2, #0
	cmp	r3, r2
	str	r2, [r5]
	add	r0, r0, #12
	strne	r5, [r3]
	streq	r5, [r0, #32]
	strne	r5, [r0, #32]
	streq	r5, [r0, #28]
	bl	pthread_mutex_unlock(PLT)
	b	.L2072
.L2446:
	mov	r0, r5
	bl	_ZdlPv(PLT)
.L2159:
	mov	r0, #29
	bl	_Znwj(PLT)
.LEHE34:
	mov	r3, #28
	mov	r5, r0
	b	.L2418
.L2163:
	ldr	r0, [r4, #24]
	ldr	r6, [r3, #4]
	add	r0, r0, #12
	bl	pthread_mutex_lock(PLT)
	cmp	r6, #0
	beq	.L2167
	ldr	r0, [r4, #24]
	ldrb	r6, [r0, #36]	@ zero_extendqisi2
	cmp	r6, #0
	bne	.L2169
	mov	r3, #1
	strb	r3, [r0, #36]
	add	r0, r0, #12
	bl	pthread_mutex_unlock(PLT)
	ldr	r3, [r4, #24]
	ldr	r0, [r7]
	ldr	fp, [sp, #44]
	str	r3, [sp, #48]
	str	r6, [sp, #40]
	str	r6, [sp, #44]
	bl	pthread_getspecific(PLT)
	add	r3, sp, #48
	mov	r1, r3
	str	r3, [sp, #52]
	add	r5, sp, #88
	str	r0, [sp, #56]
	ldr	r0, [r7]
	bl	pthread_setspecific(PLT)
	add	r3, fp, #12
	ldr	r8, [r8, #20]
	ldm	r3, {r0, r1, r2, r3}
	ldr	ip, [r4, #24]
	str	r8, [sp, #28]
	stm	r5, {r0, r1, r2, r3}
	ldr	r0, [r10]
	str	fp, [sp, #64]
	str	ip, [sp, #32]
	str	r6, [sp, #68]
	str	r5, [sp, #60]
	bl	pthread_getspecific(PLT)
	cmp	r0, #0
	beq	.L2171
	ldr	r3, [r0, #4]
	cmp	r3, #0
	beq	.L2171
	ldr	r2, [r3]
	cmp	r2, #0
	beq	.L2449
.L2171:
	mov	r0, fp
	bl	_ZdlPv(PLT)
.L2190:
	mov	r3, #0
	cmp	r8, #0
	str	r3, [sp, #64]
	beq	.L2191
	add	r2, sp, #144
	mov	r1, #1
	str	r3, [r2, #-120]!
.L2401:
	ldrex	r0, [r2]
	strex	ip, r1, [r2]
	cmp	ip, #0
	bne	.L2401
	mcr	p15, 0, r0, c7, c10, 5
	ldr	r1, [sp, #88]
	ldr	r2, [sp, #100]
	ldr	r0, [r1, #20]
	strb	r3, [r1, #30]
	cmp	r0, r3
	beq	.L2195
	ldrb	r3, [r1, #28]	@ zero_extendqisi2
	cmp	r3, #0
	bne	.L2195
	ldr	r3, [r0]
	add	r1, sp, #92
	ldr	r3, [r3, #12]
.LEHB35:
	blx	r3
.LEHE35:
.L2195:
	mov	r3, #0
	mcr	p15, 0, r0, c7, c10, 5
	str	r3, [sp, #24]
	ldr	r3, [sp, #68]
	cmp	r3, #0
	ldrne	r8, [sp, #64]
	beq	.L2450
.L2229:
	mov	r3, #0
	str	r3, [sp, #68]
.L2197:
	cmp	r8, #0
	beq	.L2198
	ldr	r0, [r10]
	bl	pthread_getspecific(PLT)
	cmp	r0, #0
	beq	.L2199
	ldr	r3, [r0, #4]
	cmp	r3, #0
	beq	.L2199
	ldr	r2, [r3]
	cmp	r2, #0
	beq	.L2451
.L2199:
	mov	r0, r8
	bl	_ZdlPv(PLT)
.L2198:
	ldr	r0, [sp, #32]
	add	r0, r0, #12
	bl	pthread_mutex_lock(PLT)
	ldr	r0, [sp, #32]
	ldr	r4, [r0, #40]
	cmp	r4, #0
	ldreq	r4, [r0, #48]
	beq	.L2201
	ldr	r3, [r0, #52]
	cmp	r3, #0
	strne	r4, [r3]
	ldrne	r4, [r0, #48]
	ldr	r2, [r0, #44]
	mov	r3, #0
	streq	r4, [r0, #48]
	str	r2, [r0, #52]
	str	r3, [r0, #40]
	str	r3, [r0, #44]
.L2201:
	adds	r3, r4, #0
	movne	r3, #1
	strb	r3, [r0, #36]
	add	r0, r0, #12
	bl	pthread_mutex_unlock(PLT)
	cmp	r4, #0
	bne	.L2452
.L2205:
	ldr	r0, [r7]
	ldr	r1, [sp, #56]
	bl	pthread_setspecific(PLT)
	ldr	r3, [sp, #44]
	ldr	r4, [sp, #40]
	cmp	r3, #0
	movne	r3, #0
	strne	r3, [sp, #44]
	cmp	r4, #0
	beq	.L2072
	ldr	r0, [r10]
	bl	pthread_getspecific(PLT)
	cmp	r0, #0
	beq	.L2221
	ldr	r3, [r0, #4]
	cmp	r3, #0
	beq	.L2221
	ldr	r2, [r3]
	cmp	r2, #0
	beq	.L2453
.L2221:
	mov	r0, r4
	bl	_ZdlPv(PLT)
	b	.L2072
.L2125:
	ldrb	r2, [r6, #120]	@ zero_extendqisi2
	cmp	r2, #0
	bne	.L2127
	ldr	r0, [r6, #104]
	cmp	r0, #0
	beq	.L2127
	strb	r3, [r6, #120]
	add	r3, sp, #88
	add	r1, r0, #48
	mov	ip, #-2147483639
	str	r1, [sp, #96]
	str	r2, [r3, #4]
	str	r2, [r3, #12]
	str	ip, [sp, #88]
	mov	r1, #3
	ldr	r2, [r0, #48]
	ldr	r0, [r0, #56]
	bl	epoll_ctl(PLT)
.L2127:
	mov	r0, r7
	bl	pthread_mutex_unlock(PLT)
	b	.L2122
.L2448:
	mov	r0, r6
	bl	__cxa_guard_acquire(PLT)
	cmp	r0, #0
	beq	.L2413
	mov	r0, r6
	bl	__cxa_guard_release(PLT)
	ldr	r3, .L2456+20
	ldr	r1, .L2456+32
	ldr	r2, .L2456+44
	ldr	r7, [r5, r3]
.LPIC107:
	add	r2, pc, r2
	ldr	r1, [r5, r1]
	mov	r0, r7
	bl	__aeabi_atexit(PLT)
	b	.L2099
.L2442:
	mov	r0, r6
	bl	__cxa_guard_acquire(PLT)
	cmp	r0, #0
	beq	.L2411
	mov	r0, r6
	bl	__cxa_guard_release(PLT)
	ldr	r3, .L2456+20
	ldr	r1, .L2456+32
	ldr	r2, .L2456+48
	ldr	r7, [r5, r3]
.LPIC105:
	add	r2, pc, r2
	ldr	r1, [r5, r1]
	mov	r0, r7
	bl	__aeabi_atexit(PLT)
	b	.L2091
.L2452:
	ldr	r4, [sp, #28]
	ldr	r6, [sp, #32]
	ldrb	r3, [r4, #20]	@ zero_extendqisi2
	cmp	r3, #0
	bne	.L2454
.L2206:
	add	r3, r4, #124
	mcr	p15, 0, r0, c7, c10, 5
.L2400:
	ldrex	r2, [r3]
	add	r2, r2, #1
	strex	r1, r2, [r3]
	cmp	r1, #0
	bne	.L2400
	add	r8, r4, #24
	mcr	p15, 0, r0, c7, c10, 5
	mov	r0, r8
	bl	pthread_mutex_lock(PLT)
	ldr	r3, [r4, #132]
	mov	r2, #0
	cmp	r3, r2
	str	r2, [r6]
	strne	r6, [r3]
	ldr	r3, [r4, #96]
	strne	r6, [r4, #132]
	orr	r3, r3, #1
	streq	r6, [r4, #132]
	streq	r6, [r4, #128]
	cmp	r3, #1
	add	r6, r4, #48
	str	r3, [r4, #96]
	beq	.L2215
	mov	r0, r8
	bl	pthread_mutex_unlock(PLT)
	mov	r0, r6
	bl	pthread_cond_signal(PLT)
	b	.L2205
.L2441:
	ldr	r3, [r4, #24]
	mov	r0, r4
.LEHB36:
	blx	r3
.LEHE36:
	cmp	r0, #0
	bne	.L2455
	ldr	r3, [r6, #8]
	ldr	r2, [r3, #52]
	ands	ip, r2, #4
	bne	.L2128
	orr	r1, r2, #4
	str	r3, [sp, #96]
	ldr	r0, [r8, #56]
	str	r1, [sp, #88]
	add	r1, sp, #88
	mov	r3, r1
	ldr	r2, [sp, #4]
	mov	r1, #3
	str	ip, [sp, #92]
	str	ip, [sp, #100]
	bl	epoll_ctl(PLT)
	cmp	r0, #0
	bne	.L2130
	ldr	r1, [r6, #8]
	ldr	r0, [sp, #88]
	mov	r3, r1
	ldr	r2, [r1, #52]
	orr	r2, r2, r0
	str	r2, [r1, #52]
	b	.L2128
.L2187:
	ldrb	r1, [r4, #120]	@ zero_extendqisi2
	cmp	r1, #0
	bne	.L2122
	ldr	r0, [r4, #104]
	cmp	r0, #0
	beq	.L2122
	add	ip, r0, #48
	add	r2, sp, #88
	mov	lr, #-2147483639
	strb	r3, [r4, #120]
	str	r1, [sp, #92]
	str	r1, [sp, #100]
	str	ip, [sp, #96]
	mov	r3, r2
	str	lr, [sp, #88]
	mov	r1, #3
	ldr	r2, [r0, #48]
	ldr	r0, [r0, #56]
	bl	epoll_ctl(PLT)
	b	.L2122
.L2215:
	ldrb	r2, [r4, #120]	@ zero_extendqisi2
	cmp	r2, #0
	bne	.L2217
	ldr	r0, [r4, #104]
	cmp	r0, #0
	beq	.L2217
	add	r1, r0, #48
	mov	ip, #-2147483639
	strb	r3, [r4, #120]
	str	r1, [sp, #96]
	str	r2, [r5, #4]
	str	r2, [r5, #12]
	str	ip, [sp, #88]
	mov	r3, r5
	ldr	r2, [r0, #48]
	mov	r1, #3
	ldr	r0, [r0, #56]
	bl	epoll_ctl(PLT)
.L2217:
	mov	r0, r8
	bl	pthread_mutex_unlock(PLT)
	b	.L2205
.L2447:
	ldr	r0, [r10]
	bl	pthread_getspecific(PLT)
	cmp	r0, #0
	bne	.L2382
	b	.L2178
.L2181:
	ldr	r0, [r0, #8]
	cmp	r0, #0
	beq	.L2178
.L2382:
	ldr	r3, [r0]
	cmp	r4, r3
	bne	.L2181
	ldr	r3, [r0, #4]
	cmp	r3, #0
	beq	.L2178
	ldr	r1, [r3, #8]
	ldr	r2, [r3, #12]
	cmp	r1, #0
	add	r2, r2, #1
	mov	r0, #0
	str	r2, [r3, #12]
	str	r0, [r6]
	strne	r6, [r1]
	streq	r6, [r3, #8]
	strne	r6, [r3, #8]
	streq	r6, [r3, #4]
	b	.L2072
.L2450:
	ldr	r8, [sp, #64]
	b	.L2197
.L2453:
	ldrb	r2, [r4, #28]	@ zero_extendqisi2
	strb	r2, [r4]
	str	r4, [r3]
	b	.L2072
.L2455:
	mov	r0, r5
	bl	pthread_mutex_unlock(PLT)
	ldr	r2, [sp, #20]
	mov	r1, r4
	ldr	r0, [r8, #20]
	bl	_ZN4asio6detail15task_io_service25post_immediate_completionEPNS0_25task_io_service_operationEb(PLT)
	b	.L2072
.L2454:
	ldr	r0, [r10]
	bl	pthread_getspecific(PLT)
	cmp	r0, #0
	bne	.L2385
	b	.L2206
.L2209:
	ldr	r0, [r0, #8]
	cmp	r0, #0
	beq	.L2206
.L2385:
	ldr	r3, [r0]
	cmp	r4, r3
	bne	.L2209
	ldr	r3, [r0, #4]
	cmp	r3, #0
	beq	.L2206
	ldr	r1, [r3, #8]
	ldr	r2, [r3, #12]
	cmp	r1, #0
	add	r2, r2, #1
	mov	r0, #0
	str	r2, [r3, #12]
	str	r0, [r6]
	strne	r6, [r1]
	streq	r6, [r3, #8]
	strne	r6, [r3, #8]
	streq	r6, [r3, #4]
	b	.L2205
.L2191:
	ldr	r3, [sp, #68]
	cmp	r3, #0
	bne	.L2229
	b	.L2198
.L2451:
	ldrb	r2, [r8, #28]	@ zero_extendqisi2
	strb	r2, [r8]
	str	r8, [r3]
	b	.L2198
.L2457:
	.align	2
.L2456:
	.word	_GLOBAL_OFFSET_TABLE_-(.LPIC103+8)
	.word	_ZN4asio6detail10call_stackINS0_15task_io_serviceENS0_27task_io_service_thread_infoEE4top_E(GOT)
	.word	_ZN4asio6detail19descriptor_write_opINS_15const_buffers_1ENS0_8write_opINS_17basic_serial_portINS_19serial_port_serviceEEES2_NS0_14transfer_all_tENS0_15wrapped_handlerINS_10io_service6strandEZN7asiopal13SerialChannel14BeginWriteImplERKN7openpal6RSliceEEUlRKSt10error_codejE_NS0_26is_continuation_if_runningEEEEEE11do_completeEPNS0_15task_io_serviceEPNS0_25task_io_service_operationESJ_j-(.LPIC104+8)
	.word	_ZN4asio6detail24descriptor_write_op_baseINS_15const_buffers_1EE10do_performEPNS0_10reactor_opE(GOT)
	.word	_ZGVZN4asio15system_categoryEvE8instance(GOT)
	.word	_ZZN4asio15system_categoryEvE8instance(GOT)
	.word	_ZN4asio6detail10call_stackINS0_14strand_service11strand_implEhE4top_E(GOT)
	.word	21537
	.word	_ZN4asio6detail15system_categoryD1Ev(GOT)
	.word	__dso_handle-(.LPIC106+8)
	.word	_ZN4asio6detail18completion_handlerINS0_7binder2IZN7asiopal13SerialChannel14BeginWriteImplERKN7openpal6RSliceEEUlRKSt10error_codejE_S9_jEEE11do_completeEPNS0_15task_io_serviceEPNS0_25task_io_service_operationESB_j-(.LPIC108+8)
	.word	__dso_handle-(.LPIC107+8)
	.word	__dso_handle-(.LPIC105+8)
.L2449:
	ldrb	r2, [fp, #28]	@ zero_extendqisi2
	strb	r2, [fp]
	str	fp, [r3]
	b	.L2190
.L2235:
	mov	r3, #0
	mcr	p15, 0, r0, c7, c10, 5
	str	r3, [sp, #88]
.LEHB37:
	bl	__cxa_end_cleanup(PLT)
.L2236:
	mov	r3, #0
	mcr	p15, 0, r0, c7, c10, 5
	add	r0, sp, #60
	str	r3, [sp, #24]
	bl	_ZN4asio6detail18completion_handlerINS0_7binder2IZN7asiopal13SerialChannel14BeginWriteImplERKN7openpal6RSliceEEUlRKSt10error_codejE_S9_jEEE3ptr5resetEv(PLT)
	add	r0, sp, #28
	bl	_ZN4asio6detail14strand_service16on_dispatch_exitD1Ev(PLT)
	ldr	r1, [sp, #56]
	ldr	r0, [r7]
	bl	pthread_setspecific(PLT)
	mov	r0, r9
	bl	_ZN4asio6detail18completion_handlerINS0_7binder2IZN7asiopal13SerialChannel14BeginWriteImplERKN7openpal6RSliceEEUlRKSt10error_codejE_S9_jEEE3ptr5resetEv(PLT)
	bl	__cxa_end_cleanup(PLT)
.L2130:
	bl	__errno_location(PLT)
	ldr	r6, [r0]
	bl	_ZN4asio15system_categoryEv(PLT)
	str	r6, [r4, #12]
	ldr	r2, [sp, #20]
	mov	r1, r4
	str	r0, [r4, #16]
	ldr	r0, [r8, #20]
	bl	_ZN4asio6detail15task_io_service25post_immediate_completionEPNS0_25task_io_service_operationEb(PLT)
	b	.L2122
.L2234:
	mov	r0, r5
	bl	pthread_mutex_unlock(PLT)
	mov	r0, fp
	bl	_ZN4asio6detail19descriptor_write_opINS_15const_buffers_1ENS0_8write_opINS_17basic_serial_portINS_19serial_port_serviceEEES2_NS0_14transfer_all_tENS0_15wrapped_handlerINS_10io_service6strandEZN7asiopal13SerialChannel14BeginWriteImplERKN7openpal6RSliceEEUlRKSt10error_codejE_NS0_26is_continuation_if_runningEEEEEE3ptr5resetEv(PLT)
	bl	__cxa_end_cleanup(PLT)
.LEHE37:
	.personality	__gxx_personality_v0
	.handlerdata
.LLSDA7964:
	.byte	0xff
	.byte	0xff
	.byte	0x1
	.uleb128 .LLSDACSE7964-.LLSDACSB7964
.LLSDACSB7964:
	.uleb128 .LEHB33-.LFB7964
	.uleb128 .LEHE33-.LEHB33
	.uleb128 .L2235-.LFB7964
	.uleb128 0
	.uleb128 .LEHB34-.LFB7964
	.uleb128 .LEHE34-.LEHB34
	.uleb128 0
	.uleb128 0
	.uleb128 .LEHB35-.LFB7964
	.uleb128 .LEHE35-.LEHB35
	.uleb128 .L2236-.LFB7964
	.uleb128 0
	.uleb128 .LEHB36-.LFB7964
	.uleb128 .LEHE36-.LEHB36
	.uleb128 .L2234-.LFB7964
	.uleb128 0
	.uleb128 .LEHB37-.LFB7964
	.uleb128 .LEHE37-.LEHB37
	.uleb128 0
	.uleb128 0
.LLSDACSE7964:
	.text
	.fnend
	.size	_ZN4asio6detail8write_opINS_17basic_serial_portINS_19serial_port_serviceEEENS_15const_buffers_1ENS0_14transfer_all_tENS0_15wrapped_handlerINS_10io_service6strandEZN7asiopal13SerialChannel14BeginWriteImplERKN7openpal6RSliceEEUlRKSt10error_codejE_NS0_26is_continuation_if_runningEEEEclESI_ji, .-_ZN4asio6detail8write_opINS_17basic_serial_portINS_19serial_port_serviceEEENS_15const_buffers_1ENS0_14transfer_all_tENS0_15wrapped_handlerINS_10io_service6strandEZN7asiopal13SerialChannel14BeginWriteImplERKN7openpal6RSliceEEUlRKSt10error_codejE_NS0_26is_continuation_if_runningEEEEclESI_ji
	.align	2
	.global	_ZN7asiopal13SerialChannel14BeginWriteImplERKN7openpal6RSliceE
	.syntax unified
	.arm
	.fpu vfp
	.type	_ZN7asiopal13SerialChannel14BeginWriteImplERKN7openpal6RSliceE, %function
_ZN7asiopal13SerialChannel14BeginWriteImplERKN7openpal6RSliceE:
	.fnstart
.LFB6794:
	@ args = 0, pretend = 0, frame = 40
	@ frame_needed = 0, uses_anonymous_args = 0
	ldr	r3, [r0, #12]
	ldm	r1, {r2, ip}
	push	{r4, lr}
	.save {r4, lr}
	.pad #40
	sub	sp, sp, #40
	ldr	lr, [r3, #20]
	ldr	r1, [r3, #24]
	mov	r4, #0
	add	r3, r0, #32
	str	lr, [sp, #28]
	str	r1, [sp, #32]
	str	r3, [sp, #8]
	str	ip, [sp, #12]
	str	r2, [sp, #16]
	str	r0, [sp, #36]
	str	r4, [sp, #20]
	str	r4, [sp, #24]
	str	r4, [sp]
	bl	_ZNSt3_V215system_categoryEv(PLT)
	mov	r2, r4
	mov	r3, #1
	mov	r1, sp
	str	r0, [sp, #4]
	add	r0, sp, #8
	bl	_ZN4asio6detail8write_opINS_17basic_serial_portINS_19serial_port_serviceEEENS_15const_buffers_1ENS0_14transfer_all_tENS0_15wrapped_handlerINS_10io_service6strandEZN7asiopal13SerialChannel14BeginWriteImplERKN7openpal6RSliceEEUlRKSt10error_codejE_NS0_26is_continuation_if_runningEEEEclESI_ji(PLT)
	add	sp, sp, #40
	@ sp needed
	pop	{r4, pc}
	.fnend
	.size	_ZN7asiopal13SerialChannel14BeginWriteImplERKN7openpal6RSliceE, .-_ZN7asiopal13SerialChannel14BeginWriteImplERKN7openpal6RSliceE
	.align	2
	.syntax unified
	.arm
	.fpu vfp
	.type	_ZN4asio6detail18completion_handlerINS0_17rewrapped_handlerINS0_7binder2INS0_8write_opINS_17basic_serial_portINS_19serial_port_serviceEEENS_15const_buffers_1ENS0_14transfer_all_tENS0_15wrapped_handlerINS_10io_service6strandEZN7asiopal13SerialChannel14BeginWriteImplERKN7openpal6RSliceEEUlRKSt10error_codejE_NS0_26is_continuation_if_runningEEEEESJ_jEESM_EEE11do_completeEPNS0_15task_io_serviceEPNS0_25task_io_service_operationESL_j, %function
_ZN4asio6detail18completion_handlerINS0_17rewrapped_handlerINS0_7binder2INS0_8write_opINS_17basic_serial_portINS_19serial_port_serviceEEENS_15const_buffers_1ENS0_14transfer_all_tENS0_15wrapped_handlerINS_10io_service6strandEZN7asiopal13SerialChannel14BeginWriteImplERKN7openpal6RSliceEEUlRKSt10error_codejE_NS0_26is_continuation_if_runningEEEEESJ_jEESM_EEE11do_completeEPNS0_15task_io_serviceEPNS0_25task_io_service_operationESL_j:
	.fnstart
.LFB8960:
	@ args = 0, pretend = 0, frame = 64
	@ frame_needed = 0, uses_anonymous_args = 0
	add	r3, r1, #20
	push	{r4, r5, r6, r7, lr}
	.save {r4, r5, r6, r7, lr}
	mov	r4, r1
	.pad #68
	sub	sp, sp, #68
	mov	r5, r0
	ldm	r3, {r0, r1}
	add	r2, r4, #36
	add	r3, sp, #24
	add	r6, sp, #52
	stm	r3, {r0, r1}
	ldm	r2, {r0, r1}
	add	r3, sp, #40
	add	r2, r4, #48
	stm	r3, {r0, r1}
	ldm	r2, {r0, r1}
	ldr	ip, [r4, #12]
	ldr	r3, .L2493
	stm	r6, {r0, r1}
	ldr	r0, [r4, #16]
	ldr	r1, [r4, #28]
	str	r0, [sp, #20]
	str	r1, [sp, #32]
	ldr	r0, [r4, #44]
	ldr	r1, [r4, #56]
	ldr	r2, .L2493+4
.LPIC109:
	add	r3, pc, r3
	str	ip, [sp, #16]
	ldr	ip, [r4, #32]
	str	r0, [sp, #48]
	str	r1, [sp, #60]
	mov	r0, #0
	add	r1, sp, #16
	str	r0, [sp, #12]
	str	r4, [sp, #8]
	str	ip, [sp, #36]
	str	r1, [sp, #4]
	ldr	r7, [r3, r2]
	ldr	r0, [r7]
	bl	pthread_getspecific(PLT)
	cmp	r0, #0
	beq	.L2461
	ldr	r3, [r0, #4]
	cmp	r3, #0
	beq	.L2461
	ldr	r2, [r3]
	cmp	r2, #0
	beq	.L2491
.L2461:
	mov	r0, r4
	bl	_ZdlPv(PLT)
.L2462:
	mov	r3, #0
	cmp	r5, #0
	str	r3, [sp, #8]
	beq	.L2463
	add	r2, sp, #64
	mov	r1, #1
	str	r3, [r2, #-64]!
.L2489:
	ldrex	r0, [r2]
	strex	ip, r1, [r2]
	cmp	ip, #0
	bne	.L2489
	mcr	p15, 0, r0, c7, c10, 5
	mov	r1, r6
	ldr	r2, [sp, #60]
	add	r0, sp, #20
.LEHB38:
	bl	_ZN4asio6detail8write_opINS_17basic_serial_portINS_19serial_port_serviceEEENS_15const_buffers_1ENS0_14transfer_all_tENS0_15wrapped_handlerINS_10io_service6strandEZN7asiopal13SerialChannel14BeginWriteImplERKN7openpal6RSliceEEUlRKSt10error_codejE_NS0_26is_continuation_if_runningEEEEclESI_ji(PLT)
.LEHE38:
	mov	r3, #0
	mcr	p15, 0, r0, c7, c10, 5
	str	r3, [sp]
	ldr	r3, [sp, #12]
	ldr	r5, [sp, #8]
	cmp	r3, #0
	beq	.L2464
.L2468:
	mov	r3, #0
	str	r3, [sp, #12]
.L2464:
	cmp	r5, #0
	beq	.L2460
	ldr	r0, [r7]
	bl	pthread_getspecific(PLT)
	cmp	r0, #0
	beq	.L2466
	ldr	r3, [r0, #4]
	cmp	r3, #0
	beq	.L2466
	ldr	r2, [r3]
	cmp	r2, #0
	beq	.L2492
.L2466:
	mov	r0, r5
	bl	_ZdlPv(PLT)
.L2460:
	add	sp, sp, #68
	@ sp needed
	pop	{r4, r5, r6, r7, pc}
.L2463:
	ldr	r3, [sp, #12]
	cmp	r3, #0
	bne	.L2468
	b	.L2460
.L2492:
	ldrb	r2, [r5, #60]	@ zero_extendqisi2
	strb	r2, [r5]
	str	r5, [r3]
	b	.L2460
.L2491:
	ldrb	r2, [r4, #60]	@ zero_extendqisi2
	strb	r2, [r4]
	str	r4, [r3]
	b	.L2462
.L2470:
	mov	r3, #0
	mcr	p15, 0, r0, c7, c10, 5
	add	r0, sp, #4
	str	r3, [sp]
	bl	_ZN4asio6detail18completion_handlerINS0_17rewrapped_handlerINS0_7binder2INS0_8write_opINS_17basic_serial_portINS_19serial_port_serviceEEENS_15const_buffers_1ENS0_14transfer_all_tENS0_15wrapped_handlerINS_10io_service6strandEZN7asiopal13SerialChannel14BeginWriteImplERKN7openpal6RSliceEEUlRKSt10error_codejE_NS0_26is_continuation_if_runningEEEEESJ_jEESM_EEE3ptr5resetEv(PLT)
.LEHB39:
	bl	__cxa_end_cleanup(PLT)
.LEHE39:
.L2494:
	.align	2
.L2493:
	.word	_GLOBAL_OFFSET_TABLE_-(.LPIC109+8)
	.word	_ZN4asio6detail10call_stackINS0_15task_io_serviceENS0_27task_io_service_thread_infoEE4top_E(GOT)
	.personality	__gxx_personality_v0
	.handlerdata
.LLSDA8960:
	.byte	0xff
	.byte	0xff
	.byte	0x1
	.uleb128 .LLSDACSE8960-.LLSDACSB8960
.LLSDACSB8960:
	.uleb128 .LEHB38-.LFB8960
	.uleb128 .LEHE38-.LEHB38
	.uleb128 .L2470-.LFB8960
	.uleb128 0
	.uleb128 .LEHB39-.LFB8960
	.uleb128 .LEHE39-.LEHB39
	.uleb128 0
	.uleb128 0
.LLSDACSE8960:
	.text
	.fnend
	.size	_ZN4asio6detail18completion_handlerINS0_17rewrapped_handlerINS0_7binder2INS0_8write_opINS_17basic_serial_portINS_19serial_port_serviceEEENS_15const_buffers_1ENS0_14transfer_all_tENS0_15wrapped_handlerINS_10io_service6strandEZN7asiopal13SerialChannel14BeginWriteImplERKN7openpal6RSliceEEUlRKSt10error_codejE_NS0_26is_continuation_if_runningEEEEESJ_jEESM_EEE11do_completeEPNS0_15task_io_serviceEPNS0_25task_io_service_operationESL_j, .-_ZN4asio6detail18completion_handlerINS0_17rewrapped_handlerINS0_7binder2INS0_8write_opINS_17basic_serial_portINS_19serial_port_serviceEEENS_15const_buffers_1ENS0_14transfer_all_tENS0_15wrapped_handlerINS_10io_service6strandEZN7asiopal13SerialChannel14BeginWriteImplERKN7openpal6RSliceEEUlRKSt10error_codejE_NS0_26is_continuation_if_runningEEEEESJ_jEESM_EEE11do_completeEPNS0_15task_io_serviceEPNS0_25task_io_service_operationESL_j
	.align	2
	.syntax unified
	.arm
	.fpu vfp
	.type	_ZN4asio6detail19descriptor_write_opINS_15const_buffers_1ENS0_8write_opINS_17basic_serial_portINS_19serial_port_serviceEEES2_NS0_14transfer_all_tENS0_15wrapped_handlerINS_10io_service6strandEZN7asiopal13SerialChannel14BeginWriteImplERKN7openpal6RSliceEEUlRKSt10error_codejE_NS0_26is_continuation_if_runningEEEEEE11do_completeEPNS0_15task_io_serviceEPNS0_25task_io_service_operationESJ_j, %function
_ZN4asio6detail19descriptor_write_opINS_15const_buffers_1ENS0_8write_opINS_17basic_serial_portINS_19serial_port_serviceEEES2_NS0_14transfer_all_tENS0_15wrapped_handlerINS_10io_service6strandEZN7asiopal13SerialChannel14BeginWriteImplERKN7openpal6RSliceEEUlRKSt10error_codejE_NS0_26is_continuation_if_runningEEEEEE11do_completeEPNS0_15task_io_serviceEPNS0_25task_io_service_operationESJ_j:
	.fnstart
.LFB8829:
	@ args = 0, pretend = 0, frame = 272
	@ frame_needed = 0, uses_anonymous_args = 0
	add	r3, r1, #44
	push	{r4, r5, r6, r7, r8, r9, r10, fp, lr}
	.save {r4, r5, r6, r7, r8, r9, r10, fp, lr}
	mov	r4, r1
	.pad #276
	sub	sp, sp, #276
	mov	r6, r0
	ldm	r3, {r0, r1}
	add	r10, sp, #80
	add	r3, r4, #60
	stm	r10, {r0, r1}
	ldm	r3, {r0, r1}
	add	r9, sp, #96
	add	r3, r4, #12
	stm	r9, {r0, r1}
	ldm	r3, {r0, r1}
	ldr	r2, [r4, #40]
	add	r7, sp, #108
	str	r2, [sp, #76]
	stm	r7, {r0, r1}
	ldr	r2, [r4, #56]
	ldr	r1, [r4, #52]
	ldr	r8, .L2699
	str	r1, [sp, #88]
	str	r2, [sp, #92]
	ldr	r1, [r4, #68]
	ldr	r2, [r4, #20]
	ldr	r3, .L2699+4
.LPIC110:
	add	r8, pc, r8
	str	r1, [sp, #104]
	str	r2, [sp, #116]
	mov	r1, #0
	add	r2, sp, #76
	str	r4, [sp, #32]
	str	r2, [sp, #28]
	str	r1, [sp, #36]
	ldr	r5, [r8, r3]
	ldr	r0, [r5]
	bl	pthread_getspecific(PLT)
	cmp	r0, #0
	beq	.L2496
	ldr	r3, [r0, #4]
	cmp	r3, #0
	beq	.L2496
	ldr	r2, [r3]
	cmp	r2, #0
	beq	.L2689
.L2496:
	mov	r0, r4
	bl	_ZdlPv(PLT)
.L2497:
	mov	r2, #0
	cmp	r6, #0
	str	r2, [sp, #32]
	beq	.L2498
	add	r3, sp, #272
	mov	r1, #1
	str	r2, [r3, #-260]!
.L2682:
	ldrex	r2, [r3]
	strex	r0, r1, [r3]
	cmp	r0, #0
	bne	.L2682
	mcr	p15, 0, r0, c7, c10, 5
	ldm	r10, {r0, r1}
	add	ip, sp, #128
	add	r2, sp, #144
	stm	ip, {r0, r1}
	ldm	r9, {r0, r1}
	ldr	r3, [sp, #76]
	ldr	lr, [sp, #88]
	stm	r2, {r0, r1}
	ldm	r7, {r0, r1}
	str	r3, [sp, #224]
	add	r3, sp, #156
	add	r7, sp, #228
	stm	r3, {r0, r1}
	ldm	ip, {r0, r1}
	str	lr, [sp, #236]
	ldr	ip, [sp, #92]
	stm	r7, {r0, r1}
	ldm	r2, {r0, r1}
	add	r6, sp, #244
	ldr	r2, [sp, #104]
	str	ip, [sp, #240]
	stm	r6, {r0, r1}
	str	r2, [sp, #120]
	str	r2, [sp, #152]
	str	r2, [sp, #220]
	str	r2, [sp, #252]
	ldm	r3, {r0, r1}
	ldr	r2, .L2699+8
	ldr	ip, [sp, #116]
	add	r4, sp, #256
	str	ip, [sp, #264]
	stm	r4, {r0, r1}
	ldr	r3, [r8, r2]
	ldr	r9, [sp, #96]
	str	r3, [sp, #4]
	ldr	r0, [r3]
	ldr	r10, [sp, #100]
	bl	pthread_getspecific(PLT)
	cmp	r0, #0
	bne	.L2672
	b	.L2499
.L2502:
	ldr	r0, [r0, #8]
	cmp	r0, #0
	beq	.L2499
.L2672:
	ldr	r3, [r0]
	cmp	r10, r3
	bne	.L2502
	ldr	r3, [r0, #4]
	cmp	r3, #0
	addne	r2, sp, #272
	movne	r3, #0
	strne	r3, [r2, #-220]!
	movne	r1, #1
	beq	.L2499
.L2681:
	ldrex	r0, [r2]
	strex	ip, r1, [r2]
	cmp	ip, #0
	bne	.L2681
	mcr	p15, 0, r0, c7, c10, 5
	mov	r1, r4
	ldr	r2, [sp, #264]
	add	r0, sp, #224
.LEHB40:
	bl	_ZN4asio6detail8write_opINS_17basic_serial_portINS_19serial_port_serviceEEENS_15const_buffers_1ENS0_14transfer_all_tENS0_15wrapped_handlerINS_10io_service6strandEZN7asiopal13SerialChannel14BeginWriteImplERKN7openpal6RSliceEEUlRKSt10error_codejE_NS0_26is_continuation_if_runningEEEEclESI_ji(PLT)
.LEHE40:
	mov	r3, #0
	mcr	p15, 0, r0, c7, c10, 5
	str	r3, [sp, #52]
.L2505:
	mov	r3, #0
	mcr	p15, 0, r0, c7, c10, 5
	str	r3, [sp, #12]
	ldr	r3, [sp, #36]
	ldr	r6, [sp, #32]
	cmp	r3, #0
	beq	.L2566
.L2572:
	mov	r3, #0
	str	r3, [sp, #36]
.L2566:
	cmp	r6, #0
	beq	.L2495
	ldr	r0, [r5]
	bl	pthread_getspecific(PLT)
	cmp	r0, #0
	beq	.L2568
	ldr	r3, [r0, #4]
	cmp	r3, #0
	beq	.L2568
	ldr	r2, [r3]
	cmp	r2, #0
	beq	.L2690
.L2568:
	mov	r0, r6
	bl	_ZdlPv(PLT)
.L2495:
	add	sp, sp, #276
	@ sp needed
	pop	{r4, r5, r6, r7, r8, r9, r10, fp, pc}
.L2499:
	add	r10, sp, #40
	mov	r8, #0
	add	r3, sp, #220
	ldr	r0, [r5]
	str	r8, [r10, #4]
	str	r8, [r10, #8]
	str	r3, [sp, #40]
	bl	pthread_getspecific(PLT)
	cmp	r0, #0
	beq	.L2506
	ldr	r3, [r0, #4]
	cmp	r3, r8
	beq	.L2506
	ldr	fp, [r3]
	cmp	fp, r8
	beq	.L2506
	str	r8, [r3]
	ldrb	r3, [fp]	@ zero_extendqisi2
	cmp	r3, #59
	bls	.L2691
.L2685:
	strb	r3, [fp, #60]
	ldr	r3, [sp, #224]
	ldr	r2, .L2699+12
	str	r3, [fp, #16]
	ldm	r7, {r0, r1}
	ldr	ip, [sp, #220]
.LPIC111:
	add	r2, pc, r2
	add	r3, fp, #20
	str	fp, [sp, #44]
	str	r2, [fp, #4]
	mov	r2, #0
	str	ip, [fp, #12]
	str	r2, [fp]
	str	r2, [fp, #8]
	stm	r3, {r0, r1}
	ldm	r6, {r0, r1}
	ldr	ip, [sp, #240]
	ldr	r2, [sp, #236]
	add	r3, fp, #36
	str	ip, [fp, #32]
	str	r2, [fp, #28]
	stm	r3, {r0, r1}
	ldm	r4, {r0, r1}
	add	r3, fp, #48
	ldr	r2, [sp, #264]
	ldr	ip, [sp, #252]
	str	fp, [sp, #48]
	str	ip, [fp, #44]
	stm	r3, {r0, r1}
	str	r2, [fp, #56]
	ldr	r0, [r5]
	ldr	r4, [r9, #20]
	bl	pthread_getspecific(PLT)
	subs	r3, r0, #0
	bne	.L2673
	b	.L2509
.L2512:
	ldr	r3, [r3, #8]
	cmp	r3, #0
	beq	.L2509
.L2673:
	ldr	r2, [r3]
	cmp	r4, r2
	bne	.L2512
	ldr	r0, [sp, #100]
	ldr	r4, [r3, #4]
	add	r0, r0, #12
	bl	pthread_mutex_lock(PLT)
	cmp	r4, #0
	beq	.L2514
	ldr	r0, [sp, #100]
	ldrb	r6, [r0, #36]	@ zero_extendqisi2
	cmp	r6, #0
	beq	.L2692
.L2516:
	ldr	r3, [r0, #44]
	mov	r2, #0
	cmp	r3, r2
	str	r2, [fp]
	add	r0, r0, #12
	strne	fp, [r3]
	streq	fp, [r0, #32]
	strne	fp, [r0, #32]
	streq	fp, [r0, #28]
	bl	pthread_mutex_unlock(PLT)
	b	.L2505
.L2498:
	ldr	r3, [sp, #36]
	cmp	r3, #0
	bne	.L2572
	b	.L2495
.L2691:
	mov	r0, fp
	bl	_ZdlPv(PLT)
.L2506:
	mov	r0, #61
.LEHB41:
	bl	_Znwj(PLT)
.LEHE41:
	mov	fp, r0
	mov	r3, #60
	b	.L2685
.L2509:
	ldr	r0, [sp, #100]
	add	r0, r0, #12
	bl	pthread_mutex_lock(PLT)
.L2514:
	ldr	r0, [sp, #100]
	ldrb	r4, [r0, #36]	@ zero_extendqisi2
	cmp	r4, #0
	bne	.L2516
	mov	r3, #1
	strb	r3, [r0, #36]
	add	r0, r0, #12
	bl	pthread_mutex_unlock(PLT)
	ldr	r6, [sp, #100]
	str	r4, [fp]
	ldr	r4, [r9, #20]
	ldr	r3, [r6, #52]
	cmp	r3, #0
	strne	fp, [r3]
	ldrb	r3, [r4, #20]	@ zero_extendqisi2
	strne	fp, [r6, #52]
	streq	fp, [r6, #52]
	streq	fp, [r6, #48]
	cmp	r3, #0
	bne	.L2693
.L2525:
	add	r3, r4, #124
	mcr	p15, 0, r0, c7, c10, 5
.L2680:
	ldrex	r2, [r3]
	add	r2, r2, #1
	strex	r1, r2, [r3]
	cmp	r1, #0
	bne	.L2680
	add	r7, r4, #24
	mcr	p15, 0, r0, c7, c10, 5
	mov	r0, r7
	bl	pthread_mutex_lock(PLT)
	ldr	r3, [r4, #132]
	mov	r2, #0
	cmp	r3, r2
	str	r2, [r6]
	strne	r6, [r3]
	ldr	r3, [r4, #96]
	strne	r6, [r4, #132]
	orr	r3, r3, #1
	streq	r6, [r4, #132]
	streq	r6, [r4, #128]
	cmp	r3, #1
	add	r6, r4, #48
	str	r3, [r4, #96]
	beq	.L2534
	mov	r0, r7
	bl	pthread_mutex_unlock(PLT)
	mov	r0, r6
	bl	pthread_cond_signal(PLT)
	b	.L2505
.L2690:
	ldrb	r2, [r6, #72]	@ zero_extendqisi2
	strb	r2, [r6]
	str	r6, [r3]
	b	.L2495
.L2689:
	ldrb	r2, [r4, #72]	@ zero_extendqisi2
	strb	r2, [r4]
	str	r4, [r3]
	b	.L2497
.L2692:
	mov	r3, #1
	strb	r3, [r0, #36]
	add	r0, r0, #12
	bl	pthread_mutex_unlock(PLT)
	ldr	r8, [sp, #4]
	ldr	r3, [sp, #100]
	ldr	r4, [sp, #48]
	ldr	r0, [r8]
	str	r3, [sp, #52]
	str	r6, [sp, #44]
	str	r6, [sp, #48]
	bl	pthread_getspecific(PLT)
	add	r3, sp, #52
	mov	r1, r3
	str	r3, [sp, #56]
	add	fp, sp, #204
	add	r7, sp, #168
	str	r0, [sp, #60]
	ldr	r0, [r8]
	bl	pthread_setspecific(PLT)
	add	r3, r4, #20
	add	r2, r4, #36
	ldm	r3, {r0, r1}
	add	r3, sp, #176
	ldr	r9, [r9, #20]
	ldr	ip, [r4, #16]
	ldr	lr, [r4, #12]
	stm	r3, {r0, r1}
	ldr	r3, [r4, #28]
	ldm	r2, {r0, r1}
	str	r3, [sp, #184]
	add	r2, r4, #48
	add	r3, sp, #192
	str	ip, [sp, #172]
	str	lr, [sp, #168]
	ldr	ip, [r4, #32]
	stm	r3, {r0, r1}
	ldm	r2, {r0, r1}
	ldr	r3, [r4, #44]
	ldr	r2, [r4, #56]
	str	ip, [sp, #188]
	stm	fp, {r0, r1}
	str	r3, [sp, #200]
	ldr	r3, [sp, #100]
	ldr	r0, [r5]
	str	r9, [sp, #20]
	str	r4, [sp, #68]
	str	r6, [sp, #72]
	str	r7, [sp, #64]
	str	r2, [sp, #212]
	str	r3, [sp, #24]
	bl	pthread_getspecific(PLT)
	cmp	r0, #0
	beq	.L2518
	ldr	r3, [r0, #4]
	cmp	r3, #0
	beq	.L2518
	ldr	r2, [r3]
	cmp	r2, #0
	beq	.L2694
.L2518:
	mov	r0, r4
	bl	_ZdlPv(PLT)
.L2537:
	mov	r3, #0
	cmp	r9, #0
	str	r3, [sp, #68]
	beq	.L2538
	add	r2, sp, #272
	mov	r1, #1
	str	r3, [r2, #-256]!
.L2679:
	ldrex	r0, [r2]
	strex	ip, r1, [r2]
	cmp	ip, #0
	bne	.L2679
	mcr	p15, 0, r0, c7, c10, 5
	mov	r1, fp
	ldr	r2, [sp, #212]
	add	r0, sp, #172
.LEHB42:
	bl	_ZN4asio6detail8write_opINS_17basic_serial_portINS_19serial_port_serviceEEENS_15const_buffers_1ENS0_14transfer_all_tENS0_15wrapped_handlerINS_10io_service6strandEZN7asiopal13SerialChannel14BeginWriteImplERKN7openpal6RSliceEEUlRKSt10error_codejE_NS0_26is_continuation_if_runningEEEEclESI_ji(PLT)
.LEHE42:
	mov	r3, #0
	mcr	p15, 0, r0, c7, c10, 5
	str	r3, [sp, #16]
	ldr	r3, [sp, #72]
	ldr	r9, [sp, #68]
	cmp	r3, #0
	beq	.L2539
.L2571:
	mov	r3, #0
	str	r3, [sp, #72]
.L2539:
	cmp	r9, #0
	beq	.L2540
	ldr	r0, [r5]
	bl	pthread_getspecific(PLT)
	cmp	r0, #0
	beq	.L2541
	ldr	r3, [r0, #4]
	cmp	r3, #0
	beq	.L2541
	ldr	r2, [r3]
	cmp	r2, #0
	beq	.L2695
.L2541:
	mov	r0, r9
	bl	_ZdlPv(PLT)
.L2540:
	ldr	r0, [sp, #24]
	add	r0, r0, #12
	bl	pthread_mutex_lock(PLT)
	ldr	r0, [sp, #24]
	ldr	r4, [r0, #40]
	cmp	r4, #0
	ldreq	r4, [r0, #48]
	beq	.L2543
	ldr	r3, [r0, #52]
	cmp	r3, #0
	strne	r4, [r3]
	ldrne	r4, [r0, #48]
	ldr	r2, [r0, #44]
	mov	r3, #0
	streq	r4, [r0, #48]
	str	r2, [r0, #52]
	str	r3, [r0, #40]
	str	r3, [r0, #44]
.L2543:
	adds	r3, r4, #0
	movne	r3, #1
	strb	r3, [r0, #36]
	add	r0, r0, #12
	bl	pthread_mutex_unlock(PLT)
	cmp	r4, #0
	bne	.L2696
.L2548:
	ldr	r3, [sp, #4]
	ldr	r1, [sp, #60]
	ldr	r0, [r3]
	bl	pthread_setspecific(PLT)
	ldr	r3, [sp, #48]
	ldr	r4, [sp, #44]
	cmp	r3, #0
	movne	r3, #0
	strne	r3, [sp, #48]
	cmp	r4, #0
	beq	.L2505
	ldr	r0, [r5]
	bl	pthread_getspecific(PLT)
	cmp	r0, #0
	beq	.L2564
	ldr	r3, [r0, #4]
	cmp	r3, #0
	beq	.L2564
	ldr	r2, [r3]
	cmp	r2, #0
	beq	.L2697
.L2564:
	mov	r0, r4
	bl	_ZdlPv(PLT)
	b	.L2505
.L2696:
	ldr	r4, [sp, #20]
	ldr	r6, [sp, #24]
	ldrb	r3, [r4, #20]	@ zero_extendqisi2
	cmp	r3, #0
	bne	.L2698
.L2549:
	add	r3, r4, #124
	mcr	p15, 0, r0, c7, c10, 5
.L2678:
	ldrex	r2, [r3]
	add	r2, r2, #1
	strex	r1, r2, [r3]
	cmp	r1, #0
	bne	.L2678
	add	r9, r4, #24
	mcr	p15, 0, r0, c7, c10, 5
	mov	r0, r9
	bl	pthread_mutex_lock(PLT)
	ldr	r3, [r4, #132]
	mov	r2, #0
	cmp	r3, r2
	str	r2, [r6]
	strne	r6, [r3]
	ldr	r3, [r4, #96]
	strne	r6, [r4, #132]
	orr	r3, r3, #1
	streq	r6, [r4, #132]
	streq	r6, [r4, #128]
	cmp	r3, #1
	add	r6, r4, #48
	str	r3, [r4, #96]
	beq	.L2558
	mov	r0, r9
	bl	pthread_mutex_unlock(PLT)
	mov	r0, r6
	bl	pthread_cond_signal(PLT)
	b	.L2548
.L2534:
	ldrb	r2, [r4, #120]	@ zero_extendqisi2
	cmp	r2, #0
	bne	.L2536
	ldr	r0, [r4, #104]
	cmp	r0, #0
	beq	.L2536
	strb	r3, [r4, #120]
	add	r3, sp, #168
	add	r1, r0, #48
	mov	ip, #-2147483639
	str	r1, [sp, #176]
	str	r2, [r3, #4]
	str	r2, [r3, #12]
	str	ip, [sp, #168]
	mov	r1, #3
	ldr	r2, [r0, #48]
	ldr	r0, [r0, #56]
	bl	epoll_ctl(PLT)
.L2536:
	mov	r0, r7
	bl	pthread_mutex_unlock(PLT)
	b	.L2505
.L2558:
	ldrb	r2, [r4, #120]	@ zero_extendqisi2
	cmp	r2, #0
	bne	.L2560
	ldr	r0, [r4, #104]
	cmp	r0, #0
	beq	.L2560
	add	r1, r0, #48
	mov	ip, #-2147483639
	strb	r3, [r4, #120]
	str	r1, [sp, #176]
	str	r2, [r7, #4]
	str	r2, [r7, #12]
	str	ip, [sp, #168]
	mov	r3, r7
	ldr	r2, [r0, #48]
	mov	r1, #3
	ldr	r0, [r0, #56]
	bl	epoll_ctl(PLT)
.L2560:
	mov	r0, r9
	bl	pthread_mutex_unlock(PLT)
	b	.L2548
.L2697:
	ldrb	r2, [r4, #60]	@ zero_extendqisi2
	strb	r2, [r4]
	str	r4, [r3]
	b	.L2505
.L2693:
	ldr	r0, [r5]
	bl	pthread_getspecific(PLT)
	cmp	r0, #0
	beq	.L2525
	ldr	r3, [r0]
	cmp	r3, r4
	beq	.L2526
.L2528:
	ldr	r0, [r0, #8]
	cmp	r0, #0
	beq	.L2525
	ldr	r3, [r0]
	cmp	r4, r3
	bne	.L2528
.L2526:
	ldr	r3, [r0, #4]
	cmp	r3, #0
	beq	.L2525
	ldr	r1, [r3, #8]
	ldr	r2, [r3, #12]
	cmp	r1, #0
	add	r2, r2, #1
	mov	r0, #0
	str	r2, [r3, #12]
	str	r0, [r6]
	strne	r6, [r1]
	streq	r6, [r3, #8]
	strne	r6, [r3, #8]
	streq	r6, [r3, #4]
	b	.L2505
.L2698:
	ldr	r0, [r5]
	bl	pthread_getspecific(PLT)
	cmp	r0, #0
	beq	.L2549
	ldr	r3, [r0]
	cmp	r3, r4
	beq	.L2550
.L2552:
	ldr	r0, [r0, #8]
	cmp	r0, #0
	beq	.L2549
	ldr	r3, [r0]
	cmp	r4, r3
	bne	.L2552
.L2550:
	ldr	r3, [r0, #4]
	cmp	r3, #0
	beq	.L2549
	ldr	r1, [r3, #8]
	ldr	r2, [r3, #12]
	cmp	r1, #0
	add	r2, r2, #1
	mov	r0, #0
	str	r2, [r3, #12]
	str	r0, [r6]
	strne	r6, [r1]
	streq	r6, [r3, #8]
	strne	r6, [r3, #8]
	streq	r6, [r3, #4]
	b	.L2548
.L2538:
	ldr	r3, [sp, #72]
	cmp	r3, #0
	bne	.L2571
	b	.L2540
.L2694:
	ldrb	r2, [r4, #60]	@ zero_extendqisi2
	strb	r2, [r4]
	str	r4, [r3]
	b	.L2537
.L2695:
	ldrb	r2, [r9, #60]	@ zero_extendqisi2
	strb	r2, [r9]
	str	r9, [r3]
	b	.L2540
.L2577:
	mov	r3, #0
	mcr	p15, 0, r0, c7, c10, 5
	add	r0, sp, #64
	str	r3, [sp, #16]
	bl	_ZN4asio6detail18completion_handlerINS0_17rewrapped_handlerINS0_7binder2INS0_8write_opINS_17basic_serial_portINS_19serial_port_serviceEEENS_15const_buffers_1ENS0_14transfer_all_tENS0_15wrapped_handlerINS_10io_service6strandEZN7asiopal13SerialChannel14BeginWriteImplERKN7openpal6RSliceEEUlRKSt10error_codejE_NS0_26is_continuation_if_runningEEEEESJ_jEESM_EEE3ptr5resetEv(PLT)
	add	r0, sp, #20
	bl	_ZN4asio6detail14strand_service16on_dispatch_exitD1Ev(PLT)
	ldr	r3, [sp, #4]
	ldr	r1, [sp, #60]
	ldr	r0, [r3]
	bl	pthread_setspecific(PLT)
	mov	r0, r10
	bl	_ZN4asio6detail18completion_handlerINS0_17rewrapped_handlerINS0_7binder2INS0_8write_opINS_17basic_serial_portINS_19serial_port_serviceEEENS_15const_buffers_1ENS0_14transfer_all_tENS0_15wrapped_handlerINS_10io_service6strandEZN7asiopal13SerialChannel14BeginWriteImplERKN7openpal6RSliceEEUlRKSt10error_codejE_NS0_26is_continuation_if_runningEEEEESJ_jEESM_EEE3ptr5resetEv(PLT)
.L2545:
	mov	r3, #0
	mcr	p15, 0, r0, c7, c10, 5
	add	r0, sp, #28
	str	r3, [sp, #12]
	bl	_ZN4asio6detail19descriptor_write_opINS_15const_buffers_1ENS0_8write_opINS_17basic_serial_portINS_19serial_port_serviceEEES2_NS0_14transfer_all_tENS0_15wrapped_handlerINS_10io_service6strandEZN7asiopal13SerialChannel14BeginWriteImplERKN7openpal6RSliceEEUlRKSt10error_codejE_NS0_26is_continuation_if_runningEEEEEE3ptr5resetEv(PLT)
.LEHB43:
	bl	__cxa_end_cleanup(PLT)
.LEHE43:
.L2576:
	mov	r3, #0
	mcr	p15, 0, r0, c7, c10, 5
	str	r3, [sp, #52]
	b	.L2545
.L2575:
	b	.L2545
.L2700:
	.align	2
.L2699:
	.word	_GLOBAL_OFFSET_TABLE_-(.LPIC110+8)
	.word	_ZN4asio6detail10call_stackINS0_15task_io_serviceENS0_27task_io_service_thread_infoEE4top_E(GOT)
	.word	_ZN4asio6detail10call_stackINS0_14strand_service11strand_implEhE4top_E(GOT)
	.word	_ZN4asio6detail18completion_handlerINS0_17rewrapped_handlerINS0_7binder2INS0_8write_opINS_17basic_serial_portINS_19serial_port_serviceEEENS_15const_buffers_1ENS0_14transfer_all_tENS0_15wrapped_handlerINS_10io_service6strandEZN7asiopal13SerialChannel14BeginWriteImplERKN7openpal6RSliceEEUlRKSt10error_codejE_NS0_26is_continuation_if_runningEEEEESJ_jEESM_EEE11do_completeEPNS0_15task_io_serviceEPNS0_25task_io_service_operationESL_j-(.LPIC111+8)
	.personality	__gxx_personality_v0
	.handlerdata
.LLSDA8829:
	.byte	0xff
	.byte	0xff
	.byte	0x1
	.uleb128 .LLSDACSE8829-.LLSDACSB8829
.LLSDACSB8829:
	.uleb128 .LEHB40-.LFB8829
	.uleb128 .LEHE40-.LEHB40
	.uleb128 .L2576-.LFB8829
	.uleb128 0
	.uleb128 .LEHB41-.LFB8829
	.uleb128 .LEHE41-.LEHB41
	.uleb128 .L2575-.LFB8829
	.uleb128 0
	.uleb128 .LEHB42-.LFB8829
	.uleb128 .LEHE42-.LEHB42
	.uleb128 .L2577-.LFB8829
	.uleb128 0
	.uleb128 .LEHB43-.LFB8829
	.uleb128 .LEHE43-.LEHB43
	.uleb128 0
	.uleb128 0
.LLSDACSE8829:
	.text
	.fnend
	.size	_ZN4asio6detail19descriptor_write_opINS_15const_buffers_1ENS0_8write_opINS_17basic_serial_portINS_19serial_port_serviceEEES2_NS0_14transfer_all_tENS0_15wrapped_handlerINS_10io_service6strandEZN7asiopal13SerialChannel14BeginWriteImplERKN7openpal6RSliceEEUlRKSt10error_codejE_NS0_26is_continuation_if_runningEEEEEE11do_completeEPNS0_15task_io_serviceEPNS0_25task_io_service_operationESJ_j, .-_ZN4asio6detail19descriptor_write_opINS_15const_buffers_1ENS0_8write_opINS_17basic_serial_portINS_19serial_port_serviceEEES2_NS0_14transfer_all_tENS0_15wrapped_handlerINS_10io_service6strandEZN7asiopal13SerialChannel14BeginWriteImplERKN7openpal6RSliceEEUlRKSt10error_codejE_NS0_26is_continuation_if_runningEEEEEE11do_completeEPNS0_15task_io_serviceEPNS0_25task_io_service_operationESJ_j
	.section	.text._ZN7asiopal13IAsyncChannelD2Ev,"axG",%progbits,_ZN7asiopal13IAsyncChannelD5Ev,comdat
	.align	2
	.weak	_ZN7asiopal13IAsyncChannelD2Ev
	.syntax unified
	.arm
	.fpu vfp
	.type	_ZN7asiopal13IAsyncChannelD2Ev, %function
_ZN7asiopal13IAsyncChannelD2Ev:
	.fnstart
.LFB6732:
	@ args = 0, pretend = 0, frame = 0
	@ frame_needed = 0, uses_anonymous_args = 0
	push	{r4, r5, r6, lr}
	mov	r4, r0
	ldr	r5, .L2735
	ldr	r3, .L2735+4
.LPIC112:
	add	r5, pc, r5
	ldr	r6, [r0, #24]
	ldr	r3, [r5, r3]
	cmp	r6, #0
	add	r3, r3, #8
	str	r3, [r0]
	beq	.L2703
	ldr	r3, .L2735+8
	ldr	r3, [r5, r3]
	cmp	r3, #0
	beq	.L2704
	add	r3, r6, #28
	mcr	p15, 0, r0, c7, c10, 5
.L2726:
	ldrex	r2, [r3]
	sub	r1, r2, #1
	strex	r0, r1, [r3]
	cmp	r0, #0
	bne	.L2726
	cmp	r2, #1
	mcr	p15, 0, r0, c7, c10, 5
	beq	.L2732
.L2703:
	ldr	r6, [r4, #16]
	cmp	r6, #0
	beq	.L2709
	ldr	r3, .L2735+8
	ldr	r3, [r5, r3]
	cmp	r3, #0
	beq	.L2710
	add	r3, r6, #28
	mcr	p15, 0, r0, c7, c10, 5
.L2725:
	ldrex	r2, [r3]
	sub	r1, r2, #1
	strex	r0, r1, [r3]
	cmp	r0, #0
	bne	.L2725
	cmp	r2, #1
	mcr	p15, 0, r0, c7, c10, 5
	beq	.L2733
.L2709:
	ldr	r0, [r4, #8]
	cmp	r0, #0
	beq	.L2721
	ldr	r3, .L2735+8
	ldr	r3, [r5, r3]
	cmp	r3, #0
	beq	.L2716
	add	r3, r0, #32
	mcr	p15, 0, r0, c7, c10, 5
.L2724:
	ldrex	r2, [r3]
	sub	r1, r2, #1
	strex	ip, r1, [r3]
	cmp	ip, #0
	bne	.L2724
	cmp	r2, #1
	mcr	p15, 0, r0, c7, c10, 5
	beq	.L2734
.L2721:
	mov	r0, r4
	pop	{r4, r5, r6, pc}
.L2704:
	ldr	r3, [r6, #28]
	cmp	r3, #1
	sub	r3, r3, #1
	str	r3, [r6, #28]
	bne	.L2703
	ldr	r3, [r6]
	mov	r0, r6
	ldr	r3, [r3, #8]
	blx	r3
	mcr	p15, 0, r0, c7, c10, 5
	ldr	r2, [r6, #32]
	sub	r3, r2, #1
	str	r3, [r6, #32]
	b	.L2719
.L2710:
	ldr	r3, [r6, #28]
	cmp	r3, #1
	sub	r3, r3, #1
	str	r3, [r6, #28]
	bne	.L2709
	ldr	r3, [r6]
	mov	r0, r6
	ldr	r3, [r3, #8]
	blx	r3
	mcr	p15, 0, r0, c7, c10, 5
	ldr	r2, [r6, #32]
	sub	r3, r2, #1
	str	r3, [r6, #32]
	b	.L2720
.L2716:
	ldr	r2, [r0, #32]
	sub	r3, r2, #1
	cmp	r2, #1
	str	r3, [r0, #32]
	bne	.L2721
.L2734:
	mcr	p15, 0, r0, c7, c10, 5
	ldr	r3, [r0]
	ldr	r3, [r3, #12]
	blx	r3
	mov	r0, r4
	pop	{r4, r5, r6, pc}
.L2732:
	ldr	r3, [r6]
	mov	r0, r6
	ldr	r3, [r3, #8]
	blx	r3
	add	r3, r6, #32
	mcr	p15, 0, r0, c7, c10, 5
	mcr	p15, 0, r0, c7, c10, 5
.L2723:
	ldrex	r2, [r3]
	sub	r1, r2, #1
	strex	r0, r1, [r3]
	cmp	r0, #0
	bne	.L2723
	mcr	p15, 0, r0, c7, c10, 5
.L2719:
	cmp	r2, #1
	bne	.L2703
	ldr	r3, [r6]
	mov	r0, r6
	ldr	r3, [r3, #12]
	blx	r3
	b	.L2703
.L2733:
	ldr	r3, [r6]
	mov	r0, r6
	ldr	r3, [r3, #8]
	blx	r3
	add	r3, r6, #32
	mcr	p15, 0, r0, c7, c10, 5
	mcr	p15, 0, r0, c7, c10, 5
.L2722:
	ldrex	r2, [r3]
	sub	r1, r2, #1
	strex	r0, r1, [r3]
	cmp	r0, #0
	bne	.L2722
	mcr	p15, 0, r0, c7, c10, 5
.L2720:
	cmp	r2, #1
	bne	.L2709
	ldr	r3, [r6]
	mov	r0, r6
	ldr	r3, [r3, #12]
	blx	r3
	b	.L2709
.L2736:
	.align	2
.L2735:
	.word	_GLOBAL_OFFSET_TABLE_-(.LPIC112+8)
	.word	_ZTVN7asiopal13IAsyncChannelE(GOT)
	.word	_ZL28__gthrw___pthread_key_createPjPFvPvE(GOT)
	.cantunwind
	.fnend
	.size	_ZN7asiopal13IAsyncChannelD2Ev, .-_ZN7asiopal13IAsyncChannelD2Ev
	.weak	_ZN7asiopal13IAsyncChannelD1Ev
	.set	_ZN7asiopal13IAsyncChannelD1Ev,_ZN7asiopal13IAsyncChannelD2Ev
	.section	.text._ZN7asiopal13IAsyncChannelD0Ev,"axG",%progbits,_ZN7asiopal13IAsyncChannelD5Ev,comdat
	.align	2
	.weak	_ZN7asiopal13IAsyncChannelD0Ev
	.syntax unified
	.arm
	.fpu vfp
	.type	_ZN7asiopal13IAsyncChannelD0Ev, %function
_ZN7asiopal13IAsyncChannelD0Ev:
	.fnstart
.LFB6734:
	@ args = 0, pretend = 0, frame = 0
	@ frame_needed = 0, uses_anonymous_args = 0
	push	{r4, r5, r6, lr}
	mov	r4, r0
	ldr	r5, .L2771
	ldr	r3, .L2771+4
.LPIC113:
	add	r5, pc, r5
	ldr	r6, [r0, #24]
	ldr	r3, [r5, r3]
	cmp	r6, #0
	add	r3, r3, #8
	str	r3, [r0]
	beq	.L2739
	ldr	r3, .L2771+8
	ldr	r3, [r5, r3]
	cmp	r3, #0
	beq	.L2740
	add	r3, r6, #28
	mcr	p15, 0, r0, c7, c10, 5
.L2762:
	ldrex	r2, [r3]
	sub	r1, r2, #1
	strex	r0, r1, [r3]
	cmp	r0, #0
	bne	.L2762
	cmp	r2, #1
	mcr	p15, 0, r0, c7, c10, 5
	beq	.L2768
.L2739:
	ldr	r6, [r4, #16]
	cmp	r6, #0
	beq	.L2745
	ldr	r3, .L2771+8
	ldr	r3, [r5, r3]
	cmp	r3, #0
	beq	.L2746
	add	r3, r6, #28
	mcr	p15, 0, r0, c7, c10, 5
.L2761:
	ldrex	r2, [r3]
	sub	r1, r2, #1
	strex	r0, r1, [r3]
	cmp	r0, #0
	bne	.L2761
	cmp	r2, #1
	mcr	p15, 0, r0, c7, c10, 5
	beq	.L2769
.L2745:
	ldr	r0, [r4, #8]
	cmp	r0, #0
	beq	.L2751
	ldr	r3, .L2771+8
	ldr	r3, [r5, r3]
	cmp	r3, #0
	beq	.L2752
	add	r3, r0, #32
	mcr	p15, 0, r0, c7, c10, 5
.L2760:
	ldrex	r2, [r3]
	sub	r1, r2, #1
	strex	ip, r1, [r3]
	cmp	ip, #0
	bne	.L2760
	cmp	r2, #1
	mcr	p15, 0, r0, c7, c10, 5
	beq	.L2770
.L2751:
	mov	r0, r4
	mov	r1, #32
	bl	_ZdlPvj(PLT)
	mov	r0, r4
	pop	{r4, r5, r6, pc}
.L2740:
	ldr	r3, [r6, #28]
	cmp	r3, #1
	sub	r3, r3, #1
	str	r3, [r6, #28]
	bne	.L2739
	ldr	r3, [r6]
	mov	r0, r6
	ldr	r3, [r3, #8]
	blx	r3
	mcr	p15, 0, r0, c7, c10, 5
	ldr	r2, [r6, #32]
	sub	r3, r2, #1
	str	r3, [r6, #32]
	b	.L2755
.L2746:
	ldr	r3, [r6, #28]
	cmp	r3, #1
	sub	r3, r3, #1
	str	r3, [r6, #28]
	bne	.L2745
	ldr	r3, [r6]
	mov	r0, r6
	ldr	r3, [r3, #8]
	blx	r3
	mcr	p15, 0, r0, c7, c10, 5
	ldr	r2, [r6, #32]
	sub	r3, r2, #1
	str	r3, [r6, #32]
	b	.L2756
.L2752:
	ldr	r2, [r0, #32]
	sub	r3, r2, #1
	cmp	r2, #1
	str	r3, [r0, #32]
	bne	.L2751
.L2770:
	mcr	p15, 0, r0, c7, c10, 5
	ldr	r3, [r0]
	ldr	r3, [r3, #12]
	blx	r3
	b	.L2751
.L2768:
	ldr	r3, [r6]
	mov	r0, r6
	ldr	r3, [r3, #8]
	blx	r3
	add	r3, r6, #32
	mcr	p15, 0, r0, c7, c10, 5
	mcr	p15, 0, r0, c7, c10, 5
.L2759:
	ldrex	r2, [r3]
	sub	r1, r2, #1
	strex	r0, r1, [r3]
	cmp	r0, #0
	bne	.L2759
	mcr	p15, 0, r0, c7, c10, 5
.L2755:
	cmp	r2, #1
	bne	.L2739
	ldr	r3, [r6]
	mov	r0, r6
	ldr	r3, [r3, #12]
	blx	r3
	b	.L2739
.L2769:
	ldr	r3, [r6]
	mov	r0, r6
	ldr	r3, [r3, #8]
	blx	r3
	add	r3, r6, #32
	mcr	p15, 0, r0, c7, c10, 5
	mcr	p15, 0, r0, c7, c10, 5
.L2758:
	ldrex	r2, [r3]
	sub	r1, r2, #1
	strex	r0, r1, [r3]
	cmp	r0, #0
	bne	.L2758
	mcr	p15, 0, r0, c7, c10, 5
.L2756:
	cmp	r2, #1
	bne	.L2745
	ldr	r3, [r6]
	mov	r0, r6
	ldr	r3, [r3, #12]
	blx	r3
	b	.L2745
.L2772:
	.align	2
.L2771:
	.word	_GLOBAL_OFFSET_TABLE_-(.LPIC113+8)
	.word	_ZTVN7asiopal13IAsyncChannelE(GOT)
	.word	_ZL28__gthrw___pthread_key_createPjPFvPvE(GOT)
	.cantunwind
	.fnend
	.size	_ZN7asiopal13IAsyncChannelD0Ev, .-_ZN7asiopal13IAsyncChannelD0Ev
	.text
	.align	2
	.global	_ZN7asiopal13SerialChannel4OpenERKNS_14SerialSettingsERSt10error_code
	.syntax unified
	.arm
	.fpu vfp
	.type	_ZN7asiopal13SerialChannel4OpenERKNS_14SerialSettingsERSt10error_code, %function
_ZN7asiopal13SerialChannel4OpenERKNS_14SerialSettingsERSt10error_code:
	.fnstart
.LFB6788:
	@ args = 0, pretend = 0, frame = 112
	@ frame_needed = 0, uses_anonymous_args = 0
	ldr	r3, [r0, #32]
	push	{r4, r5, r6, r7, r8, r9, r10, fp, lr}
	.save {r4, r5, r6, r7, r8, r9, r10, fp, lr}
	cmn	r3, #1
	ldr	r6, .L3119
	.pad #116
	sub	sp, sp, #116
	mov	r4, r2
.LPIC114:
	add	r6, pc, r6
	beq	.L2774
	ldr	r3, .L3119+4
	ldr	r5, [r6, r3]
	ldrb	r3, [r5]	@ zero_extendqisi2
	mcr	p15, 0, r0, c7, c10, 5
	tst	r3, #1
	beq	.L3090
.L3070:
	ldr	r3, .L3119+8
	ldr	r10, [r6, r3]
.L2776:
	mov	r3, #1
	mov	r0, #0
	stm	r4, {r3, r10}
.L3055:
	add	sp, sp, #116
	@ sp needed
	pop	{r4, r5, r6, r7, r8, r9, r10, fp, pc}
.L3090:
	mov	r0, r5
	bl	__cxa_guard_acquire(PLT)
	cmp	r0, #0
	beq	.L3070
	mov	r0, r5
	bl	__cxa_guard_release(PLT)
	ldr	r3, .L3119+8
	ldr	r1, .L3119+12
	ldr	r2, .L3119+16
	ldr	r10, [r6, r3]
.LPIC115:
	add	r2, pc, r2
	ldr	r1, [r6, r1]
	mov	r0, r10
	bl	__aeabi_atexit(PLT)
	b	.L2776
.L2774:
	mov	r9, r1
	mov	r5, r0
	bl	__errno_location(PLT)
	mov	r3, #0
	ldr	r2, [r5, #44]
	ldr	r1, .L3119+20
	str	r2, [sp, #16]
	mov	r7, r0
	ldr	r0, [r9]
	str	r3, [r7]
.LEHB44:
	bl	open(PLT)
	ldr	r3, .L3119+24
	ldr	r10, [r7]
	ldr	fp, [r6, r3]
	ldrb	r3, [fp]	@ zero_extendqisi2
	mcr	p15, 0, r0, c7, c10, 5
	tst	r3, #1
	mov	r8, r0
	beq	.L3091
.L3071:
	ldr	r3, .L3119+28
	ldr	r3, [r6, r3]
	str	r3, [sp, #4]
.L2780:
	cmp	r8, #0
	str	r10, [r4]
	str	r3, [r4, #4]
	blt	.L2782
	bl	_ZNSt3_V215system_categoryEv(PLT)
	mov	r3, #0
	str	r3, [r4]
	mov	r1, #3
	str	r0, [r4, #4]
	str	r0, [sp, #8]
	str	r3, [r7]
	mov	r0, r8
	bl	fcntl(PLT)
	ldr	r3, [r7]
	str	r3, [sp, #12]
	ldrb	r3, [fp]	@ zero_extendqisi2
	mcr	p15, 0, r0, c7, c10, 5
	tst	r3, #1
	mov	r10, r0
	beq	.L3092
.L2784:
	ldr	r3, [sp, #12]
	cmn	r10, #1
	str	r3, [r4]
	ldr	r3, [sp, #4]
	str	r3, [r4, #4]
	beq	.L2790
	ldr	r2, [sp, #8]
	mov	r3, #0
	cmp	r10, #0
	str	r2, [r4, #4]
	str	r3, [r4]
	blt	.L2790
	str	r3, [r7]
	orr	r2, r10, #2048
	mov	r1, #4
	mov	r0, r8
	bl	fcntl(PLT)
	ldr	r3, [r7]
	str	r3, [sp, #12]
	ldrb	r3, [fp]	@ zero_extendqisi2
	mcr	p15, 0, r0, c7, c10, 5
	tst	r3, #1
	mov	r10, r0
	beq	.L3093
.L2789:
	ldr	r3, [sp, #12]
	cmn	r10, #1
	str	r3, [r4]
	ldr	r3, [sp, #4]
	str	r3, [r4, #4]
	beq	.L2790
	ldr	r2, [sp, #8]
	mov	r3, #0
	cmp	r10, #0
	str	r2, [r4, #4]
	str	r3, [r4]
	blt	.L2790
	add	r10, sp, #48
	str	r3, [r7]
	mov	r1, r10
	mov	r0, r8
	bl	tcgetattr(PLT)
	ldr	r2, [r7]
	str	r2, [sp, #12]
	ldrb	r2, [fp]	@ zero_extendqisi2
	mcr	p15, 0, r0, c7, c10, 5
	tst	r2, #1
	mov	r3, r0
	beq	.L3094
.L2805:
	cmp	r3, #0
	ldr	r3, [sp, #12]
	str	r3, [r4]
	ldr	r3, [sp, #4]
	str	r3, [r4, #4]
	blt	.L2807
	ldr	r1, [sp, #60]
	ldr	r3, [sp, #48]
	ldr	r0, [sp, #56]
	bic	r1, r1, #32768
	ldr	ip, [sp, #52]
	bic	r1, r1, #75
	bic	r3, r3, #1504
	bic	r0, r0, #304
	orr	r0, r0, #2224
	str	r1, [sp, #60]
	bic	r3, r3, #11
	mov	r1, #0
	orr	r3, r3, #4
	mov	r2, r10
	bic	ip, ip, #1
	str	r0, [sp, #56]
	str	r1, [r7]
	mov	r0, r8
	str	r3, [sp, #48]
	str	ip, [sp, #52]
	bl	tcsetattr(PLT)
	ldr	r10, [r7]
	str	r0, [sp, #12]
	ldrb	r3, [fp]	@ zero_extendqisi2
	mcr	p15, 0, r0, c7, c10, 5
	tst	r3, #1
	beq	.L3095
.L2809:
	ldr	r3, [sp, #12]
	str	r10, [r4]
	cmp	r3, #0
	ldr	r3, [sp, #4]
	str	r3, [r4, #4]
	blt	.L2807
	ldr	r3, [r5, #32]
	cmn	r3, #1
	beq	.L2824
	ldr	r3, .L3119+4
	ldr	r10, [r6, r3]
	ldrb	r3, [r10]	@ zero_extendqisi2
	mcr	p15, 0, r0, c7, c10, 5
	tst	r3, #1
	beq	.L3096
.L3072:
	ldr	r3, .L3119+8
	ldr	r10, [r6, r3]
.L2826:
	mov	r3, #1
	stm	r4, {r3, r10}
.L2828:
	mov	r3, #0
	str	r3, [r7]
	mov	r0, r8
	bl	close(PLT)
	ldr	r3, [r7]
	str	r3, [sp, #8]
	ldrb	r3, [fp]	@ zero_extendqisi2
	mcr	p15, 0, r0, c7, c10, 5
	tst	r3, #1
	mov	r10, r0
	beq	.L3097
.L2846:
	cmp	r10, #0
	bne	.L3098
.L2854:
	ldr	r10, [r4]
.L2782:
	cmp	r10, #0
	bne	.L2926
.L2844:
	mov	r0, r9
	mov	r2, r4
	add	r1, r5, #32
	bl	_ZN7asiopal9ConfigureERKNS_14SerialSettingsERN4asio17basic_serial_portINS3_19serial_port_serviceEEERSt10error_code(PLT)
	ldr	r3, [r4]
	cmp	r3, #0
	moveq	r0, #1
	beq	.L3055
	mov	r3, #0
	str	r3, [sp, #32]
	bl	_ZNSt3_V215system_categoryEv(PLT)
	ldr	r4, [r5, #32]
	cmn	r4, #1
	str	r0, [sp, #36]
	beq	.L2857
	ldr	r3, [r5, #40]
	cmp	r3, #0
	beq	.L2858
	ldr	r2, [r5, #44]
	add	r3, r3, #20
	str	r3, [sp, #28]
	mov	r0, r3
	ldr	r3, [r2, #20]
	ldrb	r7, [r5, #36]	@ zero_extendqisi2
	str	r3, [sp, #24]
	bl	pthread_mutex_lock(PLT)
	ldr	r2, [r5, #40]
	ldrb	r0, [r2, #80]	@ zero_extendqisi2
	cmp	r0, #0
	bne	.L2859
	tst	r7, #4
	bne	.L3099
.L2860:
	mov	r7, #0
	ldr	r3, .L3119+32
	ldr	r10, [sp, #4]
	mov	r8, r7
	mov	r9, #56
.LPIC137:
	add	r3, pc, r3
	str	r3, [sp, #20]
	str	r7, [sp, #12]
	str	r7, [sp, #8]
	str	r6, [sp, #16]
.L2870:
	ldr	r4, [r2, r9]
	cmp	r4, #0
	ldrne	r3, [sp, #8]
	lslne	r6, r3, #3
	bne	.L2863
	b	.L2861
.L2865:
	ldr	r2, [r5, #40]
	mov	r3, #125
	add	r0, r2, r6
	str	r3, [r4, #12]
	ldr	r1, [r0, #56]
	str	r10, [r4, #16]
	cmp	r1, #0
	beq	.L2867
	ldr	ip, [r1]
	cmp	ip, #0
	str	ip, [r0, #56]
	streq	ip, [r0, #60]
	str	r8, [r1]
.L2867:
	cmp	r7, #0
	str	r8, [r4]
	strne	r4, [r7]
	beq	.L3100
.L2869:
	ldr	r1, [r2, r9]
	mov	r7, r4
	cmp	r1, #0
	beq	.L2861
	mov	r4, r1
.L2863:
	ldrb	r2, [fp]	@ zero_extendqisi2
	mcr	p15, 0, r0, c7, c10, 5
	tst	r2, #1
	bne	.L2865
	mov	r0, fp
	bl	__cxa_guard_acquire(PLT)
	cmp	r0, #0
	beq	.L2865
	mov	r0, fp
	bl	__cxa_guard_release(PLT)
	ldr	r3, [sp, #16]
	ldr	r1, .L3119+36
	ldr	r2, [sp, #20]
	mov	r0, r10
	ldr	r1, [r3, r1]
	bl	__aeabi_atexit(PLT)
	b	.L2865
.L3092:
	mov	r0, fp
	bl	__cxa_guard_acquire(PLT)
	cmp	r0, #0
	beq	.L2784
	mov	r0, fp
	bl	__cxa_guard_release(PLT)
	ldr	r3, .L3119+36
	ldr	r2, .L3119+40
	ldr	r0, [sp, #4]
.LPIC117:
	add	r2, pc, r2
	ldr	r1, [r6, r3]
	bl	__aeabi_atexit(PLT)
	b	.L2784
.L2790:
	mov	r3, #0
	str	r3, [r7]
	mov	r0, r8
	bl	close(PLT)
	ldr	r3, [r7]
	str	r3, [sp, #8]
	ldrb	r3, [fp]	@ zero_extendqisi2
	mcr	p15, 0, r0, c7, c10, 5
	tst	r3, #1
	mov	r10, r0
	beq	.L3101
.L2792:
	cmp	r10, #0
	beq	.L2854
	ldrb	r3, [fp]	@ zero_extendqisi2
	mcr	p15, 0, r0, c7, c10, 5
	tst	r3, #1
	beq	.L3102
.L2796:
	ldr	r3, [sp, #8]
	cmp	r3, #11
	beq	.L3103
	ldrb	r3, [fp]	@ zero_extendqisi2
	mcr	p15, 0, r0, c7, c10, 5
	tst	r3, #1
	bne	.L2854
	mov	r0, fp
	bl	__cxa_guard_acquire(PLT)
	cmp	r0, #0
	beq	.L2854
	mov	r0, fp
	bl	__cxa_guard_release(PLT)
	ldr	r3, .L3119+36
	ldr	r2, .L3119+44
	ldr	r0, [sp, #4]
.LPIC121:
	add	r2, pc, r2
	ldr	r1, [r6, r3]
	bl	__aeabi_atexit(PLT)
	b	.L2854
.L2859:
	ldr	r0, [sp, #28]
	bl	pthread_mutex_unlock(PLT)
.L3073:
	ldr	r4, [r5, #32]
	cmn	r4, #1
	beq	.L2857
.L2858:
	bl	__errno_location(PLT)
	mov	r3, #0
	str	r3, [r0]
	mov	r7, r0
	mov	r0, r4
	bl	close(PLT)
	ldr	r8, [r7]
	ldrb	r3, [fp]	@ zero_extendqisi2
	mcr	p15, 0, r0, c7, c10, 5
	tst	r3, #1
	mov	r9, r0
	bne	.L2891
	mov	r0, fp
	bl	__cxa_guard_acquire(PLT)
	cmp	r0, #0
	beq	.L2891
	mov	r0, fp
	bl	__cxa_guard_release(PLT)
	ldr	r3, .L3119+36
	ldr	r2, .L3119+48
	ldr	r0, [sp, #4]
.LPIC138:
	add	r2, pc, r2
	ldr	r1, [r6, r3]
	bl	__aeabi_atexit(PLT)
.L2891:
	ldr	r3, [sp, #4]
	cmp	r9, #0
	str	r8, [sp, #32]
	str	r3, [sp, #36]
	bne	.L3104
.L2857:
	mvn	r2, #0
	mov	r3, #0
	str	r2, [r5, #32]
	strb	r3, [r5, #36]
.L2926:
	mov	r0, #0
	add	sp, sp, #116
	@ sp needed
	pop	{r4, r5, r6, r7, r8, r9, r10, fp, pc}
.L3091:
	mov	r0, fp
	bl	__cxa_guard_acquire(PLT)
	cmp	r0, #0
	beq	.L3071
	mov	r0, fp
	bl	__cxa_guard_release(PLT)
	ldr	r3, .L3119+28
	ldr	r1, .L3119+36
	ldr	r2, .L3119+52
	ldr	r3, [r6, r3]
	ldr	r1, [r6, r1]
	mov	r0, r3
.LPIC116:
	add	r2, pc, r2
	str	r3, [sp, #4]
	bl	__aeabi_atexit(PLT)
	ldr	r3, [sp, #4]
	b	.L2780
.L2807:
	mov	r3, #0
	str	r3, [r7]
	mov	r0, r8
	bl	close(PLT)
	ldr	r3, [r7]
	str	r3, [sp, #8]
	ldrb	r3, [fp]	@ zero_extendqisi2
	mcr	p15, 0, r0, c7, c10, 5
	tst	r3, #1
	mov	r10, r0
	beq	.L3105
.L2812:
	cmp	r10, #0
	beq	.L2854
	ldrb	r3, [fp]	@ zero_extendqisi2
	mcr	p15, 0, r0, c7, c10, 5
	tst	r3, #1
	beq	.L3106
.L2816:
	ldr	r3, [sp, #8]
	cmp	r3, #11
	beq	.L3107
	ldrb	r3, [fp]	@ zero_extendqisi2
	mcr	p15, 0, r0, c7, c10, 5
	tst	r3, #1
	bne	.L2854
	mov	r0, fp
	bl	__cxa_guard_acquire(PLT)
	cmp	r0, #0
	beq	.L2854
	mov	r0, fp
	bl	__cxa_guard_release(PLT)
	ldr	r3, .L3119+36
	ldr	r2, .L3119+56
	ldr	r0, [sp, #4]
.LPIC127:
	add	r2, pc, r2
	ldr	r1, [r6, r3]
	bl	__aeabi_atexit(PLT)
	b	.L2854
.L3094:
	str	r0, [sp, #20]
	mov	r0, fp
	bl	__cxa_guard_acquire(PLT)
	ldr	r3, [sp, #20]
	cmp	r0, #0
	beq	.L2805
	mov	r0, fp
	bl	__cxa_guard_release(PLT)
	ldr	r1, .L3119+36
	ldr	r2, .L3119+60
	ldr	r0, [sp, #4]
.LPIC123:
	add	r2, pc, r2
	ldr	r1, [r6, r1]
	bl	__aeabi_atexit(PLT)
	ldr	r3, [sp, #20]
	b	.L2805
.L2824:
	ldr	r3, [sp, #16]
	ldr	r10, [r3, #20]
	add	r3, r10, #72
	mov	r0, r3
	str	r3, [sp, #16]
	bl	pthread_mutex_lock(PLT)
	ldr	r3, [r10, #100]
	cmp	r3, #0
	beq	.L2829
	ldr	r2, [r3, #12]
	add	r1, r3, #20
	str	r1, [sp, #12]
	str	r2, [r10, #100]
.L2830:
	ldr	r1, [r10, #96]
	mov	r2, #0
	str	r1, [r3, #12]
	str	r2, [r3, #16]
	ldr	r2, [r10, #96]
	ldr	r0, [sp, #16]
	cmp	r2, #0
	strne	r3, [r2, #16]
	str	r3, [r10, #96]
	str	r3, [sp, #20]
	bl	pthread_mutex_unlock(PLT)
	ldr	r3, [sp, #20]
	ldr	r0, [sp, #12]
	str	r3, [r5, #40]
	bl	pthread_mutex_lock(PLT)
	ldr	r3, [r5, #40]
	mov	r2, #0
	ldr	r0, [sp, #12]
	strb	r2, [r3, #80]
	str	r10, [r3, #44]
	str	r8, [r3, #48]
	str	r2, [sp, #12]
	bl	pthread_mutex_unlock(PLT)
	ldr	r1, [r5, #40]
	ldr	r2, [sp, #12]
	add	r3, sp, #32
	mov	r0, #-2147483621
	str	r0, [sp, #32]
	str	r2, [r3, #4]
	str	r2, [r3, #12]
	str	r0, [r1, #52]
	mov	r2, r8
	str	r1, [sp, #40]
	mov	r1, #1
	ldr	r0, [r10, #56]
	bl	epoll_ctl(PLT)
	cmp	r0, #0
	beq	.L2840
	ldr	r10, [r7]
	cmp	r10, #0
	bne	.L3108
.L2840:
	mov	r2, #4
	strb	r2, [r5, #36]
	ldr	r2, [sp, #8]
	mov	r3, #0
	str	r8, [r5, #32]
	str	r2, [r4, #4]
	str	r3, [r4]
	b	.L2844
.L3104:
	ldrb	r3, [fp]	@ zero_extendqisi2
	mcr	p15, 0, r0, c7, c10, 5
	tst	r3, #1
	beq	.L3109
.L2894:
	ldr	r3, [sp, #36]
	ldr	r2, [sp, #4]
	cmp	r3, r2
	beq	.L3110
.L2896:
	ldrb	r3, [fp]	@ zero_extendqisi2
	mcr	p15, 0, r0, c7, c10, 5
	tst	r3, #1
	beq	.L3111
.L2899:
	ldr	r3, [sp, #36]
	ldr	r2, [sp, #4]
	cmp	r3, r2
	ldr	r3, [sp, #32]
	beq	.L3112
.L2900:
	cmp	r3, #0
	mvn	r2, #0
	mov	r3, #0
	str	r2, [r5, #32]
	strb	r3, [r5, #36]
	beq	.L2926
	ldr	r1, .L3119+64
	add	r0, sp, #32
.LPIC142:
	add	r1, pc, r1
	bl	_ZN4asio6detail14do_throw_errorERKSt10error_codePKc(PLT)
.L3098:
	ldrb	r3, [fp]	@ zero_extendqisi2
	mcr	p15, 0, r0, c7, c10, 5
	tst	r3, #1
	beq	.L3113
.L2849:
	ldr	r3, [sp, #8]
	cmp	r3, #11
	beq	.L3114
	ldrb	r3, [fp]	@ zero_extendqisi2
	mcr	p15, 0, r0, c7, c10, 5
	tst	r3, #1
	bne	.L2854
	mov	r0, fp
	bl	__cxa_guard_acquire(PLT)
	cmp	r0, #0
	beq	.L2854
	mov	r0, fp
	bl	__cxa_guard_release(PLT)
	ldr	r3, .L3119+36
	ldr	r2, .L3119+68
	ldr	r0, [sp, #4]
.LPIC135:
	add	r2, pc, r2
	ldr	r1, [r6, r3]
	bl	__aeabi_atexit(PLT)
	b	.L2854
.L3100:
	str	r4, [sp, #12]
	b	.L2869
.L2861:
	ldr	r3, [sp, #8]
	add	r9, r9, #8
	add	r3, r3, #1
	cmp	r3, #3
	str	r3, [sp, #8]
	bne	.L2870
	ldr	r9, [sp, #24]
	mvn	r1, #0
	mov	r3, #1
	str	r1, [r2, #48]
	strb	r3, [r2, #80]
	add	r4, r9, #72
	ldr	r0, [sp, #28]
	ldr	r6, [sp, #16]
	bl	pthread_mutex_unlock(PLT)
	mov	r0, r4
	ldr	r8, [r5, #40]
	bl	pthread_mutex_lock(PLT)
	ldr	r3, [r9, #96]
	mov	r9, #0
	cmp	r8, r3
	mov	r0, r4
	ldreq	r2, [sp, #24]
	ldreq	r3, [r8, #12]
	streq	r3, [r2, #96]
	ldr	r3, [r8, #16]
	cmp	r3, #0
	ldrne	r2, [r8, #12]
	strne	r2, [r3, #12]
	ldr	r3, [r8, #12]
	cmp	r3, #0
	ldrne	r2, [r8, #16]
	strne	r2, [r3, #16]
	ldr	r2, [sp, #24]
	mov	r4, r2
	ldr	r3, [r2, #100]
	str	r9, [r8, #16]
	str	r3, [r8, #12]
	str	r8, [r2, #100]
	bl	pthread_mutex_unlock(PLT)
	ldr	r3, [sp, #12]
	str	r9, [r5, #40]
	cmp	r3, r9
	ldr	r4, [r4, #20]
	beq	.L3073
	ldrb	r3, [r4, #20]	@ zero_extendqisi2
	cmp	r3, r9
	beq	.L2875
	ldr	r3, .L3119+72
	ldr	r3, [r6, r3]
	ldr	r0, [r3]
	bl	pthread_getspecific(PLT)
	cmp	r0, #0
	beq	.L2875
	ldr	r3, [r0]
	cmp	r3, r4
	bne	.L2878
	b	.L2876
.L3064:
	ldr	r3, [r0]
	cmp	r4, r3
	beq	.L2876
.L2878:
	ldr	r0, [r0, #8]
	cmp	r0, #0
	bne	.L3064
.L2875:
	add	r8, r4, #24
	mov	r0, r8
	bl	pthread_mutex_lock(PLT)
	ldr	r3, [r4, #132]
	cmp	r3, #0
	ldreq	r3, [sp, #12]
	ldrne	r2, [sp, #12]
	streq	r3, [r4, #128]
	strne	r2, [r3]
	ldr	r3, [r4, #96]
	str	r7, [r4, #132]
	orr	r3, r3, #1
	cmp	r3, #1
	str	r3, [r4, #96]
	add	r7, r4, #48
	beq	.L2886
	mov	r0, r8
	bl	pthread_mutex_unlock(PLT)
	mov	r0, r7
	bl	pthread_cond_signal(PLT)
	b	.L3073
.L3093:
	mov	r0, fp
	bl	__cxa_guard_acquire(PLT)
	cmp	r0, #0
	beq	.L2789
	mov	r0, fp
	bl	__cxa_guard_release(PLT)
	ldr	r3, .L3119+36
	ldr	r2, .L3119+76
	ldr	r0, [sp, #4]
.LPIC118:
	add	r2, pc, r2
	ldr	r1, [r6, r3]
	bl	__aeabi_atexit(PLT)
	b	.L2789
.L3095:
	mov	r0, fp
	bl	__cxa_guard_acquire(PLT)
	cmp	r0, #0
	beq	.L2809
	mov	r0, fp
	bl	__cxa_guard_release(PLT)
	ldr	r3, .L3119+36
	ldr	r2, .L3119+80
	ldr	r0, [sp, #4]
.LPIC124:
	add	r2, pc, r2
	ldr	r1, [r6, r3]
	bl	__aeabi_atexit(PLT)
	b	.L2809
.L3096:
	mov	r0, r10
	bl	__cxa_guard_acquire(PLT)
	cmp	r0, #0
	beq	.L3072
	mov	r0, r10
	bl	__cxa_guard_release(PLT)
	ldr	r3, .L3119+8
	ldr	r1, .L3119+12
	ldr	r2, .L3119+84
	ldr	r10, [r6, r3]
.LPIC129:
	add	r2, pc, r2
	ldr	r1, [r6, r1]
	mov	r0, r10
	bl	__aeabi_atexit(PLT)
	b	.L2826
.L3108:
	ldrb	r3, [fp]	@ zero_extendqisi2
	mcr	p15, 0, r0, c7, c10, 5
	tst	r3, #1
	beq	.L3115
.L2842:
	ldr	r3, [sp, #4]
	str	r10, [r4]
	str	r3, [r4, #4]
	b	.L2828
.L2886:
	ldrb	r2, [r4, #120]	@ zero_extendqisi2
	cmp	r2, #0
	bne	.L2888
	ldr	r0, [r4, #104]
	cmp	r0, #0
	beq	.L2888
	strb	r3, [r4, #120]
	add	r3, sp, #48
	add	r1, r0, #48
	mov	ip, #-2147483639
	str	r1, [sp, #56]
	str	r2, [r3, #4]
	str	r2, [r3, #12]
	str	ip, [sp, #48]
	mov	r1, #3
	ldr	r2, [r0, #48]
	ldr	r0, [r0, #56]
	bl	epoll_ctl(PLT)
.L2888:
	mov	r0, r8
	bl	pthread_mutex_unlock(PLT)
	b	.L3073
.L3099:
	str	r0, [sp, #48]
	str	r0, [sp, #52]
	str	r0, [sp, #56]
	str	r0, [sp, #60]
	ldr	r0, [sp, #24]
	add	ip, sp, #48
	mov	r2, r4
	mov	r3, ip
	mov	r1, #2
	ldr	r0, [r0, #56]
	bl	epoll_ctl(PLT)
	ldr	r2, [r5, #40]
	b	.L2860
.L3101:
	mov	r0, fp
	bl	__cxa_guard_acquire(PLT)
	cmp	r0, #0
	beq	.L2792
	mov	r0, fp
	bl	__cxa_guard_release(PLT)
	ldr	r3, .L3119+36
	ldr	r2, .L3119+88
	ldr	r0, [sp, #4]
.LPIC119:
	add	r2, pc, r2
	ldr	r1, [r6, r3]
	bl	__aeabi_atexit(PLT)
	b	.L2792
.L3097:
	mov	r0, fp
	bl	__cxa_guard_acquire(PLT)
	cmp	r0, #0
	beq	.L2846
	mov	r0, fp
	bl	__cxa_guard_release(PLT)
	ldr	r3, .L3119+36
	ldr	r2, .L3119+92
	ldr	r0, [sp, #4]
.LPIC133:
	add	r2, pc, r2
	ldr	r1, [r6, r3]
	bl	__aeabi_atexit(PLT)
	b	.L2846
.L3109:
	mov	r0, fp
	bl	__cxa_guard_acquire(PLT)
	cmp	r0, #0
	beq	.L2894
	mov	r0, fp
	bl	__cxa_guard_release(PLT)
	ldr	r3, .L3119+36
	ldr	r2, .L3119+96
	ldr	r0, [sp, #4]
.LPIC139:
	add	r2, pc, r2
	ldr	r1, [r6, r3]
	bl	__aeabi_atexit(PLT)
	b	.L2894
.L3105:
	mov	r0, fp
	bl	__cxa_guard_acquire(PLT)
	cmp	r0, #0
	beq	.L2812
	mov	r0, fp
	bl	__cxa_guard_release(PLT)
	ldr	r3, .L3119+36
	ldr	r2, .L3119+100
	ldr	r0, [sp, #4]
.LPIC125:
	add	r2, pc, r2
	ldr	r1, [r6, r3]
	bl	__aeabi_atexit(PLT)
	b	.L2812
.L2876:
	ldr	r3, [r0, #4]
	cmp	r3, #0
	beq	.L2875
	ldr	r2, [r3, #8]
	cmp	r2, #0
	ldrne	r1, [sp, #12]
	ldreq	r2, [sp, #12]
	strne	r1, [r2]
	streq	r2, [r3, #4]
	str	r7, [r3, #8]
	b	.L3073
.L3103:
	add	r2, sp, #112
	mov	r10, #0
	str	r10, [r2, #-64]!
	ldr	r1, .L3119+104
	mov	r0, r8
	bl	ioctl(PLT)
	str	r10, [r7]
	mov	r0, r8
	bl	close(PLT)
	ldrb	r3, [fp]	@ zero_extendqisi2
	mcr	p15, 0, r0, c7, c10, 5
	tst	r3, #1
	bne	.L2854
	mov	r0, fp
	bl	__cxa_guard_acquire(PLT)
	cmp	r0, #0
	beq	.L2854
	mov	r0, fp
	bl	__cxa_guard_release(PLT)
	ldr	r3, .L3119+36
	ldr	r2, .L3119+108
	ldr	r0, [sp, #4]
.LPIC122:
	add	r2, pc, r2
	ldr	r1, [r6, r3]
	bl	__aeabi_atexit(PLT)
	b	.L2854
.L3114:
	add	r2, sp, #112
	mov	r10, #0
	str	r10, [r2, #-80]!
	ldr	r1, .L3119+104
	mov	r0, r8
	bl	ioctl(PLT)
	str	r10, [r7]
	mov	r0, r8
	bl	close(PLT)
	ldrb	r3, [fp]	@ zero_extendqisi2
	mcr	p15, 0, r0, c7, c10, 5
	tst	r3, #1
	bne	.L2854
	mov	r0, fp
	bl	__cxa_guard_acquire(PLT)
	cmp	r0, #0
	beq	.L2854
	mov	r0, fp
	bl	__cxa_guard_release(PLT)
	ldr	r3, .L3119+36
	ldr	r2, .L3119+112
	ldr	r0, [sp, #4]
.LPIC136:
	add	r2, pc, r2
	ldr	r1, [r6, r3]
	bl	__aeabi_atexit(PLT)
	b	.L2854
.L3107:
	add	r2, sp, #112
	mov	r10, #0
	str	r10, [r2, #-80]!
	ldr	r1, .L3119+104
	mov	r0, r8
	bl	ioctl(PLT)
	str	r10, [r7]
	mov	r0, r8
	bl	close(PLT)
.LEHE44:
	ldrb	r3, [fp]	@ zero_extendqisi2
	mcr	p15, 0, r0, c7, c10, 5
	tst	r3, #1
	bne	.L2854
	mov	r0, fp
	bl	__cxa_guard_acquire(PLT)
	cmp	r0, #0
	beq	.L2854
	mov	r0, fp
	bl	__cxa_guard_release(PLT)
	ldr	r3, .L3119+36
	ldr	r2, .L3119+116
	ldr	r0, [sp, #4]
.LPIC128:
	add	r2, pc, r2
	ldr	r1, [r6, r3]
	bl	__aeabi_atexit(PLT)
	b	.L2854
.L3115:
	mov	r0, fp
	bl	__cxa_guard_acquire(PLT)
	cmp	r0, #0
	beq	.L2842
	mov	r0, fp
	bl	__cxa_guard_release(PLT)
	ldr	r3, .L3119+36
	ldr	r2, .L3119+120
	ldr	r0, [sp, #4]
.LPIC132:
	add	r2, pc, r2
	ldr	r1, [r6, r3]
	bl	__aeabi_atexit(PLT)
	b	.L2842
.L2829:
	mov	r0, #84
.LEHB45:
	bl	_Znwj(PLT)
.LEHE45:
	ldr	r2, .L3119+124
	mov	r3, #0
	add	r1, r0, #20
	str	r3, [r0]
	str	r0, [sp, #12]
	str	r1, [sp, #20]
	ldr	r2, [r6, r2]
	mov	ip, r0
	mov	r0, r1
	stmib	ip, {r2, r3}
	mov	r1, r3
	bl	pthread_mutex_init(PLT)
	ldrb	r2, [fp]	@ zero_extendqisi2
	mcr	p15, 0, r0, c7, c10, 5
	tst	r2, #1
	mov	r3, r0
	beq	.L3116
.L2832:
	ldr	r2, [sp, #4]
	cmp	r3, #0
	str	r3, [sp, #32]
	str	r2, [sp, #36]
	bne	.L3117
	ldr	r2, [sp, #12]
	str	r3, [r2, #56]
	str	r3, [r2, #60]
	str	r3, [r2, #64]
	str	r3, [r2, #68]
	str	r3, [r2, #72]
	str	r3, [r2, #76]
	ldr	r3, [sp, #20]
	str	r3, [sp, #12]
	mov	r3, r2
	b	.L2830
.L3110:
	ldr	r3, [sp, #32]
	cmp	r3, #11
	bne	.L2896
.L2897:
	add	r2, sp, #112
	mov	r8, #0
	str	r8, [r2, #-64]!
	ldr	r1, .L3119+104
	mov	r0, r4
	bl	ioctl(PLT)
	ldrb	r3, [r5, #36]	@ zero_extendqisi2
	mov	r0, r4
	bic	r3, r3, #3
	strb	r3, [r5, #36]
	str	r8, [r7]
.LEHB46:
	bl	close(PLT)
	ldr	r4, [r7]
	ldrb	r3, [fp]	@ zero_extendqisi2
	mcr	p15, 0, r0, c7, c10, 5
	tst	r3, #1
	mov	r8, r0
	beq	.L3118
.L2902:
	ldr	r3, [sp, #4]
	cmp	r8, #0
	str	r4, [sp, #32]
	str	r3, [sp, #36]
	beq	.L2857
	mov	r3, r4
	b	.L2900
.L3118:
	mov	r0, fp
	bl	__cxa_guard_acquire(PLT)
	cmp	r0, #0
	beq	.L2902
	mov	r0, fp
	bl	__cxa_guard_release(PLT)
	ldr	r3, .L3119+36
	ldr	r2, .L3119+128
	ldr	r0, [sp, #4]
.LPIC141:
	add	r2, pc, r2
	ldr	r1, [r6, r3]
	bl	__aeabi_atexit(PLT)
	b	.L2902
.L3102:
	mov	r0, fp
	bl	__cxa_guard_acquire(PLT)
	cmp	r0, #0
	beq	.L2796
	mov	r0, fp
	bl	__cxa_guard_release(PLT)
	ldr	r3, .L3119+36
	ldr	r2, .L3119+132
	ldr	r0, [sp, #4]
.LPIC120:
	add	r2, pc, r2
	ldr	r1, [r6, r3]
	bl	__aeabi_atexit(PLT)
	b	.L2796
.L3113:
	mov	r0, fp
	bl	__cxa_guard_acquire(PLT)
	cmp	r0, #0
	beq	.L2849
	mov	r0, fp
	bl	__cxa_guard_release(PLT)
	ldr	r3, .L3119+36
	ldr	r2, .L3119+136
	ldr	r0, [sp, #4]
.LPIC134:
	add	r2, pc, r2
	ldr	r1, [r6, r3]
	bl	__aeabi_atexit(PLT)
	b	.L2849
.L3111:
	mov	r0, fp
	bl	__cxa_guard_acquire(PLT)
	cmp	r0, #0
	beq	.L2899
	mov	r0, fp
	bl	__cxa_guard_release(PLT)
	ldr	r3, .L3119+36
	ldr	r2, .L3119+140
	ldr	r0, [sp, #4]
.LPIC140:
	add	r2, pc, r2
	ldr	r1, [r6, r3]
	bl	__aeabi_atexit(PLT)
	b	.L2899
.L3106:
	mov	r0, fp
	bl	__cxa_guard_acquire(PLT)
	cmp	r0, #0
	beq	.L2816
	mov	r0, fp
	bl	__cxa_guard_release(PLT)
	ldr	r3, .L3119+36
	ldr	r2, .L3119+144
	ldr	r0, [sp, #4]
.LPIC126:
	add	r2, pc, r2
	ldr	r1, [r6, r3]
	bl	__aeabi_atexit(PLT)
	b	.L2816
.L3116:
	str	r0, [sp, #24]
	mov	r0, fp
	bl	__cxa_guard_acquire(PLT)
	ldr	r3, [sp, #24]
	cmp	r0, #0
	beq	.L2832
	mov	r0, fp
	bl	__cxa_guard_release(PLT)
	ldr	r1, .L3119+36
	ldr	r2, .L3119+148
	ldr	r0, [sp, #4]
.LPIC130:
	add	r2, pc, r2
	ldr	r1, [r6, r1]
	bl	__aeabi_atexit(PLT)
	ldr	r3, [sp, #24]
	b	.L2832
.L3112:
	cmp	r3, #11
	bne	.L2900
	b	.L2897
.L3120:
	.align	2
.L3119:
	.word	_GLOBAL_OFFSET_TABLE_-(.LPIC114+8)
	.word	_ZGVZN4asio5error17get_misc_categoryEvE8instance(GOT)
	.word	_ZZN4asio5error17get_misc_categoryEvE8instance(GOT)
	.word	_ZN4asio5error6detail13misc_categoryD1Ev(GOT)
	.word	__dso_handle-(.LPIC115+8)
	.word	2306
	.word	_ZGVZN4asio15system_categoryEvE8instance(GOT)
	.word	_ZZN4asio15system_categoryEvE8instance(GOT)
	.word	__dso_handle-(.LPIC137+8)
	.word	_ZN4asio6detail15system_categoryD1Ev(GOT)
	.word	__dso_handle-(.LPIC117+8)
	.word	__dso_handle-(.LPIC121+8)
	.word	__dso_handle-(.LPIC138+8)
	.word	__dso_handle-(.LPIC116+8)
	.word	__dso_handle-(.LPIC127+8)
	.word	__dso_handle-(.LPIC123+8)
	.word	.LC25-(.LPIC142+8)
	.word	__dso_handle-(.LPIC135+8)
	.word	_ZN4asio6detail10call_stackINS0_15task_io_serviceENS0_27task_io_service_thread_infoEE4top_E(GOT)
	.word	__dso_handle-(.LPIC118+8)
	.word	__dso_handle-(.LPIC124+8)
	.word	__dso_handle-(.LPIC129+8)
	.word	__dso_handle-(.LPIC119+8)
	.word	__dso_handle-(.LPIC133+8)
	.word	__dso_handle-(.LPIC139+8)
	.word	__dso_handle-(.LPIC125+8)
	.word	21537
	.word	__dso_handle-(.LPIC122+8)
	.word	__dso_handle-(.LPIC136+8)
	.word	__dso_handle-(.LPIC128+8)
	.word	__dso_handle-(.LPIC132+8)
	.word	_ZN4asio6detail13epoll_reactor16descriptor_state11do_completeEPNS0_15task_io_serviceEPNS0_25task_io_service_operationERKSt10error_codej(GOT)
	.word	__dso_handle-(.LPIC141+8)
	.word	__dso_handle-(.LPIC120+8)
	.word	__dso_handle-(.LPIC134+8)
	.word	__dso_handle-(.LPIC140+8)
	.word	__dso_handle-(.LPIC126+8)
	.word	__dso_handle-(.LPIC130+8)
	.word	.LC24-(.LPIC131+8)
.L2930:
.L2836:
	ldr	r0, [sp, #16]
	bl	pthread_mutex_unlock(PLT)
	bl	__cxa_end_cleanup(PLT)
.LEHE46:
.L3117:
	ldr	r1, .L3119+152
	add	r0, sp, #32
.LPIC131:
	add	r1, pc, r1
.LEHB47:
	bl	_ZN4asio6detail14do_throw_errorERKSt10error_codePKc(PLT)
.LEHE47:
.L2931:
	ldr	r0, [sp, #12]
	mov	r1, #84
	bl	_ZdlPvj(PLT)
	b	.L2836
	.personality	__gxx_personality_v0
	.handlerdata
.LLSDA6788:
	.byte	0xff
	.byte	0xff
	.byte	0x1
	.uleb128 .LLSDACSE6788-.LLSDACSB6788
.LLSDACSB6788:
	.uleb128 .LEHB44-.LFB6788
	.uleb128 .LEHE44-.LEHB44
	.uleb128 0
	.uleb128 0
	.uleb128 .LEHB45-.LFB6788
	.uleb128 .LEHE45-.LEHB45
	.uleb128 .L2930-.LFB6788
	.uleb128 0
	.uleb128 .LEHB46-.LFB6788
	.uleb128 .LEHE46-.LEHB46
	.uleb128 0
	.uleb128 0
	.uleb128 .LEHB47-.LFB6788
	.uleb128 .LEHE47-.LEHB47
	.uleb128 .L2931-.LFB6788
	.uleb128 0
.LLSDACSE6788:
	.text
	.fnend
	.size	_ZN7asiopal13SerialChannel4OpenERKNS_14SerialSettingsERSt10error_code, .-_ZN7asiopal13SerialChannel4OpenERKNS_14SerialSettingsERSt10error_code
	.section	.text._ZN4asio6detail11object_poolINS0_13epoll_reactor16descriptor_stateEED2Ev,"axG",%progbits,_ZN4asio6detail11object_poolINS0_13epoll_reactor16descriptor_stateEED5Ev,comdat
	.align	2
	.weak	_ZN4asio6detail11object_poolINS0_13epoll_reactor16descriptor_stateEED2Ev
	.syntax unified
	.arm
	.fpu vfp
	.type	_ZN4asio6detail11object_poolINS0_13epoll_reactor16descriptor_stateEED2Ev, %function
_ZN4asio6detail11object_poolINS0_13epoll_reactor16descriptor_stateEED2Ev:
	.fnstart
.LFB7076:
	@ args = 0, pretend = 0, frame = 16
	@ frame_needed = 0, uses_anonymous_args = 0
	push	{r4, r5, r6, r7, r8, r9, r10, fp, lr}
	.save {r4, r5, r6, r7, r8, r9, r10, fp, lr}
	.pad #20
	sub	sp, sp, #20
	ldr	r10, [r0]
	str	r0, [sp, #4]
	cmp	r10, #0
	addne	r8, sp, #8
	movne	r5, #0
	beq	.L3160
.L3132:
	ldr	fp, [r10, #12]
	add	r9, r10, #56
	add	r4, r10, #80
.L3127:
	ldr	r1, [r4, #-8]
	cmp	r1, #0
	beq	.L3129
	str	r1, [sp]
	bl	_ZNSt3_V215system_categoryEv(PLT)
	ldr	r1, [sp]
	mov	r7, r0
.L3130:
	ldr	r3, [r1]
	ldr	r6, [r1, #4]
	cmp	r3, #0
	streq	r3, [r4, #-4]
	str	r3, [r4, #-8]
	mov	r3, #0
	str	r5, [r1]
	mov	r0, r3
	str	r5, [sp, #8]
	str	r7, [sp, #12]
	mov	r2, r8
	blx	r6
	ldr	r1, [r4, #-8]
	cmp	r1, #0
	bne	.L3130
.L3129:
	sub	r4, r4, #8
	cmp	r9, r4
	bne	.L3127
	add	r0, r10, #20
	bl	pthread_mutex_destroy(PLT)
	mov	r0, r10
	mov	r1, #84
	bl	_ZdlPvj(PLT)
	subs	r10, fp, #0
	bne	.L3132
	ldr	r3, [sp, #4]
.L3131:
	ldr	r10, [r3, #4]
	cmp	r10, #0
	addne	r8, sp, #8
	movne	r5, #0
	beq	.L3145
.L3139:
	ldr	fp, [r10, #12]
	add	r9, r10, #56
	add	r4, r10, #80
.L3135:
	ldr	r1, [r4, #-8]
	cmp	r1, #0
	beq	.L3137
	str	r1, [sp]
	bl	_ZNSt3_V215system_categoryEv(PLT)
	ldr	r1, [sp]
	mov	r7, r0
.L3138:
	ldr	r3, [r1]
	ldr	r6, [r1, #4]
	cmp	r3, #0
	streq	r3, [r4, #-4]
	str	r3, [r4, #-8]
	mov	r3, #0
	str	r5, [r1]
	mov	r0, r3
	str	r5, [sp, #8]
	str	r7, [sp, #12]
	mov	r2, r8
	blx	r6
	ldr	r1, [r4, #-8]
	cmp	r1, #0
	bne	.L3138
.L3137:
	sub	r4, r4, #8
	cmp	r9, r4
	bne	.L3135
	add	r0, r10, #20
	bl	pthread_mutex_destroy(PLT)
	mov	r0, r10
	mov	r1, #84
	bl	_ZdlPvj(PLT)
	subs	r10, fp, #0
	bne	.L3139
.L3145:
	ldr	r0, [sp, #4]
	add	sp, sp, #20
	@ sp needed
	pop	{r4, r5, r6, r7, r8, r9, r10, fp, pc}
.L3160:
	mov	r3, r0
	b	.L3131
	.personality	__gxx_personality_v0
	.handlerdata
.LLSDA7076:
	.byte	0xff
	.byte	0xff
	.byte	0x1
	.uleb128 .LLSDACSE7076-.LLSDACSB7076
.LLSDACSB7076:
.LLSDACSE7076:
	.section	.text._ZN4asio6detail11object_poolINS0_13epoll_reactor16descriptor_stateEED2Ev,"axG",%progbits,_ZN4asio6detail11object_poolINS0_13epoll_reactor16descriptor_stateEED5Ev,comdat
	.fnend
	.size	_ZN4asio6detail11object_poolINS0_13epoll_reactor16descriptor_stateEED2Ev, .-_ZN4asio6detail11object_poolINS0_13epoll_reactor16descriptor_stateEED2Ev
	.weak	_ZN4asio6detail11object_poolINS0_13epoll_reactor16descriptor_stateEED1Ev
	.set	_ZN4asio6detail11object_poolINS0_13epoll_reactor16descriptor_stateEED1Ev,_ZN4asio6detail11object_poolINS0_13epoll_reactor16descriptor_stateEED2Ev
	.section	.text._ZN4asio6detail16service_registry6createINS0_13epoll_reactorEEEPNS_10io_service7serviceERS4_,"axG",%progbits,_ZN4asio6detail16service_registry6createINS0_13epoll_reactorEEEPNS_10io_service7serviceERS4_,comdat
	.align	2
	.weak	_ZN4asio6detail16service_registry6createINS0_13epoll_reactorEEEPNS_10io_service7serviceERS4_
	.syntax unified
	.arm
	.fpu vfp
	.type	_ZN4asio6detail16service_registry6createINS0_13epoll_reactorEEEPNS_10io_service7serviceERS4_, %function
_ZN4asio6detail16service_registry6createINS0_13epoll_reactorEEEPNS_10io_service7serviceERS4_:
	.fnstart
.LFB8019:
	@ args = 0, pretend = 0, frame = 64
	@ frame_needed = 0, uses_anonymous_args = 0
	push	{r4, r5, r6, r7, r8, r9, r10, fp, lr}
	.save {r4, r5, r6, r7, r8, r9, r10, fp, lr}
	mov	r5, r0
	.pad #68
	sub	sp, sp, #68
	mov	r0, #104
.LEHB48:
	bl	_Znwj(PLT)
.LEHE48:
	ldr	r6, .L3260
	ldr	r3, .L3260+4
.LPIC143:
	add	r6, pc, r6
	mov	r1, #0
	ldr	r2, [r5, #4]
	str	r5, [r0, #12]
	str	r1, [r0, #4]
	str	r1, [r0, #8]
	str	r1, [r0, #16]
	ldr	r3, [r6, r3]
	mov	r4, r0
	add	r8, r0, #24
	add	r3, r3, #8
	mov	r0, r8
	str	r3, [r4]
	str	r2, [r4, #20]
	bl	pthread_mutex_init(PLT)
	ldr	r3, .L3260+8
	ldr	r7, [r6, r3]
	ldrb	r3, [r7]	@ zero_extendqisi2
	mcr	p15, 0, r0, c7, c10, 5
	tst	r3, #1
	mov	r5, r0
	beq	.L3247
.L3243:
	ldr	r3, .L3260+12
	ldr	fp, [r6, r3]
.L3163:
	cmp	r5, #0
	str	r5, [sp, #16]
	str	fp, [sp, #20]
	bne	.L3248
	ldr	r1, .L3260+16
	mov	r0, r5
	bl	eventfd(PLT)
	add	r10, r4, #48
	cmn	r0, #1
	str	r0, [r4, #48]
	str	r0, [r4, #52]
	beq	.L3249
.L3167:
	mov	r0, #524288
	bl	epoll_create1(PLT)
	cmn	r0, #1
	mov	r5, r0
	beq	.L3250
.L3176:
	mov	r1, #524288
	mov	r0, #1
	str	r5, [r4, #56]
	bl	timerfd_create(PLT)
	cmn	r0, #1
	mov	r5, r0
	beq	.L3251
.L3182:
	mov	r3, #0
	add	r9, r4, #72
	mov	r1, r3
	mov	r0, r9
	str	r5, [r4, #60]
	str	r3, [r4, #64]
	strb	r3, [r4, #68]
	bl	pthread_mutex_init(PLT)
	ldrb	r3, [r7]	@ zero_extendqisi2
	mcr	p15, 0, r0, c7, c10, 5
	tst	r3, #1
	mov	r5, r0
	beq	.L3252
.L3186:
	cmp	r5, #0
	str	r5, [sp, #48]
	str	fp, [sp, #52]
	bne	.L3253
	add	r6, sp, #48
	mov	r3, r6
	mov	ip, #-2147483639
	ldr	r2, [r4, #48]
	mov	r1, #1
	ldr	r0, [r4, #56]
	str	r5, [r4, #96]
	str	r5, [r4, #100]
	str	r10, [sp, #56]
	str	r5, [r6, #4]
	str	r5, [r6, #12]
	str	ip, [sp, #48]
	bl	epoll_ctl(PLT)
	mov	r2, #1
	mov	r3, #0
	add	r1, sp, #64
	ldr	r0, [r4, #52]
	strd	r2, [r1, #-56]!
	mov	r2, #8
.LEHB49:
	bl	write(PLT)
.LEHE49:
	ldr	r2, [r4, #60]
	cmn	r2, #1
	beq	.L3217
	mov	lr, #9
	add	ip, r4, #60
	mov	r3, r6
	mov	r1, #1
	ldr	r0, [r4, #56]
	str	lr, [sp, #48]
	str	ip, [sp, #56]
	bl	epoll_ctl(PLT)
.L3217:
	mov	r0, r4
	add	sp, sp, #68
	@ sp needed
	pop	{r4, r5, r6, r7, r8, r9, r10, fp, pc}
.L3247:
	mov	r0, r7
	bl	__cxa_guard_acquire(PLT)
	cmp	r0, #0
	beq	.L3243
	mov	r0, r7
	bl	__cxa_guard_release(PLT)
	ldr	r3, .L3260+12
	ldr	r1, .L3260+20
