	.arch armv6
	.eabi_attribute 28, 1
	.eabi_attribute 20, 1
	.eabi_attribute 21, 1
	.eabi_attribute 23, 3
	.eabi_attribute 24, 1
	.eabi_attribute 25, 1
	.eabi_attribute 26, 2
	.eabi_attribute 30, 2
	.eabi_attribute 34, 1
	.eabi_attribute 18, 4
	.file	"SimpleCommandHandler.cpp"
	.section	.text._ZN8opendnp320SimpleCommandHandler8DoSelectERKNS_23ControlRelayOutputBlockEt,"axG",%progbits,_ZN8opendnp320SimpleCommandHandler8DoSelectERKNS_23ControlRelayOutputBlockEt,comdat
	.align	2
	.weak	_ZN8opendnp320SimpleCommandHandler8DoSelectERKNS_23ControlRelayOutputBlockEt
	.syntax unified
	.arm
	.fpu vfp
	.type	_ZN8opendnp320SimpleCommandHandler8DoSelectERKNS_23ControlRelayOutputBlockEt, %function
_ZN8opendnp320SimpleCommandHandler8DoSelectERKNS_23ControlRelayOutputBlockEt:
	.fnstart
.LFB1961:
	@ args = 0, pretend = 0, frame = 0
	@ frame_needed = 0, uses_anonymous_args = 0
	@ link register save eliminated.
	bx	lr
	.cantunwind
	.fnend
	.size	_ZN8opendnp320SimpleCommandHandler8DoSelectERKNS_23ControlRelayOutputBlockEt, .-_ZN8opendnp320SimpleCommandHandler8DoSelectERKNS_23ControlRelayOutputBlockEt
	.section	.text._ZN8opendnp320SimpleCommandHandler9DoOperateERKNS_23ControlRelayOutputBlockEtNS_11OperateTypeE,"axG",%progbits,_ZN8opendnp320SimpleCommandHandler9DoOperateERKNS_23ControlRelayOutputBlockEtNS_11OperateTypeE,comdat
	.align	2
	.weak	_ZN8opendnp320SimpleCommandHandler9DoOperateERKNS_23ControlRelayOutputBlockEtNS_11OperateTypeE
	.syntax unified
	.arm
	.fpu vfp
	.type	_ZN8opendnp320SimpleCommandHandler9DoOperateERKNS_23ControlRelayOutputBlockEtNS_11OperateTypeE, %function
_ZN8opendnp320SimpleCommandHandler9DoOperateERKNS_23ControlRelayOutputBlockEtNS_11OperateTypeE:
	.fnstart
.LFB1962:
	@ args = 0, pretend = 0, frame = 0
	@ frame_needed = 0, uses_anonymous_args = 0
	@ link register save eliminated.
	bx	lr
	.cantunwind
	.fnend
	.size	_ZN8opendnp320SimpleCommandHandler9DoOperateERKNS_23ControlRelayOutputBlockEtNS_11OperateTypeE, .-_ZN8opendnp320SimpleCommandHandler9DoOperateERKNS_23ControlRelayOutputBlockEtNS_11OperateTypeE
	.section	.text._ZN8opendnp320SimpleCommandHandler8DoSelectERKNS_17AnalogOutputInt16Et,"axG",%progbits,_ZN8opendnp320SimpleCommandHandler8DoSelectERKNS_17AnalogOutputInt16Et,comdat
	.align	2
	.weak	_ZN8opendnp320SimpleCommandHandler8DoSelectERKNS_17AnalogOutputInt16Et
	.syntax unified
	.arm
	.fpu vfp
	.type	_ZN8opendnp320SimpleCommandHandler8DoSelectERKNS_17AnalogOutputInt16Et, %function
_ZN8opendnp320SimpleCommandHandler8DoSelectERKNS_17AnalogOutputInt16Et:
	.fnstart
.LFB1963:
	@ args = 0, pretend = 0, frame = 0
	@ frame_needed = 0, uses_anonymous_args = 0
	@ link register save eliminated.
	bx	lr
	.cantunwind
	.fnend
	.size	_ZN8opendnp320SimpleCommandHandler8DoSelectERKNS_17AnalogOutputInt16Et, .-_ZN8opendnp320SimpleCommandHandler8DoSelectERKNS_17AnalogOutputInt16Et
	.section	.text._ZN8opendnp320SimpleCommandHandler9DoOperateERKNS_17AnalogOutputInt16EtNS_11OperateTypeE,"axG",%progbits,_ZN8opendnp320SimpleCommandHandler9DoOperateERKNS_17AnalogOutputInt16EtNS_11OperateTypeE,comdat
	.align	2
	.weak	_ZN8opendnp320SimpleCommandHandler9DoOperateERKNS_17AnalogOutputInt16EtNS_11OperateTypeE
	.syntax unified
	.arm
	.fpu vfp
	.type	_ZN8opendnp320SimpleCommandHandler9DoOperateERKNS_17AnalogOutputInt16EtNS_11OperateTypeE, %function
_ZN8opendnp320SimpleCommandHandler9DoOperateERKNS_17AnalogOutputInt16EtNS_11OperateTypeE:
	.fnstart
.LFB1964:
	@ args = 0, pretend = 0, frame = 0
	@ frame_needed = 0, uses_anonymous_args = 0
	@ link register save eliminated.
	bx	lr
	.cantunwind
	.fnend
	.size	_ZN8opendnp320SimpleCommandHandler9DoOperateERKNS_17AnalogOutputInt16EtNS_11OperateTypeE, .-_ZN8opendnp320SimpleCommandHandler9DoOperateERKNS_17AnalogOutputInt16EtNS_11OperateTypeE
	.section	.text._ZN8opendnp320SimpleCommandHandler8DoSelectERKNS_17AnalogOutputInt32Et,"axG",%progbits,_ZN8opendnp320SimpleCommandHandler8DoSelectERKNS_17AnalogOutputInt32Et,comdat
	.align	2
	.weak	_ZN8opendnp320SimpleCommandHandler8DoSelectERKNS_17AnalogOutputInt32Et
	.syntax unified
	.arm
	.fpu vfp
	.type	_ZN8opendnp320SimpleCommandHandler8DoSelectERKNS_17AnalogOutputInt32Et, %function
_ZN8opendnp320SimpleCommandHandler8DoSelectERKNS_17AnalogOutputInt32Et:
	.fnstart
.LFB1965:
	@ args = 0, pretend = 0, frame = 0
	@ frame_needed = 0, uses_anonymous_args = 0
	@ link register save eliminated.
	bx	lr
	.cantunwind
	.fnend
	.size	_ZN8opendnp320SimpleCommandHandler8DoSelectERKNS_17AnalogOutputInt32Et, .-_ZN8opendnp320SimpleCommandHandler8DoSelectERKNS_17AnalogOutputInt32Et
	.section	.text._ZN8opendnp320SimpleCommandHandler9DoOperateERKNS_17AnalogOutputInt32EtNS_11OperateTypeE,"axG",%progbits,_ZN8opendnp320SimpleCommandHandler9DoOperateERKNS_17AnalogOutputInt32EtNS_11OperateTypeE,comdat
	.align	2
	.weak	_ZN8opendnp320SimpleCommandHandler9DoOperateERKNS_17AnalogOutputInt32EtNS_11OperateTypeE
	.syntax unified
	.arm
	.fpu vfp
	.type	_ZN8opendnp320SimpleCommandHandler9DoOperateERKNS_17AnalogOutputInt32EtNS_11OperateTypeE, %function
_ZN8opendnp320SimpleCommandHandler9DoOperateERKNS_17AnalogOutputInt32EtNS_11OperateTypeE:
	.fnstart
.LFB1966:
	@ args = 0, pretend = 0, frame = 0
	@ frame_needed = 0, uses_anonymous_args = 0
	@ link register save eliminated.
	bx	lr
	.cantunwind
	.fnend
	.size	_ZN8opendnp320SimpleCommandHandler9DoOperateERKNS_17AnalogOutputInt32EtNS_11OperateTypeE, .-_ZN8opendnp320SimpleCommandHandler9DoOperateERKNS_17AnalogOutputInt32EtNS_11OperateTypeE
	.section	.text._ZN8opendnp320SimpleCommandHandler8DoSelectERKNS_19AnalogOutputFloat32Et,"axG",%progbits,_ZN8opendnp320SimpleCommandHandler8DoSelectERKNS_19AnalogOutputFloat32Et,comdat
	.align	2
	.weak	_ZN8opendnp320SimpleCommandHandler8DoSelectERKNS_19AnalogOutputFloat32Et
	.syntax unified
	.arm
	.fpu vfp
	.type	_ZN8opendnp320SimpleCommandHandler8DoSelectERKNS_19AnalogOutputFloat32Et, %function
_ZN8opendnp320SimpleCommandHandler8DoSelectERKNS_19AnalogOutputFloat32Et:
	.fnstart
.LFB1967:
	@ args = 0, pretend = 0, frame = 0
	@ frame_needed = 0, uses_anonymous_args = 0
	@ link register save eliminated.
	bx	lr
	.cantunwind
	.fnend
	.size	_ZN8opendnp320SimpleCommandHandler8DoSelectERKNS_19AnalogOutputFloat32Et, .-_ZN8opendnp320SimpleCommandHandler8DoSelectERKNS_19AnalogOutputFloat32Et
	.section	.text._ZN8opendnp320SimpleCommandHandler9DoOperateERKNS_19AnalogOutputFloat32EtNS_11OperateTypeE,"axG",%progbits,_ZN8opendnp320SimpleCommandHandler9DoOperateERKNS_19AnalogOutputFloat32EtNS_11OperateTypeE,comdat
	.align	2
	.weak	_ZN8opendnp320SimpleCommandHandler9DoOperateERKNS_19AnalogOutputFloat32EtNS_11OperateTypeE
	.syntax unified
	.arm
	.fpu vfp
	.type	_ZN8opendnp320SimpleCommandHandler9DoOperateERKNS_19AnalogOutputFloat32EtNS_11OperateTypeE, %function
_ZN8opendnp320SimpleCommandHandler9DoOperateERKNS_19AnalogOutputFloat32EtNS_11OperateTypeE:
	.fnstart
.LFB1968:
	@ args = 0, pretend = 0, frame = 0
	@ frame_needed = 0, uses_anonymous_args = 0
	@ link register save eliminated.
	bx	lr
	.cantunwind
	.fnend
	.size	_ZN8opendnp320SimpleCommandHandler9DoOperateERKNS_19AnalogOutputFloat32EtNS_11OperateTypeE, .-_ZN8opendnp320SimpleCommandHandler9DoOperateERKNS_19AnalogOutputFloat32EtNS_11OperateTypeE
	.section	.text._ZN8opendnp320SimpleCommandHandler8DoSelectERKNS_20AnalogOutputDouble64Et,"axG",%progbits,_ZN8opendnp320SimpleCommandHandler8DoSelectERKNS_20AnalogOutputDouble64Et,comdat
	.align	2
	.weak	_ZN8opendnp320SimpleCommandHandler8DoSelectERKNS_20AnalogOutputDouble64Et
	.syntax unified
	.arm
	.fpu vfp
	.type	_ZN8opendnp320SimpleCommandHandler8DoSelectERKNS_20AnalogOutputDouble64Et, %function
_ZN8opendnp320SimpleCommandHandler8DoSelectERKNS_20AnalogOutputDouble64Et:
	.fnstart
.LFB1969:
	@ args = 0, pretend = 0, frame = 0
	@ frame_needed = 0, uses_anonymous_args = 0
	@ link register save eliminated.
	bx	lr
	.cantunwind
	.fnend
	.size	_ZN8opendnp320SimpleCommandHandler8DoSelectERKNS_20AnalogOutputDouble64Et, .-_ZN8opendnp320SimpleCommandHandler8DoSelectERKNS_20AnalogOutputDouble64Et
	.section	.text._ZN8opendnp320SimpleCommandHandler9DoOperateERKNS_20AnalogOutputDouble64EtNS_11OperateTypeE,"axG",%progbits,_ZN8opendnp320SimpleCommandHandler9DoOperateERKNS_20AnalogOutputDouble64EtNS_11OperateTypeE,comdat
	.align	2
	.weak	_ZN8opendnp320SimpleCommandHandler9DoOperateERKNS_20AnalogOutputDouble64EtNS_11OperateTypeE
	.syntax unified
	.arm
	.fpu vfp
	.type	_ZN8opendnp320SimpleCommandHandler9DoOperateERKNS_20AnalogOutputDouble64EtNS_11OperateTypeE, %function
_ZN8opendnp320SimpleCommandHandler9DoOperateERKNS_20AnalogOutputDouble64EtNS_11OperateTypeE:
	.fnstart
.LFB1970:
	@ args = 0, pretend = 0, frame = 0
	@ frame_needed = 0, uses_anonymous_args = 0
	@ link register save eliminated.
	bx	lr
	.cantunwind
	.fnend
	.size	_ZN8opendnp320SimpleCommandHandler9DoOperateERKNS_20AnalogOutputDouble64EtNS_11OperateTypeE, .-_ZN8opendnp320SimpleCommandHandler9DoOperateERKNS_20AnalogOutputDouble64EtNS_11OperateTypeE
	.section	.text._ZN8opendnp320SimpleCommandHandlerD2Ev,"axG",%progbits,_ZN8opendnp320SimpleCommandHandlerD5Ev,comdat
	.align	2
	.weak	_ZN8opendnp320SimpleCommandHandlerD2Ev
	.syntax unified
	.arm
	.fpu vfp
	.type	_ZN8opendnp320SimpleCommandHandlerD2Ev, %function
_ZN8opendnp320SimpleCommandHandlerD2Ev:
	.fnstart
.LFB1986:
	@ args = 0, pretend = 0, frame = 0
	@ frame_needed = 0, uses_anonymous_args = 0
	@ link register save eliminated.
	bx	lr
	.cantunwind
	.fnend
	.size	_ZN8opendnp320SimpleCommandHandlerD2Ev, .-_ZN8opendnp320SimpleCommandHandlerD2Ev
	.weak	_ZN8opendnp320SimpleCommandHandlerD1Ev
	.set	_ZN8opendnp320SimpleCommandHandlerD1Ev,_ZN8opendnp320SimpleCommandHandlerD2Ev
	.text
	.align	2
	.global	_ZN8opendnp320SimpleCommandHandler5StartEv
	.syntax unified
	.arm
	.fpu vfp
	.type	_ZN8opendnp320SimpleCommandHandler5StartEv, %function
_ZN8opendnp320SimpleCommandHandler5StartEv:
	.fnstart
.LFB2010:
	@ args = 0, pretend = 0, frame = 0
	@ frame_needed = 0, uses_anonymous_args = 0
	@ link register save eliminated.
	ldr	r3, [r0, #16]
	add	r3, r3, #1
	str	r3, [r0, #16]
	bx	lr
	.cantunwind
	.fnend
	.size	_ZN8opendnp320SimpleCommandHandler5StartEv, .-_ZN8opendnp320SimpleCommandHandler5StartEv
	.align	2
	.global	_ZN8opendnp320SimpleCommandHandler3EndEv
	.syntax unified
	.arm
	.fpu vfp
	.type	_ZN8opendnp320SimpleCommandHandler3EndEv, %function
_ZN8opendnp320SimpleCommandHandler3EndEv:
	.fnstart
.LFB2011:
	@ args = 0, pretend = 0, frame = 0
	@ frame_needed = 0, uses_anonymous_args = 0
	@ link register save eliminated.
	ldr	r3, [r0, #20]
	add	r3, r3, #1
	str	r3, [r0, #20]
	bx	lr
	.cantunwind
	.fnend
	.size	_ZN8opendnp320SimpleCommandHandler3EndEv, .-_ZN8opendnp320SimpleCommandHandler3EndEv
	.section	.text._ZN8opendnp320SimpleCommandHandlerD0Ev,"axG",%progbits,_ZN8opendnp320SimpleCommandHandlerD5Ev,comdat
	.align	2
	.weak	_ZN8opendnp320SimpleCommandHandlerD0Ev
	.syntax unified
	.arm
	.fpu vfp
	.type	_ZN8opendnp320SimpleCommandHandlerD0Ev, %function
_ZN8opendnp320SimpleCommandHandlerD0Ev:
	.fnstart
.LFB1988:
	@ args = 0, pretend = 0, frame = 0
	@ frame_needed = 0, uses_anonymous_args = 0
	push	{r4, lr}
	mov	r1, #24
	mov	r4, r0
	bl	_ZdlPvj(PLT)
	mov	r0, r4
	pop	{r4, pc}
	.cantunwind
	.fnend
	.size	_ZN8opendnp320SimpleCommandHandlerD0Ev, .-_ZN8opendnp320SimpleCommandHandlerD0Ev
	.text
	.align	2
	.global	_ZN8opendnp320SimpleCommandHandler7OperateERKNS_20AnalogOutputDouble64EtNS_11OperateTypeE
	.syntax unified
	.arm
	.fpu vfp
	.type	_ZN8opendnp320SimpleCommandHandler7OperateERKNS_20AnalogOutputDouble64EtNS_11OperateTypeE, %function
_ZN8opendnp320SimpleCommandHandler7OperateERKNS_20AnalogOutputDouble64EtNS_11OperateTypeE:
	.fnstart
.LFB2009:
	@ args = 0, pretend = 0, frame = 0
	@ frame_needed = 0, uses_anonymous_args = 0
	ldr	ip, .L21
	push	{r4, r5, r6, lr}
	.save {r4, r5, r6, lr}
.LPIC0:
	add	ip, pc, ip
	ldr	r5, [r0]
	ldr	lr, .L21+4
	mov	r4, r0
	ldr	r5, [r5, #92]
	ldr	ip, [ip, lr]
	cmp	r5, ip
	bne	.L20
.L17:
	ldr	r3, [r4, #8]
	ldrb	r0, [r4, #4]	@ zero_extendqisi2
	add	r3, r3, #1
	str	r3, [r4, #8]
	pop	{r4, r5, r6, pc}
.L20:
	blx	r5
	b	.L17
.L22:
	.align	2
.L21:
	.word	_GLOBAL_OFFSET_TABLE_-(.LPIC0+8)
	.word	_ZN8opendnp320SimpleCommandHandler9DoOperateERKNS_20AnalogOutputDouble64EtNS_11OperateTypeE(GOT)
	.fnend
	.size	_ZN8opendnp320SimpleCommandHandler7OperateERKNS_20AnalogOutputDouble64EtNS_11OperateTypeE, .-_ZN8opendnp320SimpleCommandHandler7OperateERKNS_20AnalogOutputDouble64EtNS_11OperateTypeE
	.align	2
	.global	_ZN8opendnp320SimpleCommandHandler6SelectERKNS_20AnalogOutputDouble64Et
	.syntax unified
	.arm
	.fpu vfp
	.type	_ZN8opendnp320SimpleCommandHandler6SelectERKNS_20AnalogOutputDouble64Et, %function
_ZN8opendnp320SimpleCommandHandler6SelectERKNS_20AnalogOutputDouble64Et:
	.fnstart
.LFB2008:
	@ args = 0, pretend = 0, frame = 0
	@ frame_needed = 0, uses_anonymous_args = 0
	ldr	r3, .L27
	push	{r4, r5, r6, lr}
	.save {r4, r5, r6, lr}
.LPIC1:
	add	r3, pc, r3
	ldr	lr, [r0]
	ldr	ip, .L27+4
	mov	r4, r0
	ldr	r5, [lr, #88]
	ldr	r3, [r3, ip]
	cmp	r5, r3
	bne	.L26
.L24:
	ldr	r3, [r4, #12]
	ldrb	r0, [r4, #4]	@ zero_extendqisi2
	add	r3, r3, #1
	str	r3, [r4, #12]
	pop	{r4, r5, r6, pc}
.L26:
	blx	r5
	b	.L24
.L28:
	.align	2
.L27:
	.word	_GLOBAL_OFFSET_TABLE_-(.LPIC1+8)
	.word	_ZN8opendnp320SimpleCommandHandler8DoSelectERKNS_20AnalogOutputDouble64Et(GOT)
	.fnend
	.size	_ZN8opendnp320SimpleCommandHandler6SelectERKNS_20AnalogOutputDouble64Et, .-_ZN8opendnp320SimpleCommandHandler6SelectERKNS_20AnalogOutputDouble64Et
	.align	2
	.global	_ZN8opendnp320SimpleCommandHandler7OperateERKNS_19AnalogOutputFloat32EtNS_11OperateTypeE
	.syntax unified
	.arm
	.fpu vfp
	.type	_ZN8opendnp320SimpleCommandHandler7OperateERKNS_19AnalogOutputFloat32EtNS_11OperateTypeE, %function
_ZN8opendnp320SimpleCommandHandler7OperateERKNS_19AnalogOutputFloat32EtNS_11OperateTypeE:
	.fnstart
.LFB2007:
	@ args = 0, pretend = 0, frame = 0
	@ frame_needed = 0, uses_anonymous_args = 0
	ldr	ip, .L33
	push	{r4, r5, r6, lr}
	.save {r4, r5, r6, lr}
.LPIC2:
	add	ip, pc, ip
	ldr	r5, [r0]
	ldr	lr, .L33+4
	mov	r4, r0
	ldr	r5, [r5, #84]
	ldr	ip, [ip, lr]
	cmp	r5, ip
	bne	.L32
.L30:
	ldr	r3, [r4, #8]
	ldrb	r0, [r4, #4]	@ zero_extendqisi2
	add	r3, r3, #1
	str	r3, [r4, #8]
	pop	{r4, r5, r6, pc}
.L32:
	blx	r5
	b	.L30
.L34:
	.align	2
.L33:
	.word	_GLOBAL_OFFSET_TABLE_-(.LPIC2+8)
	.word	_ZN8opendnp320SimpleCommandHandler9DoOperateERKNS_19AnalogOutputFloat32EtNS_11OperateTypeE(GOT)
	.fnend
	.size	_ZN8opendnp320SimpleCommandHandler7OperateERKNS_19AnalogOutputFloat32EtNS_11OperateTypeE, .-_ZN8opendnp320SimpleCommandHandler7OperateERKNS_19AnalogOutputFloat32EtNS_11OperateTypeE
	.align	2
	.global	_ZN8opendnp320SimpleCommandHandler6SelectERKNS_19AnalogOutputFloat32Et
	.syntax unified
	.arm
	.fpu vfp
	.type	_ZN8opendnp320SimpleCommandHandler6SelectERKNS_19AnalogOutputFloat32Et, %function
_ZN8opendnp320SimpleCommandHandler6SelectERKNS_19AnalogOutputFloat32Et:
	.fnstart
.LFB2006:
	@ args = 0, pretend = 0, frame = 0
	@ frame_needed = 0, uses_anonymous_args = 0
	ldr	r3, .L39
	push	{r4, r5, r6, lr}
	.save {r4, r5, r6, lr}
.LPIC3:
	add	r3, pc, r3
	ldr	lr, [r0]
	ldr	ip, .L39+4
	mov	r4, r0
	ldr	r5, [lr, #80]
	ldr	r3, [r3, ip]
	cmp	r5, r3
	bne	.L38
.L36:
	ldr	r3, [r4, #12]
	ldrb	r0, [r4, #4]	@ zero_extendqisi2
	add	r3, r3, #1
	str	r3, [r4, #12]
	pop	{r4, r5, r6, pc}
.L38:
	blx	r5
	b	.L36
.L40:
	.align	2
.L39:
	.word	_GLOBAL_OFFSET_TABLE_-(.LPIC3+8)
	.word	_ZN8opendnp320SimpleCommandHandler8DoSelectERKNS_19AnalogOutputFloat32Et(GOT)
	.fnend
	.size	_ZN8opendnp320SimpleCommandHandler6SelectERKNS_19AnalogOutputFloat32Et, .-_ZN8opendnp320SimpleCommandHandler6SelectERKNS_19AnalogOutputFloat32Et
	.align	2
	.global	_ZN8opendnp320SimpleCommandHandler7OperateERKNS_17AnalogOutputInt32EtNS_11OperateTypeE
	.syntax unified
	.arm
	.fpu vfp
	.type	_ZN8opendnp320SimpleCommandHandler7OperateERKNS_17AnalogOutputInt32EtNS_11OperateTypeE, %function
_ZN8opendnp320SimpleCommandHandler7OperateERKNS_17AnalogOutputInt32EtNS_11OperateTypeE:
	.fnstart
.LFB2005:
	@ args = 0, pretend = 0, frame = 0
	@ frame_needed = 0, uses_anonymous_args = 0
	ldr	ip, .L45
	push	{r4, r5, r6, lr}
	.save {r4, r5, r6, lr}
.LPIC4:
	add	ip, pc, ip
	ldr	r5, [r0]
	ldr	lr, .L45+4
	mov	r4, r0
	ldr	r5, [r5, #76]
	ldr	ip, [ip, lr]
	cmp	r5, ip
	bne	.L44
.L42:
	ldr	r3, [r4, #8]
	ldrb	r0, [r4, #4]	@ zero_extendqisi2
	add	r3, r3, #1
	str	r3, [r4, #8]
	pop	{r4, r5, r6, pc}
.L44:
	blx	r5
	b	.L42
.L46:
	.align	2
.L45:
	.word	_GLOBAL_OFFSET_TABLE_-(.LPIC4+8)
	.word	_ZN8opendnp320SimpleCommandHandler9DoOperateERKNS_17AnalogOutputInt32EtNS_11OperateTypeE(GOT)
	.fnend
	.size	_ZN8opendnp320SimpleCommandHandler7OperateERKNS_17AnalogOutputInt32EtNS_11OperateTypeE, .-_ZN8opendnp320SimpleCommandHandler7OperateERKNS_17AnalogOutputInt32EtNS_11OperateTypeE
	.align	2
	.global	_ZN8opendnp320SimpleCommandHandler6SelectERKNS_17AnalogOutputInt32Et
	.syntax unified
	.arm
	.fpu vfp
	.type	_ZN8opendnp320SimpleCommandHandler6SelectERKNS_17AnalogOutputInt32Et, %function
_ZN8opendnp320SimpleCommandHandler6SelectERKNS_17AnalogOutputInt32Et:
	.fnstart
.LFB2004:
	@ args = 0, pretend = 0, frame = 0
	@ frame_needed = 0, uses_anonymous_args = 0
	ldr	r3, .L51
	push	{r4, r5, r6, lr}
	.save {r4, r5, r6, lr}
.LPIC5:
	add	r3, pc, r3
	ldr	lr, [r0]
	ldr	ip, .L51+4
	mov	r4, r0
	ldr	r5, [lr, #72]
	ldr	r3, [r3, ip]
	cmp	r5, r3
	bne	.L50
.L48:
	ldr	r3, [r4, #12]
	ldrb	r0, [r4, #4]	@ zero_extendqisi2
	add	r3, r3, #1
	str	r3, [r4, #12]
	pop	{r4, r5, r6, pc}
.L50:
	blx	r5
	b	.L48
.L52:
	.align	2
.L51:
	.word	_GLOBAL_OFFSET_TABLE_-(.LPIC5+8)
	.word	_ZN8opendnp320SimpleCommandHandler8DoSelectERKNS_17AnalogOutputInt32Et(GOT)
	.fnend
	.size	_ZN8opendnp320SimpleCommandHandler6SelectERKNS_17AnalogOutputInt32Et, .-_ZN8opendnp320SimpleCommandHandler6SelectERKNS_17AnalogOutputInt32Et
	.align	2
	.global	_ZN8opendnp320SimpleCommandHandler7OperateERKNS_17AnalogOutputInt16EtNS_11OperateTypeE
	.syntax unified
	.arm
	.fpu vfp
	.type	_ZN8opendnp320SimpleCommandHandler7OperateERKNS_17AnalogOutputInt16EtNS_11OperateTypeE, %function
_ZN8opendnp320SimpleCommandHandler7OperateERKNS_17AnalogOutputInt16EtNS_11OperateTypeE:
	.fnstart
.LFB2003:
	@ args = 0, pretend = 0, frame = 0
	@ frame_needed = 0, uses_anonymous_args = 0
	ldr	ip, .L57
	push	{r4, r5, r6, lr}
	.save {r4, r5, r6, lr}
.LPIC6:
	add	ip, pc, ip
	ldr	r5, [r0]
	ldr	lr, .L57+4
	mov	r4, r0
	ldr	r5, [r5, #68]
	ldr	ip, [ip, lr]
	cmp	r5, ip
	bne	.L56
.L54:
	ldr	r3, [r4, #8]
	ldrb	r0, [r4, #4]	@ zero_extendqisi2
	add	r3, r3, #1
	str	r3, [r4, #8]
	pop	{r4, r5, r6, pc}
.L56:
	blx	r5
	b	.L54
.L58:
	.align	2
.L57:
	.word	_GLOBAL_OFFSET_TABLE_-(.LPIC6+8)
	.word	_ZN8opendnp320SimpleCommandHandler9DoOperateERKNS_17AnalogOutputInt16EtNS_11OperateTypeE(GOT)
	.fnend
	.size	_ZN8opendnp320SimpleCommandHandler7OperateERKNS_17AnalogOutputInt16EtNS_11OperateTypeE, .-_ZN8opendnp320SimpleCommandHandler7OperateERKNS_17AnalogOutputInt16EtNS_11OperateTypeE
	.align	2
	.global	_ZN8opendnp320SimpleCommandHandler6SelectERKNS_17AnalogOutputInt16Et
	.syntax unified
	.arm
	.fpu vfp
	.type	_ZN8opendnp320SimpleCommandHandler6SelectERKNS_17AnalogOutputInt16Et, %function
_ZN8opendnp320SimpleCommandHandler6SelectERKNS_17AnalogOutputInt16Et:
	.fnstart
.LFB2002:
	@ args = 0, pretend = 0, frame = 0
	@ frame_needed = 0, uses_anonymous_args = 0
	ldr	r3, .L63
	push	{r4, r5, r6, lr}
	.save {r4, r5, r6, lr}
.LPIC7:
	add	r3, pc, r3
	ldr	lr, [r0]
	ldr	ip, .L63+4
	mov	r4, r0
	ldr	r5, [lr, #64]
	ldr	r3, [r3, ip]
	cmp	r5, r3
	bne	.L62
.L60:
	ldr	r3, [r4, #12]
	ldrb	r0, [r4, #4]	@ zero_extendqisi2
	add	r3, r3, #1
	str	r3, [r4, #12]
	pop	{r4, r5, r6, pc}
.L62:
	blx	r5
	b	.L60
.L64:
	.align	2
.L63:
	.word	_GLOBAL_OFFSET_TABLE_-(.LPIC7+8)
	.word	_ZN8opendnp320SimpleCommandHandler8DoSelectERKNS_17AnalogOutputInt16Et(GOT)
	.fnend
	.size	_ZN8opendnp320SimpleCommandHandler6SelectERKNS_17AnalogOutputInt16Et, .-_ZN8opendnp320SimpleCommandHandler6SelectERKNS_17AnalogOutputInt16Et
	.align	2
	.global	_ZN8opendnp320SimpleCommandHandler7OperateERKNS_23ControlRelayOutputBlockEtNS_11OperateTypeE
	.syntax unified
	.arm
	.fpu vfp
	.type	_ZN8opendnp320SimpleCommandHandler7OperateERKNS_23ControlRelayOutputBlockEtNS_11OperateTypeE, %function
_ZN8opendnp320SimpleCommandHandler7OperateERKNS_23ControlRelayOutputBlockEtNS_11OperateTypeE:
	.fnstart
.LFB2001:
	@ args = 0, pretend = 0, frame = 0
	@ frame_needed = 0, uses_anonymous_args = 0
	ldr	ip, .L69
	push	{r4, r5, r6, lr}
	.save {r4, r5, r6, lr}
.LPIC8:
	add	ip, pc, ip
	ldr	r5, [r0]
	ldr	lr, .L69+4
	mov	r4, r0
	ldr	r5, [r5, #60]
	ldr	ip, [ip, lr]
	cmp	r5, ip
	bne	.L68
.L66:
	ldr	r3, [r4, #8]
	ldrb	r0, [r4, #4]	@ zero_extendqisi2
	add	r3, r3, #1
	str	r3, [r4, #8]
	pop	{r4, r5, r6, pc}
.L68:
	blx	r5
	b	.L66
.L70:
	.align	2
.L69:
	.word	_GLOBAL_OFFSET_TABLE_-(.LPIC8+8)
	.word	_ZN8opendnp320SimpleCommandHandler9DoOperateERKNS_23ControlRelayOutputBlockEtNS_11OperateTypeE(GOT)
	.fnend
	.size	_ZN8opendnp320SimpleCommandHandler7OperateERKNS_23ControlRelayOutputBlockEtNS_11OperateTypeE, .-_ZN8opendnp320SimpleCommandHandler7OperateERKNS_23ControlRelayOutputBlockEtNS_11OperateTypeE
	.align	2
	.global	_ZN8opendnp320SimpleCommandHandler6SelectERKNS_23ControlRelayOutputBlockEt
	.syntax unified
	.arm
	.fpu vfp
	.type	_ZN8opendnp320SimpleCommandHandler6SelectERKNS_23ControlRelayOutputBlockEt, %function
_ZN8opendnp320SimpleCommandHandler6SelectERKNS_23ControlRelayOutputBlockEt:
	.fnstart
.LFB2000:
	@ args = 0, pretend = 0, frame = 0
	@ frame_needed = 0, uses_anonymous_args = 0
	ldr	r3, .L75
	push	{r4, r5, r6, lr}
	.save {r4, r5, r6, lr}
.LPIC9:
	add	r3, pc, r3
	ldr	lr, [r0]
	ldr	ip, .L75+4
	mov	r4, r0
	ldr	r5, [lr, #56]
	ldr	r3, [r3, ip]
	cmp	r5, r3
	bne	.L74
.L72:
	ldr	r3, [r4, #12]
	ldrb	r0, [r4, #4]	@ zero_extendqisi2
	add	r3, r3, #1
	str	r3, [r4, #12]
	pop	{r4, r5, r6, pc}
.L74:
	blx	r5
	b	.L72
.L76:
	.align	2
.L75:
	.word	_GLOBAL_OFFSET_TABLE_-(.LPIC9+8)
	.word	_ZN8opendnp320SimpleCommandHandler8DoSelectERKNS_23ControlRelayOutputBlockEt(GOT)
	.fnend
	.size	_ZN8opendnp320SimpleCommandHandler6SelectERKNS_23ControlRelayOutputBlockEt, .-_ZN8opendnp320SimpleCommandHandler6SelectERKNS_23ControlRelayOutputBlockEt
	.align	2
	.global	_ZN8opendnp320SimpleCommandHandlerC2ENS_13CommandStatusE
	.syntax unified
	.arm
	.fpu vfp
	.type	_ZN8opendnp320SimpleCommandHandlerC2ENS_13CommandStatusE, %function
_ZN8opendnp320SimpleCommandHandlerC2ENS_13CommandStatusE:
	.fnstart
.LFB1998:
	@ args = 0, pretend = 0, frame = 0
	@ frame_needed = 0, uses_anonymous_args = 0
	ldr	ip, .L79
	str	lr, [sp, #-4]!
.LPIC10:
	add	ip, pc, ip
	ldr	lr, .L79+4
	mov	r2, #0
	ldr	lr, [ip, lr]
	strb	r1, [r0, #4]
	add	lr, lr, #8
	str	lr, [r0]
	str	r2, [r0, #8]
	str	r2, [r0, #12]
	str	r2, [r0, #16]
	str	r2, [r0, #20]
	ldr	pc, [sp], #4
.L80:
	.align	2
.L79:
	.word	_GLOBAL_OFFSET_TABLE_-(.LPIC10+8)
	.word	_ZTVN8opendnp320SimpleCommandHandlerE(GOT)
	.cantunwind
	.fnend
	.size	_ZN8opendnp320SimpleCommandHandlerC2ENS_13CommandStatusE, .-_ZN8opendnp320SimpleCommandHandlerC2ENS_13CommandStatusE
	.global	_ZN8opendnp320SimpleCommandHandlerC1ENS_13CommandStatusE
	.set	_ZN8opendnp320SimpleCommandHandlerC1ENS_13CommandStatusE,_ZN8opendnp320SimpleCommandHandlerC2ENS_13CommandStatusE
	.weak	_ZTSN8opendnp313ITransactableE
	.section	.rodata._ZTSN8opendnp313ITransactableE,"aG",%progbits,_ZTSN8opendnp313ITransactableE,comdat
	.align	2
	.type	_ZTSN8opendnp313ITransactableE, %object
	.size	_ZTSN8opendnp313ITransactableE, 27
_ZTSN8opendnp313ITransactableE:
	.ascii	"N8opendnp313ITransactableE\000"
	.weak	_ZTIN8opendnp313ITransactableE
	.section	.data.rel.ro._ZTIN8opendnp313ITransactableE,"awG",%progbits,_ZTIN8opendnp313ITransactableE,comdat
	.align	2
	.type	_ZTIN8opendnp313ITransactableE, %object
	.size	_ZTIN8opendnp313ITransactableE, 8
_ZTIN8opendnp313ITransactableE:
	.word	_ZTVN10__cxxabiv117__class_type_infoE+8
	.word	_ZTSN8opendnp313ITransactableE
	.weak	_ZTSN8opendnp315ICommandHandlerE
	.section	.rodata._ZTSN8opendnp315ICommandHandlerE,"aG",%progbits,_ZTSN8opendnp315ICommandHandlerE,comdat
	.align	2
	.type	_ZTSN8opendnp315ICommandHandlerE, %object
	.size	_ZTSN8opendnp315ICommandHandlerE, 29
_ZTSN8opendnp315ICommandHandlerE:
	.ascii	"N8opendnp315ICommandHandlerE\000"
	.weak	_ZTIN8opendnp315ICommandHandlerE
	.section	.data.rel.ro._ZTIN8opendnp315ICommandHandlerE,"awG",%progbits,_ZTIN8opendnp315ICommandHandlerE,comdat
	.align	2
	.type	_ZTIN8opendnp315ICommandHandlerE, %object
	.size	_ZTIN8opendnp315ICommandHandlerE, 12
_ZTIN8opendnp315ICommandHandlerE:
	.word	_ZTVN10__cxxabiv120__si_class_type_infoE+8
	.word	_ZTSN8opendnp315ICommandHandlerE
	.word	_ZTIN8opendnp313ITransactableE
	.global	_ZTSN8opendnp320SimpleCommandHandlerE
	.global	_ZTIN8opendnp320SimpleCommandHandlerE
	.global	_ZTVN8opendnp320SimpleCommandHandlerE
	.section	.rodata
	.align	2
	.type	_ZTSN8opendnp320SimpleCommandHandlerE, %object
	.size	_ZTSN8opendnp320SimpleCommandHandlerE, 34
_ZTSN8opendnp320SimpleCommandHandlerE:
	.ascii	"N8opendnp320SimpleCommandHandlerE\000"
	.section	.data.rel.ro,"aw",%progbits
	.align	2
	.type	_ZTIN8opendnp320SimpleCommandHandlerE, %object
	.size	_ZTIN8opendnp320SimpleCommandHandlerE, 12
_ZTIN8opendnp320SimpleCommandHandlerE:
	.word	_ZTVN10__cxxabiv120__si_class_type_infoE+8
	.word	_ZTSN8opendnp320SimpleCommandHandlerE
	.word	_ZTIN8opendnp315ICommandHandlerE
	.type	_ZTVN8opendnp320SimpleCommandHandlerE, %object
	.size	_ZTVN8opendnp320SimpleCommandHandlerE, 104
_ZTVN8opendnp320SimpleCommandHandlerE:
	.word	0
	.word	_ZTIN8opendnp320SimpleCommandHandlerE
	.word	_ZN8opendnp320SimpleCommandHandlerD1Ev
	.word	_ZN8opendnp320SimpleCommandHandlerD0Ev
	.word	_ZN8opendnp320SimpleCommandHandler5StartEv
	.word	_ZN8opendnp320SimpleCommandHandler3EndEv
	.word	_ZN8opendnp320SimpleCommandHandler6SelectERKNS_23ControlRelayOutputBlockEt
	.word	_ZN8opendnp320SimpleCommandHandler7OperateERKNS_23ControlRelayOutputBlockEtNS_11OperateTypeE
	.word	_ZN8opendnp320SimpleCommandHandler6SelectERKNS_17AnalogOutputInt16Et
	.word	_ZN8opendnp320SimpleCommandHandler7OperateERKNS_17AnalogOutputInt16EtNS_11OperateTypeE
	.word	_ZN8opendnp320SimpleCommandHandler6SelectERKNS_17AnalogOutputInt32Et
	.word	_ZN8opendnp320SimpleCommandHandler7OperateERKNS_17AnalogOutputInt32EtNS_11OperateTypeE
	.word	_ZN8opendnp320SimpleCommandHandler6SelectERKNS_19AnalogOutputFloat32Et
	.word	_ZN8opendnp320SimpleCommandHandler7OperateERKNS_19AnalogOutputFloat32EtNS_11OperateTypeE
	.word	_ZN8opendnp320SimpleCommandHandler6SelectERKNS_20AnalogOutputDouble64Et
	.word	_ZN8opendnp320SimpleCommandHandler7OperateERKNS_20AnalogOutputDouble64EtNS_11OperateTypeE
	.word	_ZN8opendnp320SimpleCommandHandler8DoSelectERKNS_23ControlRelayOutputBlockEt
	.word	_ZN8opendnp320SimpleCommandHandler9DoOperateERKNS_23ControlRelayOutputBlockEtNS_11OperateTypeE
	.word	_ZN8opendnp320SimpleCommandHandler8DoSelectERKNS_17AnalogOutputInt16Et
	.word	_ZN8opendnp320SimpleCommandHandler9DoOperateERKNS_17AnalogOutputInt16EtNS_11OperateTypeE
	.word	_ZN8opendnp320SimpleCommandHandler8DoSelectERKNS_17AnalogOutputInt32Et
	.word	_ZN8opendnp320SimpleCommandHandler9DoOperateERKNS_17AnalogOutputInt32EtNS_11OperateTypeE
	.word	_ZN8opendnp320SimpleCommandHandler8DoSelectERKNS_19AnalogOutputFloat32Et
	.word	_ZN8opendnp320SimpleCommandHandler9DoOperateERKNS_19AnalogOutputFloat32EtNS_11OperateTypeE
	.word	_ZN8opendnp320SimpleCommandHandler8DoSelectERKNS_20AnalogOutputDouble64Et
	.word	_ZN8opendnp320SimpleCommandHandler9DoOperateERKNS_20AnalogOutputDouble64EtNS_11OperateTypeE
	.ident	"GCC: (Raspbian 6.3.0-18+rpi1+deb9u1) 6.3.0 20170516"
	.section	.note.GNU-stack,"",%progbits
