	.arch armv6
	.eabi_attribute 28, 1
	.eabi_attribute 20, 1
	.eabi_attribute 21, 1
	.eabi_attribute 23, 3
	.eabi_attribute 24, 1
	.eabi_attribute 25, 1
	.eabi_attribute 26, 2
	.eabi_attribute 30, 2
	.eabi_attribute 34, 1
	.eabi_attribute 18, 4
	.file	"SocketChannel.cpp"
	.section	.text._ZNK4asio6detail15system_category4nameEv,"axG",%progbits,_ZNK4asio6detail15system_category4nameEv,comdat
	.align	2
	.weak	_ZNK4asio6detail15system_category4nameEv
	.syntax unified
	.arm
	.fpu vfp
	.type	_ZNK4asio6detail15system_category4nameEv, %function
_ZNK4asio6detail15system_category4nameEv:
	.fnstart
.LFB2064:
	@ args = 0, pretend = 0, frame = 0
	@ frame_needed = 0, uses_anonymous_args = 0
	@ link register save eliminated.
	ldr	r0, .L2
.LPIC0:
	add	r0, pc, r0
	bx	lr
.L3:
	.align	2
.L2:
	.word	.LC0-(.LPIC0+8)
	.cantunwind
	.fnend
	.size	_ZNK4asio6detail15system_category4nameEv, .-_ZNK4asio6detail15system_category4nameEv
	.section	.text._ZNK4asio5error6detail14netdb_category4nameEv,"axG",%progbits,_ZNK4asio5error6detail14netdb_category4nameEv,comdat
	.align	2
	.weak	_ZNK4asio5error6detail14netdb_category4nameEv
	.syntax unified
	.arm
	.fpu vfp
	.type	_ZNK4asio5error6detail14netdb_category4nameEv, %function
_ZNK4asio5error6detail14netdb_category4nameEv:
	.fnstart
.LFB2085:
	@ args = 0, pretend = 0, frame = 0
	@ frame_needed = 0, uses_anonymous_args = 0
	@ link register save eliminated.
	ldr	r0, .L5
.LPIC1:
	add	r0, pc, r0
	bx	lr
.L6:
	.align	2
.L5:
	.word	.LC1-(.LPIC1+8)
	.cantunwind
	.fnend
	.size	_ZNK4asio5error6detail14netdb_category4nameEv, .-_ZNK4asio5error6detail14netdb_category4nameEv
	.section	.text._ZNK4asio5error6detail17addrinfo_category4nameEv,"axG",%progbits,_ZNK4asio5error6detail17addrinfo_category4nameEv,comdat
	.align	2
	.weak	_ZNK4asio5error6detail17addrinfo_category4nameEv
	.syntax unified
	.arm
	.fpu vfp
	.type	_ZNK4asio5error6detail17addrinfo_category4nameEv, %function
_ZNK4asio5error6detail17addrinfo_category4nameEv:
	.fnstart
.LFB2091:
	@ args = 0, pretend = 0, frame = 0
	@ frame_needed = 0, uses_anonymous_args = 0
	@ link register save eliminated.
	ldr	r0, .L8
.LPIC2:
	add	r0, pc, r0
	bx	lr
.L9:
	.align	2
.L8:
	.word	.LC2-(.LPIC2+8)
	.cantunwind
	.fnend
	.size	_ZNK4asio5error6detail17addrinfo_category4nameEv, .-_ZNK4asio5error6detail17addrinfo_category4nameEv
	.section	.text._ZNK4asio5error6detail13misc_category4nameEv,"axG",%progbits,_ZNK4asio5error6detail13misc_category4nameEv,comdat
	.align	2
	.weak	_ZNK4asio5error6detail13misc_category4nameEv
	.syntax unified
	.arm
	.fpu vfp
	.type	_ZNK4asio5error6detail13misc_category4nameEv, %function
_ZNK4asio5error6detail13misc_category4nameEv:
	.fnstart
.LFB2097:
	@ args = 0, pretend = 0, frame = 0
	@ frame_needed = 0, uses_anonymous_args = 0
	@ link register save eliminated.
	ldr	r0, .L11
.LPIC3:
	add	r0, pc, r0
	bx	lr
.L12:
	.align	2
.L11:
	.word	.LC3-(.LPIC3+8)
	.cantunwind
	.fnend
	.size	_ZNK4asio5error6detail13misc_category4nameEv, .-_ZNK4asio5error6detail13misc_category4nameEv
	.section	.text._ZN4asio6detail10service_idINS0_13epoll_reactorEED2Ev,"axG",%progbits,_ZN4asio6detail10service_idINS0_13epoll_reactorEED5Ev,comdat
	.align	2
	.weak	_ZN4asio6detail10service_idINS0_13epoll_reactorEED2Ev
	.syntax unified
	.arm
	.fpu vfp
	.type	_ZN4asio6detail10service_idINS0_13epoll_reactorEED2Ev, %function
_ZN4asio6detail10service_idINS0_13epoll_reactorEED2Ev:
	.fnstart
.LFB9104:
	@ args = 0, pretend = 0, frame = 0
	@ frame_needed = 0, uses_anonymous_args = 0
	@ link register save eliminated.
	bx	lr
	.cantunwind
	.fnend
	.size	_ZN4asio6detail10service_idINS0_13epoll_reactorEED2Ev, .-_ZN4asio6detail10service_idINS0_13epoll_reactorEED2Ev
	.weak	_ZN4asio6detail10service_idINS0_13epoll_reactorEED1Ev
	.set	_ZN4asio6detail10service_idINS0_13epoll_reactorEED1Ev,_ZN4asio6detail10service_idINS0_13epoll_reactorEED2Ev
	.section	.text._ZN4asio6detail10service_idINS0_15task_io_serviceEED2Ev,"axG",%progbits,_ZN4asio6detail10service_idINS0_15task_io_serviceEED5Ev,comdat
	.align	2
	.weak	_ZN4asio6detail10service_idINS0_15task_io_serviceEED2Ev
	.syntax unified
	.arm
	.fpu vfp
	.type	_ZN4asio6detail10service_idINS0_15task_io_serviceEED2Ev, %function
_ZN4asio6detail10service_idINS0_15task_io_serviceEED2Ev:
	.fnstart
.LFB9107:
	@ args = 0, pretend = 0, frame = 0
	@ frame_needed = 0, uses_anonymous_args = 0
	@ link register save eliminated.
	bx	lr
	.cantunwind
	.fnend
	.size	_ZN4asio6detail10service_idINS0_15task_io_serviceEED2Ev, .-_ZN4asio6detail10service_idINS0_15task_io_serviceEED2Ev
	.weak	_ZN4asio6detail10service_idINS0_15task_io_serviceEED1Ev
	.set	_ZN4asio6detail10service_idINS0_15task_io_serviceEED1Ev,_ZN4asio6detail10service_idINS0_15task_io_serviceEED2Ev
	.section	.text._ZN4asio6detail10service_idINS0_14strand_serviceEED2Ev,"axG",%progbits,_ZN4asio6detail10service_idINS0_14strand_serviceEED5Ev,comdat
	.align	2
	.weak	_ZN4asio6detail10service_idINS0_14strand_serviceEED2Ev
	.syntax unified
	.arm
	.fpu vfp
	.type	_ZN4asio6detail10service_idINS0_14strand_serviceEED2Ev, %function
_ZN4asio6detail10service_idINS0_14strand_serviceEED2Ev:
	.fnstart
.LFB9113:
	@ args = 0, pretend = 0, frame = 0
	@ frame_needed = 0, uses_anonymous_args = 0
	@ link register save eliminated.
	bx	lr
	.cantunwind
	.fnend
	.size	_ZN4asio6detail10service_idINS0_14strand_serviceEED2Ev, .-_ZN4asio6detail10service_idINS0_14strand_serviceEED2Ev
	.weak	_ZN4asio6detail10service_idINS0_14strand_serviceEED1Ev
	.set	_ZN4asio6detail10service_idINS0_14strand_serviceEED1Ev,_ZN4asio6detail10service_idINS0_14strand_serviceEED2Ev
	.section	.text._ZN4asio6detail15system_categoryD2Ev,"axG",%progbits,_ZN4asio6detail15system_categoryD5Ev,comdat
	.align	2
	.weak	_ZN4asio6detail15system_categoryD2Ev
	.syntax unified
	.arm
	.fpu vfp
	.type	_ZN4asio6detail15system_categoryD2Ev, %function
_ZN4asio6detail15system_categoryD2Ev:
	.fnstart
.LFB9080:
	@ args = 0, pretend = 0, frame = 0
	@ frame_needed = 0, uses_anonymous_args = 0
	ldr	r3, .L18
	ldr	r2, .L18+4
.LPIC4:
	add	r3, pc, r3
	push	{r4, lr}
	mov	r4, r0
	ldr	r3, [r3, r2]
	add	r3, r3, #8
	str	r3, [r0]
	bl	_ZNSt3_V214error_categoryD2Ev(PLT)
	mov	r0, r4
	pop	{r4, pc}
.L19:
	.align	2
.L18:
	.word	_GLOBAL_OFFSET_TABLE_-(.LPIC4+8)
	.word	_ZTVN4asio6detail15system_categoryE(GOT)
	.cantunwind
	.fnend
	.size	_ZN4asio6detail15system_categoryD2Ev, .-_ZN4asio6detail15system_categoryD2Ev
	.weak	_ZN4asio6detail15system_categoryD1Ev
	.set	_ZN4asio6detail15system_categoryD1Ev,_ZN4asio6detail15system_categoryD2Ev
	.section	.text._ZN4asio6detail15system_categoryD0Ev,"axG",%progbits,_ZN4asio6detail15system_categoryD5Ev,comdat
	.align	2
	.weak	_ZN4asio6detail15system_categoryD0Ev
	.syntax unified
	.arm
	.fpu vfp
	.type	_ZN4asio6detail15system_categoryD0Ev, %function
_ZN4asio6detail15system_categoryD0Ev:
	.fnstart
.LFB9082:
	@ args = 0, pretend = 0, frame = 0
	@ frame_needed = 0, uses_anonymous_args = 0
	ldr	r3, .L22
	ldr	r2, .L22+4
.LPIC5:
	add	r3, pc, r3
	push	{r4, lr}
	mov	r4, r0
	ldr	r3, [r3, r2]
	add	r3, r3, #8
	str	r3, [r0]
	bl	_ZNSt3_V214error_categoryD2Ev(PLT)
	mov	r0, r4
	mov	r1, #4
	bl	_ZdlPvj(PLT)
	mov	r0, r4
	pop	{r4, pc}
.L23:
	.align	2
.L22:
	.word	_GLOBAL_OFFSET_TABLE_-(.LPIC5+8)
	.word	_ZTVN4asio6detail15system_categoryE(GOT)
	.cantunwind
	.fnend
	.size	_ZN4asio6detail15system_categoryD0Ev, .-_ZN4asio6detail15system_categoryD0Ev
	.section	.text._ZN4asio5error6detail13misc_categoryD2Ev,"axG",%progbits,_ZN4asio5error6detail13misc_categoryD5Ev,comdat
	.align	2
	.weak	_ZN4asio5error6detail13misc_categoryD2Ev
	.syntax unified
	.arm
	.fpu vfp
	.type	_ZN4asio5error6detail13misc_categoryD2Ev, %function
_ZN4asio5error6detail13misc_categoryD2Ev:
	.fnstart
.LFB9068:
	@ args = 0, pretend = 0, frame = 0
	@ frame_needed = 0, uses_anonymous_args = 0
	ldr	r3, .L26
	ldr	r2, .L26+4
.LPIC6:
	add	r3, pc, r3
	push	{r4, lr}
	mov	r4, r0
	ldr	r3, [r3, r2]
	add	r3, r3, #8
	str	r3, [r0]
	bl	_ZNSt3_V214error_categoryD2Ev(PLT)
	mov	r0, r4
	pop	{r4, pc}
.L27:
	.align	2
.L26:
	.word	_GLOBAL_OFFSET_TABLE_-(.LPIC6+8)
	.word	_ZTVN4asio5error6detail13misc_categoryE(GOT)
	.cantunwind
	.fnend
	.size	_ZN4asio5error6detail13misc_categoryD2Ev, .-_ZN4asio5error6detail13misc_categoryD2Ev
	.weak	_ZN4asio5error6detail13misc_categoryD1Ev
	.set	_ZN4asio5error6detail13misc_categoryD1Ev,_ZN4asio5error6detail13misc_categoryD2Ev
	.section	.text._ZN4asio5error6detail13misc_categoryD0Ev,"axG",%progbits,_ZN4asio5error6detail13misc_categoryD5Ev,comdat
	.align	2
	.weak	_ZN4asio5error6detail13misc_categoryD0Ev
	.syntax unified
	.arm
	.fpu vfp
	.type	_ZN4asio5error6detail13misc_categoryD0Ev, %function
_ZN4asio5error6detail13misc_categoryD0Ev:
	.fnstart
.LFB9070:
	@ args = 0, pretend = 0, frame = 0
	@ frame_needed = 0, uses_anonymous_args = 0
	ldr	r3, .L30
	ldr	r2, .L30+4
.LPIC7:
	add	r3, pc, r3
	push	{r4, lr}
	mov	r4, r0
	ldr	r3, [r3, r2]
	add	r3, r3, #8
	str	r3, [r0]
	bl	_ZNSt3_V214error_categoryD2Ev(PLT)
	mov	r0, r4
	mov	r1, #4
	bl	_ZdlPvj(PLT)
	mov	r0, r4
	pop	{r4, pc}
.L31:
	.align	2
.L30:
	.word	_GLOBAL_OFFSET_TABLE_-(.LPIC7+8)
	.word	_ZTVN4asio5error6detail13misc_categoryE(GOT)
	.cantunwind
	.fnend
	.size	_ZN4asio5error6detail13misc_categoryD0Ev, .-_ZN4asio5error6detail13misc_categoryD0Ev
	.section	.text._ZN4asio5error6detail14netdb_categoryD2Ev,"axG",%progbits,_ZN4asio5error6detail14netdb_categoryD5Ev,comdat
	.align	2
	.weak	_ZN4asio5error6detail14netdb_categoryD2Ev
	.syntax unified
	.arm
	.fpu vfp
	.type	_ZN4asio5error6detail14netdb_categoryD2Ev, %function
_ZN4asio5error6detail14netdb_categoryD2Ev:
	.fnstart
.LFB9076:
	@ args = 0, pretend = 0, frame = 0
	@ frame_needed = 0, uses_anonymous_args = 0
	ldr	r3, .L34
	ldr	r2, .L34+4
.LPIC8:
	add	r3, pc, r3
	push	{r4, lr}
	mov	r4, r0
	ldr	r3, [r3, r2]
	add	r3, r3, #8
	str	r3, [r0]
	bl	_ZNSt3_V214error_categoryD2Ev(PLT)
	mov	r0, r4
	pop	{r4, pc}
.L35:
	.align	2
.L34:
	.word	_GLOBAL_OFFSET_TABLE_-(.LPIC8+8)
	.word	_ZTVN4asio5error6detail14netdb_categoryE(GOT)
	.cantunwind
	.fnend
	.size	_ZN4asio5error6detail14netdb_categoryD2Ev, .-_ZN4asio5error6detail14netdb_categoryD2Ev
	.weak	_ZN4asio5error6detail14netdb_categoryD1Ev
	.set	_ZN4asio5error6detail14netdb_categoryD1Ev,_ZN4asio5error6detail14netdb_categoryD2Ev
	.section	.text._ZN4asio5error6detail14netdb_categoryD0Ev,"axG",%progbits,_ZN4asio5error6detail14netdb_categoryD5Ev,comdat
	.align	2
	.weak	_ZN4asio5error6detail14netdb_categoryD0Ev
	.syntax unified
	.arm
	.fpu vfp
	.type	_ZN4asio5error6detail14netdb_categoryD0Ev, %function
_ZN4asio5error6detail14netdb_categoryD0Ev:
	.fnstart
.LFB9078:
	@ args = 0, pretend = 0, frame = 0
	@ frame_needed = 0, uses_anonymous_args = 0
	ldr	r3, .L38
	ldr	r2, .L38+4
.LPIC9:
	add	r3, pc, r3
	push	{r4, lr}
	mov	r4, r0
	ldr	r3, [r3, r2]
	add	r3, r3, #8
	str	r3, [r0]
	bl	_ZNSt3_V214error_categoryD2Ev(PLT)
	mov	r0, r4
	mov	r1, #4
	bl	_ZdlPvj(PLT)
	mov	r0, r4
	pop	{r4, pc}
.L39:
	.align	2
.L38:
	.word	_GLOBAL_OFFSET_TABLE_-(.LPIC9+8)
	.word	_ZTVN4asio5error6detail14netdb_categoryE(GOT)
	.cantunwind
	.fnend
	.size	_ZN4asio5error6detail14netdb_categoryD0Ev, .-_ZN4asio5error6detail14netdb_categoryD0Ev
	.section	.text._ZN4asio5error6detail17addrinfo_categoryD2Ev,"axG",%progbits,_ZN4asio5error6detail17addrinfo_categoryD5Ev,comdat
	.align	2
	.weak	_ZN4asio5error6detail17addrinfo_categoryD2Ev
	.syntax unified
	.arm
	.fpu vfp
	.type	_ZN4asio5error6detail17addrinfo_categoryD2Ev, %function
_ZN4asio5error6detail17addrinfo_categoryD2Ev:
	.fnstart
.LFB9072:
	@ args = 0, pretend = 0, frame = 0
	@ frame_needed = 0, uses_anonymous_args = 0
	ldr	r3, .L42
	ldr	r2, .L42+4
.LPIC10:
	add	r3, pc, r3
	push	{r4, lr}
	mov	r4, r0
	ldr	r3, [r3, r2]
	add	r3, r3, #8
	str	r3, [r0]
	bl	_ZNSt3_V214error_categoryD2Ev(PLT)
	mov	r0, r4
	pop	{r4, pc}
.L43:
	.align	2
.L42:
	.word	_GLOBAL_OFFSET_TABLE_-(.LPIC10+8)
	.word	_ZTVN4asio5error6detail17addrinfo_categoryE(GOT)
	.cantunwind
	.fnend
	.size	_ZN4asio5error6detail17addrinfo_categoryD2Ev, .-_ZN4asio5error6detail17addrinfo_categoryD2Ev
	.weak	_ZN4asio5error6detail17addrinfo_categoryD1Ev
	.set	_ZN4asio5error6detail17addrinfo_categoryD1Ev,_ZN4asio5error6detail17addrinfo_categoryD2Ev
	.section	.text._ZN4asio5error6detail17addrinfo_categoryD0Ev,"axG",%progbits,_ZN4asio5error6detail17addrinfo_categoryD5Ev,comdat
	.align	2
	.weak	_ZN4asio5error6detail17addrinfo_categoryD0Ev
	.syntax unified
	.arm
	.fpu vfp
	.type	_ZN4asio5error6detail17addrinfo_categoryD0Ev, %function
_ZN4asio5error6detail17addrinfo_categoryD0Ev:
	.fnstart
.LFB9074:
	@ args = 0, pretend = 0, frame = 0
	@ frame_needed = 0, uses_anonymous_args = 0
	ldr	r3, .L46
	ldr	r2, .L46+4
.LPIC11:
	add	r3, pc, r3
	push	{r4, lr}
	mov	r4, r0
	ldr	r3, [r3, r2]
	add	r3, r3, #8
	str	r3, [r0]
	bl	_ZNSt3_V214error_categoryD2Ev(PLT)
	mov	r0, r4
	mov	r1, #4
	bl	_ZdlPvj(PLT)
	mov	r0, r4
	pop	{r4, pc}
.L47:
	.align	2
.L46:
	.word	_GLOBAL_OFFSET_TABLE_-(.LPIC11+8)
	.word	_ZTVN4asio5error6detail17addrinfo_categoryE(GOT)
	.cantunwind
	.fnend
	.size	_ZN4asio5error6detail17addrinfo_categoryD0Ev, .-_ZN4asio5error6detail17addrinfo_categoryD0Ev
	.section	.text._ZN4asio6detail7tss_ptrINS0_10call_stackINS0_15task_io_serviceENS0_27task_io_service_thread_infoEE7contextEED2Ev,"axG",%progbits,_ZN4asio6detail7tss_ptrINS0_10call_stackINS0_15task_io_serviceENS0_27task_io_service_thread_infoEE7contextEED5Ev,comdat
	.align	2
	.weak	_ZN4asio6detail7tss_ptrINS0_10call_stackINS0_15task_io_serviceENS0_27task_io_service_thread_infoEE7contextEED2Ev
	.syntax unified
	.arm
	.fpu vfp
	.type	_ZN4asio6detail7tss_ptrINS0_10call_stackINS0_15task_io_serviceENS0_27task_io_service_thread_infoEE7contextEED2Ev, %function
_ZN4asio6detail7tss_ptrINS0_10call_stackINS0_15task_io_serviceENS0_27task_io_service_thread_infoEE7contextEED2Ev:
	.fnstart
.LFB9101:
	@ args = 0, pretend = 0, frame = 0
	@ frame_needed = 0, uses_anonymous_args = 0
	push	{r4, lr}
	mov	r4, r0
	ldr	r0, [r0]
	bl	pthread_key_delete(PLT)
	mov	r0, r4
	pop	{r4, pc}
	.cantunwind
	.fnend
	.size	_ZN4asio6detail7tss_ptrINS0_10call_stackINS0_15task_io_serviceENS0_27task_io_service_thread_infoEE7contextEED2Ev, .-_ZN4asio6detail7tss_ptrINS0_10call_stackINS0_15task_io_serviceENS0_27task_io_service_thread_infoEE7contextEED2Ev
	.weak	_ZN4asio6detail7tss_ptrINS0_10call_stackINS0_15task_io_serviceENS0_27task_io_service_thread_infoEE7contextEED1Ev
	.set	_ZN4asio6detail7tss_ptrINS0_10call_stackINS0_15task_io_serviceENS0_27task_io_service_thread_infoEE7contextEED1Ev,_ZN4asio6detail7tss_ptrINS0_10call_stackINS0_15task_io_serviceENS0_27task_io_service_thread_infoEE7contextEED2Ev
	.section	.text._ZN4asio6detail7tss_ptrINS0_10call_stackINS0_14strand_service11strand_implEhE7contextEED2Ev,"axG",%progbits,_ZN4asio6detail7tss_ptrINS0_10call_stackINS0_14strand_service11strand_implEhE7contextEED5Ev,comdat
	.align	2
	.weak	_ZN4asio6detail7tss_ptrINS0_10call_stackINS0_14strand_service11strand_implEhE7contextEED2Ev
	.syntax unified
	.arm
	.fpu vfp
	.type	_ZN4asio6detail7tss_ptrINS0_10call_stackINS0_14strand_service11strand_implEhE7contextEED2Ev, %function
_ZN4asio6detail7tss_ptrINS0_10call_stackINS0_14strand_service11strand_implEhE7contextEED2Ev:
	.fnstart
.LFB9110:
	@ args = 0, pretend = 0, frame = 0
	@ frame_needed = 0, uses_anonymous_args = 0
	push	{r4, lr}
	mov	r4, r0
	ldr	r0, [r0]
	bl	pthread_key_delete(PLT)
	mov	r0, r4
	pop	{r4, pc}
	.cantunwind
	.fnend
	.size	_ZN4asio6detail7tss_ptrINS0_10call_stackINS0_14strand_service11strand_implEhE7contextEED2Ev, .-_ZN4asio6detail7tss_ptrINS0_10call_stackINS0_14strand_service11strand_implEhE7contextEED2Ev
	.weak	_ZN4asio6detail7tss_ptrINS0_10call_stackINS0_14strand_service11strand_implEhE7contextEED1Ev
	.set	_ZN4asio6detail7tss_ptrINS0_10call_stackINS0_14strand_service11strand_implEhE7contextEED1Ev,_ZN4asio6detail7tss_ptrINS0_10call_stackINS0_14strand_service11strand_implEhE7contextEED2Ev
	.section	.text.unlikely,"ax",%progbits
	.align	2
	.syntax unified
	.arm
	.fpu vfp
	.type	_ZN4asio6detail23reactive_socket_send_opINS_15const_buffers_1ENS0_8write_opINS_19basic_stream_socketINS_2ip3tcpENS_21stream_socket_serviceIS6_EEEES2_NS0_14transfer_all_tENS0_15wrapped_handlerINS_10io_service6strandEZN7asiopal13SocketChannel14BeginWriteImplERKN7openpal6RSliceEEUlRKSt10error_codejE_NS0_26is_continuation_if_runningEEEEEE3ptr5resetEv, %function
_ZN4asio6detail23reactive_socket_send_opINS_15const_buffers_1ENS0_8write_opINS_19basic_stream_socketINS_2ip3tcpENS_21stream_socket_serviceIS6_EEEES2_NS0_14transfer_all_tENS0_15wrapped_handlerINS_10io_service6strandEZN7asiopal13SocketChannel14BeginWriteImplERKN7openpal6RSliceEEUlRKSt10error_codejE_NS0_26is_continuation_if_runningEEEEEE3ptr5resetEv:
	.fnstart
.LFB8783:
	@ args = 0, pretend = 0, frame = 0
	@ frame_needed = 0, uses_anonymous_args = 0
	ldr	r2, [r0, #8]
	push	{r4, r5, r6, lr}
	cmp	r2, #0
	ldr	r4, [r0, #4]
	movne	r2, #0
	ldr	r3, .L71
	strne	r2, [r0, #8]
	cmp	r4, #0
.LPIC12:
	add	r3, pc, r3
	popeq	{r4, r5, r6, pc}
	ldr	r2, .L71+4
	mov	r5, r0
	ldr	r3, [r3, r2]
	ldr	r0, [r3]
	bl	pthread_getspecific(PLT)
	cmp	r0, #0
	beq	.L55
	ldr	r3, [r0, #4]
	cmp	r3, #0
	beq	.L55
	ldr	r2, [r3]
	cmp	r2, #0
	ldrbeq	r2, [r4, #76]	@ zero_extendqisi2
	strbeq	r2, [r4]
	streq	r4, [r3]
	beq	.L56
.L55:
	mov	r0, r4
	bl	_ZdlPv(PLT)
.L56:
	mov	r3, #0
	str	r3, [r5, #4]
	pop	{r4, r5, r6, pc}
.L72:
	.align	2
.L71:
	.word	_GLOBAL_OFFSET_TABLE_-(.LPIC12+8)
	.word	_ZN4asio6detail10call_stackINS0_15task_io_serviceENS0_27task_io_service_thread_infoEE4top_E(GOT)
	.cantunwind
	.fnend
	.size	_ZN4asio6detail23reactive_socket_send_opINS_15const_buffers_1ENS0_8write_opINS_19basic_stream_socketINS_2ip3tcpENS_21stream_socket_serviceIS6_EEEES2_NS0_14transfer_all_tENS0_15wrapped_handlerINS_10io_service6strandEZN7asiopal13SocketChannel14BeginWriteImplERKN7openpal6RSliceEEUlRKSt10error_codejE_NS0_26is_continuation_if_runningEEEEEE3ptr5resetEv, .-_ZN4asio6detail23reactive_socket_send_opINS_15const_buffers_1ENS0_8write_opINS_19basic_stream_socketINS_2ip3tcpENS_21stream_socket_serviceIS6_EEEES2_NS0_14transfer_all_tENS0_15wrapped_handlerINS_10io_service6strandEZN7asiopal13SocketChannel14BeginWriteImplERKN7openpal6RSliceEEUlRKSt10error_codejE_NS0_26is_continuation_if_runningEEEEEE3ptr5resetEv
	.align	2
	.syntax unified
	.arm
	.fpu vfp
	.type	_ZN4asio6detail18completion_handlerINS0_17rewrapped_handlerINS0_7binder2INS0_15wrapped_handlerINS_10io_service6strandEZN7asiopal13SocketChannel13BeginReadImplEN7openpal6WSliceEEUlRKSt10error_codejE_NS0_26is_continuation_if_runningEEESB_jEESE_EEE3ptr5resetEv, %function
_ZN4asio6detail18completion_handlerINS0_17rewrapped_handlerINS0_7binder2INS0_15wrapped_handlerINS_10io_service6strandEZN7asiopal13SocketChannel13BeginReadImplEN7openpal6WSliceEEUlRKSt10error_codejE_NS0_26is_continuation_if_runningEEESB_jEESE_EEE3ptr5resetEv:
	.fnstart
.LFB8928:
	@ args = 0, pretend = 0, frame = 0
	@ frame_needed = 0, uses_anonymous_args = 0
	ldr	r2, [r0, #8]
	push	{r4, r5, r6, lr}
	cmp	r2, #0
	ldr	r4, [r0, #4]
	movne	r2, #0
	ldr	r3, .L91
	strne	r2, [r0, #8]
	cmp	r4, #0
.LPIC13:
	add	r3, pc, r3
	popeq	{r4, r5, r6, pc}
	ldr	r2, .L91+4
	mov	r5, r0
	ldr	r3, [r3, r2]
	ldr	r0, [r3]
	bl	pthread_getspecific(PLT)
	cmp	r0, #0
	beq	.L76
	ldr	r3, [r0, #4]
	cmp	r3, #0
	beq	.L76
	ldr	r2, [r3]
	cmp	r2, #0
	ldrbeq	r2, [r4, #40]	@ zero_extendqisi2
	strbeq	r2, [r4]
	streq	r4, [r3]
	beq	.L77
.L76:
	mov	r0, r4
	bl	_ZdlPv(PLT)
.L77:
	mov	r3, #0
	str	r3, [r5, #4]
	pop	{r4, r5, r6, pc}
.L92:
	.align	2
.L91:
	.word	_GLOBAL_OFFSET_TABLE_-(.LPIC13+8)
	.word	_ZN4asio6detail10call_stackINS0_15task_io_serviceENS0_27task_io_service_thread_infoEE4top_E(GOT)
	.cantunwind
	.fnend
	.size	_ZN4asio6detail18completion_handlerINS0_17rewrapped_handlerINS0_7binder2INS0_15wrapped_handlerINS_10io_service6strandEZN7asiopal13SocketChannel13BeginReadImplEN7openpal6WSliceEEUlRKSt10error_codejE_NS0_26is_continuation_if_runningEEESB_jEESE_EEE3ptr5resetEv, .-_ZN4asio6detail18completion_handlerINS0_17rewrapped_handlerINS0_7binder2INS0_15wrapped_handlerINS_10io_service6strandEZN7asiopal13SocketChannel13BeginReadImplEN7openpal6WSliceEEUlRKSt10error_codejE_NS0_26is_continuation_if_runningEEESB_jEESE_EEE3ptr5resetEv
	.align	2
	.syntax unified
	.arm
	.fpu vfp
	.type	_ZN4asio6detail18completion_handlerINS0_7binder2IZN7asiopal13SocketChannel14BeginWriteImplERKN7openpal6RSliceEEUlRKSt10error_codejE_S9_jEEE3ptr5resetEv, %function
_ZN4asio6detail18completion_handlerINS0_7binder2IZN7asiopal13SocketChannel14BeginWriteImplERKN7openpal6RSliceEEUlRKSt10error_codejE_S9_jEEE3ptr5resetEv:
	.fnstart
.LFB8797:
	@ args = 0, pretend = 0, frame = 0
	@ frame_needed = 0, uses_anonymous_args = 0
	ldr	r2, [r0, #8]
	push	{r4, r5, r6, lr}
	cmp	r2, #0
	ldr	r4, [r0, #4]
	movne	r2, #0
	ldr	r3, .L111
	strne	r2, [r0, #8]
	cmp	r4, #0
.LPIC14:
	add	r3, pc, r3
	popeq	{r4, r5, r6, pc}
	ldr	r2, .L111+4
	mov	r5, r0
	ldr	r3, [r3, r2]
	ldr	r0, [r3]
	bl	pthread_getspecific(PLT)
	cmp	r0, #0
	beq	.L96
	ldr	r3, [r0, #4]
	cmp	r3, #0
	beq	.L96
	ldr	r2, [r3]
	cmp	r2, #0
	ldrbeq	r2, [r4, #28]	@ zero_extendqisi2
	strbeq	r2, [r4]
	streq	r4, [r3]
	beq	.L97
.L96:
	mov	r0, r4
	bl	_ZdlPv(PLT)
.L97:
	mov	r3, #0
	str	r3, [r5, #4]
	pop	{r4, r5, r6, pc}
.L112:
	.align	2
.L111:
	.word	_GLOBAL_OFFSET_TABLE_-(.LPIC14+8)
	.word	_ZN4asio6detail10call_stackINS0_15task_io_serviceENS0_27task_io_service_thread_infoEE4top_E(GOT)
	.cantunwind
	.fnend
	.size	_ZN4asio6detail18completion_handlerINS0_7binder2IZN7asiopal13SocketChannel14BeginWriteImplERKN7openpal6RSliceEEUlRKSt10error_codejE_S9_jEEE3ptr5resetEv, .-_ZN4asio6detail18completion_handlerINS0_7binder2IZN7asiopal13SocketChannel14BeginWriteImplERKN7openpal6RSliceEEUlRKSt10error_codejE_S9_jEEE3ptr5resetEv
	.align	2
	.syntax unified
	.arm
	.fpu vfp
	.type	_ZN4asio6detail18completion_handlerINS0_7binder2IZN7asiopal13SocketChannel13BeginReadImplEN7openpal6WSliceEEUlRKSt10error_codejE_S7_jEEE3ptr5resetEv, %function
_ZN4asio6detail18completion_handlerINS0_7binder2IZN7asiopal13SocketChannel13BeginReadImplEN7openpal6WSliceEEUlRKSt10error_codejE_S7_jEEE3ptr5resetEv:
	.fnstart
.LFB9014:
	@ args = 0, pretend = 0, frame = 0
	@ frame_needed = 0, uses_anonymous_args = 0
	ldr	r2, [r0, #8]
	push	{r4, r5, r6, lr}
	cmp	r2, #0
	ldr	r4, [r0, #4]
	movne	r2, #0
	ldr	r3, .L131
	strne	r2, [r0, #8]
	cmp	r4, #0
.LPIC15:
	add	r3, pc, r3
	popeq	{r4, r5, r6, pc}
	ldr	r2, .L131+4
	mov	r5, r0
	ldr	r3, [r3, r2]
	ldr	r0, [r3]
	bl	pthread_getspecific(PLT)
	cmp	r0, #0
	beq	.L116
	ldr	r3, [r0, #4]
	cmp	r3, #0
	beq	.L116
	ldr	r2, [r3]
	cmp	r2, #0
	ldrbeq	r2, [r4, #28]	@ zero_extendqisi2
	strbeq	r2, [r4]
	streq	r4, [r3]
	beq	.L117
.L116:
	mov	r0, r4
	bl	_ZdlPv(PLT)
.L117:
	mov	r3, #0
	str	r3, [r5, #4]
	pop	{r4, r5, r6, pc}
.L132:
	.align	2
.L131:
	.word	_GLOBAL_OFFSET_TABLE_-(.LPIC15+8)
	.word	_ZN4asio6detail10call_stackINS0_15task_io_serviceENS0_27task_io_service_thread_infoEE4top_E(GOT)
	.cantunwind
	.fnend
	.size	_ZN4asio6detail18completion_handlerINS0_7binder2IZN7asiopal13SocketChannel13BeginReadImplEN7openpal6WSliceEEUlRKSt10error_codejE_S7_jEEE3ptr5resetEv, .-_ZN4asio6detail18completion_handlerINS0_7binder2IZN7asiopal13SocketChannel13BeginReadImplEN7openpal6WSliceEEUlRKSt10error_codejE_S7_jEEE3ptr5resetEv
	.align	2
	.syntax unified
	.arm
	.fpu vfp
	.type	_ZN4asio6detail18completion_handlerINS0_17rewrapped_handlerINS0_7binder2INS0_8write_opINS_19basic_stream_socketINS_2ip3tcpENS_21stream_socket_serviceIS7_EEEENS_15const_buffers_1ENS0_14transfer_all_tENS0_15wrapped_handlerINS_10io_service6strandEZN7asiopal13SocketChannel14BeginWriteImplERKN7openpal6RSliceEEUlRKSt10error_codejE_NS0_26is_continuation_if_runningEEEEESM_jEESP_EEE3ptr5resetEv, %function
_ZN4asio6detail18completion_handlerINS0_17rewrapped_handlerINS0_7binder2INS0_8write_opINS_19basic_stream_socketINS_2ip3tcpENS_21stream_socket_serviceIS7_EEEENS_15const_buffers_1ENS0_14transfer_all_tENS0_15wrapped_handlerINS_10io_service6strandEZN7asiopal13SocketChannel14BeginWriteImplERKN7openpal6RSliceEEUlRKSt10error_codejE_NS0_26is_continuation_if_runningEEEEESM_jEESP_EEE3ptr5resetEv:
	.fnstart
.LFB8977:
	@ args = 0, pretend = 0, frame = 0
	@ frame_needed = 0, uses_anonymous_args = 0
	ldr	r2, [r0, #8]
	push	{r4, r5, r6, lr}
	cmp	r2, #0
	ldr	r4, [r0, #4]
	movne	r2, #0
	ldr	r3, .L151
	strne	r2, [r0, #8]
	cmp	r4, #0
.LPIC16:
	add	r3, pc, r3
	popeq	{r4, r5, r6, pc}
	ldr	r2, .L151+4
	mov	r5, r0
	ldr	r3, [r3, r2]
	ldr	r0, [r3]
	bl	pthread_getspecific(PLT)
	cmp	r0, #0
	beq	.L136
	ldr	r3, [r0, #4]
	cmp	r3, #0
	beq	.L136
	ldr	r2, [r3]
	cmp	r2, #0
	ldrbeq	r2, [r4, #60]	@ zero_extendqisi2
	strbeq	r2, [r4]
	streq	r4, [r3]
	beq	.L137
.L136:
	mov	r0, r4
	bl	_ZdlPv(PLT)
.L137:
	mov	r3, #0
	str	r3, [r5, #4]
	pop	{r4, r5, r6, pc}
.L152:
	.align	2
.L151:
	.word	_GLOBAL_OFFSET_TABLE_-(.LPIC16+8)
	.word	_ZN4asio6detail10call_stackINS0_15task_io_serviceENS0_27task_io_service_thread_infoEE4top_E(GOT)
	.cantunwind
	.fnend
	.size	_ZN4asio6detail18completion_handlerINS0_17rewrapped_handlerINS0_7binder2INS0_8write_opINS_19basic_stream_socketINS_2ip3tcpENS_21stream_socket_serviceIS7_EEEENS_15const_buffers_1ENS0_14transfer_all_tENS0_15wrapped_handlerINS_10io_service6strandEZN7asiopal13SocketChannel14BeginWriteImplERKN7openpal6RSliceEEUlRKSt10error_codejE_NS0_26is_continuation_if_runningEEEEESM_jEESP_EEE3ptr5resetEv, .-_ZN4asio6detail18completion_handlerINS0_17rewrapped_handlerINS0_7binder2INS0_8write_opINS_19basic_stream_socketINS_2ip3tcpENS_21stream_socket_serviceIS7_EEEENS_15const_buffers_1ENS0_14transfer_all_tENS0_15wrapped_handlerINS_10io_service6strandEZN7asiopal13SocketChannel14BeginWriteImplERKN7openpal6RSliceEEUlRKSt10error_codejE_NS0_26is_continuation_if_runningEEEEESM_jEESP_EEE3ptr5resetEv
	.align	2
	.syntax unified
	.arm
	.fpu vfp
	.type	_ZN4asio6detail23reactive_socket_recv_opINS_17mutable_buffers_1ENS0_15wrapped_handlerINS_10io_service6strandEZN7asiopal13SocketChannel13BeginReadImplEN7openpal6WSliceEEUlRKSt10error_codejE_NS0_26is_continuation_if_runningEEEE3ptr5resetEv, %function
_ZN4asio6detail23reactive_socket_recv_opINS_17mutable_buffers_1ENS0_15wrapped_handlerINS_10io_service6strandEZN7asiopal13SocketChannel13BeginReadImplEN7openpal6WSliceEEUlRKSt10error_codejE_NS0_26is_continuation_if_runningEEEE3ptr5resetEv:
	.fnstart
.LFB8407:
	@ args = 0, pretend = 0, frame = 0
	@ frame_needed = 0, uses_anonymous_args = 0
	ldr	r2, [r0, #8]
	push	{r4, r5, r6, lr}
	cmp	r2, #0
	ldr	r4, [r0, #4]
	movne	r2, #0
	ldr	r3, .L171
	strne	r2, [r0, #8]
	cmp	r4, #0
.LPIC17:
	add	r3, pc, r3
	popeq	{r4, r5, r6, pc}
	ldr	r2, .L171+4
	mov	r5, r0
	ldr	r3, [r3, r2]
	ldr	r0, [r3]
	bl	pthread_getspecific(PLT)
	cmp	r0, #0
	beq	.L156
	ldr	r3, [r0, #4]
	cmp	r3, #0
	beq	.L156
	ldr	r2, [r3]
	cmp	r2, #0
	ldrbeq	r2, [r4, #60]	@ zero_extendqisi2
	strbeq	r2, [r4]
	streq	r4, [r3]
	beq	.L157
.L156:
	mov	r0, r4
	bl	_ZdlPv(PLT)
.L157:
	mov	r3, #0
	str	r3, [r5, #4]
	pop	{r4, r5, r6, pc}
.L172:
	.align	2
.L171:
	.word	_GLOBAL_OFFSET_TABLE_-(.LPIC17+8)
	.word	_ZN4asio6detail10call_stackINS0_15task_io_serviceENS0_27task_io_service_thread_infoEE4top_E(GOT)
	.cantunwind
	.fnend
	.size	_ZN4asio6detail23reactive_socket_recv_opINS_17mutable_buffers_1ENS0_15wrapped_handlerINS_10io_service6strandEZN7asiopal13SocketChannel13BeginReadImplEN7openpal6WSliceEEUlRKSt10error_codejE_NS0_26is_continuation_if_runningEEEE3ptr5resetEv, .-_ZN4asio6detail23reactive_socket_recv_opINS_17mutable_buffers_1ENS0_15wrapped_handlerINS_10io_service6strandEZN7asiopal13SocketChannel13BeginReadImplEN7openpal6WSliceEEUlRKSt10error_codejE_NS0_26is_continuation_if_runningEEEE3ptr5resetEv
	.text
	.align	2
	.syntax unified
	.arm
	.fpu vfp
	.type	_ZN4asio6detail18completion_handlerINS0_7binder2IZN7asiopal13SocketChannel14BeginWriteImplERKN7openpal6RSliceEEUlRKSt10error_codejE_S9_jEEE11do_completeEPNS0_15task_io_serviceEPNS0_25task_io_service_operationESB_j, %function
_ZN4asio6detail18completion_handlerINS0_7binder2IZN7asiopal13SocketChannel14BeginWriteImplERKN7openpal6RSliceEEUlRKSt10error_codejE_S9_jEEE11do_completeEPNS0_15task_io_serviceEPNS0_25task_io_service_operationESB_j:
	.fnstart
.LFB8636:
	@ args = 0, pretend = 0, frame = 32
	@ frame_needed = 0, uses_anonymous_args = 0
	add	r3, r1, #12
	push	{r4, r5, r6, lr}
	.save {r4, r5, r6, lr}
	mov	r6, r1
	mov	r4, r0
	ldm	r3, {r0, r1, r2, r3}
	.pad #32
	sub	sp, sp, #32
	ldr	lr, .L213
	add	ip, sp, #16
	ldr	r5, .L213+4
.LPIC18:
	add	lr, pc, lr
	stm	ip, {r0, r1, r2, r3}
	mov	r3, #0
	str	r3, [sp, #12]
	str	r6, [sp, #8]
	str	ip, [sp, #4]
	ldr	r5, [lr, r5]
	mov	r3, lr
	ldr	r0, [r5]
	bl	pthread_getspecific(PLT)
	cmp	r0, #0
	beq	.L174
	ldr	r3, [r0, #4]
	cmp	r3, #0
	beq	.L174
	ldr	r2, [r3]
	cmp	r2, #0
	beq	.L209
.L174:
	mov	r0, r6
	bl	_ZdlPv(PLT)
.L175:
	mov	r1, #0
	cmp	r4, #0
	str	r1, [sp, #8]
	beq	.L176
	add	r3, sp, #32
	mov	r2, #1
	str	r1, [r3, #-32]!
.L205:
	ldrex	r0, [r3]
	strex	ip, r2, [r3]
	cmp	ip, #0
	bne	.L205
	mcr	p15, 0, r0, c7, c10, 5
	ldr	r3, [sp, #16]
	ldr	r2, [sp, #28]
	ldr	r0, [r3, #20]
	strb	r1, [r3, #30]
	cmp	r0, r1
	beq	.L180
	ldrb	r3, [r3, #28]	@ zero_extendqisi2
	cmp	r3, #0
	beq	.L210
.L180:
	mov	r3, #0
	mcr	p15, 0, r0, c7, c10, 5
	str	r3, [sp]
	ldr	r3, [sp, #12]
	cmp	r3, #0
	ldrne	r4, [sp, #8]
	beq	.L211
.L187:
	mov	r3, #0
	str	r3, [sp, #12]
.L182:
	cmp	r4, #0
	beq	.L173
	ldr	r0, [r5]
	bl	pthread_getspecific(PLT)
	cmp	r0, #0
	beq	.L185
	ldr	r3, [r0, #4]
	cmp	r3, #0
	beq	.L185
	ldr	r2, [r3]
	cmp	r2, #0
	beq	.L212
.L185:
	mov	r0, r4
	bl	_ZdlPv(PLT)
.L173:
	add	sp, sp, #32
	@ sp needed
	pop	{r4, r5, r6, pc}
.L210:
	ldr	r3, [r0]
	add	r1, sp, #20
	ldr	r3, [r3, #12]
.LEHB0:
	blx	r3
.LEHE0:
	b	.L180
.L211:
	ldr	r4, [sp, #8]
	b	.L182
.L176:
	ldr	r3, [sp, #12]
	cmp	r3, #0
	bne	.L187
	b	.L173
.L212:
	ldrb	r2, [r4, #28]	@ zero_extendqisi2
	strb	r2, [r4]
	str	r4, [r3]
	b	.L173
.L209:
	ldrb	r2, [r6, #28]	@ zero_extendqisi2
	strb	r2, [r6]
	str	r6, [r3]
	b	.L175
.L190:
	mov	r3, #0
	mcr	p15, 0, r0, c7, c10, 5
	add	r0, sp, #4
	str	r3, [sp]
	bl	_ZN4asio6detail18completion_handlerINS0_7binder2IZN7asiopal13SocketChannel14BeginWriteImplERKN7openpal6RSliceEEUlRKSt10error_codejE_S9_jEEE3ptr5resetEv(PLT)
.LEHB1:
	bl	__cxa_end_cleanup(PLT)
.LEHE1:
.L214:
	.align	2
.L213:
	.word	_GLOBAL_OFFSET_TABLE_-(.LPIC18+8)
	.word	_ZN4asio6detail10call_stackINS0_15task_io_serviceENS0_27task_io_service_thread_infoEE4top_E(GOT)
	.global	__gxx_personality_v0
	.personality	__gxx_personality_v0
	.handlerdata
.LLSDA8636:
	.byte	0xff
	.byte	0xff
	.byte	0x1
	.uleb128 .LLSDACSE8636-.LLSDACSB8636
.LLSDACSB8636:
	.uleb128 .LEHB0-.LFB8636
	.uleb128 .LEHE0-.LEHB0
	.uleb128 .L190-.LFB8636
	.uleb128 0
	.uleb128 .LEHB1-.LFB8636
	.uleb128 .LEHE1-.LEHB1
	.uleb128 0
	.uleb128 0
.LLSDACSE8636:
	.text
	.fnend
	.size	_ZN4asio6detail18completion_handlerINS0_7binder2IZN7asiopal13SocketChannel14BeginWriteImplERKN7openpal6RSliceEEUlRKSt10error_codejE_S9_jEEE11do_completeEPNS0_15task_io_serviceEPNS0_25task_io_service_operationESB_j, .-_ZN4asio6detail18completion_handlerINS0_7binder2IZN7asiopal13SocketChannel14BeginWriteImplERKN7openpal6RSliceEEUlRKSt10error_codejE_S9_jEEE11do_completeEPNS0_15task_io_serviceEPNS0_25task_io_service_operationESB_j
	.align	2
	.syntax unified
	.arm
	.fpu vfp
	.type	_ZN4asio6detail18completion_handlerINS0_7binder2IZN7asiopal13SocketChannel13BeginReadImplEN7openpal6WSliceEEUlRKSt10error_codejE_S7_jEEE11do_completeEPNS0_15task_io_serviceEPNS0_25task_io_service_operationES9_j, %function
_ZN4asio6detail18completion_handlerINS0_7binder2IZN7asiopal13SocketChannel13BeginReadImplEN7openpal6WSliceEEUlRKSt10error_codejE_S7_jEEE11do_completeEPNS0_15task_io_serviceEPNS0_25task_io_service_operationES9_j:
	.fnstart
.LFB9009:
	@ args = 0, pretend = 0, frame = 32
	@ frame_needed = 0, uses_anonymous_args = 0
	add	r3, r1, #12
	push	{r4, r5, r6, lr}
	.save {r4, r5, r6, lr}
	mov	r6, r1
	mov	r4, r0
	ldm	r3, {r0, r1, r2, r3}
	.pad #32
	sub	sp, sp, #32
	ldr	lr, .L255
	add	ip, sp, #16
	ldr	r5, .L255+4
.LPIC19:
	add	lr, pc, lr
	stm	ip, {r0, r1, r2, r3}
	mov	r3, #0
	str	r3, [sp, #12]
	str	r6, [sp, #8]
	str	ip, [sp, #4]
	ldr	r5, [lr, r5]
	mov	r3, lr
	ldr	r0, [r5]
	bl	pthread_getspecific(PLT)
	cmp	r0, #0
	beq	.L216
	ldr	r3, [r0, #4]
	cmp	r3, #0
	beq	.L216
	ldr	r2, [r3]
	cmp	r2, #0
	beq	.L251
.L216:
	mov	r0, r6
	bl	_ZdlPv(PLT)
.L217:
	mov	r1, #0
	cmp	r4, #0
	str	r1, [sp, #8]
	beq	.L218
	add	r3, sp, #32
	mov	r2, #1
	str	r1, [r3, #-32]!
.L247:
	ldrex	r0, [r3]
	strex	ip, r2, [r3]
	cmp	ip, #0
	bne	.L247
	mcr	p15, 0, r0, c7, c10, 5
	ldr	r3, [sp, #16]
	ldr	r2, [sp, #28]
	ldr	r0, [r3, #20]
	strb	r1, [r3, #29]
	cmp	r0, r1
	beq	.L222
	ldrb	r3, [r3, #28]	@ zero_extendqisi2
	cmp	r3, #0
	beq	.L252
.L222:
	mov	r3, #0
	mcr	p15, 0, r0, c7, c10, 5
	str	r3, [sp]
	ldr	r3, [sp, #12]
	cmp	r3, #0
	ldrne	r4, [sp, #8]
	beq	.L253
.L229:
	mov	r3, #0
	str	r3, [sp, #12]
.L224:
	cmp	r4, #0
	beq	.L215
	ldr	r0, [r5]
	bl	pthread_getspecific(PLT)
	cmp	r0, #0
	beq	.L227
	ldr	r3, [r0, #4]
	cmp	r3, #0
	beq	.L227
	ldr	r2, [r3]
	cmp	r2, #0
	beq	.L254
.L227:
	mov	r0, r4
	bl	_ZdlPv(PLT)
.L215:
	add	sp, sp, #32
	@ sp needed
	pop	{r4, r5, r6, pc}
.L252:
	ldr	r3, [r0]
	add	r1, sp, #20
	ldr	r3, [r3, #8]
.LEHB2:
	blx	r3
.LEHE2:
	b	.L222
.L253:
	ldr	r4, [sp, #8]
	b	.L224
.L218:
	ldr	r3, [sp, #12]
	cmp	r3, #0
	bne	.L229
	b	.L215
.L254:
	ldrb	r2, [r4, #28]	@ zero_extendqisi2
	strb	r2, [r4]
	str	r4, [r3]
	b	.L215
.L251:
	ldrb	r2, [r6, #28]	@ zero_extendqisi2
	strb	r2, [r6]
	str	r6, [r3]
	b	.L217
.L232:
	mov	r3, #0
	mcr	p15, 0, r0, c7, c10, 5
	add	r0, sp, #4
	str	r3, [sp]
	bl	_ZN4asio6detail18completion_handlerINS0_7binder2IZN7asiopal13SocketChannel13BeginReadImplEN7openpal6WSliceEEUlRKSt10error_codejE_S7_jEEE3ptr5resetEv(PLT)
.LEHB3:
	bl	__cxa_end_cleanup(PLT)
.LEHE3:
.L256:
	.align	2
.L255:
	.word	_GLOBAL_OFFSET_TABLE_-(.LPIC19+8)
	.word	_ZN4asio6detail10call_stackINS0_15task_io_serviceENS0_27task_io_service_thread_infoEE4top_E(GOT)
	.personality	__gxx_personality_v0
	.handlerdata
.LLSDA9009:
	.byte	0xff
	.byte	0xff
	.byte	0x1
	.uleb128 .LLSDACSE9009-.LLSDACSB9009
.LLSDACSB9009:
	.uleb128 .LEHB2-.LFB9009
	.uleb128 .LEHE2-.LEHB2
	.uleb128 .L232-.LFB9009
	.uleb128 0
	.uleb128 .LEHB3-.LFB9009
	.uleb128 .LEHE3-.LEHB3
	.uleb128 0
	.uleb128 0
.LLSDACSE9009:
	.text
	.fnend
	.size	_ZN4asio6detail18completion_handlerINS0_7binder2IZN7asiopal13SocketChannel13BeginReadImplEN7openpal6WSliceEEUlRKSt10error_codejE_S7_jEEE11do_completeEPNS0_15task_io_serviceEPNS0_25task_io_service_operationES9_j, .-_ZN4asio6detail18completion_handlerINS0_7binder2IZN7asiopal13SocketChannel13BeginReadImplEN7openpal6WSliceEEUlRKSt10error_codejE_S7_jEEE11do_completeEPNS0_15task_io_serviceEPNS0_25task_io_service_operationES9_j
	.section	.text._ZNK4asio6detail15system_category7messageB5cxx11Ei,"axG",%progbits,_ZNK4asio6detail15system_category7messageB5cxx11Ei,comdat
	.align	2
	.weak	_ZNK4asio6detail15system_category7messageB5cxx11Ei
	.syntax unified
	.arm
	.fpu vfp
	.type	_ZNK4asio6detail15system_category7messageB5cxx11Ei, %function
_ZNK4asio6detail15system_category7messageB5cxx11Ei:
	.fnstart
.LFB2065:
	@ args = 0, pretend = 0, frame = 264
	@ frame_needed = 0, uses_anonymous_args = 0
	cmp	r2, #125
	push	{r4, r5, r6, r7, r8, lr}
	.save {r4, r5, r6, r7, r8, lr}
	mov	r4, r0
	.pad #264
	sub	sp, sp, #264
	beq	.L267
	mov	r7, #0
	mov	r5, r2
	mov	r1, r7
	mov	r2, #252
	add	r0, sp, #12
	str	r7, [sp, #8]
	bl	memset(PLT)
	mov	r0, r5
	mov	r2, #256
	add	r1, sp, #8
	bl	strerror_r(PLT)
	add	r6, r4, #8
	str	r6, [r4]
	subs	r8, r0, #0
	beq	.L260
	bl	strlen(PLT)
	cmp	r0, #15
	mov	r5, r0
	str	r0, [sp, #4]
	bhi	.L268
	cmp	r0, #1
	beq	.L269
	cmp	r0, #0
	bne	.L270
.L264:
	mov	r3, #0
	str	r5, [r4, #4]
	mov	r0, r4
	strb	r3, [r6, r5]
	add	sp, sp, #264
	@ sp needed
	pop	{r4, r5, r6, r7, r8, pc}
.L268:
	mov	r2, r7
	add	r1, sp, #4
	mov	r0, r4
	bl	_ZNSt7__cxx1112basic_stringIcSt11char_traitsIcESaIcEE9_M_createERjj(PLT)
	ldr	r3, [sp, #4]
	str	r3, [r4, #8]
	str	r0, [r4]
.L262:
	mov	r2, r5
	mov	r1, r8
	bl	memcpy(PLT)
	ldr	r5, [sp, #4]
	ldr	r6, [r4]
	b	.L264
.L269:
	ldrb	r3, [r8]	@ zero_extendqisi2
	strb	r3, [r4, #8]
	b	.L264
.L267:
	add	r1, sp, #264
	add	r3, r0, #8
	mov	r2, #18
	str	r2, [r1, #-256]!
	str	r3, [r0]
	mov	r2, #0
	bl	_ZNSt7__cxx1112basic_stringIcSt11char_traitsIcESaIcEE9_M_createERjj(PLT)
	ldr	ip, .L271
	ldr	r6, [sp, #8]
.LPIC20:
	add	ip, pc, ip
	str	r6, [r4, #8]
	mov	r5, #0
	str	r0, [r4]
	mov	lr, r0
	ldmia	ip!, {r0, r1, r2, r3}
	ldrh	ip, [ip]	@ unaligned
	str	r0, [lr]	@ unaligned
	str	r1, [lr, #4]	@ unaligned
	strh	ip, [lr, #16]	@ unaligned
	str	r2, [lr, #8]	@ unaligned
	str	r3, [lr, #12]	@ unaligned
	ldr	r3, [sp, #8]
	ldr	r2, [r4]
	str	r3, [r4, #4]
	mov	r0, r4
	strb	r5, [r2, r3]
	add	sp, sp, #264
	@ sp needed
	pop	{r4, r5, r6, r7, r8, pc}
.L260:
	ldr	r0, .L271+4
.LPIC21:
	add	r0, pc, r0
	bl	_ZSt19__throw_logic_errorPKc(PLT)
.L270:
	mov	r0, r6
	b	.L262
.L272:
	.align	2
.L271:
	.word	.LC4-(.LPIC20+8)
	.word	.LC5-(.LPIC21+8)
	.fnend
	.size	_ZNK4asio6detail15system_category7messageB5cxx11Ei, .-_ZNK4asio6detail15system_category7messageB5cxx11Ei
	.section	.text._ZN4asio6detail28reactive_socket_send_op_baseINS_15const_buffers_1EE10do_performEPNS0_10reactor_opE,"axG",%progbits,_ZN4asio6detail28reactive_socket_send_op_baseINS_15const_buffers_1EE10do_performEPNS0_10reactor_opE,comdat
	.align	2
	.weak	_ZN4asio6detail28reactive_socket_send_op_baseINS_15const_buffers_1EE10do_performEPNS0_10reactor_opE
	.syntax unified
	.arm
	.fpu vfp
	.type	_ZN4asio6detail28reactive_socket_send_op_baseINS_15const_buffers_1EE10do_performEPNS0_10reactor_opE, %function
_ZN4asio6detail28reactive_socket_send_op_baseINS_15const_buffers_1EE10do_performEPNS0_10reactor_opE:
	.fnstart
.LFB8867:
	@ args = 0, pretend = 0, frame = 64
	@ frame_needed = 0, uses_anonymous_args = 0
	ldr	r3, .L319
	push	{r4, r5, r6, r7, r8, r9, r10, fp, lr}
	.save {r4, r5, r6, r7, r8, r9, r10, fp, lr}
	.pad #68
	sub	sp, sp, #68
.LPIC22:
	add	r3, pc, r3
	mov	r4, r3
	ldr	r2, [r0, #32]
	str	r3, [sp, #12]
	ldr	r3, [r0, #36]
	mov	r6, r0
	str	r3, [sp, #28]
	str	r3, [sp, #32]
	str	r2, [sp, #24]
	bl	__errno_location(PLT)
	ldr	r3, .L319+4
	ldr	r2, .L319+8
	ldr	r1, [r6, #40]
	ldr	r8, [r4, r3]
	ldr	r3, .L319+12
	ldr	r7, [r4, r2]
.LPIC23:
	add	r3, pc, r3
	str	r3, [sp, #16]
	ldr	r3, .L319+16
	ldr	fp, [r6, #28]
.LPIC24:
	add	r3, pc, r3
	str	r3, [sp, #20]
	orr	r3, r1, #16384
	str	r3, [sp]
	add	r3, sp, #24
	add	r5, sp, #36
	str	r3, [sp, #4]
	mov	r9, r0
	mov	r0, r4
	mov	r4, #0
.L282:
	ldr	r2, [sp]
	str	r3, [sp, #44]
	str	r4, [r9]
	mov	r3, #1
	mov	r1, r5
	mov	r0, fp
	str	r3, [sp, #48]
	str	r4, [r5]
	str	r4, [r5, #4]
	str	r4, [r5, #16]
	str	r4, [r5, #20]
	str	r4, [r5, #24]
	bl	sendmsg(PLT)
	ldr	r3, [r9]
	ldrb	r2, [r7]	@ zero_extendqisi2
	mcr	p15, 0, r0, c7, c10, 5
	tst	r2, #1
	mov	r10, r0
	beq	.L312
.L275:
	cmp	r10, #0
	str	r3, [r6, #12]
	str	r8, [r6, #16]
	blt	.L277
	bl	_ZNSt3_V215system_categoryEv(PLT)
	str	r4, [r6, #12]
	str	r0, [r6, #16]
.L277:
	ldrb	r3, [r7]	@ zero_extendqisi2
	mcr	p15, 0, r0, c7, c10, 5
	tst	r3, #1
	beq	.L313
.L279:
	ldr	r3, [r6, #16]
	cmp	r3, r8
	beq	.L314
.L281:
	ldrb	r3, [r7]	@ zero_extendqisi2
	mcr	p15, 0, r0, c7, c10, 5
	tst	r3, #1
	beq	.L315
.L284:
	ldr	r3, [r6, #16]
	cmp	r3, r8
	beq	.L316
.L285:
	ldrb	r3, [r7]	@ zero_extendqisi2
	mcr	p15, 0, r0, c7, c10, 5
	tst	r3, #1
	beq	.L317
.L288:
	ldr	r3, [r6, #16]
	cmp	r3, r8
	beq	.L318
.L289:
	cmp	r10, #0
	blt	.L291
	bl	_ZNSt3_V215system_categoryEv(PLT)
	mov	r3, #0
	str	r3, [r6, #12]
	mov	r3, #1
	str	r10, [r6, #20]
	str	r0, [r6, #16]
	mov	r0, r3
	add	sp, sp, #68
	@ sp needed
	pop	{r4, r5, r6, r7, r8, r9, r10, fp, pc}
.L318:
	ldr	r3, [r6, #12]
	cmp	r3, #11
	bne	.L289
.L290:
	mov	r3, #0
	mov	r0, r3
	add	sp, sp, #68
	@ sp needed
	pop	{r4, r5, r6, r7, r8, r9, r10, fp, pc}
.L313:
	mov	r0, r7
	bl	__cxa_guard_acquire(PLT)
	cmp	r0, #0
	beq	.L279
	mov	r0, r7
	bl	__cxa_guard_release(PLT)
	ldr	r3, .L319+20
	ldr	r1, [sp, #12]
	ldr	r2, [sp, #20]
	mov	r0, r8
	ldr	r1, [r1, r3]
	bl	__aeabi_atexit(PLT)
	ldr	r3, [r6, #16]
	cmp	r3, r8
	bne	.L281
.L314:
	ldr	r3, [r6, #12]
	cmp	r3, #4
	bne	.L281
	ldr	r3, [sp, #4]
	b	.L282
.L312:
	mov	r0, r7
	str	r3, [sp, #8]
	bl	__cxa_guard_acquire(PLT)
	ldr	r3, [sp, #8]
	cmp	r0, #0
	beq	.L275
	mov	r0, r7
	bl	__cxa_guard_release(PLT)
	ldr	r3, [sp, #12]
	ldr	r1, .L319+20
	ldr	r2, [sp, #16]
	mov	r0, r8
	ldr	r1, [r3, r1]
	bl	__aeabi_atexit(PLT)
	ldr	r3, [sp, #8]
	b	.L275
.L291:
	mov	r3, #0
	str	r3, [r6, #20]
	mov	r3, #1
	mov	r0, r3
	add	sp, sp, #68
	@ sp needed
	pop	{r4, r5, r6, r7, r8, r9, r10, fp, pc}
.L315:
	mov	r0, r7
	bl	__cxa_guard_acquire(PLT)
	cmp	r0, #0
	beq	.L284
	mov	r0, r7
	bl	__cxa_guard_release(PLT)
	ldr	r3, .L319+20
	ldr	r1, [sp, #12]
	ldr	r2, .L319+24
	mov	r0, r8
	ldr	r1, [r1, r3]
.LPIC25:
	add	r2, pc, r2
	bl	__aeabi_atexit(PLT)
	ldr	r3, [r6, #16]
	cmp	r3, r8
	bne	.L285
.L316:
	ldr	r3, [r6, #12]
	cmp	r3, #11
	beq	.L290
	ldrb	r3, [r7]	@ zero_extendqisi2
	mcr	p15, 0, r0, c7, c10, 5
	tst	r3, #1
	bne	.L288
.L317:
	mov	r0, r7
	bl	__cxa_guard_acquire(PLT)
	cmp	r0, #0
	beq	.L288
	mov	r0, r7
	bl	__cxa_guard_release(PLT)
	ldr	r3, .L319+20
	ldr	r1, [sp, #12]
	ldr	r2, .L319+28
	mov	r0, r8
.LPIC26:
	add	r2, pc, r2
	ldr	r1, [r1, r3]
	bl	__aeabi_atexit(PLT)
	b	.L288
.L320:
	.align	2
.L319:
	.word	_GLOBAL_OFFSET_TABLE_-(.LPIC22+8)
	.word	_ZZN4asio15system_categoryEvE8instance(GOT)
	.word	_ZGVZN4asio15system_categoryEvE8instance(GOT)
	.word	__dso_handle-(.LPIC23+8)
	.word	__dso_handle-(.LPIC24+8)
	.word	_ZN4asio6detail15system_categoryD1Ev(GOT)
	.word	__dso_handle-(.LPIC25+8)
	.word	__dso_handle-(.LPIC26+8)
	.fnend
	.size	_ZN4asio6detail28reactive_socket_send_op_baseINS_15const_buffers_1EE10do_performEPNS0_10reactor_opE, .-_ZN4asio6detail28reactive_socket_send_op_baseINS_15const_buffers_1EE10do_performEPNS0_10reactor_opE
	.section	.text._ZNK4asio5error6detail17addrinfo_category7messageB5cxx11Ei,"axG",%progbits,_ZNK4asio5error6detail17addrinfo_category7messageB5cxx11Ei,comdat
	.align	2
	.weak	_ZNK4asio5error6detail17addrinfo_category7messageB5cxx11Ei
	.syntax unified
	.arm
	.fpu vfp
	.type	_ZNK4asio5error6detail17addrinfo_category7messageB5cxx11Ei, %function
_ZNK4asio5error6detail17addrinfo_category7messageB5cxx11Ei:
	.fnstart
.LFB2092:
	@ args = 0, pretend = 0, frame = 8
	@ frame_needed = 0, uses_anonymous_args = 0
	push	{r4, r5, r6, lr}
	.save {r4, r5, r6, lr}
	cmn	r2, #8
	.pad #8
	sub	sp, sp, #8
	add	r1, sp, #8
	mov	r4, r0
	beq	.L326
	cmn	r2, #7
	beq	.L327
	add	r3, r0, #8
	mov	r2, #19
	str	r2, [r1, #-4]!
	str	r3, [r0]
	mov	r2, #0
	bl	_ZNSt7__cxx1112basic_stringIcSt11char_traitsIcESaIcEE9_M_createERjj(PLT)
	ldr	ip, .L328
	ldr	r6, [sp, #4]
.LPIC29:
	add	ip, pc, ip
	str	r6, [r4, #8]
	mov	r5, #0
	str	r0, [r4]
	mov	lr, r0
	ldmia	ip!, {r0, r1, r2, r3}
	ldrh	r6, [ip]	@ unaligned
	ldrb	ip, [ip, #2]	@ zero_extendqisi2
	str	r0, [lr]	@ unaligned
	str	r1, [lr, #4]	@ unaligned
	str	r2, [lr, #8]	@ unaligned
	str	r3, [lr, #12]	@ unaligned
	strh	r6, [lr, #16]	@ unaligned
	strb	ip, [lr, #18]
	ldr	r3, [sp, #4]
	ldr	r2, [r4]
	str	r3, [r4, #4]
	strb	r5, [r2, r3]
.L321:
	mov	r0, r4
	add	sp, sp, #8
	@ sp needed
	pop	{r4, r5, r6, pc}
.L327:
	add	r3, r0, #8
	mov	r2, #25
	str	r2, [r1, #-4]!
	str	r3, [r0]
	mov	r2, #0
	bl	_ZNSt7__cxx1112basic_stringIcSt11char_traitsIcESaIcEE9_M_createERjj(PLT)
	ldr	ip, .L328+4
	ldr	r6, [sp, #4]
.LPIC28:
	add	ip, pc, ip
	str	r6, [r4, #8]
	mov	r5, #0
	str	r0, [r4]
	mov	lr, r0
	ldmia	ip!, {r0, r1, r2, r3}
	str	r0, [lr]	@ unaligned
	str	r1, [lr, #4]	@ unaligned
	ldmia	ip!, {r0, r1}
	str	r3, [lr, #12]	@ unaligned
	str	r2, [lr, #8]	@ unaligned
	ldrb	r3, [ip]	@ zero_extendqisi2
	str	r0, [lr, #16]	@ unaligned
	str	r1, [lr, #20]	@ unaligned
	strb	r3, [lr, #24]
	ldr	r3, [sp, #4]
	ldr	r2, [r4]
	str	r3, [r4, #4]
	mov	r0, r4
	strb	r5, [r2, r3]
	add	sp, sp, #8
	@ sp needed
	pop	{r4, r5, r6, pc}
.L326:
	add	r3, r0, #8
	mov	r2, #17
	str	r2, [r1, #-4]!
	str	r3, [r0]
	mov	r2, #0
	bl	_ZNSt7__cxx1112basic_stringIcSt11char_traitsIcESaIcEE9_M_createERjj(PLT)
	ldr	ip, .L328+8
	ldr	r6, [sp, #4]
.LPIC27:
	add	ip, pc, ip
	str	r6, [r4, #8]
	mov	r5, #0
	str	r0, [r4]
	mov	lr, r0
	ldmia	ip!, {r0, r1, r2, r3}
	ldrb	ip, [ip]	@ zero_extendqisi2
	str	r0, [lr]	@ unaligned
	str	r1, [lr, #4]	@ unaligned
	strb	ip, [lr, #16]
	str	r2, [lr, #8]	@ unaligned
	str	r3, [lr, #12]	@ unaligned
	ldr	r3, [sp, #4]
	ldr	r2, [r4]
	str	r3, [r4, #4]
	strb	r5, [r2, r3]
	b	.L321
.L329:
	.align	2
.L328:
	.word	.LC8-(.LPIC29+8)
	.word	.LC7-(.LPIC28+8)
	.word	.LC6-(.LPIC27+8)
	.fnend
	.size	_ZNK4asio5error6detail17addrinfo_category7messageB5cxx11Ei, .-_ZNK4asio5error6detail17addrinfo_category7messageB5cxx11Ei
	.section	.text._ZNK4asio5error6detail14netdb_category7messageB5cxx11Ei,"axG",%progbits,_ZNK4asio5error6detail14netdb_category7messageB5cxx11Ei,comdat
	.align	2
	.weak	_ZNK4asio5error6detail14netdb_category7messageB5cxx11Ei
	.syntax unified
	.arm
	.fpu vfp
	.type	_ZNK4asio5error6detail14netdb_category7messageB5cxx11Ei, %function
_ZNK4asio5error6detail14netdb_category7messageB5cxx11Ei:
	.fnstart
.LFB2086:
	@ args = 0, pretend = 0, frame = 8
	@ frame_needed = 0, uses_anonymous_args = 0
	push	{r4, r5, r6, lr}
	.save {r4, r5, r6, lr}
	cmp	r2, #1
	.pad #8
	sub	sp, sp, #8
	add	r1, sp, #8
	mov	r4, r0
	beq	.L343
	cmp	r2, #2
	beq	.L344
	cmp	r2, #4
	beq	.L345
	cmp	r2, #3
	beq	.L346
	add	r3, r0, #8
	mov	r2, #16
	str	r2, [r1, #-4]!
	str	r3, [r0]
	mov	r2, #0
	bl	_ZNSt7__cxx1112basic_stringIcSt11char_traitsIcESaIcEE9_M_createERjj(PLT)
	ldr	ip, .L347
	ldr	r5, [sp, #4]
.LPIC34:
	add	ip, pc, ip
	str	r5, [r4, #8]
	str	r0, [r4]
	mov	lr, r0
	ldmia	ip!, {r0, r1, r2, r3}
	mov	ip, #0
	str	r0, [lr]	@ unaligned
	str	r1, [lr, #4]	@ unaligned
	str	r2, [lr, #8]	@ unaligned
	str	r3, [lr, #12]	@ unaligned
	ldr	r3, [sp, #4]
	ldr	r2, [r4]
	str	r3, [r4, #4]
	strb	ip, [r2, r3]
.L330:
	mov	r0, r4
	add	sp, sp, #8
	@ sp needed
	pop	{r4, r5, r6, pc}
.L346:
	add	r3, r0, #8
	mov	r2, #55
	str	r2, [r1, #-4]!
	str	r3, [r0]
	mov	r2, #0
	bl	_ZNSt7__cxx1112basic_stringIcSt11char_traitsIcESaIcEE9_M_createERjj(PLT)
	ldr	r5, .L347+4
	ldr	r3, [sp, #4]
.LPIC33:
	add	r5, pc, r5
	add	r6, r5, #48
	str	r3, [r4, #8]
	mov	lr, r0
	str	r0, [r4]
.L338:
	mov	ip, r5
	add	lr, lr, #16
	ldmia	ip!, {r0, r1, r2, r3}
	add	r5, r5, #16
	cmp	ip, r6
	str	r0, [lr, #-16]	@ unaligned
	str	r1, [lr, #-12]	@ unaligned
	str	r2, [lr, #-8]	@ unaligned
	str	r3, [lr, #-4]	@ unaligned
	bne	.L338
	ldrh	r2, [r5, #4]	@ unaligned
	ldrb	r3, [r5, #6]	@ zero_extendqisi2
	ldr	r0, [r5]
	strh	r2, [lr, #4]	@ unaligned
	strb	r3, [lr, #6]
	str	r0, [lr]	@ unaligned
	ldr	r3, [sp, #4]
	ldr	r2, [r4]
	mov	r1, #0
	str	r3, [r4, #4]
	strb	r1, [r2, r3]
	b	.L330
.L343:
	add	r3, r0, #8
	mov	r2, #30
	str	r2, [r1, #-4]!
	str	r3, [r0]
	mov	r2, #0
	bl	_ZNSt7__cxx1112basic_stringIcSt11char_traitsIcESaIcEE9_M_createERjj(PLT)
	ldr	ip, .L347+8
	ldr	r6, [sp, #4]
.LPIC30:
	add	ip, pc, ip
	str	r6, [r4, #8]
	mov	r5, #0
	str	r0, [r4]
	mov	lr, r0
	ldmia	ip!, {r0, r1, r2, r3}
	str	r0, [lr]	@ unaligned
	str	r1, [lr, #4]	@ unaligned
	str	r2, [lr, #8]	@ unaligned
	ldmia	ip!, {r0, r1, r2}
	str	r3, [lr, #12]	@ unaligned
	ldrh	r3, [ip]	@ unaligned
	str	r0, [lr, #16]	@ unaligned
	str	r1, [lr, #20]	@ unaligned
	strh	r3, [lr, #28]	@ unaligned
	str	r2, [lr, #24]	@ unaligned
	ldr	r3, [sp, #4]
	ldr	r2, [r4]
	str	r3, [r4, #4]
	strb	r5, [r2, r3]
	b	.L330
.L344:
	add	r3, r0, #8
	mov	r2, #51
	str	r2, [r1, #-4]!
	str	r3, [r0]
	mov	r2, #0
	bl	_ZNSt7__cxx1112basic_stringIcSt11char_traitsIcESaIcEE9_M_createERjj(PLT)
	ldr	r5, .L347+12
	ldr	r3, [sp, #4]
.LPIC31:
	add	r5, pc, r5
	add	r6, r5, #48
	str	r3, [r4, #8]
	mov	lr, r0
	str	r0, [r4]
.L334:
	mov	ip, r5
	add	lr, lr, #16
	ldmia	ip!, {r0, r1, r2, r3}
	add	r5, r5, #16
	cmp	ip, r6
	str	r0, [lr, #-16]	@ unaligned
	str	r1, [lr, #-12]	@ unaligned
	str	r2, [lr, #-8]	@ unaligned
	str	r3, [lr, #-4]	@ unaligned
	bne	.L334
	ldrh	r2, [r5]	@ unaligned
	ldrb	r3, [r5, #2]	@ zero_extendqisi2
	mov	r1, #0
	strh	r2, [lr]	@ unaligned
	strb	r3, [lr, #2]
	ldr	r3, [sp, #4]
	ldr	r2, [r4]
	str	r3, [r4, #4]
	strb	r1, [r2, r3]
	b	.L330
.L345:
	add	r3, r0, #8
	mov	r2, #56
	str	r2, [r1, #-4]!
	str	r3, [r0]
	mov	r2, #0
	bl	_ZNSt7__cxx1112basic_stringIcSt11char_traitsIcESaIcEE9_M_createERjj(PLT)
	ldr	r5, .L347+16
	ldr	r3, [sp, #4]
.LPIC32:
	add	r5, pc, r5
	add	r6, r5, #48
	str	r3, [r4, #8]
	mov	lr, r0
	str	r0, [r4]
.L336:
	mov	ip, r5
	add	lr, lr, #16
	ldmia	ip!, {r0, r1, r2, r3}
	add	r5, r5, #16
	cmp	ip, r6
	str	r0, [lr, #-16]	@ unaligned
	str	r1, [lr, #-12]	@ unaligned
	str	r2, [lr, #-8]	@ unaligned
	str	r3, [lr, #-4]	@ unaligned
	bne	.L336
	ldmia	r5!, {r0, r1}
	mov	ip, #0
	str	r0, [lr]	@ unaligned
	str	r1, [lr, #4]	@ unaligned
	ldr	r3, [sp, #4]
	ldr	r2, [r4]
	str	r3, [r4, #4]
	strb	ip, [r2, r3]
	b	.L330
.L348:
	.align	2
.L347:
	.word	.LC13-(.LPIC34+8)
	.word	.LC12-(.LPIC33+8)
	.word	.LC9-(.LPIC30+8)
	.word	.LC10-(.LPIC31+8)
	.word	.LC11-(.LPIC32+8)
	.fnend
	.size	_ZNK4asio5error6detail14netdb_category7messageB5cxx11Ei, .-_ZNK4asio5error6detail14netdb_category7messageB5cxx11Ei
	.section	.text._ZN4asio6detail28reactive_socket_recv_op_baseINS_17mutable_buffers_1EE10do_performEPNS0_10reactor_opE,"axG",%progbits,_ZN4asio6detail28reactive_socket_recv_op_baseINS_17mutable_buffers_1EE10do_performEPNS0_10reactor_opE,comdat
	.align	2
	.weak	_ZN4asio6detail28reactive_socket_recv_op_baseINS_17mutable_buffers_1EE10do_performEPNS0_10reactor_opE
	.syntax unified
	.arm
	.fpu vfp
	.type	_ZN4asio6detail28reactive_socket_recv_op_baseINS_17mutable_buffers_1EE10do_performEPNS0_10reactor_opE, %function
_ZN4asio6detail28reactive_socket_recv_op_baseINS_17mutable_buffers_1EE10do_performEPNS0_10reactor_opE:
	.fnstart
.LFB8604:
	@ args = 0, pretend = 0, frame = 72
	@ frame_needed = 0, uses_anonymous_args = 0
	ldr	r3, .L405
	push	{r4, r5, r6, r7, r8, r9, r10, fp, lr}
	.save {r4, r5, r6, r7, r8, r9, r10, fp, lr}
	.pad #76
	sub	sp, sp, #76
.LPIC35:
	add	r3, pc, r3
	mov	r4, r3
	str	r3, [sp, #20]
	ldrb	r3, [r0, #32]	@ zero_extendqisi2
	ldr	r2, [r0, #40]
	ldr	r1, [r0, #36]
	mov	r6, r0
	lsr	r3, r3, #4
	and	r3, r3, #1
	str	r2, [sp, #36]
	str	r3, [sp, #12]
	str	r2, [sp, #40]
	str	r1, [sp, #32]
	bl	__errno_location(PLT)
	ldr	r3, .L405+4
	ldr	r1, [r6, #44]
	ldr	r2, .L405+8
	str	r1, [sp, #4]
	ldr	r9, [r4, r3]
	ldr	r3, .L405+12
	ldr	r7, [r4, r2]
.LPIC36:
	add	r3, pc, r3
	str	r3, [sp, #24]
	ldr	r3, .L405+16
	mov	r1, r4
.LPIC38:
	add	r3, pc, r3
	str	r3, [sp, #28]
	add	r3, sp, #32
	ldr	fp, [r6, #28]
	add	r5, sp, #44
	str	r3, [sp, #8]
	mov	r4, #0
	mov	r10, r0
.L363:
	ldr	r2, [sp, #4]
	str	r3, [sp, #52]
	str	r4, [r10]
	mov	r3, #1
	mov	r1, r5
	mov	r0, fp
	str	r3, [sp, #56]
	str	r4, [r5]
	str	r4, [r5, #4]
	str	r4, [r5, #16]
	str	r4, [r5, #20]
	str	r4, [r5, #24]
	bl	recvmsg(PLT)
	ldr	r3, [r10]
	ldrb	r2, [r7]	@ zero_extendqisi2
	mcr	p15, 0, r0, c7, c10, 5
	tst	r2, #1
	mov	r8, r0
	beq	.L397
.L351:
	cmp	r8, #0
	str	r3, [r6, #12]
	str	r9, [r6, #16]
	blt	.L354
	bl	_ZNSt3_V215system_categoryEv(PLT)
	ldr	r3, [sp, #12]
	str	r4, [r6, #12]
	cmp	r8, #0
	movne	r3, #0
	andeq	r3, r3, #1
	cmp	r3, #0
	str	r0, [r6, #16]
	bne	.L398
.L354:
	ldrb	r3, [r7]	@ zero_extendqisi2
	mcr	p15, 0, r0, c7, c10, 5
	tst	r3, #1
	beq	.L399
.L360:
	ldr	r3, [r6, #16]
	cmp	r3, r9
	beq	.L400
.L362:
	ldrb	r3, [r7]	@ zero_extendqisi2
	mcr	p15, 0, r0, c7, c10, 5
	tst	r3, #1
	beq	.L401
.L365:
	ldr	r3, [r6, #16]
	cmp	r3, r9
	beq	.L402
.L366:
	ldrb	r3, [r7]	@ zero_extendqisi2
	mcr	p15, 0, r0, c7, c10, 5
	tst	r3, #1
	beq	.L403
.L368:
	ldr	r3, [r6, #16]
	cmp	r3, r9
	beq	.L404
.L369:
	cmp	r8, #0
	blt	.L371
	bl	_ZNSt3_V215system_categoryEv(PLT)
	mov	r3, #0
	str	r3, [r6, #12]
	mov	r3, #1
	str	r8, [r6, #20]
	str	r0, [r6, #16]
	mov	r0, r3
	add	sp, sp, #76
	@ sp needed
	pop	{r4, r5, r6, r7, r8, r9, r10, fp, pc}
.L397:
	mov	r0, r7
	str	r3, [sp, #16]
	bl	__cxa_guard_acquire(PLT)
	ldr	r3, [sp, #16]
	cmp	r0, #0
	beq	.L351
	mov	r0, r7
	bl	__cxa_guard_release(PLT)
	ldr	r3, [sp, #20]
	ldr	r1, .L405+20
	ldr	r2, [sp, #24]
	mov	r0, r9
	ldr	r1, [r3, r1]
	bl	__aeabi_atexit(PLT)
	ldr	r3, [sp, #16]
	b	.L351
.L399:
	mov	r0, r7
	bl	__cxa_guard_acquire(PLT)
	cmp	r0, #0
	beq	.L360
	mov	r0, r7
	bl	__cxa_guard_release(PLT)
	ldr	r3, .L405+20
	ldr	r1, [sp, #20]
	ldr	r2, [sp, #28]
	mov	r0, r9
	ldr	r1, [r1, r3]
	bl	__aeabi_atexit(PLT)
	ldr	r3, [r6, #16]
	cmp	r3, r9
	bne	.L362
.L400:
	ldr	r3, [r6, #12]
	cmp	r3, #4
	bne	.L362
	ldr	r3, [sp, #8]
	b	.L363
.L398:
	ldr	r1, [sp, #20]
	ldr	r2, .L405+24
	ldr	r4, [r1, r2]
	ldrb	r2, [r4]	@ zero_extendqisi2
	mcr	p15, 0, r0, c7, c10, 5
	tst	r2, #1
	beq	.L355
	ldr	r2, .L405+28
	ldr	r4, [r1, r2]
.L356:
	mov	r2, #2
	mov	r0, r3
	str	r4, [r6, #16]
	str	r2, [r6, #12]
	add	sp, sp, #76
	@ sp needed
	pop	{r4, r5, r6, r7, r8, r9, r10, fp, pc}
.L404:
	ldr	r3, [r6, #12]
	cmp	r3, #11
	bne	.L369
.L370:
	mov	r3, #0
	mov	r0, r3
	add	sp, sp, #76
	@ sp needed
	pop	{r4, r5, r6, r7, r8, r9, r10, fp, pc}
.L355:
	mov	r0, r4
	str	r3, [sp, #4]
	bl	__cxa_guard_acquire(PLT)
	ldr	r3, [sp, #4]
	cmp	r0, #0
	bne	.L392
	ldr	r2, .L405+28
	ldr	r1, [sp, #20]
	ldr	r4, [r1, r2]
	b	.L356
.L371:
	mov	r3, #0
	str	r3, [r6, #20]
	mov	r3, #1
	mov	r0, r3
	add	sp, sp, #76
	@ sp needed
	pop	{r4, r5, r6, r7, r8, r9, r10, fp, pc}
.L402:
	ldr	r3, [r6, #12]
	cmp	r3, #11
	bne	.L366
	b	.L370
.L401:
	mov	r0, r7
	bl	__cxa_guard_acquire(PLT)
	cmp	r0, #0
	beq	.L365
	mov	r0, r7
	bl	__cxa_guard_release(PLT)
	ldr	r3, .L405+20
	ldr	r1, [sp, #20]
	ldr	r2, .L405+32
	mov	r0, r9
.LPIC39:
	add	r2, pc, r2
	ldr	r1, [r1, r3]
	bl	__aeabi_atexit(PLT)
	b	.L365
.L392:
	mov	r0, r4
	str	r3, [sp, #4]
	bl	__cxa_guard_release(PLT)
	ldr	r3, [sp, #20]
	ldr	r0, .L405+28
	ldr	r1, .L405+36
	ldr	r2, .L405+40
	ldr	r4, [r3, r0]
	ldr	r1, [r3, r1]
.LPIC37:
	add	r2, pc, r2
	mov	r0, r4
	bl	__aeabi_atexit(PLT)
	ldr	r3, [sp, #4]
	b	.L356
.L403:
	mov	r0, r7
	bl	__cxa_guard_acquire(PLT)
	cmp	r0, #0
	beq	.L368
	mov	r0, r7
	bl	__cxa_guard_release(PLT)
	ldr	r3, .L405+20
	ldr	r1, [sp, #20]
	ldr	r2, .L405+44
	mov	r0, r9
.LPIC40:
	add	r2, pc, r2
	ldr	r1, [r1, r3]
	bl	__aeabi_atexit(PLT)
	b	.L368
.L406:
	.align	2
.L405:
	.word	_GLOBAL_OFFSET_TABLE_-(.LPIC35+8)
	.word	_ZZN4asio15system_categoryEvE8instance(GOT)
	.word	_ZGVZN4asio15system_categoryEvE8instance(GOT)
	.word	__dso_handle-(.LPIC36+8)
	.word	__dso_handle-(.LPIC38+8)
	.word	_ZN4asio6detail15system_categoryD1Ev(GOT)
	.word	_ZGVZN4asio5error17get_misc_categoryEvE8instance(GOT)
	.word	_ZZN4asio5error17get_misc_categoryEvE8instance(GOT)
	.word	__dso_handle-(.LPIC39+8)
	.word	_ZN4asio5error6detail13misc_categoryD1Ev(GOT)
	.word	__dso_handle-(.LPIC37+8)
	.word	__dso_handle-(.LPIC40+8)
	.fnend
	.size	_ZN4asio6detail28reactive_socket_recv_op_baseINS_17mutable_buffers_1EE10do_performEPNS0_10reactor_opE, .-_ZN4asio6detail28reactive_socket_recv_op_baseINS_17mutable_buffers_1EE10do_performEPNS0_10reactor_opE
	.section	.text._ZNK4asio5error6detail13misc_category7messageB5cxx11Ei,"axG",%progbits,_ZNK4asio5error6detail13misc_category7messageB5cxx11Ei,comdat
	.align	2
	.weak	_ZNK4asio5error6detail13misc_category7messageB5cxx11Ei
	.syntax unified
	.arm
	.fpu vfp
	.type	_ZNK4asio5error6detail13misc_category7messageB5cxx11Ei, %function
_ZNK4asio5error6detail13misc_category7messageB5cxx11Ei:
	.fnstart
.LFB2098:
	@ args = 0, pretend = 0, frame = 8
	@ frame_needed = 0, uses_anonymous_args = 0
	cmp	r2, #1
	push	{r4, r5, r6, lr}
	.save {r4, r5, r6, lr}
	mov	r4, r0
	.pad #8
	sub	sp, sp, #8
	beq	.L416
	cmp	r2, #2
	beq	.L417
	cmp	r2, #3
	beq	.L418
	cmp	r2, #4
	beq	.L419
	ldr	ip, .L420
	add	r3, r0, #8
.LPIC45:
	add	ip, pc, ip
	mov	r5, #15
	ldmia	ip!, {r0, r1, r2}
	mov	lr, #0
	str	r3, [r4]
	str	r5, [r4, #4]
	ldrh	r6, [ip]	@ unaligned
	ldrb	ip, [ip, #2]	@ zero_extendqisi2
	str	r0, [r4, #8]	@ unaligned
	str	r1, [r4, #12]	@ unaligned
	str	r2, [r4, #16]	@ unaligned
	strh	r6, [r4, #20]	@ unaligned
	strb	ip, [r4, #22]
	strb	lr, [r4, #23]
.L407:
	mov	r0, r4
	add	sp, sp, #8
	@ sp needed
	pop	{r4, r5, r6, pc}
.L419:
	add	r1, sp, #8
	add	r3, r0, #8
	mov	r2, #57
	str	r2, [r1, #-4]!
	str	r3, [r0]
	mov	r2, #0
	bl	_ZNSt7__cxx1112basic_stringIcSt11char_traitsIcESaIcEE9_M_createERjj(PLT)
	ldr	r5, .L420+4
	ldr	r3, [sp, #4]
.LPIC44:
	add	r5, pc, r5
	add	r6, r5, #48
	str	r3, [r4, #8]
	mov	lr, r0
	str	r0, [r4]
.L413:
	mov	ip, r5
	add	lr, lr, #16
	ldmia	ip!, {r0, r1, r2, r3}
	add	r5, r5, #16
	cmp	ip, r6
	str	r0, [lr, #-16]	@ unaligned
	str	r1, [lr, #-12]	@ unaligned
	str	r2, [lr, #-8]	@ unaligned
	str	r3, [lr, #-4]	@ unaligned
	bne	.L413
	ldmia	r5!, {r0, r1}
	mov	ip, #0
	ldrb	r3, [r5]	@ zero_extendqisi2
	str	r0, [lr]	@ unaligned
	str	r1, [lr, #4]	@ unaligned
	strb	r3, [lr, #8]
	ldr	r3, [sp, #4]
	ldr	r2, [r4]
	str	r3, [r4, #4]
	strb	ip, [r2, r3]
	b	.L407
.L416:
	ldr	ip, .L420+8
	add	r3, r0, #8
.LPIC41:
	add	ip, pc, ip
	mov	lr, #12
	ldmia	ip!, {r0, r1, r2}
	mov	ip, #0
	str	r3, [r4]
	str	lr, [r4, #4]
	str	r0, [r4, #8]	@ unaligned
	str	r1, [r4, #12]	@ unaligned
	str	r2, [r4, #16]	@ unaligned
	strb	ip, [r4, #20]
	b	.L407
.L417:
	ldr	r2, .L420+12
	add	r3, r0, #8
.LPIC42:
	add	r2, pc, r2
	mov	lr, #11
	ldmia	r2!, {r0, r1}
	mov	ip, #0
	str	r3, [r4]
	ldrh	r5, [r2]	@ unaligned
	ldrb	r2, [r2, #2]	@ zero_extendqisi2
	str	r0, [r4, #8]	@ unaligned
	str	r1, [r4, #12]	@ unaligned
	strh	r5, [r4, #16]	@ unaligned
	strb	r2, [r4, #18]
	str	lr, [r4, #4]
	strb	ip, [r4, #19]
	b	.L407
.L418:
	add	r1, sp, #8
	add	r3, r0, #8
	mov	r2, #17
	str	r2, [r1, #-4]!
	str	r3, [r0]
	mov	r2, #0
	bl	_ZNSt7__cxx1112basic_stringIcSt11char_traitsIcESaIcEE9_M_createERjj(PLT)
	ldr	ip, .L420+16
	ldr	r6, [sp, #4]
.LPIC43:
	add	ip, pc, ip
	str	r6, [r4, #8]
	mov	r5, #0
	str	r0, [r4]
	mov	lr, r0
	ldmia	ip!, {r0, r1, r2, r3}
	ldrb	ip, [ip]	@ zero_extendqisi2
	str	r0, [lr]	@ unaligned
	str	r1, [lr, #4]	@ unaligned
	strb	ip, [lr, #16]
	str	r2, [lr, #8]	@ unaligned
	str	r3, [lr, #12]	@ unaligned
	ldr	r3, [sp, #4]
	ldr	r2, [r4]
	str	r3, [r4, #4]
	strb	r5, [r2, r3]
	b	.L407
.L421:
	.align	2
.L420:
	.word	.LC18-(.LPIC45+8)
	.word	.LC17-(.LPIC44+8)
	.word	.LC14-(.LPIC41+8)
	.word	.LC15-(.LPIC42+8)
	.word	.LC16-(.LPIC43+8)
	.fnend
	.size	_ZNK4asio5error6detail13misc_category7messageB5cxx11Ei, .-_ZNK4asio5error6detail13misc_category7messageB5cxx11Ei
	.text
	.align	2
	.global	_ZN7asiopal13SocketChannel12ShutdownImplEv
	.syntax unified
	.arm
	.fpu vfp
	.type	_ZN7asiopal13SocketChannel12ShutdownImplEv, %function
_ZN7asiopal13SocketChannel12ShutdownImplEv:
	.fnstart
.LFB6796:
	@ args = 0, pretend = 0, frame = 40
	@ frame_needed = 0, uses_anonymous_args = 0
	push	{r4, r5, r6, r7, r8, r9, r10, fp, lr}
	.save {r4, r5, r6, r7, r8, r9, r10, fp, lr}
	.pad #44
	sub	sp, sp, #44
	ldr	r3, .L563
	ldr	r4, [r0, #32]
.LPIC46:
	add	r3, pc, r3
	cmn	r4, #1
	mov	r6, r0
	str	r3, [sp]
	beq	.L554
	bl	__errno_location(PLT)
	mov	r2, #0
	mov	r1, #2
	mov	r3, r0
	mov	r0, r4
	str	r2, [r3]
	bl	shutdown(PLT)
	ldr	r3, .L563+4
	ldr	r2, [sp]
.L549:
	ldr	r7, [r2, r3]
	ldrb	r3, [r7]	@ zero_extendqisi2
	mcr	p15, 0, r0, c7, c10, 5
	tst	r3, #1
	beq	.L555
.L425:
	ldr	r4, [r6, #32]
	cmn	r4, #1
	beq	.L428
	ldr	r3, [r6, #40]
	cmp	r3, #0
	beq	.L429
	ldr	r2, [r6, #48]
	add	r3, r3, #20
	str	r3, [sp, #20]
	mov	r0, r3
	ldr	r3, [r2, #20]
	ldrb	r5, [r6, #36]	@ zero_extendqisi2
	str	r3, [sp, #16]
	bl	pthread_mutex_lock(PLT)
	ldr	r1, [r6, #40]
	ldrb	r0, [r1, #80]	@ zero_extendqisi2
	cmp	r0, #0
	bne	.L430
	tst	r5, #64
	bne	.L556
.L431:
	mov	r5, #0
	ldr	r3, .L563+8
	mov	r8, r5
	mov	r9, #56
.LPIC48:
	add	r3, pc, r3
	str	r3, [sp, #12]
	str	r5, [sp, #8]
	str	r5, [sp, #4]
.L441:
	ldr	r4, [r1, r9]
	cmp	r4, #0
	beq	.L432
	ldr	r3, [sp, #4]
	ldr	r2, .L563+12
	lsl	fp, r3, #3
	ldr	r3, [sp]
	ldr	r10, [r3, r2]
	b	.L434
.L436:
	ldr	r1, [r6, #40]
	mov	r3, #125
	add	r0, r1, fp
	str	r3, [r4, #12]
	ldr	r2, [r0, #56]
	str	r10, [r4, #16]
	cmp	r2, #0
	beq	.L438
	ldr	ip, [r2]
	cmp	ip, #0
	str	ip, [r0, #56]
	streq	ip, [r0, #60]
	str	r8, [r2]
.L438:
	cmp	r5, #0
	str	r8, [r4]
	strne	r4, [r5]
	beq	.L557
	ldr	r2, [r1, r9]
	mov	r5, r4
	cmp	r2, #0
	beq	.L432
.L562:
	mov	r4, r2
.L434:
	ldrb	r2, [r7]	@ zero_extendqisi2
	mcr	p15, 0, r0, c7, c10, 5
	tst	r2, #1
	bne	.L436
	mov	r0, r7
	bl	__cxa_guard_acquire(PLT)
	cmp	r0, #0
	beq	.L436
	mov	r0, r7
	bl	__cxa_guard_release(PLT)
	ldr	r3, [sp]
	ldr	r1, .L563+16
	ldr	r2, [sp, #12]
	mov	r0, r10
	ldr	r1, [r3, r1]
	bl	__aeabi_atexit(PLT)
	b	.L436
.L446:
	add	r8, r4, #24
	mov	r0, r8
	bl	pthread_mutex_lock(PLT)
	ldr	r3, [r4, #132]
	cmp	r3, #0
	ldreq	r3, [sp, #8]
	ldrne	r2, [sp, #8]
	streq	r3, [r4, #128]
	strne	r2, [r3]
	ldr	r3, [r4, #96]
	str	r5, [r4, #132]
	orr	r3, r3, #1
	cmp	r3, #1
	str	r3, [r4, #96]
	add	r5, r4, #48
	beq	.L457
	mov	r0, r8
	bl	pthread_mutex_unlock(PLT)
	mov	r0, r5
	bl	pthread_cond_signal(PLT)
.L547:
	ldr	r4, [r6, #32]
	cmn	r4, #1
	beq	.L428
.L429:
	bl	__errno_location(PLT)
	mov	r3, #0
	str	r3, [r0]
	mov	r5, r0
	mov	r0, r4
	bl	close(PLT)
	ldr	r9, [r5]
	ldrb	r3, [r7]	@ zero_extendqisi2
	mcr	p15, 0, r0, c7, c10, 5
	tst	r3, #1
	mov	r8, r0
	beq	.L558
.L461:
	cmp	r8, #0
	bne	.L559
.L428:
	mvn	r2, #0
	mov	r3, #0
	str	r2, [r6, #32]
	strb	r3, [r6, #36]
	add	sp, sp, #44
	@ sp needed
	pop	{r4, r5, r6, r7, r8, r9, r10, fp, pc}
.L558:
	mov	r0, r7
	bl	__cxa_guard_acquire(PLT)
	cmp	r0, #0
	beq	.L461
	mov	r0, r7
	bl	__cxa_guard_release(PLT)
	ldr	r0, [sp]
	ldr	r3, .L563+12
	ldr	r1, .L563+16
	ldr	r2, .L563+20
	ldr	r1, [r0, r1]
.LPIC49:
	add	r2, pc, r2
	ldr	r0, [r0, r3]
	bl	__aeabi_atexit(PLT)
	cmp	r8, #0
	beq	.L428
.L559:
	ldrb	r3, [r7]	@ zero_extendqisi2
	mcr	p15, 0, r0, c7, c10, 5
	tst	r3, #1
	beq	.L560
.L465:
	cmp	r9, #11
	beq	.L561
	ldrb	r3, [r7]	@ zero_extendqisi2
	mcr	p15, 0, r0, c7, c10, 5
	tst	r3, #1
	bne	.L428
	mov	r0, r7
	bl	__cxa_guard_acquire(PLT)
	cmp	r0, #0
	beq	.L428
	mov	r0, r7
	bl	__cxa_guard_release(PLT)
	ldr	r0, [sp]
	ldr	r3, .L563+12
	ldr	r1, .L563+16
	ldr	r2, .L563+24
	ldr	r1, [r0, r1]
.LPIC51:
	add	r2, pc, r2
	ldr	r0, [r0, r3]
	bl	__aeabi_atexit(PLT)
	b	.L428
.L557:
	ldr	r2, [r1, r9]
	str	r4, [sp, #8]
	cmp	r2, #0
	mov	r5, r4
	bne	.L562
.L432:
	ldr	r3, [sp, #4]
	add	r9, r9, #8
	add	r3, r3, #1
	cmp	r3, #3
	str	r3, [sp, #4]
	bne	.L441
	ldr	r9, [sp, #16]
	mvn	r2, #0
	mov	r3, #1
	str	r2, [r1, #48]
	strb	r3, [r1, #80]
	add	r8, r9, #72
	ldr	r0, [sp, #20]
	bl	pthread_mutex_unlock(PLT)
	mov	r0, r8
	ldr	r4, [r6, #40]
	bl	pthread_mutex_lock(PLT)
	ldr	r3, [r9, #96]
	mov	r9, #0
	cmp	r4, r3
	mov	r0, r8
	ldreq	r2, [sp, #16]
	ldreq	r3, [r4, #12]
	streq	r3, [r2, #96]
	ldr	r3, [r4, #16]
	cmp	r3, #0
	ldrne	r2, [r4, #12]
	strne	r2, [r3, #12]
	ldr	r3, [r4, #12]
	cmp	r3, #0
	ldrne	r2, [r4, #16]
	strne	r2, [r3, #16]
	ldr	r2, [sp, #16]
	mov	r8, r2
	ldr	r3, [r2, #100]
	str	r9, [r4, #16]
	str	r3, [r4, #12]
	str	r4, [r2, #100]
	bl	pthread_mutex_unlock(PLT)
	ldr	r3, [sp, #8]
	str	r9, [r6, #40]
	cmp	r3, r9
	ldr	r4, [r8, #20]
	beq	.L547
	ldrb	r3, [r4, #20]	@ zero_extendqisi2
	cmp	r3, r9
	beq	.L446
	ldr	r2, [sp]
	ldr	r3, .L563+28
	ldr	r3, [r2, r3]
	ldr	r0, [r3]
	bl	pthread_getspecific(PLT)
	cmp	r0, #0
	bne	.L538
	b	.L446
.L449:
	ldr	r0, [r0, #8]
	cmp	r0, #0
	beq	.L446
.L538:
	ldr	r3, [r0]
	cmp	r4, r3
	bne	.L449
	ldr	r3, [r0, #4]
	cmp	r3, #0
	beq	.L446
	ldr	r2, [r3, #8]
	cmp	r2, #0
	ldrne	r1, [sp, #8]
	ldreq	r2, [sp, #8]
	strne	r1, [r2]
	streq	r2, [r3, #4]
	str	r5, [r3, #8]
	b	.L547
.L555:
	mov	r0, r7
	bl	__cxa_guard_acquire(PLT)
	cmp	r0, #0
	beq	.L425
	mov	r0, r7
	bl	__cxa_guard_release(PLT)
	ldr	r0, [sp]
	ldr	r3, .L563+12
	ldr	r1, .L563+16
	ldr	r2, .L563+32
	ldr	r1, [r0, r1]
.LPIC47:
	add	r2, pc, r2
	ldr	r0, [r0, r3]
	bl	__aeabi_atexit(PLT)
	b	.L425
.L430:
	ldr	r0, [sp, #20]
	bl	pthread_mutex_unlock(PLT)
	ldr	r4, [r6, #32]
	cmn	r4, #1
	bne	.L429
	b	.L428
.L561:
	add	r2, sp, #40
	mov	r8, #0
	str	r8, [r2, #-16]!
	ldr	r1, .L563+36
	mov	r0, r4
	bl	ioctl(PLT)
	ldrb	r3, [r6, #36]	@ zero_extendqisi2
	mov	r0, r4
	bic	r3, r3, #3
	strb	r3, [r6, #36]
	str	r8, [r5]
	bl	close(PLT)
	ldrb	r3, [r7]	@ zero_extendqisi2
	mcr	p15, 0, r0, c7, c10, 5
	tst	r3, #1
	bne	.L428
	mov	r0, r7
	bl	__cxa_guard_acquire(PLT)
	cmp	r0, #0
	beq	.L428
	mov	r0, r7
	bl	__cxa_guard_release(PLT)
	ldr	r0, [sp]
	ldr	r3, .L563+12
	ldr	r1, .L563+16
	ldr	r2, .L563+40
	ldr	r1, [r0, r1]
.LPIC52:
	add	r2, pc, r2
	ldr	r0, [r0, r3]
	bl	__aeabi_atexit(PLT)
	b	.L428
.L560:
	mov	r0, r7
	bl	__cxa_guard_acquire(PLT)
	cmp	r0, #0
	beq	.L465
	mov	r0, r7
	bl	__cxa_guard_release(PLT)
	ldr	r0, [sp]
	ldr	r3, .L563+12
	ldr	r1, .L563+16
	ldr	r2, .L563+44
	ldr	r1, [r0, r1]
.LPIC50:
	add	r2, pc, r2
	ldr	r0, [r0, r3]
	bl	__aeabi_atexit(PLT)
	b	.L465
.L556:
	str	r0, [sp, #24]
	str	r0, [sp, #28]
	str	r0, [sp, #32]
	str	r0, [sp, #36]
	ldr	r0, [sp, #16]
	add	ip, sp, #24
	mov	r1, #2
	mov	r2, r4
	mov	r3, ip
	ldr	r0, [r0, #56]
	bl	epoll_ctl(PLT)
	ldr	r1, [r6, #40]
	b	.L431
.L457:
	ldrb	r2, [r4, #120]	@ zero_extendqisi2
	cmp	r2, #0
	bne	.L459
	ldr	r0, [r4, #104]
	cmp	r0, #0
	beq	.L459
	strb	r3, [r4, #120]
	add	r3, sp, #24
	add	r1, r0, #48
	mov	ip, #-2147483639
	str	r1, [sp, #32]
	str	r2, [r3, #4]
	str	r2, [r3, #12]
	str	ip, [sp, #24]
	mov	r1, #3
	ldr	r2, [r0, #48]
	ldr	r0, [r0, #56]
	bl	epoll_ctl(PLT)
.L459:
	mov	r0, r8
	bl	pthread_mutex_unlock(PLT)
	b	.L547
.L554:
	mov	r2, r3
	ldr	r3, .L563+4
	b	.L549
.L564:
	.align	2
.L563:
	.word	_GLOBAL_OFFSET_TABLE_-(.LPIC46+8)
	.word	_ZGVZN4asio15system_categoryEvE8instance(GOT)
	.word	__dso_handle-(.LPIC48+8)
	.word	_ZZN4asio15system_categoryEvE8instance(GOT)
	.word	_ZN4asio6detail15system_categoryD1Ev(GOT)
	.word	__dso_handle-(.LPIC49+8)
	.word	__dso_handle-(.LPIC51+8)
	.word	_ZN4asio6detail10call_stackINS0_15task_io_serviceENS0_27task_io_service_thread_infoEE4top_E(GOT)
	.word	__dso_handle-(.LPIC47+8)
	.word	21537
	.word	__dso_handle-(.LPIC52+8)
	.word	__dso_handle-(.LPIC50+8)
	.fnend
	.size	_ZN7asiopal13SocketChannel12ShutdownImplEv, .-_ZN7asiopal13SocketChannel12ShutdownImplEv
	.section	.text._ZNSt12system_errorC2ESt10error_codePKc,"axG",%progbits,_ZNSt12system_errorC5ESt10error_codePKc,comdat
	.align	2
	.weak	_ZNSt12system_errorC2ESt10error_codePKc
	.syntax unified
	.arm
	.fpu vfp
	.type	_ZNSt12system_errorC2ESt10error_codePKc, %function
_ZNSt12system_errorC2ESt10error_codePKc:
	.fnstart
.LFB2025:
	@ args = 0, pretend = 0, frame = 80
	@ frame_needed = 0, uses_anonymous_args = 0
	push	{r4, r5, r6, r7, r8, r9, r10, fp, lr}
	.save {r4, r5, r6, r7, r8, r9, r10, fp, lr}
	.pad #92
	sub	sp, sp, #92
	add	r4, sp, #8
	add	r8, sp, #64
	stm	r4, {r1, r2}
	ldr	r2, [sp, #12]
	mov	r5, r0
	mov	r1, r2
	ldr	ip, [r2]
	mov	r0, r8
	ldr	r2, [sp, #8]
	ldr	r6, [ip, #16]
	mov	r7, r3
.LEHB4:
	blx	r6
.LEHE4:
	mov	r3, #2
	str	r3, [sp]
	ldr	r3, .L584
	mov	r2, #0
	ldr	r9, .L584+4
	mov	r0, r8
	mov	r1, r2
.LPIC53:
	add	r3, pc, r3
.LPIC54:
	add	r9, pc, r9
.LEHB5:
	bl	_ZNSt7__cxx1112basic_stringIcSt11char_traitsIcESaIcEE10_M_replaceEjjPKcj(PLT)
.LEHE5:
	mov	lr, r0
	add	r6, sp, #48
	str	r6, [sp, #40]
	ldr	r3, [lr], #8
	mov	ip, r0
	cmp	r3, lr
	moveq	r10, r6
	ldreq	r0, [lr]	@ unaligned
	ldreq	r1, [lr, #4]	@ unaligned
	ldreq	r2, [lr, #8]	@ unaligned
	ldreq	r3, [lr, #12]	@ unaligned
	ldrne	r2, [ip, #8]
	strne	r3, [sp, #40]
	stmiaeq	r10!, {r0, r1, r2, r3}
	mov	fp, #0
	strne	r2, [sp, #48]
	ldr	r3, [ip, #4]
	strb	fp, [ip, #8]
	str	r3, [sp, #44]
	mov	r0, r7
	str	lr, [ip]
	str	fp, [ip, #4]
	bl	strlen(PLT)
	add	r10, sp, #40
	mov	r3, r7
	mov	r2, fp
	mov	r1, fp
	str	r0, [sp]
	mov	r0, r10
.LEHB6:
	bl	_ZNSt7__cxx1112basic_stringIcSt11char_traitsIcESaIcEE10_M_replaceEjjPKcj(PLT)
.LEHE6:
	mov	lr, r0
	add	r7, sp, #24
	str	r7, [sp, #16]
	ldr	r3, [lr], #8
	mov	ip, r0
	cmp	r3, lr
	moveq	fp, r7
	ldreq	r0, [lr]	@ unaligned
	ldreq	r1, [lr, #4]	@ unaligned
	ldreq	r2, [lr, #8]	@ unaligned
	ldreq	r3, [lr, #12]	@ unaligned
	ldrne	r2, [ip, #8]
	strne	r3, [sp, #16]
	stmiaeq	fp!, {r0, r1, r2, r3}
	mov	r3, #0
	strne	r2, [sp, #24]
	ldr	r2, [ip, #4]
	add	fp, sp, #16
	str	r2, [sp, #20]
	strb	r3, [ip, #8]
	str	lr, [ip]
	str	r3, [ip, #4]
	mov	r1, fp
	mov	r0, r5
.LEHB7:
	bl	_ZNSt13runtime_errorC2ERKNSt7__cxx1112basic_stringIcSt11char_traitsIcESaIcEEE(PLT)
.LEHE7:
	ldr	r0, [sp, #16]
	cmp	r0, r7
	beq	.L570
	bl	_ZdlPv(PLT)
.L570:
	ldr	r0, [sp, #40]
	cmp	r0, r6
	beq	.L571
	bl	_ZdlPv(PLT)
.L571:
	ldr	r0, [sp, #64]
	add	r3, sp, #72
	cmp	r0, r3
	beq	.L572
	bl	_ZdlPv(PLT)
.L572:
	ldr	r2, .L584+8
	ldm	r4, {r0, r1}
	mov	r3, r5
	ldr	r2, [r9, r2]
	add	r2, r2, #8
	str	r2, [r3], #8
	stm	r3, {r0, r1}
	mov	r0, r5
	add	sp, sp, #92
	@ sp needed
	pop	{r4, r5, r6, r7, r8, r9, r10, fp, pc}
.L579:
.L577:
	ldr	r0, [sp, #64]
	add	r8, r8, #8
	cmp	r0, r8
	beq	.L578
	bl	_ZdlPv(PLT)
.L578:
.LEHB8:
	bl	__cxa_end_cleanup(PLT)
.LEHE8:
.L581:
	ldr	r0, [sp, #16]
	add	fp, fp, #8
	cmp	r0, fp
	beq	.L575
	bl	_ZdlPv(PLT)
.L575:
	ldr	r0, [sp, #40]
	add	r10, r10, #8
	cmp	r0, r10
	beq	.L577
	bl	_ZdlPv(PLT)
	b	.L577
.L580:
	b	.L575
.L585:
	.align	2
.L584:
	.word	.LC19-(.LPIC53+8)
	.word	_GLOBAL_OFFSET_TABLE_-(.LPIC54+8)
	.word	_ZTVSt12system_error(GOT)
	.personality	__gxx_personality_v0
	.handlerdata
.LLSDA2025:
	.byte	0xff
	.byte	0xff
	.byte	0x1
	.uleb128 .LLSDACSE2025-.LLSDACSB2025
.LLSDACSB2025:
	.uleb128 .LEHB4-.LFB2025
	.uleb128 .LEHE4-.LEHB4
	.uleb128 0
	.uleb128 0
	.uleb128 .LEHB5-.LFB2025
	.uleb128 .LEHE5-.LEHB5
	.uleb128 .L579-.LFB2025
	.uleb128 0
	.uleb128 .LEHB6-.LFB2025
	.uleb128 .LEHE6-.LEHB6
	.uleb128 .L580-.LFB2025
	.uleb128 0
	.uleb128 .LEHB7-.LFB2025
	.uleb128 .LEHE7-.LEHB7
	.uleb128 .L581-.LFB2025
	.uleb128 0
	.uleb128 .LEHB8-.LFB2025
	.uleb128 .LEHE8-.LEHB8
	.uleb128 0
	.uleb128 0
.LLSDACSE2025:
	.section	.text._ZNSt12system_errorC2ESt10error_codePKc,"axG",%progbits,_ZNSt12system_errorC5ESt10error_codePKc,comdat
	.fnend
	.size	_ZNSt12system_errorC2ESt10error_codePKc, .-_ZNSt12system_errorC2ESt10error_codePKc
	.weak	_ZNSt12system_errorC1ESt10error_codePKc
	.set	_ZNSt12system_errorC1ESt10error_codePKc,_ZNSt12system_errorC2ESt10error_codePKc
	.section	.text._ZN4asio15system_categoryEv,"axG",%progbits,_ZN4asio15system_categoryEv,comdat
	.align	2
	.weak	_ZN4asio15system_categoryEv
	.syntax unified
	.arm
	.fpu vfp
	.type	_ZN4asio15system_categoryEv, %function
_ZN4asio15system_categoryEv:
	.fnstart
.LFB2068:
	@ args = 0, pretend = 0, frame = 0
	@ frame_needed = 0, uses_anonymous_args = 0
	push	{r4, r5, r6, lr}
	ldr	r4, .L596
	ldr	r3, .L596+4
.LPIC55:
	add	r4, pc, r4
	ldr	r5, [r4, r3]
	ldrb	r3, [r5]	@ zero_extendqisi2
	mcr	p15, 0, r0, c7, c10, 5
	tst	r3, #1
	beq	.L595
.L594:
	ldr	r3, .L596+8
	ldr	r4, [r4, r3]
	mov	r0, r4
	pop	{r4, r5, r6, pc}
.L595:
	mov	r0, r5
	bl	__cxa_guard_acquire(PLT)
	cmp	r0, #0
	beq	.L594
	mov	r0, r5
	bl	__cxa_guard_release(PLT)
	ldr	r3, .L596+8
	ldr	r1, .L596+12
	ldr	r2, .L596+16
	ldr	r1, [r4, r1]
	ldr	r4, [r4, r3]
.LPIC56:
	add	r2, pc, r2
	mov	r0, r4
	bl	__aeabi_atexit(PLT)
	mov	r0, r4
	pop	{r4, r5, r6, pc}
.L597:
	.align	2
.L596:
	.word	_GLOBAL_OFFSET_TABLE_-(.LPIC55+8)
	.word	_ZGVZN4asio15system_categoryEvE8instance(GOT)
	.word	_ZZN4asio15system_categoryEvE8instance(GOT)
	.word	_ZN4asio6detail15system_categoryD1Ev(GOT)
	.word	__dso_handle-(.LPIC56+8)
	.cantunwind
	.fnend
	.size	_ZN4asio15system_categoryEv, .-_ZN4asio15system_categoryEv
	.section	.text._ZN7asiopal13SocketChannelD0Ev,"axG",%progbits,_ZN7asiopal13SocketChannelD5Ev,comdat
	.align	2
	.weak	_ZN7asiopal13SocketChannelD0Ev
	.syntax unified
	.arm
	.fpu vfp
	.type	_ZN7asiopal13SocketChannelD0Ev, %function
_ZN7asiopal13SocketChannelD0Ev:
	.fnstart
.LFB9030:
	@ args = 0, pretend = 0, frame = 40
	@ frame_needed = 0, uses_anonymous_args = 0
	push	{r4, r5, r6, r7, r8, r9, r10, fp, lr}
	.save {r4, r5, r6, r7, r8, r9, r10, fp, lr}
	mov	r6, r0
	ldr	r9, .L766
	ldr	r3, .L766+4
.LPIC57:
	add	r9, pc, r9
	ldr	r4, [r0, #32]
	ldr	r3, [r9, r3]
	cmn	r4, #1
	add	r3, r3, #8
	.pad #52
	sub	sp, sp, #52
	str	r3, [r0]
	beq	.L599
	ldr	r3, [r0, #40]
	cmp	r3, #0
	beq	.L673
	ldr	r2, [r0, #48]
	add	r3, r3, #20
	str	r3, [sp, #28]
	mov	r0, r3
	ldr	r3, [r2, #20]
	ldrb	r5, [r6, #36]	@ zero_extendqisi2
	str	r3, [sp, #24]
	bl	pthread_mutex_lock(PLT)
	ldr	r1, [r6, #40]
	ldrb	r0, [r1, #80]	@ zero_extendqisi2
	cmp	r0, #0
	bne	.L601
	tst	r5, #64
	bne	.L757
.L602:
	mov	r5, #0
	ldr	r3, .L766+8
	mov	r7, r5
	mov	r10, #56
.LPIC58:
	add	r3, pc, r3
	str	r3, [sp, #20]
	str	r5, [sp, #16]
	str	r5, [sp, #8]
	str	r9, [sp, #12]
.L612:
	ldr	r4, [r1, r10]
	cmp	r4, #0
	beq	.L603
	ldr	r3, [sp, #8]
	ldr	r1, .L766+12
	ldr	r2, .L766+16
	lsl	r9, r3, #3
	ldr	r3, [sp, #12]
	ldr	r8, [r3, r1]
	ldr	fp, [r3, r2]
	b	.L605
.L607:
	ldr	r1, [r6, #40]
	mov	r3, #125
	add	r0, r1, r9
	str	r3, [r4, #12]
	ldr	r2, [r0, #56]
	str	fp, [r4, #16]
	cmp	r2, #0
	beq	.L609
	ldr	ip, [r2]
	cmp	ip, #0
	str	ip, [r0, #56]
	streq	ip, [r0, #60]
	str	r7, [r2]
.L609:
	cmp	r5, #0
	str	r7, [r4]
	strne	r4, [r5]
	beq	.L758
	ldr	r2, [r1, r10]
	mov	r5, r4
	cmp	r2, #0
	beq	.L603
.L765:
	mov	r4, r2
.L605:
	ldrb	r2, [r8]	@ zero_extendqisi2
	mcr	p15, 0, r0, c7, c10, 5
	tst	r2, #1
	bne	.L607
	mov	r0, r8
	bl	__cxa_guard_acquire(PLT)
	cmp	r0, #0
	beq	.L607
	mov	r0, r8
	bl	__cxa_guard_release(PLT)
	ldr	r3, [sp, #12]
	ldr	r1, .L766+20
	ldr	r2, [sp, #20]
	mov	r0, fp
	ldr	r1, [r3, r1]
	bl	__aeabi_atexit(PLT)
	b	.L607
.L617:
	add	r7, r4, #24
	mov	r0, r7
	bl	pthread_mutex_lock(PLT)
	ldr	r3, [r4, #132]
	cmp	r3, #0
	ldreq	r3, [sp, #16]
	ldrne	r2, [sp, #16]
	streq	r3, [r4, #128]
	strne	r2, [r3]
	ldr	r3, [r4, #96]
	str	r5, [r4, #132]
	orr	r3, r3, #1
	cmp	r3, #1
	str	r3, [r4, #96]
	add	r5, r4, #48
	beq	.L628
	mov	r0, r7
	bl	pthread_mutex_unlock(PLT)
	mov	r0, r5
	bl	pthread_cond_signal(PLT)
.L748:
	ldr	r4, [r6, #32]
	cmn	r4, #1
	beq	.L599
.L673:
	ldrb	r3, [r6, #36]	@ zero_extendqisi2
	tst	r3, #8
	bne	.L632
	bl	__errno_location(PLT)
	ldr	r3, .L766+12
	ldr	r5, [r9, r3]
	mov	r7, r0
.L633:
	mov	r3, #0
	str	r3, [r7]
	mov	r0, r4
	bl	close(PLT)
	ldr	r10, [r7]
	ldrb	r3, [r5]	@ zero_extendqisi2
	mcr	p15, 0, r0, c7, c10, 5
	tst	r3, #1
	mov	r8, r0
	beq	.L759
.L638:
	cmp	r8, #0
	beq	.L599
	ldrb	r3, [r5]	@ zero_extendqisi2
	mcr	p15, 0, r0, c7, c10, 5
	tst	r3, #1
	beq	.L760
.L642:
	cmp	r10, #11
	beq	.L761
	ldrb	r3, [r5]	@ zero_extendqisi2
	mcr	p15, 0, r0, c7, c10, 5
	tst	r3, #1
	bne	.L599
	mov	r0, r5
	bl	__cxa_guard_acquire(PLT)
	cmp	r0, #0
	beq	.L599
	mov	r0, r5
	bl	__cxa_guard_release(PLT)
	ldr	r1, .L766+20
	ldr	r3, .L766+16
	ldr	r2, .L766+24
	ldr	r1, [r9, r1]
.LPIC62:
	add	r2, pc, r2
	ldr	r0, [r9, r3]
	bl	__aeabi_atexit(PLT)
.L599:
	ldr	r3, .L766+28
	ldr	r4, [r6, #24]
	ldr	r3, [r9, r3]
	cmp	r4, #0
	add	r3, r3, #8
	str	r3, [r6]
	beq	.L650
	ldr	r3, .L766+32
	ldr	r3, [r9, r3]
	cmp	r3, #0
	beq	.L651
	add	r3, r4, #28
	mcr	p15, 0, r0, c7, c10, 5
.L745:
	ldrex	r2, [r3]
	sub	r1, r2, #1
	strex	r0, r1, [r3]
	cmp	r0, #0
	bne	.L745
	cmp	r2, #1
	mcr	p15, 0, r0, c7, c10, 5
	beq	.L762
.L650:
	ldr	r4, [r6, #16]
	cmp	r4, #0
	beq	.L656
	ldr	r3, .L766+32
	ldr	r3, [r9, r3]
	cmp	r3, #0
	beq	.L657
	add	r3, r4, #28
	mcr	p15, 0, r0, c7, c10, 5
.L744:
	ldrex	r2, [r3]
	sub	r1, r2, #1
	strex	r0, r1, [r3]
	cmp	r0, #0
	bne	.L744
	cmp	r2, #1
	mcr	p15, 0, r0, c7, c10, 5
	beq	.L763
.L656:
	ldr	r0, [r6, #8]
	cmp	r0, #0
	beq	.L662
	ldr	r3, .L766+32
	ldr	r3, [r9, r3]
	cmp	r3, #0
	beq	.L663
	add	r3, r0, #32
	mcr	p15, 0, r0, c7, c10, 5
.L743:
	ldrex	r2, [r3]
	sub	r1, r2, #1
	strex	ip, r1, [r3]
	cmp	ip, #0
	bne	.L743
	cmp	r2, #1
	mcr	p15, 0, r0, c7, c10, 5
	beq	.L764
.L662:
	mov	r0, r6
	mov	r1, #52
	bl	_ZdlPvj(PLT)
	mov	r0, r6
	add	sp, sp, #52
	@ sp needed
	pop	{r4, r5, r6, r7, r8, r9, r10, fp, pc}
.L651:
	ldr	r3, [r4, #28]
	cmp	r3, #1
	sub	r3, r3, #1
	str	r3, [r4, #28]
	bne	.L650
	ldr	r3, [r4]
	mov	r0, r4
	ldr	r3, [r3, #8]
	blx	r3
	mcr	p15, 0, r0, c7, c10, 5
	ldr	r2, [r4, #32]
	sub	r3, r2, #1
	str	r3, [r4, #32]
	b	.L671
.L657:
	ldr	r3, [r4, #28]
	cmp	r3, #1
	sub	r3, r3, #1
	str	r3, [r4, #28]
	bne	.L656
	ldr	r3, [r4]
	mov	r0, r4
	ldr	r3, [r3, #8]
	blx	r3
	mcr	p15, 0, r0, c7, c10, 5
	ldr	r2, [r4, #32]
	sub	r3, r2, #1
	str	r3, [r4, #32]
	b	.L672
.L758:
	ldr	r2, [r1, r10]
	str	r4, [sp, #16]
	cmp	r2, #0
	mov	r5, r4
	bne	.L765
.L603:
	ldr	r3, [sp, #8]
	add	r10, r10, #8
	add	r3, r3, #1
	cmp	r3, #3
	str	r3, [sp, #8]
	bne	.L612
	ldr	r7, [sp, #24]
	mvn	r2, #0
	mov	r3, #1
	str	r2, [r1, #48]
	strb	r3, [r1, #80]
	add	r8, r7, #72
	ldr	r0, [sp, #28]
	ldr	r9, [sp, #12]
	bl	pthread_mutex_unlock(PLT)
	mov	r0, r8
	ldr	r4, [r6, #40]
	bl	pthread_mutex_lock(PLT)
	ldr	r3, [r7, #96]
	mov	r7, #0
	cmp	r4, r3
	mov	r0, r8
	ldreq	r2, [sp, #24]
	ldreq	r3, [r4, #12]
	streq	r3, [r2, #96]
	ldr	r3, [r4, #16]
	cmp	r3, #0
	ldrne	r2, [r4, #12]
	strne	r2, [r3, #12]
	ldr	r3, [r4, #12]
	cmp	r3, #0
	ldrne	r2, [r4, #16]
	strne	r2, [r3, #16]
	ldr	r2, [sp, #24]
	mov	r8, r2
	ldr	r3, [r2, #100]
	str	r7, [r4, #16]
	str	r3, [r4, #12]
	str	r4, [r2, #100]
	bl	pthread_mutex_unlock(PLT)
	ldr	r3, [sp, #16]
	str	r7, [r6, #40]
	cmp	r3, r7
	ldr	r4, [r8, #20]
	beq	.L748
	ldrb	r3, [r4, #20]	@ zero_extendqisi2
	cmp	r3, r7
	beq	.L617
	ldr	r3, .L766+36
	ldr	r3, [r9, r3]
	ldr	r0, [r3]
	bl	pthread_getspecific(PLT)
	cmp	r0, #0
	bne	.L735
	b	.L617
.L620:
	ldr	r0, [r0, #8]
	cmp	r0, #0
	beq	.L617
.L735:
	ldr	r3, [r0]
	cmp	r4, r3
	bne	.L620
	ldr	r3, [r0, #4]
	cmp	r3, #0
	beq	.L617
	ldr	r2, [r3, #8]
	cmp	r2, #0
	ldrne	r1, [sp, #16]
	ldreq	r2, [sp, #16]
	strne	r1, [r2]
	streq	r2, [r3, #4]
	str	r5, [r3, #8]
	b	.L748
.L663:
	ldr	r2, [r0, #32]
	sub	r3, r2, #1
	cmp	r2, #1
	str	r3, [r0, #32]
	bne	.L662
.L764:
	mcr	p15, 0, r0, c7, c10, 5
	ldr	r3, [r0]
	ldr	r3, [r3, #12]
	blx	r3
	b	.L662
.L601:
	ldr	r0, [sp, #28]
	bl	pthread_mutex_unlock(PLT)
	ldr	r4, [r6, #32]
	cmn	r4, #1
	bne	.L673
	b	.L599
.L762:
	ldr	r3, [r4]
	mov	r0, r4
	ldr	r3, [r3, #8]
	blx	r3
	add	r3, r4, #32
	mcr	p15, 0, r0, c7, c10, 5
	mcr	p15, 0, r0, c7, c10, 5
.L742:
	ldrex	r2, [r3]
	sub	r1, r2, #1
	strex	r0, r1, [r3]
	cmp	r0, #0
	bne	.L742
	mcr	p15, 0, r0, c7, c10, 5
.L671:
	cmp	r2, #1
	bne	.L650
	ldr	r3, [r4]
	mov	r0, r4
	ldr	r3, [r3, #12]
	blx	r3
	b	.L650
.L763:
	ldr	r3, [r4]
	mov	r0, r4
	ldr	r3, [r3, #8]
	blx	r3
	add	r3, r4, #32
	mcr	p15, 0, r0, c7, c10, 5
	mcr	p15, 0, r0, c7, c10, 5
.L741:
	ldrex	r2, [r3]
	sub	r1, r2, #1
	strex	r0, r1, [r3]
	cmp	r0, #0
	bne	.L741
	mcr	p15, 0, r0, c7, c10, 5
.L672:
	cmp	r2, #1
	bne	.L656
	ldr	r3, [r4]
	mov	r0, r4
	ldr	r3, [r3, #12]
	blx	r3
	b	.L656
.L757:
	str	r0, [sp, #32]
	str	r0, [sp, #36]
	str	r0, [sp, #40]
	str	r0, [sp, #44]
	ldr	r0, [sp, #24]
	add	ip, sp, #32
	mov	r1, #2
	mov	r2, r4
	mov	r3, ip
	ldr	r0, [r0, #56]
	bl	epoll_ctl(PLT)
	ldr	r1, [r6, #40]
	b	.L602
.L759:
	mov	r0, r5
	bl	__cxa_guard_acquire(PLT)
	cmp	r0, #0
	beq	.L638
	mov	r0, r5
	bl	__cxa_guard_release(PLT)
	ldr	r3, .L766+16
	ldr	r1, .L766+20
	ldr	r2, .L766+40
	ldr	r0, [r9, r3]
.LPIC60:
	add	r2, pc, r2
	ldr	r1, [r9, r1]
	bl	__aeabi_atexit(PLT)
	b	.L638
.L632:
	orr	r3, r3, #8
	mov	r5, #0
	strb	r3, [r6, #36]
	str	r5, [sp, #32]
	str	r5, [sp, #36]
	bl	__errno_location(PLT)
	mov	r2, #8
	add	r3, sp, #32
	mov	r1, #1
	str	r5, [r0]
	mov	r7, r0
	str	r2, [sp]
	mov	r0, r4
	mov	r2, #13
	bl	setsockopt(PLT)
	ldr	r3, .L766+12
	ldr	r5, [r9, r3]
	ldrb	r3, [r5]	@ zero_extendqisi2
	mcr	p15, 0, r0, c7, c10, 5
	tst	r3, #1
	bne	.L633
	mov	r0, r5
	bl	__cxa_guard_acquire(PLT)
	cmp	r0, #0
	beq	.L633
	mov	r0, r5
	bl	__cxa_guard_release(PLT)
	ldr	r3, .L766+16
	ldr	r1, .L766+20
	ldr	r2, .L766+44
	ldr	r0, [r9, r3]
.LPIC59:
	add	r2, pc, r2
	ldr	r1, [r9, r1]
	bl	__aeabi_atexit(PLT)
	b	.L633
.L761:
	add	r2, sp, #48
	mov	r8, #0
	str	r8, [r2, #-16]!
	ldr	r1, .L766+48
	mov	r0, r4
	bl	ioctl(PLT)
	ldrb	r3, [r6, #36]	@ zero_extendqisi2
	mov	r0, r4
	bic	r3, r3, #3
	strb	r3, [r6, #36]
	str	r8, [r7]
	bl	close(PLT)
	ldrb	r3, [r5]	@ zero_extendqisi2
	mcr	p15, 0, r0, c7, c10, 5
	tst	r3, #1
	bne	.L599
	mov	r0, r5
	bl	__cxa_guard_acquire(PLT)
	cmp	r0, #0
	beq	.L599
	mov	r0, r5
	bl	__cxa_guard_release(PLT)
	ldr	r3, .L766+16
	ldr	r1, .L766+20
	ldr	r2, .L766+52
	ldr	r0, [r9, r3]
.LPIC63:
	add	r2, pc, r2
	ldr	r1, [r9, r1]
	bl	__aeabi_atexit(PLT)
	b	.L599
.L628:
	ldrb	r2, [r4, #120]	@ zero_extendqisi2
	cmp	r2, #0
	bne	.L630
	ldr	r0, [r4, #104]
	cmp	r0, #0
	beq	.L630
	strb	r3, [r4, #120]
	add	r3, sp, #32
	add	r1, r0, #48
	mov	ip, #-2147483639
	str	r1, [sp, #40]
	str	r2, [r3, #4]
	str	r2, [r3, #12]
	str	ip, [sp, #32]
	mov	r1, #3
	ldr	r2, [r0, #48]
	ldr	r0, [r0, #56]
	bl	epoll_ctl(PLT)
.L630:
	mov	r0, r7
	bl	pthread_mutex_unlock(PLT)
	b	.L748
.L760:
	mov	r0, r5
	bl	__cxa_guard_acquire(PLT)
	cmp	r0, #0
	beq	.L642
	mov	r0, r5
	bl	__cxa_guard_release(PLT)
	ldr	r3, .L766+16
	ldr	r1, .L766+20
	ldr	r2, .L766+56
	ldr	r0, [r9, r3]
.LPIC61:
	add	r2, pc, r2
	ldr	r1, [r9, r1]
	bl	__aeabi_atexit(PLT)
	b	.L642
.L767:
	.align	2
.L766:
	.word	_GLOBAL_OFFSET_TABLE_-(.LPIC57+8)
	.word	_ZTVN7asiopal13SocketChannelE(GOT)
	.word	__dso_handle-(.LPIC58+8)
	.word	_ZGVZN4asio15system_categoryEvE8instance(GOT)
	.word	_ZZN4asio15system_categoryEvE8instance(GOT)
	.word	_ZN4asio6detail15system_categoryD1Ev(GOT)
	.word	__dso_handle-(.LPIC62+8)
	.word	_ZTVN7asiopal13IAsyncChannelE(GOT)
	.word	_ZL28__gthrw___pthread_key_createPjPFvPvE(GOT)
	.word	_ZN4asio6detail10call_stackINS0_15task_io_serviceENS0_27task_io_service_thread_infoEE4top_E(GOT)
	.word	__dso_handle-(.LPIC60+8)
	.word	__dso_handle-(.LPIC59+8)
	.word	21537
	.word	__dso_handle-(.LPIC63+8)
	.word	__dso_handle-(.LPIC61+8)
	.personality	__gxx_personality_v0
	.handlerdata
.LLSDA9030:
	.byte	0xff
	.byte	0xff
	.byte	0x1
	.uleb128 .LLSDACSE9030-.LLSDACSB9030
.LLSDACSB9030:
.LLSDACSE9030:
	.section	.text._ZN7asiopal13SocketChannelD0Ev,"axG",%progbits,_ZN7asiopal13SocketChannelD5Ev,comdat
	.fnend
	.size	_ZN7asiopal13SocketChannelD0Ev, .-_ZN7asiopal13SocketChannelD0Ev
	.section	.text._ZN7asiopal13SocketChannelD2Ev,"axG",%progbits,_ZN7asiopal13SocketChannelD5Ev,comdat
	.align	2
	.weak	_ZN7asiopal13SocketChannelD2Ev
	.syntax unified
	.arm
	.fpu vfp
	.type	_ZN7asiopal13SocketChannelD2Ev, %function
_ZN7asiopal13SocketChannelD2Ev:
	.fnstart
.LFB9028:
	@ args = 0, pretend = 0, frame = 40
	@ frame_needed = 0, uses_anonymous_args = 0
	push	{r4, r5, r6, r7, r8, r9, r10, fp, lr}
	.save {r4, r5, r6, r7, r8, r9, r10, fp, lr}
	mov	r6, r0
	ldr	r9, .L936
	ldr	r3, .L936+4
.LPIC64:
	add	r9, pc, r9
	ldr	r4, [r0, #32]
	ldr	r3, [r9, r3]
	cmn	r4, #1
	add	r3, r3, #8
	.pad #52
	sub	sp, sp, #52
	str	r3, [r0]
	beq	.L769
	ldr	r3, [r0, #40]
	cmp	r3, #0
	beq	.L843
	ldr	r2, [r0, #48]
	add	r3, r3, #20
	str	r3, [sp, #28]
	mov	r0, r3
	ldr	r3, [r2, #20]
	ldrb	r5, [r6, #36]	@ zero_extendqisi2
	str	r3, [sp, #24]
	bl	pthread_mutex_lock(PLT)
	ldr	r1, [r6, #40]
	ldrb	r0, [r1, #80]	@ zero_extendqisi2
	cmp	r0, #0
	bne	.L771
	tst	r5, #64
	bne	.L927
.L772:
	mov	r5, #0
	ldr	r3, .L936+8
	mov	r7, r5
	mov	r10, #56
.LPIC65:
	add	r3, pc, r3
	str	r3, [sp, #20]
	str	r5, [sp, #16]
	str	r5, [sp, #8]
	str	r9, [sp, #12]
.L782:
	ldr	r4, [r1, r10]
	cmp	r4, #0
	beq	.L773
	ldr	r3, [sp, #8]
	ldr	r1, .L936+12
	ldr	r2, .L936+16
	lsl	r9, r3, #3
	ldr	r3, [sp, #12]
	ldr	r8, [r3, r1]
	ldr	fp, [r3, r2]
	b	.L775
.L777:
	ldr	r1, [r6, #40]
	mov	r3, #125
	add	r0, r1, r9
	str	r3, [r4, #12]
	ldr	r2, [r0, #56]
	str	fp, [r4, #16]
	cmp	r2, #0
	beq	.L779
	ldr	ip, [r2]
	cmp	ip, #0
	str	ip, [r0, #56]
	streq	ip, [r0, #60]
	str	r7, [r2]
.L779:
	cmp	r5, #0
	str	r7, [r4]
	strne	r4, [r5]
	beq	.L928
	ldr	r2, [r1, r10]
	mov	r5, r4
	cmp	r2, #0
	beq	.L773
.L935:
	mov	r4, r2
.L775:
	ldrb	r2, [r8]	@ zero_extendqisi2
	mcr	p15, 0, r0, c7, c10, 5
	tst	r2, #1
	bne	.L777
	mov	r0, r8
	bl	__cxa_guard_acquire(PLT)
	cmp	r0, #0
	beq	.L777
	mov	r0, r8
	bl	__cxa_guard_release(PLT)
	ldr	r3, [sp, #12]
	ldr	r1, .L936+20
	ldr	r2, [sp, #20]
	mov	r0, fp
	ldr	r1, [r3, r1]
	bl	__aeabi_atexit(PLT)
	b	.L777
.L787:
	add	r7, r4, #24
	mov	r0, r7
	bl	pthread_mutex_lock(PLT)
	ldr	r3, [r4, #132]
	cmp	r3, #0
	ldreq	r3, [sp, #16]
	ldrne	r2, [sp, #16]
	streq	r3, [r4, #128]
	strne	r2, [r3]
	ldr	r3, [r4, #96]
	str	r5, [r4, #132]
	orr	r3, r3, #1
	cmp	r3, #1
	str	r3, [r4, #96]
	add	r5, r4, #48
	beq	.L798
	mov	r0, r7
	bl	pthread_mutex_unlock(PLT)
	mov	r0, r5
	bl	pthread_cond_signal(PLT)
.L918:
	ldr	r4, [r6, #32]
	cmn	r4, #1
	beq	.L769
.L843:
	ldrb	r3, [r6, #36]	@ zero_extendqisi2
	tst	r3, #8
	bne	.L802
	bl	__errno_location(PLT)
	ldr	r3, .L936+12
	ldr	r5, [r9, r3]
	mov	r7, r0
.L803:
	mov	r3, #0
	str	r3, [r7]
	mov	r0, r4
	bl	close(PLT)
	ldr	r10, [r7]
	ldrb	r3, [r5]	@ zero_extendqisi2
	mcr	p15, 0, r0, c7, c10, 5
	tst	r3, #1
	mov	r8, r0
	beq	.L929
.L808:
	cmp	r8, #0
	beq	.L769
	ldrb	r3, [r5]	@ zero_extendqisi2
	mcr	p15, 0, r0, c7, c10, 5
	tst	r3, #1
	beq	.L930
.L812:
	cmp	r10, #11
	beq	.L931
	ldrb	r3, [r5]	@ zero_extendqisi2
	mcr	p15, 0, r0, c7, c10, 5
	tst	r3, #1
	bne	.L769
	mov	r0, r5
	bl	__cxa_guard_acquire(PLT)
	cmp	r0, #0
	beq	.L769
	mov	r0, r5
	bl	__cxa_guard_release(PLT)
	ldr	r1, .L936+20
	ldr	r3, .L936+16
	ldr	r2, .L936+24
	ldr	r1, [r9, r1]
.LPIC69:
	add	r2, pc, r2
	ldr	r0, [r9, r3]
	bl	__aeabi_atexit(PLT)
.L769:
	ldr	r3, .L936+28
	ldr	r4, [r6, #24]
	ldr	r3, [r9, r3]
	cmp	r4, #0
	add	r3, r3, #8
	str	r3, [r6]
	beq	.L820
	ldr	r3, .L936+32
	ldr	r3, [r9, r3]
	cmp	r3, #0
	beq	.L821
	add	r3, r4, #28
	mcr	p15, 0, r0, c7, c10, 5
.L915:
	ldrex	r2, [r3]
	sub	r1, r2, #1
	strex	r0, r1, [r3]
	cmp	r0, #0
	bne	.L915
	cmp	r2, #1
	mcr	p15, 0, r0, c7, c10, 5
	beq	.L932
.L820:
	ldr	r4, [r6, #16]
	cmp	r4, #0
	beq	.L826
	ldr	r3, .L936+32
	ldr	r3, [r9, r3]
	cmp	r3, #0
	beq	.L827
	add	r3, r4, #28
	mcr	p15, 0, r0, c7, c10, 5
.L914:
	ldrex	r2, [r3]
	sub	r1, r2, #1
	strex	r0, r1, [r3]
	cmp	r0, #0
	bne	.L914
	cmp	r2, #1
	mcr	p15, 0, r0, c7, c10, 5
	beq	.L933
.L826:
	ldr	r0, [r6, #8]
	cmp	r0, #0
	beq	.L864
	ldr	r3, .L936+32
	ldr	r3, [r9, r3]
	cmp	r3, #0
	beq	.L833
	add	r3, r0, #32
	mcr	p15, 0, r0, c7, c10, 5
.L913:
	ldrex	r2, [r3]
	sub	r1, r2, #1
	strex	ip, r1, [r3]
	cmp	ip, #0
	bne	.L913
	cmp	r2, #1
	mcr	p15, 0, r0, c7, c10, 5
	beq	.L934
.L864:
	mov	r0, r6
	add	sp, sp, #52
	@ sp needed
	pop	{r4, r5, r6, r7, r8, r9, r10, fp, pc}
.L821:
	ldr	r3, [r4, #28]
	cmp	r3, #1
	sub	r3, r3, #1
	str	r3, [r4, #28]
	bne	.L820
	ldr	r3, [r4]
	mov	r0, r4
	ldr	r3, [r3, #8]
	blx	r3
	mcr	p15, 0, r0, c7, c10, 5
	ldr	r2, [r4, #32]
	sub	r3, r2, #1
	str	r3, [r4, #32]
	b	.L841
.L827:
	ldr	r3, [r4, #28]
	cmp	r3, #1
	sub	r3, r3, #1
	str	r3, [r4, #28]
	bne	.L826
	ldr	r3, [r4]
	mov	r0, r4
	ldr	r3, [r3, #8]
	blx	r3
	mcr	p15, 0, r0, c7, c10, 5
	ldr	r2, [r4, #32]
	sub	r3, r2, #1
	str	r3, [r4, #32]
	b	.L842
.L928:
	ldr	r2, [r1, r10]
	str	r4, [sp, #16]
	cmp	r2, #0
	mov	r5, r4
	bne	.L935
.L773:
	ldr	r3, [sp, #8]
	add	r10, r10, #8
	add	r3, r3, #1
	cmp	r3, #3
	str	r3, [sp, #8]
	bne	.L782
	ldr	r7, [sp, #24]
	mvn	r2, #0
	mov	r3, #1
	str	r2, [r1, #48]
	strb	r3, [r1, #80]
	add	r8, r7, #72
	ldr	r0, [sp, #28]
	ldr	r9, [sp, #12]
	bl	pthread_mutex_unlock(PLT)
	mov	r0, r8
	ldr	r4, [r6, #40]
	bl	pthread_mutex_lock(PLT)
	ldr	r3, [r7, #96]
	mov	r7, #0
	cmp	r4, r3
	mov	r0, r8
	ldreq	r2, [sp, #24]
	ldreq	r3, [r4, #12]
	streq	r3, [r2, #96]
	ldr	r3, [r4, #16]
	cmp	r3, #0
	ldrne	r2, [r4, #12]
	strne	r2, [r3, #12]
	ldr	r3, [r4, #12]
	cmp	r3, #0
	ldrne	r2, [r4, #16]
	strne	r2, [r3, #16]
	ldr	r2, [sp, #24]
	mov	r8, r2
	ldr	r3, [r2, #100]
	str	r7, [r4, #16]
	str	r3, [r4, #12]
	str	r4, [r2, #100]
	bl	pthread_mutex_unlock(PLT)
	ldr	r3, [sp, #16]
	str	r7, [r6, #40]
	cmp	r3, r7
	ldr	r4, [r8, #20]
	beq	.L918
	ldrb	r3, [r4, #20]	@ zero_extendqisi2
	cmp	r3, r7
	beq	.L787
	ldr	r3, .L936+36
	ldr	r3, [r9, r3]
	ldr	r0, [r3]
	bl	pthread_getspecific(PLT)
	cmp	r0, #0
	bne	.L906
	b	.L787
.L790:
	ldr	r0, [r0, #8]
	cmp	r0, #0
	beq	.L787
.L906:
	ldr	r3, [r0]
	cmp	r4, r3
	bne	.L790
	ldr	r3, [r0, #4]
	cmp	r3, #0
	beq	.L787
	ldr	r2, [r3, #8]
	cmp	r2, #0
	ldrne	r1, [sp, #16]
	ldreq	r2, [sp, #16]
	strne	r1, [r2]
	streq	r2, [r3, #4]
	str	r5, [r3, #8]
	b	.L918
.L833:
	ldr	r2, [r0, #32]
	sub	r3, r2, #1
	cmp	r2, #1
	str	r3, [r0, #32]
	bne	.L864
.L934:
	mcr	p15, 0, r0, c7, c10, 5
	ldr	r3, [r0]
	ldr	r3, [r3, #12]
	blx	r3
	mov	r0, r6
	add	sp, sp, #52
	@ sp needed
	pop	{r4, r5, r6, r7, r8, r9, r10, fp, pc}
.L771:
	ldr	r0, [sp, #28]
	bl	pthread_mutex_unlock(PLT)
	ldr	r4, [r6, #32]
	cmn	r4, #1
	bne	.L843
	b	.L769
.L932:
	ldr	r3, [r4]
	mov	r0, r4
	ldr	r3, [r3, #8]
	blx	r3
	add	r3, r4, #32
	mcr	p15, 0, r0, c7, c10, 5
	mcr	p15, 0, r0, c7, c10, 5
.L912:
	ldrex	r2, [r3]
	sub	r1, r2, #1
	strex	r0, r1, [r3]
	cmp	r0, #0
	bne	.L912
	mcr	p15, 0, r0, c7, c10, 5
.L841:
	cmp	r2, #1
	bne	.L820
	ldr	r3, [r4]
	mov	r0, r4
	ldr	r3, [r3, #12]
	blx	r3
	b	.L820
.L933:
	ldr	r3, [r4]
	mov	r0, r4
	ldr	r3, [r3, #8]
	blx	r3
	add	r3, r4, #32
	mcr	p15, 0, r0, c7, c10, 5
	mcr	p15, 0, r0, c7, c10, 5
.L911:
	ldrex	r2, [r3]
	sub	r1, r2, #1
	strex	r0, r1, [r3]
	cmp	r0, #0
	bne	.L911
	mcr	p15, 0, r0, c7, c10, 5
.L842:
	cmp	r2, #1
	bne	.L826
	ldr	r3, [r4]
	mov	r0, r4
	ldr	r3, [r3, #12]
	blx	r3
	b	.L826
.L927:
	str	r0, [sp, #32]
	str	r0, [sp, #36]
	str	r0, [sp, #40]
	str	r0, [sp, #44]
	ldr	r0, [sp, #24]
	add	ip, sp, #32
	mov	r1, #2
	mov	r2, r4
	mov	r3, ip
	ldr	r0, [r0, #56]
	bl	epoll_ctl(PLT)
	ldr	r1, [r6, #40]
	b	.L772
.L929:
	mov	r0, r5
	bl	__cxa_guard_acquire(PLT)
	cmp	r0, #0
	beq	.L808
	mov	r0, r5
	bl	__cxa_guard_release(PLT)
	ldr	r3, .L936+16
	ldr	r1, .L936+20
	ldr	r2, .L936+40
	ldr	r0, [r9, r3]
.LPIC67:
	add	r2, pc, r2
	ldr	r1, [r9, r1]
	bl	__aeabi_atexit(PLT)
	b	.L808
.L802:
	orr	r3, r3, #8
	mov	r5, #0
	strb	r3, [r6, #36]
	str	r5, [sp, #32]
	str	r5, [sp, #36]
	bl	__errno_location(PLT)
	mov	r2, #8
	add	r3, sp, #32
	mov	r1, #1
	str	r5, [r0]
	mov	r7, r0
	str	r2, [sp]
	mov	r0, r4
	mov	r2, #13
	bl	setsockopt(PLT)
	ldr	r3, .L936+12
	ldr	r5, [r9, r3]
	ldrb	r3, [r5]	@ zero_extendqisi2
	mcr	p15, 0, r0, c7, c10, 5
	tst	r3, #1
	bne	.L803
	mov	r0, r5
	bl	__cxa_guard_acquire(PLT)
	cmp	r0, #0
	beq	.L803
	mov	r0, r5
	bl	__cxa_guard_release(PLT)
	ldr	r3, .L936+16
	ldr	r1, .L936+20
	ldr	r2, .L936+44
	ldr	r0, [r9, r3]
.LPIC66:
	add	r2, pc, r2
	ldr	r1, [r9, r1]
	bl	__aeabi_atexit(PLT)
	b	.L803
.L931:
	add	r2, sp, #48
	mov	r8, #0
	str	r8, [r2, #-16]!
	ldr	r1, .L936+48
	mov	r0, r4
	bl	ioctl(PLT)
	ldrb	r3, [r6, #36]	@ zero_extendqisi2
	mov	r0, r4
	bic	r3, r3, #3
	strb	r3, [r6, #36]
	str	r8, [r7]
	bl	close(PLT)
	ldrb	r3, [r5]	@ zero_extendqisi2
	mcr	p15, 0, r0, c7, c10, 5
	tst	r3, #1
	bne	.L769
	mov	r0, r5
	bl	__cxa_guard_acquire(PLT)
	cmp	r0, #0
	beq	.L769
	mov	r0, r5
	bl	__cxa_guard_release(PLT)
	ldr	r3, .L936+16
	ldr	r1, .L936+20
	ldr	r2, .L936+52
	ldr	r0, [r9, r3]
.LPIC70:
	add	r2, pc, r2
	ldr	r1, [r9, r1]
	bl	__aeabi_atexit(PLT)
	b	.L769
.L798:
	ldrb	r2, [r4, #120]	@ zero_extendqisi2
	cmp	r2, #0
	bne	.L800
	ldr	r0, [r4, #104]
	cmp	r0, #0
	beq	.L800
	strb	r3, [r4, #120]
	add	r3, sp, #32
	add	r1, r0, #48
	mov	ip, #-2147483639
	str	r1, [sp, #40]
	str	r2, [r3, #4]
	str	r2, [r3, #12]
	str	ip, [sp, #32]
	mov	r1, #3
	ldr	r2, [r0, #48]
	ldr	r0, [r0, #56]
	bl	epoll_ctl(PLT)
.L800:
	mov	r0, r7
	bl	pthread_mutex_unlock(PLT)
	b	.L918
.L930:
	mov	r0, r5
	bl	__cxa_guard_acquire(PLT)
	cmp	r0, #0
	beq	.L812
	mov	r0, r5
	bl	__cxa_guard_release(PLT)
	ldr	r3, .L936+16
	ldr	r1, .L936+20
	ldr	r2, .L936+56
	ldr	r0, [r9, r3]
.LPIC68:
	add	r2, pc, r2
	ldr	r1, [r9, r1]
	bl	__aeabi_atexit(PLT)
	b	.L812
.L937:
	.align	2
.L936:
	.word	_GLOBAL_OFFSET_TABLE_-(.LPIC64+8)
	.word	_ZTVN7asiopal13SocketChannelE(GOT)
	.word	__dso_handle-(.LPIC65+8)
	.word	_ZGVZN4asio15system_categoryEvE8instance(GOT)
	.word	_ZZN4asio15system_categoryEvE8instance(GOT)
	.word	_ZN4asio6detail15system_categoryD1Ev(GOT)
	.word	__dso_handle-(.LPIC69+8)
	.word	_ZTVN7asiopal13IAsyncChannelE(GOT)
	.word	_ZL28__gthrw___pthread_key_createPjPFvPvE(GOT)
	.word	_ZN4asio6detail10call_stackINS0_15task_io_serviceENS0_27task_io_service_thread_infoEE4top_E(GOT)
	.word	__dso_handle-(.LPIC67+8)
	.word	__dso_handle-(.LPIC66+8)
	.word	21537
	.word	__dso_handle-(.LPIC70+8)
	.word	__dso_handle-(.LPIC68+8)
	.personality	__gxx_personality_v0
	.handlerdata
.LLSDA9028:
	.byte	0xff
	.byte	0xff
	.byte	0x1
	.uleb128 .LLSDACSE9028-.LLSDACSB9028
.LLSDACSB9028:
.LLSDACSE9028:
	.section	.text._ZN7asiopal13SocketChannelD2Ev,"axG",%progbits,_ZN7asiopal13SocketChannelD5Ev,comdat
	.fnend
	.size	_ZN7asiopal13SocketChannelD2Ev, .-_ZN7asiopal13SocketChannelD2Ev
	.weak	_ZN7asiopal13SocketChannelD1Ev
	.set	_ZN7asiopal13SocketChannelD1Ev,_ZN7asiopal13SocketChannelD2Ev
	.section	.text._ZN4asio6detail20posix_tss_ptr_createERj,"axG",%progbits,_ZN4asio6detail20posix_tss_ptr_createERj,comdat
	.align	2
	.weak	_ZN4asio6detail20posix_tss_ptr_createERj
	.syntax unified
	.arm
	.fpu vfp
	.type	_ZN4asio6detail20posix_tss_ptr_createERj, %function
_ZN4asio6detail20posix_tss_ptr_createERj:
	.fnstart
.LFB2103:
	@ args = 0, pretend = 0, frame = 24
	@ frame_needed = 0, uses_anonymous_args = 0
	push	{r4, r5, r6, lr}
	.save {r4, r5, r6, lr}
	mov	r1, #0
	.pad #24
	sub	sp, sp, #24
	bl	pthread_key_create(PLT)
	ldr	r4, .L952
	ldr	r3, .L952+4
.LPIC71:
	add	r4, pc, r4
	ldr	r6, [r4, r3]
	ldrb	r3, [r6]	@ zero_extendqisi2
	mcr	p15, 0, r0, c7, c10, 5
	tst	r3, #1
	mov	r5, r0
	beq	.L950
.L949:
	ldr	r3, .L952+8
	ldr	r6, [r4, r3]
.L940:
	cmp	r5, #0
	stm	sp, {r5, r6}
	bne	.L951
	add	sp, sp, #24
	@ sp needed
	pop	{r4, r5, r6, pc}
.L950:
	mov	r0, r6
	bl	__cxa_guard_acquire(PLT)
	cmp	r0, #0
	beq	.L949
	mov	r0, r6
	bl	__cxa_guard_release(PLT)
	ldr	r3, .L952+8
	ldr	r1, .L952+12
	ldr	r2, .L952+16
	ldr	r6, [r4, r3]
.LPIC72:
	add	r2, pc, r2
	ldr	r1, [r4, r1]
	mov	r0, r6
	bl	__aeabi_atexit(PLT)
	b	.L940
.L951:
	ldr	r3, .L952+20
	add	r5, sp, #8
	ldm	sp, {r1, r2}
.LPIC73:
	add	r3, pc, r3
	mov	r0, r5
.LEHB9:
	bl	_ZNSt12system_errorC1ESt10error_codePKc(PLT)
.LEHE9:
	mov	r0, #16
	bl	__cxa_allocate_exception(PLT)
	mov	r1, r5
	mov	r6, r0
	bl	_ZNSt13runtime_errorC2ERKS_(PLT)
	ldr	r3, .L952+24
	add	r2, sp, #24
	ldr	ip, .L952+28
	ldmdb	r2, {r0, r1}
	ldr	lr, [r4, r3]
	ldr	r2, .L952+32
	mov	r3, r6
	add	lr, lr, #8
	str	lr, [r3], #8
	stm	r3, {r0, r1}
	mov	r0, r6
	ldr	r2, [r4, r2]
	ldr	r1, [r4, ip]
.LEHB10:
	bl	__cxa_throw(PLT)
.LEHE10:
.L944:
	mov	r0, r5
	bl	_ZNSt12system_errorD1Ev(PLT)
.LEHB11:
	bl	__cxa_end_cleanup(PLT)
.LEHE11:
.L953:
	.align	2
.L952:
	.word	_GLOBAL_OFFSET_TABLE_-(.LPIC71+8)
	.word	_ZGVZN4asio15system_categoryEvE8instance(GOT)
	.word	_ZZN4asio15system_categoryEvE8instance(GOT)
	.word	_ZN4asio6detail15system_categoryD1Ev(GOT)
	.word	__dso_handle-(.LPIC72+8)
	.word	.LC20-(.LPIC73+8)
	.word	_ZTVSt12system_error(GOT)
	.word	_ZTISt12system_error(GOT)
	.word	_ZNSt12system_errorD1Ev(GOT)
	.personality	__gxx_personality_v0
	.handlerdata
.LLSDA2103:
	.byte	0xff
	.byte	0xff
	.byte	0x1
	.uleb128 .LLSDACSE2103-.LLSDACSB2103
.LLSDACSB2103:
	.uleb128 .LEHB9-.LFB2103
	.uleb128 .LEHE9-.LEHB9
	.uleb128 0
	.uleb128 0
	.uleb128 .LEHB10-.LFB2103
	.uleb128 .LEHE10-.LEHB10
	.uleb128 .L944-.LFB2103
	.uleb128 0
	.uleb128 .LEHB11-.LFB2103
	.uleb128 .LEHE11-.LEHB11
	.uleb128 0
	.uleb128 0
.LLSDACSE2103:
	.section	.text._ZN4asio6detail20posix_tss_ptr_createERj,"axG",%progbits,_ZN4asio6detail20posix_tss_ptr_createERj,comdat
	.fnend
	.size	_ZN4asio6detail20posix_tss_ptr_createERj, .-_ZN4asio6detail20posix_tss_ptr_createERj
	.section	.text._ZN4asio6detail15task_io_service25post_immediate_completionEPNS0_25task_io_service_operationEb,"axG",%progbits,_ZN4asio6detail15task_io_service25post_immediate_completionEPNS0_25task_io_service_operationEb,comdat
	.align	2
	.weak	_ZN4asio6detail15task_io_service25post_immediate_completionEPNS0_25task_io_service_operationEb
	.syntax unified
	.arm
	.fpu vfp
	.type	_ZN4asio6detail15task_io_service25post_immediate_completionEPNS0_25task_io_service_operationEb, %function
_ZN4asio6detail15task_io_service25post_immediate_completionEPNS0_25task_io_service_operationEb:
	.fnstart
.LFB3121:
	@ args = 0, pretend = 0, frame = 16
	@ frame_needed = 0, uses_anonymous_args = 0
	push	{r4, r5, r6, lr}
	mov	r5, r1
	ldrb	r1, [r0, #20]	@ zero_extendqisi2
	ldr	r3, .L988
	sub	sp, sp, #16
	orrs	r2, r2, r1
.LPIC74:
	add	r3, pc, r3
	mov	r4, r0
	beq	.L955
	ldr	r2, .L988+4
	ldr	r3, [r3, r2]
	ldr	r0, [r3]
	bl	pthread_getspecific(PLT)
	cmp	r0, #0
	bne	.L982
	b	.L955
.L958:
	ldr	r0, [r0, #8]
	cmp	r0, #0
	beq	.L955
.L982:
	ldr	r3, [r0]
	cmp	r4, r3
	bne	.L958
	ldr	r3, [r0, #4]
	cmp	r3, #0
	beq	.L955
	ldr	r1, [r3, #8]
	ldr	r2, [r3, #12]
	cmp	r1, #0
	add	r2, r2, #1
	mov	r0, #0
	str	r2, [r3, #12]
	str	r0, [r5]
	strne	r5, [r1]
	streq	r5, [r3, #8]
	strne	r5, [r3, #8]
	streq	r5, [r3, #4]
	add	sp, sp, #16
	@ sp needed
	pop	{r4, r5, r6, pc}
.L955:
	add	r3, r4, #124
	mcr	p15, 0, r0, c7, c10, 5
.L984:
	ldrex	r2, [r3]
	add	r2, r2, #1
	strex	r1, r2, [r3]
	cmp	r1, #0
	bne	.L984
	add	r6, r4, #24
	mcr	p15, 0, r0, c7, c10, 5
	mov	r0, r6
	bl	pthread_mutex_lock(PLT)
	ldr	r3, [r4, #132]
	mov	r2, #0
	cmp	r3, r2
	str	r2, [r5]
	strne	r5, [r3]
	ldr	r3, [r4, #96]
	strne	r5, [r4, #132]
	orr	r3, r3, #1
	streq	r5, [r4, #132]
	streq	r5, [r4, #128]
	cmp	r3, #1
	add	r5, r4, #48
	str	r3, [r4, #96]
	beq	.L965
	mov	r0, r6
	bl	pthread_mutex_unlock(PLT)
	mov	r0, r5
	bl	pthread_cond_signal(PLT)
	add	sp, sp, #16
	@ sp needed
	pop	{r4, r5, r6, pc}
.L965:
	ldrb	r1, [r4, #120]	@ zero_extendqisi2
	cmp	r1, #0
	bne	.L967
	ldr	r0, [r4, #104]
	cmp	r0, #0
	beq	.L967
	strb	r3, [r4, #120]
	add	lr, r0, #48
	mov	r4, #-2147483639
	ldr	r2, [r0, #48]
	str	r1, [sp, #4]
	str	r1, [sp, #12]
	mov	r3, sp
	ldr	r0, [r0, #56]
	mov	r1, #3
	str	r4, [sp]
	str	lr, [sp, #8]
	bl	epoll_ctl(PLT)
.L967:
	mov	r0, r6
	bl	pthread_mutex_unlock(PLT)
	add	sp, sp, #16
	@ sp needed
	pop	{r4, r5, r6, pc}
.L989:
	.align	2
.L988:
	.word	_GLOBAL_OFFSET_TABLE_-(.LPIC74+8)
	.word	_ZN4asio6detail10call_stackINS0_15task_io_serviceENS0_27task_io_service_thread_infoEE4top_E(GOT)
	.cantunwind
	.fnend
	.size	_ZN4asio6detail15task_io_service25post_immediate_completionEPNS0_25task_io_service_operationEb, .-_ZN4asio6detail15task_io_service25post_immediate_completionEPNS0_25task_io_service_operationEb
	.text
	.align	2
	.global	_ZN7asiopal13SocketChannel13BeginReadImplEN7openpal6WSliceE
	.syntax unified
	.arm
	.fpu vfp
	.type	_ZN7asiopal13SocketChannel13BeginReadImplEN7openpal6WSliceE, %function
_ZN7asiopal13SocketChannel13BeginReadImplEN7openpal6WSliceE:
	.fnstart
.LFB6786:
	@ args = 0, pretend = 0, frame = 80
	@ frame_needed = 0, uses_anonymous_args = 0
	ldr	r3, [r0, #12]
	push	{r4, r5, r6, r7, r8, r9, r10, fp, lr}
	.save {r4, r5, r6, r7, r8, r9, r10, fp, lr}
	mov	r5, r0
	ldr	r7, .L1175
	.pad #84
	sub	sp, sp, #84
	ldr	r0, .L1175+4
	ldr	ip, [r3, #20]
	ldr	r4, [r3, #24]
.LPIC75:
	add	r7, pc, r7
	add	r3, sp, #24
	str	r5, [sp, #72]
	stm	r3, {r1, r2}
	str	ip, [sp, #64]
	str	r4, [sp, #68]
	ldr	r3, [r7, r0]
	ldr	r2, [sp, #28]
	mov	fp, r1
	ldr	r0, [r3]
	ldr	r3, [r5, #48]
	str	r2, [sp, #4]
	str	r3, [sp, #12]
	bl	pthread_getspecific(PLT)
	cmp	r0, #0
	bne	.L995
	b	.L1065
.L994:
	ldr	r0, [r0, #8]
	cmp	r0, #0
	beq	.L1065
.L995:
	ldr	r3, [r0]
	cmp	r4, r3
	bne	.L994
	ldr	r0, [r0, #4]
	adds	r3, r0, #0
	movne	r3, #1
	str	r3, [sp, #16]
	b	.L991
.L1065:
	str	r0, [sp, #16]
.L991:
	ldr	r3, .L1175+8
	add	r9, sp, #36
	mov	r6, #0
	add	r8, sp, #64
	str	r6, [r9, #4]
	str	r6, [r9, #8]
	str	r8, [sp, #36]
	ldr	r3, [r7, r3]
	str	r3, [sp, #20]
	ldr	r0, [r3]
	bl	pthread_getspecific(PLT)
	cmp	r0, #0
	beq	.L996
	ldr	r3, [r0, #4]
	cmp	r3, r6
	beq	.L996
	ldr	r4, [r3]
	cmp	r4, r6
	beq	.L996
	str	r6, [r3]
	ldrb	r3, [r4]	@ zero_extendqisi2
	cmp	r3, #59
	bls	.L1165
.L1150:
	strb	r3, [r4, #60]
	ldr	r3, .L1175+12
	ldrb	r2, [r5, #36]	@ zero_extendqisi2
	mov	r6, #0
.LPIC76:
	add	r3, pc, r3
	ldr	r10, [r5, #32]
	str	r4, [sp, #40]
	str	r6, [r4, #8]
	str	r3, [r4, #4]
	str	r6, [r4]
	str	r6, [r4, #12]
	str	r2, [sp, #8]
	bl	_ZNSt3_V215system_categoryEv(PLT)
	ldr	ip, .L1175+16
	str	r6, [r4, #20]
	ldr	r2, [sp, #8]
	tst	r2, #16
	mov	r3, r0
	str	r3, [r4, #16]
	ldr	lr, [r7, ip]
	ldm	r8, {r0, r1}
	str	r6, [r4, #44]
	str	lr, [r4, #24]
	add	ip, r4, #48
	ldr	lr, [sp, #72]
	ldr	r6, [sp, #4]
	str	r10, [r4, #28]
	strb	r2, [r4, #32]
	str	r6, [r4, #36]
	str	fp, [r4, #40]
	str	r4, [sp, #44]
	stm	ip, {r0, r1}
	str	lr, [r4, #56]
	beq	.L999
	cmp	fp, #0
	beq	.L1000
.L999:
	ands	r8, r2, #3
	beq	.L1166
.L1059:
	ldr	r6, [r5, #40]
	ldr	r3, [sp, #12]
	cmp	r6, #0
	ldr	r8, [r3, #20]
	beq	.L1167
	add	r6, r6, #20
	mov	r0, r6
	bl	pthread_mutex_lock(PLT)
	ldr	r3, [r5, #40]
	ldrb	r2, [r3, #80]	@ zero_extendqisi2
	cmp	r2, #0
	bne	.L1168
	ldr	r1, [r3, #56]
	cmp	r1, #0
	beq	.L1169
.L1040:
	ldr	r2, [r3, #60]
	mov	r1, #0
	cmp	r2, r1
	str	r1, [r4]
	strne	r4, [r2]
	streq	r4, [r3, #60]
	strne	r4, [r3, #60]
	streq	r4, [r3, #56]
	ldr	r3, [r8, #20]
	mcr	p15, 0, r0, c7, c10, 5
	add	r3, r3, #124
.L1145:
	ldrex	r2, [r3]
	add	r2, r2, #1
	strex	r1, r2, [r3]
	cmp	r1, #0
	bne	.L1145
	mov	r0, r6
	mcr	p15, 0, r0, c7, c10, 5
	bl	pthread_mutex_unlock(PLT)
	b	.L990
.L1166:
	cmn	r10, #1
	bne	.L1001
	ldr	r3, .L1175+20
	ldr	r5, [r7, r3]
	ldrb	r3, [r5]	@ zero_extendqisi2
	mcr	p15, 0, r0, c7, c10, 5
	tst	r3, #1
	beq	.L1170
.L1151:
	ldr	r3, .L1175+24
	ldr	r6, [r7, r3]
.L1003:
	mov	r3, #9
	str	r6, [r4, #16]
	str	r3, [r4, #12]
.L1000:
	ldr	r3, [sp, #12]
	ldr	r2, [sp, #16]
	ldr	r3, [r3, #20]
	ldr	r5, [r3, #20]
	ldrb	r3, [r5, #20]	@ zero_extendqisi2
	orrs	r3, r2, r3
	bne	.L1171
.L1047:
	add	r3, r5, #124
	mcr	p15, 0, r0, c7, c10, 5
.L1144:
	ldrex	r2, [r3]
	add	r2, r2, #1
	strex	r1, r2, [r3]
	cmp	r1, #0
	bne	.L1144
	add	r6, r5, #24
	mcr	p15, 0, r0, c7, c10, 5
	mov	r0, r6
	bl	pthread_mutex_lock(PLT)
	ldr	r3, [r5, #132]
	mov	r2, #0
	cmp	r3, r2
	str	r2, [r4]
	strne	r4, [r3]
	ldr	r3, [r5, #96]
	strne	r4, [r5, #132]
	orr	r3, r3, #1
	streq	r4, [r5, #132]
	streq	r4, [r5, #128]
	cmp	r3, #1
	add	r4, r5, #48
	str	r3, [r5, #96]
	beq	.L1056
.L1156:
	mov	r0, r6
	bl	pthread_mutex_unlock(PLT)
	mov	r0, r4
	bl	pthread_cond_signal(PLT)
.L990:
	add	sp, sp, #84
	@ sp needed
	pop	{r4, r5, r6, r7, r8, r9, r10, fp, pc}
.L1171:
	ldr	r3, [sp, #20]
	ldr	r0, [r3]
	bl	pthread_getspecific(PLT)
	cmp	r0, #0
	beq	.L1047
	ldr	r3, [r0]
	cmp	r3, r5
	bne	.L1050
	b	.L1048
.L1134:
	ldr	r3, [r0]
	cmp	r5, r3
	beq	.L1048
.L1050:
	ldr	r0, [r0, #8]
	cmp	r0, #0
	bne	.L1134
	b	.L1047
.L1165:
	mov	r0, r4
	bl	_ZdlPv(PLT)
.L996:
	mov	r0, #61
.LEHB12:
	bl	_Znwj(PLT)
.LEHE12:
	mov	r3, #60
	mov	r4, r0
	b	.L1150
.L1048:
	ldr	r3, [r0, #4]
	cmp	r3, #0
	beq	.L1047
.L1051:
	ldr	r1, [r3, #8]
	ldr	r2, [r3, #12]
	cmp	r1, #0
	add	r2, r2, #1
	mov	r0, #0
	str	r2, [r3, #12]
	str	r0, [r4]
	strne	r4, [r1]
	streq	r4, [r3, #8]
	strne	r4, [r3, #8]
	streq	r4, [r3, #4]
	add	sp, sp, #84
	@ sp needed
	pop	{r4, r5, r6, r7, r8, r9, r10, fp, pc}
.L1056:
	ldrb	r2, [r5, #120]	@ zero_extendqisi2
	cmp	r2, #0
	bne	.L1034
	ldr	r0, [r5, #104]
	cmp	r0, #0
	beq	.L1034
	add	r1, sp, #48
	strb	r3, [r5, #120]
	mov	lr, #-2147483639
	add	ip, r0, #48
	mov	r3, r1
	str	r2, [sp, #52]
	str	r2, [sp, #60]
.L1158:
	str	lr, [sp, #48]
	str	ip, [sp, #56]
	mov	r1, #3
	ldr	r2, [r0, #48]
	ldr	r0, [r0, #56]
	bl	epoll_ctl(PLT)
.L1034:
	mov	r0, r6
	bl	pthread_mutex_unlock(PLT)
	add	sp, sp, #84
	@ sp needed
	pop	{r4, r5, r6, r7, r8, r9, r10, fp, pc}
.L1001:
	str	r3, [sp, #4]
	bl	__errno_location(PLT)
	add	r2, sp, #80
	mov	r1, #1
	str	r1, [r2, #-32]!
	ldr	r1, .L1175+28
	mov	r6, r0
	str	r8, [r0]
	mov	r0, r10
	bl	ioctl(PLT)
	ldr	r2, .L1175+20
	ldr	r10, [r6]
	ldr	r6, [r7, r2]
	ldrb	r2, [r6]	@ zero_extendqisi2
	mcr	p15, 0, r0, c7, c10, 5
	ldr	r3, [sp, #4]
	tst	r2, #1
	mov	r8, r0
	beq	.L1172
.L1152:
	ldr	r2, .L1175+24
	ldr	r6, [r7, r2]
.L1007:
	cmp	r8, #0
	str	r10, [r4, #12]
	str	r6, [r4, #16]
	blt	.L1000
	mov	r2, #0
	str	r3, [r4, #16]
	str	r2, [r4, #12]
	ldrb	r3, [r5, #36]	@ zero_extendqisi2
	ldr	r10, [r5, #32]
	orr	r3, r3, #2
	strb	r3, [r5, #36]
	b	.L1059
.L1172:
	mov	r0, r6
	str	r3, [sp, #4]
	bl	__cxa_guard_acquire(PLT)
	ldr	r3, [sp, #4]
	cmp	r0, #0
	beq	.L1152
	mov	r0, r6
	str	r3, [sp, #4]
	bl	__cxa_guard_release(PLT)
	ldr	r0, .L1175+24
	ldr	r1, .L1175+32
	ldr	r2, .L1175+36
	ldr	r6, [r7, r0]
.LPIC78:
	add	r2, pc, r2
	ldr	r1, [r7, r1]
	mov	r0, r6
	bl	__aeabi_atexit(PLT)
	ldr	r3, [sp, #4]
	b	.L1007
.L1167:
	ldr	r3, .L1175+20
	ldr	r5, [r7, r3]
	ldrb	r3, [r5]	@ zero_extendqisi2
	mcr	p15, 0, r0, c7, c10, 5
	tst	r3, #1
	beq	.L1173
.L1153:
	ldr	r3, .L1175+24
	ldr	r6, [r7, r3]
.L1011:
	ldr	r5, [r8, #20]
	mov	r2, #9
	str	r6, [r4, #16]
	ldrb	r3, [r5, #20]	@ zero_extendqisi2
	str	r2, [r4, #12]
	ldr	r2, [sp, #16]
	orrs	r3, r2, r3
	beq	.L1013
	ldr	r3, [sp, #20]
	ldr	r0, [r3]
	bl	pthread_getspecific(PLT)
	cmp	r0, #0
	beq	.L1013
	ldr	r3, [r0]
	cmp	r3, r5
	bne	.L1016
	b	.L1014
.L1131:
	ldr	r3, [r0]
	cmp	r5, r3
	beq	.L1014
.L1016:
	ldr	r0, [r0, #8]
	cmp	r0, #0
	bne	.L1131
.L1013:
	add	r3, r5, #124
	mcr	p15, 0, r0, c7, c10, 5
.L1147:
	ldrex	r2, [r3]
	add	r2, r2, #1
	strex	r1, r2, [r3]
	cmp	r1, #0
	bne	.L1147
	add	r6, r5, #24
	mcr	p15, 0, r0, c7, c10, 5
	mov	r0, r6
	bl	pthread_mutex_lock(PLT)
	ldr	r3, [r5, #132]
	mov	r2, #0
	cmp	r3, r2
	str	r2, [r4]
	strne	r4, [r3]
	ldr	r3, [r5, #96]
	strne	r4, [r5, #132]
	orr	r3, r3, #1
	streq	r4, [r5, #132]
	streq	r4, [r5, #128]
	cmp	r3, #1
	add	r4, r5, #48
	str	r3, [r5, #96]
	bne	.L1156
	ldrb	r1, [r5, #120]	@ zero_extendqisi2
	cmp	r1, #0
	bne	.L1034
	ldr	r0, [r5, #104]
	cmp	r0, #0
	beq	.L1034
	add	r2, sp, #48
	strb	r3, [r5, #120]
	mov	lr, #-2147483639
	add	ip, r0, #48
	mov	r3, r2
	str	r1, [sp, #52]
	str	r1, [sp, #60]
	b	.L1158
.L1168:
	ldr	r5, [r8, #20]
	ldr	r2, [sp, #16]
	ldrb	r3, [r5, #20]	@ zero_extendqisi2
	orrs	r3, r2, r3
	beq	.L1027
	ldr	r3, [sp, #20]
	ldr	r0, [r3]
	bl	pthread_getspecific(PLT)
	cmp	r0, #0
	beq	.L1027
	ldr	r3, [r0]
	cmp	r3, r5
	bne	.L1030
	b	.L1028
.L1132:
	ldr	r3, [r0]
	cmp	r5, r3
	beq	.L1028
.L1030:
	ldr	r0, [r0, #8]
	cmp	r0, #0
	bne	.L1132
.L1027:
	add	r3, r5, #124
	mcr	p15, 0, r0, c7, c10, 5
.L1146:
	ldrex	r2, [r3]
	add	r2, r2, #1
	strex	r1, r2, [r3]
	cmp	r1, #0
	bne	.L1146
	add	r7, r5, #24
	mcr	p15, 0, r0, c7, c10, 5
	mov	r0, r7
	bl	pthread_mutex_lock(PLT)
	ldr	r3, [r5, #132]
	mov	r2, #0
	cmp	r3, r2
	str	r2, [r4]
	strne	r4, [r3]
	ldr	r3, [r5, #96]
	strne	r4, [r5, #132]
	orr	r3, r3, #1
	streq	r4, [r5, #132]
	streq	r4, [r5, #128]
	cmp	r3, #1
	add	r4, r5, #48
	str	r3, [r5, #96]
	beq	.L1037
	mov	r0, r7
	bl	pthread_mutex_unlock(PLT)
	mov	r0, r4
	bl	pthread_cond_signal(PLT)
	b	.L1034
.L1028:
	ldr	r3, [r0, #4]
	cmp	r3, #0
	beq	.L1027
	ldr	r1, [r3, #8]
	ldr	r2, [r3, #12]
	cmp	r1, #0
	add	r2, r2, #1
	mov	r0, #0
	str	r2, [r3, #12]
	str	r0, [r4]
	strne	r4, [r1]
	streq	r4, [r3, #8]
	strne	r4, [r3, #8]
	streq	r4, [r3, #4]
	b	.L1034
.L1037:
	ldrb	r2, [r5, #120]	@ zero_extendqisi2
	cmp	r2, #0
	bne	.L1039
	ldr	r0, [r5, #104]
	cmp	r0, #0
	beq	.L1039
	strb	r3, [r5, #120]
	add	r3, sp, #48
	add	r1, r0, #48
	mov	ip, #-2147483639
	str	r1, [sp, #56]
	str	r2, [r3, #4]
	str	r2, [r3, #12]
	str	ip, [sp, #48]
	mov	r1, #3
	ldr	r2, [r0, #48]
	ldr	r0, [r0, #56]
	bl	epoll_ctl(PLT)
.L1039:
	mov	r0, r7
	bl	pthread_mutex_unlock(PLT)
	b	.L1034
.L1173:
	mov	r0, r5
	bl	__cxa_guard_acquire(PLT)
	cmp	r0, #0
	beq	.L1153
	mov	r0, r5
	bl	__cxa_guard_release(PLT)
	ldr	r3, .L1175+24
	ldr	r1, .L1175+32
	ldr	r2, .L1175+40
	ldr	r6, [r7, r3]
.LPIC79:
	add	r2, pc, r2
	ldr	r1, [r7, r1]
	mov	r0, r6
	bl	__aeabi_atexit(PLT)
	b	.L1011
.L1170:
	mov	r0, r5
	bl	__cxa_guard_acquire(PLT)
	cmp	r0, #0
	beq	.L1151
	mov	r0, r5
	bl	__cxa_guard_release(PLT)
	ldr	r3, .L1175+24
	ldr	r1, .L1175+32
	ldr	r2, .L1175+44
	ldr	r6, [r7, r3]
.LPIC77:
	add	r2, pc, r2
	ldr	r1, [r7, r1]
	mov	r0, r6
	bl	__aeabi_atexit(PLT)
	b	.L1003
.L1014:
	ldr	r3, [r0, #4]
	cmp	r3, #0
	bne	.L1051
	b	.L1013
.L1169:
	ldr	r2, [r3, #72]
	cmp	r2, #0
	beq	.L1174
	ldr	r0, [r3, #52]
	add	ip, sp, #48
	str	r3, [sp, #56]
	str	r0, [sp, #48]
	mov	r2, r10
	ldr	r0, [r8, #56]
	mov	r3, ip
	str	r1, [sp, #52]
	str	r1, [sp, #60]
	mov	r1, #3
	bl	epoll_ctl(PLT)
.L1154:
	ldr	r3, [r5, #40]
	b	.L1040
.L1174:
	ldr	r3, [r4, #24]
	mov	r0, r4
.LEHB13:
	blx	r3
.LEHE13:
	cmp	r0, #0
	beq	.L1154
	mov	r0, r6
	bl	pthread_mutex_unlock(PLT)
	ldr	r2, [sp, #16]
	mov	r1, r4
	ldr	r0, [r8, #20]
	bl	_ZN4asio6detail15task_io_service25post_immediate_completionEPNS0_25task_io_service_operationEb(PLT)
	b	.L990
.L1066:
	mov	r0, r6
	bl	pthread_mutex_unlock(PLT)
	mov	r0, r9
	bl	_ZN4asio6detail23reactive_socket_recv_opINS_17mutable_buffers_1ENS0_15wrapped_handlerINS_10io_service6strandEZN7asiopal13SocketChannel13BeginReadImplEN7openpal6WSliceEEUlRKSt10error_codejE_NS0_26is_continuation_if_runningEEEE3ptr5resetEv(PLT)
.LEHB14:
	bl	__cxa_end_cleanup(PLT)
.LEHE14:
.L1176:
	.align	2
.L1175:
	.word	_GLOBAL_OFFSET_TABLE_-(.LPIC75+8)
	.word	_ZN4asio6detail10call_stackINS0_14strand_service11strand_implEhE4top_E(GOT)
	.word	_ZN4asio6detail10call_stackINS0_15task_io_serviceENS0_27task_io_service_thread_infoEE4top_E(GOT)
	.word	_ZN4asio6detail23reactive_socket_recv_opINS_17mutable_buffers_1ENS0_15wrapped_handlerINS_10io_service6strandEZN7asiopal13SocketChannel13BeginReadImplEN7openpal6WSliceEEUlRKSt10error_codejE_NS0_26is_continuation_if_runningEEEE11do_completeEPNS0_15task_io_serviceEPNS0_25task_io_service_operationESC_j-(.LPIC76+8)
	.word	_ZN4asio6detail28reactive_socket_recv_op_baseINS_17mutable_buffers_1EE10do_performEPNS0_10reactor_opE(GOT)
	.word	_ZGVZN4asio15system_categoryEvE8instance(GOT)
	.word	_ZZN4asio15system_categoryEvE8instance(GOT)
	.word	21537
	.word	_ZN4asio6detail15system_categoryD1Ev(GOT)
	.word	__dso_handle-(.LPIC78+8)
	.word	__dso_handle-(.LPIC79+8)
	.word	__dso_handle-(.LPIC77+8)
	.personality	__gxx_personality_v0
	.handlerdata
.LLSDA6786:
	.byte	0xff
	.byte	0xff
	.byte	0x1
	.uleb128 .LLSDACSE6786-.LLSDACSB6786
.LLSDACSB6786:
	.uleb128 .LEHB12-.LFB6786
	.uleb128 .LEHE12-.LEHB12
	.uleb128 0
	.uleb128 0
	.uleb128 .LEHB13-.LFB6786
	.uleb128 .LEHE13-.LEHB13
	.uleb128 .L1066-.LFB6786
	.uleb128 0
	.uleb128 .LEHB14-.LFB6786
	.uleb128 .LEHE14-.LEHB14
	.uleb128 0
	.uleb128 0
.LLSDACSE6786:
	.text
	.fnend
	.size	_ZN7asiopal13SocketChannel13BeginReadImplEN7openpal6WSliceE, .-_ZN7asiopal13SocketChannel13BeginReadImplEN7openpal6WSliceE
	.section	.text._ZN4asio6detail14strand_service16on_dispatch_exitD2Ev,"axG",%progbits,_ZN4asio6detail14strand_service16on_dispatch_exitD5Ev,comdat
	.align	2
	.weak	_ZN4asio6detail14strand_service16on_dispatch_exitD2Ev
	.syntax unified
	.arm
	.fpu vfp
	.type	_ZN4asio6detail14strand_service16on_dispatch_exitD2Ev, %function
_ZN4asio6detail14strand_service16on_dispatch_exitD2Ev:
	.fnstart
.LFB6165:
	@ args = 0, pretend = 0, frame = 16
	@ frame_needed = 0, uses_anonymous_args = 0
	push	{r4, r5, r6, r7, lr}
	mov	r5, r0
	ldr	r0, [r0, #4]
	sub	sp, sp, #20
	add	r0, r0, #12
	bl	pthread_mutex_lock(PLT)
	ldr	r0, [r5, #4]
	ldr	r6, .L1221
	ldr	r4, [r0, #40]
.LPIC80:
	add	r6, pc, r6
	cmp	r4, #0
	ldreq	r4, [r0, #48]
	beq	.L1179
	ldr	r3, [r0, #52]
	cmp	r3, #0
	strne	r4, [r3]
	ldrne	r4, [r0, #48]
	ldr	r2, [r0, #44]
	mov	r3, #0
	streq	r4, [r0, #48]
	str	r2, [r0, #52]
	str	r3, [r0, #40]
	str	r3, [r0, #44]
.L1179:
	adds	r3, r4, #0
	movne	r3, #1
	strb	r3, [r0, #36]
	add	r0, r0, #12
	bl	pthread_mutex_unlock(PLT)
	cmp	r4, #0
	bne	.L1219
.L1201:
	mov	r0, r5
	add	sp, sp, #20
	@ sp needed
	pop	{r4, r5, r6, r7, pc}
.L1219:
	ldm	r5, {r4, r7}
	ldrb	r3, [r4, #20]	@ zero_extendqisi2
	cmp	r3, #0
	bne	.L1220
.L1183:
	add	r3, r4, #124
	mcr	p15, 0, r0, c7, c10, 5
.L1215:
	ldrex	r2, [r3]
	add	r2, r2, #1
	strex	r1, r2, [r3]
	cmp	r1, #0
	bne	.L1215
	add	r6, r4, #24
	mcr	p15, 0, r0, c7, c10, 5
	mov	r0, r6
	bl	pthread_mutex_lock(PLT)
	ldr	r3, [r4, #132]
	mov	r2, #0
	cmp	r3, r2
	str	r2, [r7]
	strne	r7, [r3]
	ldr	r3, [r4, #96]
	strne	r7, [r4, #132]
	orr	r3, r3, #1
	streq	r7, [r4, #132]
	streq	r7, [r4, #128]
	cmp	r3, #1
	add	r7, r4, #48
	str	r3, [r4, #96]
	beq	.L1192
	mov	r0, r6
	bl	pthread_mutex_unlock(PLT)
	mov	r0, r7
	bl	pthread_cond_signal(PLT)
	mov	r0, r5
	add	sp, sp, #20
	@ sp needed
	pop	{r4, r5, r6, r7, pc}
.L1192:
	ldrb	r2, [r4, #120]	@ zero_extendqisi2
	cmp	r2, #0
	bne	.L1194
	ldr	r0, [r4, #104]
	cmp	r0, #0
	beq	.L1194
	add	ip, r0, #48
	strb	r3, [r4, #120]
	mov	lr, #-2147483639
	str	r2, [sp, #4]
	str	r2, [sp, #12]
	mov	r3, sp
	ldr	r2, [r0, #48]
	mov	r1, #3
	ldr	r0, [r0, #56]
	str	lr, [sp]
	str	ip, [sp, #8]
	bl	epoll_ctl(PLT)
.L1194:
	mov	r0, r6
	bl	pthread_mutex_unlock(PLT)
	mov	r0, r5
	add	sp, sp, #20
	@ sp needed
	pop	{r4, r5, r6, r7, pc}
.L1220:
	ldr	r3, .L1221+4
	ldr	r3, [r6, r3]
	ldr	r0, [r3]
	bl	pthread_getspecific(PLT)
	cmp	r0, #0
	bne	.L1213
	b	.L1183
.L1186:
	ldr	r0, [r0, #8]
	cmp	r0, #0
	beq	.L1183
.L1213:
	ldr	r3, [r0]
	cmp	r4, r3
	bne	.L1186
	ldr	r3, [r0, #4]
	cmp	r3, #0
	beq	.L1183
	ldr	r1, [r3, #8]
	ldr	r2, [r3, #12]
	cmp	r1, #0
	add	r2, r2, #1
	mov	r0, #0
	str	r2, [r3, #12]
	str	r0, [r7]
	strne	r7, [r1]
	streq	r7, [r3, #8]
	strne	r7, [r3, #8]
	streq	r7, [r3, #4]
	b	.L1201
.L1222:
	.align	2
.L1221:
	.word	_GLOBAL_OFFSET_TABLE_-(.LPIC80+8)
	.word	_ZN4asio6detail10call_stackINS0_15task_io_serviceENS0_27task_io_service_thread_infoEE4top_E(GOT)
	.cantunwind
	.fnend
	.size	_ZN4asio6detail14strand_service16on_dispatch_exitD2Ev, .-_ZN4asio6detail14strand_service16on_dispatch_exitD2Ev
	.weak	_ZN4asio6detail14strand_service16on_dispatch_exitD1Ev
	.set	_ZN4asio6detail14strand_service16on_dispatch_exitD1Ev,_ZN4asio6detail14strand_service16on_dispatch_exitD2Ev
	.text
	.align	2
	.syntax unified
	.arm
	.fpu vfp
	.type	_ZN4asio6detail14strand_service8dispatchINS0_7binder2IZN7asiopal13SocketChannel13BeginReadImplEN7openpal6WSliceEEUlRKSt10error_codejE_S8_jEEEEvRPNS1_11strand_implERT_, %function
_ZN4asio6detail14strand_service8dispatchINS0_7binder2IZN7asiopal13SocketChannel13BeginReadImplEN7openpal6WSliceEEUlRKSt10error_codejE_S8_jEEEEvRPNS1_11strand_implERT_:
	.fnstart
.LFB8994:
	@ args = 0, pretend = 0, frame = 64
	@ frame_needed = 0, uses_anonymous_args = 0
	push	{r4, r5, r6, r7, r8, r9, r10, fp, lr}
	.save {r4, r5, r6, r7, r8, r9, r10, fp, lr}
	mov	r6, r0
	ldr	r7, .L1410
	ldr	r3, .L1410+4
.LPIC81:
	add	r7, pc, r7
	.pad #68
	sub	sp, sp, #68
	ldr	r8, [r7, r3]
	mov	r5, r1
	mov	r9, r2
	ldr	r0, [r8]
	ldr	r4, [r1]
	bl	pthread_getspecific(PLT)
	cmp	r0, #0
	bne	.L1377
	b	.L1224
.L1227:
	ldr	r0, [r0, #8]
	cmp	r0, #0
	beq	.L1224
.L1377:
	ldr	r3, [r0]
	cmp	r4, r3
	bne	.L1227
	ldr	r3, [r0, #4]
	cmp	r3, #0
	addne	r3, sp, #64
	movne	r1, #0
	strne	r1, [r3, #-16]!
	movne	r2, #1
	beq	.L1224
.L1389:
	ldrex	r0, [r3]
	strex	ip, r2, [r3]
	cmp	ip, #0
	bne	.L1389
	mcr	p15, 0, r0, c7, c10, 5
	ldr	r3, [r9]
	ldr	r2, [r9, #12]
	ldr	r0, [r3, #20]
	strb	r1, [r3, #29]
	cmp	r0, r1
	beq	.L1232
	ldrb	r3, [r3, #28]	@ zero_extendqisi2
	cmp	r3, #0
	bne	.L1232
	ldr	r3, [r0]
	add	r1, r9, #4
	ldr	r3, [r3, #8]
.LEHB15:
	blx	r3
.LEHE15:
.L1232:
	mov	r3, #0
	mcr	p15, 0, r0, c7, c10, 5
	str	r3, [sp, #48]
.L1223:
	add	sp, sp, #68
	@ sp needed
	pop	{r4, r5, r6, r7, r8, r9, r10, fp, pc}
.L1224:
	ldr	r3, .L1410+8
	add	r10, sp, #12
	mov	fp, #0
	str	r9, [sp, #12]
	str	fp, [r10, #4]
	str	fp, [r10, #8]
	ldr	r7, [r7, r3]
	ldr	r0, [r7]
	bl	pthread_getspecific(PLT)
	cmp	r0, #0
	beq	.L1234
	ldr	r3, [r0, #4]
	cmp	r3, fp
	beq	.L1234
	ldr	r4, [r3]
	cmp	r4, fp
	beq	.L1234
	str	fp, [r3]
	ldrb	r3, [r4]	@ zero_extendqisi2
	cmp	r3, #27
	bls	.L1400
.L1392:
	strb	r3, [r4, #28]
	ldr	lr, .L1410+12
	ldm	r9, {r0, r1, r2, r3}
	add	ip, r4, #12
.LPIC82:
	add	lr, pc, lr
	str	r4, [sp, #16]
	str	lr, [r4, #4]
	mov	lr, #0
	str	lr, [r4]
	str	lr, [r4, #8]
	stm	ip, {r0, r1, r2, r3}
	ldr	r0, [r7]
	str	r4, [sp, #20]
	ldr	r9, [r6, #20]
	bl	pthread_getspecific(PLT)
	subs	r3, r0, #0
	bne	.L1379
	b	.L1237
.L1240:
	ldr	r3, [r3, #8]
	cmp	r3, #0
	beq	.L1237
.L1379:
	ldr	r2, [r3]
	cmp	r9, r2
	bne	.L1240
	ldr	r0, [r5]
	ldr	r9, [r3, #4]
	add	r0, r0, #12
	bl	pthread_mutex_lock(PLT)
	cmp	r9, #0
	beq	.L1242
	ldr	r0, [r5]
	ldrb	r9, [r0, #36]	@ zero_extendqisi2
	cmp	r9, #0
	beq	.L1401
.L1244:
	ldr	r3, [r0, #44]
	mov	r2, #0
	cmp	r3, r2
	str	r2, [r4]
	add	r0, r0, #12
	strne	r4, [r3]
	streq	r4, [r0, #32]
	strne	r4, [r0, #32]
	streq	r4, [r0, #28]
	bl	pthread_mutex_unlock(PLT)
	b	.L1223
.L1400:
	mov	r0, r4
	bl	_ZdlPv(PLT)
.L1234:
	mov	r0, #29
.LEHB16:
	bl	_Znwj(PLT)
.LEHE16:
	mov	r3, #28
	mov	r4, r0
	b	.L1392
.L1237:
	ldr	r0, [r5]
	add	r0, r0, #12
	bl	pthread_mutex_lock(PLT)
.L1242:
	ldr	r0, [r5]
	ldrb	r8, [r0, #36]	@ zero_extendqisi2
	cmp	r8, #0
	bne	.L1244
	mov	r3, #1
	strb	r3, [r0, #36]
	add	r0, r0, #12
	bl	pthread_mutex_unlock(PLT)
	ldr	r5, [r5]
	str	r8, [r4]
	ldr	r3, [r5, #52]
	cmp	r3, #0
	strne	r4, [r3]
	streq	r4, [r5, #52]
	strne	r4, [r5, #52]
	streq	r4, [r5, #48]
	ldr	r4, [r6, #20]
	ldrb	r3, [r4, #20]	@ zero_extendqisi2
	cmp	r3, #0
	bne	.L1402
.L1253:
	add	r3, r4, #124
	mcr	p15, 0, r0, c7, c10, 5
.L1388:
	ldrex	r2, [r3]
	add	r2, r2, #1
	strex	r1, r2, [r3]
	cmp	r1, #0
	bne	.L1388
	add	r6, r4, #24
	mcr	p15, 0, r0, c7, c10, 5
	mov	r0, r6
	bl	pthread_mutex_lock(PLT)
	ldr	r3, [r4, #132]
	mov	r2, #0
	cmp	r3, r2
	str	r2, [r5]
	strne	r5, [r3]
	ldr	r3, [r4, #96]
	strne	r5, [r4, #132]
	orr	r3, r3, #1
	streq	r5, [r4, #132]
	streq	r5, [r4, #128]
	cmp	r3, #1
	add	r5, r4, #48
	str	r3, [r4, #96]
	beq	.L1262
	mov	r0, r6
	bl	pthread_mutex_unlock(PLT)
	mov	r0, r5
	bl	pthread_cond_signal(PLT)
	b	.L1223
.L1401:
	mov	r3, #1
	strb	r3, [r0, #36]
	add	r0, r0, #12
	bl	pthread_mutex_unlock(PLT)
	ldr	r3, [r5]
	ldr	r0, [r8]
	ldr	fp, [sp, #20]
	str	r3, [sp, #24]
	str	r9, [sp, #16]
	str	r9, [sp, #20]
	bl	pthread_getspecific(PLT)
	add	r3, sp, #24
	mov	r1, r3
	str	r3, [sp, #28]
	add	r4, sp, #48
	str	r0, [sp, #32]
	ldr	r0, [r8]
	bl	pthread_setspecific(PLT)
	add	r3, fp, #12
	ldr	r6, [r6, #20]
	ldm	r3, {r0, r1, r2, r3}
	ldr	ip, [r5]
	str	fp, [sp, #40]
	stm	r4, {r0, r1, r2, r3}
	ldr	r0, [r7]
	stmib	sp, {r6, ip}
	str	r9, [sp, #44]
	str	r4, [sp, #36]
	bl	pthread_getspecific(PLT)
	cmp	r0, #0
	beq	.L1246
	ldr	r3, [r0, #4]
	cmp	r3, #0
	beq	.L1246
	ldr	r2, [r3]
	cmp	r2, #0
	beq	.L1403
.L1246:
	mov	r0, fp
	bl	_ZdlPv(PLT)
.L1265:
	mov	r1, #0
	cmp	r6, #0
	str	r1, [sp, #40]
	beq	.L1266
	add	r3, sp, #64
	mov	r2, #1
	str	r1, [r3, #-64]!
.L1387:
	ldrex	r0, [r3]
	strex	ip, r2, [r3]
	cmp	ip, #0
	bne	.L1387
	mcr	p15, 0, r0, c7, c10, 5
	ldr	r3, [sp, #48]
	ldr	r2, [sp, #60]
	ldr	r0, [r3, #20]
	strb	r1, [r3, #29]
	cmp	r0, r1
	beq	.L1270
	ldrb	r3, [r3, #28]	@ zero_extendqisi2
	cmp	r3, #0
	beq	.L1404
.L1270:
	mov	r3, #0
	mcr	p15, 0, r0, c7, c10, 5
	str	r3, [sp]
	ldr	r3, [sp, #44]
	cmp	r3, #0
	ldrne	r6, [sp, #40]
	beq	.L1405
.L1300:
	mov	r3, #0
	str	r3, [sp, #44]
.L1272:
	cmp	r6, #0
	beq	.L1273
	ldr	r0, [r7]
	bl	pthread_getspecific(PLT)
	cmp	r0, #0
	beq	.L1274
	ldr	r3, [r0, #4]
	cmp	r3, #0
	beq	.L1274
	ldr	r2, [r3]
	cmp	r2, #0
	beq	.L1406
.L1274:
	mov	r0, r6
	bl	_ZdlPv(PLT)
.L1273:
	ldr	r0, [sp, #8]
	add	r0, r0, #12
	bl	pthread_mutex_lock(PLT)
	ldr	r0, [sp, #8]
	ldr	r5, [r0, #40]
	cmp	r5, #0
	ldreq	r5, [r0, #48]
	beq	.L1276
	ldr	r3, [r0, #52]
	cmp	r3, #0
	strne	r5, [r3]
	ldrne	r5, [r0, #48]
	ldr	r2, [r0, #44]
	mov	r3, #0
	streq	r5, [r0, #48]
	str	r2, [r0, #52]
	str	r3, [r0, #40]
	str	r3, [r0, #44]
.L1276:
	adds	r3, r5, #0
	movne	r3, #1
	strb	r3, [r0, #36]
	add	r0, r0, #12
	bl	pthread_mutex_unlock(PLT)
	cmp	r5, #0
	bne	.L1407
.L1280:
	ldr	r0, [r8]
	ldr	r1, [sp, #32]
	bl	pthread_setspecific(PLT)
	ldr	r3, [sp, #20]
	ldr	r4, [sp, #16]
	cmp	r3, #0
	movne	r3, #0
	strne	r3, [sp, #20]
	cmp	r4, #0
	beq	.L1223
	ldr	r0, [r7]
	bl	pthread_getspecific(PLT)
	cmp	r0, #0
	beq	.L1296
	ldr	r3, [r0, #4]
	cmp	r3, #0
	beq	.L1296
	ldr	r2, [r3]
	cmp	r2, #0
	beq	.L1408
.L1296:
	mov	r0, r4
	bl	_ZdlPv(PLT)
	add	sp, sp, #68
	@ sp needed
	pop	{r4, r5, r6, r7, r8, r9, r10, fp, pc}
.L1407:
	ldmib	sp, {r5, r6}
	ldrb	r3, [r5, #20]	@ zero_extendqisi2
	cmp	r3, #0
	bne	.L1409
.L1281:
	add	r3, r5, #124
	mcr	p15, 0, r0, c7, c10, 5
.L1386:
	ldrex	r2, [r3]
	add	r2, r2, #1
	strex	r1, r2, [r3]
	cmp	r1, #0
	bne	.L1386
	add	r9, r5, #24
	mcr	p15, 0, r0, c7, c10, 5
	mov	r0, r9
	bl	pthread_mutex_lock(PLT)
	ldr	r3, [r5, #132]
	mov	r2, #0
	cmp	r3, r2
	str	r2, [r6]
	strne	r6, [r3]
	ldr	r3, [r5, #96]
	strne	r6, [r5, #132]
	orr	r3, r3, #1
	streq	r6, [r5, #132]
	streq	r6, [r5, #128]
	cmp	r3, #1
	add	r6, r5, #48
	str	r3, [r5, #96]
	beq	.L1290
	mov	r0, r9
	bl	pthread_mutex_unlock(PLT)
	mov	r0, r6
	bl	pthread_cond_signal(PLT)
	b	.L1280
.L1404:
	ldr	r3, [r0]
	add	r1, sp, #52
	ldr	r3, [r3, #8]
.LEHB17:
	blx	r3
.LEHE17:
	b	.L1270
.L1406:
	ldrb	r2, [r6, #28]	@ zero_extendqisi2
	strb	r2, [r6]
	str	r6, [r3]
	b	.L1273
.L1403:
	ldrb	r2, [fp, #28]	@ zero_extendqisi2
	strb	r2, [fp]
	str	fp, [r3]
	b	.L1265
.L1262:
	ldrb	r1, [r4, #120]	@ zero_extendqisi2
	cmp	r1, #0
	bne	.L1264
	ldr	r0, [r4, #104]
	cmp	r0, #0
	beq	.L1264
	add	ip, r0, #48
	add	r2, sp, #48
	mov	lr, #-2147483639
	strb	r3, [r4, #120]
	str	r1, [sp, #52]
	str	r1, [sp, #60]
	str	ip, [sp, #56]
	mov	r3, r2
	str	lr, [sp, #48]
	mov	r1, #3
	ldr	r2, [r0, #48]
	ldr	r0, [r0, #56]
	bl	epoll_ctl(PLT)
.L1264:
	mov	r0, r6
	bl	pthread_mutex_unlock(PLT)
	b	.L1223
.L1290:
	ldrb	r2, [r5, #120]	@ zero_extendqisi2
	cmp	r2, #0
	bne	.L1292
	ldr	r0, [r5, #104]
	cmp	r0, #0
	beq	.L1292
	add	r1, r0, #48
	mov	ip, #-2147483639
	strb	r3, [r5, #120]
	str	r1, [sp, #56]
	str	r2, [r4, #4]
	str	r2, [r4, #12]
	str	ip, [sp, #48]
	mov	r3, r4
	ldr	r2, [r0, #48]
	mov	r1, #3
	ldr	r0, [r0, #56]
	bl	epoll_ctl(PLT)
.L1292:
	mov	r0, r9
	bl	pthread_mutex_unlock(PLT)
	b	.L1280
.L1405:
	ldr	r6, [sp, #40]
	b	.L1272
.L1402:
	ldr	r0, [r7]
	bl	pthread_getspecific(PLT)
	cmp	r0, #0
	bne	.L1380
	b	.L1253
.L1256:
	ldr	r0, [r0, #8]
	cmp	r0, #0
	beq	.L1253
.L1380:
	ldr	r3, [r0]
	cmp	r4, r3
	bne	.L1256
	ldr	r3, [r0, #4]
	cmp	r3, #0
	beq	.L1253
	ldr	r1, [r3, #8]
	ldr	r2, [r3, #12]
	cmp	r1, #0
	add	r2, r2, #1
	mov	r0, #0
	str	r2, [r3, #12]
	str	r0, [r5]
	strne	r5, [r1]
	streq	r5, [r3, #8]
	strne	r5, [r3, #8]
	streq	r5, [r3, #4]
	b	.L1223
.L1408:
	ldrb	r2, [r4, #28]	@ zero_extendqisi2
	strb	r2, [r4]
	str	r4, [r3]
	b	.L1223
.L1409:
	ldr	r0, [r7]
	bl	pthread_getspecific(PLT)
	cmp	r0, #0
	beq	.L1281
	ldr	r3, [r0]
	cmp	r3, r5
	beq	.L1282
.L1284:
	ldr	r0, [r0, #8]
	cmp	r0, #0
	beq	.L1281
	ldr	r3, [r0]
	cmp	r5, r3
	bne	.L1284
.L1282:
	ldr	r3, [r0, #4]
	cmp	r3, #0
	beq	.L1281
	ldr	r1, [r3, #8]
	ldr	r2, [r3, #12]
	cmp	r1, #0
	add	r2, r2, #1
	mov	r0, #0
	str	r2, [r3, #12]
	str	r0, [r6]
	strne	r6, [r1]
	streq	r6, [r3, #8]
	strne	r6, [r3, #8]
	streq	r6, [r3, #4]
	b	.L1280
.L1266:
	ldr	r3, [sp, #44]
	cmp	r3, #0
	bne	.L1300
	b	.L1273
.L1303:
	mov	r3, #0
	mcr	p15, 0, r0, c7, c10, 5
	add	r0, sp, #36
	str	r3, [sp]
	bl	_ZN4asio6detail18completion_handlerINS0_7binder2IZN7asiopal13SocketChannel13BeginReadImplEN7openpal6WSliceEEUlRKSt10error_codejE_S7_jEEE3ptr5resetEv(PLT)
	add	r0, sp, #4
	bl	_ZN4asio6detail14strand_service16on_dispatch_exitD1Ev(PLT)
	ldr	r1, [sp, #32]
	ldr	r0, [r8]
	bl	pthread_setspecific(PLT)
	mov	r0, r10
	bl	_ZN4asio6detail18completion_handlerINS0_7binder2IZN7asiopal13SocketChannel13BeginReadImplEN7openpal6WSliceEEUlRKSt10error_codejE_S7_jEEE3ptr5resetEv(PLT)
.LEHB18:
	bl	__cxa_end_cleanup(PLT)
.L1302:
	mov	r3, #0
	mcr	p15, 0, r0, c7, c10, 5
	str	r3, [sp, #48]
	bl	__cxa_end_cleanup(PLT)
.LEHE18:
.L1411:
	.align	2
.L1410:
	.word	_GLOBAL_OFFSET_TABLE_-(.LPIC81+8)
	.word	_ZN4asio6detail10call_stackINS0_14strand_service11strand_implEhE4top_E(GOT)
	.word	_ZN4asio6detail10call_stackINS0_15task_io_serviceENS0_27task_io_service_thread_infoEE4top_E(GOT)
	.word	_ZN4asio6detail18completion_handlerINS0_7binder2IZN7asiopal13SocketChannel13BeginReadImplEN7openpal6WSliceEEUlRKSt10error_codejE_S7_jEEE11do_completeEPNS0_15task_io_serviceEPNS0_25task_io_service_operationES9_j-(.LPIC82+8)
	.personality	__gxx_personality_v0
	.handlerdata
.LLSDA8994:
	.byte	0xff
	.byte	0xff
	.byte	0x1
	.uleb128 .LLSDACSE8994-.LLSDACSB8994
.LLSDACSB8994:
	.uleb128 .LEHB15-.LFB8994
	.uleb128 .LEHE15-.LEHB15
	.uleb128 .L1302-.LFB8994
	.uleb128 0
	.uleb128 .LEHB16-.LFB8994
	.uleb128 .LEHE16-.LEHB16
	.uleb128 0
	.uleb128 0
	.uleb128 .LEHB17-.LFB8994
	.uleb128 .LEHE17-.LEHB17
	.uleb128 .L1303-.LFB8994
	.uleb128 0
	.uleb128 .LEHB18-.LFB8994
	.uleb128 .LEHE18-.LEHB18
	.uleb128 0
	.uleb128 0
.LLSDACSE8994:
	.text
	.fnend
	.size	_ZN4asio6detail14strand_service8dispatchINS0_7binder2IZN7asiopal13SocketChannel13BeginReadImplEN7openpal6WSliceEEUlRKSt10error_codejE_S8_jEEEEvRPNS1_11strand_implERT_, .-_ZN4asio6detail14strand_service8dispatchINS0_7binder2IZN7asiopal13SocketChannel13BeginReadImplEN7openpal6WSliceEEUlRKSt10error_codejE_S8_jEEEEvRPNS1_11strand_implERT_
	.align	2
	.syntax unified
	.arm
	.fpu vfp
	.type	_ZN4asio6detail18completion_handlerINS0_17rewrapped_handlerINS0_7binder2INS0_15wrapped_handlerINS_10io_service6strandEZN7asiopal13SocketChannel13BeginReadImplEN7openpal6WSliceEEUlRKSt10error_codejE_NS0_26is_continuation_if_runningEEESB_jEESE_EEE11do_completeEPNS0_15task_io_serviceEPNS0_25task_io_service_operationESD_j, %function
_ZN4asio6detail18completion_handlerINS0_17rewrapped_handlerINS0_7binder2INS0_15wrapped_handlerINS_10io_service6strandEZN7asiopal13SocketChannel13BeginReadImplEN7openpal6WSliceEEUlRKSt10error_codejE_NS0_26is_continuation_if_runningEEESB_jEESE_EEE11do_completeEPNS0_15task_io_serviceEPNS0_25task_io_service_operationESD_j:
	.fnstart
.LFB8917:
	@ args = 0, pretend = 0, frame = 80
	@ frame_needed = 0, uses_anonymous_args = 0
	add	r3, r1, #16
	push	{r4, r5, r6, r7, lr}
	.save {r4, r5, r6, r7, lr}
	mov	r4, r1
	.pad #84
	sub	sp, sp, #84
	mov	r5, r0
	ldm	r3, {r0, r1}
	add	r2, r4, #28
	add	r3, sp, #56
	add	r6, sp, #68
	stm	r3, {r0, r1}
	ldm	r2, {r0, r1}
	ldr	r3, .L1445
	ldr	r2, .L1445+4
	stm	r6, {r0, r1}
	ldr	r0, [r4, #24]
	ldr	r1, [r4, #36]
.LPIC83:
	add	r3, pc, r3
	ldr	ip, [r4, #12]
	str	r0, [sp, #64]
	str	r1, [sp, #76]
	mov	r0, #0
	add	r1, sp, #52
	str	r0, [sp, #12]
	str	r4, [sp, #8]
	str	ip, [sp, #52]
	str	r1, [sp, #4]
	ldr	r7, [r3, r2]
	ldr	r0, [r7]
	bl	pthread_getspecific(PLT)
	cmp	r0, #0
	beq	.L1413
	ldr	r3, [r0, #4]
	cmp	r3, #0
	beq	.L1413
	ldr	r2, [r3]
	cmp	r2, #0
	beq	.L1443
.L1413:
	mov	r0, r4
	bl	_ZdlPv(PLT)
.L1414:
	mov	r2, #0
	cmp	r5, #0
	str	r2, [sp, #8]
	beq	.L1415
	add	r3, sp, #80
	mov	r1, #1
	str	r2, [r3, #-80]!
.L1441:
	ldrex	r2, [r3]
	strex	r0, r1, [r3]
	cmp	r0, #0
	bne	.L1441
	mcr	p15, 0, r0, c7, c10, 5
	ldr	r3, [sp, #76]
	ldm	r6, {r0, r1}
	str	r3, [sp, #28]
	add	r3, sp, #20
	ldr	r2, [sp, #64]
	stm	r3, {r0, r1}
	add	r3, sp, #16
	str	r2, [sp, #16]
	ldm	r3, {r0, r1, r2, r3}
	add	ip, sp, #32
	stm	ip, {r0, r1, r2, r3}
	mov	r2, ip
	add	r1, sp, #60
	ldr	r0, [sp, #56]
.LEHB19:
	bl	_ZN4asio6detail14strand_service8dispatchINS0_7binder2IZN7asiopal13SocketChannel13BeginReadImplEN7openpal6WSliceEEUlRKSt10error_codejE_S8_jEEEEvRPNS1_11strand_implERT_(PLT)
.LEHE19:
	mov	r3, #0
	mcr	p15, 0, r0, c7, c10, 5
	str	r3, [sp]
	ldr	r3, [sp, #12]
	ldr	r5, [sp, #8]
	cmp	r3, #0
	beq	.L1416
.L1420:
	mov	r3, #0
	str	r3, [sp, #12]
.L1416:
	cmp	r5, #0
	beq	.L1412
	ldr	r0, [r7]
	bl	pthread_getspecific(PLT)
	cmp	r0, #0
	beq	.L1418
	ldr	r3, [r0, #4]
	cmp	r3, #0
	beq	.L1418
	ldr	r2, [r3]
	cmp	r2, #0
	beq	.L1444
.L1418:
	mov	r0, r5
	bl	_ZdlPv(PLT)
.L1412:
	add	sp, sp, #84
	@ sp needed
	pop	{r4, r5, r6, r7, pc}
.L1415:
	ldr	r3, [sp, #12]
	cmp	r3, #0
	bne	.L1420
	b	.L1412
.L1444:
	ldrb	r2, [r5, #40]	@ zero_extendqisi2
	strb	r2, [r5]
	str	r5, [r3]
	b	.L1412
.L1443:
	ldrb	r2, [r4, #40]	@ zero_extendqisi2
	strb	r2, [r4]
	str	r4, [r3]
	b	.L1414
.L1422:
	mov	r3, #0
	mcr	p15, 0, r0, c7, c10, 5
	add	r0, sp, #4
	str	r3, [sp]
	bl	_ZN4asio6detail18completion_handlerINS0_17rewrapped_handlerINS0_7binder2INS0_15wrapped_handlerINS_10io_service6strandEZN7asiopal13SocketChannel13BeginReadImplEN7openpal6WSliceEEUlRKSt10error_codejE_NS0_26is_continuation_if_runningEEESB_jEESE_EEE3ptr5resetEv(PLT)
.LEHB20:
	bl	__cxa_end_cleanup(PLT)
.LEHE20:
.L1446:
	.align	2
.L1445:
	.word	_GLOBAL_OFFSET_TABLE_-(.LPIC83+8)
	.word	_ZN4asio6detail10call_stackINS0_15task_io_serviceENS0_27task_io_service_thread_infoEE4top_E(GOT)
	.personality	__gxx_personality_v0
	.handlerdata
.LLSDA8917:
	.byte	0xff
	.byte	0xff
	.byte	0x1
	.uleb128 .LLSDACSE8917-.LLSDACSB8917
.LLSDACSB8917:
	.uleb128 .LEHB19-.LFB8917
	.uleb128 .LEHE19-.LEHB19
	.uleb128 .L1422-.LFB8917
	.uleb128 0
	.uleb128 .LEHB20-.LFB8917
	.uleb128 .LEHE20-.LEHB20
	.uleb128 0
	.uleb128 0
.LLSDACSE8917:
	.text
	.fnend
	.size	_ZN4asio6detail18completion_handlerINS0_17rewrapped_handlerINS0_7binder2INS0_15wrapped_handlerINS_10io_service6strandEZN7asiopal13SocketChannel13BeginReadImplEN7openpal6WSliceEEUlRKSt10error_codejE_NS0_26is_continuation_if_runningEEESB_jEESE_EEE11do_completeEPNS0_15task_io_serviceEPNS0_25task_io_service_operationESD_j, .-_ZN4asio6detail18completion_handlerINS0_17rewrapped_handlerINS0_7binder2INS0_15wrapped_handlerINS_10io_service6strandEZN7asiopal13SocketChannel13BeginReadImplEN7openpal6WSliceEEUlRKSt10error_codejE_NS0_26is_continuation_if_runningEEESB_jEESE_EEE11do_completeEPNS0_15task_io_serviceEPNS0_25task_io_service_operationESD_j
	.align	2
	.syntax unified
	.arm
	.fpu vfp
	.type	_ZN4asio6detail23reactive_socket_recv_opINS_17mutable_buffers_1ENS0_15wrapped_handlerINS_10io_service6strandEZN7asiopal13SocketChannel13BeginReadImplEN7openpal6WSliceEEUlRKSt10error_codejE_NS0_26is_continuation_if_runningEEEE11do_completeEPNS0_15task_io_serviceEPNS0_25task_io_service_operationESC_j, %function
_ZN4asio6detail23reactive_socket_recv_opINS_17mutable_buffers_1ENS0_15wrapped_handlerINS_10io_service6strandEZN7asiopal13SocketChannel13BeginReadImplEN7openpal6WSliceEEUlRKSt10error_codejE_NS0_26is_continuation_if_runningEEEE11do_completeEPNS0_15task_io_serviceEPNS0_25task_io_service_operationESC_j:
	.fnstart
.LFB8411:
	@ args = 0, pretend = 0, frame = 232
	@ frame_needed = 0, uses_anonymous_args = 0
	add	r3, r1, #48
	push	{r4, r5, r6, r7, r8, r9, r10, fp, lr}
	.save {r4, r5, r6, r7, r8, r9, r10, fp, lr}
	mov	r4, r1
	.pad #236
	sub	sp, sp, #236
	mov	r7, r0
	ldm	r3, {r0, r1}
	add	r6, sp, #116
	add	r3, r4, #12
	stm	r6, {r0, r1}
	ldm	r3, {r0, r1}
	ldr	r10, .L1651
	add	r8, sp, #128
	ldr	r2, [r4, #56]
	ldr	r3, .L1651+4
	stm	r8, {r0, r1}
.LPIC84:
	add	r10, pc, r10
	ldr	r1, [r4, #20]
	str	r2, [sp, #124]
	mov	r2, #0
	str	r4, [sp, #12]
	str	r6, [sp, #8]
	str	r1, [sp, #136]
	str	r2, [sp, #16]
	ldr	r5, [r10, r3]
	ldr	r0, [r5]
	bl	pthread_getspecific(PLT)
	cmp	r0, #0
	beq	.L1448
	ldr	r3, [r0, #4]
	cmp	r3, #0
	beq	.L1448
	ldr	r2, [r3]
	cmp	r2, #0
	beq	.L1641
.L1448:
	mov	r0, r4
	bl	_ZdlPv(PLT)
.L1449:
	mov	r2, #0
	cmp	r7, #0
	str	r2, [sp, #12]
	beq	.L1450
	add	r3, sp, #232
	mov	r1, #1
	str	r2, [r3, #-232]!
.L1634:
	ldrex	r2, [r3]
	strex	r0, r1, [r3]
	cmp	r0, #0
	bne	.L1634
	mcr	p15, 0, r0, c7, c10, 5
	ldm	r6, {r0, r1}
	add	r2, sp, #144
	ldr	r3, [sp, #136]
	stm	r2, {r0, r1}
	ldm	r8, {r0, r1}
	str	r3, [sp, #224]
	add	r3, sp, #156
	add	r6, sp, #204
	stm	r3, {r0, r1}
	ldm	r2, {r0, r1}
	ldr	r2, .L1651+8
	add	r9, sp, #216
	stm	r6, {r0, r1}
	ldm	r3, {r0, r1}
	ldr	r3, [sp, #124]
	ldr	r8, [sp, #116]
	stm	r9, {r0, r1}
	str	r3, [sp, #140]
	str	r3, [sp, #152]
	str	r3, [sp, #200]
	str	r3, [sp, #212]
	ldr	r7, [r10, r2]
	ldr	r4, [sp, #120]
	ldr	r0, [r7]
	bl	pthread_getspecific(PLT)
	cmp	r0, #0
	bne	.L1624
	b	.L1451
.L1454:
	ldr	r0, [r0, #8]
	cmp	r0, #0
	beq	.L1451
.L1624:
	ldr	r3, [r0]
	cmp	r4, r3
	bne	.L1454
	ldr	r3, [r0, #4]
	cmp	r3, #0
	addne	r3, sp, #232
	movne	r2, #0
	strne	r2, [r3, #-228]!
	movne	r2, #1
	beq	.L1451
.L1633:
	ldrex	r1, [r3]
	strex	r0, r2, [r3]
	cmp	r0, #0
	bne	.L1633
	mcr	p15, 0, r0, c7, c10, 5
	ldr	r3, [sp, #224]
	ldm	r9, {r0, r1}
	str	r3, [sp, #56]
	ldr	r2, [sp, #212]
	add	r3, sp, #48
	str	r2, [sp, #44]
	stm	r3, {r0, r1}
	add	r3, sp, #44
	add	ip, sp, #76
	ldm	r3, {r0, r1, r2, r3}
	stm	ip, {r0, r1, r2, r3}
	mov	r2, ip
	add	r1, sp, #208
	ldr	r0, [sp, #204]
.LEHB21:
	bl	_ZN4asio6detail14strand_service8dispatchINS0_7binder2IZN7asiopal13SocketChannel13BeginReadImplEN7openpal6WSliceEEUlRKSt10error_codejE_S8_jEEEEvRPNS1_11strand_implERT_(PLT)
.LEHE21:
	mov	r3, #0
	mcr	p15, 0, r0, c7, c10, 5
	str	r3, [sp, #4]
.L1457:
	mov	r3, #0
	mcr	p15, 0, r0, c7, c10, 5
	str	r3, [sp]
	ldr	r3, [sp, #16]
	ldr	r7, [sp, #12]
	cmp	r3, #0
	beq	.L1518
.L1524:
	mov	r3, #0
	str	r3, [sp, #16]
.L1518:
	cmp	r7, #0
	beq	.L1447
	ldr	r0, [r5]
	bl	pthread_getspecific(PLT)
	cmp	r0, #0
	beq	.L1520
	ldr	r3, [r0, #4]
	cmp	r3, #0
	beq	.L1520
	ldr	r2, [r3]
	cmp	r2, #0
	beq	.L1642
.L1520:
	mov	r0, r7
	bl	_ZdlPv(PLT)
.L1447:
	add	sp, sp, #236
	@ sp needed
	pop	{r4, r5, r6, r7, r8, r9, r10, fp, pc}
.L1451:
	add	r4, sp, #20
	mov	fp, #0
	add	r3, sp, #200
	ldr	r0, [r5]
	str	fp, [r4, #4]
	str	fp, [r4, #8]
	str	r3, [sp, #20]
	bl	pthread_getspecific(PLT)
	cmp	r0, #0
	beq	.L1458
	ldr	r3, [r0, #4]
	cmp	r3, fp
	beq	.L1458
	ldr	r10, [r3]
	cmp	r10, fp
	beq	.L1458
	str	fp, [r3]
	ldrb	r3, [r10]	@ zero_extendqisi2
	cmp	r3, #39
	bls	.L1643
.L1637:
	strb	r3, [r10, #40]
	ldr	ip, [sp, #200]
	ldm	r6, {r0, r1}
	ldr	r2, .L1651+12
	add	r3, r10, #16
	str	ip, [r10, #12]
.LPIC85:
	add	r2, pc, r2
	mov	ip, #0
	str	ip, [r10, #8]
	str	r10, [sp, #24]
	str	r2, [r10, #4]
	str	ip, [r10]
	stm	r3, {r0, r1}
	ldm	r9, {r0, r1}
	add	r3, r10, #28
	ldr	r2, [sp, #224]
	ldr	ip, [sp, #212]
	str	r10, [sp, #28]
	str	ip, [r10, #24]
	stm	r3, {r0, r1}
	str	r2, [r10, #36]
	ldr	r0, [r5]
	ldr	r6, [r8, #20]
	bl	pthread_getspecific(PLT)
	subs	r3, r0, #0
	bne	.L1625
	b	.L1461
.L1464:
	ldr	r3, [r3, #8]
	cmp	r3, #0
	beq	.L1461
.L1625:
	ldr	r2, [r3]
	cmp	r6, r2
	bne	.L1464
	ldr	r0, [sp, #120]
	ldr	r6, [r3, #4]
	add	r0, r0, #12
	bl	pthread_mutex_lock(PLT)
	cmp	r6, #0
	beq	.L1466
	ldr	r0, [sp, #120]
	ldrb	r9, [r0, #36]	@ zero_extendqisi2
	cmp	r9, #0
	beq	.L1644
.L1468:
	ldr	r3, [r0, #44]
	mov	r2, #0
	cmp	r3, r2
	str	r2, [r10]
	add	r0, r0, #12
	strne	r10, [r3]
	streq	r10, [r0, #32]
	strne	r10, [r0, #32]
	streq	r10, [r0, #28]
	bl	pthread_mutex_unlock(PLT)
	b	.L1457
.L1450:
	ldr	r3, [sp, #16]
	cmp	r3, #0
	bne	.L1524
	b	.L1447
.L1643:
	mov	r0, r10
	bl	_ZdlPv(PLT)
.L1458:
	mov	r0, #41
.LEHB22:
	bl	_Znwj(PLT)
.LEHE22:
	mov	r10, r0
	mov	r3, #40
	b	.L1637
.L1461:
	ldr	r0, [sp, #120]
	add	r0, r0, #12
	bl	pthread_mutex_lock(PLT)
.L1466:
	ldr	r0, [sp, #120]
	ldrb	r4, [r0, #36]	@ zero_extendqisi2
	cmp	r4, #0
	bne	.L1468
	mov	r3, #1
	strb	r3, [r0, #36]
	add	r0, r0, #12
	bl	pthread_mutex_unlock(PLT)
	ldr	r6, [sp, #120]
	str	r4, [r10]
	ldr	r4, [r8, #20]
	ldr	r3, [r6, #52]
	cmp	r3, #0
	strne	r10, [r3]
	ldrb	r3, [r4, #20]	@ zero_extendqisi2
	strne	r10, [r6, #52]
	streq	r10, [r6, #52]
	streq	r10, [r6, #48]
	cmp	r3, #0
	bne	.L1645
.L1477:
	add	r3, r4, #124
	mcr	p15, 0, r0, c7, c10, 5
.L1632:
	ldrex	r2, [r3]
	add	r2, r2, #1
	strex	r1, r2, [r3]
	cmp	r1, #0
	bne	.L1632
	add	r7, r4, #24
	mcr	p15, 0, r0, c7, c10, 5
	mov	r0, r7
	bl	pthread_mutex_lock(PLT)
	ldr	r3, [r4, #132]
	mov	r2, #0
	cmp	r3, r2
	str	r2, [r6]
	strne	r6, [r3]
	ldr	r3, [r4, #96]
	strne	r6, [r4, #132]
	orr	r3, r3, #1
	streq	r6, [r4, #132]
	streq	r6, [r4, #128]
	cmp	r3, #1
	add	r6, r4, #48
	str	r3, [r4, #96]
	beq	.L1486
	mov	r0, r7
	bl	pthread_mutex_unlock(PLT)
	mov	r0, r6
	bl	pthread_cond_signal(PLT)
	b	.L1457
.L1642:
	ldrb	r2, [r7, #60]	@ zero_extendqisi2
	strb	r2, [r7]
	str	r7, [r3]
	b	.L1447
.L1641:
	ldrb	r2, [r4, #60]	@ zero_extendqisi2
	strb	r2, [r4]
	str	r4, [r3]
	b	.L1449
.L1644:
	mov	r3, #1
	strb	r3, [r0, #36]
	add	r0, r0, #12
	bl	pthread_mutex_unlock(PLT)
	ldr	r3, [sp, #120]
	ldr	r0, [r7]
	ldr	r6, [sp, #28]
	str	r3, [sp, #76]
	str	r9, [sp, #24]
	str	r9, [sp, #28]
	bl	pthread_getspecific(PLT)
	add	r3, sp, #76
	mov	r1, r3
	str	r3, [sp, #80]
	add	fp, sp, #184
	add	r10, sp, #168
	str	r0, [sp, #84]
	ldr	r0, [r7]
	bl	pthread_setspecific(PLT)
	add	r3, r6, #16
	add	r2, r6, #28
	ldm	r3, {r0, r1}
	add	r3, sp, #172
	ldr	r8, [r8, #20]
	ldr	ip, [r6, #12]
	stm	r3, {r0, r1}
	ldm	r2, {r0, r1}
	ldr	r3, [r6, #24]
	ldr	r2, [r6, #36]
	str	ip, [sp, #168]
	stm	fp, {r0, r1}
	str	r3, [sp, #180]
	ldr	r3, [sp, #120]
	ldr	r0, [r5]
	str	r8, [sp, #44]
	str	r6, [sp, #36]
	str	r9, [sp, #40]
	str	r2, [sp, #192]
	str	r3, [sp, #48]
	str	r10, [sp, #32]
	bl	pthread_getspecific(PLT)
	cmp	r0, #0
	beq	.L1470
	ldr	r3, [r0, #4]
	cmp	r3, #0
	beq	.L1470
	ldr	r2, [r3]
	cmp	r2, #0
	beq	.L1646
.L1470:
	mov	r0, r6
	bl	_ZdlPv(PLT)
.L1489:
	mov	r2, #0
	cmp	r8, #0
	str	r2, [sp, #36]
	beq	.L1490
	add	r3, sp, #232
	mov	r1, #1
	str	r2, [r3, #-228]!
.L1631:
	ldrex	r2, [r3]
	strex	r0, r1, [r3]
	cmp	r0, #0
	bne	.L1631
	mcr	p15, 0, r0, c7, c10, 5
	ldr	r3, [sp, #192]
	ldm	fp, {r0, r1}
	str	r3, [sp, #72]
	add	r3, sp, #64
	ldr	r2, [sp, #180]
	stm	r3, {r0, r1}
	add	r3, sp, #60
	str	r2, [sp, #60]
	ldm	r3, {r0, r1, r2, r3}
	add	ip, sp, #96
	stm	ip, {r0, r1, r2, r3}
	mov	r2, ip
	add	r1, sp, #176
	ldr	r0, [sp, #172]
.LEHB23:
	bl	_ZN4asio6detail14strand_service8dispatchINS0_7binder2IZN7asiopal13SocketChannel13BeginReadImplEN7openpal6WSliceEEUlRKSt10error_codejE_S8_jEEEEvRPNS1_11strand_implERT_(PLT)
.LEHE23:
	mov	r3, #0
	mcr	p15, 0, r0, c7, c10, 5
	str	r3, [sp, #4]
	ldr	r3, [sp, #40]
	ldr	r8, [sp, #36]
	cmp	r3, #0
	beq	.L1491
.L1523:
	mov	r3, #0
	str	r3, [sp, #40]
.L1491:
	cmp	r8, #0
	beq	.L1492
	ldr	r0, [r5]
	bl	pthread_getspecific(PLT)
	cmp	r0, #0
	beq	.L1493
	ldr	r3, [r0, #4]
	cmp	r3, #0
	beq	.L1493
	ldr	r2, [r3]
	cmp	r2, #0
	beq	.L1647
.L1493:
	mov	r0, r8
	bl	_ZdlPv(PLT)
.L1492:
	ldr	r0, [sp, #48]
	add	r0, r0, #12
	bl	pthread_mutex_lock(PLT)
	ldr	r0, [sp, #48]
	ldr	r4, [r0, #40]
	cmp	r4, #0
	ldreq	r4, [r0, #48]
	beq	.L1495
	ldr	r3, [r0, #52]
	cmp	r3, #0
	strne	r4, [r3]
	ldrne	r4, [r0, #48]
	ldr	r2, [r0, #44]
	mov	r3, #0
	streq	r4, [r0, #48]
	str	r2, [r0, #52]
	str	r3, [r0, #40]
	str	r3, [r0, #44]
.L1495:
	adds	r3, r4, #0
	movne	r3, #1
	strb	r3, [r0, #36]
	add	r0, r0, #12
	bl	pthread_mutex_unlock(PLT)
	cmp	r4, #0
	bne	.L1648
.L1500:
	ldr	r0, [r7]
	ldr	r1, [sp, #84]
	bl	pthread_setspecific(PLT)
	ldr	r3, [sp, #28]
	ldr	r4, [sp, #24]
	cmp	r3, #0
	movne	r3, #0
	strne	r3, [sp, #28]
	cmp	r4, #0
	beq	.L1457
	ldr	r0, [r5]
	bl	pthread_getspecific(PLT)
	cmp	r0, #0
	beq	.L1516
	ldr	r3, [r0, #4]
	cmp	r3, #0
	beq	.L1516
	ldr	r2, [r3]
	cmp	r2, #0
	beq	.L1649
.L1516:
	mov	r0, r4
	bl	_ZdlPv(PLT)
	b	.L1457
.L1648:
	ldr	r4, [sp, #44]
	ldr	r6, [sp, #48]
	ldrb	r3, [r4, #20]	@ zero_extendqisi2
	cmp	r3, #0
	bne	.L1650
.L1501:
	add	r3, r4, #124
	mcr	p15, 0, r0, c7, c10, 5
.L1630:
	ldrex	r2, [r3]
	add	r2, r2, #1
	strex	r1, r2, [r3]
	cmp	r1, #0
	bne	.L1630
	add	r8, r4, #24
	mcr	p15, 0, r0, c7, c10, 5
	mov	r0, r8
	bl	pthread_mutex_lock(PLT)
	ldr	r3, [r4, #132]
	mov	r2, #0
	cmp	r3, r2
	str	r2, [r6]
	strne	r6, [r3]
	ldr	r3, [r4, #96]
	strne	r6, [r4, #132]
	orr	r3, r3, #1
	streq	r6, [r4, #132]
	streq	r6, [r4, #128]
	cmp	r3, #1
	add	r6, r4, #48
	str	r3, [r4, #96]
	beq	.L1510
	mov	r0, r8
	bl	pthread_mutex_unlock(PLT)
	mov	r0, r6
	bl	pthread_cond_signal(PLT)
	b	.L1500
.L1486:
	ldrb	r2, [r4, #120]	@ zero_extendqisi2
	cmp	r2, #0
	bne	.L1488
	ldr	r0, [r4, #104]
	cmp	r0, #0
	beq	.L1488
	strb	r3, [r4, #120]
	add	r3, sp, #168
	add	r1, r0, #48
	mov	ip, #-2147483639
	str	r1, [sp, #176]
	str	r2, [r3, #4]
	str	r2, [r3, #12]
	str	ip, [sp, #168]
	mov	r1, #3
	ldr	r2, [r0, #48]
	ldr	r0, [r0, #56]
	bl	epoll_ctl(PLT)
.L1488:
	mov	r0, r7
	bl	pthread_mutex_unlock(PLT)
	b	.L1457
.L1510:
	ldrb	r2, [r4, #120]	@ zero_extendqisi2
	cmp	r2, #0
	bne	.L1512
	ldr	r0, [r4, #104]
	cmp	r0, #0
	beq	.L1512
	add	r1, r0, #48
	mov	ip, #-2147483639
	strb	r3, [r4, #120]
	str	r1, [sp, #176]
	str	r2, [r10, #4]
	str	r2, [r10, #12]
	str	ip, [sp, #168]
	mov	r3, r10
	ldr	r2, [r0, #48]
	mov	r1, #3
	ldr	r0, [r0, #56]
	bl	epoll_ctl(PLT)
.L1512:
	mov	r0, r8
	bl	pthread_mutex_unlock(PLT)
	b	.L1500
.L1649:
	ldrb	r2, [r4, #40]	@ zero_extendqisi2
	strb	r2, [r4]
	str	r4, [r3]
	b	.L1457
.L1645:
	ldr	r0, [r5]
	bl	pthread_getspecific(PLT)
	cmp	r0, #0
	beq	.L1477
	ldr	r3, [r0]
	cmp	r3, r4
	beq	.L1478
.L1480:
	ldr	r0, [r0, #8]
	cmp	r0, #0
	beq	.L1477
	ldr	r3, [r0]
	cmp	r4, r3
	bne	.L1480
.L1478:
	ldr	r3, [r0, #4]
	cmp	r3, #0
	beq	.L1477
	ldr	r1, [r3, #8]
	ldr	r2, [r3, #12]
	cmp	r1, #0
	add	r2, r2, #1
	mov	r0, #0
	str	r2, [r3, #12]
	str	r0, [r6]
	strne	r6, [r1]
	streq	r6, [r3, #8]
	strne	r6, [r3, #8]
	streq	r6, [r3, #4]
	b	.L1457
.L1650:
	ldr	r0, [r5]
	bl	pthread_getspecific(PLT)
	cmp	r0, #0
	beq	.L1501
	ldr	r3, [r0]
	cmp	r3, r4
	beq	.L1502
.L1504:
	ldr	r0, [r0, #8]
	cmp	r0, #0
	beq	.L1501
	ldr	r3, [r0]
	cmp	r4, r3
	bne	.L1504
.L1502:
	ldr	r3, [r0, #4]
	cmp	r3, #0
	beq	.L1501
	ldr	r1, [r3, #8]
	ldr	r2, [r3, #12]
	cmp	r1, #0
	add	r2, r2, #1
	mov	r0, #0
	str	r2, [r3, #12]
	str	r0, [r6]
	strne	r6, [r1]
	streq	r6, [r3, #8]
	strne	r6, [r3, #8]
	streq	r6, [r3, #4]
	b	.L1500
.L1490:
	ldr	r3, [sp, #40]
	cmp	r3, #0
	bne	.L1523
	b	.L1492
.L1646:
	ldrb	r2, [r6, #40]	@ zero_extendqisi2
	strb	r2, [r6]
	str	r6, [r3]
	b	.L1489
.L1647:
	ldrb	r2, [r8, #40]	@ zero_extendqisi2
	strb	r2, [r8]
	str	r8, [r3]
	b	.L1492
.L1529:
	mov	r3, #0
	mcr	p15, 0, r0, c7, c10, 5
	add	r0, sp, #32
	str	r3, [sp, #4]
	bl	_ZN4asio6detail18completion_handlerINS0_17rewrapped_handlerINS0_7binder2INS0_15wrapped_handlerINS_10io_service6strandEZN7asiopal13SocketChannel13BeginReadImplEN7openpal6WSliceEEUlRKSt10error_codejE_NS0_26is_continuation_if_runningEEESB_jEESE_EEE3ptr5resetEv(PLT)
	add	r0, sp, #44
	bl	_ZN4asio6detail14strand_service16on_dispatch_exitD1Ev(PLT)
	ldr	r0, [r7]
	ldr	r1, [sp, #84]
	bl	pthread_setspecific(PLT)
	mov	r0, r4
	bl	_ZN4asio6detail18completion_handlerINS0_17rewrapped_handlerINS0_7binder2INS0_15wrapped_handlerINS_10io_service6strandEZN7asiopal13SocketChannel13BeginReadImplEN7openpal6WSliceEEUlRKSt10error_codejE_NS0_26is_continuation_if_runningEEESB_jEESE_EEE3ptr5resetEv(PLT)
.L1497:
	mov	r3, #0
	mcr	p15, 0, r0, c7, c10, 5
	add	r0, sp, #8
	str	r3, [sp]
	bl	_ZN4asio6detail23reactive_socket_recv_opINS_17mutable_buffers_1ENS0_15wrapped_handlerINS_10io_service6strandEZN7asiopal13SocketChannel13BeginReadImplEN7openpal6WSliceEEUlRKSt10error_codejE_NS0_26is_continuation_if_runningEEEE3ptr5resetEv(PLT)
.LEHB24:
	bl	__cxa_end_cleanup(PLT)
.LEHE24:
.L1528:
	mov	r3, #0
	mcr	p15, 0, r0, c7, c10, 5
	str	r3, [sp, #4]
	b	.L1497
.L1527:
	b	.L1497
.L1652:
	.align	2
.L1651:
	.word	_GLOBAL_OFFSET_TABLE_-(.LPIC84+8)
	.word	_ZN4asio6detail10call_stackINS0_15task_io_serviceENS0_27task_io_service_thread_infoEE4top_E(GOT)
	.word	_ZN4asio6detail10call_stackINS0_14strand_service11strand_implEhE4top_E(GOT)
	.word	_ZN4asio6detail18completion_handlerINS0_17rewrapped_handlerINS0_7binder2INS0_15wrapped_handlerINS_10io_service6strandEZN7asiopal13SocketChannel13BeginReadImplEN7openpal6WSliceEEUlRKSt10error_codejE_NS0_26is_continuation_if_runningEEESB_jEESE_EEE11do_completeEPNS0_15task_io_serviceEPNS0_25task_io_service_operationESD_j-(.LPIC85+8)
	.personality	__gxx_personality_v0
	.handlerdata
.LLSDA8411:
	.byte	0xff
	.byte	0xff
	.byte	0x1
	.uleb128 .LLSDACSE8411-.LLSDACSB8411
.LLSDACSB8411:
	.uleb128 .LEHB21-.LFB8411
	.uleb128 .LEHE21-.LEHB21
	.uleb128 .L1528-.LFB8411
	.uleb128 0
	.uleb128 .LEHB22-.LFB8411
	.uleb128 .LEHE22-.LEHB22
	.uleb128 .L1527-.LFB8411
	.uleb128 0
	.uleb128 .LEHB23-.LFB8411
	.uleb128 .LEHE23-.LEHB23
	.uleb128 .L1529-.LFB8411
	.uleb128 0
	.uleb128 .LEHB24-.LFB8411
	.uleb128 .LEHE24-.LEHB24
	.uleb128 0
	.uleb128 0
.LLSDACSE8411:
	.text
	.fnend
	.size	_ZN4asio6detail23reactive_socket_recv_opINS_17mutable_buffers_1ENS0_15wrapped_handlerINS_10io_service6strandEZN7asiopal13SocketChannel13BeginReadImplEN7openpal6WSliceEEUlRKSt10error_codejE_NS0_26is_continuation_if_runningEEEE11do_completeEPNS0_15task_io_serviceEPNS0_25task_io_service_operationESC_j, .-_ZN4asio6detail23reactive_socket_recv_opINS_17mutable_buffers_1ENS0_15wrapped_handlerINS_10io_service6strandEZN7asiopal13SocketChannel13BeginReadImplEN7openpal6WSliceEEUlRKSt10error_codejE_NS0_26is_continuation_if_runningEEEE11do_completeEPNS0_15task_io_serviceEPNS0_25task_io_service_operationESC_j
	.align	2
	.syntax unified
	.arm
	.fpu vfp
	.type	_ZN4asio6detail8write_opINS_19basic_stream_socketINS_2ip3tcpENS_21stream_socket_serviceIS4_EEEENS_15const_buffers_1ENS0_14transfer_all_tENS0_15wrapped_handlerINS_10io_service6strandEZN7asiopal13SocketChannel14BeginWriteImplERKN7openpal6RSliceEEUlRKSt10error_codejE_NS0_26is_continuation_if_runningEEEEclESL_ji, %function
_ZN4asio6detail8write_opINS_19basic_stream_socketINS_2ip3tcpENS_21stream_socket_serviceIS4_EEEENS_15const_buffers_1ENS0_14transfer_all_tENS0_15wrapped_handlerINS_10io_service6strandEZN7asiopal13SocketChannel14BeginWriteImplERKN7openpal6RSliceEEUlRKSt10error_codejE_NS0_26is_continuation_if_runningEEEEclESL_ji:
	.fnstart
.LFB7964:
	@ args = 0, pretend = 0, frame = 144
	@ frame_needed = 0, uses_anonymous_args = 0
	push	{r4, r5, r6, r7, r8, r9, r10, fp, lr}
	.save {r4, r5, r6, r7, r8, r9, r10, fp, lr}
	cmp	r3, #1
	ldr	r6, .L2045
	.pad #148
	sub	sp, sp, #148
	str	r3, [r0, #12]
	mov	r4, r0
.LPIC86:
	add	r6, pc, r6
	bne	.L1957
	ldr	r2, [r1]
	ldr	ip, [r0, #16]
	cmp	r2, #0
	movne	r9, #0
	ldr	r2, [r0, #8]
	moveq	r9, #65536
.L1657:
	cmp	ip, r2
	movhi	r9, #0
	ldr	r5, [r4]
	strhi	r9, [sp, #8]
	bls	.L2024
.L1658:
	ldmib	r4, {r0, r1}
	add	r2, r4, #20
	add	r8, sp, #112
	ldr	lr, [r5, #16]
	stm	r8, {r0, r1}
	ldm	r2, {r0, r1}
	cmp	r3, #0
	ldr	r2, [r4, #28]
	add	r7, sp, #128
	str	r3, [sp, #120]
	moveq	r3, #1
	str	r5, [sp, #108]
	str	ip, [sp, #124]
	str	r2, [sp, #136]
	str	lr, [sp, #12]
	stm	r7, {r0, r1}
	streq	r3, [sp, #20]
	bne	.L2025
.L1659:
	ldr	r3, .L2045+4
	add	fp, sp, #72
	mov	r2, #0
	add	r1, sp, #108
	str	r2, [fp, #4]
	str	r2, [fp, #8]
	str	r2, [sp, #4]
	str	r1, [sp, #72]
	ldr	r10, [r6, r3]
	ldr	r0, [r10]
	bl	pthread_getspecific(PLT)
	cmp	r0, #0
	beq	.L1665
	ldr	r3, [r0, #4]
	cmp	r3, #0
	beq	.L1665
	ldr	r4, [r3]
	cmp	r4, #0
	beq	.L1665
	ldr	r2, [sp, #4]
	str	r2, [r3]
	ldrb	r3, [r4]	@ zero_extendqisi2
	cmp	r3, #75
	bls	.L2026
.L1997:
	strb	r3, [r4, #76]
	ldr	r3, .L2045+8
	mov	r2, #0
.LPIC87:
	add	r3, pc, r3
	ldr	r1, [r5]
	str	r4, [sp, #76]
	stm	r4, {r2, r3}
	str	r2, [r4, #8]
	str	r2, [r4, #12]
	str	r1, [sp, #4]
	str	r2, [sp, #16]
	bl	_ZNSt3_V215system_categoryEv(PLT)
	ldr	ip, .L2045+12
	ldr	r2, [sp, #16]
	mov	r3, r0
	ldm	r8, {r0, r1}
	str	r2, [r4, #20]
	str	r3, [r4, #16]
	ldr	lr, [r6, ip]
	ldr	ip, [sp, #108]
	str	lr, [r4, #24]
	ldr	lr, [sp, #4]
	str	r2, [r4, #40]
	str	lr, [r4, #28]
	add	r2, r4, #48
	ldr	lr, [sp, #8]
	str	ip, [r4, #44]
	str	lr, [r4, #32]
	str	r9, [r4, #36]
	stm	r2, {r0, r1}
	ldm	r7, {r0, r1}
	ldr	lr, [sp, #120]
	ldr	r7, [sp, #124]
	ldr	ip, [sp, #136]
	add	r2, r4, #64
	str	lr, [r4, #56]
	str	r7, [r4, #60]
	stm	r2, {r0, r1}
	str	ip, [r4, #72]
	str	r4, [sp, #80]
	ldrb	r2, [r5, #4]	@ zero_extendqisi2
	tst	r2, #16
	beq	.L1668
	cmp	r9, #0
	bne	.L1668
.L1669:
	ldr	r3, [sp, #12]
	ldr	r2, [sp, #20]
	ldr	r3, [r3, #20]
	ldr	r5, [r3, #20]
	ldrb	r3, [r5, #20]	@ zero_extendqisi2
	orrs	r3, r2, r3
	beq	.L1715
	ldr	r0, [r10]
	bl	pthread_getspecific(PLT)
	cmp	r0, #0
	bne	.L1963
	b	.L1715
.L1718:
	ldr	r0, [r0, #8]
	cmp	r0, #0
	beq	.L1715
.L1963:
	ldr	r3, [r0]
	cmp	r5, r3
	bne	.L1718
	ldr	r3, [r0, #4]
	cmp	r3, #0
	beq	.L1715
.L1719:
	ldr	r1, [r3, #8]
	ldr	r2, [r3, #12]
	cmp	r1, #0
	add	r2, r2, #1
	mov	r0, #0
	str	r2, [r3, #12]
	str	r0, [r4]
	strne	r4, [r1]
	streq	r4, [r3, #8]
	strne	r4, [r3, #8]
	streq	r4, [r3, #4]
.L1653:
	add	sp, sp, #148
	@ sp needed
	pop	{r4, r5, r6, r7, r8, r9, r10, fp, pc}
.L1668:
	ands	r8, r2, #3
	beq	.L2027
.L1804:
	ldr	r3, [r5, #8]
	ldr	r2, [sp, #12]
	cmp	r3, #0
	ldr	r8, [r2, #20]
	beq	.L2028
	add	r6, r3, #20
	mov	r0, r6
	bl	pthread_mutex_lock(PLT)
	ldr	r3, [r5, #8]
	ldrb	r2, [r3, #80]	@ zero_extendqisi2
	cmp	r2, #0
	bne	.L2029
	ldr	r2, [r3, #64]
	cmp	r2, #0
	beq	.L2030
.L1709:
	ldr	r2, [r3, #68]
	mov	r1, #0
	cmp	r2, r1
	str	r1, [r4]
	strne	r4, [r2]
	streq	r4, [r3, #68]
	strne	r4, [r3, #68]
	streq	r4, [r3, #64]
	ldr	r3, [r8, #20]
	mcr	p15, 0, r0, c7, c10, 5
	add	r3, r3, #124
.L1992:
	ldrex	r2, [r3]
	add	r2, r2, #1
	strex	r1, r2, [r3]
	cmp	r1, #0
	bne	.L1992
	mov	r0, r6
	mcr	p15, 0, r0, c7, c10, 5
	bl	pthread_mutex_unlock(PLT)
	b	.L1653
.L1957:
	ldr	ip, [r0, #16]
	add	ip, r2, ip
	str	ip, [r0, #16]
	ldr	r0, [r1]
	cmp	r0, #0
	beq	.L2031
.L1728:
	ldm	r1, {r0, r1}
	add	r3, sp, #76
	str	ip, [sp, #84]
	ldr	r2, [r4, #28]
	stm	r3, {r0, r1}
	add	r3, sp, #72
	str	r2, [sp, #72]
	ldm	r3, {r0, r1, r2, r3}
	add	r5, sp, #108
	ldr	ip, .L2045+16
	ldr	r8, [r4, #20]
	stm	r5, {r0, r1, r2, r3}
	ldr	r7, [r6, ip]
	ldr	r9, [r4, #24]
	ldr	r0, [r7]
	bl	pthread_getspecific(PLT)
	cmp	r0, #0
	bne	.L1965
	b	.L1734
.L1732:
	ldr	r0, [r0, #8]
	cmp	r0, #0
	beq	.L1734
.L1965:
	ldr	r3, [r0]
	cmp	r9, r3
	bne	.L1732
	ldr	r3, [r0, #4]
	cmp	r3, #0
	addne	r3, sp, #144
	movne	r1, #0
	strne	r1, [r3, #-56]!
	movne	r2, #1
	beq	.L1734
.L1990:
	ldrex	r0, [r3]
	strex	ip, r2, [r3]
	cmp	ip, #0
	bne	.L1990
	mcr	p15, 0, r0, c7, c10, 5
	ldr	r3, [sp, #108]
	ldr	r2, [sp, #120]
	ldr	r0, [r3, #20]
	strb	r1, [r3, #30]
	cmp	r0, r1
	beq	.L1738
	ldrb	r3, [r3, #28]	@ zero_extendqisi2
	cmp	r3, #0
	bne	.L1738
	ldr	r3, [r0]
	add	r1, sp, #112
	ldr	r3, [r3, #12]
.LEHB25:
	blx	r3
.LEHE25:
.L1738:
	mov	r3, #0
	mcr	p15, 0, r0, c7, c10, 5
	str	r3, [sp, #88]
	add	sp, sp, #148
	@ sp needed
	pop	{r4, r5, r6, r7, r8, r9, r10, fp, pc}
.L2024:
	sub	r2, r2, ip
	ldr	r10, [r4, #4]
	cmp	r2, r9
	movcc	r9, r2
	add	r2, r10, ip
	str	r2, [sp, #8]
	b	.L1658
.L2026:
	mov	r0, r4
	bl	_ZdlPv(PLT)
.L1665:
	mov	r0, #77
.LEHB26:
	bl	_Znwj(PLT)
	mov	r3, #76
	mov	r4, r0
	b	.L1997
.L2031:
	cmp	r2, #0
	beq	.L1728
	ldr	r2, [r4, #8]
	cmp	ip, r2
	beq	.L1728
	mov	r9, #65536
	b	.L1657
.L1715:
	add	r3, r5, #124
	mcr	p15, 0, r0, c7, c10, 5
.L1991:
	ldrex	r2, [r3]
	add	r2, r2, #1
	strex	r1, r2, [r3]
	cmp	r1, #0
	bne	.L1991
	add	r6, r5, #24
	mcr	p15, 0, r0, c7, c10, 5
	mov	r0, r6
	bl	pthread_mutex_lock(PLT)
	ldr	r3, [r5, #132]
	mov	r2, #0
	cmp	r3, r2
	str	r2, [r4]
	strne	r4, [r3]
	ldr	r3, [r5, #96]
	strne	r4, [r5, #132]
	orr	r3, r3, #1
	streq	r4, [r5, #132]
	streq	r4, [r5, #128]
	cmp	r3, #1
	add	r4, r5, #48
	str	r3, [r5, #96]
	beq	.L1724
.L2009:
	mov	r0, r6
	bl	pthread_mutex_unlock(PLT)
	mov	r0, r4
	bl	pthread_cond_signal(PLT)
	add	sp, sp, #148
	@ sp needed
	pop	{r4, r5, r6, r7, r8, r9, r10, fp, pc}
.L2025:
	ldr	r3, .L2045+16
	ldr	r4, [sp, #132]
	ldr	r3, [r6, r3]
	ldr	r0, [r3]
	bl	pthread_getspecific(PLT)
	cmp	r0, #0
	bne	.L1664
	b	.L1815
.L1663:
	ldr	r0, [r0, #8]
	cmp	r0, #0
	beq	.L1815
.L1664:
	ldr	r3, [r0]
	cmp	r4, r3
	bne	.L1663
	ldr	r0, [r0, #4]
	adds	r3, r0, #0
	movne	r3, #1
	str	r3, [sp, #20]
	b	.L1659
.L1724:
	ldrb	r2, [r5, #120]	@ zero_extendqisi2
	cmp	r2, #0
	bne	.L1703
	ldr	r0, [r5, #104]
	cmp	r0, #0
	beq	.L1703
	add	r1, sp, #88
	strb	r3, [r5, #120]
	mov	lr, #-2147483639
	add	ip, r0, #48
	mov	r3, r1
	str	r2, [sp, #92]
	str	r2, [sp, #100]
.L2012:
	str	lr, [sp, #88]
	str	ip, [sp, #96]
	mov	r1, #3
	ldr	r2, [r0, #48]
	ldr	r0, [r0, #56]
	bl	epoll_ctl(PLT)
.L1703:
	mov	r0, r6
	bl	pthread_mutex_unlock(PLT)
	add	sp, sp, #148
	@ sp needed
	pop	{r4, r5, r6, r7, r8, r9, r10, fp, pc}
.L2027:
	ldr	r2, [sp, #4]
	cmn	r2, #1
	beq	.L2032
	str	r3, [sp, #8]
	bl	__errno_location(PLT)
	add	r2, sp, #144
	mov	r1, #1
	str	r1, [r2, #-56]!
	ldr	r1, .L2045+20
	mov	r7, r0
	str	r8, [r0]
	ldr	r0, [sp, #4]
	bl	ioctl(PLT)
	ldr	r2, .L2045+24
	ldr	r9, [r7]
	ldr	r7, [r6, r2]
	ldrb	r2, [r7]	@ zero_extendqisi2
	mcr	p15, 0, r0, c7, c10, 5
	ldr	r3, [sp, #8]
	tst	r2, #1
	mov	r8, r0
	beq	.L2033
.L1999:
	ldr	r2, .L2045+28
	ldr	r7, [r6, r2]
.L1676:
	cmp	r8, #0
	str	r9, [r4, #12]
	str	r7, [r4, #16]
	blt	.L1669
	mov	r2, #0
	str	r2, [r4, #12]
	str	r3, [r4, #16]
	ldrb	r3, [r5, #4]	@ zero_extendqisi2
	ldr	r2, [r5]
	orr	r3, r3, #2
	str	r2, [sp, #4]
	strb	r3, [r5, #4]
	b	.L1804
.L1815:
	str	r0, [sp, #20]
	b	.L1659
.L2033:
	mov	r0, r7
	str	r3, [sp, #4]
	bl	__cxa_guard_acquire(PLT)
	ldr	r3, [sp, #4]
	cmp	r0, #0
	beq	.L1999
	mov	r0, r7
	str	r3, [sp, #4]
	bl	__cxa_guard_release(PLT)
	ldr	r0, .L2045+28
	ldr	r1, .L2045+32
	ldr	r2, .L2045+36
	ldr	r7, [r6, r0]
.LPIC89:
	add	r2, pc, r2
	ldr	r1, [r6, r1]
	mov	r0, r7
	bl	__aeabi_atexit(PLT)
	ldr	r3, [sp, #4]
	b	.L1676
.L2029:
	ldr	r5, [r8, #20]
	ldr	r2, [sp, #20]
	ldrb	r3, [r5, #20]	@ zero_extendqisi2
	orrs	r3, r2, r3
	beq	.L1696
	ldr	r0, [r10]
	bl	pthread_getspecific(PLT)
	cmp	r0, #0
	bne	.L1962
	b	.L1696
.L1699:
	ldr	r0, [r0, #8]
	cmp	r0, #0
	beq	.L1696
.L1962:
	ldr	r3, [r0]
	cmp	r5, r3
	bne	.L1699
	ldr	r3, [r0, #4]
	cmp	r3, #0
	beq	.L1696
	ldr	r1, [r3, #8]
	ldr	r2, [r3, #12]
	cmp	r1, #0
	add	r2, r2, #1
	mov	r0, #0
	str	r2, [r3, #12]
	str	r0, [r4]
	strne	r4, [r1]
	streq	r4, [r3, #8]
	strne	r4, [r3, #8]
	streq	r4, [r3, #4]
	b	.L1703
.L1696:
	add	r3, r5, #124
	mcr	p15, 0, r0, c7, c10, 5
.L1993:
	ldrex	r2, [r3]
	add	r2, r2, #1
	strex	r1, r2, [r3]
	cmp	r1, #0
	bne	.L1993
	add	r7, r5, #24
	mcr	p15, 0, r0, c7, c10, 5
	mov	r0, r7
	bl	pthread_mutex_lock(PLT)
	ldr	r3, [r5, #132]
	mov	r2, #0
	cmp	r3, r2
	str	r2, [r4]
	strne	r4, [r3]
	ldr	r3, [r5, #96]
	strne	r4, [r5, #132]
	orr	r3, r3, #1
	streq	r4, [r5, #132]
	streq	r4, [r5, #128]
	cmp	r3, #1
	add	r4, r5, #48
	str	r3, [r5, #96]
	beq	.L1706
	mov	r0, r7
	bl	pthread_mutex_unlock(PLT)
	mov	r0, r4
	bl	pthread_cond_signal(PLT)
	b	.L1703
.L1734:
	ldr	r3, .L2045+4
	add	r9, sp, #36
	mov	fp, #0
	str	r5, [sp, #36]
	str	fp, [r9, #4]
	str	fp, [r9, #8]
	ldr	r10, [r6, r3]
	ldr	r0, [r10]
	bl	pthread_getspecific(PLT)
	cmp	r0, #0
	beq	.L1740
	ldr	r3, [r0, #4]
	cmp	r3, fp
	beq	.L1740
	ldr	r6, [r3]
	cmp	r6, fp
	beq	.L1740
	str	fp, [r3]
	ldrb	r3, [r6]	@ zero_extendqisi2
	cmp	r3, #27
	bls	.L2034
.L2005:
	strb	r3, [r6, #28]
	ldr	lr, .L2045+40
	ldm	r5, {r0, r1, r2, r3}
	add	ip, r6, #12
.LPIC91:
	add	lr, pc, lr
	str	r6, [sp, #40]
	str	lr, [r6, #4]
	mov	lr, #0
	str	lr, [r6]
	str	lr, [r6, #8]
	stm	ip, {r0, r1, r2, r3}
	ldr	r0, [r10]
	str	r6, [sp, #44]
	ldr	r5, [r8, #20]
	bl	pthread_getspecific(PLT)
	subs	r3, r0, #0
	beq	.L1743
	ldr	r2, [r3]
	cmp	r2, r5
	bne	.L1746
	b	.L1744
.L1967:
	ldr	r2, [r3]
	cmp	r5, r2
	beq	.L1744
.L1746:
	ldr	r3, [r3, #8]
	cmp	r3, #0
	bne	.L1967
.L1743:
	ldr	r0, [r4, #24]
	add	r0, r0, #12
	bl	pthread_mutex_lock(PLT)
.L1748:
	ldr	r0, [r4, #24]
	ldrb	r7, [r0, #36]	@ zero_extendqisi2
	cmp	r7, #0
	bne	.L1750
	mov	r3, #1
	strb	r3, [r0, #36]
	add	r0, r0, #12
	bl	pthread_mutex_unlock(PLT)
	ldr	r5, [r4, #24]
	ldr	r4, [r8, #20]
	str	r7, [r6]
	ldr	r3, [r5, #52]
	cmp	r3, #0
	strne	r6, [r3]
	ldrb	r3, [r4, #20]	@ zero_extendqisi2
	strne	r6, [r5, #52]
	streq	r6, [r5, #52]
	streq	r6, [r5, #48]
	cmp	r3, #0
	bne	.L2035
.L1759:
	add	r3, r4, #124
	mcr	p15, 0, r0, c7, c10, 5
.L1989:
	ldrex	r2, [r3]
	add	r2, r2, #1
	strex	r1, r2, [r3]
	cmp	r1, #0
	bne	.L1989
	add	r6, r4, #24
	mcr	p15, 0, r0, c7, c10, 5
	mov	r0, r6
	bl	pthread_mutex_lock(PLT)
	ldr	r3, [r4, #132]
	mov	r2, #0
	cmp	r3, r2
	str	r2, [r5]
	strne	r5, [r3]
	ldr	r3, [r4, #96]
	strne	r5, [r4, #132]
	orr	r3, r3, #1
	streq	r5, [r4, #132]
	streq	r5, [r4, #128]
	cmp	r3, #1
	add	r5, r4, #48
	str	r3, [r4, #96]
	beq	.L1768
	mov	r0, r6
	bl	pthread_mutex_unlock(PLT)
	mov	r0, r5
	bl	pthread_cond_signal(PLT)
	b	.L1653
.L2028:
	ldr	r3, .L2045+24
	ldr	r5, [r6, r3]
	ldrb	r3, [r5]	@ zero_extendqisi2
	mcr	p15, 0, r0, c7, c10, 5
	tst	r3, #1
	beq	.L2036
.L2000:
	ldr	r3, .L2045+28
	ldr	r7, [r6, r3]
.L1680:
	ldr	r5, [r8, #20]
	mov	r2, #9
	str	r7, [r4, #16]
	ldrb	r3, [r5, #20]	@ zero_extendqisi2
	str	r2, [r4, #12]
	ldr	r2, [sp, #20]
	orrs	r3, r2, r3
	beq	.L1682
	ldr	r0, [r10]
	bl	pthread_getspecific(PLT)
	cmp	r0, #0
	bne	.L1961
	b	.L1682
.L1685:
	ldr	r0, [r0, #8]
	cmp	r0, #0
	beq	.L1682
.L1961:
	ldr	r3, [r0]
	cmp	r5, r3
	bne	.L1685
	ldr	r3, [r0, #4]
	cmp	r3, #0
	bne	.L1719
.L1682:
	add	r3, r5, #124
	mcr	p15, 0, r0, c7, c10, 5
.L1994:
	ldrex	r2, [r3]
	add	r2, r2, #1
	strex	r1, r2, [r3]
	cmp	r1, #0
	bne	.L1994
	add	r6, r5, #24
	mcr	p15, 0, r0, c7, c10, 5
	mov	r0, r6
	bl	pthread_mutex_lock(PLT)
	ldr	r3, [r5, #132]
	mov	r2, #0
	cmp	r3, r2
	str	r2, [r4]
	strne	r4, [r3]
	ldr	r3, [r5, #96]
	strne	r4, [r5, #132]
	orr	r3, r3, #1
	streq	r4, [r5, #132]
	streq	r4, [r5, #128]
	cmp	r3, #1
	add	r4, r5, #48
	str	r3, [r5, #96]
	bne	.L2009
	ldrb	r1, [r5, #120]	@ zero_extendqisi2
	cmp	r1, #0
	bne	.L1703
	ldr	r0, [r5, #104]
	cmp	r0, #0
	beq	.L1703
	mov	lr, #-2147483639
	add	ip, r0, #48
	strb	r3, [r5, #120]
.L2011:
	add	r2, sp, #88
	mov	r3, r2
	str	r1, [sp, #92]
	str	r1, [sp, #100]
	b	.L2012
.L2032:
	ldr	r3, .L2045+24
	ldr	r5, [r6, r3]
	ldrb	r3, [r5]	@ zero_extendqisi2
	mcr	p15, 0, r0, c7, c10, 5
	tst	r3, #1
	beq	.L2037
.L1998:
	ldr	r3, .L2045+28
	ldr	r7, [r6, r3]
.L1672:
	mov	r3, #9
	str	r7, [r4, #16]
	str	r3, [r4, #12]
	b	.L1669
.L1750:
	ldr	r3, [r0, #44]
	mov	r2, #0
	cmp	r3, r2
	str	r2, [r6]
	add	r0, r0, #12
	strne	r6, [r3]
	streq	r6, [r0, #32]
	strne	r6, [r0, #32]
	streq	r6, [r0, #28]
	bl	pthread_mutex_unlock(PLT)
	b	.L1653
.L2034:
	mov	r0, r6
	bl	_ZdlPv(PLT)
.L1740:
	mov	r0, #29
	bl	_Znwj(PLT)
.LEHE26:
	mov	r3, #28
	mov	r6, r0
	b	.L2005
.L1744:
	ldr	r0, [r4, #24]
	ldr	r5, [r3, #4]
	add	r0, r0, #12
	bl	pthread_mutex_lock(PLT)
	cmp	r5, #0
	beq	.L1748
	ldr	r0, [r4, #24]
	ldrb	r5, [r0, #36]	@ zero_extendqisi2
	cmp	r5, #0
	bne	.L1750
	mov	r3, #1
	strb	r3, [r0, #36]
	add	r0, r0, #12
	bl	pthread_mutex_unlock(PLT)
	ldr	r3, [r4, #24]
	ldr	r0, [r7]
	ldr	fp, [sp, #44]
	str	r3, [sp, #48]
	str	r5, [sp, #40]
	str	r5, [sp, #44]
	bl	pthread_getspecific(PLT)
	add	r3, sp, #48
	mov	r1, r3
	str	r3, [sp, #52]
	add	r6, sp, #88
	str	r0, [sp, #56]
	ldr	r0, [r7]
	bl	pthread_setspecific(PLT)
	add	r3, fp, #12
	ldr	r8, [r8, #20]
	ldm	r3, {r0, r1, r2, r3}
	ldr	ip, [r4, #24]
	str	r8, [sp, #28]
	stm	r6, {r0, r1, r2, r3}
	ldr	r0, [r10]
	str	fp, [sp, #64]
	str	ip, [sp, #32]
	str	r5, [sp, #68]
	str	r6, [sp, #60]
	bl	pthread_getspecific(PLT)
	cmp	r0, #0
	beq	.L1752
	ldr	r3, [r0, #4]
	cmp	r3, #0
	beq	.L1752
	ldr	r2, [r3]
	cmp	r2, #0
	beq	.L2038
.L1752:
	mov	r0, fp
	bl	_ZdlPv(PLT)
.L1771:
	mov	r3, #0
	cmp	r8, #0
	str	r3, [sp, #64]
	beq	.L1772
	add	r2, sp, #144
	mov	r1, #1
	str	r3, [r2, #-120]!
.L1988:
	ldrex	r0, [r2]
	strex	ip, r1, [r2]
	cmp	ip, #0
	bne	.L1988
	mcr	p15, 0, r0, c7, c10, 5
	ldr	r1, [sp, #88]
	ldr	r2, [sp, #100]
	ldr	r0, [r1, #20]
	strb	r3, [r1, #30]
	cmp	r0, r3
	beq	.L1776
	ldrb	r3, [r1, #28]	@ zero_extendqisi2
	cmp	r3, #0
	bne	.L1776
	ldr	r3, [r0]
	add	r1, sp, #92
	ldr	r3, [r3, #12]
.LEHB27:
	blx	r3
.LEHE27:
.L1776:
	mov	r3, #0
	mcr	p15, 0, r0, c7, c10, 5
	str	r3, [sp, #24]
	ldr	r3, [sp, #68]
	cmp	r3, #0
	ldrne	r8, [sp, #64]
	beq	.L2039
.L1812:
	mov	r3, #0
	str	r3, [sp, #68]
.L1778:
	cmp	r8, #0
	beq	.L1779
	ldr	r0, [r10]
	bl	pthread_getspecific(PLT)
	cmp	r0, #0
	beq	.L1780
	ldr	r3, [r0, #4]
	cmp	r3, #0
	beq	.L1780
	ldr	r2, [r3]
	cmp	r2, #0
	beq	.L2040
.L1780:
	mov	r0, r8
	bl	_ZdlPv(PLT)
.L1779:
	ldr	r0, [sp, #32]
	add	r0, r0, #12
	bl	pthread_mutex_lock(PLT)
	ldr	r0, [sp, #32]
	ldr	r4, [r0, #40]
	cmp	r4, #0
	ldreq	r4, [r0, #48]
	beq	.L1782
	ldr	r3, [r0, #52]
	cmp	r3, #0
	strne	r4, [r3]
	ldrne	r4, [r0, #48]
	ldr	r2, [r0, #44]
	mov	r3, #0
	streq	r4, [r0, #48]
	str	r2, [r0, #52]
	str	r3, [r0, #40]
	str	r3, [r0, #44]
.L1782:
	adds	r3, r4, #0
	movne	r3, #1
	strb	r3, [r0, #36]
	add	r0, r0, #12
	bl	pthread_mutex_unlock(PLT)
	cmp	r4, #0
	bne	.L2041
.L1786:
	ldr	r0, [r7]
	ldr	r1, [sp, #56]
	bl	pthread_setspecific(PLT)
	ldr	r3, [sp, #44]
	ldr	r4, [sp, #40]
	cmp	r3, #0
	movne	r3, #0
	strne	r3, [sp, #44]
	cmp	r4, #0
	beq	.L1653
	ldr	r0, [r10]
	bl	pthread_getspecific(PLT)
	cmp	r0, #0
	beq	.L1802
	ldr	r3, [r0, #4]
	cmp	r3, #0
	beq	.L1802
	ldr	r2, [r3]
	cmp	r2, #0
	beq	.L2042
.L1802:
	mov	r0, r4
	bl	_ZdlPv(PLT)
	b	.L1653
.L1706:
	ldrb	r2, [r5, #120]	@ zero_extendqisi2
	cmp	r2, #0
	bne	.L1708
	ldr	r0, [r5, #104]
	cmp	r0, #0
	beq	.L1708
	strb	r3, [r5, #120]
	add	r3, sp, #88
	add	r1, r0, #48
	mov	ip, #-2147483639
	str	r1, [sp, #96]
	str	r2, [r3, #4]
	str	r2, [r3, #12]
	str	ip, [sp, #88]
	mov	r1, #3
	ldr	r2, [r0, #48]
	ldr	r0, [r0, #56]
	bl	epoll_ctl(PLT)
.L1708:
	mov	r0, r7
	bl	pthread_mutex_unlock(PLT)
	b	.L1703
.L2036:
	mov	r0, r5
	bl	__cxa_guard_acquire(PLT)
	cmp	r0, #0
	beq	.L2000
	mov	r0, r5
	bl	__cxa_guard_release(PLT)
	ldr	r3, .L2045+28
	ldr	r1, .L2045+32
	ldr	r2, .L2045+44
	ldr	r7, [r6, r3]
.LPIC90:
	add	r2, pc, r2
	ldr	r1, [r6, r1]
	mov	r0, r7
	bl	__aeabi_atexit(PLT)
	b	.L1680
.L2037:
	mov	r0, r5
	bl	__cxa_guard_acquire(PLT)
	cmp	r0, #0
	beq	.L1998
	mov	r0, r5
	bl	__cxa_guard_release(PLT)
	ldr	r3, .L2045+28
	ldr	r1, .L2045+32
	ldr	r2, .L2045+48
	ldr	r7, [r6, r3]
.LPIC88:
	add	r2, pc, r2
	ldr	r1, [r6, r1]
	mov	r0, r7
	bl	__aeabi_atexit(PLT)
	b	.L1672
.L2041:
	ldr	r4, [sp, #28]
	ldr	r5, [sp, #32]
	ldrb	r3, [r4, #20]	@ zero_extendqisi2
	cmp	r3, #0
	bne	.L2043
.L1787:
	add	r3, r4, #124
	mcr	p15, 0, r0, c7, c10, 5
.L1987:
	ldrex	r2, [r3]
	add	r2, r2, #1
	strex	r1, r2, [r3]
	cmp	r1, #0
	bne	.L1987
	add	r8, r4, #24
	mcr	p15, 0, r0, c7, c10, 5
	mov	r0, r8
	bl	pthread_mutex_lock(PLT)
	ldr	r3, [r4, #132]
	mov	r2, #0
	cmp	r3, r2
	str	r2, [r5]
	strne	r5, [r3]
	ldr	r3, [r4, #96]
	strne	r5, [r4, #132]
	orr	r3, r3, #1
	streq	r5, [r4, #132]
	streq	r5, [r4, #128]
	cmp	r3, #1
	add	r5, r4, #48
	str	r3, [r4, #96]
	beq	.L1796
	mov	r0, r8
	bl	pthread_mutex_unlock(PLT)
	mov	r0, r5
	bl	pthread_cond_signal(PLT)
	b	.L1786
.L2030:
	ldr	r3, [r4, #24]
	mov	r0, r4
.LEHB28:
	blx	r3
.LEHE28:
	cmp	r0, #0
	bne	.L2044
	ldr	r3, [r5, #8]
	ldr	r2, [r3, #52]
	ands	ip, r2, #4
	bne	.L1709
	orr	r1, r2, #4
	str	r3, [sp, #96]
	ldr	r0, [r8, #56]
	str	r1, [sp, #88]
	add	r1, sp, #88
	mov	r3, r1
	ldr	r2, [sp, #4]
	mov	r1, #3
	str	ip, [sp, #92]
	str	ip, [sp, #100]
	bl	epoll_ctl(PLT)
	cmp	r0, #0
	bne	.L1711
	ldr	r1, [r5, #8]
	ldr	r0, [sp, #88]
	mov	r3, r1
	ldr	r2, [r1, #52]
	orr	r2, r2, r0
	str	r2, [r1, #52]
	b	.L1709
.L1768:
	ldrb	r1, [r4, #120]	@ zero_extendqisi2
	cmp	r1, #0
	bne	.L1703
	ldr	r0, [r4, #104]
	cmp	r0, #0
	beq	.L1703
	mov	lr, #-2147483639
	add	ip, r0, #48
	strb	r3, [r4, #120]
	b	.L2011
.L1796:
	ldrb	r2, [r4, #120]	@ zero_extendqisi2
	cmp	r2, #0
	bne	.L1798
	ldr	r0, [r4, #104]
	cmp	r0, #0
	beq	.L1798
	add	r1, r0, #48
	mov	ip, #-2147483639
	strb	r3, [r4, #120]
	str	r1, [sp, #96]
	str	r2, [r6, #4]
	str	r2, [r6, #12]
	str	ip, [sp, #88]
	mov	r3, r6
	ldr	r2, [r0, #48]
	mov	r1, #3
	ldr	r0, [r0, #56]
	bl	epoll_ctl(PLT)
.L1798:
	mov	r0, r8
	bl	pthread_mutex_unlock(PLT)
	b	.L1786
.L2035:
	ldr	r0, [r10]
	bl	pthread_getspecific(PLT)
	cmp	r0, #0
	bne	.L1968
	b	.L1759
.L1762:
	ldr	r0, [r0, #8]
	cmp	r0, #0
	beq	.L1759
.L1968:
	ldr	r3, [r0]
	cmp	r4, r3
	bne	.L1762
	ldr	r3, [r0, #4]
	cmp	r3, #0
	beq	.L1759
	ldr	r1, [r3, #8]
	ldr	r2, [r3, #12]
	cmp	r1, #0
	add	r2, r2, #1
	mov	r0, #0
	str	r2, [r3, #12]
	str	r0, [r5]
	strne	r5, [r1]
	streq	r5, [r3, #8]
	strne	r5, [r3, #8]
	streq	r5, [r3, #4]
	b	.L1653
.L2039:
	ldr	r8, [sp, #64]
	b	.L1778
.L2042:
	ldrb	r2, [r4, #28]	@ zero_extendqisi2
	strb	r2, [r4]
	str	r4, [r3]
	b	.L1653
.L2044:
	mov	r0, r6
	bl	pthread_mutex_unlock(PLT)
	ldr	r2, [sp, #20]
	mov	r1, r4
	ldr	r0, [r8, #20]
	bl	_ZN4asio6detail15task_io_service25post_immediate_completionEPNS0_25task_io_service_operationEb(PLT)
	b	.L1653
.L2043:
	ldr	r0, [r10]
	bl	pthread_getspecific(PLT)
	cmp	r0, #0
	bne	.L1971
	b	.L1787
.L1790:
	ldr	r0, [r0, #8]
	cmp	r0, #0
	beq	.L1787
.L1971:
	ldr	r3, [r0]
	cmp	r4, r3
	bne	.L1790
	ldr	r3, [r0, #4]
	cmp	r3, #0
	beq	.L1787
	ldr	r1, [r3, #8]
	ldr	r2, [r3, #12]
	cmp	r1, #0
	add	r2, r2, #1
	mov	r0, #0
	str	r2, [r3, #12]
	str	r0, [r5]
	strne	r5, [r1]
	streq	r5, [r3, #8]
	strne	r5, [r3, #8]
	streq	r5, [r3, #4]
	b	.L1786
.L1772:
	ldr	r3, [sp, #68]
	cmp	r3, #0
	bne	.L1812
	b	.L1779
.L2040:
	ldrb	r2, [r8, #28]	@ zero_extendqisi2
	strb	r2, [r8]
	str	r8, [r3]
	b	.L1779
.L2038:
	ldrb	r2, [fp, #28]	@ zero_extendqisi2
	strb	r2, [fp]
	str	fp, [r3]
	b	.L1771
.L1818:
	mov	r3, #0
	mcr	p15, 0, r0, c7, c10, 5
	str	r3, [sp, #88]
.LEHB29:
	bl	__cxa_end_cleanup(PLT)
.L2046:
	.align	2
.L2045:
	.word	_GLOBAL_OFFSET_TABLE_-(.LPIC86+8)
	.word	_ZN4asio6detail10call_stackINS0_15task_io_serviceENS0_27task_io_service_thread_infoEE4top_E(GOT)
	.word	_ZN4asio6detail23reactive_socket_send_opINS_15const_buffers_1ENS0_8write_opINS_19basic_stream_socketINS_2ip3tcpENS_21stream_socket_serviceIS6_EEEES2_NS0_14transfer_all_tENS0_15wrapped_handlerINS_10io_service6strandEZN7asiopal13SocketChannel14BeginWriteImplERKN7openpal6RSliceEEUlRKSt10error_codejE_NS0_26is_continuation_if_runningEEEEEE11do_completeEPNS0_15task_io_serviceEPNS0_25task_io_service_operationESM_j-(.LPIC87+8)
	.word	_ZN4asio6detail28reactive_socket_send_op_baseINS_15const_buffers_1EE10do_performEPNS0_10reactor_opE(GOT)
	.word	_ZN4asio6detail10call_stackINS0_14strand_service11strand_implEhE4top_E(GOT)
	.word	21537
	.word	_ZGVZN4asio15system_categoryEvE8instance(GOT)
	.word	_ZZN4asio15system_categoryEvE8instance(GOT)
	.word	_ZN4asio6detail15system_categoryD1Ev(GOT)
	.word	__dso_handle-(.LPIC89+8)
	.word	_ZN4asio6detail18completion_handlerINS0_7binder2IZN7asiopal13SocketChannel14BeginWriteImplERKN7openpal6RSliceEEUlRKSt10error_codejE_S9_jEEE11do_completeEPNS0_15task_io_serviceEPNS0_25task_io_service_operationESB_j-(.LPIC91+8)
	.word	__dso_handle-(.LPIC90+8)
	.word	__dso_handle-(.LPIC88+8)
.L1819:
	mov	r3, #0
	mcr	p15, 0, r0, c7, c10, 5
	add	r0, sp, #60
	str	r3, [sp, #24]
	bl	_ZN4asio6detail18completion_handlerINS0_7binder2IZN7asiopal13SocketChannel14BeginWriteImplERKN7openpal6RSliceEEUlRKSt10error_codejE_S9_jEEE3ptr5resetEv(PLT)
	add	r0, sp, #28
	bl	_ZN4asio6detail14strand_service16on_dispatch_exitD1Ev(PLT)
	ldr	r1, [sp, #56]
	ldr	r0, [r7]
	bl	pthread_setspecific(PLT)
	mov	r0, r9
	bl	_ZN4asio6detail18completion_handlerINS0_7binder2IZN7asiopal13SocketChannel14BeginWriteImplERKN7openpal6RSliceEEUlRKSt10error_codejE_S9_jEEE3ptr5resetEv(PLT)
	bl	__cxa_end_cleanup(PLT)
.L1711:
	bl	__errno_location(PLT)
	ldr	r5, [r0]
	bl	_ZN4asio15system_categoryEv(PLT)
	str	r5, [r4, #12]
	ldr	r2, [sp, #20]
	mov	r1, r4
	str	r0, [r4, #16]
	ldr	r0, [r8, #20]
	bl	_ZN4asio6detail15task_io_service25post_immediate_completionEPNS0_25task_io_service_operationEb(PLT)
	b	.L1703
.L1817:
	mov	r0, r6
	bl	pthread_mutex_unlock(PLT)
	mov	r0, fp
	bl	_ZN4asio6detail23reactive_socket_send_opINS_15const_buffers_1ENS0_8write_opINS_19basic_stream_socketINS_2ip3tcpENS_21stream_socket_serviceIS6_EEEES2_NS0_14transfer_all_tENS0_15wrapped_handlerINS_10io_service6strandEZN7asiopal13SocketChannel14BeginWriteImplERKN7openpal6RSliceEEUlRKSt10error_codejE_NS0_26is_continuation_if_runningEEEEEE3ptr5resetEv(PLT)
	bl	__cxa_end_cleanup(PLT)
.LEHE29:
	.personality	__gxx_personality_v0
	.handlerdata
.LLSDA7964:
	.byte	0xff
	.byte	0xff
	.byte	0x1
	.uleb128 .LLSDACSE7964-.LLSDACSB7964
.LLSDACSB7964:
	.uleb128 .LEHB25-.LFB7964
	.uleb128 .LEHE25-.LEHB25
	.uleb128 .L1818-.LFB7964
	.uleb128 0
	.uleb128 .LEHB26-.LFB7964
	.uleb128 .LEHE26-.LEHB26
	.uleb128 0
	.uleb128 0
	.uleb128 .LEHB27-.LFB7964
	.uleb128 .LEHE27-.LEHB27
	.uleb128 .L1819-.LFB7964
	.uleb128 0
	.uleb128 .LEHB28-.LFB7964
	.uleb128 .LEHE28-.LEHB28
	.uleb128 .L1817-.LFB7964
	.uleb128 0
	.uleb128 .LEHB29-.LFB7964
	.uleb128 .LEHE29-.LEHB29
	.uleb128 0
	.uleb128 0
.LLSDACSE7964:
	.text
	.fnend
	.size	_ZN4asio6detail8write_opINS_19basic_stream_socketINS_2ip3tcpENS_21stream_socket_serviceIS4_EEEENS_15const_buffers_1ENS0_14transfer_all_tENS0_15wrapped_handlerINS_10io_service6strandEZN7asiopal13SocketChannel14BeginWriteImplERKN7openpal6RSliceEEUlRKSt10error_codejE_NS0_26is_continuation_if_runningEEEEclESL_ji, .-_ZN4asio6detail8write_opINS_19basic_stream_socketINS_2ip3tcpENS_21stream_socket_serviceIS4_EEEENS_15const_buffers_1ENS0_14transfer_all_tENS0_15wrapped_handlerINS_10io_service6strandEZN7asiopal13SocketChannel14BeginWriteImplERKN7openpal6RSliceEEUlRKSt10error_codejE_NS0_26is_continuation_if_runningEEEEclESL_ji
	.align	2
	.global	_ZN7asiopal13SocketChannel14BeginWriteImplERKN7openpal6RSliceE
	.syntax unified
	.arm
	.fpu vfp
	.type	_ZN7asiopal13SocketChannel14BeginWriteImplERKN7openpal6RSliceE, %function
_ZN7asiopal13SocketChannel14BeginWriteImplERKN7openpal6RSliceE:
	.fnstart
.LFB6791:
	@ args = 0, pretend = 0, frame = 40
	@ frame_needed = 0, uses_anonymous_args = 0
	ldr	r3, [r0, #12]
	ldm	r1, {r2, ip}
	push	{r4, lr}
	.save {r4, lr}
	.pad #40
	sub	sp, sp, #40
	ldr	lr, [r3, #20]
	ldr	r1, [r3, #24]
	mov	r4, #0
	add	r3, r0, #32
	str	lr, [sp, #28]
	str	r1, [sp, #32]
	str	r3, [sp, #8]
	str	ip, [sp, #12]
	str	r2, [sp, #16]
	str	r0, [sp, #36]
	str	r4, [sp, #20]
	str	r4, [sp, #24]
	str	r4, [sp]
	bl	_ZNSt3_V215system_categoryEv(PLT)
	mov	r2, r4
	mov	r3, #1
	mov	r1, sp
	str	r0, [sp, #4]
	add	r0, sp, #8
	bl	_ZN4asio6detail8write_opINS_19basic_stream_socketINS_2ip3tcpENS_21stream_socket_serviceIS4_EEEENS_15const_buffers_1ENS0_14transfer_all_tENS0_15wrapped_handlerINS_10io_service6strandEZN7asiopal13SocketChannel14BeginWriteImplERKN7openpal6RSliceEEUlRKSt10error_codejE_NS0_26is_continuation_if_runningEEEEclESL_ji(PLT)
	add	sp, sp, #40
	@ sp needed
	pop	{r4, pc}
	.fnend
	.size	_ZN7asiopal13SocketChannel14BeginWriteImplERKN7openpal6RSliceE, .-_ZN7asiopal13SocketChannel14BeginWriteImplERKN7openpal6RSliceE
	.align	2
	.syntax unified
	.arm
	.fpu vfp
	.type	_ZN4asio6detail18completion_handlerINS0_17rewrapped_handlerINS0_7binder2INS0_8write_opINS_19basic_stream_socketINS_2ip3tcpENS_21stream_socket_serviceIS7_EEEENS_15const_buffers_1ENS0_14transfer_all_tENS0_15wrapped_handlerINS_10io_service6strandEZN7asiopal13SocketChannel14BeginWriteImplERKN7openpal6RSliceEEUlRKSt10error_codejE_NS0_26is_continuation_if_runningEEEEESM_jEESP_EEE11do_completeEPNS0_15task_io_serviceEPNS0_25task_io_service_operationESO_j, %function
_ZN4asio6detail18completion_handlerINS0_17rewrapped_handlerINS0_7binder2INS0_8write_opINS_19basic_stream_socketINS_2ip3tcpENS_21stream_socket_serviceIS7_EEEENS_15const_buffers_1ENS0_14transfer_all_tENS0_15wrapped_handlerINS_10io_service6strandEZN7asiopal13SocketChannel14BeginWriteImplERKN7openpal6RSliceEEUlRKSt10error_codejE_NS0_26is_continuation_if_runningEEEEESM_jEESP_EEE11do_completeEPNS0_15task_io_serviceEPNS0_25task_io_service_operationESO_j:
	.fnstart
.LFB8972:
	@ args = 0, pretend = 0, frame = 64
	@ frame_needed = 0, uses_anonymous_args = 0
	add	r3, r1, #20
	push	{r4, r5, r6, r7, lr}
	.save {r4, r5, r6, r7, lr}
	mov	r4, r1
	.pad #68
	sub	sp, sp, #68
	mov	r5, r0
	ldm	r3, {r0, r1}
	add	r2, r4, #36
	add	r3, sp, #24
	add	r6, sp, #52
	stm	r3, {r0, r1}
	ldm	r2, {r0, r1}
	add	r3, sp, #40
	add	r2, r4, #48
	stm	r3, {r0, r1}
	ldm	r2, {r0, r1}
	ldr	ip, [r4, #12]
	ldr	r3, .L2082
	stm	r6, {r0, r1}
	ldr	r0, [r4, #16]
	ldr	r1, [r4, #28]
	str	r0, [sp, #20]
	str	r1, [sp, #32]
	ldr	r0, [r4, #44]
	ldr	r1, [r4, #56]
	ldr	r2, .L2082+4
.LPIC92:
	add	r3, pc, r3
	str	ip, [sp, #16]
	ldr	ip, [r4, #32]
	str	r0, [sp, #48]
	str	r1, [sp, #60]
	mov	r0, #0
	add	r1, sp, #16
	str	r0, [sp, #12]
	str	r4, [sp, #8]
	str	ip, [sp, #36]
	str	r1, [sp, #4]
	ldr	r7, [r3, r2]
	ldr	r0, [r7]
	bl	pthread_getspecific(PLT)
	cmp	r0, #0
	beq	.L2050
	ldr	r3, [r0, #4]
	cmp	r3, #0
	beq	.L2050
	ldr	r2, [r3]
	cmp	r2, #0
	beq	.L2080
.L2050:
	mov	r0, r4
	bl	_ZdlPv(PLT)
.L2051:
	mov	r3, #0
	cmp	r5, #0
	str	r3, [sp, #8]
	beq	.L2052
	add	r2, sp, #64
	mov	r1, #1
	str	r3, [r2, #-64]!
.L2078:
	ldrex	r0, [r2]
	strex	ip, r1, [r2]
	cmp	ip, #0
	bne	.L2078
	mcr	p15, 0, r0, c7, c10, 5
	mov	r1, r6
	ldr	r2, [sp, #60]
	add	r0, sp, #20
.LEHB30:
	bl	_ZN4asio6detail8write_opINS_19basic_stream_socketINS_2ip3tcpENS_21stream_socket_serviceIS4_EEEENS_15const_buffers_1ENS0_14transfer_all_tENS0_15wrapped_handlerINS_10io_service6strandEZN7asiopal13SocketChannel14BeginWriteImplERKN7openpal6RSliceEEUlRKSt10error_codejE_NS0_26is_continuation_if_runningEEEEclESL_ji(PLT)
.LEHE30:
	mov	r3, #0
	mcr	p15, 0, r0, c7, c10, 5
	str	r3, [sp]
	ldr	r3, [sp, #12]
	ldr	r5, [sp, #8]
	cmp	r3, #0
	beq	.L2053
.L2057:
	mov	r3, #0
	str	r3, [sp, #12]
.L2053:
	cmp	r5, #0
	beq	.L2049
	ldr	r0, [r7]
	bl	pthread_getspecific(PLT)
	cmp	r0, #0
	beq	.L2055
	ldr	r3, [r0, #4]
	cmp	r3, #0
	beq	.L2055
	ldr	r2, [r3]
	cmp	r2, #0
	beq	.L2081
.L2055:
	mov	r0, r5
	bl	_ZdlPv(PLT)
.L2049:
	add	sp, sp, #68
	@ sp needed
	pop	{r4, r5, r6, r7, pc}
.L2052:
	ldr	r3, [sp, #12]
	cmp	r3, #0
	bne	.L2057
	b	.L2049
.L2081:
	ldrb	r2, [r5, #60]	@ zero_extendqisi2
	strb	r2, [r5]
	str	r5, [r3]
	b	.L2049
.L2080:
	ldrb	r2, [r4, #60]	@ zero_extendqisi2
	strb	r2, [r4]
	str	r4, [r3]
	b	.L2051
.L2059:
	mov	r3, #0
	mcr	p15, 0, r0, c7, c10, 5
	add	r0, sp, #4
	str	r3, [sp]
	bl	_ZN4asio6detail18completion_handlerINS0_17rewrapped_handlerINS0_7binder2INS0_8write_opINS_19basic_stream_socketINS_2ip3tcpENS_21stream_socket_serviceIS7_EEEENS_15const_buffers_1ENS0_14transfer_all_tENS0_15wrapped_handlerINS_10io_service6strandEZN7asiopal13SocketChannel14BeginWriteImplERKN7openpal6RSliceEEUlRKSt10error_codejE_NS0_26is_continuation_if_runningEEEEESM_jEESP_EEE3ptr5resetEv(PLT)
.LEHB31:
	bl	__cxa_end_cleanup(PLT)
.LEHE31:
.L2083:
	.align	2
.L2082:
	.word	_GLOBAL_OFFSET_TABLE_-(.LPIC92+8)
	.word	_ZN4asio6detail10call_stackINS0_15task_io_serviceENS0_27task_io_service_thread_infoEE4top_E(GOT)
	.personality	__gxx_personality_v0
	.handlerdata
.LLSDA8972:
	.byte	0xff
	.byte	0xff
	.byte	0x1
	.uleb128 .LLSDACSE8972-.LLSDACSB8972
.LLSDACSB8972:
	.uleb128 .LEHB30-.LFB8972
	.uleb128 .LEHE30-.LEHB30
	.uleb128 .L2059-.LFB8972
	.uleb128 0
	.uleb128 .LEHB31-.LFB8972
	.uleb128 .LEHE31-.LEHB31
	.uleb128 0
	.uleb128 0
.LLSDACSE8972:
	.text
	.fnend
	.size	_ZN4asio6detail18completion_handlerINS0_17rewrapped_handlerINS0_7binder2INS0_8write_opINS_19basic_stream_socketINS_2ip3tcpENS_21stream_socket_serviceIS7_EEEENS_15const_buffers_1ENS0_14transfer_all_tENS0_15wrapped_handlerINS_10io_service6strandEZN7asiopal13SocketChannel14BeginWriteImplERKN7openpal6RSliceEEUlRKSt10error_codejE_NS0_26is_continuation_if_runningEEEEESM_jEESP_EEE11do_completeEPNS0_15task_io_serviceEPNS0_25task_io_service_operationESO_j, .-_ZN4asio6detail18completion_handlerINS0_17rewrapped_handlerINS0_7binder2INS0_8write_opINS_19basic_stream_socketINS_2ip3tcpENS_21stream_socket_serviceIS7_EEEENS_15const_buffers_1ENS0_14transfer_all_tENS0_15wrapped_handlerINS_10io_service6strandEZN7asiopal13SocketChannel14BeginWriteImplERKN7openpal6RSliceEEUlRKSt10error_codejE_NS0_26is_continuation_if_runningEEEEESM_jEESP_EEE11do_completeEPNS0_15task_io_serviceEPNS0_25task_io_service_operationESO_j
	.align	2
	.syntax unified
	.arm
	.fpu vfp
	.type	_ZN4asio6detail23reactive_socket_send_opINS_15const_buffers_1ENS0_8write_opINS_19basic_stream_socketINS_2ip3tcpENS_21stream_socket_serviceIS6_EEEES2_NS0_14transfer_all_tENS0_15wrapped_handlerINS_10io_service6strandEZN7asiopal13SocketChannel14BeginWriteImplERKN7openpal6RSliceEEUlRKSt10error_codejE_NS0_26is_continuation_if_runningEEEEEE11do_completeEPNS0_15task_io_serviceEPNS0_25task_io_service_operationESM_j, %function
_ZN4asio6detail23reactive_socket_send_opINS_15const_buffers_1ENS0_8write_opINS_19basic_stream_socketINS_2ip3tcpENS_21stream_socket_serviceIS6_EEEES2_NS0_14transfer_all_tENS0_15wrapped_handlerINS_10io_service6strandEZN7asiopal13SocketChannel14BeginWriteImplERKN7openpal6RSliceEEUlRKSt10error_codejE_NS0_26is_continuation_if_runningEEEEEE11do_completeEPNS0_15task_io_serviceEPNS0_25task_io_service_operationESM_j:
	.fnstart
.LFB8787:
	@ args = 0, pretend = 0, frame = 272
	@ frame_needed = 0, uses_anonymous_args = 0
	add	r3, r1, #48
	push	{r4, r5, r6, r7, r8, r9, r10, fp, lr}
	.save {r4, r5, r6, r7, r8, r9, r10, fp, lr}
	mov	r4, r1
	.pad #276
	sub	sp, sp, #276
	mov	r6, r0
	ldm	r3, {r0, r1}
	add	r10, sp, #80
	add	r3, r4, #64
	stm	r10, {r0, r1}
	ldm	r3, {r0, r1}
	add	r9, sp, #96
	add	r3, r4, #12
	stm	r9, {r0, r1}
	ldm	r3, {r0, r1}
	ldr	r2, [r4, #44]
	add	r7, sp, #108
	str	r2, [sp, #76]
	stm	r7, {r0, r1}
	ldr	r2, [r4, #60]
	ldr	r1, [r4, #56]
	ldr	r8, .L2288
	str	r1, [sp, #88]
	str	r2, [sp, #92]
	ldr	r1, [r4, #72]
	ldr	r2, [r4, #20]
	ldr	r3, .L2288+4
.LPIC93:
	add	r8, pc, r8
	str	r1, [sp, #104]
	str	r2, [sp, #116]
	mov	r1, #0
	add	r2, sp, #76
	str	r4, [sp, #32]
	str	r2, [sp, #28]
	str	r1, [sp, #36]
	ldr	r5, [r8, r3]
	ldr	r0, [r5]
	bl	pthread_getspecific(PLT)
	cmp	r0, #0
	beq	.L2085
	ldr	r3, [r0, #4]
	cmp	r3, #0
	beq	.L2085
	ldr	r2, [r3]
	cmp	r2, #0
	beq	.L2278
.L2085:
	mov	r0, r4
	bl	_ZdlPv(PLT)
.L2086:
	mov	r2, #0
	cmp	r6, #0
	str	r2, [sp, #32]
	beq	.L2087
	add	r3, sp, #272
	mov	r1, #1
	str	r2, [r3, #-260]!
.L2271:
	ldrex	r2, [r3]
	strex	r0, r1, [r3]
	cmp	r0, #0
	bne	.L2271
	mcr	p15, 0, r0, c7, c10, 5
	ldm	r10, {r0, r1}
	add	ip, sp, #128
	add	r2, sp, #144
	stm	ip, {r0, r1}
	ldm	r9, {r0, r1}
	ldr	r3, [sp, #76]
	ldr	lr, [sp, #88]
	stm	r2, {r0, r1}
	ldm	r7, {r0, r1}
	str	r3, [sp, #224]
	add	r3, sp, #156
	add	r7, sp, #228
	stm	r3, {r0, r1}
	ldm	ip, {r0, r1}
	str	lr, [sp, #236]
	ldr	ip, [sp, #92]
	stm	r7, {r0, r1}
	ldm	r2, {r0, r1}
	add	r6, sp, #244
	ldr	r2, [sp, #104]
	str	ip, [sp, #240]
	stm	r6, {r0, r1}
	str	r2, [sp, #120]
	str	r2, [sp, #152]
	str	r2, [sp, #220]
	str	r2, [sp, #252]
	ldm	r3, {r0, r1}
	ldr	r2, .L2288+8
	ldr	ip, [sp, #116]
	add	r4, sp, #256
	str	ip, [sp, #264]
	stm	r4, {r0, r1}
	ldr	r3, [r8, r2]
	ldr	r9, [sp, #96]
	str	r3, [sp, #4]
	ldr	r0, [r3]
	ldr	r10, [sp, #100]
	bl	pthread_getspecific(PLT)
	cmp	r0, #0
	bne	.L2261
	b	.L2088
.L2091:
	ldr	r0, [r0, #8]
	cmp	r0, #0
	beq	.L2088
.L2261:
	ldr	r3, [r0]
	cmp	r10, r3
	bne	.L2091
	ldr	r3, [r0, #4]
	cmp	r3, #0
	addne	r2, sp, #272
	movne	r3, #0
	strne	r3, [r2, #-220]!
	movne	r1, #1
	beq	.L2088
.L2270:
	ldrex	r0, [r2]
	strex	ip, r1, [r2]
	cmp	ip, #0
	bne	.L2270
	mcr	p15, 0, r0, c7, c10, 5
	mov	r1, r4
	ldr	r2, [sp, #264]
	add	r0, sp, #224
.LEHB32:
	bl	_ZN4asio6detail8write_opINS_19basic_stream_socketINS_2ip3tcpENS_21stream_socket_serviceIS4_EEEENS_15const_buffers_1ENS0_14transfer_all_tENS0_15wrapped_handlerINS_10io_service6strandEZN7asiopal13SocketChannel14BeginWriteImplERKN7openpal6RSliceEEUlRKSt10error_codejE_NS0_26is_continuation_if_runningEEEEclESL_ji(PLT)
.LEHE32:
	mov	r3, #0
	mcr	p15, 0, r0, c7, c10, 5
	str	r3, [sp, #52]
.L2094:
	mov	r3, #0
	mcr	p15, 0, r0, c7, c10, 5
	str	r3, [sp, #12]
	ldr	r3, [sp, #36]
	ldr	r6, [sp, #32]
	cmp	r3, #0
	beq	.L2155
.L2161:
	mov	r3, #0
	str	r3, [sp, #36]
.L2155:
	cmp	r6, #0
	beq	.L2084
	ldr	r0, [r5]
	bl	pthread_getspecific(PLT)
	cmp	r0, #0
	beq	.L2157
	ldr	r3, [r0, #4]
	cmp	r3, #0
	beq	.L2157
	ldr	r2, [r3]
	cmp	r2, #0
	beq	.L2279
.L2157:
	mov	r0, r6
	bl	_ZdlPv(PLT)
.L2084:
	add	sp, sp, #276
	@ sp needed
	pop	{r4, r5, r6, r7, r8, r9, r10, fp, pc}
.L2088:
	add	r10, sp, #40
	mov	r8, #0
	add	r3, sp, #220
	ldr	r0, [r5]
	str	r8, [r10, #4]
	str	r8, [r10, #8]
	str	r3, [sp, #40]
	bl	pthread_getspecific(PLT)
	cmp	r0, #0
	beq	.L2095
	ldr	r3, [r0, #4]
	cmp	r3, r8
	beq	.L2095
	ldr	fp, [r3]
	cmp	fp, r8
	beq	.L2095
	str	r8, [r3]
	ldrb	r3, [fp]	@ zero_extendqisi2
	cmp	r3, #59
	bls	.L2280
.L2274:
	strb	r3, [fp, #60]
	ldr	r3, [sp, #224]
	ldr	r2, .L2288+12
	str	r3, [fp, #16]
	ldm	r7, {r0, r1}
	ldr	ip, [sp, #220]
.LPIC94:
	add	r2, pc, r2
	add	r3, fp, #20
	str	fp, [sp, #44]
	str	r2, [fp, #4]
	mov	r2, #0
	str	ip, [fp, #12]
	str	r2, [fp]
	str	r2, [fp, #8]
	stm	r3, {r0, r1}
	ldm	r6, {r0, r1}
	ldr	ip, [sp, #240]
	ldr	r2, [sp, #236]
	add	r3, fp, #36
	str	ip, [fp, #32]
	str	r2, [fp, #28]
	stm	r3, {r0, r1}
	ldm	r4, {r0, r1}
	add	r3, fp, #48
	ldr	r2, [sp, #264]
	ldr	ip, [sp, #252]
	str	fp, [sp, #48]
	str	ip, [fp, #44]
	stm	r3, {r0, r1}
	str	r2, [fp, #56]
	ldr	r0, [r5]
	ldr	r4, [r9, #20]
	bl	pthread_getspecific(PLT)
	subs	r3, r0, #0
	bne	.L2262
	b	.L2098
.L2101:
	ldr	r3, [r3, #8]
	cmp	r3, #0
	beq	.L2098
.L2262:
	ldr	r2, [r3]
	cmp	r4, r2
	bne	.L2101
	ldr	r0, [sp, #100]
	ldr	r4, [r3, #4]
	add	r0, r0, #12
	bl	pthread_mutex_lock(PLT)
	cmp	r4, #0
	beq	.L2103
	ldr	r0, [sp, #100]
	ldrb	r6, [r0, #36]	@ zero_extendqisi2
	cmp	r6, #0
	beq	.L2281
.L2105:
	ldr	r3, [r0, #44]
	mov	r2, #0
	cmp	r3, r2
	str	r2, [fp]
	add	r0, r0, #12
	strne	fp, [r3]
	streq	fp, [r0, #32]
	strne	fp, [r0, #32]
	streq	fp, [r0, #28]
	bl	pthread_mutex_unlock(PLT)
	b	.L2094
.L2087:
	ldr	r3, [sp, #36]
	cmp	r3, #0
	bne	.L2161
	b	.L2084
.L2280:
	mov	r0, fp
	bl	_ZdlPv(PLT)
.L2095:
	mov	r0, #61
.LEHB33:
	bl	_Znwj(PLT)
.LEHE33:
	mov	fp, r0
	mov	r3, #60
	b	.L2274
.L2098:
	ldr	r0, [sp, #100]
	add	r0, r0, #12
	bl	pthread_mutex_lock(PLT)
.L2103:
	ldr	r0, [sp, #100]
	ldrb	r4, [r0, #36]	@ zero_extendqisi2
	cmp	r4, #0
	bne	.L2105
	mov	r3, #1
	strb	r3, [r0, #36]
	add	r0, r0, #12
	bl	pthread_mutex_unlock(PLT)
	ldr	r6, [sp, #100]
	str	r4, [fp]
	ldr	r4, [r9, #20]
	ldr	r3, [r6, #52]
	cmp	r3, #0
	strne	fp, [r3]
	ldrb	r3, [r4, #20]	@ zero_extendqisi2
	strne	fp, [r6, #52]
	streq	fp, [r6, #52]
	streq	fp, [r6, #48]
	cmp	r3, #0
	bne	.L2282
.L2114:
	add	r3, r4, #124
	mcr	p15, 0, r0, c7, c10, 5
.L2269:
	ldrex	r2, [r3]
	add	r2, r2, #1
	strex	r1, r2, [r3]
	cmp	r1, #0
	bne	.L2269
	add	r7, r4, #24
	mcr	p15, 0, r0, c7, c10, 5
	mov	r0, r7
	bl	pthread_mutex_lock(PLT)
	ldr	r3, [r4, #132]
	mov	r2, #0
	cmp	r3, r2
	str	r2, [r6]
	strne	r6, [r3]
	ldr	r3, [r4, #96]
	strne	r6, [r4, #132]
	orr	r3, r3, #1
	streq	r6, [r4, #132]
	streq	r6, [r4, #128]
	cmp	r3, #1
	add	r6, r4, #48
	str	r3, [r4, #96]
	beq	.L2123
	mov	r0, r7
	bl	pthread_mutex_unlock(PLT)
	mov	r0, r6
	bl	pthread_cond_signal(PLT)
	b	.L2094
.L2279:
	ldrb	r2, [r6, #76]	@ zero_extendqisi2
	strb	r2, [r6]
	str	r6, [r3]
	b	.L2084
.L2278:
	ldrb	r2, [r4, #76]	@ zero_extendqisi2
	strb	r2, [r4]
	str	r4, [r3]
	b	.L2086
.L2281:
	mov	r3, #1
	strb	r3, [r0, #36]
	add	r0, r0, #12
	bl	pthread_mutex_unlock(PLT)
	ldr	r8, [sp, #4]
	ldr	r3, [sp, #100]
	ldr	r4, [sp, #48]
	ldr	r0, [r8]
	str	r3, [sp, #52]
	str	r6, [sp, #44]
	str	r6, [sp, #48]
	bl	pthread_getspecific(PLT)
	add	r3, sp, #52
	mov	r1, r3
	str	r3, [sp, #56]
	add	fp, sp, #204
	add	r7, sp, #168
	str	r0, [sp, #60]
	ldr	r0, [r8]
	bl	pthread_setspecific(PLT)
	add	r3, r4, #20
	add	r2, r4, #36
	ldm	r3, {r0, r1}
	add	r3, sp, #176
	ldr	r9, [r9, #20]
	ldr	ip, [r4, #16]
	ldr	lr, [r4, #12]
	stm	r3, {r0, r1}
	ldr	r3, [r4, #28]
	ldm	r2, {r0, r1}
	str	r3, [sp, #184]
	add	r2, r4, #48
	add	r3, sp, #192
	str	ip, [sp, #172]
	str	lr, [sp, #168]
	ldr	ip, [r4, #32]
	stm	r3, {r0, r1}
	ldm	r2, {r0, r1}
	ldr	r3, [r4, #44]
	ldr	r2, [r4, #56]
	str	ip, [sp, #188]
	stm	fp, {r0, r1}
	str	r3, [sp, #200]
	ldr	r3, [sp, #100]
	ldr	r0, [r5]
	str	r9, [sp, #20]
	str	r4, [sp, #68]
	str	r6, [sp, #72]
	str	r7, [sp, #64]
	str	r2, [sp, #212]
	str	r3, [sp, #24]
	bl	pthread_getspecific(PLT)
	cmp	r0, #0
	beq	.L2107
	ldr	r3, [r0, #4]
	cmp	r3, #0
	beq	.L2107
	ldr	r2, [r3]
	cmp	r2, #0
	beq	.L2283
.L2107:
	mov	r0, r4
	bl	_ZdlPv(PLT)
.L2126:
	mov	r3, #0
	cmp	r9, #0
	str	r3, [sp, #68]
	beq	.L2127
	add	r2, sp, #272
	mov	r1, #1
	str	r3, [r2, #-256]!
.L2268:
	ldrex	r0, [r2]
	strex	ip, r1, [r2]
	cmp	ip, #0
	bne	.L2268
	mcr	p15, 0, r0, c7, c10, 5
	mov	r1, fp
	ldr	r2, [sp, #212]
	add	r0, sp, #172
.LEHB34:
	bl	_ZN4asio6detail8write_opINS_19basic_stream_socketINS_2ip3tcpENS_21stream_socket_serviceIS4_EEEENS_15const_buffers_1ENS0_14transfer_all_tENS0_15wrapped_handlerINS_10io_service6strandEZN7asiopal13SocketChannel14BeginWriteImplERKN7openpal6RSliceEEUlRKSt10error_codejE_NS0_26is_continuation_if_runningEEEEclESL_ji(PLT)
.LEHE34:
	mov	r3, #0
	mcr	p15, 0, r0, c7, c10, 5
	str	r3, [sp, #16]
	ldr	r3, [sp, #72]
	ldr	r9, [sp, #68]
	cmp	r3, #0
	beq	.L2128
.L2160:
	mov	r3, #0
	str	r3, [sp, #72]
.L2128:
	cmp	r9, #0
	beq	.L2129
	ldr	r0, [r5]
	bl	pthread_getspecific(PLT)
	cmp	r0, #0
	beq	.L2130
	ldr	r3, [r0, #4]
	cmp	r3, #0
	beq	.L2130
	ldr	r2, [r3]
	cmp	r2, #0
	beq	.L2284
.L2130:
	mov	r0, r9
	bl	_ZdlPv(PLT)
.L2129:
	ldr	r0, [sp, #24]
	add	r0, r0, #12
	bl	pthread_mutex_lock(PLT)
	ldr	r0, [sp, #24]
	ldr	r4, [r0, #40]
	cmp	r4, #0
	ldreq	r4, [r0, #48]
	beq	.L2132
	ldr	r3, [r0, #52]
	cmp	r3, #0
	strne	r4, [r3]
	ldrne	r4, [r0, #48]
	ldr	r2, [r0, #44]
	mov	r3, #0
	streq	r4, [r0, #48]
	str	r2, [r0, #52]
	str	r3, [r0, #40]
	str	r3, [r0, #44]
.L2132:
	adds	r3, r4, #0
	movne	r3, #1
	strb	r3, [r0, #36]
	add	r0, r0, #12
	bl	pthread_mutex_unlock(PLT)
	cmp	r4, #0
	bne	.L2285
.L2137:
	ldr	r3, [sp, #4]
	ldr	r1, [sp, #60]
	ldr	r0, [r3]
	bl	pthread_setspecific(PLT)
	ldr	r3, [sp, #48]
	ldr	r4, [sp, #44]
	cmp	r3, #0
	movne	r3, #0
	strne	r3, [sp, #48]
	cmp	r4, #0
	beq	.L2094
	ldr	r0, [r5]
	bl	pthread_getspecific(PLT)
	cmp	r0, #0
	beq	.L2153
	ldr	r3, [r0, #4]
	cmp	r3, #0
	beq	.L2153
	ldr	r2, [r3]
	cmp	r2, #0
	beq	.L2286
.L2153:
	mov	r0, r4
	bl	_ZdlPv(PLT)
	b	.L2094
.L2285:
	ldr	r4, [sp, #20]
	ldr	r6, [sp, #24]
	ldrb	r3, [r4, #20]	@ zero_extendqisi2
	cmp	r3, #0
	bne	.L2287
.L2138:
	add	r3, r4, #124
	mcr	p15, 0, r0, c7, c10, 5
.L2267:
	ldrex	r2, [r3]
	add	r2, r2, #1
	strex	r1, r2, [r3]
	cmp	r1, #0
	bne	.L2267
	add	r9, r4, #24
	mcr	p15, 0, r0, c7, c10, 5
	mov	r0, r9
	bl	pthread_mutex_lock(PLT)
	ldr	r3, [r4, #132]
	mov	r2, #0
	cmp	r3, r2
	str	r2, [r6]
	strne	r6, [r3]
	ldr	r3, [r4, #96]
	strne	r6, [r4, #132]
	orr	r3, r3, #1
	streq	r6, [r4, #132]
	streq	r6, [r4, #128]
	cmp	r3, #1
	add	r6, r4, #48
	str	r3, [r4, #96]
	beq	.L2147
	mov	r0, r9
	bl	pthread_mutex_unlock(PLT)
	mov	r0, r6
	bl	pthread_cond_signal(PLT)
	b	.L2137
.L2123:
	ldrb	r2, [r4, #120]	@ zero_extendqisi2
	cmp	r2, #0
	bne	.L2125
	ldr	r0, [r4, #104]
	cmp	r0, #0
	beq	.L2125
	strb	r3, [r4, #120]
	add	r3, sp, #168
	add	r1, r0, #48
	mov	ip, #-2147483639
	str	r1, [sp, #176]
	str	r2, [r3, #4]
	str	r2, [r3, #12]
	str	ip, [sp, #168]
	mov	r1, #3
	ldr	r2, [r0, #48]
	ldr	r0, [r0, #56]
	bl	epoll_ctl(PLT)
.L2125:
	mov	r0, r7
	bl	pthread_mutex_unlock(PLT)
	b	.L2094
.L2147:
	ldrb	r2, [r4, #120]	@ zero_extendqisi2
	cmp	r2, #0
	bne	.L2149
	ldr	r0, [r4, #104]
	cmp	r0, #0
	beq	.L2149
	add	r1, r0, #48
	mov	ip, #-2147483639
	strb	r3, [r4, #120]
	str	r1, [sp, #176]
	str	r2, [r7, #4]
	str	r2, [r7, #12]
	str	ip, [sp, #168]
	mov	r3, r7
	ldr	r2, [r0, #48]
	mov	r1, #3
	ldr	r0, [r0, #56]
	bl	epoll_ctl(PLT)
.L2149:
	mov	r0, r9
	bl	pthread_mutex_unlock(PLT)
	b	.L2137
.L2286:
	ldrb	r2, [r4, #60]	@ zero_extendqisi2
	strb	r2, [r4]
	str	r4, [r3]
	b	.L2094
.L2282:
	ldr	r0, [r5]
	bl	pthread_getspecific(PLT)
	cmp	r0, #0
	beq	.L2114
	ldr	r3, [r0]
	cmp	r3, r4
	beq	.L2115
.L2117:
	ldr	r0, [r0, #8]
	cmp	r0, #0
	beq	.L2114
	ldr	r3, [r0]
	cmp	r4, r3
	bne	.L2117
.L2115:
	ldr	r3, [r0, #4]
	cmp	r3, #0
	beq	.L2114
	ldr	r1, [r3, #8]
	ldr	r2, [r3, #12]
	cmp	r1, #0
	add	r2, r2, #1
	mov	r0, #0
	str	r2, [r3, #12]
	str	r0, [r6]
	strne	r6, [r1]
	streq	r6, [r3, #8]
	strne	r6, [r3, #8]
	streq	r6, [r3, #4]
	b	.L2094
.L2287:
	ldr	r0, [r5]
	bl	pthread_getspecific(PLT)
	cmp	r0, #0
	beq	.L2138
	ldr	r3, [r0]
	cmp	r3, r4
	beq	.L2139
.L2141:
	ldr	r0, [r0, #8]
	cmp	r0, #0
	beq	.L2138
	ldr	r3, [r0]
	cmp	r4, r3
	bne	.L2141
.L2139:
	ldr	r3, [r0, #4]
	cmp	r3, #0
	beq	.L2138
	ldr	r1, [r3, #8]
	ldr	r2, [r3, #12]
	cmp	r1, #0
	add	r2, r2, #1
	mov	r0, #0
	str	r2, [r3, #12]
	str	r0, [r6]
	strne	r6, [r1]
	streq	r6, [r3, #8]
	strne	r6, [r3, #8]
	streq	r6, [r3, #4]
	b	.L2137
.L2127:
	ldr	r3, [sp, #72]
	cmp	r3, #0
	bne	.L2160
	b	.L2129
.L2283:
	ldrb	r2, [r4, #60]	@ zero_extendqisi2
	strb	r2, [r4]
	str	r4, [r3]
	b	.L2126
.L2284:
	ldrb	r2, [r9, #60]	@ zero_extendqisi2
	strb	r2, [r9]
	str	r9, [r3]
	b	.L2129
.L2166:
	mov	r3, #0
	mcr	p15, 0, r0, c7, c10, 5
	add	r0, sp, #64
	str	r3, [sp, #16]
	bl	_ZN4asio6detail18completion_handlerINS0_17rewrapped_handlerINS0_7binder2INS0_8write_opINS_19basic_stream_socketINS_2ip3tcpENS_21stream_socket_serviceIS7_EEEENS_15const_buffers_1ENS0_14transfer_all_tENS0_15wrapped_handlerINS_10io_service6strandEZN7asiopal13SocketChannel14BeginWriteImplERKN7openpal6RSliceEEUlRKSt10error_codejE_NS0_26is_continuation_if_runningEEEEESM_jEESP_EEE3ptr5resetEv(PLT)
	add	r0, sp, #20
	bl	_ZN4asio6detail14strand_service16on_dispatch_exitD1Ev(PLT)
	ldr	r3, [sp, #4]
	ldr	r1, [sp, #60]
	ldr	r0, [r3]
	bl	pthread_setspecific(PLT)
	mov	r0, r10
	bl	_ZN4asio6detail18completion_handlerINS0_17rewrapped_handlerINS0_7binder2INS0_8write_opINS_19basic_stream_socketINS_2ip3tcpENS_21stream_socket_serviceIS7_EEEENS_15const_buffers_1ENS0_14transfer_all_tENS0_15wrapped_handlerINS_10io_service6strandEZN7asiopal13SocketChannel14BeginWriteImplERKN7openpal6RSliceEEUlRKSt10error_codejE_NS0_26is_continuation_if_runningEEEEESM_jEESP_EEE3ptr5resetEv(PLT)
.L2134:
	mov	r3, #0
	mcr	p15, 0, r0, c7, c10, 5
	add	r0, sp, #28
	str	r3, [sp, #12]
	bl	_ZN4asio6detail23reactive_socket_send_opINS_15const_buffers_1ENS0_8write_opINS_19basic_stream_socketINS_2ip3tcpENS_21stream_socket_serviceIS6_EEEES2_NS0_14transfer_all_tENS0_15wrapped_handlerINS_10io_service6strandEZN7asiopal13SocketChannel14BeginWriteImplERKN7openpal6RSliceEEUlRKSt10error_codejE_NS0_26is_continuation_if_runningEEEEEE3ptr5resetEv(PLT)
.LEHB35:
	bl	__cxa_end_cleanup(PLT)
.LEHE35:
.L2165:
	mov	r3, #0
	mcr	p15, 0, r0, c7, c10, 5
	str	r3, [sp, #52]
	b	.L2134
.L2164:
	b	.L2134
.L2289:
	.align	2
.L2288:
	.word	_GLOBAL_OFFSET_TABLE_-(.LPIC93+8)
	.word	_ZN4asio6detail10call_stackINS0_15task_io_serviceENS0_27task_io_service_thread_infoEE4top_E(GOT)
	.word	_ZN4asio6detail10call_stackINS0_14strand_service11strand_implEhE4top_E(GOT)
	.word	_ZN4asio6detail18completion_handlerINS0_17rewrapped_handlerINS0_7binder2INS0_8write_opINS_19basic_stream_socketINS_2ip3tcpENS_21stream_socket_serviceIS7_EEEENS_15const_buffers_1ENS0_14transfer_all_tENS0_15wrapped_handlerINS_10io_service6strandEZN7asiopal13SocketChannel14BeginWriteImplERKN7openpal6RSliceEEUlRKSt10error_codejE_NS0_26is_continuation_if_runningEEEEESM_jEESP_EEE11do_completeEPNS0_15task_io_serviceEPNS0_25task_io_service_operationESO_j-(.LPIC94+8)
	.personality	__gxx_personality_v0
	.handlerdata
.LLSDA8787:
	.byte	0xff
	.byte	0xff
	.byte	0x1
	.uleb128 .LLSDACSE8787-.LLSDACSB8787
.LLSDACSB8787:
	.uleb128 .LEHB32-.LFB8787
	.uleb128 .LEHE32-.LEHB32
	.uleb128 .L2165-.LFB8787
	.uleb128 0
	.uleb128 .LEHB33-.LFB8787
	.uleb128 .LEHE33-.LEHB33
	.uleb128 .L2164-.LFB8787
	.uleb128 0
	.uleb128 .LEHB34-.LFB8787
	.uleb128 .LEHE34-.LEHB34
	.uleb128 .L2166-.LFB8787
	.uleb128 0
	.uleb128 .LEHB35-.LFB8787
	.uleb128 .LEHE35-.LEHB35
	.uleb128 0
	.uleb128 0
.LLSDACSE8787:
	.text
	.fnend
	.size	_ZN4asio6detail23reactive_socket_send_opINS_15const_buffers_1ENS0_8write_opINS_19basic_stream_socketINS_2ip3tcpENS_21stream_socket_serviceIS6_EEEES2_NS0_14transfer_all_tENS0_15wrapped_handlerINS_10io_service6strandEZN7asiopal13SocketChannel14BeginWriteImplERKN7openpal6RSliceEEUlRKSt10error_codejE_NS0_26is_continuation_if_runningEEEEEE11do_completeEPNS0_15task_io_serviceEPNS0_25task_io_service_operationESM_j, .-_ZN4asio6detail23reactive_socket_send_opINS_15const_buffers_1ENS0_8write_opINS_19basic_stream_socketINS_2ip3tcpENS_21stream_socket_serviceIS6_EEEES2_NS0_14transfer_all_tENS0_15wrapped_handlerINS_10io_service6strandEZN7asiopal13SocketChannel14BeginWriteImplERKN7openpal6RSliceEEUlRKSt10error_codejE_NS0_26is_continuation_if_runningEEEEEE11do_completeEPNS0_15task_io_serviceEPNS0_25task_io_service_operationESM_j
	.align	2
	.global	_ZN7asiopal13SocketChannelC2ESt10shared_ptrINS_8ExecutorEEN4asio19basic_stream_socketINS4_2ip3tcpENS4_21stream_socket_serviceIS7_EEEE
	.syntax unified
	.arm
	.fpu vfp
	.type	_ZN7asiopal13SocketChannelC2ESt10shared_ptrINS_8ExecutorEEN4asio19basic_stream_socketINS4_2ip3tcpENS4_21stream_socket_serviceIS7_EEEE, %function
_ZN7asiopal13SocketChannelC2ESt10shared_ptrINS_8ExecutorEEN4asio19basic_stream_socketINS4_2ip3tcpENS4_21stream_socket_serviceIS7_EEEE:
	.fnstart
.LFB6784:
	@ args = 0, pretend = 0, frame = 0
	@ frame_needed = 0, uses_anonymous_args = 0
	ldr	ip, .L2298
	push	{r4, r5, r6, lr}
.LPIC95:
	add	ip, pc, ip
	ldr	lr, .L2298+4
	mov	r3, #0
	str	r3, [r0, #4]
	str	r3, [r0, #8]
	ldr	r3, [r1, #4]
	ldr	lr, [ip, lr]
	ldr	r4, [r1]
	cmp	r3, #0
	add	r1, lr, #8
	str	r1, [r0]
	str	r4, [r0, #12]
	str	r3, [r0, #16]
	beq	.L2291
	ldr	r1, .L2298+8
	ldr	r1, [ip, r1]
	cmp	r1, #0
	beq	.L2292
	add	r3, r3, #28
	mcr	p15, 0, r0, c7, c10, 5
.L2296:
	ldrex	r1, [r3]
	add	r1, r1, #1
	strex	lr, r1, [r3]
	cmp	lr, #0
	bne	.L2296
	mcr	p15, 0, r0, c7, c10, 5
.L2291:
	ldr	r1, .L2298+12
	mov	r3, #0
	str	r3, [r0, #20]
	str	r3, [r0, #24]
	strb	r3, [r0, #28]
	strb	r3, [r0, #29]
	strb	r3, [r0, #30]
	ldr	r1, [ip, r1]
	ldrb	r6, [r2, #4]	@ zero_extendqisi2
	ldr	r5, [r2, #8]
	ldr	lr, [r2]
	ldr	ip, [r2, #12]
	ldr	r4, [r2, #16]
	add	r1, r1, #8
	str	r1, [r0]
	strb	r3, [r2, #4]
	mvn	r1, #0
	str	r3, [r2, #8]
	mov	r3, #2
	strb	r6, [r0, #36]
	str	r5, [r0, #40]
	str	r4, [r0, #48]
	str	lr, [r0, #32]
	str	ip, [r0, #44]
	str	r1, [r2]
	str	r3, [r2, #12]
	pop	{r4, r5, r6, pc}
.L2292:
	ldr	r1, [r3, #28]
	add	r1, r1, #1
	str	r1, [r3, #28]
	b	.L2291
.L2299:
	.align	2
.L2298:
	.word	_GLOBAL_OFFSET_TABLE_-(.LPIC95+8)
	.word	_ZTVN7asiopal13IAsyncChannelE(GOT)
	.word	_ZL28__gthrw___pthread_key_createPjPFvPvE(GOT)
	.word	_ZTVN7asiopal13SocketChannelE(GOT)
	.cantunwind
	.fnend
	.size	_ZN7asiopal13SocketChannelC2ESt10shared_ptrINS_8ExecutorEEN4asio19basic_stream_socketINS4_2ip3tcpENS4_21stream_socket_serviceIS7_EEEE, .-_ZN7asiopal13SocketChannelC2ESt10shared_ptrINS_8ExecutorEEN4asio19basic_stream_socketINS4_2ip3tcpENS4_21stream_socket_serviceIS7_EEEE
	.global	_ZN7asiopal13SocketChannelC1ESt10shared_ptrINS_8ExecutorEEN4asio19basic_stream_socketINS4_2ip3tcpENS4_21stream_socket_serviceIS7_EEEE
	.set	_ZN7asiopal13SocketChannelC1ESt10shared_ptrINS_8ExecutorEEN4asio19basic_stream_socketINS4_2ip3tcpENS4_21stream_socket_serviceIS7_EEEE,_ZN7asiopal13SocketChannelC2ESt10shared_ptrINS_8ExecutorEEN4asio19basic_stream_socketINS4_2ip3tcpENS4_21stream_socket_serviceIS7_EEEE
	.section	.text.startup,"ax",%progbits
	.align	2
	.syntax unified
	.arm
	.fpu vfp
	.type	_GLOBAL__sub_I_SocketChannel.cpp, %function
_GLOBAL__sub_I_SocketChannel.cpp:
	.fnstart
.LFB9191:
	@ args = 0, pretend = 0, frame = 0
	@ frame_needed = 0, uses_anonymous_args = 0
	push	{r4, r5, r6, lr}
	bl	_ZN4asio15system_categoryEv(PLT)
	ldr	r4, .L2332
	ldr	r3, .L2332+4
.LPIC96:
	add	r4, pc, r4
	ldr	r5, [r4, r3]
	ldrb	r3, [r5]	@ zero_extendqisi2
	mcr	p15, 0, r0, c7, c10, 5
	tst	r3, #1
	beq	.L2325
.L2302:
	ldr	r3, .L2332+8
	ldr	r5, [r4, r3]
	ldrb	r3, [r5]	@ zero_extendqisi2
	mcr	p15, 0, r0, c7, c10, 5
	tst	r3, #1
	beq	.L2326
.L2305:
	ldr	r3, .L2332+12
	ldr	r5, [r4, r3]
	ldrb	r3, [r5]	@ zero_extendqisi2
	mcr	p15, 0, r0, c7, c10, 5
	tst	r3, #1
	beq	.L2327
.L2308:
	ldr	r3, .L2332+16
	ldr	r3, [r4, r3]
	ldr	r2, [r3]
	tst	r2, #1
	beq	.L2328
.L2310:
	ldr	r3, .L2332+20
	ldr	r3, [r4, r3]
	ldr	r2, [r3]
	tst	r2, #1
	beq	.L2329
.L2311:
	ldr	r3, .L2332+24
	ldr	r3, [r4, r3]
	ldr	r2, [r3]
	tst	r2, #1
	beq	.L2330
.L2312:
	ldr	r3, .L2332+28
	ldr	r3, [r4, r3]
	ldr	r2, [r3]
	tst	r2, #1
	beq	.L2331
.L2313:
	ldr	r3, .L2332+32
	ldr	r3, [r4, r3]
	ldr	r2, [r3]
	tst	r2, #1
	popne	{r4, r5, r6, pc}
	ldr	r2, .L2332+36
	mov	r0, #1
	ldr	r1, .L2332+40
	str	r0, [r3]
	ldr	r0, [r4, r2]
	ldr	r2, .L2332+44
	ldr	r1, [r4, r1]
.LPIC104:
	add	r2, pc, r2
	pop	{r4, r5, r6, lr}
	b	__aeabi_atexit(PLT)
.L2327:
	mov	r0, r5
	bl	__cxa_guard_acquire(PLT)
	cmp	r0, #0
	beq	.L2308
	mov	r0, r5
	bl	__cxa_guard_release(PLT)
	ldr	r3, .L2332+48
	ldr	r1, .L2332+52
	ldr	r2, .L2332+56
	ldr	r0, [r4, r3]
.LPIC99:
	add	r2, pc, r2
	ldr	r1, [r4, r1]
	bl	__aeabi_atexit(PLT)
	b	.L2308
.L2326:
	mov	r0, r5
	bl	__cxa_guard_acquire(PLT)
	cmp	r0, #0
	beq	.L2305
	mov	r0, r5
	bl	__cxa_guard_release(PLT)
	ldr	r3, .L2332+60
	ldr	r1, .L2332+64
	ldr	r2, .L2332+68
	ldr	r0, [r4, r3]
.LPIC98:
	add	r2, pc, r2
	ldr	r1, [r4, r1]
	bl	__aeabi_atexit(PLT)
	b	.L2305
.L2325:
	mov	r0, r5
	bl	__cxa_guard_acquire(PLT)
	cmp	r0, #0
	beq	.L2302
	mov	r0, r5
	bl	__cxa_guard_release(PLT)
	ldr	r3, .L2332+72
	ldr	r1, .L2332+76
	ldr	r2, .L2332+80
	ldr	r0, [r4, r3]
.LPIC97:
	add	r2, pc, r2
	ldr	r1, [r4, r1]
	bl	__aeabi_atexit(PLT)
	b	.L2302
.L2330:
	ldr	r2, .L2332+84
	mov	r0, #1
	ldr	r1, .L2332+88
	str	r0, [r3]
	ldr	r0, [r4, r2]
	ldr	r2, .L2332+92
	ldr	r1, [r4, r1]
.LPIC102:
	add	r2, pc, r2
	bl	__aeabi_atexit(PLT)
	b	.L2312
.L2329:
	ldr	r2, .L2332+96
	mov	r0, #1
	ldr	r1, .L2332+100
	str	r0, [r3]
	ldr	r0, [r4, r2]
	ldr	r2, .L2332+104
	ldr	r1, [r4, r1]
.LPIC101:
	add	r2, pc, r2
	bl	__aeabi_atexit(PLT)
	b	.L2311
.L2331:
	ldr	r2, .L2332+108
	mov	r1, #1
	str	r1, [r3]
	ldr	r5, [r4, r2]
	mov	r0, r5
	bl	_ZN4asio6detail20posix_tss_ptr_createERj(PLT)
	ldr	r3, .L2332+112
	ldr	r2, .L2332+116
	mov	r0, r5
.LPIC103:
	add	r2, pc, r2
	ldr	r1, [r4, r3]
	bl	__aeabi_atexit(PLT)
	b	.L2313
.L2328:
	ldr	r2, .L2332+120
	mov	r1, #1
	str	r1, [r3]
	ldr	r5, [r4, r2]
	mov	r0, r5
	bl	_ZN4asio6detail20posix_tss_ptr_createERj(PLT)
	ldr	r3, .L2332+124
	ldr	r2, .L2332+128
	mov	r0, r5
.LPIC100:
	add	r2, pc, r2
	ldr	r1, [r4, r3]
	bl	__aeabi_atexit(PLT)
	b	.L2310
.L2333:
	.align	2
.L2332:
	.word	_GLOBAL_OFFSET_TABLE_-(.LPIC96+8)
	.word	_ZGVZN4asio5error18get_netdb_categoryEvE8instance(GOT)
	.word	_ZGVZN4asio5error21get_addrinfo_categoryEvE8instance(GOT)
	.word	_ZGVZN4asio5error17get_misc_categoryEvE8instance(GOT)
	.word	_ZGVN4asio6detail10call_stackINS0_15task_io_serviceENS0_27task_io_service_thread_infoEE4top_E(GOT)
	.word	_ZGVN4asio6detail12service_baseINS0_13epoll_reactorEE2idE(GOT)
	.word	_ZGVN4asio6detail12service_baseINS0_15task_io_serviceEE2idE(GOT)
	.word	_ZGVN4asio6detail10call_stackINS0_14strand_service11strand_implEhE4top_E(GOT)
	.word	_ZGVN4asio6detail12service_baseINS0_14strand_serviceEE2idE(GOT)
	.word	_ZN4asio6detail12service_baseINS0_14strand_serviceEE2idE(GOT)
	.word	_ZN4asio6detail10service_idINS0_14strand_serviceEED1Ev(GOT)
	.word	__dso_handle-(.LPIC104+8)
	.word	_ZZN4asio5error17get_misc_categoryEvE8instance(GOT)
	.word	_ZN4asio5error6detail13misc_categoryD1Ev(GOT)
	.word	__dso_handle-(.LPIC99+8)
	.word	_ZZN4asio5error21get_addrinfo_categoryEvE8instance(GOT)
	.word	_ZN4asio5error6detail17addrinfo_categoryD1Ev(GOT)
	.word	__dso_handle-(.LPIC98+8)
	.word	_ZZN4asio5error18get_netdb_categoryEvE8instance(GOT)
	.word	_ZN4asio5error6detail14netdb_categoryD1Ev(GOT)
	.word	__dso_handle-(.LPIC97+8)
	.word	_ZN4asio6detail12service_baseINS0_15task_io_serviceEE2idE(GOT)
	.word	_ZN4asio6detail10service_idINS0_15task_io_serviceEED1Ev(GOT)
	.word	__dso_handle-(.LPIC102+8)
	.word	_ZN4asio6detail12service_baseINS0_13epoll_reactorEE2idE(GOT)
	.word	_ZN4asio6detail10service_idINS0_13epoll_reactorEED1Ev(GOT)
	.word	__dso_handle-(.LPIC101+8)
	.word	_ZN4asio6detail10call_stackINS0_14strand_service11strand_implEhE4top_E(GOT)
	.word	_ZN4asio6detail7tss_ptrINS0_10call_stackINS0_14strand_service11strand_implEhE7contextEED1Ev(GOT)
	.word	__dso_handle-(.LPIC103+8)
	.word	_ZN4asio6detail10call_stackINS0_15task_io_serviceENS0_27task_io_service_thread_infoEE4top_E(GOT)
	.word	_ZN4asio6detail7tss_ptrINS0_10call_stackINS0_15task_io_serviceENS0_27task_io_service_thread_infoEE7contextEED1Ev(GOT)
	.word	__dso_handle-(.LPIC100+8)
	.cantunwind
	.fnend
	.size	_GLOBAL__sub_I_SocketChannel.cpp, .-_GLOBAL__sub_I_SocketChannel.cpp
	.section	.init_array,"aw"
	.align	2
	.word	_GLOBAL__sub_I_SocketChannel.cpp
	.weak	_ZTSN7openpal10UncopyableE
	.section	.rodata._ZTSN7openpal10UncopyableE,"aG",%progbits,_ZTSN7openpal10UncopyableE,comdat
	.align	2
	.type	_ZTSN7openpal10UncopyableE, %object
	.size	_ZTSN7openpal10UncopyableE, 23
_ZTSN7openpal10UncopyableE:
	.ascii	"N7openpal10UncopyableE\000"
	.weak	_ZTIN7openpal10UncopyableE
	.section	.data.rel.ro._ZTIN7openpal10UncopyableE,"awG",%progbits,_ZTIN7openpal10UncopyableE,comdat
	.align	2
	.type	_ZTIN7openpal10UncopyableE, %object
	.size	_ZTIN7openpal10UncopyableE, 8
_ZTIN7openpal10UncopyableE:
	.word	_ZTVN10__cxxabiv117__class_type_infoE+8
	.word	_ZTSN7openpal10UncopyableE
	.weak	_ZTSSt23enable_shared_from_thisIN7asiopal13IAsyncChannelEE
	.section	.rodata._ZTSSt23enable_shared_from_thisIN7asiopal13IAsyncChannelEE,"aG",%progbits,_ZTSSt23enable_shared_from_thisIN7asiopal13IAsyncChannelEE,comdat
	.align	2
	.type	_ZTSSt23enable_shared_from_thisIN7asiopal13IAsyncChannelEE, %object
	.size	_ZTSSt23enable_shared_from_thisIN7asiopal13IAsyncChannelEE, 55
_ZTSSt23enable_shared_from_thisIN7asiopal13IAsyncChannelEE:
	.ascii	"St23enable_shared_from_thisIN7asiopal13IAsyncChanne"
	.ascii	"lEE\000"
	.weak	_ZTISt23enable_shared_from_thisIN7asiopal13IAsyncChannelEE
	.section	.data.rel.ro._ZTISt23enable_shared_from_thisIN7asiopal13IAsyncChannelEE,"awG",%progbits,_ZTISt23enable_shared_from_thisIN7asiopal13IAsyncChannelEE,comdat
	.align	2
	.type	_ZTISt23enable_shared_from_thisIN7asiopal13IAsyncChannelEE, %object
	.size	_ZTISt23enable_shared_from_thisIN7asiopal13IAsyncChannelEE, 8
_ZTISt23enable_shared_from_thisIN7asiopal13IAsyncChannelEE:
	.word	_ZTVN10__cxxabiv117__class_type_infoE+8
	.word	_ZTSSt23enable_shared_from_thisIN7asiopal13IAsyncChannelEE
	.weak	_ZGVN4asio6detail12service_baseINS0_14strand_serviceEE2idE
	.section	.bss._ZGVN4asio6detail12service_baseINS0_14strand_serviceEE2idE,"awG",%nobits,_ZGVN4asio6detail12service_baseINS0_14strand_serviceEE2idE,comdat
	.align	2
	.type	_ZGVN4asio6detail12service_baseINS0_14strand_serviceEE2idE, %gnu_unique_object
	.size	_ZGVN4asio6detail12service_baseINS0_14strand_serviceEE2idE, 4
_ZGVN4asio6detail12service_baseINS0_14strand_serviceEE2idE:
	.space	4
	.weak	_ZGVN4asio6detail10call_stackINS0_14strand_service11strand_implEhE4top_E
	.section	.bss._ZGVN4asio6detail10call_stackINS0_14strand_service11strand_implEhE4top_E,"awG",%nobits,_ZGVN4asio6detail10call_stackINS0_14strand_service11strand_implEhE4top_E,comdat
	.align	2
	.type	_ZGVN4asio6detail10call_stackINS0_14strand_service11strand_implEhE4top_E, %gnu_unique_object
	.size	_ZGVN4asio6detail10call_stackINS0_14strand_service11strand_implEhE4top_E, 4
_ZGVN4asio6detail10call_stackINS0_14strand_service11strand_implEhE4top_E:
	.space	4
	.weak	_ZGVN4asio6detail12service_baseINS0_15task_io_serviceEE2idE
	.section	.bss._ZGVN4asio6detail12service_baseINS0_15task_io_serviceEE2idE,"awG",%nobits,_ZGVN4asio6detail12service_baseINS0_15task_io_serviceEE2idE,comdat
	.align	2
	.type	_ZGVN4asio6detail12service_baseINS0_15task_io_serviceEE2idE, %gnu_unique_object
	.size	_ZGVN4asio6detail12service_baseINS0_15task_io_serviceEE2idE, 4
_ZGVN4asio6detail12service_baseINS0_15task_io_serviceEE2idE:
	.space	4
	.weak	_ZGVN4asio6detail12service_baseINS0_13epoll_reactorEE2idE
	.section	.bss._ZGVN4asio6detail12service_baseINS0_13epoll_reactorEE2idE,"awG",%nobits,_ZGVN4asio6detail12service_baseINS0_13epoll_reactorEE2idE,comdat
	.align	2
	.type	_ZGVN4asio6detail12service_baseINS0_13epoll_reactorEE2idE, %gnu_unique_object
	.size	_ZGVN4asio6detail12service_baseINS0_13epoll_reactorEE2idE, 4
_ZGVN4asio6detail12service_baseINS0_13epoll_reactorEE2idE:
	.space	4
	.weak	_ZGVN4asio6detail10call_stackINS0_15task_io_serviceENS0_27task_io_service_thread_infoEE4top_E
	.section	.bss._ZGVN4asio6detail10call_stackINS0_15task_io_serviceENS0_27task_io_service_thread_infoEE4top_E,"awG",%nobits,_ZGVN4asio6detail10call_stackINS0_15task_io_serviceENS0_27task_io_service_thread_infoEE4top_E,comdat
	.align	2
	.type	_ZGVN4asio6detail10call_stackINS0_15task_io_serviceENS0_27task_io_service_thread_infoEE4top_E, %gnu_unique_object
	.size	_ZGVN4asio6detail10call_stackINS0_15task_io_serviceENS0_27task_io_service_thread_infoEE4top_E, 4
_ZGVN4asio6detail10call_stackINS0_15task_io_serviceENS0_27task_io_service_thread_infoEE4top_E:
	.space	4
	.weak	_ZN4asio6detail12service_baseINS0_14strand_serviceEE2idE
	.section	.bss._ZN4asio6detail12service_baseINS0_14strand_serviceEE2idE,"awG",%nobits,_ZN4asio6detail12service_baseINS0_14strand_serviceEE2idE,comdat
	.align	2
	.type	_ZN4asio6detail12service_baseINS0_14strand_serviceEE2idE, %gnu_unique_object
	.size	_ZN4asio6detail12service_baseINS0_14strand_serviceEE2idE, 1
_ZN4asio6detail12service_baseINS0_14strand_serviceEE2idE:
	.space	1
	.weak	_ZN4asio6detail10call_stackINS0_14strand_service11strand_implEhE4top_E
	.section	.bss._ZN4asio6detail10call_stackINS0_14strand_service11strand_implEhE4top_E,"awG",%nobits,_ZN4asio6detail10call_stackINS0_14strand_service11strand_implEhE4top_E,comdat
	.align	2
	.type	_ZN4asio6detail10call_stackINS0_14strand_service11strand_implEhE4top_E, %gnu_unique_object
	.size	_ZN4asio6detail10call_stackINS0_14strand_service11strand_implEhE4top_E, 4
_ZN4asio6detail10call_stackINS0_14strand_service11strand_implEhE4top_E:
	.space	4
	.weak	_ZN4asio6detail12service_baseINS0_15task_io_serviceEE2idE
	.section	.bss._ZN4asio6detail12service_baseINS0_15task_io_serviceEE2idE,"awG",%nobits,_ZN4asio6detail12service_baseINS0_15task_io_serviceEE2idE,comdat
	.align	2
	.type	_ZN4asio6detail12service_baseINS0_15task_io_serviceEE2idE, %gnu_unique_object
	.size	_ZN4asio6detail12service_baseINS0_15task_io_serviceEE2idE, 1
_ZN4asio6detail12service_baseINS0_15task_io_serviceEE2idE:
	.space	1
	.weak	_ZN4asio6detail12service_baseINS0_13epoll_reactorEE2idE
	.section	.bss._ZN4asio6detail12service_baseINS0_13epoll_reactorEE2idE,"awG",%nobits,_ZN4asio6detail12service_baseINS0_13epoll_reactorEE2idE,comdat
	.align	2
	.type	_ZN4asio6detail12service_baseINS0_13epoll_reactorEE2idE, %gnu_unique_object
	.size	_ZN4asio6detail12service_baseINS0_13epoll_reactorEE2idE, 1
_ZN4asio6detail12service_baseINS0_13epoll_reactorEE2idE:
	.space	1
	.weak	_ZN4asio6detail10call_stackINS0_15task_io_serviceENS0_27task_io_service_thread_infoEE4top_E
	.section	.bss._ZN4asio6detail10call_stackINS0_15task_io_serviceENS0_27task_io_service_thread_infoEE4top_E,"awG",%nobits,_ZN4asio6detail10call_stackINS0_15task_io_serviceENS0_27task_io_service_thread_infoEE4top_E,comdat
	.align	2
	.type	_ZN4asio6detail10call_stackINS0_15task_io_serviceENS0_27task_io_service_thread_infoEE4top_E, %gnu_unique_object
	.size	_ZN4asio6detail10call_stackINS0_15task_io_serviceENS0_27task_io_service_thread_infoEE4top_E, 4
_ZN4asio6detail10call_stackINS0_15task_io_serviceENS0_27task_io_service_thread_infoEE4top_E:
	.space	4
	.weak	_ZTSN4asio6detail15system_categoryE
	.section	.rodata._ZTSN4asio6detail15system_categoryE,"aG",%progbits,_ZTSN4asio6detail15system_categoryE,comdat
	.align	2
	.type	_ZTSN4asio6detail15system_categoryE, %object
	.size	_ZTSN4asio6detail15system_categoryE, 32
_ZTSN4asio6detail15system_categoryE:
	.ascii	"N4asio6detail15system_categoryE\000"
	.weak	_ZTIN4asio6detail15system_categoryE
	.section	.data.rel.ro._ZTIN4asio6detail15system_categoryE,"awG",%progbits,_ZTIN4asio6detail15system_categoryE,comdat
	.align	2
	.type	_ZTIN4asio6detail15system_categoryE, %object
	.size	_ZTIN4asio6detail15system_categoryE, 12
_ZTIN4asio6detail15system_categoryE:
	.word	_ZTVN10__cxxabiv120__si_class_type_infoE+8
	.word	_ZTSN4asio6detail15system_categoryE
	.word	_ZTINSt3_V214error_categoryE
	.weak	_ZTSN4asio5error6detail14netdb_categoryE
	.section	.rodata._ZTSN4asio5error6detail14netdb_categoryE,"aG",%progbits,_ZTSN4asio5error6detail14netdb_categoryE,comdat
	.align	2
	.type	_ZTSN4asio5error6detail14netdb_categoryE, %object
	.size	_ZTSN4asio5error6detail14netdb_categoryE, 37
_ZTSN4asio5error6detail14netdb_categoryE:
	.ascii	"N4asio5error6detail14netdb_categoryE\000"
	.weak	_ZTIN4asio5error6detail14netdb_categoryE
	.section	.data.rel.ro._ZTIN4asio5error6detail14netdb_categoryE,"awG",%progbits,_ZTIN4asio5error6detail14netdb_categoryE,comdat
	.align	2
	.type	_ZTIN4asio5error6detail14netdb_categoryE, %object
	.size	_ZTIN4asio5error6detail14netdb_categoryE, 12
_ZTIN4asio5error6detail14netdb_categoryE:
	.word	_ZTVN10__cxxabiv120__si_class_type_infoE+8
	.word	_ZTSN4asio5error6detail14netdb_categoryE
	.word	_ZTINSt3_V214error_categoryE
	.weak	_ZTSN4asio5error6detail17addrinfo_categoryE
	.section	.rodata._ZTSN4asio5error6detail17addrinfo_categoryE,"aG",%progbits,_ZTSN4asio5error6detail17addrinfo_categoryE,comdat
	.align	2
	.type	_ZTSN4asio5error6detail17addrinfo_categoryE, %object
	.size	_ZTSN4asio5error6detail17addrinfo_categoryE, 40
_ZTSN4asio5error6detail17addrinfo_categoryE:
	.ascii	"N4asio5error6detail17addrinfo_categoryE\000"
	.weak	_ZTIN4asio5error6detail17addrinfo_categoryE
	.section	.data.rel.ro._ZTIN4asio5error6detail17addrinfo_categoryE,"awG",%progbits,_ZTIN4asio5error6detail17addrinfo_categoryE,comdat
	.align	2
	.type	_ZTIN4asio5error6detail17addrinfo_categoryE, %object
	.size	_ZTIN4asio5error6detail17addrinfo_categoryE, 12
_ZTIN4asio5error6detail17addrinfo_categoryE:
	.word	_ZTVN10__cxxabiv120__si_class_type_infoE+8
	.word	_ZTSN4asio5error6detail17addrinfo_categoryE
	.word	_ZTINSt3_V214error_categoryE
	.weak	_ZTSN4asio5error6detail13misc_categoryE
	.section	.rodata._ZTSN4asio5error6detail13misc_categoryE,"aG",%progbits,_ZTSN4asio5error6detail13misc_categoryE,comdat
	.align	2
	.type	_ZTSN4asio5error6detail13misc_categoryE, %object
	.size	_ZTSN4asio5error6detail13misc_categoryE, 36
_ZTSN4asio5error6detail13misc_categoryE:
	.ascii	"N4asio5error6detail13misc_categoryE\000"
	.weak	_ZTIN4asio5error6detail13misc_categoryE
	.section	.data.rel.ro._ZTIN4asio5error6detail13misc_categoryE,"awG",%progbits,_ZTIN4asio5error6detail13misc_categoryE,comdat
	.align	2
	.type	_ZTIN4asio5error6detail13misc_categoryE, %object
	.size	_ZTIN4asio5error6detail13misc_categoryE, 12
_ZTIN4asio5error6detail13misc_categoryE:
	.word	_ZTVN10__cxxabiv120__si_class_type_infoE+8
	.word	_ZTSN4asio5error6detail13misc_categoryE
	.word	_ZTINSt3_V214error_categoryE
	.weak	_ZTSN7asiopal13IAsyncChannelE
	.section	.rodata._ZTSN7asiopal13IAsyncChannelE,"aG",%progbits,_ZTSN7asiopal13IAsyncChannelE,comdat
	.align	2
	.type	_ZTSN7asiopal13IAsyncChannelE, %object
	.size	_ZTSN7asiopal13IAsyncChannelE, 26
_ZTSN7asiopal13IAsyncChannelE:
	.ascii	"N7asiopal13IAsyncChannelE\000"
	.weak	_ZTIN7asiopal13IAsyncChannelE
	.section	.data.rel.ro._ZTIN7asiopal13IAsyncChannelE,"awG",%progbits,_ZTIN7asiopal13IAsyncChannelE,comdat
	.align	2
	.type	_ZTIN7asiopal13IAsyncChannelE, %object
	.size	_ZTIN7asiopal13IAsyncChannelE, 32
_ZTIN7asiopal13IAsyncChannelE:
	.word	_ZTVN10__cxxabiv121__vmi_class_type_infoE+8
	.word	_ZTSN7asiopal13IAsyncChannelE
	.word	0
	.word	2
	.word	_ZTISt23enable_shared_from_thisIN7asiopal13IAsyncChannelEE
	.word	1026
	.word	_ZTIN7openpal10UncopyableE
	.word	0
	.global	_ZTSN7asiopal13SocketChannelE
	.global	_ZTIN7asiopal13SocketChannelE
	.weak	_ZTVN4asio6detail15system_categoryE
	.section	.data.rel.ro._ZTVN4asio6detail15system_categoryE,"awG",%progbits,_ZTVN4asio6detail15system_categoryE,comdat
	.align	2
	.type	_ZTVN4asio6detail15system_categoryE, %object
	.size	_ZTVN4asio6detail15system_categoryE, 40
_ZTVN4asio6detail15system_categoryE:
	.word	0
	.word	_ZTIN4asio6detail15system_categoryE
	.word	_ZN4asio6detail15system_categoryD1Ev
	.word	_ZN4asio6detail15system_categoryD0Ev
	.word	_ZNK4asio6detail15system_category4nameEv
	.word	_ZNKSt3_V214error_category10_M_messageB5cxx11Ei
	.word	_ZNK4asio6detail15system_category7messageB5cxx11Ei
	.word	_ZNKSt3_V214error_category23default_error_conditionEi
	.word	_ZNKSt3_V214error_category10equivalentEiRKSt15error_condition
	.word	_ZNKSt3_V214error_category10equivalentERKSt10error_codei
	.weak	_ZTVN4asio5error6detail14netdb_categoryE
	.section	.data.rel.ro._ZTVN4asio5error6detail14netdb_categoryE,"awG",%progbits,_ZTVN4asio5error6detail14netdb_categoryE,comdat
	.align	2
	.type	_ZTVN4asio5error6detail14netdb_categoryE, %object
	.size	_ZTVN4asio5error6detail14netdb_categoryE, 40
_ZTVN4asio5error6detail14netdb_categoryE:
	.word	0
	.word	_ZTIN4asio5error6detail14netdb_categoryE
	.word	_ZN4asio5error6detail14netdb_categoryD1Ev
	.word	_ZN4asio5error6detail14netdb_categoryD0Ev
	.word	_ZNK4asio5error6detail14netdb_category4nameEv
	.word	_ZNKSt3_V214error_category10_M_messageB5cxx11Ei
	.word	_ZNK4asio5error6detail14netdb_category7messageB5cxx11Ei
	.word	_ZNKSt3_V214error_category23default_error_conditionEi
	.word	_ZNKSt3_V214error_category10equivalentEiRKSt15error_condition
	.word	_ZNKSt3_V214error_category10equivalentERKSt10error_codei
	.weak	_ZTVN4asio5error6detail17addrinfo_categoryE
	.section	.data.rel.ro._ZTVN4asio5error6detail17addrinfo_categoryE,"awG",%progbits,_ZTVN4asio5error6detail17addrinfo_categoryE,comdat
	.align	2
	.type	_ZTVN4asio5error6detail17addrinfo_categoryE, %object
	.size	_ZTVN4asio5error6detail17addrinfo_categoryE, 40
_ZTVN4asio5error6detail17addrinfo_categoryE:
	.word	0
	.word	_ZTIN4asio5error6detail17addrinfo_categoryE
	.word	_ZN4asio5error6detail17addrinfo_categoryD1Ev
	.word	_ZN4asio5error6detail17addrinfo_categoryD0Ev
	.word	_ZNK4asio5error6detail17addrinfo_category4nameEv
	.word	_ZNKSt3_V214error_category10_M_messageB5cxx11Ei
	.word	_ZNK4asio5error6detail17addrinfo_category7messageB5cxx11Ei
	.word	_ZNKSt3_V214error_category23default_error_conditionEi
	.word	_ZNKSt3_V214error_category10equivalentEiRKSt15error_condition
	.word	_ZNKSt3_V214error_category10equivalentERKSt10error_codei
	.weak	_ZTVN4asio5error6detail13misc_categoryE
	.section	.data.rel.ro._ZTVN4asio5error6detail13misc_categoryE,"awG",%progbits,_ZTVN4asio5error6detail13misc_categoryE,comdat
	.align	2
	.type	_ZTVN4asio5error6detail13misc_categoryE, %object
	.size	_ZTVN4asio5error6detail13misc_categoryE, 40
_ZTVN4asio5error6detail13misc_categoryE:
	.word	0
	.word	_ZTIN4asio5error6detail13misc_categoryE
	.word	_ZN4asio5error6detail13misc_categoryD1Ev
	.word	_ZN4asio5error6detail13misc_categoryD0Ev
	.word	_ZNK4asio5error6detail13misc_category4nameEv
	.word	_ZNKSt3_V214error_category10_M_messageB5cxx11Ei
	.word	_ZNK4asio5error6detail13misc_category7messageB5cxx11Ei
	.word	_ZNKSt3_V214error_category23default_error_conditionEi
	.word	_ZNKSt3_V214error_category10equivalentEiRKSt15error_condition
	.word	_ZNKSt3_V214error_category10equivalentERKSt10error_codei
	.weak	_ZTVN7asiopal13IAsyncChannelE
	.section	.data.rel.ro._ZTVN7asiopal13IAsyncChannelE,"awG",%progbits,_ZTVN7asiopal13IAsyncChannelE,comdat
	.align	2
	.type	_ZTVN7asiopal13IAsyncChannelE, %object
	.size	_ZTVN7asiopal13IAsyncChannelE, 28
_ZTVN7asiopal13IAsyncChannelE:
	.word	0
	.word	_ZTIN7asiopal13IAsyncChannelE
	.word	0
	.word	0
	.word	__cxa_pure_virtual
	.word	__cxa_pure_virtual
	.word	__cxa_pure_virtual
	.global	_ZTVN7asiopal13SocketChannelE
	.weak	_ZGVZN4asio5error17get_misc_categoryEvE8instance
	.section	.bss._ZGVZN4asio5error17get_misc_categoryEvE8instance,"awG",%nobits,_ZGVZN4asio5error17get_misc_categoryEvE8instance,comdat
	.align	2
	.type	_ZGVZN4asio5error17get_misc_categoryEvE8instance, %gnu_unique_object
	.size	_ZGVZN4asio5error17get_misc_categoryEvE8instance, 4
_ZGVZN4asio5error17get_misc_categoryEvE8instance:
	.space	4
	.weak	_ZZN4asio5error17get_misc_categoryEvE8instance
	.section	.data.rel._ZZN4asio5error17get_misc_categoryEvE8instance,"awG",%progbits,_ZZN4asio5error17get_misc_categoryEvE8instance,comdat
	.align	2
	.type	_ZZN4asio5error17get_misc_categoryEvE8instance, %gnu_unique_object
	.size	_ZZN4asio5error17get_misc_categoryEvE8instance, 4
_ZZN4asio5error17get_misc_categoryEvE8instance:
	.word	_ZTVN4asio5error6detail13misc_categoryE+8
	.weak	_ZGVZN4asio5error21get_addrinfo_categoryEvE8instance
	.section	.bss._ZGVZN4asio5error21get_addrinfo_categoryEvE8instance,"awG",%nobits,_ZGVZN4asio5error21get_addrinfo_categoryEvE8instance,comdat
	.align	2
	.type	_ZGVZN4asio5error21get_addrinfo_categoryEvE8instance, %gnu_unique_object
	.size	_ZGVZN4asio5error21get_addrinfo_categoryEvE8instance, 4
_ZGVZN4asio5error21get_addrinfo_categoryEvE8instance:
	.space	4
	.weak	_ZZN4asio5error21get_addrinfo_categoryEvE8instance
	.section	.data.rel._ZZN4asio5error21get_addrinfo_categoryEvE8instance,"awG",%progbits,_ZZN4asio5error21get_addrinfo_categoryEvE8instance,comdat
	.align	2
	.type	_ZZN4asio5error21get_addrinfo_categoryEvE8instance, %gnu_unique_object
	.size	_ZZN4asio5error21get_addrinfo_categoryEvE8instance, 4
_ZZN4asio5error21get_addrinfo_categoryEvE8instance:
	.word	_ZTVN4asio5error6detail17addrinfo_categoryE+8
	.weak	_ZGVZN4asio5error18get_netdb_categoryEvE8instance
	.section	.bss._ZGVZN4asio5error18get_netdb_categoryEvE8instance,"awG",%nobits,_ZGVZN4asio5error18get_netdb_categoryEvE8instance,comdat
	.align	2
	.type	_ZGVZN4asio5error18get_netdb_categoryEvE8instance, %gnu_unique_object
	.size	_ZGVZN4asio5error18get_netdb_categoryEvE8instance, 4
_ZGVZN4asio5error18get_netdb_categoryEvE8instance:
	.space	4
	.weak	_ZZN4asio5error18get_netdb_categoryEvE8instance
	.section	.data.rel._ZZN4asio5error18get_netdb_categoryEvE8instance,"awG",%progbits,_ZZN4asio5error18get_netdb_categoryEvE8instance,comdat
	.align	2
	.type	_ZZN4asio5error18get_netdb_categoryEvE8instance, %gnu_unique_object
	.size	_ZZN4asio5error18get_netdb_categoryEvE8instance, 4
_ZZN4asio5error18get_netdb_categoryEvE8instance:
	.word	_ZTVN4asio5error6detail14netdb_categoryE+8
	.weak	_ZGVZN4asio15system_categoryEvE8instance
	.section	.bss._ZGVZN4asio15system_categoryEvE8instance,"awG",%nobits,_ZGVZN4asio15system_categoryEvE8instance,comdat
	.align	2
	.type	_ZGVZN4asio15system_categoryEvE8instance, %gnu_unique_object
	.size	_ZGVZN4asio15system_categoryEvE8instance, 4
_ZGVZN4asio15system_categoryEvE8instance:
	.space	4
	.weak	_ZZN4asio15system_categoryEvE8instance
	.section	.data.rel._ZZN4asio15system_categoryEvE8instance,"awG",%progbits,_ZZN4asio15system_categoryEvE8instance,comdat
	.align	2
	.type	_ZZN4asio15system_categoryEvE8instance, %gnu_unique_object
	.size	_ZZN4asio15system_categoryEvE8instance, 4
_ZZN4asio15system_categoryEvE8instance:
	.word	_ZTVN4asio6detail15system_categoryE+8
	.weakref	_ZL28__gthrw___pthread_key_createPjPFvPvE,__pthread_key_create
	.section	.rodata
	.align	2
	.type	_ZTSN7asiopal13SocketChannelE, %object
	.size	_ZTSN7asiopal13SocketChannelE, 26
_ZTSN7asiopal13SocketChannelE:
	.ascii	"N7asiopal13SocketChannelE\000"
	.section	.data.rel.ro,"aw",%progbits
	.align	2
	.type	_ZTIN7asiopal13SocketChannelE, %object
	.size	_ZTIN7asiopal13SocketChannelE, 12
_ZTIN7asiopal13SocketChannelE:
	.word	_ZTVN10__cxxabiv120__si_class_type_infoE+8
	.word	_ZTSN7asiopal13SocketChannelE
	.word	_ZTIN7asiopal13IAsyncChannelE
	.type	_ZTVN7asiopal13SocketChannelE, %object
	.size	_ZTVN7asiopal13SocketChannelE, 28
_ZTVN7asiopal13SocketChannelE:
	.word	0
	.word	_ZTIN7asiopal13SocketChannelE
	.word	_ZN7asiopal13SocketChannelD1Ev
	.word	_ZN7asiopal13SocketChannelD0Ev
	.word	_ZN7asiopal13SocketChannel13BeginReadImplEN7openpal6WSliceE
	.word	_ZN7asiopal13SocketChannel14BeginWriteImplERKN7openpal6RSliceE
	.word	_ZN7asiopal13SocketChannel12ShutdownImplEv
	.section	.rodata._ZN4asio6detail20posix_tss_ptr_createERj.str1.4,"aMS",%progbits,1
	.align	2
.LC20:
	.ascii	"tss\000"
	.section	.rodata._ZNK4asio5error6detail13misc_category4nameEv.str1.4,"aMS",%progbits,1
	.align	2
.LC3:
	.ascii	"asio.misc\000"
	.section	.rodata._ZNK4asio5error6detail13misc_category7messageB5cxx11Ei.str1.4,"aMS",%progbits,1
	.align	2
.LC14:
	.ascii	"Already open\000"
	.space	3
.LC15:
	.ascii	"End of file\000"
.LC16:
	.ascii	"Element not found\000"
	.space	2
.LC17:
	.ascii	"The descriptor does not fit into the select call's "
	.ascii	"fd_set\000"
	.space	2
.LC18:
	.ascii	"asio.misc error\000"
	.section	.rodata._ZNK4asio5error6detail14netdb_category4nameEv.str1.4,"aMS",%progbits,1
	.align	2
.LC1:
	.ascii	"asio.netdb\000"
	.section	.rodata._ZNK4asio5error6detail14netdb_category7messageB5cxx11Ei.str1.4,"aMS",%progbits,1
	.align	2
.LC9:
	.ascii	"Host not found (authoritative)\000"
	.space	1
.LC10:
	.ascii	"Host not found (non-authoritative), try again later"
	.ascii	"\000"
.LC11:
	.ascii	"The query is valid, but it does not have associated"
	.ascii	" data\000"
	.space	3
.LC12:
	.ascii	"A non-recoverable error occurred during database lo"
	.ascii	"okup\000"
.LC13:
	.ascii	"asio.netdb error\000"
	.section	.rodata._ZNK4asio5error6detail17addrinfo_category4nameEv.str1.4,"aMS",%progbits,1
	.align	2
.LC2:
	.ascii	"asio.addrinfo\000"
	.section	.rodata._ZNK4asio5error6detail17addrinfo_category7messageB5cxx11Ei.str1.4,"aMS",%progbits,1
	.align	2
.LC6:
	.ascii	"Service not found\000"
	.space	2
.LC7:
	.ascii	"Socket type not supported\000"
	.space	2
.LC8:
	.ascii	"asio.addrinfo error\000"
	.section	.rodata._ZNK4asio6detail15system_category4nameEv.str1.4,"aMS",%progbits,1
	.align	2
.LC0:
	.ascii	"asio.system\000"
	.section	.rodata._ZNK4asio6detail15system_category7messageB5cxx11Ei.str1.4,"aMS",%progbits,1
	.align	2
.LC4:
	.ascii	"Operation aborted.\000"
	.space	1
.LC5:
	.ascii	"basic_string::_M_construct null not valid\000"
	.section	.rodata._ZNSt12system_errorC2ESt10error_codePKc.str1.4,"aMS",%progbits,1
	.align	2
.LC19:
	.ascii	": \000"
	.hidden	__dso_handle
	.ident	"GCC: (Raspbian 6.3.0-18+rpi1+deb9u1) 6.3.0 20170516"
	.section	.note.GNU-stack,"",%progbits
