	.arch armv6
	.eabi_attribute 28, 1
	.eabi_attribute 20, 1
	.eabi_attribute 21, 1
	.eabi_attribute 23, 3
	.eabi_attribute 24, 1
	.eabi_attribute 25, 1
	.eabi_attribute 26, 2
	.eabi_attribute 30, 2
	.eabi_attribute 34, 1
	.eabi_attribute 18, 4
	.file	"StartupIntegrityPoll.cpp"
	.section	.text._ZNK8opendnp311IMasterTask10IsAuthTaskEv,"axG",%progbits,_ZNK8opendnp311IMasterTask10IsAuthTaskEv,comdat
	.align	2
	.weak	_ZNK8opendnp311IMasterTask10IsAuthTaskEv
	.syntax unified
	.arm
	.fpu vfp
	.type	_ZNK8opendnp311IMasterTask10IsAuthTaskEv, %function
_ZNK8opendnp311IMasterTask10IsAuthTaskEv:
	.fnstart
.LFB2268:
	@ args = 0, pretend = 0, frame = 0
	@ frame_needed = 0, uses_anonymous_args = 0
	@ link register save eliminated.
	mov	r0, #0
	bx	lr
	.cantunwind
	.fnend
	.size	_ZNK8opendnp311IMasterTask10IsAuthTaskEv, .-_ZNK8opendnp311IMasterTask10IsAuthTaskEv
	.section	.text._ZNK8opendnp312PollTaskBase4NameEv,"axG",%progbits,_ZNK8opendnp312PollTaskBase4NameEv,comdat
	.align	2
	.weak	_ZNK8opendnp312PollTaskBase4NameEv
	.syntax unified
	.arm
	.fpu vfp
	.type	_ZNK8opendnp312PollTaskBase4NameEv, %function
_ZNK8opendnp312PollTaskBase4NameEv:
	.fnstart
.LFB2270:
	@ args = 0, pretend = 0, frame = 0
	@ frame_needed = 0, uses_anonymous_args = 0
	@ link register save eliminated.
	ldr	r0, .L3
.LPIC0:
	add	r0, pc, r0
	bx	lr
.L4:
	.align	2
.L3:
	.word	.LC0-(.LPIC0+8)
	.cantunwind
	.fnend
	.size	_ZNK8opendnp312PollTaskBase4NameEv, .-_ZNK8opendnp312PollTaskBase4NameEv
	.section	.text._ZNK8opendnp320StartupIntegrityPoll11IsRecurringEv,"axG",%progbits,_ZNK8opendnp320StartupIntegrityPoll11IsRecurringEv,comdat
	.align	2
	.weak	_ZNK8opendnp320StartupIntegrityPoll11IsRecurringEv
	.syntax unified
	.arm
	.fpu vfp
	.type	_ZNK8opendnp320StartupIntegrityPoll11IsRecurringEv, %function
_ZNK8opendnp320StartupIntegrityPoll11IsRecurringEv:
	.fnstart
.LFB2271:
	@ args = 0, pretend = 0, frame = 0
	@ frame_needed = 0, uses_anonymous_args = 0
	@ link register save eliminated.
	mov	r0, #1
	bx	lr
	.cantunwind
	.fnend
	.size	_ZNK8opendnp320StartupIntegrityPoll11IsRecurringEv, .-_ZNK8opendnp320StartupIntegrityPoll11IsRecurringEv
	.section	.text._ZNK8opendnp320StartupIntegrityPoll8PriorityEv,"axG",%progbits,_ZNK8opendnp320StartupIntegrityPoll8PriorityEv,comdat
	.align	2
	.weak	_ZNK8opendnp320StartupIntegrityPoll8PriorityEv
	.syntax unified
	.arm
	.fpu vfp
	.type	_ZNK8opendnp320StartupIntegrityPoll8PriorityEv, %function
_ZNK8opendnp320StartupIntegrityPoll8PriorityEv:
	.fnstart
.LFB2272:
	@ args = 0, pretend = 0, frame = 0
	@ frame_needed = 0, uses_anonymous_args = 0
	@ link register save eliminated.
	mov	r0, #150
	bx	lr
	.cantunwind
	.fnend
	.size	_ZNK8opendnp320StartupIntegrityPoll8PriorityEv, .-_ZNK8opendnp320StartupIntegrityPoll8PriorityEv
	.section	.text._ZNK8opendnp320StartupIntegrityPoll19BlocksLowerPriorityEv,"axG",%progbits,_ZNK8opendnp320StartupIntegrityPoll19BlocksLowerPriorityEv,comdat
	.align	2
	.weak	_ZNK8opendnp320StartupIntegrityPoll19BlocksLowerPriorityEv
	.syntax unified
	.arm
	.fpu vfp
	.type	_ZNK8opendnp320StartupIntegrityPoll19BlocksLowerPriorityEv, %function
_ZNK8opendnp320StartupIntegrityPoll19BlocksLowerPriorityEv:
	.fnstart
.LFB2273:
	@ args = 0, pretend = 0, frame = 0
	@ frame_needed = 0, uses_anonymous_args = 0
	@ link register save eliminated.
	mov	r0, #1
	bx	lr
	.cantunwind
	.fnend
	.size	_ZNK8opendnp320StartupIntegrityPoll19BlocksLowerPriorityEv, .-_ZNK8opendnp320StartupIntegrityPoll19BlocksLowerPriorityEv
	.section	.text._ZNK8opendnp320StartupIntegrityPoll11GetTaskTypeEv,"axG",%progbits,_ZNK8opendnp320StartupIntegrityPoll11GetTaskTypeEv,comdat
	.align	2
	.weak	_ZNK8opendnp320StartupIntegrityPoll11GetTaskTypeEv
	.syntax unified
	.arm
	.fpu vfp
	.type	_ZNK8opendnp320StartupIntegrityPoll11GetTaskTypeEv, %function
_ZNK8opendnp320StartupIntegrityPoll11GetTaskTypeEv:
	.fnstart
.LFB2274:
	@ args = 0, pretend = 0, frame = 0
	@ frame_needed = 0, uses_anonymous_args = 0
	@ link register save eliminated.
	mov	r0, #3
	bx	lr
	.cantunwind
	.fnend
	.size	_ZNK8opendnp320StartupIntegrityPoll11GetTaskTypeEv, .-_ZNK8opendnp320StartupIntegrityPoll11GetTaskTypeEv
	.text
	.align	2
	.global	_ZN8opendnp320StartupIntegrityPoll12BuildRequestERNS_11APDURequestEh
	.syntax unified
	.arm
	.fpu vfp
	.type	_ZN8opendnp320StartupIntegrityPoll12BuildRequestERNS_11APDURequestEh, %function
_ZN8opendnp320StartupIntegrityPoll12BuildRequestERNS_11APDURequestEh:
	.fnstart
.LFB3034:
	@ args = 0, pretend = 0, frame = 8
	@ frame_needed = 0, uses_anonymous_args = 0
	push	{r4, r5, lr}
	.save {r4, r5, lr}
	mov	r5, r1
	.pad #12
	sub	sp, sp, #12
	add	r1, r0, #72
	mov	r0, r5
	mov	r4, r2
	bl	_ZN8opendnp35build13ReadIntegrityERNS_11APDURequestERKNS_10ClassFieldEh(PLT)
	mov	r0, r5
	mov	r1, #1
	bl	_ZN8opendnp311APDUWrapper11SetFunctionENS_12FunctionCodeE(PLT)
	mov	r1, r4
	mov	r0, sp
	bl	_ZN8opendnp315AppControlField7RequestEh(PLT)
	mov	r0, r5
	ldm	sp, {r1, r2}
	bl	_ZN8opendnp311APDUWrapper10SetControlENS_15AppControlFieldE(PLT)
	mov	r0, #1
	add	sp, sp, #12
	@ sp needed
	pop	{r4, r5, pc}
	.fnend
	.size	_ZN8opendnp320StartupIntegrityPoll12BuildRequestERNS_11APDURequestEh, .-_ZN8opendnp320StartupIntegrityPoll12BuildRequestERNS_11APDURequestEh
	.align	2
	.global	_ZNK8opendnp320StartupIntegrityPoll9IsEnabledEv
	.syntax unified
	.arm
	.fpu vfp
	.type	_ZNK8opendnp320StartupIntegrityPoll9IsEnabledEv, %function
_ZNK8opendnp320StartupIntegrityPoll9IsEnabledEv:
	.fnstart
.LFB3035:
	@ args = 0, pretend = 0, frame = 0
	@ frame_needed = 0, uses_anonymous_args = 0
	@ link register save eliminated.
	add	r0, r0, #72
	b	_ZNK8opendnp310ClassField11HasAnyClassEv(PLT)
	.cantunwind
	.fnend
	.size	_ZNK8opendnp320StartupIntegrityPoll9IsEnabledEv, .-_ZNK8opendnp320StartupIntegrityPoll9IsEnabledEv
	.section	.text._ZN8opendnp320StartupIntegrityPollD2Ev,"axG",%progbits,_ZN8opendnp320StartupIntegrityPollD5Ev,comdat
	.align	2
	.weak	_ZN8opendnp320StartupIntegrityPollD2Ev
	.syntax unified
	.arm
	.fpu vfp
	.type	_ZN8opendnp320StartupIntegrityPollD2Ev, %function
_ZN8opendnp320StartupIntegrityPollD2Ev:
	.fnstart
.LFB3681:
	@ args = 0, pretend = 0, frame = 0
	@ frame_needed = 0, uses_anonymous_args = 0
	ldr	r3, .L14
	ldr	r2, .L14+4
.LPIC1:
	add	r3, pc, r3
	push	{r4, lr}
	mov	r4, r0
	ldr	r3, [r3, r2]
	add	r3, r3, #8
	str	r3, [r0]
	bl	_ZN8opendnp311IMasterTaskD2Ev(PLT)
	mov	r0, r4
	pop	{r4, pc}
.L15:
	.align	2
.L14:
	.word	_GLOBAL_OFFSET_TABLE_-(.LPIC1+8)
	.word	_ZTVN8opendnp312PollTaskBaseE(GOT)
	.cantunwind
	.fnend
	.size	_ZN8opendnp320StartupIntegrityPollD2Ev, .-_ZN8opendnp320StartupIntegrityPollD2Ev
	.weak	_ZN8opendnp320StartupIntegrityPollD1Ev
	.set	_ZN8opendnp320StartupIntegrityPollD1Ev,_ZN8opendnp320StartupIntegrityPollD2Ev
	.section	.text._ZN8opendnp320StartupIntegrityPollD0Ev,"axG",%progbits,_ZN8opendnp320StartupIntegrityPollD5Ev,comdat
	.align	2
	.weak	_ZN8opendnp320StartupIntegrityPollD0Ev
	.syntax unified
	.arm
	.fpu vfp
	.type	_ZN8opendnp320StartupIntegrityPollD0Ev, %function
_ZN8opendnp320StartupIntegrityPollD0Ev:
	.fnstart
.LFB3683:
	@ args = 0, pretend = 0, frame = 0
	@ frame_needed = 0, uses_anonymous_args = 0
	ldr	r3, .L18
	ldr	r2, .L18+4
.LPIC2:
	add	r3, pc, r3
	push	{r4, lr}
	mov	r4, r0
	ldr	r3, [r3, r2]
	add	r3, r3, #8
	str	r3, [r0]
	bl	_ZN8opendnp311IMasterTaskD2Ev(PLT)
	mov	r0, r4
	mov	r1, #88
	bl	_ZdlPvj(PLT)
	mov	r0, r4
	pop	{r4, pc}
.L19:
	.align	2
.L18:
	.word	_GLOBAL_OFFSET_TABLE_-(.LPIC2+8)
	.word	_ZTVN8opendnp312PollTaskBaseE(GOT)
	.cantunwind
	.fnend
	.size	_ZN8opendnp320StartupIntegrityPollD0Ev, .-_ZN8opendnp320StartupIntegrityPollD0Ev
	.text
	.align	2
	.global	_ZN8opendnp320StartupIntegrityPoll14OnTaskCompleteENS_14TaskCompletionEN7openpal18MonotonicTimestampE
	.syntax unified
	.arm
	.fpu vfp
	.type	_ZN8opendnp320StartupIntegrityPoll14OnTaskCompleteENS_14TaskCompletionEN7openpal18MonotonicTimestampE, %function
_ZN8opendnp320StartupIntegrityPoll14OnTaskCompleteENS_14TaskCompletionEN7openpal18MonotonicTimestampE:
	.fnstart
.LFB3036:
	@ args = 8, pretend = 0, frame = 16
	@ frame_needed = 0, uses_anonymous_args = 0
	push	{r4, r5, lr}
	.save {r4, r5, lr}
	subs	r5, r2, #0
	.pad #20
	sub	sp, sp, #20
	mov	r4, r0
	beq	.L22
	cmp	r5, #255
	beq	.L28
	mov	r0, sp
	bl	_ZN7openpal18MonotonicTimestamp3MaxEv(PLT)
	ldrd	r2, [sp]
	mov	r1, #0
	mov	r0, r4
	strb	r1, [r4]
	strd	r2, [r4, #8]
	add	sp, sp, #20
	@ sp needed
	pop	{r4, r5, pc}
.L28:
	mov	r2, #0
	mov	r3, #0
	add	r0, sp, #8
	bl	_ZN7openpal18MonotonicTimestampC1Ex(PLT)
	ldrd	r2, [sp, #8]
	mov	r1, #0
	mov	r0, r4
	strb	r1, [r4]
	strd	r2, [r4, #8]
	add	sp, sp, #20
	@ sp needed
	pop	{r4, r5, pc}
.L22:
	mov	r0, sp
	bl	_ZN7openpal18MonotonicTimestamp3MaxEv(PLT)
	ldrd	r2, [sp]
	mov	r0, r4
	strb	r5, [r4]
	strd	r2, [r4, #8]
	add	sp, sp, #20
	@ sp needed
	pop	{r4, r5, pc}
	.fnend
	.size	_ZN8opendnp320StartupIntegrityPoll14OnTaskCompleteENS_14TaskCompletionEN7openpal18MonotonicTimestampE, .-_ZN8opendnp320StartupIntegrityPoll14OnTaskCompleteENS_14TaskCompletionEN7openpal18MonotonicTimestampE
	.section	.text._ZN7openpal6LoggerD2Ev,"axG",%progbits,_ZN7openpal6LoggerD5Ev,comdat
	.align	2
	.weak	_ZN7openpal6LoggerD2Ev
	.syntax unified
	.arm
	.fpu vfp
	.type	_ZN7openpal6LoggerD2Ev, %function
_ZN7openpal6LoggerD2Ev:
	.fnstart
.LFB1981:
	@ args = 0, pretend = 0, frame = 0
	@ frame_needed = 0, uses_anonymous_args = 0
	push	{r4, r5, r6, lr}
	mov	r4, r0
	ldr	r5, [r0, #12]
	ldr	r6, .L56
	cmp	r5, #0
.LPIC3:
	add	r6, pc, r6
	beq	.L31
	ldr	r3, .L56+4
	ldr	r3, [r6, r3]
	cmp	r3, #0
	beq	.L32
	add	r3, r5, #28
	mcr	p15, 0, r0, c7, c10, 5
.L48:
	ldrex	r2, [r3]
	sub	r1, r2, #1
	strex	r0, r1, [r3]
	cmp	r0, #0
	bne	.L48
	cmp	r2, #1
	mcr	p15, 0, r0, c7, c10, 5
	beq	.L54
.L31:
	ldr	r5, [r4, #4]
	cmp	r5, #0
	beq	.L44
	ldr	r3, .L56+4
	ldr	r3, [r6, r3]
	cmp	r3, #0
	beq	.L38
	add	r3, r5, #28
	mcr	p15, 0, r0, c7, c10, 5
.L47:
	ldrex	r2, [r3]
	sub	r1, r2, #1
	strex	r0, r1, [r3]
	cmp	r0, #0
	bne	.L47
	cmp	r2, #1
	mcr	p15, 0, r0, c7, c10, 5
	beq	.L55
.L44:
	mov	r0, r4
	pop	{r4, r5, r6, pc}
.L32:
	ldr	r3, [r5, #28]
	cmp	r3, #1
	sub	r3, r3, #1
	str	r3, [r5, #28]
	bne	.L31
	ldr	r3, [r5]
	mov	r0, r5
	ldr	r3, [r3, #8]
	blx	r3
	mcr	p15, 0, r0, c7, c10, 5
	ldr	r2, [r5, #32]
	sub	r3, r2, #1
	str	r3, [r5, #32]
	b	.L42
.L38:
	ldr	r3, [r5, #28]
	cmp	r3, #1
	sub	r3, r3, #1
	str	r3, [r5, #28]
	bne	.L44
	ldr	r3, [r5]
	mov	r0, r5
	ldr	r3, [r3, #8]
	blx	r3
	mcr	p15, 0, r0, c7, c10, 5
	ldr	r2, [r5, #32]
	sub	r3, r2, #1
	str	r3, [r5, #32]
	b	.L43
.L55:
	ldr	r3, [r5]
	mov	r0, r5
	ldr	r3, [r3, #8]
	blx	r3
	add	r3, r5, #32
	mcr	p15, 0, r0, c7, c10, 5
	mcr	p15, 0, r0, c7, c10, 5
.L45:
	ldrex	r2, [r3]
	sub	r1, r2, #1
	strex	r0, r1, [r3]
	cmp	r0, #0
	bne	.L45
	mcr	p15, 0, r0, c7, c10, 5
.L43:
	cmp	r2, #1
	bne	.L44
	ldr	r3, [r5]
	mov	r0, r5
	ldr	r3, [r3, #12]
	blx	r3
	b	.L44
.L54:
	ldr	r3, [r5]
	mov	r0, r5
	ldr	r3, [r3, #8]
	blx	r3
	add	r3, r5, #32
	mcr	p15, 0, r0, c7, c10, 5
	mcr	p15, 0, r0, c7, c10, 5
.L46:
	ldrex	r2, [r3]
	sub	r1, r2, #1
	strex	r0, r1, [r3]
	cmp	r0, #0
	bne	.L46
	mcr	p15, 0, r0, c7, c10, 5
.L42:
	cmp	r2, #1
	bne	.L31
	ldr	r3, [r5]
	mov	r0, r5
	ldr	r3, [r3, #12]
	blx	r3
	b	.L31
.L57:
	.align	2
.L56:
	.word	_GLOBAL_OFFSET_TABLE_-(.LPIC3+8)
	.word	_ZL28__gthrw___pthread_key_createPjPFvPvE(GOT)
	.cantunwind
	.fnend
	.size	_ZN7openpal6LoggerD2Ev, .-_ZN7openpal6LoggerD2Ev
	.weak	_ZN7openpal6LoggerD1Ev
	.set	_ZN7openpal6LoggerD1Ev,_ZN7openpal6LoggerD2Ev
	.text
	.align	2
	.global	_ZN8opendnp320StartupIntegrityPollC2ERNS_18IMasterApplicationERNS_11ISOEHandlerENS_10ClassFieldEN7openpal12TimeDurationENS6_6LoggerE
	.syntax unified
	.arm
	.fpu vfp
	.type	_ZN8opendnp320StartupIntegrityPollC2ERNS_18IMasterApplicationERNS_11ISOEHandlerENS_10ClassFieldEN7openpal12TimeDurationENS6_6LoggerE, %function
_ZN8opendnp320StartupIntegrityPollC2ERNS_18IMasterApplicationERNS_11ISOEHandlerENS_10ClassFieldEN7openpal12TimeDurationENS6_6LoggerE:
	.fnstart
.LFB3032:
	@ args = 12, pretend = 0, frame = 40
	@ frame_needed = 0, uses_anonymous_args = 0
	push	{r4, r5, r6, r7, r8, r9, r10, fp, lr}
	.save {r4, r5, r6, r7, r8, r9, r10, fp, lr}
	.pad #68
	sub	sp, sp, #68
	mov	r4, r0
	ldr	r6, [sp, #112]
	mov	fp, r2
	mov	r9, r3
	mov	r2, #0
	mov	r3, #0
	add	r0, sp, #24
	mov	r10, r1
.LEHB0:
	bl	_ZN7openpal18MonotonicTimestampC1Ex(PLT)
.LEHE0:
	ldm	r6, {r2, r3}
	ldr	r5, .L103
	cmp	r3, #0
	str	r3, [sp, #52]
	str	r2, [sp, #48]
.LPIC4:
	add	r5, pc, r5
	beq	.L59
	ldr	r2, .L103+4
	ldr	r2, [r5, r2]
	cmp	r2, #0
	beq	.L60
	add	r3, r3, #28
	mcr	p15, 0, r0, c7, c10, 5
.L94:
	ldrex	r2, [r3]
	add	r2, r2, #1
	strex	r1, r2, [r3]
	cmp	r1, #0
	bne	.L94
	mcr	p15, 0, r0, c7, c10, 5
	ldr	r2, [r6, #12]
	ldr	r3, [r6, #8]
	cmp	r2, #0
	str	r3, [sp, #56]
	str	r2, [sp, #60]
	beq	.L62
.L96:
	add	r2, r2, #28
	mcr	p15, 0, r0, c7, c10, 5
.L93:
	ldrex	r3, [r2]
	add	r3, r3, #1
	strex	r1, r3, [r2]
	cmp	r1, #0
	bne	.L93
	mcr	p15, 0, r0, c7, c10, 5
.L62:
	mov	r3, #0
	strb	r3, [sp, #40]
	str	r3, [sp, #44]
	add	r3, sp, #36
	mvn	r2, #0
	str	r2, [sp, #36]
	ldm	r3, {r0, r1, r2}
	add	r3, sp, #12
	ldrd	r6, [sp, #24]
	add	r8, sp, #48
	stm	r3, {r0, r1, r2}
	mov	r2, fp
	mov	r1, r10
	strd	r6, [sp]
	str	r8, [sp, #8]
	mov	r0, r4
.LEHB1:
	bl	_ZN8opendnp312PollTaskBaseC2ERNS_18IMasterApplicationERNS_11ISOEHandlerEN7openpal18MonotonicTimestampENS5_6LoggerENS_10TaskConfigE(PLT)
.LEHE1:
	ldr	r6, [sp, #60]
	cmp	r6, #0
	beq	.L66
	ldr	r3, .L103+4
	ldr	r3, [r5, r3]
	cmp	r3, #0
	beq	.L67
	add	r3, r6, #28
	mcr	p15, 0, r0, c7, c10, 5
.L92:
	ldrex	r2, [r3]
	sub	r1, r2, #1
	strex	r0, r1, [r3]
	cmp	r0, #0
	bne	.L92
	cmp	r2, #1
	mcr	p15, 0, r0, c7, c10, 5
	beq	.L101
.L66:
	ldr	r6, [sp, #52]
	cmp	r6, #0
	beq	.L72
	ldr	r3, .L103+4
	ldr	r3, [r5, r3]
	cmp	r3, #0
	beq	.L73
	add	r3, r6, #28
	mcr	p15, 0, r0, c7, c10, 5
.L91:
	ldrex	r2, [r3]
	sub	r1, r2, #1
	strex	r0, r1, [r3]
	cmp	r0, #0
	bne	.L91
	cmp	r2, #1
	mcr	p15, 0, r0, c7, c10, 5
	beq	.L102
.L72:
	ldr	r3, .L103+8
	mov	r0, r4
	ldr	r3, [r5, r3]
	strb	r9, [r4, #72]
	add	r3, r3, #8
	str	r3, [r4]
	ldrd	r2, [sp, #104]
	strd	r2, [r4, #80]
	add	sp, sp, #68
	@ sp needed
	pop	{r4, r5, r6, r7, r8, r9, r10, fp, pc}
.L67:
	ldr	r3, [r6, #28]
	cmp	r3, #1
	sub	r3, r3, #1
	str	r3, [r6, #28]
	bne	.L66
	ldr	r3, [r6]
	mov	r0, r6
	ldr	r3, [r3, #8]
	blx	r3
	mcr	p15, 0, r0, c7, c10, 5
	ldr	r2, [r6, #32]
	sub	r3, r2, #1
	str	r3, [r6, #32]
	b	.L79
.L60:
	ldr	r2, [r6, #12]
	ldr	r1, [r3, #28]
	ldr	r0, [r6, #8]
	add	r1, r1, #1
	cmp	r2, #0
	str	r1, [r3, #28]
	str	r2, [sp, #60]
	str	r0, [sp, #56]
	beq	.L62
.L63:
	ldr	r3, [r2, #28]
	add	r3, r3, #1
	str	r3, [r2, #28]
	b	.L62
.L73:
	ldr	r3, [r6, #28]
	cmp	r3, #1
	sub	r3, r3, #1
	str	r3, [r6, #28]
	bne	.L72
	ldr	r3, [r6]
	mov	r0, r6
	ldr	r3, [r3, #8]
	blx	r3
	mcr	p15, 0, r0, c7, c10, 5
	ldr	r2, [r6, #32]
	sub	r3, r2, #1
	str	r3, [r6, #32]
	b	.L80
.L102:
	ldr	r3, [r6]
	mov	r0, r6
	ldr	r3, [r3, #8]
	blx	r3
	add	r3, r6, #32
	mcr	p15, 0, r0, c7, c10, 5
	mcr	p15, 0, r0, c7, c10, 5
.L89:
	ldrex	r2, [r3]
	sub	r1, r2, #1
	strex	r0, r1, [r3]
	cmp	r0, #0
	bne	.L89
	mcr	p15, 0, r0, c7, c10, 5
.L80:
	cmp	r2, #1
	bne	.L72
	ldr	r3, [r6]
	mov	r0, r6
	ldr	r3, [r3, #12]
	blx	r3
	b	.L72
.L101:
	ldr	r3, [r6]
	mov	r0, r6
	ldr	r3, [r3, #8]
	blx	r3
	add	r3, r6, #32
	mcr	p15, 0, r0, c7, c10, 5
	mcr	p15, 0, r0, c7, c10, 5
.L90:
	ldrex	r2, [r3]
	sub	r1, r2, #1
	strex	r0, r1, [r3]
	cmp	r0, #0
	bne	.L90
	mcr	p15, 0, r0, c7, c10, 5
.L79:
	cmp	r2, #1
	bne	.L66
	ldr	r3, [r6]
	mov	r0, r6
	ldr	r3, [r3, #12]
	blx	r3
	b	.L66
.L59:
	ldr	r2, [r6, #12]
	ldr	r3, [r6, #8]
	cmp	r2, #0
	str	r2, [sp, #60]
	str	r3, [sp, #56]
	beq	.L62
	ldr	r3, .L103+4
	ldr	r3, [r5, r3]
	cmp	r3, #0
	bne	.L96
	b	.L63
.L81:
	mov	r0, r8
	bl	_ZN7openpal6LoggerD1Ev(PLT)
.LEHB2:
	bl	__cxa_end_cleanup(PLT)
.LEHE2:
.L104:
	.align	2
.L103:
	.word	_GLOBAL_OFFSET_TABLE_-(.LPIC4+8)
	.word	_ZL28__gthrw___pthread_key_createPjPFvPvE(GOT)
	.word	_ZTVN8opendnp320StartupIntegrityPollE(GOT)
	.global	__gxx_personality_v0
	.personality	__gxx_personality_v0
	.handlerdata
.LLSDA3032:
	.byte	0xff
	.byte	0xff
	.byte	0x1
	.uleb128 .LLSDACSE3032-.LLSDACSB3032
.LLSDACSB3032:
	.uleb128 .LEHB0-.LFB3032
	.uleb128 .LEHE0-.LEHB0
	.uleb128 0
	.uleb128 0
	.uleb128 .LEHB1-.LFB3032
	.uleb128 .LEHE1-.LEHB1
	.uleb128 .L81-.LFB3032
	.uleb128 0
	.uleb128 .LEHB2-.LFB3032
	.uleb128 .LEHE2-.LEHB2
	.uleb128 0
	.uleb128 0
.LLSDACSE3032:
	.text
	.fnend
	.size	_ZN8opendnp320StartupIntegrityPollC2ERNS_18IMasterApplicationERNS_11ISOEHandlerENS_10ClassFieldEN7openpal12TimeDurationENS6_6LoggerE, .-_ZN8opendnp320StartupIntegrityPollC2ERNS_18IMasterApplicationERNS_11ISOEHandlerENS_10ClassFieldEN7openpal12TimeDurationENS6_6LoggerE
	.global	_ZN8opendnp320StartupIntegrityPollC1ERNS_18IMasterApplicationERNS_11ISOEHandlerENS_10ClassFieldEN7openpal12TimeDurationENS6_6LoggerE
	.set	_ZN8opendnp320StartupIntegrityPollC1ERNS_18IMasterApplicationERNS_11ISOEHandlerENS_10ClassFieldEN7openpal12TimeDurationENS6_6LoggerE,_ZN8opendnp320StartupIntegrityPollC2ERNS_18IMasterApplicationERNS_11ISOEHandlerENS_10ClassFieldEN7openpal12TimeDurationENS6_6LoggerE
	.section	.text.startup,"ax",%progbits
	.align	2
	.syntax unified
	.arm
	.fpu vfp
	.type	_GLOBAL__sub_I_StartupIntegrityPoll.cpp, %function
_GLOBAL__sub_I_StartupIntegrityPoll.cpp:
	.fnstart
.LFB3715:
	@ args = 0, pretend = 0, frame = 8
	@ frame_needed = 0, uses_anonymous_args = 0
	str	lr, [sp, #-4]!
	sub	sp, sp, #12
	ldr	r2, .L107
	mov	r3, #0
	mov	r0, sp
	bl	_ZN7openpal12TimeDuration12MillisecondsEx(PLT)
	add	sp, sp, #12
	@ sp needed
	ldr	pc, [sp], #4
.L108:
	.align	2
.L107:
	.word	5000
	.cantunwind
	.fnend
	.size	_GLOBAL__sub_I_StartupIntegrityPoll.cpp, .-_GLOBAL__sub_I_StartupIntegrityPoll.cpp
	.section	.init_array,"aw"
	.align	2
	.word	_GLOBAL__sub_I_StartupIntegrityPoll.cpp
	.global	_ZTSN8opendnp320StartupIntegrityPollE
	.global	_ZTIN8opendnp320StartupIntegrityPollE
	.global	_ZTVN8opendnp320StartupIntegrityPollE
	.weakref	_ZL28__gthrw___pthread_key_createPjPFvPvE,__pthread_key_create
	.section	.rodata
	.align	2
	.type	_ZTSN8opendnp320StartupIntegrityPollE, %object
	.size	_ZTSN8opendnp320StartupIntegrityPollE, 34
_ZTSN8opendnp320StartupIntegrityPollE:
	.ascii	"N8opendnp320StartupIntegrityPollE\000"
	.section	.data.rel.ro,"aw",%progbits
	.align	2
	.type	_ZTIN8opendnp320StartupIntegrityPollE, %object
	.size	_ZTIN8opendnp320StartupIntegrityPollE, 12
_ZTIN8opendnp320StartupIntegrityPollE:
	.word	_ZTVN10__cxxabiv120__si_class_type_infoE+8
	.word	_ZTSN8opendnp320StartupIntegrityPollE
	.word	_ZTIN8opendnp312PollTaskBaseE
	.type	_ZTVN8opendnp320StartupIntegrityPollE, %object
	.size	_ZTVN8opendnp320StartupIntegrityPollE, 60
_ZTVN8opendnp320StartupIntegrityPollE:
	.word	0
	.word	_ZTIN8opendnp320StartupIntegrityPollE
	.word	_ZN8opendnp320StartupIntegrityPollD1Ev
	.word	_ZN8opendnp320StartupIntegrityPollD0Ev
	.word	_ZNK8opendnp311IMasterTask10IsAuthTaskEv
	.word	_ZNK8opendnp312PollTaskBase4NameEv
	.word	_ZNK8opendnp320StartupIntegrityPoll8PriorityEv
	.word	_ZNK8opendnp320StartupIntegrityPoll19BlocksLowerPriorityEv
	.word	_ZNK8opendnp320StartupIntegrityPoll11IsRecurringEv
	.word	_ZN8opendnp320StartupIntegrityPoll12BuildRequestERNS_11APDURequestEh
	.word	_ZN8opendnp312PollTaskBase10InitializeEv
	.word	_ZN8opendnp312PollTaskBase15ProcessResponseERKNS_18APDUResponseHeaderERKN7openpal6RSliceE
	.word	_ZN8opendnp320StartupIntegrityPoll14OnTaskCompleteENS_14TaskCompletionEN7openpal18MonotonicTimestampE
	.word	_ZNK8opendnp320StartupIntegrityPoll9IsEnabledEv
	.word	_ZNK8opendnp320StartupIntegrityPoll11GetTaskTypeEv
	.section	.rodata._ZNK8opendnp312PollTaskBase4NameEv.str1.4,"aMS",%progbits,1
	.align	2
.LC0:
	.ascii	"Application Poll\000"
	.ident	"GCC: (Raspbian 6.3.0-18+rpi1+deb9u1) 6.3.0 20170516"
	.section	.note.GNU-stack,"",%progbits
