	.arch armv6
	.eabi_attribute 28, 1
	.eabi_attribute 20, 1
	.eabi_attribute 21, 1
	.eabi_attribute 23, 3
	.eabi_attribute 24, 1
	.eabi_attribute 25, 1
	.eabi_attribute 26, 2
	.eabi_attribute 30, 2
	.eabi_attribute 34, 1
	.eabi_attribute 18, 4
	.file	"StaticBuffers.cpp"
	.section	.text._ZN7openpal5ArrayIN8opendnp34CellINS1_10BinarySpecEEEtED2Ev,"axG",%progbits,_ZN7openpal5ArrayIN8opendnp34CellINS1_10BinarySpecEEEtED5Ev,comdat
	.align	2
	.weak	_ZN7openpal5ArrayIN8opendnp34CellINS1_10BinarySpecEEEtED2Ev
	.syntax unified
	.arm
	.fpu vfp
	.type	_ZN7openpal5ArrayIN8opendnp34CellINS1_10BinarySpecEEEtED2Ev, %function
_ZN7openpal5ArrayIN8opendnp34CellINS1_10BinarySpecEEEtED2Ev:
	.fnstart
.LFB199:
	@ args = 0, pretend = 0, frame = 0
	@ frame_needed = 0, uses_anonymous_args = 0
	ldr	r3, .L8
	ldr	r2, .L8+4
.LPIC0:
	add	r3, pc, r3
	push	{r4, lr}
	mov	r4, r0
	ldr	r3, [r3, r2]
	ldr	r0, [r0, #8]
	add	r3, r3, #8
	cmp	r0, #0
	str	r3, [r4]
	beq	.L2
	bl	_ZdaPv(PLT)
.L2:
	mov	r0, r4
	pop	{r4, pc}
.L9:
	.align	2
.L8:
	.word	_GLOBAL_OFFSET_TABLE_-(.LPIC0+8)
	.word	_ZTVN7openpal5ArrayIN8opendnp34CellINS1_10BinarySpecEEEtEE(GOT)
	.cantunwind
	.fnend
	.size	_ZN7openpal5ArrayIN8opendnp34CellINS1_10BinarySpecEEEtED2Ev, .-_ZN7openpal5ArrayIN8opendnp34CellINS1_10BinarySpecEEEtED2Ev
	.weak	_ZN7openpal5ArrayIN8opendnp34CellINS1_10BinarySpecEEEtED1Ev
	.set	_ZN7openpal5ArrayIN8opendnp34CellINS1_10BinarySpecEEEtED1Ev,_ZN7openpal5ArrayIN8opendnp34CellINS1_10BinarySpecEEEtED2Ev
	.section	.text._ZN7openpal5ArrayIN8opendnp34CellINS1_19DoubleBitBinarySpecEEEtED2Ev,"axG",%progbits,_ZN7openpal5ArrayIN8opendnp34CellINS1_19DoubleBitBinarySpecEEEtED5Ev,comdat
	.align	2
	.weak	_ZN7openpal5ArrayIN8opendnp34CellINS1_19DoubleBitBinarySpecEEEtED2Ev
	.syntax unified
	.arm
	.fpu vfp
	.type	_ZN7openpal5ArrayIN8opendnp34CellINS1_19DoubleBitBinarySpecEEEtED2Ev, %function
_ZN7openpal5ArrayIN8opendnp34CellINS1_19DoubleBitBinarySpecEEEtED2Ev:
	.fnstart
.LFB221:
	@ args = 0, pretend = 0, frame = 0
	@ frame_needed = 0, uses_anonymous_args = 0
	ldr	r3, .L16
	ldr	r2, .L16+4
.LPIC1:
	add	r3, pc, r3
	push	{r4, lr}
	mov	r4, r0
	ldr	r3, [r3, r2]
	ldr	r0, [r0, #8]
	add	r3, r3, #8
	cmp	r0, #0
	str	r3, [r4]
	beq	.L11
	bl	_ZdaPv(PLT)
.L11:
	mov	r0, r4
	pop	{r4, pc}
.L17:
	.align	2
.L16:
	.word	_GLOBAL_OFFSET_TABLE_-(.LPIC1+8)
	.word	_ZTVN7openpal5ArrayIN8opendnp34CellINS1_19DoubleBitBinarySpecEEEtEE(GOT)
	.cantunwind
	.fnend
	.size	_ZN7openpal5ArrayIN8opendnp34CellINS1_19DoubleBitBinarySpecEEEtED2Ev, .-_ZN7openpal5ArrayIN8opendnp34CellINS1_19DoubleBitBinarySpecEEEtED2Ev
	.weak	_ZN7openpal5ArrayIN8opendnp34CellINS1_19DoubleBitBinarySpecEEEtED1Ev
	.set	_ZN7openpal5ArrayIN8opendnp34CellINS1_19DoubleBitBinarySpecEEEtED1Ev,_ZN7openpal5ArrayIN8opendnp34CellINS1_19DoubleBitBinarySpecEEEtED2Ev
	.section	.text._ZN7openpal5ArrayIN8opendnp34CellINS1_10AnalogSpecEEEtED2Ev,"axG",%progbits,_ZN7openpal5ArrayIN8opendnp34CellINS1_10AnalogSpecEEEtED5Ev,comdat
	.align	2
	.weak	_ZN7openpal5ArrayIN8opendnp34CellINS1_10AnalogSpecEEEtED2Ev
	.syntax unified
	.arm
	.fpu vfp
	.type	_ZN7openpal5ArrayIN8opendnp34CellINS1_10AnalogSpecEEEtED2Ev, %function
_ZN7openpal5ArrayIN8opendnp34CellINS1_10AnalogSpecEEEtED2Ev:
	.fnstart
.LFB249:
	@ args = 0, pretend = 0, frame = 0
	@ frame_needed = 0, uses_anonymous_args = 0
	ldr	r3, .L24
	ldr	r2, .L24+4
.LPIC2:
	add	r3, pc, r3
	push	{r4, lr}
	mov	r4, r0
	ldr	r3, [r3, r2]
	ldr	r0, [r0, #8]
	add	r3, r3, #8
	cmp	r0, #0
	str	r3, [r4]
	beq	.L19
	bl	_ZdaPv(PLT)
.L19:
	mov	r0, r4
	pop	{r4, pc}
.L25:
	.align	2
.L24:
	.word	_GLOBAL_OFFSET_TABLE_-(.LPIC2+8)
	.word	_ZTVN7openpal5ArrayIN8opendnp34CellINS1_10AnalogSpecEEEtEE(GOT)
	.cantunwind
	.fnend
	.size	_ZN7openpal5ArrayIN8opendnp34CellINS1_10AnalogSpecEEEtED2Ev, .-_ZN7openpal5ArrayIN8opendnp34CellINS1_10AnalogSpecEEEtED2Ev
	.weak	_ZN7openpal5ArrayIN8opendnp34CellINS1_10AnalogSpecEEEtED1Ev
	.set	_ZN7openpal5ArrayIN8opendnp34CellINS1_10AnalogSpecEEEtED1Ev,_ZN7openpal5ArrayIN8opendnp34CellINS1_10AnalogSpecEEEtED2Ev
	.section	.text._ZN7openpal5ArrayIN8opendnp34CellINS1_11CounterSpecEEEtED2Ev,"axG",%progbits,_ZN7openpal5ArrayIN8opendnp34CellINS1_11CounterSpecEEEtED5Ev,comdat
	.align	2
	.weak	_ZN7openpal5ArrayIN8opendnp34CellINS1_11CounterSpecEEEtED2Ev
	.syntax unified
	.arm
	.fpu vfp
	.type	_ZN7openpal5ArrayIN8opendnp34CellINS1_11CounterSpecEEEtED2Ev, %function
_ZN7openpal5ArrayIN8opendnp34CellINS1_11CounterSpecEEEtED2Ev:
	.fnstart
.LFB277:
	@ args = 0, pretend = 0, frame = 0
	@ frame_needed = 0, uses_anonymous_args = 0
	ldr	r3, .L32
	ldr	r2, .L32+4
.LPIC3:
	add	r3, pc, r3
	push	{r4, lr}
	mov	r4, r0
	ldr	r3, [r3, r2]
	ldr	r0, [r0, #8]
	add	r3, r3, #8
	cmp	r0, #0
	str	r3, [r4]
	beq	.L27
	bl	_ZdaPv(PLT)
.L27:
	mov	r0, r4
	pop	{r4, pc}
.L33:
	.align	2
.L32:
	.word	_GLOBAL_OFFSET_TABLE_-(.LPIC3+8)
	.word	_ZTVN7openpal5ArrayIN8opendnp34CellINS1_11CounterSpecEEEtEE(GOT)
	.cantunwind
	.fnend
	.size	_ZN7openpal5ArrayIN8opendnp34CellINS1_11CounterSpecEEEtED2Ev, .-_ZN7openpal5ArrayIN8opendnp34CellINS1_11CounterSpecEEEtED2Ev
	.weak	_ZN7openpal5ArrayIN8opendnp34CellINS1_11CounterSpecEEEtED1Ev
	.set	_ZN7openpal5ArrayIN8opendnp34CellINS1_11CounterSpecEEEtED1Ev,_ZN7openpal5ArrayIN8opendnp34CellINS1_11CounterSpecEEEtED2Ev
	.section	.text._ZN7openpal5ArrayIN8opendnp34CellINS1_17FrozenCounterSpecEEEtED2Ev,"axG",%progbits,_ZN7openpal5ArrayIN8opendnp34CellINS1_17FrozenCounterSpecEEEtED5Ev,comdat
	.align	2
	.weak	_ZN7openpal5ArrayIN8opendnp34CellINS1_17FrozenCounterSpecEEEtED2Ev
	.syntax unified
	.arm
	.fpu vfp
	.type	_ZN7openpal5ArrayIN8opendnp34CellINS1_17FrozenCounterSpecEEEtED2Ev, %function
_ZN7openpal5ArrayIN8opendnp34CellINS1_17FrozenCounterSpecEEEtED2Ev:
	.fnstart
.LFB305:
	@ args = 0, pretend = 0, frame = 0
	@ frame_needed = 0, uses_anonymous_args = 0
	ldr	r3, .L40
	ldr	r2, .L40+4
.LPIC4:
	add	r3, pc, r3
	push	{r4, lr}
	mov	r4, r0
	ldr	r3, [r3, r2]
	ldr	r0, [r0, #8]
	add	r3, r3, #8
	cmp	r0, #0
	str	r3, [r4]
	beq	.L35
	bl	_ZdaPv(PLT)
.L35:
	mov	r0, r4
	pop	{r4, pc}
.L41:
	.align	2
.L40:
	.word	_GLOBAL_OFFSET_TABLE_-(.LPIC4+8)
	.word	_ZTVN7openpal5ArrayIN8opendnp34CellINS1_17FrozenCounterSpecEEEtEE(GOT)
	.cantunwind
	.fnend
	.size	_ZN7openpal5ArrayIN8opendnp34CellINS1_17FrozenCounterSpecEEEtED2Ev, .-_ZN7openpal5ArrayIN8opendnp34CellINS1_17FrozenCounterSpecEEEtED2Ev
	.weak	_ZN7openpal5ArrayIN8opendnp34CellINS1_17FrozenCounterSpecEEEtED1Ev
	.set	_ZN7openpal5ArrayIN8opendnp34CellINS1_17FrozenCounterSpecEEEtED1Ev,_ZN7openpal5ArrayIN8opendnp34CellINS1_17FrozenCounterSpecEEEtED2Ev
	.section	.text._ZN7openpal5ArrayIN8opendnp34CellINS1_22BinaryOutputStatusSpecEEEtED2Ev,"axG",%progbits,_ZN7openpal5ArrayIN8opendnp34CellINS1_22BinaryOutputStatusSpecEEEtED5Ev,comdat
	.align	2
	.weak	_ZN7openpal5ArrayIN8opendnp34CellINS1_22BinaryOutputStatusSpecEEEtED2Ev
	.syntax unified
	.arm
	.fpu vfp
	.type	_ZN7openpal5ArrayIN8opendnp34CellINS1_22BinaryOutputStatusSpecEEEtED2Ev, %function
_ZN7openpal5ArrayIN8opendnp34CellINS1_22BinaryOutputStatusSpecEEEtED2Ev:
	.fnstart
.LFB327:
	@ args = 0, pretend = 0, frame = 0
	@ frame_needed = 0, uses_anonymous_args = 0
	ldr	r3, .L48
	ldr	r2, .L48+4
.LPIC5:
	add	r3, pc, r3
	push	{r4, lr}
	mov	r4, r0
	ldr	r3, [r3, r2]
	ldr	r0, [r0, #8]
	add	r3, r3, #8
	cmp	r0, #0
	str	r3, [r4]
	beq	.L43
	bl	_ZdaPv(PLT)
.L43:
	mov	r0, r4
	pop	{r4, pc}
.L49:
	.align	2
.L48:
	.word	_GLOBAL_OFFSET_TABLE_-(.LPIC5+8)
	.word	_ZTVN7openpal5ArrayIN8opendnp34CellINS1_22BinaryOutputStatusSpecEEEtEE(GOT)
	.cantunwind
	.fnend
	.size	_ZN7openpal5ArrayIN8opendnp34CellINS1_22BinaryOutputStatusSpecEEEtED2Ev, .-_ZN7openpal5ArrayIN8opendnp34CellINS1_22BinaryOutputStatusSpecEEEtED2Ev
	.weak	_ZN7openpal5ArrayIN8opendnp34CellINS1_22BinaryOutputStatusSpecEEEtED1Ev
	.set	_ZN7openpal5ArrayIN8opendnp34CellINS1_22BinaryOutputStatusSpecEEEtED1Ev,_ZN7openpal5ArrayIN8opendnp34CellINS1_22BinaryOutputStatusSpecEEEtED2Ev
	.section	.text._ZN7openpal5ArrayIN8opendnp34CellINS1_22AnalogOutputStatusSpecEEEtED2Ev,"axG",%progbits,_ZN7openpal5ArrayIN8opendnp34CellINS1_22AnalogOutputStatusSpecEEEtED5Ev,comdat
	.align	2
	.weak	_ZN7openpal5ArrayIN8opendnp34CellINS1_22AnalogOutputStatusSpecEEEtED2Ev
	.syntax unified
	.arm
	.fpu vfp
	.type	_ZN7openpal5ArrayIN8opendnp34CellINS1_22AnalogOutputStatusSpecEEEtED2Ev, %function
_ZN7openpal5ArrayIN8opendnp34CellINS1_22AnalogOutputStatusSpecEEEtED2Ev:
	.fnstart
.LFB355:
	@ args = 0, pretend = 0, frame = 0
	@ frame_needed = 0, uses_anonymous_args = 0
	ldr	r3, .L56
	ldr	r2, .L56+4
.LPIC6:
	add	r3, pc, r3
	push	{r4, lr}
	mov	r4, r0
	ldr	r3, [r3, r2]
	ldr	r0, [r0, #8]
	add	r3, r3, #8
	cmp	r0, #0
	str	r3, [r4]
	beq	.L51
	bl	_ZdaPv(PLT)
.L51:
	mov	r0, r4
	pop	{r4, pc}
.L57:
	.align	2
.L56:
	.word	_GLOBAL_OFFSET_TABLE_-(.LPIC6+8)
	.word	_ZTVN7openpal5ArrayIN8opendnp34CellINS1_22AnalogOutputStatusSpecEEEtEE(GOT)
	.cantunwind
	.fnend
	.size	_ZN7openpal5ArrayIN8opendnp34CellINS1_22AnalogOutputStatusSpecEEEtED2Ev, .-_ZN7openpal5ArrayIN8opendnp34CellINS1_22AnalogOutputStatusSpecEEEtED2Ev
	.weak	_ZN7openpal5ArrayIN8opendnp34CellINS1_22AnalogOutputStatusSpecEEEtED1Ev
	.set	_ZN7openpal5ArrayIN8opendnp34CellINS1_22AnalogOutputStatusSpecEEEtED1Ev,_ZN7openpal5ArrayIN8opendnp34CellINS1_22AnalogOutputStatusSpecEEEtED2Ev
	.section	.text._ZN7openpal5ArrayIN8opendnp34CellINS1_19TimeAndIntervalSpecEEEtED2Ev,"axG",%progbits,_ZN7openpal5ArrayIN8opendnp34CellINS1_19TimeAndIntervalSpecEEEtED5Ev,comdat
	.align	2
	.weak	_ZN7openpal5ArrayIN8opendnp34CellINS1_19TimeAndIntervalSpecEEEtED2Ev
	.syntax unified
	.arm
	.fpu vfp
	.type	_ZN7openpal5ArrayIN8opendnp34CellINS1_19TimeAndIntervalSpecEEEtED2Ev, %function
_ZN7openpal5ArrayIN8opendnp34CellINS1_19TimeAndIntervalSpecEEEtED2Ev:
	.fnstart
.LFB371:
	@ args = 0, pretend = 0, frame = 0
	@ frame_needed = 0, uses_anonymous_args = 0
	ldr	r3, .L64
	ldr	r2, .L64+4
.LPIC7:
	add	r3, pc, r3
	push	{r4, lr}
	mov	r4, r0
	ldr	r3, [r3, r2]
	ldr	r0, [r0, #8]
	add	r3, r3, #8
	cmp	r0, #0
	str	r3, [r4]
	beq	.L59
	bl	_ZdaPv(PLT)
.L59:
	mov	r0, r4
	pop	{r4, pc}
.L65:
	.align	2
.L64:
	.word	_GLOBAL_OFFSET_TABLE_-(.LPIC7+8)
	.word	_ZTVN7openpal5ArrayIN8opendnp34CellINS1_19TimeAndIntervalSpecEEEtEE(GOT)
	.cantunwind
	.fnend
	.size	_ZN7openpal5ArrayIN8opendnp34CellINS1_19TimeAndIntervalSpecEEEtED2Ev, .-_ZN7openpal5ArrayIN8opendnp34CellINS1_19TimeAndIntervalSpecEEEtED2Ev
	.weak	_ZN7openpal5ArrayIN8opendnp34CellINS1_19TimeAndIntervalSpecEEEtED1Ev
	.set	_ZN7openpal5ArrayIN8opendnp34CellINS1_19TimeAndIntervalSpecEEEtED1Ev,_ZN7openpal5ArrayIN8opendnp34CellINS1_19TimeAndIntervalSpecEEEtED2Ev
	.section	.text._ZN7openpal5ArrayIN8opendnp34CellINS1_10BinarySpecEEEtED0Ev,"axG",%progbits,_ZN7openpal5ArrayIN8opendnp34CellINS1_10BinarySpecEEEtED5Ev,comdat
	.align	2
	.weak	_ZN7openpal5ArrayIN8opendnp34CellINS1_10BinarySpecEEEtED0Ev
	.syntax unified
	.arm
	.fpu vfp
	.type	_ZN7openpal5ArrayIN8opendnp34CellINS1_10BinarySpecEEEtED0Ev, %function
_ZN7openpal5ArrayIN8opendnp34CellINS1_10BinarySpecEEEtED0Ev:
	.fnstart
.LFB201:
	@ args = 0, pretend = 0, frame = 0
	@ frame_needed = 0, uses_anonymous_args = 0
	ldr	r3, .L72
	ldr	r2, .L72+4
.LPIC8:
	add	r3, pc, r3
	push	{r4, lr}
	mov	r4, r0
	ldr	r3, [r3, r2]
	ldr	r0, [r0, #8]
	add	r3, r3, #8
	cmp	r0, #0
	str	r3, [r4]
	beq	.L67
	bl	_ZdaPv(PLT)
.L67:
	mov	r0, r4
	mov	r1, #12
	bl	_ZdlPvj(PLT)
	mov	r0, r4
	pop	{r4, pc}
.L73:
	.align	2
.L72:
	.word	_GLOBAL_OFFSET_TABLE_-(.LPIC8+8)
	.word	_ZTVN7openpal5ArrayIN8opendnp34CellINS1_10BinarySpecEEEtEE(GOT)
	.cantunwind
	.fnend
	.size	_ZN7openpal5ArrayIN8opendnp34CellINS1_10BinarySpecEEEtED0Ev, .-_ZN7openpal5ArrayIN8opendnp34CellINS1_10BinarySpecEEEtED0Ev
	.section	.text._ZN7openpal5ArrayIN8opendnp34CellINS1_19DoubleBitBinarySpecEEEtED0Ev,"axG",%progbits,_ZN7openpal5ArrayIN8opendnp34CellINS1_19DoubleBitBinarySpecEEEtED5Ev,comdat
	.align	2
	.weak	_ZN7openpal5ArrayIN8opendnp34CellINS1_19DoubleBitBinarySpecEEEtED0Ev
	.syntax unified
	.arm
	.fpu vfp
	.type	_ZN7openpal5ArrayIN8opendnp34CellINS1_19DoubleBitBinarySpecEEEtED0Ev, %function
_ZN7openpal5ArrayIN8opendnp34CellINS1_19DoubleBitBinarySpecEEEtED0Ev:
	.fnstart
.LFB223:
	@ args = 0, pretend = 0, frame = 0
	@ frame_needed = 0, uses_anonymous_args = 0
	ldr	r3, .L80
	ldr	r2, .L80+4
.LPIC9:
	add	r3, pc, r3
	push	{r4, lr}
	mov	r4, r0
	ldr	r3, [r3, r2]
	ldr	r0, [r0, #8]
	add	r3, r3, #8
	cmp	r0, #0
	str	r3, [r4]
	beq	.L75
	bl	_ZdaPv(PLT)
.L75:
	mov	r0, r4
	mov	r1, #12
	bl	_ZdlPvj(PLT)
	mov	r0, r4
	pop	{r4, pc}
.L81:
	.align	2
.L80:
	.word	_GLOBAL_OFFSET_TABLE_-(.LPIC9+8)
	.word	_ZTVN7openpal5ArrayIN8opendnp34CellINS1_19DoubleBitBinarySpecEEEtEE(GOT)
	.cantunwind
	.fnend
	.size	_ZN7openpal5ArrayIN8opendnp34CellINS1_19DoubleBitBinarySpecEEEtED0Ev, .-_ZN7openpal5ArrayIN8opendnp34CellINS1_19DoubleBitBinarySpecEEEtED0Ev
	.section	.text._ZN7openpal5ArrayIN8opendnp34CellINS1_10AnalogSpecEEEtED0Ev,"axG",%progbits,_ZN7openpal5ArrayIN8opendnp34CellINS1_10AnalogSpecEEEtED5Ev,comdat
	.align	2
	.weak	_ZN7openpal5ArrayIN8opendnp34CellINS1_10AnalogSpecEEEtED0Ev
	.syntax unified
	.arm
	.fpu vfp
	.type	_ZN7openpal5ArrayIN8opendnp34CellINS1_10AnalogSpecEEEtED0Ev, %function
_ZN7openpal5ArrayIN8opendnp34CellINS1_10AnalogSpecEEEtED0Ev:
	.fnstart
.LFB251:
	@ args = 0, pretend = 0, frame = 0
	@ frame_needed = 0, uses_anonymous_args = 0
	ldr	r3, .L88
	ldr	r2, .L88+4
.LPIC10:
	add	r3, pc, r3
	push	{r4, lr}
	mov	r4, r0
	ldr	r3, [r3, r2]
	ldr	r0, [r0, #8]
	add	r3, r3, #8
	cmp	r0, #0
	str	r3, [r4]
	beq	.L83
	bl	_ZdaPv(PLT)
.L83:
	mov	r0, r4
	mov	r1, #12
	bl	_ZdlPvj(PLT)
	mov	r0, r4
	pop	{r4, pc}
.L89:
	.align	2
.L88:
	.word	_GLOBAL_OFFSET_TABLE_-(.LPIC10+8)
	.word	_ZTVN7openpal5ArrayIN8opendnp34CellINS1_10AnalogSpecEEEtEE(GOT)
	.cantunwind
	.fnend
	.size	_ZN7openpal5ArrayIN8opendnp34CellINS1_10AnalogSpecEEEtED0Ev, .-_ZN7openpal5ArrayIN8opendnp34CellINS1_10AnalogSpecEEEtED0Ev
	.section	.text._ZN7openpal5ArrayIN8opendnp34CellINS1_11CounterSpecEEEtED0Ev,"axG",%progbits,_ZN7openpal5ArrayIN8opendnp34CellINS1_11CounterSpecEEEtED5Ev,comdat
	.align	2
	.weak	_ZN7openpal5ArrayIN8opendnp34CellINS1_11CounterSpecEEEtED0Ev
	.syntax unified
	.arm
	.fpu vfp
	.type	_ZN7openpal5ArrayIN8opendnp34CellINS1_11CounterSpecEEEtED0Ev, %function
_ZN7openpal5ArrayIN8opendnp34CellINS1_11CounterSpecEEEtED0Ev:
	.fnstart
.LFB279:
	@ args = 0, pretend = 0, frame = 0
	@ frame_needed = 0, uses_anonymous_args = 0
	ldr	r3, .L96
	ldr	r2, .L96+4
.LPIC11:
	add	r3, pc, r3
	push	{r4, lr}
	mov	r4, r0
	ldr	r3, [r3, r2]
	ldr	r0, [r0, #8]
	add	r3, r3, #8
	cmp	r0, #0
	str	r3, [r4]
	beq	.L91
	bl	_ZdaPv(PLT)
.L91:
	mov	r0, r4
	mov	r1, #12
	bl	_ZdlPvj(PLT)
	mov	r0, r4
	pop	{r4, pc}
.L97:
	.align	2
.L96:
	.word	_GLOBAL_OFFSET_TABLE_-(.LPIC11+8)
	.word	_ZTVN7openpal5ArrayIN8opendnp34CellINS1_11CounterSpecEEEtEE(GOT)
	.cantunwind
	.fnend
	.size	_ZN7openpal5ArrayIN8opendnp34CellINS1_11CounterSpecEEEtED0Ev, .-_ZN7openpal5ArrayIN8opendnp34CellINS1_11CounterSpecEEEtED0Ev
	.section	.text._ZN7openpal5ArrayIN8opendnp34CellINS1_17FrozenCounterSpecEEEtED0Ev,"axG",%progbits,_ZN7openpal5ArrayIN8opendnp34CellINS1_17FrozenCounterSpecEEEtED5Ev,comdat
	.align	2
	.weak	_ZN7openpal5ArrayIN8opendnp34CellINS1_17FrozenCounterSpecEEEtED0Ev
	.syntax unified
	.arm
	.fpu vfp
	.type	_ZN7openpal5ArrayIN8opendnp34CellINS1_17FrozenCounterSpecEEEtED0Ev, %function
_ZN7openpal5ArrayIN8opendnp34CellINS1_17FrozenCounterSpecEEEtED0Ev:
	.fnstart
.LFB307:
	@ args = 0, pretend = 0, frame = 0
	@ frame_needed = 0, uses_anonymous_args = 0
	ldr	r3, .L104
	ldr	r2, .L104+4
.LPIC12:
	add	r3, pc, r3
	push	{r4, lr}
	mov	r4, r0
	ldr	r3, [r3, r2]
	ldr	r0, [r0, #8]
	add	r3, r3, #8
	cmp	r0, #0
	str	r3, [r4]
	beq	.L99
	bl	_ZdaPv(PLT)
.L99:
	mov	r0, r4
	mov	r1, #12
	bl	_ZdlPvj(PLT)
	mov	r0, r4
	pop	{r4, pc}
.L105:
	.align	2
.L104:
	.word	_GLOBAL_OFFSET_TABLE_-(.LPIC12+8)
	.word	_ZTVN7openpal5ArrayIN8opendnp34CellINS1_17FrozenCounterSpecEEEtEE(GOT)
	.cantunwind
	.fnend
	.size	_ZN7openpal5ArrayIN8opendnp34CellINS1_17FrozenCounterSpecEEEtED0Ev, .-_ZN7openpal5ArrayIN8opendnp34CellINS1_17FrozenCounterSpecEEEtED0Ev
	.section	.text._ZN7openpal5ArrayIN8opendnp34CellINS1_22BinaryOutputStatusSpecEEEtED0Ev,"axG",%progbits,_ZN7openpal5ArrayIN8opendnp34CellINS1_22BinaryOutputStatusSpecEEEtED5Ev,comdat
	.align	2
	.weak	_ZN7openpal5ArrayIN8opendnp34CellINS1_22BinaryOutputStatusSpecEEEtED0Ev
	.syntax unified
	.arm
	.fpu vfp
	.type	_ZN7openpal5ArrayIN8opendnp34CellINS1_22BinaryOutputStatusSpecEEEtED0Ev, %function
_ZN7openpal5ArrayIN8opendnp34CellINS1_22BinaryOutputStatusSpecEEEtED0Ev:
	.fnstart
.LFB329:
	@ args = 0, pretend = 0, frame = 0
	@ frame_needed = 0, uses_anonymous_args = 0
	ldr	r3, .L112
	ldr	r2, .L112+4
.LPIC13:
	add	r3, pc, r3
	push	{r4, lr}
	mov	r4, r0
	ldr	r3, [r3, r2]
	ldr	r0, [r0, #8]
	add	r3, r3, #8
	cmp	r0, #0
	str	r3, [r4]
	beq	.L107
	bl	_ZdaPv(PLT)
.L107:
	mov	r0, r4
	mov	r1, #12
	bl	_ZdlPvj(PLT)
	mov	r0, r4
	pop	{r4, pc}
.L113:
	.align	2
.L112:
	.word	_GLOBAL_OFFSET_TABLE_-(.LPIC13+8)
	.word	_ZTVN7openpal5ArrayIN8opendnp34CellINS1_22BinaryOutputStatusSpecEEEtEE(GOT)
	.cantunwind
	.fnend
	.size	_ZN7openpal5ArrayIN8opendnp34CellINS1_22BinaryOutputStatusSpecEEEtED0Ev, .-_ZN7openpal5ArrayIN8opendnp34CellINS1_22BinaryOutputStatusSpecEEEtED0Ev
	.section	.text._ZN7openpal5ArrayIN8opendnp34CellINS1_22AnalogOutputStatusSpecEEEtED0Ev,"axG",%progbits,_ZN7openpal5ArrayIN8opendnp34CellINS1_22AnalogOutputStatusSpecEEEtED5Ev,comdat
	.align	2
	.weak	_ZN7openpal5ArrayIN8opendnp34CellINS1_22AnalogOutputStatusSpecEEEtED0Ev
	.syntax unified
	.arm
	.fpu vfp
	.type	_ZN7openpal5ArrayIN8opendnp34CellINS1_22AnalogOutputStatusSpecEEEtED0Ev, %function
_ZN7openpal5ArrayIN8opendnp34CellINS1_22AnalogOutputStatusSpecEEEtED0Ev:
	.fnstart
.LFB357:
	@ args = 0, pretend = 0, frame = 0
	@ frame_needed = 0, uses_anonymous_args = 0
	ldr	r3, .L120
	ldr	r2, .L120+4
.LPIC14:
	add	r3, pc, r3
	push	{r4, lr}
	mov	r4, r0
	ldr	r3, [r3, r2]
	ldr	r0, [r0, #8]
	add	r3, r3, #8
	cmp	r0, #0
	str	r3, [r4]
	beq	.L115
	bl	_ZdaPv(PLT)
.L115:
	mov	r0, r4
	mov	r1, #12
	bl	_ZdlPvj(PLT)
	mov	r0, r4
	pop	{r4, pc}
.L121:
	.align	2
.L120:
	.word	_GLOBAL_OFFSET_TABLE_-(.LPIC14+8)
	.word	_ZTVN7openpal5ArrayIN8opendnp34CellINS1_22AnalogOutputStatusSpecEEEtEE(GOT)
	.cantunwind
	.fnend
	.size	_ZN7openpal5ArrayIN8opendnp34CellINS1_22AnalogOutputStatusSpecEEEtED0Ev, .-_ZN7openpal5ArrayIN8opendnp34CellINS1_22AnalogOutputStatusSpecEEEtED0Ev
	.section	.text._ZN7openpal5ArrayIN8opendnp34CellINS1_19TimeAndIntervalSpecEEEtED0Ev,"axG",%progbits,_ZN7openpal5ArrayIN8opendnp34CellINS1_19TimeAndIntervalSpecEEEtED5Ev,comdat
	.align	2
	.weak	_ZN7openpal5ArrayIN8opendnp34CellINS1_19TimeAndIntervalSpecEEEtED0Ev
	.syntax unified
	.arm
	.fpu vfp
	.type	_ZN7openpal5ArrayIN8opendnp34CellINS1_19TimeAndIntervalSpecEEEtED0Ev, %function
_ZN7openpal5ArrayIN8opendnp34CellINS1_19TimeAndIntervalSpecEEEtED0Ev:
	.fnstart
.LFB373:
	@ args = 0, pretend = 0, frame = 0
	@ frame_needed = 0, uses_anonymous_args = 0
	ldr	r3, .L128
	ldr	r2, .L128+4
.LPIC15:
	add	r3, pc, r3
	push	{r4, lr}
	mov	r4, r0
	ldr	r3, [r3, r2]
	ldr	r0, [r0, #8]
	add	r3, r3, #8
	cmp	r0, #0
	str	r3, [r4]
	beq	.L123
	bl	_ZdaPv(PLT)
.L123:
	mov	r0, r4
	mov	r1, #12
	bl	_ZdlPvj(PLT)
	mov	r0, r4
	pop	{r4, pc}
.L129:
	.align	2
.L128:
	.word	_GLOBAL_OFFSET_TABLE_-(.LPIC15+8)
	.word	_ZTVN7openpal5ArrayIN8opendnp34CellINS1_19TimeAndIntervalSpecEEEtEE(GOT)
	.cantunwind
	.fnend
	.size	_ZN7openpal5ArrayIN8opendnp34CellINS1_19TimeAndIntervalSpecEEEtED0Ev, .-_ZN7openpal5ArrayIN8opendnp34CellINS1_19TimeAndIntervalSpecEEEtED0Ev
	.text
	.align	2
	.global	_ZNK8opendnp313StaticBuffers7GetViewEv
	.syntax unified
	.arm
	.fpu vfp
	.type	_ZNK8opendnp313StaticBuffers7GetViewEv, %function
_ZNK8opendnp313StaticBuffers7GetViewEv:
	.fnstart
.LFB155:
	@ args = 0, pretend = 0, frame = 64
	@ frame_needed = 0, uses_anonymous_args = 0
	ldrh	r3, [r1, #28]
	push	{r4, r5, r6, lr}
	.save {r4, r5, r6, lr}
	.pad #120
	sub	sp, sp, #120
	ldrh	r2, [r1, #4]
	strh	r3, [sp, #72]	@ movhi
	ldr	r3, [r1, #8]
	mov	r4, r0
	ldrh	r5, [r1, #40]
	ldrh	lr, [r1, #52]
	ldrh	ip, [r1, #64]
	ldrh	r0, [r1, #76]
	strh	r2, [sp, #56]	@ movhi
	ldrh	r2, [r1, #88]
	str	r3, [sp, #60]
	ldr	r3, [r1, #92]
	ldrh	r6, [r1, #16]
	strh	r5, [sp, #80]	@ movhi
	strh	lr, [sp, #88]	@ movhi
	ldr	r5, [r1, #32]
	ldr	lr, [r1, #44]
	strh	ip, [sp, #96]	@ movhi
	strh	r0, [sp, #104]	@ movhi
	ldr	ip, [r1, #56]
	strh	r2, [sp, #112]	@ movhi
	str	r3, [sp, #116]
	ldr	r2, [r1, #80]
	add	r3, sp, #120
	ldr	r0, [r1, #68]
	str	lr, [sp, #84]
	str	ip, [sp, #92]
	str	r2, [sp, #108]
	strh	r6, [sp, #64]	@ movhi
	ldr	r2, [r1, #20]
	str	r5, [sp, #76]
	str	r0, [sp, #100]
	ldmdb	r3, {r0, r1}
	add	r3, sp, #44
	stm	r3, {r0, r1}
	add	r3, sp, #104
	ldm	r3, {r0, r1}
	add	r3, sp, #36
	stm	r3, {r0, r1}
	add	r3, sp, #96
	ldm	r3, {r0, r1}
	add	r3, sp, #28
	stm	r3, {r0, r1}
	add	r3, sp, #88
	ldm	r3, {r0, r1}
	add	r3, sp, #20
	stm	r3, {r0, r1}
	add	r3, sp, #80
	ldm	r3, {r0, r1}
	add	r3, sp, #12
	stm	r3, {r0, r1}
	add	r3, sp, #72
	ldm	r3, {r0, r1}
	str	r2, [sp]
	add	r2, sp, #56
	stmib	sp, {r0, r1}
	ldr	r3, [sp, #64]
	mov	r0, r4
	ldm	r2, {r1, r2}
	bl	_ZN8opendnp318DatabaseConfigViewC1EN7openpal9ArrayViewINS_4CellINS_10BinarySpecEEEtEENS2_INS3_INS_19DoubleBitBinarySpecEEEtEENS2_INS3_INS_10AnalogSpecEEEtEENS2_INS3_INS_11CounterSpecEEEtEENS2_INS3_INS_17FrozenCounterSpecEEEtEENS2_INS3_INS_22BinaryOutputStatusSpecEEEtEENS2_INS3_INS_22AnalogOutputStatusSpecEEEtEENS2_INS3_INS_19TimeAndIntervalSpecEEEtEE(PLT)
	mov	r0, r4
	add	sp, sp, #120
	@ sp needed
	pop	{r4, r5, r6, pc}
	.fnend
	.size	_ZNK8opendnp313StaticBuffers7GetViewEv, .-_ZNK8opendnp313StaticBuffers7GetViewEv
	.align	2
	.global	_ZN8opendnp313StaticBuffers12GetArrayViewINS_10BinarySpecEEEN7openpal9ArrayViewINS_4CellIT_EEtEEv
	.syntax unified
	.arm
	.fpu vfp
	.type	_ZN8opendnp313StaticBuffers12GetArrayViewINS_10BinarySpecEEEN7openpal9ArrayViewINS_4CellIT_EEtEEv, %function
_ZN8opendnp313StaticBuffers12GetArrayViewINS_10BinarySpecEEEN7openpal9ArrayViewINS_4CellIT_EEtEEv:
	.fnstart
.LFB156:
	@ args = 0, pretend = 0, frame = 0
	@ frame_needed = 0, uses_anonymous_args = 0
	@ link register save eliminated.
	ldrh	ip, [r1, #4]
	ldr	r2, [r1, #8]
	strh	ip, [r0]	@ movhi
	str	r2, [r0, #4]
	bx	lr
	.cantunwind
	.fnend
	.size	_ZN8opendnp313StaticBuffers12GetArrayViewINS_10BinarySpecEEEN7openpal9ArrayViewINS_4CellIT_EEtEEv, .-_ZN8opendnp313StaticBuffers12GetArrayViewINS_10BinarySpecEEEN7openpal9ArrayViewINS_4CellIT_EEtEEv
	.align	2
	.global	_ZN8opendnp313StaticBuffers12GetArrayViewINS_19DoubleBitBinarySpecEEEN7openpal9ArrayViewINS_4CellIT_EEtEEv
	.syntax unified
	.arm
	.fpu vfp
	.type	_ZN8opendnp313StaticBuffers12GetArrayViewINS_19DoubleBitBinarySpecEEEN7openpal9ArrayViewINS_4CellIT_EEtEEv, %function
_ZN8opendnp313StaticBuffers12GetArrayViewINS_19DoubleBitBinarySpecEEEN7openpal9ArrayViewINS_4CellIT_EEtEEv:
	.fnstart
.LFB157:
	@ args = 0, pretend = 0, frame = 0
	@ frame_needed = 0, uses_anonymous_args = 0
	@ link register save eliminated.
	ldrh	ip, [r1, #16]
	ldr	r2, [r1, #20]
	strh	ip, [r0]	@ movhi
	str	r2, [r0, #4]
	bx	lr
	.cantunwind
	.fnend
	.size	_ZN8opendnp313StaticBuffers12GetArrayViewINS_19DoubleBitBinarySpecEEEN7openpal9ArrayViewINS_4CellIT_EEtEEv, .-_ZN8opendnp313StaticBuffers12GetArrayViewINS_19DoubleBitBinarySpecEEEN7openpal9ArrayViewINS_4CellIT_EEtEEv
	.align	2
	.global	_ZN8opendnp313StaticBuffers12GetArrayViewINS_11CounterSpecEEEN7openpal9ArrayViewINS_4CellIT_EEtEEv
	.syntax unified
	.arm
	.fpu vfp
	.type	_ZN8opendnp313StaticBuffers12GetArrayViewINS_11CounterSpecEEEN7openpal9ArrayViewINS_4CellIT_EEtEEv, %function
_ZN8opendnp313StaticBuffers12GetArrayViewINS_11CounterSpecEEEN7openpal9ArrayViewINS_4CellIT_EEtEEv:
	.fnstart
.LFB158:
	@ args = 0, pretend = 0, frame = 0
	@ frame_needed = 0, uses_anonymous_args = 0
	@ link register save eliminated.
	ldrh	ip, [r1, #40]
	ldr	r2, [r1, #44]
	strh	ip, [r0]	@ movhi
	str	r2, [r0, #4]
	bx	lr
	.cantunwind
	.fnend
	.size	_ZN8opendnp313StaticBuffers12GetArrayViewINS_11CounterSpecEEEN7openpal9ArrayViewINS_4CellIT_EEtEEv, .-_ZN8opendnp313StaticBuffers12GetArrayViewINS_11CounterSpecEEEN7openpal9ArrayViewINS_4CellIT_EEtEEv
	.align	2
	.global	_ZN8opendnp313StaticBuffers12GetArrayViewINS_17FrozenCounterSpecEEEN7openpal9ArrayViewINS_4CellIT_EEtEEv
	.syntax unified
	.arm
	.fpu vfp
	.type	_ZN8opendnp313StaticBuffers12GetArrayViewINS_17FrozenCounterSpecEEEN7openpal9ArrayViewINS_4CellIT_EEtEEv, %function
_ZN8opendnp313StaticBuffers12GetArrayViewINS_17FrozenCounterSpecEEEN7openpal9ArrayViewINS_4CellIT_EEtEEv:
	.fnstart
.LFB159:
	@ args = 0, pretend = 0, frame = 0
	@ frame_needed = 0, uses_anonymous_args = 0
	@ link register save eliminated.
	ldrh	ip, [r1, #52]
	ldr	r2, [r1, #56]
	strh	ip, [r0]	@ movhi
	str	r2, [r0, #4]
	bx	lr
	.cantunwind
	.fnend
	.size	_ZN8opendnp313StaticBuffers12GetArrayViewINS_17FrozenCounterSpecEEEN7openpal9ArrayViewINS_4CellIT_EEtEEv, .-_ZN8opendnp313StaticBuffers12GetArrayViewINS_17FrozenCounterSpecEEEN7openpal9ArrayViewINS_4CellIT_EEtEEv
	.align	2
	.global	_ZN8opendnp313StaticBuffers12GetArrayViewINS_10AnalogSpecEEEN7openpal9ArrayViewINS_4CellIT_EEtEEv
	.syntax unified
	.arm
	.fpu vfp
	.type	_ZN8opendnp313StaticBuffers12GetArrayViewINS_10AnalogSpecEEEN7openpal9ArrayViewINS_4CellIT_EEtEEv, %function
_ZN8opendnp313StaticBuffers12GetArrayViewINS_10AnalogSpecEEEN7openpal9ArrayViewINS_4CellIT_EEtEEv:
	.fnstart
.LFB160:
	@ args = 0, pretend = 0, frame = 0
	@ frame_needed = 0, uses_anonymous_args = 0
	@ link register save eliminated.
	ldrh	ip, [r1, #28]
	ldr	r2, [r1, #32]
	strh	ip, [r0]	@ movhi
	str	r2, [r0, #4]
	bx	lr
	.cantunwind
	.fnend
	.size	_ZN8opendnp313StaticBuffers12GetArrayViewINS_10AnalogSpecEEEN7openpal9ArrayViewINS_4CellIT_EEtEEv, .-_ZN8opendnp313StaticBuffers12GetArrayViewINS_10AnalogSpecEEEN7openpal9ArrayViewINS_4CellIT_EEtEEv
	.align	2
	.global	_ZN8opendnp313StaticBuffers12GetArrayViewINS_22BinaryOutputStatusSpecEEEN7openpal9ArrayViewINS_4CellIT_EEtEEv
	.syntax unified
	.arm
	.fpu vfp
	.type	_ZN8opendnp313StaticBuffers12GetArrayViewINS_22BinaryOutputStatusSpecEEEN7openpal9ArrayViewINS_4CellIT_EEtEEv, %function
_ZN8opendnp313StaticBuffers12GetArrayViewINS_22BinaryOutputStatusSpecEEEN7openpal9ArrayViewINS_4CellIT_EEtEEv:
	.fnstart
.LFB161:
	@ args = 0, pretend = 0, frame = 0
	@ frame_needed = 0, uses_anonymous_args = 0
	@ link register save eliminated.
	ldrh	ip, [r1, #64]
	ldr	r2, [r1, #68]
	strh	ip, [r0]	@ movhi
	str	r2, [r0, #4]
	bx	lr
	.cantunwind
	.fnend
	.size	_ZN8opendnp313StaticBuffers12GetArrayViewINS_22BinaryOutputStatusSpecEEEN7openpal9ArrayViewINS_4CellIT_EEtEEv, .-_ZN8opendnp313StaticBuffers12GetArrayViewINS_22BinaryOutputStatusSpecEEEN7openpal9ArrayViewINS_4CellIT_EEtEEv
	.align	2
	.global	_ZN8opendnp313StaticBuffers12GetArrayViewINS_22AnalogOutputStatusSpecEEEN7openpal9ArrayViewINS_4CellIT_EEtEEv
	.syntax unified
	.arm
	.fpu vfp
	.type	_ZN8opendnp313StaticBuffers12GetArrayViewINS_22AnalogOutputStatusSpecEEEN7openpal9ArrayViewINS_4CellIT_EEtEEv, %function
_ZN8opendnp313StaticBuffers12GetArrayViewINS_22AnalogOutputStatusSpecEEEN7openpal9ArrayViewINS_4CellIT_EEtEEv:
	.fnstart
.LFB162:
	@ args = 0, pretend = 0, frame = 0
	@ frame_needed = 0, uses_anonymous_args = 0
	@ link register save eliminated.
	ldrh	ip, [r1, #76]
	ldr	r2, [r1, #80]
	strh	ip, [r0]	@ movhi
	str	r2, [r0, #4]
	bx	lr
	.cantunwind
	.fnend
	.size	_ZN8opendnp313StaticBuffers12GetArrayViewINS_22AnalogOutputStatusSpecEEEN7openpal9ArrayViewINS_4CellIT_EEtEEv, .-_ZN8opendnp313StaticBuffers12GetArrayViewINS_22AnalogOutputStatusSpecEEEN7openpal9ArrayViewINS_4CellIT_EEtEEv
	.align	2
	.global	_ZN8opendnp313StaticBuffers12GetArrayViewINS_19TimeAndIntervalSpecEEEN7openpal9ArrayViewINS_4CellIT_EEtEEv
	.syntax unified
	.arm
	.fpu vfp
	.type	_ZN8opendnp313StaticBuffers12GetArrayViewINS_19TimeAndIntervalSpecEEEN7openpal9ArrayViewINS_4CellIT_EEtEEv, %function
_ZN8opendnp313StaticBuffers12GetArrayViewINS_19TimeAndIntervalSpecEEEN7openpal9ArrayViewINS_4CellIT_EEtEEv:
	.fnstart
.LFB163:
	@ args = 0, pretend = 0, frame = 0
	@ frame_needed = 0, uses_anonymous_args = 0
	@ link register save eliminated.
	ldrh	ip, [r1, #88]
	ldr	r2, [r1, #92]
	strh	ip, [r0]	@ movhi
	str	r2, [r0, #4]
	bx	lr
	.cantunwind
	.fnend
	.size	_ZN8opendnp313StaticBuffers12GetArrayViewINS_19TimeAndIntervalSpecEEEN7openpal9ArrayViewINS_4CellIT_EEtEEv, .-_ZN8opendnp313StaticBuffers12GetArrayViewINS_19TimeAndIntervalSpecEEEN7openpal9ArrayViewINS_4CellIT_EEtEEv
	.align	2
	.global	_ZN8opendnp313StaticBuffersC2ERKNS_13DatabaseSizesE
	.syntax unified
	.arm
	.fpu vfp
	.type	_ZN8opendnp313StaticBuffersC2ERKNS_13DatabaseSizesE, %function
_ZN8opendnp313StaticBuffersC2ERKNS_13DatabaseSizesE:
	.fnstart
.LFB153:
	@ args = 0, pretend = 0, frame = 96
	@ frame_needed = 0, uses_anonymous_args = 0
	push	{r4, r5, r6, r7, r8, r9, r10, fp, lr}
	.save {r4, r5, r6, r7, r8, r9, r10, fp, lr}
	vpush.64	{d8}
	.vsave {d8}
	ldrh	r6, [r1]
	ldr	fp, .L318+8
	ldr	r3, .L318+12
	.pad #100
	sub	sp, sp, #100
.LPIC32:
	add	fp, pc, fp
	strh	r6, [r0, #4]	@ movhi
	str	r1, [sp]
	ldr	r3, [fp, r3]
	mov	r9, r0
	rsb	r0, r6, r6, lsl #3
	str	r3, [sp, #16]
	add	r3, r3, #8
	str	r3, [r9]
	lsl	r0, r0, #4
.LEHB0:
	bl	_Znaj(PLT)
.LEHE0:
	subs	r6, r6, #1
	str	r0, [sp, #4]
	bcc	.L143
	mov	r4, r0
	mov	r10, #112
	mov	r5, #0
	mov	r7, #1
	mov	r8, #2
.L144:
	mov	r2, r10
	mov	r1, r5
	mov	r0, r4
	bl	memset(PLT)
	mov	r0, r4
.LEHB1:
	bl	_ZN8opendnp36BinaryC1Ev(PLT)
	add	r0, r4, #40
	strh	r5, [r4, #24]	@ movhi
	strb	r7, [r4, #26]
	strb	r8, [r4, #27]
	strb	r5, [r4, #28]
	strb	r8, [r4, #32]
	bl	_ZN8opendnp36BinaryC1Ev(PLT)
	add	r0, r4, #80
	strb	r5, [r4, #64]
	strb	r5, [r4, #72]
	bl	_ZN8opendnp36BinaryC1Ev(PLT)
.LEHE1:
	sub	r6, r6, #1
	cmn	r6, #1
	strb	r7, [r4, #104]
	add	r4, r4, #112
	bne	.L144
.L143:
	ldr	r3, [sp]
	ldr	r2, [sp, #4]
	ldrh	r6, [r3, #2]
	ldr	r3, .L318+16
	str	r2, [r9, #8]
	strh	r6, [r9, #16]	@ movhi
	ldr	r3, [fp, r3]
	rsb	r0, r6, r6, lsl #3
	str	r3, [sp, #12]
	add	r3, r3, #8
	str	r3, [r9, #12]
	lsl	r0, r0, #4
.LEHB2:
	bl	_Znaj(PLT)
.LEHE2:
	subs	r6, r6, #1
	mov	r10, r0
	movcs	r4, r0
	movcs	r8, #112
	movcs	r5, #0
	movcs	r7, #2
	bcc	.L148
.L149:
	mov	r2, r8
	mov	r1, r5
	mov	r0, r4
	bl	memset(PLT)
	mov	r0, r4
.LEHB3:
	bl	_ZN8opendnp315DoubleBitBinaryC1Ev(PLT)
	add	r0, r4, #40
	strh	r5, [r4, #24]	@ movhi
	strb	r5, [r4, #26]
	strb	r7, [r4, #27]
	strb	r5, [r4, #28]
	strb	r7, [r4, #32]
	bl	_ZN8opendnp315DoubleBitBinaryC1Ev(PLT)
	add	r0, r4, #80
	strb	r5, [r4, #64]
	strb	r5, [r4, #72]
	bl	_ZN8opendnp315DoubleBitBinaryC1Ev(PLT)
.LEHE3:
	sub	r6, r6, #1
	cmn	r6, #1
	strb	r5, [r4, #104]
	add	r4, r4, #112
	bne	.L149
.L148:
	ldr	r3, [sp]
	ldrh	r6, [r3, #4]
	ldr	r3, .L318+20
	str	r10, [r9, #20]
	strh	r6, [r9, #28]	@ movhi
	ldr	r3, [fp, r3]
	rsb	r0, r6, r6, lsl #4
	str	r3, [sp, #4]
	add	r3, r3, #8
	str	r3, [r9, #24]
	lsl	r0, r0, #3
.LEHB4:
	bl	_Znaj(PLT)
.LEHE4:
	subs	r6, r6, #1
	mov	r10, r0
	bcc	.L154
	vldr.64	d8, .L318
	mov	r4, r0
	mov	r8, #120
	mov	r5, #0
	mov	r7, #2
.L155:
	mov	r2, r8
	mov	r1, r5
	mov	r0, r4
	bl	memset(PLT)
	mov	r0, r4
.LEHB5:
	bl	_ZN8opendnp36AnalogC1Ev(PLT)
	add	r0, r4, #48
	strh	r5, [r4, #24]	@ movhi
	strb	r5, [r4, #26]
	strb	r7, [r4, #27]
	strb	r5, [r4, #28]
	vstr.64	d8, [r4, #32]
	strb	r7, [r4, #40]
	bl	_ZN8opendnp36AnalogC1Ev(PLT)
	add	r0, r4, #88
	strb	r5, [r4, #72]
	strb	r5, [r4, #80]
	bl	_ZN8opendnp36AnalogC1Ev(PLT)
.LEHE5:
	sub	r6, r6, #1
	cmn	r6, #1
	strb	r5, [r4, #112]
	add	r4, r4, #120
	bne	.L155
.L154:
	ldr	r3, [sp]
	ldrh	r6, [r3, #6]
	ldr	r3, .L318+24
	str	r10, [r9, #32]
	strh	r6, [r9, #40]	@ movhi
	ldr	r3, [fp, r3]
	rsb	r0, r6, r6, lsl #4
	str	r3, [sp, #20]
	add	r3, r3, #8
	str	r3, [r9, #36]
	lsl	r0, r0, #3
.LEHB6:
	bl	_Znaj(PLT)
.LEHE6:
	subs	r6, r6, #1
	mov	r10, r0
	movcs	r4, r0
	movcs	r8, #120
	movcs	r5, #0
	movcs	r7, #2
	bcc	.L160
.L161:
	mov	r2, r8
	mov	r1, r5
	mov	r0, r4
	bl	memset(PLT)
	mov	r0, r4
.LEHB7:
	bl	_ZN8opendnp37CounterC1Ev(PLT)
	add	r0, r4, #48
	strh	r5, [r4, #24]	@ movhi
	strb	r5, [r4, #26]
	strb	r7, [r4, #27]
	strb	r5, [r4, #28]
	str	r5, [r4, #32]
	strb	r7, [r4, #40]
	bl	_ZN8opendnp37CounterC1Ev(PLT)
	add	r0, r4, #88
	strb	r5, [r4, #72]
	strb	r5, [r4, #80]
	bl	_ZN8opendnp37CounterC1Ev(PLT)
.LEHE7:
	sub	r6, r6, #1
	cmn	r6, #1
	strb	r5, [r4, #112]
	add	r4, r4, #120
	bne	.L161
.L160:
	ldr	r3, [sp]
	ldrh	r6, [r3, #8]
	ldr	r3, .L318+28
	str	r10, [r9, #44]
	strh	r6, [r9, #52]	@ movhi
	ldr	r3, [fp, r3]
	rsb	r0, r6, r6, lsl #4
	str	r3, [sp, #28]
	add	r3, r3, #8
	str	r3, [r9, #48]
	lsl	r0, r0, #3
.LEHB8:
	bl	_Znaj(PLT)
.LEHE8:
	subs	r6, r6, #1
	mov	r10, r0
	movcs	r4, r0
	movcs	r8, #120
	movcs	r5, #0
	movcs	r7, #2
	bcc	.L166
.L167:
	mov	r2, r8
	mov	r1, r5
	mov	r0, r4
	bl	memset(PLT)
	mov	r0, r4
.LEHB9:
	bl	_ZN8opendnp313FrozenCounterC1Ev(PLT)
	add	r0, r4, #48
	strh	r5, [r4, #24]	@ movhi
	strb	r5, [r4, #26]
	strb	r7, [r4, #27]
	strb	r5, [r4, #28]
	str	r5, [r4, #32]
	strb	r7, [r4, #40]
	bl	_ZN8opendnp313FrozenCounterC1Ev(PLT)
	add	r0, r4, #88
	strb	r5, [r4, #72]
	strb	r5, [r4, #80]
	bl	_ZN8opendnp313FrozenCounterC1Ev(PLT)
.LEHE9:
	sub	r6, r6, #1
	cmn	r6, #1
	strb	r5, [r4, #112]
	add	r4, r4, #120
	bne	.L167
.L166:
	ldr	r3, [sp]
	ldrh	r6, [r3, #10]
	ldr	r3, .L318+32
	str	r10, [r9, #56]
	strh	r6, [r9, #64]	@ movhi
	ldr	r3, [fp, r3]
	rsb	r0, r6, r6, lsl #3
	str	r3, [sp, #8]
	add	r3, r3, #8
	str	r3, [r9, #60]
	lsl	r0, r0, #4
.LEHB10:
	bl	_Znaj(PLT)
.LEHE10:
	subs	r6, r6, #1
	mov	r10, r0
	movcs	r4, r0
	movcs	r8, #112
	movcs	r5, #0
	movcs	r7, #2
	bcc	.L172
.L173:
	mov	r2, r8
	mov	r1, r5
	mov	r0, r4
	bl	memset(PLT)
	mov	r0, r4
.LEHB11:
	bl	_ZN8opendnp318BinaryOutputStatusC1Ev(PLT)
	add	r0, r4, #40
	strh	r5, [r4, #24]	@ movhi
	strb	r5, [r4, #26]
	strb	r7, [r4, #27]
	strb	r5, [r4, #28]
	strb	r7, [r4, #32]
	bl	_ZN8opendnp318BinaryOutputStatusC1Ev(PLT)
	add	r0, r4, #80
	strb	r5, [r4, #64]
	strb	r5, [r4, #72]
	bl	_ZN8opendnp318BinaryOutputStatusC1Ev(PLT)
.LEHE11:
	sub	r6, r6, #1
	cmn	r6, #1
	strb	r5, [r4, #104]
	add	r4, r4, #112
	bne	.L173
.L172:
	ldr	r3, [sp]
	ldrh	r6, [r3, #12]
	ldr	r3, .L318+36
	str	r10, [r9, #68]
	strh	r6, [r9, #76]	@ movhi
	ldr	r3, [fp, r3]
	rsb	r0, r6, r6, lsl #4
	str	r3, [sp, #24]
	add	r3, r3, #8
	str	r3, [r9, #72]
	lsl	r0, r0, #3
.LEHB12:
	bl	_Znaj(PLT)
.LEHE12:
	subs	r6, r6, #1
	mov	r10, r0
	bcc	.L178
	vldr.64	d8, .L318
	mov	r4, r0
	mov	r8, #120
	mov	r5, #0
	mov	r7, #2
.L179:
	mov	r2, r8
	mov	r1, r5
	mov	r0, r4
	bl	memset(PLT)
	mov	r0, r4
.LEHB13:
	bl	_ZN8opendnp318AnalogOutputStatusC1Ev(PLT)
	add	r0, r4, #48
	strh	r5, [r4, #24]	@ movhi
	strb	r5, [r4, #26]
	strb	r7, [r4, #27]
	strb	r5, [r4, #28]
	vstr.64	d8, [r4, #32]
	strb	r7, [r4, #40]
	bl	_ZN8opendnp318AnalogOutputStatusC1Ev(PLT)
	add	r0, r4, #88
	strb	r5, [r4, #72]
	strb	r5, [r4, #80]
	bl	_ZN8opendnp318AnalogOutputStatusC1Ev(PLT)
.LEHE13:
	sub	r6, r6, #1
	cmn	r6, #1
	strb	r5, [r4, #112]
	add	r4, r4, #120
	bne	.L179
.L178:
	ldr	r3, [sp]
	ldrh	r6, [r3, #14]
	ldr	r3, .L318+40
	str	r10, [r9, #80]
	strh	r6, [r9, #88]	@ movhi
	ldr	r10, [fp, r3]
	rsb	r0, r6, r6, lsl #3
	add	r3, r10, #8
	str	r3, [r9, #84]
	lsl	r0, r0, #3
.LEHB14:
	bl	_Znaj(PLT)
.LEHE14:
	subs	r6, r6, #1
	mov	r8, r0
	movcs	r4, r0
	movcs	r7, #56
	movcs	r5, #0
	bcc	.L184
.L185:
	mov	r2, r7
	mov	r1, r5
	mov	r0, r4
	bl	memset(PLT)
	mov	r0, r4
.LEHB15:
	bl	_ZN8opendnp315TimeAndIntervalC1Ev(PLT)
	add	r0, r4, #32
	strh	r5, [r4, #16]	@ movhi
	strb	r5, [r4, #18]
	strb	r5, [r4, #24]
	bl	_ZN8opendnp315TimeAndIntervalC1Ev(PLT)
.LEHE15:
	sub	r6, r6, #1
	cmn	r6, #1
	strb	r5, [r4, #48]
	add	r4, r4, #56
	bne	.L185
.L184:
	str	r8, [r9, #92]
	mov	r1, r9
	add	r0, sp, #32
.LEHB16:
	bl	_ZN8opendnp313StaticBuffers12GetArrayViewINS_10BinarySpecEEEN7openpal9ArrayViewINS_4CellIT_EEtEEv(PLT)
	ldrh	r0, [sp, #32]
	cmp	r0, #0
	movne	r3, #0
	ldrne	ip, [sp, #36]
	beq	.L191
.L190:
	rsb	r2, r3, r3, lsl #3
	add	r1, r3, #1
	add	r2, ip, r2, lsl #4
	strh	r3, [r2, #24]	@ movhi
	uxth	r3, r1
	cmp	r0, r3
	bgt	.L190
.L191:
	mov	r1, r9
	add	r0, sp, #40
	bl	_ZN8opendnp313StaticBuffers12GetArrayViewINS_19DoubleBitBinarySpecEEEN7openpal9ArrayViewINS_4CellIT_EEtEEv(PLT)
	ldrh	r0, [sp, #40]
	cmp	r0, #0
	movne	r3, #0
	ldrne	ip, [sp, #44]
	beq	.L195
	b	.L319
.L320:
	.align	3
.L318:
	.word	0
	.word	0
	.word	_GLOBAL_OFFSET_TABLE_-(.LPIC32+8)
	.word	_ZTVN7openpal5ArrayIN8opendnp34CellINS1_10BinarySpecEEEtEE(GOT)
	.word	_ZTVN7openpal5ArrayIN8opendnp34CellINS1_19DoubleBitBinarySpecEEEtEE(GOT)
	.word	_ZTVN7openpal5ArrayIN8opendnp34CellINS1_10AnalogSpecEEEtEE(GOT)
	.word	_ZTVN7openpal5ArrayIN8opendnp34CellINS1_11CounterSpecEEEtEE(GOT)
	.word	_ZTVN7openpal5ArrayIN8opendnp34CellINS1_17FrozenCounterSpecEEEtEE(GOT)
	.word	_ZTVN7openpal5ArrayIN8opendnp34CellINS1_22BinaryOutputStatusSpecEEEtEE(GOT)
	.word	_ZTVN7openpal5ArrayIN8opendnp34CellINS1_22AnalogOutputStatusSpecEEEtEE(GOT)
	.word	_ZTVN7openpal5ArrayIN8opendnp34CellINS1_19TimeAndIntervalSpecEEEtEE(GOT)
.L319:
.L194:
	rsb	r2, r3, r3, lsl #3
	add	r1, r3, #1
	add	r2, ip, r2, lsl #4
	strh	r3, [r2, #24]	@ movhi
	uxth	r3, r1
	cmp	r0, r3
	bgt	.L194
.L195:
	mov	r1, r9
	add	r0, sp, #48
	bl	_ZN8opendnp313StaticBuffers12GetArrayViewINS_11CounterSpecEEEN7openpal9ArrayViewINS_4CellIT_EEtEEv(PLT)
	ldrh	r0, [sp, #48]
	cmp	r0, #0
	movne	r3, #0
	ldrne	ip, [sp, #52]
	beq	.L199
.L198:
	rsb	r2, r3, r3, lsl #4
	add	r1, r3, #1
	add	r2, ip, r2, lsl #3
	strh	r3, [r2, #24]	@ movhi
	uxth	r3, r1
	cmp	r3, r0
	blt	.L198
.L199:
	mov	r1, r9
	add	r0, sp, #56
	bl	_ZN8opendnp313StaticBuffers12GetArrayViewINS_17FrozenCounterSpecEEEN7openpal9ArrayViewINS_4CellIT_EEtEEv(PLT)
	ldrh	r0, [sp, #56]
	cmp	r0, #0
	movne	r3, #0
	ldrne	ip, [sp, #60]
	beq	.L203
.L202:
	rsb	r2, r3, r3, lsl #4
	add	r1, r3, #1
	add	r2, ip, r2, lsl #3
	strh	r3, [r2, #24]	@ movhi
	uxth	r3, r1
	cmp	r3, r0
	blt	.L202
.L203:
	mov	r1, r9
	add	r0, sp, #64
	bl	_ZN8opendnp313StaticBuffers12GetArrayViewINS_10AnalogSpecEEEN7openpal9ArrayViewINS_4CellIT_EEtEEv(PLT)
	ldrh	r0, [sp, #64]
	cmp	r0, #0
	movne	r3, #0
	ldrne	ip, [sp, #68]
	beq	.L207
.L206:
	rsb	r2, r3, r3, lsl #4
	add	r1, r3, #1
	add	r2, ip, r2, lsl #3
	strh	r3, [r2, #24]	@ movhi
	uxth	r3, r1
	cmp	r0, r3
	bgt	.L206
.L207:
	mov	r1, r9
	add	r0, sp, #72
	bl	_ZN8opendnp313StaticBuffers12GetArrayViewINS_22BinaryOutputStatusSpecEEEN7openpal9ArrayViewINS_4CellIT_EEtEEv(PLT)
	ldrh	r0, [sp, #72]
	cmp	r0, #0
	movne	r3, #0
	ldrne	ip, [sp, #76]
	beq	.L211
.L210:
	rsb	r2, r3, r3, lsl #3
	add	r1, r3, #1
	add	r2, ip, r2, lsl #4
	strh	r3, [r2, #24]	@ movhi
	uxth	r3, r1
	cmp	r0, r3
	bgt	.L210
.L211:
	mov	r1, r9
	add	r0, sp, #80
	bl	_ZN8opendnp313StaticBuffers12GetArrayViewINS_22AnalogOutputStatusSpecEEEN7openpal9ArrayViewINS_4CellIT_EEtEEv(PLT)
	ldrh	r0, [sp, #80]
	cmp	r0, #0
	movne	r3, #0
	ldrne	ip, [sp, #84]
	beq	.L215
.L214:
	rsb	r2, r3, r3, lsl #4
	add	r1, r3, #1
	add	r2, ip, r2, lsl #3
	strh	r3, [r2, #24]	@ movhi
	uxth	r3, r1
	cmp	r3, r0
	blt	.L214
.L215:
	mov	r1, r9
	add	r0, sp, #88
	bl	_ZN8opendnp313StaticBuffers12GetArrayViewINS_19TimeAndIntervalSpecEEEN7openpal9ArrayViewINS_4CellIT_EEtEEv(PLT)
.LEHE16:
	ldrh	r0, [sp, #88]
	cmp	r0, #0
	beq	.L308
	ldr	ip, [sp, #92]
	mov	r3, #0
.L217:
	rsb	r2, r3, r3, lsl #3
	add	r1, r3, #1
	add	r2, ip, r2, lsl #3
	strh	r3, [r2, #16]	@ movhi
	uxth	r3, r1
	cmp	r0, r3
	bgt	.L217
.L308:
	mov	r0, r9
	add	sp, sp, #100
	@ sp needed
	vldm	sp!, {d8}
	pop	{r4, r5, r6, r7, r8, r9, r10, fp, pc}
.L237:
	ldr	r0, [sp, #4]
	bl	_ZdaPv(PLT)
.LEHB17:
	bl	__cxa_end_cleanup(PLT)
.L235:
	ldr	r0, [r9, #92]
	add	r10, r10, #8
	cmp	r0, #0
	str	r10, [r9, #84]
	beq	.L189
	bl	_ZdaPv(PLT)
.L189:
	ldr	r0, [r9, #80]
	ldr	r3, [sp, #24]
	cmp	r0, #0
	add	fp, r3, #8
	str	fp, [r9, #72]
	beq	.L181
	bl	_ZdaPv(PLT)
.L181:
	ldr	r0, [r9, #68]
	ldr	r3, [sp, #8]
	cmp	r0, #0
	add	r3, r3, #8
	str	r3, [r9, #60]
	beq	.L175
	bl	_ZdaPv(PLT)
.L175:
	ldr	r0, [r9, #56]
	ldr	r3, [sp, #28]
	cmp	r0, #0
	add	r3, r3, #8
	str	r3, [r9, #48]
	beq	.L169
	bl	_ZdaPv(PLT)
.L169:
	ldr	r0, [r9, #44]
	ldr	r3, [sp, #20]
	cmp	r0, #0
	add	r3, r3, #8
	str	r3, [r9, #36]
	beq	.L163
	bl	_ZdaPv(PLT)
.L163:
	ldr	r0, [r9, #32]
	ldr	r3, [sp, #4]
	cmp	r0, #0
	add	r3, r3, #8
	str	r3, [r9, #24]
	beq	.L157
	bl	_ZdaPv(PLT)
.L157:
	ldr	r0, [r9, #20]
	ldr	r3, [sp, #12]
	cmp	r0, #0
	add	r3, r3, #8
	str	r3, [r9, #12]
	beq	.L151
	bl	_ZdaPv(PLT)
.L151:
	ldr	r0, [r9, #8]
	ldr	r3, [sp, #16]
	cmp	r0, #0
	add	r3, r3, #8
	str	r3, [r9]
	beq	.L227
	bl	_ZdaPv(PLT)
.L227:
	bl	__cxa_end_cleanup(PLT)
.LEHE17:
.L243:
	mov	r0, r8
	bl	_ZdaPv(PLT)
	b	.L189
.L234:
	b	.L189
.L242:
	mov	r0, r10
	bl	_ZdaPv(PLT)
	b	.L181
.L233:
	b	.L181
.L241:
	mov	r0, r10
	bl	_ZdaPv(PLT)
	b	.L175
.L232:
	b	.L175
.L240:
	mov	r0, r10
	bl	_ZdaPv(PLT)
	b	.L169
.L231:
	b	.L169
.L239:
	mov	r0, r10
	bl	_ZdaPv(PLT)
	b	.L163
.L230:
	b	.L163
.L238:
	mov	r0, r10
	bl	_ZdaPv(PLT)
	b	.L157
.L229:
	b	.L157
.L236:
	mov	r0, r10
	bl	_ZdaPv(PLT)
	b	.L151
.L228:
	b	.L151
	.global	__gxx_personality_v0
	.personality	__gxx_personality_v0
	.handlerdata
.LLSDA153:
	.byte	0xff
	.byte	0xff
	.byte	0x1
	.uleb128 .LLSDACSE153-.LLSDACSB153
.LLSDACSB153:
	.uleb128 .LEHB0-.LFB153
	.uleb128 .LEHE0-.LEHB0
	.uleb128 0
	.uleb128 0
	.uleb128 .LEHB1-.LFB153
	.uleb128 .LEHE1-.LEHB1
	.uleb128 .L237-.LFB153
	.uleb128 0
	.uleb128 .LEHB2-.LFB153
	.uleb128 .LEHE2-.LEHB2
	.uleb128 .L228-.LFB153
	.uleb128 0
	.uleb128 .LEHB3-.LFB153
	.uleb128 .LEHE3-.LEHB3
	.uleb128 .L236-.LFB153
	.uleb128 0
	.uleb128 .LEHB4-.LFB153
	.uleb128 .LEHE4-.LEHB4
	.uleb128 .L229-.LFB153
	.uleb128 0
	.uleb128 .LEHB5-.LFB153
	.uleb128 .LEHE5-.LEHB5
	.uleb128 .L238-.LFB153
	.uleb128 0
	.uleb128 .LEHB6-.LFB153
	.uleb128 .LEHE6-.LEHB6
	.uleb128 .L230-.LFB153
	.uleb128 0
	.uleb128 .LEHB7-.LFB153
	.uleb128 .LEHE7-.LEHB7
	.uleb128 .L239-.LFB153
	.uleb128 0
	.uleb128 .LEHB8-.LFB153
	.uleb128 .LEHE8-.LEHB8
	.uleb128 .L231-.LFB153
	.uleb128 0
	.uleb128 .LEHB9-.LFB153
	.uleb128 .LEHE9-.LEHB9
	.uleb128 .L240-.LFB153
	.uleb128 0
	.uleb128 .LEHB10-.LFB153
	.uleb128 .LEHE10-.LEHB10
	.uleb128 .L232-.LFB153
	.uleb128 0
	.uleb128 .LEHB11-.LFB153
	.uleb128 .LEHE11-.LEHB11
	.uleb128 .L241-.LFB153
	.uleb128 0
	.uleb128 .LEHB12-.LFB153
	.uleb128 .LEHE12-.LEHB12
	.uleb128 .L233-.LFB153
	.uleb128 0
	.uleb128 .LEHB13-.LFB153
	.uleb128 .LEHE13-.LEHB13
	.uleb128 .L242-.LFB153
	.uleb128 0
	.uleb128 .LEHB14-.LFB153
	.uleb128 .LEHE14-.LEHB14
	.uleb128 .L234-.LFB153
	.uleb128 0
	.uleb128 .LEHB15-.LFB153
	.uleb128 .LEHE15-.LEHB15
	.uleb128 .L243-.LFB153
	.uleb128 0
	.uleb128 .LEHB16-.LFB153
	.uleb128 .LEHE16-.LEHB16
	.uleb128 .L235-.LFB153
	.uleb128 0
	.uleb128 .LEHB17-.LFB153
	.uleb128 .LEHE17-.LEHB17
	.uleb128 0
	.uleb128 0
.LLSDACSE153:
	.text
	.fnend
	.size	_ZN8opendnp313StaticBuffersC2ERKNS_13DatabaseSizesE, .-_ZN8opendnp313StaticBuffersC2ERKNS_13DatabaseSizesE
	.global	_ZN8opendnp313StaticBuffersC1ERKNS_13DatabaseSizesE
	.set	_ZN8opendnp313StaticBuffersC1ERKNS_13DatabaseSizesE,_ZN8opendnp313StaticBuffersC2ERKNS_13DatabaseSizesE
	.weak	_ZTSN7openpal7HasSizeItEE
	.section	.rodata._ZTSN7openpal7HasSizeItEE,"aG",%progbits,_ZTSN7openpal7HasSizeItEE,comdat
	.align	2
	.type	_ZTSN7openpal7HasSizeItEE, %object
	.size	_ZTSN7openpal7HasSizeItEE, 22
_ZTSN7openpal7HasSizeItEE:
	.ascii	"N7openpal7HasSizeItEE\000"
	.weak	_ZTIN7openpal7HasSizeItEE
	.section	.data.rel.ro._ZTIN7openpal7HasSizeItEE,"awG",%progbits,_ZTIN7openpal7HasSizeItEE,comdat
	.align	2
	.type	_ZTIN7openpal7HasSizeItEE, %object
	.size	_ZTIN7openpal7HasSizeItEE, 8
_ZTIN7openpal7HasSizeItEE:
	.word	_ZTVN10__cxxabiv117__class_type_infoE+8
	.word	_ZTSN7openpal7HasSizeItEE
	.weak	_ZTSN7openpal5ArrayIN8opendnp34CellINS1_10BinarySpecEEEtEE
	.section	.rodata._ZTSN7openpal5ArrayIN8opendnp34CellINS1_10BinarySpecEEEtEE,"aG",%progbits,_ZTSN7openpal5ArrayIN8opendnp34CellINS1_10BinarySpecEEEtEE,comdat
	.align	2
	.type	_ZTSN7openpal5ArrayIN8opendnp34CellINS1_10BinarySpecEEEtEE, %object
	.size	_ZTSN7openpal5ArrayIN8opendnp34CellINS1_10BinarySpecEEEtEE, 55
_ZTSN7openpal5ArrayIN8opendnp34CellINS1_10BinarySpecEEEtEE:
	.ascii	"N7openpal5ArrayIN8opendnp34CellINS1_10BinarySpecEEE"
	.ascii	"tEE\000"
	.weak	_ZTIN7openpal5ArrayIN8opendnp34CellINS1_10BinarySpecEEEtEE
	.section	.data.rel.ro._ZTIN7openpal5ArrayIN8opendnp34CellINS1_10BinarySpecEEEtEE,"awG",%progbits,_ZTIN7openpal5ArrayIN8opendnp34CellINS1_10BinarySpecEEEtEE,comdat
	.align	2
	.type	_ZTIN7openpal5ArrayIN8opendnp34CellINS1_10BinarySpecEEEtEE, %object
	.size	_ZTIN7openpal5ArrayIN8opendnp34CellINS1_10BinarySpecEEEtEE, 24
_ZTIN7openpal5ArrayIN8opendnp34CellINS1_10BinarySpecEEEtEE:
	.word	_ZTVN10__cxxabiv121__vmi_class_type_infoE+8
	.word	_ZTSN7openpal5ArrayIN8opendnp34CellINS1_10BinarySpecEEEtEE
	.word	0
	.word	1
	.word	_ZTIN7openpal7HasSizeItEE
	.word	1026
	.weak	_ZTSN7openpal5ArrayIN8opendnp34CellINS1_19DoubleBitBinarySpecEEEtEE
	.section	.rodata._ZTSN7openpal5ArrayIN8opendnp34CellINS1_19DoubleBitBinarySpecEEEtEE,"aG",%progbits,_ZTSN7openpal5ArrayIN8opendnp34CellINS1_19DoubleBitBinarySpecEEEtEE,comdat
	.align	2
	.type	_ZTSN7openpal5ArrayIN8opendnp34CellINS1_19DoubleBitBinarySpecEEEtEE, %object
	.size	_ZTSN7openpal5ArrayIN8opendnp34CellINS1_19DoubleBitBinarySpecEEEtEE, 64
_ZTSN7openpal5ArrayIN8opendnp34CellINS1_19DoubleBitBinarySpecEEEtEE:
	.ascii	"N7openpal5ArrayIN8opendnp34CellINS1_19DoubleBitBina"
	.ascii	"rySpecEEEtEE\000"
	.weak	_ZTIN7openpal5ArrayIN8opendnp34CellINS1_19DoubleBitBinarySpecEEEtEE
	.section	.data.rel.ro._ZTIN7openpal5ArrayIN8opendnp34CellINS1_19DoubleBitBinarySpecEEEtEE,"awG",%progbits,_ZTIN7openpal5ArrayIN8opendnp34CellINS1_19DoubleBitBinarySpecEEEtEE,comdat
	.align	2
	.type	_ZTIN7openpal5ArrayIN8opendnp34CellINS1_19DoubleBitBinarySpecEEEtEE, %object
	.size	_ZTIN7openpal5ArrayIN8opendnp34CellINS1_19DoubleBitBinarySpecEEEtEE, 24
_ZTIN7openpal5ArrayIN8opendnp34CellINS1_19DoubleBitBinarySpecEEEtEE:
	.word	_ZTVN10__cxxabiv121__vmi_class_type_infoE+8
	.word	_ZTSN7openpal5ArrayIN8opendnp34CellINS1_19DoubleBitBinarySpecEEEtEE
	.word	0
	.word	1
	.word	_ZTIN7openpal7HasSizeItEE
	.word	1026
	.weak	_ZTSN7openpal5ArrayIN8opendnp34CellINS1_10AnalogSpecEEEtEE
	.section	.rodata._ZTSN7openpal5ArrayIN8opendnp34CellINS1_10AnalogSpecEEEtEE,"aG",%progbits,_ZTSN7openpal5ArrayIN8opendnp34CellINS1_10AnalogSpecEEEtEE,comdat
	.align	2
	.type	_ZTSN7openpal5ArrayIN8opendnp34CellINS1_10AnalogSpecEEEtEE, %object
	.size	_ZTSN7openpal5ArrayIN8opendnp34CellINS1_10AnalogSpecEEEtEE, 55
_ZTSN7openpal5ArrayIN8opendnp34CellINS1_10AnalogSpecEEEtEE:
	.ascii	"N7openpal5ArrayIN8opendnp34CellINS1_10AnalogSpecEEE"
	.ascii	"tEE\000"
	.weak	_ZTIN7openpal5ArrayIN8opendnp34CellINS1_10AnalogSpecEEEtEE
	.section	.data.rel.ro._ZTIN7openpal5ArrayIN8opendnp34CellINS1_10AnalogSpecEEEtEE,"awG",%progbits,_ZTIN7openpal5ArrayIN8opendnp34CellINS1_10AnalogSpecEEEtEE,comdat
	.align	2
	.type	_ZTIN7openpal5ArrayIN8opendnp34CellINS1_10AnalogSpecEEEtEE, %object
	.size	_ZTIN7openpal5ArrayIN8opendnp34CellINS1_10AnalogSpecEEEtEE, 24
_ZTIN7openpal5ArrayIN8opendnp34CellINS1_10AnalogSpecEEEtEE:
	.word	_ZTVN10__cxxabiv121__vmi_class_type_infoE+8
	.word	_ZTSN7openpal5ArrayIN8opendnp34CellINS1_10AnalogSpecEEEtEE
	.word	0
	.word	1
	.word	_ZTIN7openpal7HasSizeItEE
	.word	1026
	.weak	_ZTSN7openpal5ArrayIN8opendnp34CellINS1_11CounterSpecEEEtEE
	.section	.rodata._ZTSN7openpal5ArrayIN8opendnp34CellINS1_11CounterSpecEEEtEE,"aG",%progbits,_ZTSN7openpal5ArrayIN8opendnp34CellINS1_11CounterSpecEEEtEE,comdat
	.align	2
	.type	_ZTSN7openpal5ArrayIN8opendnp34CellINS1_11CounterSpecEEEtEE, %object
	.size	_ZTSN7openpal5ArrayIN8opendnp34CellINS1_11CounterSpecEEEtEE, 56
_ZTSN7openpal5ArrayIN8opendnp34CellINS1_11CounterSpecEEEtEE:
	.ascii	"N7openpal5ArrayIN8opendnp34CellINS1_11CounterSpecEE"
	.ascii	"EtEE\000"
	.weak	_ZTIN7openpal5ArrayIN8opendnp34CellINS1_11CounterSpecEEEtEE
	.section	.data.rel.ro._ZTIN7openpal5ArrayIN8opendnp34CellINS1_11CounterSpecEEEtEE,"awG",%progbits,_ZTIN7openpal5ArrayIN8opendnp34CellINS1_11CounterSpecEEEtEE,comdat
	.align	2
	.type	_ZTIN7openpal5ArrayIN8opendnp34CellINS1_11CounterSpecEEEtEE, %object
	.size	_ZTIN7openpal5ArrayIN8opendnp34CellINS1_11CounterSpecEEEtEE, 24
_ZTIN7openpal5ArrayIN8opendnp34CellINS1_11CounterSpecEEEtEE:
	.word	_ZTVN10__cxxabiv121__vmi_class_type_infoE+8
	.word	_ZTSN7openpal5ArrayIN8opendnp34CellINS1_11CounterSpecEEEtEE
	.word	0
	.word	1
	.word	_ZTIN7openpal7HasSizeItEE
	.word	1026
	.weak	_ZTSN7openpal5ArrayIN8opendnp34CellINS1_17FrozenCounterSpecEEEtEE
	.section	.rodata._ZTSN7openpal5ArrayIN8opendnp34CellINS1_17FrozenCounterSpecEEEtEE,"aG",%progbits,_ZTSN7openpal5ArrayIN8opendnp34CellINS1_17FrozenCounterSpecEEEtEE,comdat
	.align	2
	.type	_ZTSN7openpal5ArrayIN8opendnp34CellINS1_17FrozenCounterSpecEEEtEE, %object
	.size	_ZTSN7openpal5ArrayIN8opendnp34CellINS1_17FrozenCounterSpecEEEtEE, 62
_ZTSN7openpal5ArrayIN8opendnp34CellINS1_17FrozenCounterSpecEEEtEE:
	.ascii	"N7openpal5ArrayIN8opendnp34CellINS1_17FrozenCounter"
	.ascii	"SpecEEEtEE\000"
	.weak	_ZTIN7openpal5ArrayIN8opendnp34CellINS1_17FrozenCounterSpecEEEtEE
	.section	.data.rel.ro._ZTIN7openpal5ArrayIN8opendnp34CellINS1_17FrozenCounterSpecEEEtEE,"awG",%progbits,_ZTIN7openpal5ArrayIN8opendnp34CellINS1_17FrozenCounterSpecEEEtEE,comdat
	.align	2
	.type	_ZTIN7openpal5ArrayIN8opendnp34CellINS1_17FrozenCounterSpecEEEtEE, %object
	.size	_ZTIN7openpal5ArrayIN8opendnp34CellINS1_17FrozenCounterSpecEEEtEE, 24
_ZTIN7openpal5ArrayIN8opendnp34CellINS1_17FrozenCounterSpecEEEtEE:
	.word	_ZTVN10__cxxabiv121__vmi_class_type_infoE+8
	.word	_ZTSN7openpal5ArrayIN8opendnp34CellINS1_17FrozenCounterSpecEEEtEE
	.word	0
	.word	1
	.word	_ZTIN7openpal7HasSizeItEE
	.word	1026
	.weak	_ZTSN7openpal5ArrayIN8opendnp34CellINS1_22BinaryOutputStatusSpecEEEtEE
	.section	.rodata._ZTSN7openpal5ArrayIN8opendnp34CellINS1_22BinaryOutputStatusSpecEEEtEE,"aG",%progbits,_ZTSN7openpal5ArrayIN8opendnp34CellINS1_22BinaryOutputStatusSpecEEEtEE,comdat
	.align	2
	.type	_ZTSN7openpal5ArrayIN8opendnp34CellINS1_22BinaryOutputStatusSpecEEEtEE, %object
	.size	_ZTSN7openpal5ArrayIN8opendnp34CellINS1_22BinaryOutputStatusSpecEEEtEE, 67
_ZTSN7openpal5ArrayIN8opendnp34CellINS1_22BinaryOutputStatusSpecEEEtEE:
	.ascii	"N7openpal5ArrayIN8opendnp34CellINS1_22BinaryOutputS"
	.ascii	"tatusSpecEEEtEE\000"
	.weak	_ZTIN7openpal5ArrayIN8opendnp34CellINS1_22BinaryOutputStatusSpecEEEtEE
	.section	.data.rel.ro._ZTIN7openpal5ArrayIN8opendnp34CellINS1_22BinaryOutputStatusSpecEEEtEE,"awG",%progbits,_ZTIN7openpal5ArrayIN8opendnp34CellINS1_22BinaryOutputStatusSpecEEEtEE,comdat
	.align	2
	.type	_ZTIN7openpal5ArrayIN8opendnp34CellINS1_22BinaryOutputStatusSpecEEEtEE, %object
	.size	_ZTIN7openpal5ArrayIN8opendnp34CellINS1_22BinaryOutputStatusSpecEEEtEE, 24
_ZTIN7openpal5ArrayIN8opendnp34CellINS1_22BinaryOutputStatusSpecEEEtEE:
	.word	_ZTVN10__cxxabiv121__vmi_class_type_infoE+8
	.word	_ZTSN7openpal5ArrayIN8opendnp34CellINS1_22BinaryOutputStatusSpecEEEtEE
	.word	0
	.word	1
	.word	_ZTIN7openpal7HasSizeItEE
	.word	1026
	.weak	_ZTSN7openpal5ArrayIN8opendnp34CellINS1_22AnalogOutputStatusSpecEEEtEE
	.section	.rodata._ZTSN7openpal5ArrayIN8opendnp34CellINS1_22AnalogOutputStatusSpecEEEtEE,"aG",%progbits,_ZTSN7openpal5ArrayIN8opendnp34CellINS1_22AnalogOutputStatusSpecEEEtEE,comdat
	.align	2
	.type	_ZTSN7openpal5ArrayIN8opendnp34CellINS1_22AnalogOutputStatusSpecEEEtEE, %object
	.size	_ZTSN7openpal5ArrayIN8opendnp34CellINS1_22AnalogOutputStatusSpecEEEtEE, 67
_ZTSN7openpal5ArrayIN8opendnp34CellINS1_22AnalogOutputStatusSpecEEEtEE:
	.ascii	"N7openpal5ArrayIN8opendnp34CellINS1_22AnalogOutputS"
	.ascii	"tatusSpecEEEtEE\000"
	.weak	_ZTIN7openpal5ArrayIN8opendnp34CellINS1_22AnalogOutputStatusSpecEEEtEE
	.section	.data.rel.ro._ZTIN7openpal5ArrayIN8opendnp34CellINS1_22AnalogOutputStatusSpecEEEtEE,"awG",%progbits,_ZTIN7openpal5ArrayIN8opendnp34CellINS1_22AnalogOutputStatusSpecEEEtEE,comdat
	.align	2
	.type	_ZTIN7openpal5ArrayIN8opendnp34CellINS1_22AnalogOutputStatusSpecEEEtEE, %object
	.size	_ZTIN7openpal5ArrayIN8opendnp34CellINS1_22AnalogOutputStatusSpecEEEtEE, 24
_ZTIN7openpal5ArrayIN8opendnp34CellINS1_22AnalogOutputStatusSpecEEEtEE:
	.word	_ZTVN10__cxxabiv121__vmi_class_type_infoE+8
	.word	_ZTSN7openpal5ArrayIN8opendnp34CellINS1_22AnalogOutputStatusSpecEEEtEE
	.word	0
	.word	1
	.word	_ZTIN7openpal7HasSizeItEE
	.word	1026
	.weak	_ZTSN7openpal5ArrayIN8opendnp34CellINS1_19TimeAndIntervalSpecEEEtEE
	.section	.rodata._ZTSN7openpal5ArrayIN8opendnp34CellINS1_19TimeAndIntervalSpecEEEtEE,"aG",%progbits,_ZTSN7openpal5ArrayIN8opendnp34CellINS1_19TimeAndIntervalSpecEEEtEE,comdat
	.align	2
	.type	_ZTSN7openpal5ArrayIN8opendnp34CellINS1_19TimeAndIntervalSpecEEEtEE, %object
	.size	_ZTSN7openpal5ArrayIN8opendnp34CellINS1_19TimeAndIntervalSpecEEEtEE, 64
_ZTSN7openpal5ArrayIN8opendnp34CellINS1_19TimeAndIntervalSpecEEEtEE:
	.ascii	"N7openpal5ArrayIN8opendnp34CellINS1_19TimeAndInterv"
	.ascii	"alSpecEEEtEE\000"
	.weak	_ZTIN7openpal5ArrayIN8opendnp34CellINS1_19TimeAndIntervalSpecEEEtEE
	.section	.data.rel.ro._ZTIN7openpal5ArrayIN8opendnp34CellINS1_19TimeAndIntervalSpecEEEtEE,"awG",%progbits,_ZTIN7openpal5ArrayIN8opendnp34CellINS1_19TimeAndIntervalSpecEEEtEE,comdat
	.align	2
	.type	_ZTIN7openpal5ArrayIN8opendnp34CellINS1_19TimeAndIntervalSpecEEEtEE, %object
	.size	_ZTIN7openpal5ArrayIN8opendnp34CellINS1_19TimeAndIntervalSpecEEEtEE, 24
_ZTIN7openpal5ArrayIN8opendnp34CellINS1_19TimeAndIntervalSpecEEEtEE:
	.word	_ZTVN10__cxxabiv121__vmi_class_type_infoE+8
	.word	_ZTSN7openpal5ArrayIN8opendnp34CellINS1_19TimeAndIntervalSpecEEEtEE
	.word	0
	.word	1
	.word	_ZTIN7openpal7HasSizeItEE
	.word	1026
	.weak	_ZTVN7openpal5ArrayIN8opendnp34CellINS1_10BinarySpecEEEtEE
	.section	.data.rel.ro._ZTVN7openpal5ArrayIN8opendnp34CellINS1_10BinarySpecEEEtEE,"awG",%progbits,_ZTVN7openpal5ArrayIN8opendnp34CellINS1_10BinarySpecEEEtEE,comdat
	.align	2
	.type	_ZTVN7openpal5ArrayIN8opendnp34CellINS1_10BinarySpecEEEtEE, %object
	.size	_ZTVN7openpal5ArrayIN8opendnp34CellINS1_10BinarySpecEEEtEE, 16
_ZTVN7openpal5ArrayIN8opendnp34CellINS1_10BinarySpecEEEtEE:
	.word	0
	.word	_ZTIN7openpal5ArrayIN8opendnp34CellINS1_10BinarySpecEEEtEE
	.word	_ZN7openpal5ArrayIN8opendnp34CellINS1_10BinarySpecEEEtED1Ev
	.word	_ZN7openpal5ArrayIN8opendnp34CellINS1_10BinarySpecEEEtED0Ev
	.weak	_ZTVN7openpal5ArrayIN8opendnp34CellINS1_19DoubleBitBinarySpecEEEtEE
	.section	.data.rel.ro._ZTVN7openpal5ArrayIN8opendnp34CellINS1_19DoubleBitBinarySpecEEEtEE,"awG",%progbits,_ZTVN7openpal5ArrayIN8opendnp34CellINS1_19DoubleBitBinarySpecEEEtEE,comdat
	.align	2
	.type	_ZTVN7openpal5ArrayIN8opendnp34CellINS1_19DoubleBitBinarySpecEEEtEE, %object
	.size	_ZTVN7openpal5ArrayIN8opendnp34CellINS1_19DoubleBitBinarySpecEEEtEE, 16
_ZTVN7openpal5ArrayIN8opendnp34CellINS1_19DoubleBitBinarySpecEEEtEE:
	.word	0
	.word	_ZTIN7openpal5ArrayIN8opendnp34CellINS1_19DoubleBitBinarySpecEEEtEE
	.word	_ZN7openpal5ArrayIN8opendnp34CellINS1_19DoubleBitBinarySpecEEEtED1Ev
	.word	_ZN7openpal5ArrayIN8opendnp34CellINS1_19DoubleBitBinarySpecEEEtED0Ev
	.weak	_ZTVN7openpal5ArrayIN8opendnp34CellINS1_10AnalogSpecEEEtEE
	.section	.data.rel.ro._ZTVN7openpal5ArrayIN8opendnp34CellINS1_10AnalogSpecEEEtEE,"awG",%progbits,_ZTVN7openpal5ArrayIN8opendnp34CellINS1_10AnalogSpecEEEtEE,comdat
	.align	2
	.type	_ZTVN7openpal5ArrayIN8opendnp34CellINS1_10AnalogSpecEEEtEE, %object
	.size	_ZTVN7openpal5ArrayIN8opendnp34CellINS1_10AnalogSpecEEEtEE, 16
_ZTVN7openpal5ArrayIN8opendnp34CellINS1_10AnalogSpecEEEtEE:
	.word	0
	.word	_ZTIN7openpal5ArrayIN8opendnp34CellINS1_10AnalogSpecEEEtEE
	.word	_ZN7openpal5ArrayIN8opendnp34CellINS1_10AnalogSpecEEEtED1Ev
	.word	_ZN7openpal5ArrayIN8opendnp34CellINS1_10AnalogSpecEEEtED0Ev
	.weak	_ZTVN7openpal5ArrayIN8opendnp34CellINS1_11CounterSpecEEEtEE
	.section	.data.rel.ro._ZTVN7openpal5ArrayIN8opendnp34CellINS1_11CounterSpecEEEtEE,"awG",%progbits,_ZTVN7openpal5ArrayIN8opendnp34CellINS1_11CounterSpecEEEtEE,comdat
	.align	2
	.type	_ZTVN7openpal5ArrayIN8opendnp34CellINS1_11CounterSpecEEEtEE, %object
	.size	_ZTVN7openpal5ArrayIN8opendnp34CellINS1_11CounterSpecEEEtEE, 16
_ZTVN7openpal5ArrayIN8opendnp34CellINS1_11CounterSpecEEEtEE:
	.word	0
	.word	_ZTIN7openpal5ArrayIN8opendnp34CellINS1_11CounterSpecEEEtEE
	.word	_ZN7openpal5ArrayIN8opendnp34CellINS1_11CounterSpecEEEtED1Ev
	.word	_ZN7openpal5ArrayIN8opendnp34CellINS1_11CounterSpecEEEtED0Ev
	.weak	_ZTVN7openpal5ArrayIN8opendnp34CellINS1_17FrozenCounterSpecEEEtEE
	.section	.data.rel.ro._ZTVN7openpal5ArrayIN8opendnp34CellINS1_17FrozenCounterSpecEEEtEE,"awG",%progbits,_ZTVN7openpal5ArrayIN8opendnp34CellINS1_17FrozenCounterSpecEEEtEE,comdat
	.align	2
	.type	_ZTVN7openpal5ArrayIN8opendnp34CellINS1_17FrozenCounterSpecEEEtEE, %object
	.size	_ZTVN7openpal5ArrayIN8opendnp34CellINS1_17FrozenCounterSpecEEEtEE, 16
_ZTVN7openpal5ArrayIN8opendnp34CellINS1_17FrozenCounterSpecEEEtEE:
	.word	0
	.word	_ZTIN7openpal5ArrayIN8opendnp34CellINS1_17FrozenCounterSpecEEEtEE
	.word	_ZN7openpal5ArrayIN8opendnp34CellINS1_17FrozenCounterSpecEEEtED1Ev
	.word	_ZN7openpal5ArrayIN8opendnp34CellINS1_17FrozenCounterSpecEEEtED0Ev
	.weak	_ZTVN7openpal5ArrayIN8opendnp34CellINS1_22BinaryOutputStatusSpecEEEtEE
	.section	.data.rel.ro._ZTVN7openpal5ArrayIN8opendnp34CellINS1_22BinaryOutputStatusSpecEEEtEE,"awG",%progbits,_ZTVN7openpal5ArrayIN8opendnp34CellINS1_22BinaryOutputStatusSpecEEEtEE,comdat
	.align	2
	.type	_ZTVN7openpal5ArrayIN8opendnp34CellINS1_22BinaryOutputStatusSpecEEEtEE, %object
	.size	_ZTVN7openpal5ArrayIN8opendnp34CellINS1_22BinaryOutputStatusSpecEEEtEE, 16
_ZTVN7openpal5ArrayIN8opendnp34CellINS1_22BinaryOutputStatusSpecEEEtEE:
	.word	0
	.word	_ZTIN7openpal5ArrayIN8opendnp34CellINS1_22BinaryOutputStatusSpecEEEtEE
	.word	_ZN7openpal5ArrayIN8opendnp34CellINS1_22BinaryOutputStatusSpecEEEtED1Ev
	.word	_ZN7openpal5ArrayIN8opendnp34CellINS1_22BinaryOutputStatusSpecEEEtED0Ev
	.weak	_ZTVN7openpal5ArrayIN8opendnp34CellINS1_22AnalogOutputStatusSpecEEEtEE
	.section	.data.rel.ro._ZTVN7openpal5ArrayIN8opendnp34CellINS1_22AnalogOutputStatusSpecEEEtEE,"awG",%progbits,_ZTVN7openpal5ArrayIN8opendnp34CellINS1_22AnalogOutputStatusSpecEEEtEE,comdat
	.align	2
	.type	_ZTVN7openpal5ArrayIN8opendnp34CellINS1_22AnalogOutputStatusSpecEEEtEE, %object
	.size	_ZTVN7openpal5ArrayIN8opendnp34CellINS1_22AnalogOutputStatusSpecEEEtEE, 16
_ZTVN7openpal5ArrayIN8opendnp34CellINS1_22AnalogOutputStatusSpecEEEtEE:
	.word	0
	.word	_ZTIN7openpal5ArrayIN8opendnp34CellINS1_22AnalogOutputStatusSpecEEEtEE
	.word	_ZN7openpal5ArrayIN8opendnp34CellINS1_22AnalogOutputStatusSpecEEEtED1Ev
	.word	_ZN7openpal5ArrayIN8opendnp34CellINS1_22AnalogOutputStatusSpecEEEtED0Ev
	.weak	_ZTVN7openpal5ArrayIN8opendnp34CellINS1_19TimeAndIntervalSpecEEEtEE
	.section	.data.rel.ro._ZTVN7openpal5ArrayIN8opendnp34CellINS1_19TimeAndIntervalSpecEEEtEE,"awG",%progbits,_ZTVN7openpal5ArrayIN8opendnp34CellINS1_19TimeAndIntervalSpecEEEtEE,comdat
	.align	2
	.type	_ZTVN7openpal5ArrayIN8opendnp34CellINS1_19TimeAndIntervalSpecEEEtEE, %object
	.size	_ZTVN7openpal5ArrayIN8opendnp34CellINS1_19TimeAndIntervalSpecEEEtEE, 16
_ZTVN7openpal5ArrayIN8opendnp34CellINS1_19TimeAndIntervalSpecEEEtEE:
	.word	0
	.word	_ZTIN7openpal5ArrayIN8opendnp34CellINS1_19TimeAndIntervalSpecEEEtEE
	.word	_ZN7openpal5ArrayIN8opendnp34CellINS1_19TimeAndIntervalSpecEEEtED1Ev
	.word	_ZN7openpal5ArrayIN8opendnp34CellINS1_19TimeAndIntervalSpecEEEtED0Ev
	.ident	"GCC: (Raspbian 6.3.0-18+rpi1+deb9u1) 6.3.0 20170516"
	.section	.note.GNU-stack,"",%progbits
