	.arch armv6
	.eabi_attribute 28, 1
	.eabi_attribute 20, 1
	.eabi_attribute 21, 1
	.eabi_attribute 23, 3
	.eabi_attribute 24, 1
	.eabi_attribute 25, 1
	.eabi_attribute 26, 2
	.eabi_attribute 30, 2
	.eabi_attribute 34, 1
	.eabi_attribute 18, 4
	.file	"TCPClient.cpp"
	.section	.text._ZNK9__gnu_cxx24__concurrence_lock_error4whatEv,"axG",%progbits,_ZNK9__gnu_cxx24__concurrence_lock_error4whatEv,comdat
	.align	2
	.weak	_ZNK9__gnu_cxx24__concurrence_lock_error4whatEv
	.syntax unified
	.arm
	.fpu vfp
	.type	_ZNK9__gnu_cxx24__concurrence_lock_error4whatEv, %function
_ZNK9__gnu_cxx24__concurrence_lock_error4whatEv:
	.fnstart
.LFB1433:
	@ args = 0, pretend = 0, frame = 0
	@ frame_needed = 0, uses_anonymous_args = 0
	@ link register save eliminated.
	ldr	r0, .L2
.LPIC0:
	add	r0, pc, r0
	bx	lr
.L3:
	.align	2
.L2:
	.word	.LC0-(.LPIC0+8)
	.cantunwind
	.fnend
	.size	_ZNK9__gnu_cxx24__concurrence_lock_error4whatEv, .-_ZNK9__gnu_cxx24__concurrence_lock_error4whatEv
	.section	.text._ZNK9__gnu_cxx26__concurrence_unlock_error4whatEv,"axG",%progbits,_ZNK9__gnu_cxx26__concurrence_unlock_error4whatEv,comdat
	.align	2
	.weak	_ZNK9__gnu_cxx26__concurrence_unlock_error4whatEv
	.syntax unified
	.arm
	.fpu vfp
	.type	_ZNK9__gnu_cxx26__concurrence_unlock_error4whatEv, %function
_ZNK9__gnu_cxx26__concurrence_unlock_error4whatEv:
	.fnstart
.LFB1434:
	@ args = 0, pretend = 0, frame = 0
	@ frame_needed = 0, uses_anonymous_args = 0
	@ link register save eliminated.
	ldr	r0, .L5
.LPIC1:
	add	r0, pc, r0
	bx	lr
.L6:
	.align	2
.L5:
	.word	.LC1-(.LPIC1+8)
	.cantunwind
	.fnend
	.size	_ZNK9__gnu_cxx26__concurrence_unlock_error4whatEv, .-_ZNK9__gnu_cxx26__concurrence_unlock_error4whatEv
	.section	.text._ZNK4asio6detail15system_category4nameEv,"axG",%progbits,_ZNK4asio6detail15system_category4nameEv,comdat
	.align	2
	.weak	_ZNK4asio6detail15system_category4nameEv
	.syntax unified
	.arm
	.fpu vfp
	.type	_ZNK4asio6detail15system_category4nameEv, %function
_ZNK4asio6detail15system_category4nameEv:
	.fnstart
.LFB2057:
	@ args = 0, pretend = 0, frame = 0
	@ frame_needed = 0, uses_anonymous_args = 0
	@ link register save eliminated.
	ldr	r0, .L8
.LPIC2:
	add	r0, pc, r0
	bx	lr
.L9:
	.align	2
.L8:
	.word	.LC2-(.LPIC2+8)
	.cantunwind
	.fnend
	.size	_ZNK4asio6detail15system_category4nameEv, .-_ZNK4asio6detail15system_category4nameEv
	.section	.text._ZNK4asio5error6detail14netdb_category4nameEv,"axG",%progbits,_ZNK4asio5error6detail14netdb_category4nameEv,comdat
	.align	2
	.weak	_ZNK4asio5error6detail14netdb_category4nameEv
	.syntax unified
	.arm
	.fpu vfp
	.type	_ZNK4asio5error6detail14netdb_category4nameEv, %function
_ZNK4asio5error6detail14netdb_category4nameEv:
	.fnstart
.LFB2078:
	@ args = 0, pretend = 0, frame = 0
	@ frame_needed = 0, uses_anonymous_args = 0
	@ link register save eliminated.
	ldr	r0, .L11
.LPIC3:
	add	r0, pc, r0
	bx	lr
.L12:
	.align	2
.L11:
	.word	.LC3-(.LPIC3+8)
	.cantunwind
	.fnend
	.size	_ZNK4asio5error6detail14netdb_category4nameEv, .-_ZNK4asio5error6detail14netdb_category4nameEv
	.section	.text._ZNK4asio5error6detail17addrinfo_category4nameEv,"axG",%progbits,_ZNK4asio5error6detail17addrinfo_category4nameEv,comdat
	.align	2
	.weak	_ZNK4asio5error6detail17addrinfo_category4nameEv
	.syntax unified
	.arm
	.fpu vfp
	.type	_ZNK4asio5error6detail17addrinfo_category4nameEv, %function
_ZNK4asio5error6detail17addrinfo_category4nameEv:
	.fnstart
.LFB2084:
	@ args = 0, pretend = 0, frame = 0
	@ frame_needed = 0, uses_anonymous_args = 0
	@ link register save eliminated.
	ldr	r0, .L14
.LPIC4:
	add	r0, pc, r0
	bx	lr
.L15:
	.align	2
.L14:
	.word	.LC4-(.LPIC4+8)
	.cantunwind
	.fnend
	.size	_ZNK4asio5error6detail17addrinfo_category4nameEv, .-_ZNK4asio5error6detail17addrinfo_category4nameEv
	.section	.text._ZNK4asio5error6detail13misc_category4nameEv,"axG",%progbits,_ZNK4asio5error6detail13misc_category4nameEv,comdat
	.align	2
	.weak	_ZNK4asio5error6detail13misc_category4nameEv
	.syntax unified
	.arm
	.fpu vfp
	.type	_ZNK4asio5error6detail13misc_category4nameEv, %function
_ZNK4asio5error6detail13misc_category4nameEv:
	.fnstart
.LFB2090:
	@ args = 0, pretend = 0, frame = 0
	@ frame_needed = 0, uses_anonymous_args = 0
	@ link register save eliminated.
	ldr	r0, .L17
.LPIC5:
	add	r0, pc, r0
	bx	lr
.L18:
	.align	2
.L17:
	.word	.LC5-(.LPIC5+8)
	.cantunwind
	.fnend
	.size	_ZNK4asio5error6detail13misc_category4nameEv, .-_ZNK4asio5error6detail13misc_category4nameEv
	.section	.text._ZN4asio10io_service7service12fork_serviceENS0_10fork_eventE,"axG",%progbits,_ZN4asio10io_service7service12fork_serviceENS0_10fork_eventE,comdat
	.align	2
	.weak	_ZN4asio10io_service7service12fork_serviceENS0_10fork_eventE
	.syntax unified
	.arm
	.fpu vfp
	.type	_ZN4asio10io_service7service12fork_serviceENS0_10fork_eventE, %function
_ZN4asio10io_service7service12fork_serviceENS0_10fork_eventE:
	.fnstart
.LFB3171:
	@ args = 0, pretend = 0, frame = 0
	@ frame_needed = 0, uses_anonymous_args = 0
	@ link register save eliminated.
	bx	lr
	.cantunwind
	.fnend
	.size	_ZN4asio10io_service7service12fork_serviceENS0_10fork_eventE, .-_ZN4asio10io_service7service12fork_serviceENS0_10fork_eventE
	.section	.text._ZNSt15_Sp_counted_ptrIPSt6vectorIN4asio2ip20basic_resolver_entryINS2_3tcpEEESaIS5_EELN9__gnu_cxx12_Lock_policyE1EED2Ev,"axG",%progbits,_ZNSt15_Sp_counted_ptrIPSt6vectorIN4asio2ip20basic_resolver_entryINS2_3tcpEEESaIS5_EELN9__gnu_cxx12_Lock_policyE1EED5Ev,comdat
	.align	2
	.weak	_ZNSt15_Sp_counted_ptrIPSt6vectorIN4asio2ip20basic_resolver_entryINS2_3tcpEEESaIS5_EELN9__gnu_cxx12_Lock_policyE1EED2Ev
	.syntax unified
	.arm
	.fpu vfp
	.type	_ZNSt15_Sp_counted_ptrIPSt6vectorIN4asio2ip20basic_resolver_entryINS2_3tcpEEESaIS5_EELN9__gnu_cxx12_Lock_policyE1EED2Ev, %function
_ZNSt15_Sp_counted_ptrIPSt6vectorIN4asio2ip20basic_resolver_entryINS2_3tcpEEESaIS5_EELN9__gnu_cxx12_Lock_policyE1EED2Ev:
	.fnstart
.LFB9696:
	@ args = 0, pretend = 0, frame = 0
	@ frame_needed = 0, uses_anonymous_args = 0
	@ link register save eliminated.
	bx	lr
	.cantunwind
	.fnend
	.size	_ZNSt15_Sp_counted_ptrIPSt6vectorIN4asio2ip20basic_resolver_entryINS2_3tcpEEESaIS5_EELN9__gnu_cxx12_Lock_policyE1EED2Ev, .-_ZNSt15_Sp_counted_ptrIPSt6vectorIN4asio2ip20basic_resolver_entryINS2_3tcpEEESaIS5_EELN9__gnu_cxx12_Lock_policyE1EED2Ev
	.weak	_ZNSt15_Sp_counted_ptrIPSt6vectorIN4asio2ip20basic_resolver_entryINS2_3tcpEEESaIS5_EELN9__gnu_cxx12_Lock_policyE1EED1Ev
	.set	_ZNSt15_Sp_counted_ptrIPSt6vectorIN4asio2ip20basic_resolver_entryINS2_3tcpEEESaIS5_EELN9__gnu_cxx12_Lock_policyE1EED1Ev,_ZNSt15_Sp_counted_ptrIPSt6vectorIN4asio2ip20basic_resolver_entryINS2_3tcpEEESaIS5_EELN9__gnu_cxx12_Lock_policyE1EED2Ev
	.section	.text._ZN4asio6detail12posix_thread4funcINS0_21resolver_service_base22work_io_service_runnerEED2Ev,"axG",%progbits,_ZN4asio6detail12posix_thread4funcINS0_21resolver_service_base22work_io_service_runnerEED5Ev,comdat
	.align	2
	.weak	_ZN4asio6detail12posix_thread4funcINS0_21resolver_service_base22work_io_service_runnerEED2Ev
	.syntax unified
	.arm
	.fpu vfp
	.type	_ZN4asio6detail12posix_thread4funcINS0_21resolver_service_base22work_io_service_runnerEED2Ev, %function
_ZN4asio6detail12posix_thread4funcINS0_21resolver_service_base22work_io_service_runnerEED2Ev:
	.fnstart
.LFB9700:
	@ args = 0, pretend = 0, frame = 0
	@ frame_needed = 0, uses_anonymous_args = 0
	@ link register save eliminated.
	bx	lr
	.cantunwind
	.fnend
	.size	_ZN4asio6detail12posix_thread4funcINS0_21resolver_service_base22work_io_service_runnerEED2Ev, .-_ZN4asio6detail12posix_thread4funcINS0_21resolver_service_base22work_io_service_runnerEED2Ev
	.weak	_ZN4asio6detail12posix_thread4funcINS0_21resolver_service_base22work_io_service_runnerEED1Ev
	.set	_ZN4asio6detail12posix_thread4funcINS0_21resolver_service_base22work_io_service_runnerEED1Ev,_ZN4asio6detail12posix_thread4funcINS0_21resolver_service_base22work_io_service_runnerEED2Ev
	.section	.text._ZN4asio21stream_socket_serviceINS_2ip3tcpEED2Ev,"axG",%progbits,_ZN4asio21stream_socket_serviceINS_2ip3tcpEED5Ev,comdat
	.align	2
	.weak	_ZN4asio21stream_socket_serviceINS_2ip3tcpEED2Ev
	.syntax unified
	.arm
	.fpu vfp
	.type	_ZN4asio21stream_socket_serviceINS_2ip3tcpEED2Ev, %function
_ZN4asio21stream_socket_serviceINS_2ip3tcpEED2Ev:
	.fnstart
.LFB9704:
	@ args = 0, pretend = 0, frame = 0
	@ frame_needed = 0, uses_anonymous_args = 0
	@ link register save eliminated.
	bx	lr
	.cantunwind
	.fnend
	.size	_ZN4asio21stream_socket_serviceINS_2ip3tcpEED2Ev, .-_ZN4asio21stream_socket_serviceINS_2ip3tcpEED2Ev
	.weak	_ZN4asio21stream_socket_serviceINS_2ip3tcpEED1Ev
	.set	_ZN4asio21stream_socket_serviceINS_2ip3tcpEED1Ev,_ZN4asio21stream_socket_serviceINS_2ip3tcpEED2Ev
	.section	.text._ZN4asio6detail10service_idINS0_13epoll_reactorEED2Ev,"axG",%progbits,_ZN4asio6detail10service_idINS0_13epoll_reactorEED5Ev,comdat
	.align	2
	.weak	_ZN4asio6detail10service_idINS0_13epoll_reactorEED2Ev
	.syntax unified
	.arm
	.fpu vfp
	.type	_ZN4asio6detail10service_idINS0_13epoll_reactorEED2Ev, %function
_ZN4asio6detail10service_idINS0_13epoll_reactorEED2Ev:
	.fnstart
.LFB9784:
	@ args = 0, pretend = 0, frame = 0
	@ frame_needed = 0, uses_anonymous_args = 0
	@ link register save eliminated.
	bx	lr
	.cantunwind
	.fnend
	.size	_ZN4asio6detail10service_idINS0_13epoll_reactorEED2Ev, .-_ZN4asio6detail10service_idINS0_13epoll_reactorEED2Ev
	.weak	_ZN4asio6detail10service_idINS0_13epoll_reactorEED1Ev
	.set	_ZN4asio6detail10service_idINS0_13epoll_reactorEED1Ev,_ZN4asio6detail10service_idINS0_13epoll_reactorEED2Ev
	.section	.text._ZN4asio6detail10service_idINS0_15task_io_serviceEED2Ev,"axG",%progbits,_ZN4asio6detail10service_idINS0_15task_io_serviceEED5Ev,comdat
	.align	2
	.weak	_ZN4asio6detail10service_idINS0_15task_io_serviceEED2Ev
	.syntax unified
	.arm
	.fpu vfp
	.type	_ZN4asio6detail10service_idINS0_15task_io_serviceEED2Ev, %function
_ZN4asio6detail10service_idINS0_15task_io_serviceEED2Ev:
	.fnstart
.LFB9787:
	@ args = 0, pretend = 0, frame = 0
	@ frame_needed = 0, uses_anonymous_args = 0
	@ link register save eliminated.
	bx	lr
	.cantunwind
	.fnend
	.size	_ZN4asio6detail10service_idINS0_15task_io_serviceEED2Ev, .-_ZN4asio6detail10service_idINS0_15task_io_serviceEED2Ev
	.weak	_ZN4asio6detail10service_idINS0_15task_io_serviceEED1Ev
	.set	_ZN4asio6detail10service_idINS0_15task_io_serviceEED1Ev,_ZN4asio6detail10service_idINS0_15task_io_serviceEED2Ev
	.section	.text._ZN4asio6detail10service_idINS0_14strand_serviceEED2Ev,"axG",%progbits,_ZN4asio6detail10service_idINS0_14strand_serviceEED5Ev,comdat
	.align	2
	.weak	_ZN4asio6detail10service_idINS0_14strand_serviceEED2Ev
	.syntax unified
	.arm
	.fpu vfp
	.type	_ZN4asio6detail10service_idINS0_14strand_serviceEED2Ev, %function
_ZN4asio6detail10service_idINS0_14strand_serviceEED2Ev:
	.fnstart
.LFB9793:
	@ args = 0, pretend = 0, frame = 0
	@ frame_needed = 0, uses_anonymous_args = 0
	@ link register save eliminated.
	bx	lr
	.cantunwind
	.fnend
	.size	_ZN4asio6detail10service_idINS0_14strand_serviceEED2Ev, .-_ZN4asio6detail10service_idINS0_14strand_serviceEED2Ev
	.weak	_ZN4asio6detail10service_idINS0_14strand_serviceEED1Ev
	.set	_ZN4asio6detail10service_idINS0_14strand_serviceEED1Ev,_ZN4asio6detail10service_idINS0_14strand_serviceEED2Ev
	.section	.text._ZN4asio6detail10service_idINS_2ip16resolver_serviceINS2_3tcpEEEED2Ev,"axG",%progbits,_ZN4asio6detail10service_idINS_2ip16resolver_serviceINS2_3tcpEEEED5Ev,comdat
	.align	2
	.weak	_ZN4asio6detail10service_idINS_2ip16resolver_serviceINS2_3tcpEEEED2Ev
	.syntax unified
	.arm
	.fpu vfp
	.type	_ZN4asio6detail10service_idINS_2ip16resolver_serviceINS2_3tcpEEEED2Ev, %function
_ZN4asio6detail10service_idINS_2ip16resolver_serviceINS2_3tcpEEEED2Ev:
	.fnstart
.LFB9796:
	@ args = 0, pretend = 0, frame = 0
	@ frame_needed = 0, uses_anonymous_args = 0
	@ link register save eliminated.
	bx	lr
	.cantunwind
	.fnend
	.size	_ZN4asio6detail10service_idINS_2ip16resolver_serviceINS2_3tcpEEEED2Ev, .-_ZN4asio6detail10service_idINS_2ip16resolver_serviceINS2_3tcpEEEED2Ev
	.weak	_ZN4asio6detail10service_idINS_2ip16resolver_serviceINS2_3tcpEEEED1Ev
	.set	_ZN4asio6detail10service_idINS_2ip16resolver_serviceINS2_3tcpEEEED1Ev,_ZN4asio6detail10service_idINS_2ip16resolver_serviceINS2_3tcpEEEED2Ev
	.section	.text._ZN4asio6detail10service_idINS_21stream_socket_serviceINS_2ip3tcpEEEED2Ev,"axG",%progbits,_ZN4asio6detail10service_idINS_21stream_socket_serviceINS_2ip3tcpEEEED5Ev,comdat
	.align	2
	.weak	_ZN4asio6detail10service_idINS_21stream_socket_serviceINS_2ip3tcpEEEED2Ev
	.syntax unified
	.arm
	.fpu vfp
	.type	_ZN4asio6detail10service_idINS_21stream_socket_serviceINS_2ip3tcpEEEED2Ev, %function
_ZN4asio6detail10service_idINS_21stream_socket_serviceINS_2ip3tcpEEEED2Ev:
	.fnstart
.LFB9799:
	@ args = 0, pretend = 0, frame = 0
	@ frame_needed = 0, uses_anonymous_args = 0
	@ link register save eliminated.
	bx	lr
	.cantunwind
	.fnend
	.size	_ZN4asio6detail10service_idINS_21stream_socket_serviceINS_2ip3tcpEEEED2Ev, .-_ZN4asio6detail10service_idINS_21stream_socket_serviceINS_2ip3tcpEEEED2Ev
	.weak	_ZN4asio6detail10service_idINS_21stream_socket_serviceINS_2ip3tcpEEEED1Ev
	.set	_ZN4asio6detail10service_idINS_21stream_socket_serviceINS_2ip3tcpEEEED1Ev,_ZN4asio6detail10service_idINS_21stream_socket_serviceINS_2ip3tcpEEEED2Ev
	.section	.text._ZNSt15_Sp_counted_ptrIPSt6vectorIN4asio2ip20basic_resolver_entryINS2_3tcpEEESaIS5_EELN9__gnu_cxx12_Lock_policyE1EE14_M_get_deleterERKSt9type_info,"axG",%progbits,_ZNSt15_Sp_counted_ptrIPSt6vectorIN4asio2ip20basic_resolver_entryINS2_3tcpEEESaIS5_EELN9__gnu_cxx12_Lock_policyE1EE14_M_get_deleterERKSt9type_info,comdat
	.align	2
	.weak	_ZNSt15_Sp_counted_ptrIPSt6vectorIN4asio2ip20basic_resolver_entryINS2_3tcpEEESaIS5_EELN9__gnu_cxx12_Lock_policyE1EE14_M_get_deleterERKSt9type_info
	.syntax unified
	.arm
	.fpu vfp
	.type	_ZNSt15_Sp_counted_ptrIPSt6vectorIN4asio2ip20basic_resolver_entryINS2_3tcpEEESaIS5_EELN9__gnu_cxx12_Lock_policyE1EE14_M_get_deleterERKSt9type_info, %function
_ZNSt15_Sp_counted_ptrIPSt6vectorIN4asio2ip20basic_resolver_entryINS2_3tcpEEESaIS5_EELN9__gnu_cxx12_Lock_policyE1EE14_M_get_deleterERKSt9type_info:
	.fnstart
.LFB9803:
	@ args = 0, pretend = 0, frame = 0
	@ frame_needed = 0, uses_anonymous_args = 0
	@ link register save eliminated.
	mov	r0, #0
	bx	lr
	.cantunwind
	.fnend
	.size	_ZNSt15_Sp_counted_ptrIPSt6vectorIN4asio2ip20basic_resolver_entryINS2_3tcpEEESaIS5_EELN9__gnu_cxx12_Lock_policyE1EE14_M_get_deleterERKSt9type_info, .-_ZNSt15_Sp_counted_ptrIPSt6vectorIN4asio2ip20basic_resolver_entryINS2_3tcpEEESaIS5_EELN9__gnu_cxx12_Lock_policyE1EE14_M_get_deleterERKSt9type_info
	.section	.text._ZNSt19_Sp_counted_deleterIPvN4asio6detail10socket_ops12noop_deleterESaIvELN9__gnu_cxx12_Lock_policyE1EED2Ev,"axG",%progbits,_ZNSt19_Sp_counted_deleterIPvN4asio6detail10socket_ops12noop_deleterESaIvELN9__gnu_cxx12_Lock_policyE1EED5Ev,comdat
	.align	2
	.weak	_ZNSt19_Sp_counted_deleterIPvN4asio6detail10socket_ops12noop_deleterESaIvELN9__gnu_cxx12_Lock_policyE1EED2Ev
	.syntax unified
	.arm
	.fpu vfp
	.type	_ZNSt19_Sp_counted_deleterIPvN4asio6detail10socket_ops12noop_deleterESaIvELN9__gnu_cxx12_Lock_policyE1EED2Ev, %function
_ZNSt19_Sp_counted_deleterIPvN4asio6detail10socket_ops12noop_deleterESaIvELN9__gnu_cxx12_Lock_policyE1EED2Ev:
	.fnstart
.LFB9840:
	@ args = 0, pretend = 0, frame = 0
	@ frame_needed = 0, uses_anonymous_args = 0
	@ link register save eliminated.
	bx	lr
	.cantunwind
	.fnend
	.size	_ZNSt19_Sp_counted_deleterIPvN4asio6detail10socket_ops12noop_deleterESaIvELN9__gnu_cxx12_Lock_policyE1EED2Ev, .-_ZNSt19_Sp_counted_deleterIPvN4asio6detail10socket_ops12noop_deleterESaIvELN9__gnu_cxx12_Lock_policyE1EED2Ev
	.weak	_ZNSt19_Sp_counted_deleterIPvN4asio6detail10socket_ops12noop_deleterESaIvELN9__gnu_cxx12_Lock_policyE1EED1Ev
	.set	_ZNSt19_Sp_counted_deleterIPvN4asio6detail10socket_ops12noop_deleterESaIvELN9__gnu_cxx12_Lock_policyE1EED1Ev,_ZNSt19_Sp_counted_deleterIPvN4asio6detail10socket_ops12noop_deleterESaIvELN9__gnu_cxx12_Lock_policyE1EED2Ev
	.section	.text._ZNSt19_Sp_counted_deleterIPvN4asio6detail10socket_ops12noop_deleterESaIvELN9__gnu_cxx12_Lock_policyE1EE10_M_disposeEv,"axG",%progbits,_ZNSt19_Sp_counted_deleterIPvN4asio6detail10socket_ops12noop_deleterESaIvELN9__gnu_cxx12_Lock_policyE1EE10_M_disposeEv,comdat
	.align	2
	.weak	_ZNSt19_Sp_counted_deleterIPvN4asio6detail10socket_ops12noop_deleterESaIvELN9__gnu_cxx12_Lock_policyE1EE10_M_disposeEv
	.syntax unified
	.arm
	.fpu vfp
	.type	_ZNSt19_Sp_counted_deleterIPvN4asio6detail10socket_ops12noop_deleterESaIvELN9__gnu_cxx12_Lock_policyE1EE10_M_disposeEv, %function
_ZNSt19_Sp_counted_deleterIPvN4asio6detail10socket_ops12noop_deleterESaIvELN9__gnu_cxx12_Lock_policyE1EE10_M_disposeEv:
	.fnstart
.LFB9843:
	@ args = 0, pretend = 0, frame = 0
	@ frame_needed = 0, uses_anonymous_args = 0
	@ link register save eliminated.
	bx	lr
	.cantunwind
	.fnend
	.size	_ZNSt19_Sp_counted_deleterIPvN4asio6detail10socket_ops12noop_deleterESaIvELN9__gnu_cxx12_Lock_policyE1EE10_M_disposeEv, .-_ZNSt19_Sp_counted_deleterIPvN4asio6detail10socket_ops12noop_deleterESaIvELN9__gnu_cxx12_Lock_policyE1EE10_M_disposeEv
	.section	.text._ZN4asio21stream_socket_serviceINS_2ip3tcpEE16shutdown_serviceEv,"axG",%progbits,_ZN4asio21stream_socket_serviceINS_2ip3tcpEE16shutdown_serviceEv,comdat
	.align	2
	.weak	_ZN4asio21stream_socket_serviceINS_2ip3tcpEE16shutdown_serviceEv
	.syntax unified
	.arm
	.fpu vfp
	.type	_ZN4asio21stream_socket_serviceINS_2ip3tcpEE16shutdown_serviceEv, %function
_ZN4asio21stream_socket_serviceINS_2ip3tcpEE16shutdown_serviceEv:
	.fnstart
.LFB9847:
	@ args = 0, pretend = 0, frame = 0
	@ frame_needed = 0, uses_anonymous_args = 0
	@ link register save eliminated.
	bx	lr
	.cantunwind
	.fnend
	.size	_ZN4asio21stream_socket_serviceINS_2ip3tcpEE16shutdown_serviceEv, .-_ZN4asio21stream_socket_serviceINS_2ip3tcpEE16shutdown_serviceEv
	.section	.text._ZN4asio6detail12posix_thread4funcINS0_21resolver_service_base22work_io_service_runnerEED0Ev,"axG",%progbits,_ZN4asio6detail12posix_thread4funcINS0_21resolver_service_base22work_io_service_runnerEED5Ev,comdat
	.align	2
	.weak	_ZN4asio6detail12posix_thread4funcINS0_21resolver_service_base22work_io_service_runnerEED0Ev
	.syntax unified
	.arm
	.fpu vfp
	.type	_ZN4asio6detail12posix_thread4funcINS0_21resolver_service_base22work_io_service_runnerEED0Ev, %function
_ZN4asio6detail12posix_thread4funcINS0_21resolver_service_base22work_io_service_runnerEED0Ev:
	.fnstart
.LFB9702:
	@ args = 0, pretend = 0, frame = 0
	@ frame_needed = 0, uses_anonymous_args = 0
	push	{r4, lr}
	mov	r1, #8
	mov	r4, r0
	bl	_ZdlPvj(PLT)
	mov	r0, r4
	pop	{r4, pc}
	.cantunwind
	.fnend
	.size	_ZN4asio6detail12posix_thread4funcINS0_21resolver_service_base22work_io_service_runnerEED0Ev, .-_ZN4asio6detail12posix_thread4funcINS0_21resolver_service_base22work_io_service_runnerEED0Ev
	.section	.text._ZNSt15_Sp_counted_ptrIPSt6vectorIN4asio2ip20basic_resolver_entryINS2_3tcpEEESaIS5_EELN9__gnu_cxx12_Lock_policyE1EED0Ev,"axG",%progbits,_ZNSt15_Sp_counted_ptrIPSt6vectorIN4asio2ip20basic_resolver_entryINS2_3tcpEEESaIS5_EELN9__gnu_cxx12_Lock_policyE1EED5Ev,comdat
	.align	2
	.weak	_ZNSt15_Sp_counted_ptrIPSt6vectorIN4asio2ip20basic_resolver_entryINS2_3tcpEEESaIS5_EELN9__gnu_cxx12_Lock_policyE1EED0Ev
	.syntax unified
	.arm
	.fpu vfp
	.type	_ZNSt15_Sp_counted_ptrIPSt6vectorIN4asio2ip20basic_resolver_entryINS2_3tcpEEESaIS5_EELN9__gnu_cxx12_Lock_policyE1EED0Ev, %function
_ZNSt15_Sp_counted_ptrIPSt6vectorIN4asio2ip20basic_resolver_entryINS2_3tcpEEESaIS5_EELN9__gnu_cxx12_Lock_policyE1EED0Ev:
	.fnstart
.LFB9698:
	@ args = 0, pretend = 0, frame = 0
	@ frame_needed = 0, uses_anonymous_args = 0
	push	{r4, lr}
	mov	r1, #40
	mov	r4, r0
	bl	_ZdlPvj(PLT)
	mov	r0, r4
	pop	{r4, pc}
	.cantunwind
	.fnend
	.size	_ZNSt15_Sp_counted_ptrIPSt6vectorIN4asio2ip20basic_resolver_entryINS2_3tcpEEESaIS5_EELN9__gnu_cxx12_Lock_policyE1EED0Ev, .-_ZNSt15_Sp_counted_ptrIPSt6vectorIN4asio2ip20basic_resolver_entryINS2_3tcpEEESaIS5_EELN9__gnu_cxx12_Lock_policyE1EED0Ev
	.section	.text._ZNSt15_Sp_counted_ptrIPSt6vectorIN4asio2ip20basic_resolver_entryINS2_3tcpEEESaIS5_EELN9__gnu_cxx12_Lock_policyE1EE10_M_destroyEv,"axG",%progbits,_ZNSt15_Sp_counted_ptrIPSt6vectorIN4asio2ip20basic_resolver_entryINS2_3tcpEEESaIS5_EELN9__gnu_cxx12_Lock_policyE1EE10_M_destroyEv,comdat
	.align	2
	.weak	_ZNSt15_Sp_counted_ptrIPSt6vectorIN4asio2ip20basic_resolver_entryINS2_3tcpEEESaIS5_EELN9__gnu_cxx12_Lock_policyE1EE10_M_destroyEv
	.syntax unified
	.arm
	.fpu vfp
	.type	_ZNSt15_Sp_counted_ptrIPSt6vectorIN4asio2ip20basic_resolver_entryINS2_3tcpEEESaIS5_EELN9__gnu_cxx12_Lock_policyE1EE10_M_destroyEv, %function
_ZNSt15_Sp_counted_ptrIPSt6vectorIN4asio2ip20basic_resolver_entryINS2_3tcpEEESaIS5_EELN9__gnu_cxx12_Lock_policyE1EE10_M_destroyEv:
	.fnstart
.LFB9802:
	@ args = 0, pretend = 0, frame = 0
	@ frame_needed = 0, uses_anonymous_args = 0
	@ link register save eliminated.
	mov	r1, #40
	b	_ZdlPvj(PLT)
	.cantunwind
	.fnend
	.size	_ZNSt15_Sp_counted_ptrIPSt6vectorIN4asio2ip20basic_resolver_entryINS2_3tcpEEESaIS5_EELN9__gnu_cxx12_Lock_policyE1EE10_M_destroyEv, .-_ZNSt15_Sp_counted_ptrIPSt6vectorIN4asio2ip20basic_resolver_entryINS2_3tcpEEESaIS5_EELN9__gnu_cxx12_Lock_policyE1EE10_M_destroyEv
	.section	.text._ZNSt19_Sp_counted_deleterIPvN4asio6detail10socket_ops12noop_deleterESaIvELN9__gnu_cxx12_Lock_policyE1EED0Ev,"axG",%progbits,_ZNSt19_Sp_counted_deleterIPvN4asio6detail10socket_ops12noop_deleterESaIvELN9__gnu_cxx12_Lock_policyE1EED5Ev,comdat
	.align	2
	.weak	_ZNSt19_Sp_counted_deleterIPvN4asio6detail10socket_ops12noop_deleterESaIvELN9__gnu_cxx12_Lock_policyE1EED0Ev
	.syntax unified
	.arm
	.fpu vfp
	.type	_ZNSt19_Sp_counted_deleterIPvN4asio6detail10socket_ops12noop_deleterESaIvELN9__gnu_cxx12_Lock_policyE1EED0Ev, %function
_ZNSt19_Sp_counted_deleterIPvN4asio6detail10socket_ops12noop_deleterESaIvELN9__gnu_cxx12_Lock_policyE1EED0Ev:
	.fnstart
.LFB9842:
	@ args = 0, pretend = 0, frame = 0
	@ frame_needed = 0, uses_anonymous_args = 0
	push	{r4, lr}
	mov	r1, #40
	mov	r4, r0
	bl	_ZdlPvj(PLT)
	mov	r0, r4
	pop	{r4, pc}
	.cantunwind
	.fnend
	.size	_ZNSt19_Sp_counted_deleterIPvN4asio6detail10socket_ops12noop_deleterESaIvELN9__gnu_cxx12_Lock_policyE1EED0Ev, .-_ZNSt19_Sp_counted_deleterIPvN4asio6detail10socket_ops12noop_deleterESaIvELN9__gnu_cxx12_Lock_policyE1EED0Ev
	.section	.text._ZN4asio21stream_socket_serviceINS_2ip3tcpEED0Ev,"axG",%progbits,_ZN4asio21stream_socket_serviceINS_2ip3tcpEED5Ev,comdat
	.align	2
	.weak	_ZN4asio21stream_socket_serviceINS_2ip3tcpEED0Ev
	.syntax unified
	.arm
	.fpu vfp
	.type	_ZN4asio21stream_socket_serviceINS_2ip3tcpEED0Ev, %function
_ZN4asio21stream_socket_serviceINS_2ip3tcpEED0Ev:
	.fnstart
.LFB9706:
	@ args = 0, pretend = 0, frame = 0
	@ frame_needed = 0, uses_anonymous_args = 0
	push	{r4, lr}
	mov	r1, #24
	mov	r4, r0
	bl	_ZdlPvj(PLT)
	mov	r0, r4
	pop	{r4, pc}
	.cantunwind
	.fnend
	.size	_ZN4asio21stream_socket_serviceINS_2ip3tcpEED0Ev, .-_ZN4asio21stream_socket_serviceINS_2ip3tcpEED0Ev
	.section	.text._ZNSt19_Sp_counted_deleterIPvN4asio6detail10socket_ops12noop_deleterESaIvELN9__gnu_cxx12_Lock_policyE1EE10_M_destroyEv,"axG",%progbits,_ZNSt19_Sp_counted_deleterIPvN4asio6detail10socket_ops12noop_deleterESaIvELN9__gnu_cxx12_Lock_policyE1EE10_M_destroyEv,comdat
	.align	2
	.weak	_ZNSt19_Sp_counted_deleterIPvN4asio6detail10socket_ops12noop_deleterESaIvELN9__gnu_cxx12_Lock_policyE1EE10_M_destroyEv
	.syntax unified
	.arm
	.fpu vfp
	.type	_ZNSt19_Sp_counted_deleterIPvN4asio6detail10socket_ops12noop_deleterESaIvELN9__gnu_cxx12_Lock_policyE1EE10_M_destroyEv, %function
_ZNSt19_Sp_counted_deleterIPvN4asio6detail10socket_ops12noop_deleterESaIvELN9__gnu_cxx12_Lock_policyE1EE10_M_destroyEv:
	.fnstart
.LFB9844:
	@ args = 0, pretend = 0, frame = 0
	@ frame_needed = 0, uses_anonymous_args = 0
	@ link register save eliminated.
	b	_ZdlPv(PLT)
	.cantunwind
	.fnend
	.size	_ZNSt19_Sp_counted_deleterIPvN4asio6detail10socket_ops12noop_deleterESaIvELN9__gnu_cxx12_Lock_policyE1EE10_M_destroyEv, .-_ZNSt19_Sp_counted_deleterIPvN4asio6detail10socket_ops12noop_deleterESaIvELN9__gnu_cxx12_Lock_policyE1EE10_M_destroyEv
	.section	.text._ZNSt19_Sp_counted_deleterIPvN4asio6detail10socket_ops12noop_deleterESaIvELN9__gnu_cxx12_Lock_policyE1EE14_M_get_deleterERKSt9type_info,"axG",%progbits,_ZNSt19_Sp_counted_deleterIPvN4asio6detail10socket_ops12noop_deleterESaIvELN9__gnu_cxx12_Lock_policyE1EE14_M_get_deleterERKSt9type_info,comdat
	.align	2
	.weak	_ZNSt19_Sp_counted_deleterIPvN4asio6detail10socket_ops12noop_deleterESaIvELN9__gnu_cxx12_Lock_policyE1EE14_M_get_deleterERKSt9type_info
	.syntax unified
	.arm
	.fpu vfp
	.type	_ZNSt19_Sp_counted_deleterIPvN4asio6detail10socket_ops12noop_deleterESaIvELN9__gnu_cxx12_Lock_policyE1EE14_M_get_deleterERKSt9type_info, %function
_ZNSt19_Sp_counted_deleterIPvN4asio6detail10socket_ops12noop_deleterESaIvELN9__gnu_cxx12_Lock_policyE1EE14_M_get_deleterERKSt9type_info:
	.fnstart
.LFB9845:
	@ args = 0, pretend = 0, frame = 0
	@ frame_needed = 0, uses_anonymous_args = 0
	ldr	r3, .L47
	ldr	r2, .L47+4
.LPIC6:
	add	r3, pc, r3
	push	{r4, lr}
	mov	r4, r0
	ldr	r2, [r3, r2]
	mov	r0, r1
	mov	r1, r2
	bl	_ZNKSt9type_infoeqERKS_(PLT)
	cmp	r0, #0
	addne	r0, r4, #36
	pop	{r4, pc}
.L48:
	.align	2
.L47:
	.word	_GLOBAL_OFFSET_TABLE_-(.LPIC6+8)
	.word	_ZTIN4asio6detail10socket_ops12noop_deleterE(GOT)
	.cantunwind
	.fnend
	.size	_ZNSt19_Sp_counted_deleterIPvN4asio6detail10socket_ops12noop_deleterESaIvELN9__gnu_cxx12_Lock_policyE1EE14_M_get_deleterERKSt9type_info, .-_ZNSt19_Sp_counted_deleterIPvN4asio6detail10socket_ops12noop_deleterESaIvELN9__gnu_cxx12_Lock_policyE1EE14_M_get_deleterERKSt9type_info
	.section	.text._ZN4asio6detail15system_categoryD2Ev,"axG",%progbits,_ZN4asio6detail15system_categoryD5Ev,comdat
	.align	2
	.weak	_ZN4asio6detail15system_categoryD2Ev
	.syntax unified
	.arm
	.fpu vfp
	.type	_ZN4asio6detail15system_categoryD2Ev, %function
_ZN4asio6detail15system_categoryD2Ev:
	.fnstart
.LFB9760:
	@ args = 0, pretend = 0, frame = 0
	@ frame_needed = 0, uses_anonymous_args = 0
	ldr	r3, .L51
	ldr	r2, .L51+4
.LPIC7:
	add	r3, pc, r3
	push	{r4, lr}
	mov	r4, r0
	ldr	r3, [r3, r2]
	add	r3, r3, #8
	str	r3, [r0]
	bl	_ZNSt3_V214error_categoryD2Ev(PLT)
	mov	r0, r4
	pop	{r4, pc}
.L52:
	.align	2
.L51:
	.word	_GLOBAL_OFFSET_TABLE_-(.LPIC7+8)
	.word	_ZTVN4asio6detail15system_categoryE(GOT)
	.cantunwind
	.fnend
	.size	_ZN4asio6detail15system_categoryD2Ev, .-_ZN4asio6detail15system_categoryD2Ev
	.weak	_ZN4asio6detail15system_categoryD1Ev
	.set	_ZN4asio6detail15system_categoryD1Ev,_ZN4asio6detail15system_categoryD2Ev
	.section	.text._ZN4asio6detail15system_categoryD0Ev,"axG",%progbits,_ZN4asio6detail15system_categoryD5Ev,comdat
	.align	2
	.weak	_ZN4asio6detail15system_categoryD0Ev
	.syntax unified
	.arm
	.fpu vfp
	.type	_ZN4asio6detail15system_categoryD0Ev, %function
_ZN4asio6detail15system_categoryD0Ev:
	.fnstart
.LFB9762:
	@ args = 0, pretend = 0, frame = 0
	@ frame_needed = 0, uses_anonymous_args = 0
	ldr	r3, .L55
	ldr	r2, .L55+4
.LPIC8:
	add	r3, pc, r3
	push	{r4, lr}
	mov	r4, r0
	ldr	r3, [r3, r2]
	add	r3, r3, #8
	str	r3, [r0]
	bl	_ZNSt3_V214error_categoryD2Ev(PLT)
	mov	r0, r4
	mov	r1, #4
	bl	_ZdlPvj(PLT)
	mov	r0, r4
	pop	{r4, pc}
.L56:
	.align	2
.L55:
	.word	_GLOBAL_OFFSET_TABLE_-(.LPIC8+8)
	.word	_ZTVN4asio6detail15system_categoryE(GOT)
	.cantunwind
	.fnend
	.size	_ZN4asio6detail15system_categoryD0Ev, .-_ZN4asio6detail15system_categoryD0Ev
	.section	.text._ZN4asio5error6detail13misc_categoryD2Ev,"axG",%progbits,_ZN4asio5error6detail13misc_categoryD5Ev,comdat
	.align	2
	.weak	_ZN4asio5error6detail13misc_categoryD2Ev
	.syntax unified
	.arm
	.fpu vfp
	.type	_ZN4asio5error6detail13misc_categoryD2Ev, %function
_ZN4asio5error6detail13misc_categoryD2Ev:
	.fnstart
.LFB9748:
	@ args = 0, pretend = 0, frame = 0
	@ frame_needed = 0, uses_anonymous_args = 0
	ldr	r3, .L59
	ldr	r2, .L59+4
.LPIC9:
	add	r3, pc, r3
	push	{r4, lr}
	mov	r4, r0
	ldr	r3, [r3, r2]
	add	r3, r3, #8
	str	r3, [r0]
	bl	_ZNSt3_V214error_categoryD2Ev(PLT)
	mov	r0, r4
	pop	{r4, pc}
.L60:
	.align	2
.L59:
	.word	_GLOBAL_OFFSET_TABLE_-(.LPIC9+8)
	.word	_ZTVN4asio5error6detail13misc_categoryE(GOT)
	.cantunwind
	.fnend
	.size	_ZN4asio5error6detail13misc_categoryD2Ev, .-_ZN4asio5error6detail13misc_categoryD2Ev
	.weak	_ZN4asio5error6detail13misc_categoryD1Ev
	.set	_ZN4asio5error6detail13misc_categoryD1Ev,_ZN4asio5error6detail13misc_categoryD2Ev
	.section	.text._ZN4asio5error6detail13misc_categoryD0Ev,"axG",%progbits,_ZN4asio5error6detail13misc_categoryD5Ev,comdat
	.align	2
	.weak	_ZN4asio5error6detail13misc_categoryD0Ev
	.syntax unified
	.arm
	.fpu vfp
	.type	_ZN4asio5error6detail13misc_categoryD0Ev, %function
_ZN4asio5error6detail13misc_categoryD0Ev:
	.fnstart
.LFB9750:
	@ args = 0, pretend = 0, frame = 0
	@ frame_needed = 0, uses_anonymous_args = 0
	ldr	r3, .L63
	ldr	r2, .L63+4
.LPIC10:
	add	r3, pc, r3
	push	{r4, lr}
	mov	r4, r0
	ldr	r3, [r3, r2]
	add	r3, r3, #8
	str	r3, [r0]
	bl	_ZNSt3_V214error_categoryD2Ev(PLT)
	mov	r0, r4
	mov	r1, #4
	bl	_ZdlPvj(PLT)
	mov	r0, r4
	pop	{r4, pc}
.L64:
	.align	2
.L63:
	.word	_GLOBAL_OFFSET_TABLE_-(.LPIC10+8)
	.word	_ZTVN4asio5error6detail13misc_categoryE(GOT)
	.cantunwind
	.fnend
	.size	_ZN4asio5error6detail13misc_categoryD0Ev, .-_ZN4asio5error6detail13misc_categoryD0Ev
	.section	.text._ZN4asio5error6detail14netdb_categoryD2Ev,"axG",%progbits,_ZN4asio5error6detail14netdb_categoryD5Ev,comdat
	.align	2
	.weak	_ZN4asio5error6detail14netdb_categoryD2Ev
	.syntax unified
	.arm
	.fpu vfp
	.type	_ZN4asio5error6detail14netdb_categoryD2Ev, %function
_ZN4asio5error6detail14netdb_categoryD2Ev:
	.fnstart
.LFB9756:
	@ args = 0, pretend = 0, frame = 0
	@ frame_needed = 0, uses_anonymous_args = 0
	ldr	r3, .L67
	ldr	r2, .L67+4
.LPIC11:
	add	r3, pc, r3
	push	{r4, lr}
	mov	r4, r0
	ldr	r3, [r3, r2]
	add	r3, r3, #8
	str	r3, [r0]
	bl	_ZNSt3_V214error_categoryD2Ev(PLT)
	mov	r0, r4
	pop	{r4, pc}
.L68:
	.align	2
.L67:
	.word	_GLOBAL_OFFSET_TABLE_-(.LPIC11+8)
	.word	_ZTVN4asio5error6detail14netdb_categoryE(GOT)
	.cantunwind
	.fnend
	.size	_ZN4asio5error6detail14netdb_categoryD2Ev, .-_ZN4asio5error6detail14netdb_categoryD2Ev
	.weak	_ZN4asio5error6detail14netdb_categoryD1Ev
	.set	_ZN4asio5error6detail14netdb_categoryD1Ev,_ZN4asio5error6detail14netdb_categoryD2Ev
	.section	.text._ZN4asio5error6detail14netdb_categoryD0Ev,"axG",%progbits,_ZN4asio5error6detail14netdb_categoryD5Ev,comdat
	.align	2
	.weak	_ZN4asio5error6detail14netdb_categoryD0Ev
	.syntax unified
	.arm
	.fpu vfp
	.type	_ZN4asio5error6detail14netdb_categoryD0Ev, %function
_ZN4asio5error6detail14netdb_categoryD0Ev:
	.fnstart
.LFB9758:
	@ args = 0, pretend = 0, frame = 0
	@ frame_needed = 0, uses_anonymous_args = 0
	ldr	r3, .L71
	ldr	r2, .L71+4
.LPIC12:
	add	r3, pc, r3
	push	{r4, lr}
	mov	r4, r0
	ldr	r3, [r3, r2]
	add	r3, r3, #8
	str	r3, [r0]
	bl	_ZNSt3_V214error_categoryD2Ev(PLT)
	mov	r0, r4
	mov	r1, #4
	bl	_ZdlPvj(PLT)
	mov	r0, r4
	pop	{r4, pc}
.L72:
	.align	2
.L71:
	.word	_GLOBAL_OFFSET_TABLE_-(.LPIC12+8)
	.word	_ZTVN4asio5error6detail14netdb_categoryE(GOT)
	.cantunwind
	.fnend
	.size	_ZN4asio5error6detail14netdb_categoryD0Ev, .-_ZN4asio5error6detail14netdb_categoryD0Ev
	.section	.text._ZN4asio5error6detail17addrinfo_categoryD2Ev,"axG",%progbits,_ZN4asio5error6detail17addrinfo_categoryD5Ev,comdat
	.align	2
	.weak	_ZN4asio5error6detail17addrinfo_categoryD2Ev
	.syntax unified
	.arm
	.fpu vfp
	.type	_ZN4asio5error6detail17addrinfo_categoryD2Ev, %function
_ZN4asio5error6detail17addrinfo_categoryD2Ev:
	.fnstart
.LFB9752:
	@ args = 0, pretend = 0, frame = 0
	@ frame_needed = 0, uses_anonymous_args = 0
	ldr	r3, .L75
	ldr	r2, .L75+4
.LPIC13:
	add	r3, pc, r3
	push	{r4, lr}
	mov	r4, r0
	ldr	r3, [r3, r2]
	add	r3, r3, #8
	str	r3, [r0]
	bl	_ZNSt3_V214error_categoryD2Ev(PLT)
	mov	r0, r4
	pop	{r4, pc}
.L76:
	.align	2
.L75:
	.word	_GLOBAL_OFFSET_TABLE_-(.LPIC13+8)
	.word	_ZTVN4asio5error6detail17addrinfo_categoryE(GOT)
	.cantunwind
	.fnend
	.size	_ZN4asio5error6detail17addrinfo_categoryD2Ev, .-_ZN4asio5error6detail17addrinfo_categoryD2Ev
	.weak	_ZN4asio5error6detail17addrinfo_categoryD1Ev
	.set	_ZN4asio5error6detail17addrinfo_categoryD1Ev,_ZN4asio5error6detail17addrinfo_categoryD2Ev
	.section	.text._ZN4asio5error6detail17addrinfo_categoryD0Ev,"axG",%progbits,_ZN4asio5error6detail17addrinfo_categoryD5Ev,comdat
	.align	2
	.weak	_ZN4asio5error6detail17addrinfo_categoryD0Ev
	.syntax unified
	.arm
	.fpu vfp
	.type	_ZN4asio5error6detail17addrinfo_categoryD0Ev, %function
_ZN4asio5error6detail17addrinfo_categoryD0Ev:
	.fnstart
.LFB9754:
	@ args = 0, pretend = 0, frame = 0
	@ frame_needed = 0, uses_anonymous_args = 0
	ldr	r3, .L79
	ldr	r2, .L79+4
.LPIC14:
	add	r3, pc, r3
	push	{r4, lr}
	mov	r4, r0
	ldr	r3, [r3, r2]
	add	r3, r3, #8
	str	r3, [r0]
	bl	_ZNSt3_V214error_categoryD2Ev(PLT)
	mov	r0, r4
	mov	r1, #4
	bl	_ZdlPvj(PLT)
	mov	r0, r4
	pop	{r4, pc}
.L80:
	.align	2
.L79:
	.word	_GLOBAL_OFFSET_TABLE_-(.LPIC14+8)
	.word	_ZTVN4asio5error6detail17addrinfo_categoryE(GOT)
	.cantunwind
	.fnend
	.size	_ZN4asio5error6detail17addrinfo_categoryD0Ev, .-_ZN4asio5error6detail17addrinfo_categoryD0Ev
	.section	.text._ZN4asio6detail15task_io_service16shutdown_serviceEv,"axG",%progbits,_ZN4asio6detail15task_io_service16shutdown_serviceEv,comdat
	.align	2
	.weak	_ZN4asio6detail15task_io_service16shutdown_serviceEv
	.syntax unified
	.arm
	.fpu vfp
	.type	_ZN4asio6detail15task_io_service16shutdown_serviceEv, %function
_ZN4asio6detail15task_io_service16shutdown_serviceEv:
	.fnstart
.LFB3099:
	@ args = 0, pretend = 0, frame = 8
	@ frame_needed = 0, uses_anonymous_args = 0
	push	{r4, r5, r6, r7, r8, r9, lr}
	.save {r4, r5, r6, r7, r8, r9, lr}
	add	r4, r0, #24
	.pad #12
	sub	sp, sp, #12
	mov	r5, r0
	mov	r0, r4
	bl	pthread_mutex_lock(PLT)
	mov	r3, #1
	mov	r0, r4
	strb	r3, [r5, #137]
	bl	pthread_mutex_unlock(PLT)
	add	r7, r5, #108
	mov	r6, #0
	mov	r8, sp
	b	.L84
.L89:
	ldr	r3, [r4]
	cmp	r3, #0
	streq	r3, [r5, #132]
	cmp	r4, r7
	str	r3, [r5, #128]
	str	r6, [r4]
	bne	.L88
.L84:
	ldr	r4, [r5, #128]
	cmp	r4, #0
	bne	.L89
	str	r4, [r5, #104]
	add	sp, sp, #12
	@ sp needed
	pop	{r4, r5, r6, r7, r8, r9, pc}
.L88:
	str	r6, [sp]
	bl	_ZNSt3_V215system_categoryEv(PLT)
	ldr	r9, [r4, #4]
	mov	r1, r4
	mov	r3, r6
	mov	r2, r8
	str	r0, [sp, #4]
	mov	r0, #0
	blx	r9
	b	.L84
	.fnend
	.size	_ZN4asio6detail15task_io_service16shutdown_serviceEv, .-_ZN4asio6detail15task_io_service16shutdown_serviceEv
	.section	.text._ZN9__gnu_cxx24__concurrence_lock_errorD2Ev,"axG",%progbits,_ZN9__gnu_cxx24__concurrence_lock_errorD5Ev,comdat
	.align	2
	.weak	_ZN9__gnu_cxx24__concurrence_lock_errorD2Ev
	.syntax unified
	.arm
	.fpu vfp
	.type	_ZN9__gnu_cxx24__concurrence_lock_errorD2Ev, %function
_ZN9__gnu_cxx24__concurrence_lock_errorD2Ev:
	.fnstart
.LFB9776:
	@ args = 0, pretend = 0, frame = 0
	@ frame_needed = 0, uses_anonymous_args = 0
	ldr	r3, .L92
	ldr	r2, .L92+4
.LPIC15:
	add	r3, pc, r3
	push	{r4, lr}
	mov	r4, r0
	ldr	r3, [r3, r2]
	add	r3, r3, #8
	str	r3, [r0]
	bl	_ZNSt9exceptionD2Ev(PLT)
	mov	r0, r4
	pop	{r4, pc}
.L93:
	.align	2
.L92:
	.word	_GLOBAL_OFFSET_TABLE_-(.LPIC15+8)
	.word	_ZTVN9__gnu_cxx24__concurrence_lock_errorE(GOT)
	.cantunwind
	.fnend
	.size	_ZN9__gnu_cxx24__concurrence_lock_errorD2Ev, .-_ZN9__gnu_cxx24__concurrence_lock_errorD2Ev
	.weak	_ZN9__gnu_cxx24__concurrence_lock_errorD1Ev
	.set	_ZN9__gnu_cxx24__concurrence_lock_errorD1Ev,_ZN9__gnu_cxx24__concurrence_lock_errorD2Ev
	.section	.text._ZN9__gnu_cxx24__concurrence_lock_errorD0Ev,"axG",%progbits,_ZN9__gnu_cxx24__concurrence_lock_errorD5Ev,comdat
	.align	2
	.weak	_ZN9__gnu_cxx24__concurrence_lock_errorD0Ev
	.syntax unified
	.arm
	.fpu vfp
	.type	_ZN9__gnu_cxx24__concurrence_lock_errorD0Ev, %function
_ZN9__gnu_cxx24__concurrence_lock_errorD0Ev:
	.fnstart
.LFB9778:
	@ args = 0, pretend = 0, frame = 0
	@ frame_needed = 0, uses_anonymous_args = 0
	ldr	r3, .L96
	ldr	r2, .L96+4
.LPIC16:
	add	r3, pc, r3
	push	{r4, lr}
	mov	r4, r0
	ldr	r3, [r3, r2]
	add	r3, r3, #8
	str	r3, [r0]
	bl	_ZNSt9exceptionD2Ev(PLT)
	mov	r0, r4
	mov	r1, #4
	bl	_ZdlPvj(PLT)
	mov	r0, r4
	pop	{r4, pc}
.L97:
	.align	2
.L96:
	.word	_GLOBAL_OFFSET_TABLE_-(.LPIC16+8)
	.word	_ZTVN9__gnu_cxx24__concurrence_lock_errorE(GOT)
	.cantunwind
	.fnend
	.size	_ZN9__gnu_cxx24__concurrence_lock_errorD0Ev, .-_ZN9__gnu_cxx24__concurrence_lock_errorD0Ev
	.section	.text._ZN9__gnu_cxx26__concurrence_unlock_errorD2Ev,"axG",%progbits,_ZN9__gnu_cxx26__concurrence_unlock_errorD5Ev,comdat
	.align	2
	.weak	_ZN9__gnu_cxx26__concurrence_unlock_errorD2Ev
	.syntax unified
	.arm
	.fpu vfp
	.type	_ZN9__gnu_cxx26__concurrence_unlock_errorD2Ev, %function
_ZN9__gnu_cxx26__concurrence_unlock_errorD2Ev:
	.fnstart
.LFB9772:
	@ args = 0, pretend = 0, frame = 0
	@ frame_needed = 0, uses_anonymous_args = 0
	ldr	r3, .L100
	ldr	r2, .L100+4
.LPIC17:
	add	r3, pc, r3
	push	{r4, lr}
	mov	r4, r0
	ldr	r3, [r3, r2]
	add	r3, r3, #8
	str	r3, [r0]
	bl	_ZNSt9exceptionD2Ev(PLT)
	mov	r0, r4
	pop	{r4, pc}
.L101:
	.align	2
.L100:
	.word	_GLOBAL_OFFSET_TABLE_-(.LPIC17+8)
	.word	_ZTVN9__gnu_cxx26__concurrence_unlock_errorE(GOT)
	.cantunwind
	.fnend
	.size	_ZN9__gnu_cxx26__concurrence_unlock_errorD2Ev, .-_ZN9__gnu_cxx26__concurrence_unlock_errorD2Ev
	.weak	_ZN9__gnu_cxx26__concurrence_unlock_errorD1Ev
	.set	_ZN9__gnu_cxx26__concurrence_unlock_errorD1Ev,_ZN9__gnu_cxx26__concurrence_unlock_errorD2Ev
	.section	.text._ZN9__gnu_cxx26__concurrence_unlock_errorD0Ev,"axG",%progbits,_ZN9__gnu_cxx26__concurrence_unlock_errorD5Ev,comdat
	.align	2
	.weak	_ZN9__gnu_cxx26__concurrence_unlock_errorD0Ev
	.syntax unified
	.arm
	.fpu vfp
	.type	_ZN9__gnu_cxx26__concurrence_unlock_errorD0Ev, %function
_ZN9__gnu_cxx26__concurrence_unlock_errorD0Ev:
	.fnstart
.LFB9774:
	@ args = 0, pretend = 0, frame = 0
	@ frame_needed = 0, uses_anonymous_args = 0
	ldr	r3, .L104
	ldr	r2, .L104+4
.LPIC18:
	add	r3, pc, r3
	push	{r4, lr}
	mov	r4, r0
	ldr	r3, [r3, r2]
	add	r3, r3, #8
	str	r3, [r0]
	bl	_ZNSt9exceptionD2Ev(PLT)
	mov	r0, r4
	mov	r1, #4
	bl	_ZdlPvj(PLT)
	mov	r0, r4
	pop	{r4, pc}
.L105:
	.align	2
.L104:
	.word	_GLOBAL_OFFSET_TABLE_-(.LPIC18+8)
	.word	_ZTVN9__gnu_cxx26__concurrence_unlock_errorE(GOT)
	.cantunwind
	.fnend
	.size	_ZN9__gnu_cxx26__concurrence_unlock_errorD0Ev, .-_ZN9__gnu_cxx26__concurrence_unlock_errorD0Ev
	.section	.text._ZN4asio6detail7tss_ptrINS0_10call_stackINS0_15task_io_serviceENS0_27task_io_service_thread_infoEE7contextEED2Ev,"axG",%progbits,_ZN4asio6detail7tss_ptrINS0_10call_stackINS0_15task_io_serviceENS0_27task_io_service_thread_infoEE7contextEED5Ev,comdat
	.align	2
	.weak	_ZN4asio6detail7tss_ptrINS0_10call_stackINS0_15task_io_serviceENS0_27task_io_service_thread_infoEE7contextEED2Ev
	.syntax unified
	.arm
	.fpu vfp
	.type	_ZN4asio6detail7tss_ptrINS0_10call_stackINS0_15task_io_serviceENS0_27task_io_service_thread_infoEE7contextEED2Ev, %function
_ZN4asio6detail7tss_ptrINS0_10call_stackINS0_15task_io_serviceENS0_27task_io_service_thread_infoEE7contextEED2Ev:
	.fnstart
.LFB9781:
	@ args = 0, pretend = 0, frame = 0
	@ frame_needed = 0, uses_anonymous_args = 0
	push	{r4, lr}
	mov	r4, r0
	ldr	r0, [r0]
	bl	pthread_key_delete(PLT)
	mov	r0, r4
	pop	{r4, pc}
	.cantunwind
	.fnend
	.size	_ZN4asio6detail7tss_ptrINS0_10call_stackINS0_15task_io_serviceENS0_27task_io_service_thread_infoEE7contextEED2Ev, .-_ZN4asio6detail7tss_ptrINS0_10call_stackINS0_15task_io_serviceENS0_27task_io_service_thread_infoEE7contextEED2Ev
	.weak	_ZN4asio6detail7tss_ptrINS0_10call_stackINS0_15task_io_serviceENS0_27task_io_service_thread_infoEE7contextEED1Ev
	.set	_ZN4asio6detail7tss_ptrINS0_10call_stackINS0_15task_io_serviceENS0_27task_io_service_thread_infoEE7contextEED1Ev,_ZN4asio6detail7tss_ptrINS0_10call_stackINS0_15task_io_serviceENS0_27task_io_service_thread_infoEE7contextEED2Ev
	.section	.text._ZN4asio6detail7tss_ptrINS0_10call_stackINS0_14strand_service11strand_implEhE7contextEED2Ev,"axG",%progbits,_ZN4asio6detail7tss_ptrINS0_10call_stackINS0_14strand_service11strand_implEhE7contextEED5Ev,comdat
	.align	2
	.weak	_ZN4asio6detail7tss_ptrINS0_10call_stackINS0_14strand_service11strand_implEhE7contextEED2Ev
	.syntax unified
	.arm
	.fpu vfp
	.type	_ZN4asio6detail7tss_ptrINS0_10call_stackINS0_14strand_service11strand_implEhE7contextEED2Ev, %function
_ZN4asio6detail7tss_ptrINS0_10call_stackINS0_14strand_service11strand_implEhE7contextEED2Ev:
	.fnstart
.LFB9790:
	@ args = 0, pretend = 0, frame = 0
	@ frame_needed = 0, uses_anonymous_args = 0
	push	{r4, lr}
	mov	r4, r0
	ldr	r0, [r0]
	bl	pthread_key_delete(PLT)
	mov	r0, r4
	pop	{r4, pc}
	.cantunwind
	.fnend
	.size	_ZN4asio6detail7tss_ptrINS0_10call_stackINS0_14strand_service11strand_implEhE7contextEED2Ev, .-_ZN4asio6detail7tss_ptrINS0_10call_stackINS0_14strand_service11strand_implEhE7contextEED2Ev
	.weak	_ZN4asio6detail7tss_ptrINS0_10call_stackINS0_14strand_service11strand_implEhE7contextEED1Ev
	.set	_ZN4asio6detail7tss_ptrINS0_10call_stackINS0_14strand_service11strand_implEhE7contextEED1Ev,_ZN4asio6detail7tss_ptrINS0_10call_stackINS0_14strand_service11strand_implEhE7contextEED2Ev
	.section	.text.unlikely,"ax",%progbits
	.align	2
	.syntax unified
	.arm
	.fpu vfp
	.type	_ZN4asio6detail15throw_exceptionISt8bad_castEEvRKT_.isra.92, %function
_ZN4asio6detail15throw_exceptionISt8bad_castEEvRKT_.isra.92:
	.fnstart
.LFB9993:
	@ args = 0, pretend = 0, frame = 0
	@ frame_needed = 0, uses_anonymous_args = 0
	push	{r4, lr}
	.save {r4, lr}
	mov	r0, #4
	bl	__cxa_allocate_exception(PLT)
	ldr	r3, .L112
	ldr	ip, .L112+4
.LPIC19:
	add	r3, pc, r3
	ldr	r2, .L112+8
	ldr	ip, [r3, ip]
	ldr	r1, .L112+12
	add	ip, ip, #8
	str	ip, [r0]
	ldr	r2, [r3, r2]
	ldr	r1, [r3, r1]
	bl	__cxa_throw(PLT)
.L113:
	.align	2
.L112:
	.word	_GLOBAL_OFFSET_TABLE_-(.LPIC19+8)
	.word	_ZTVSt8bad_cast(GOT)
	.word	_ZNSt8bad_castD1Ev(GOT)
	.word	_ZTISt8bad_cast(GOT)
	.fnend
	.size	_ZN4asio6detail15throw_exceptionISt8bad_castEEvRKT_.isra.92, .-_ZN4asio6detail15throw_exceptionISt8bad_castEEvRKT_.isra.92
	.text
	.align	2
	.syntax unified
	.arm
	.fpu vfp
	.type	_ZNSt7__cxx1112basic_stringIcSt11char_traitsIcESaIcEE12_M_constructIPcEEvT_S7_St20forward_iterator_tag.isra.183, %function
_ZNSt7__cxx1112basic_stringIcSt11char_traitsIcESaIcEE12_M_constructIPcEEvT_S7_St20forward_iterator_tag.isra.183:
	.fnstart
.LFB10084:
	@ args = 0, pretend = 0, frame = 8
	@ frame_needed = 0, uses_anonymous_args = 0
	cmp	r2, #0
	clz	r3, r1
	lsr	r3, r3, #5
	moveq	r3, #0
	cmp	r3, #0
	push	{r4, r5, r6, lr}
	.save {r4, r5, r6, lr}
	.pad #8
	sub	sp, sp, #8
	beq	.L131
	ldr	r0, .L134
.LPIC20:
	add	r0, pc, r0
	bl	_ZSt19__throw_logic_errorPKc(PLT)
.L131:
	sub	r4, r2, r1
	cmp	r4, #15
	mov	r6, r1
	mov	r5, r0
	str	r4, [sp, #4]
	bhi	.L132
	cmp	r4, #1
	ldr	r0, [r5]
	beq	.L133
	cmp	r4, #0
	bne	.L117
.L119:
	mov	r3, #0
	str	r4, [r5, #4]
	strb	r3, [r0, r4]
	add	sp, sp, #8
	@ sp needed
	pop	{r4, r5, r6, pc}
.L132:
	mov	r2, r3
	add	r1, sp, #4
	bl	_ZNSt7__cxx1112basic_stringIcSt11char_traitsIcESaIcEE9_M_createERjj(PLT)
	ldr	r3, [sp, #4]
	str	r3, [r5, #8]
	str	r0, [r5]
.L117:
	mov	r2, r4
	mov	r1, r6
	bl	memcpy(PLT)
	ldr	r4, [sp, #4]
	ldr	r0, [r5]
	b	.L119
.L133:
	ldrb	r3, [r6]	@ zero_extendqisi2
	strb	r3, [r0]
	ldr	r4, [sp, #4]
	ldr	r0, [r5]
	b	.L119
.L135:
	.align	2
.L134:
	.word	.LC6-(.LPIC20+8)
	.fnend
	.size	_ZNSt7__cxx1112basic_stringIcSt11char_traitsIcESaIcEE12_M_constructIPcEEvT_S7_St20forward_iterator_tag.isra.183, .-_ZNSt7__cxx1112basic_stringIcSt11char_traitsIcESaIcEE12_M_constructIPcEEvT_S7_St20forward_iterator_tag.isra.183
	.set	_ZNSt7__cxx1112basic_stringIcSt11char_traitsIcESaIcEE12_M_constructIPKcEEvT_S8_St20forward_iterator_tag.isra.176,_ZNSt7__cxx1112basic_stringIcSt11char_traitsIcESaIcEE12_M_constructIPcEEvT_S7_St20forward_iterator_tag.isra.183
	.align	2
	.syntax unified
	.arm
	.fpu vfp
	.type	_ZNSt7__cxx1112basic_stringIcSt11char_traitsIcESaIcEEC2EPKcRKS3_.isra.178, %function
_ZNSt7__cxx1112basic_stringIcSt11char_traitsIcESaIcEEC2EPKcRKS3_.isra.178:
	.fnstart
.LFB10079:
	@ args = 0, pretend = 0, frame = 0
	@ frame_needed = 0, uses_anonymous_args = 0
	push	{r4, r5, r6, lr}
	.save {r4, r5, r6, lr}
	add	r3, r0, #8
	subs	r5, r1, #0
	mov	r4, r0
	str	r3, [r0]
	mvneq	r2, #0
	beq	.L137
	mov	r0, r5
	bl	strlen(PLT)
	add	r2, r5, r0
.L137:
	mov	r0, r4
	mov	r1, r5
	bl	_ZNSt7__cxx1112basic_stringIcSt11char_traitsIcESaIcEE12_M_constructIPKcEEvT_S8_St20forward_iterator_tag.isra.176(PLT)
	mov	r0, r4
	pop	{r4, r5, r6, pc}
	.fnend
	.size	_ZNSt7__cxx1112basic_stringIcSt11char_traitsIcESaIcEEC2EPKcRKS3_.isra.178, .-_ZNSt7__cxx1112basic_stringIcSt11char_traitsIcESaIcEEC2EPKcRKS3_.isra.178
	.section	.text._ZNSt15_Sp_counted_ptrIPSt6vectorIN4asio2ip20basic_resolver_entryINS2_3tcpEEESaIS5_EELN9__gnu_cxx12_Lock_policyE1EE10_M_disposeEv,"axG",%progbits,_ZNSt15_Sp_counted_ptrIPSt6vectorIN4asio2ip20basic_resolver_entryINS2_3tcpEEESaIS5_EELN9__gnu_cxx12_Lock_policyE1EE10_M_disposeEv,comdat
	.align	2
	.weak	_ZNSt15_Sp_counted_ptrIPSt6vectorIN4asio2ip20basic_resolver_entryINS2_3tcpEEESaIS5_EELN9__gnu_cxx12_Lock_policyE1EE10_M_disposeEv
	.syntax unified
	.arm
	.fpu vfp
	.type	_ZNSt15_Sp_counted_ptrIPSt6vectorIN4asio2ip20basic_resolver_entryINS2_3tcpEEESaIS5_EELN9__gnu_cxx12_Lock_policyE1EE10_M_disposeEv, %function
_ZNSt15_Sp_counted_ptrIPSt6vectorIN4asio2ip20basic_resolver_entryINS2_3tcpEEESaIS5_EELN9__gnu_cxx12_Lock_policyE1EE10_M_disposeEv:
	.fnstart
.LFB9801:
	@ args = 0, pretend = 0, frame = 0
	@ frame_needed = 0, uses_anonymous_args = 0
	push	{r4, r5, r6, lr}
	ldr	r6, [r0, #36]
	cmp	r6, #0
	popeq	{r4, r5, r6, pc}
	ldm	r6, {r4, r5}
	cmp	r4, r5
	beq	.L142
.L145:
	ldr	r2, [r4, #52]
	add	r3, r4, #60
	cmp	r2, r3
	mov	r0, r2
	beq	.L143
	bl	_ZdlPv(PLT)
.L143:
	ldr	r2, [r4, #28]
	add	r3, r4, #36
	cmp	r2, r3
	mov	r0, r2
	add	r4, r4, #76
	beq	.L144
	bl	_ZdlPv(PLT)
.L144:
	cmp	r5, r4
	bne	.L145
	ldr	r5, [r6]
.L142:
	cmp	r5, #0
	beq	.L146
	mov	r0, r5
	bl	_ZdlPv(PLT)
.L146:
	mov	r0, r6
	mov	r1, #12
	pop	{r4, r5, r6, lr}
	b	_ZdlPvj(PLT)
	.cantunwind
	.fnend
	.size	_ZNSt15_Sp_counted_ptrIPSt6vectorIN4asio2ip20basic_resolver_entryINS2_3tcpEEESaIS5_EELN9__gnu_cxx12_Lock_policyE1EE10_M_disposeEv, .-_ZNSt15_Sp_counted_ptrIPSt6vectorIN4asio2ip20basic_resolver_entryINS2_3tcpEEESaIS5_EELN9__gnu_cxx12_Lock_policyE1EE10_M_disposeEv
	.section	.text._ZN4asio6detail13epoll_reactorD0Ev,"axG",%progbits,_ZN4asio6detail13epoll_reactorD5Ev,comdat
	.align	2
	.weak	_ZN4asio6detail13epoll_reactorD0Ev
	.syntax unified
	.arm
	.fpu vfp
	.type	_ZN4asio6detail13epoll_reactorD0Ev, %function
_ZN4asio6detail13epoll_reactorD0Ev:
	.fnstart
.LFB3050:
	@ args = 0, pretend = 0, frame = 16
	@ frame_needed = 0, uses_anonymous_args = 0
	ldr	r3, .L205
	ldr	r2, .L205+4
	push	{r4, r5, r6, r7, r8, r9, r10, fp, lr}
	.save {r4, r5, r6, r7, r8, r9, r10, fp, lr}
.LPIC29:
	add	r3, pc, r3
	.pad #20
	sub	sp, sp, #20
	str	r0, [sp, #4]
	ldr	r3, [r3, r2]
	mov	r2, r0
	ldr	r0, [r0, #56]
	add	r3, r3, #8
	cmn	r0, #1
	str	r3, [r2]
	beq	.L153
	bl	close(PLT)
.L153:
	ldr	r3, [sp, #4]
	ldr	r0, [r3, #60]
	cmn	r0, #1
	beq	.L154
	bl	close(PLT)
	ldr	r3, [sp, #4]
.L154:
	ldr	r10, [r3, #96]
	cmp	r10, #0
	addne	r8, sp, #8
	movne	r5, #0
	beq	.L164
.L165:
	ldr	fp, [r10, #12]
	add	r9, r10, #56
	add	r4, r10, #80
.L160:
	ldr	r1, [r4, #-8]
	cmp	r1, #0
	beq	.L162
	str	r1, [sp]
	bl	_ZNSt3_V215system_categoryEv(PLT)
	ldr	r1, [sp]
	mov	r7, r0
.L163:
	ldr	r3, [r1]
	ldr	r6, [r1, #4]
	cmp	r3, #0
	streq	r3, [r4, #-4]
	str	r3, [r4, #-8]
	mov	r3, #0
	str	r5, [r1]
	mov	r0, r3
	str	r5, [sp, #8]
	str	r7, [sp, #12]
	mov	r2, r8
	blx	r6
	ldr	r1, [r4, #-8]
	cmp	r1, #0
	bne	.L163
.L162:
	sub	r4, r4, #8
	cmp	r9, r4
	bne	.L160
	add	r0, r10, #20
	bl	pthread_mutex_destroy(PLT)
	mov	r0, r10
	mov	r1, #84
	bl	_ZdlPvj(PLT)
	subs	r10, fp, #0
	bne	.L165
	ldr	r3, [sp, #4]
.L164:
	ldr	r10, [r3, #100]
	cmp	r10, #0
	moveq	r4, r3
	beq	.L156
	add	r8, sp, #8
	mov	r5, #0
.L174:
	ldr	fp, [r10, #12]
	add	r9, r10, #56
	add	r4, r10, #80
.L170:
	ldr	r1, [r4, #-8]
	cmp	r1, #0
	beq	.L172
	str	r1, [sp]
	bl	_ZNSt3_V215system_categoryEv(PLT)
	ldr	r1, [sp]
	mov	r7, r0
.L173:
	ldr	r3, [r1]
	ldr	r6, [r1, #4]
	cmp	r3, #0
	streq	r3, [r4, #-4]
	str	r3, [r4, #-8]
	mov	r3, #0
	str	r5, [r1]
	mov	r0, r3
	str	r5, [sp, #8]
	str	r7, [sp, #12]
	mov	r2, r8
	blx	r6
	ldr	r1, [r4, #-8]
	cmp	r1, #0
	bne	.L173
.L172:
	sub	r4, r4, #8
	cmp	r9, r4
	bne	.L170
	add	r0, r10, #20
	bl	pthread_mutex_destroy(PLT)
	mov	r0, r10
	mov	r1, #84
	bl	_ZdlPvj(PLT)
	subs	r10, fp, #0
	bne	.L174
	ldr	r4, [sp, #4]
.L156:
	add	r0, r4, #72
	bl	pthread_mutex_destroy(PLT)
	ldr	r0, [r4, #52]
	cmn	r0, #1
	beq	.L167
	ldr	r3, [sp, #4]
	ldr	r3, [r3, #48]
	cmp	r0, r3
	beq	.L175
	bl	close(PLT)
.L167:
	ldr	r3, [sp, #4]
	ldr	r3, [r3, #48]
	cmn	r3, #1
	beq	.L176
.L175:
	mov	r0, r3
	bl	close(PLT)
.L176:
	ldr	r4, [sp, #4]
	add	r0, r4, #24
	bl	pthread_mutex_destroy(PLT)
	mov	r0, r4
	mov	r1, #104
	bl	_ZdlPvj(PLT)
	mov	r0, r4
	add	sp, sp, #20
	@ sp needed
	pop	{r4, r5, r6, r7, r8, r9, r10, fp, pc}
.L206:
	.align	2
.L205:
	.word	_GLOBAL_OFFSET_TABLE_-(.LPIC29+8)
	.word	_ZTVN4asio6detail13epoll_reactorE(GOT)
	.global	__gxx_personality_v0
	.personality	__gxx_personality_v0
	.handlerdata
.LLSDA3050:
	.byte	0xff
	.byte	0xff
	.byte	0x1
	.uleb128 .LLSDACSE3050-.LLSDACSB3050
.LLSDACSB3050:
.LLSDACSE3050:
	.section	.text._ZN4asio6detail13epoll_reactorD0Ev,"axG",%progbits,_ZN4asio6detail13epoll_reactorD5Ev,comdat
	.fnend
	.size	_ZN4asio6detail13epoll_reactorD0Ev, .-_ZN4asio6detail13epoll_reactorD0Ev
	.section	.text._ZN4asio6detail13epoll_reactorD2Ev,"axG",%progbits,_ZN4asio6detail13epoll_reactorD5Ev,comdat
	.align	2
	.weak	_ZN4asio6detail13epoll_reactorD2Ev
	.syntax unified
	.arm
	.fpu vfp
	.type	_ZN4asio6detail13epoll_reactorD2Ev, %function
_ZN4asio6detail13epoll_reactorD2Ev:
	.fnstart
.LFB3048:
	@ args = 0, pretend = 0, frame = 16
	@ frame_needed = 0, uses_anonymous_args = 0
	ldr	r3, .L260
	ldr	r2, .L260+4
	push	{r4, r5, r6, r7, r8, r9, r10, fp, lr}
	.save {r4, r5, r6, r7, r8, r9, r10, fp, lr}
.LPIC30:
	add	r3, pc, r3
	.pad #20
	sub	sp, sp, #20
	str	r0, [sp, #4]
	ldr	r3, [r3, r2]
	mov	r2, r0
	ldr	r0, [r0, #56]
	add	r3, r3, #8
	cmn	r0, #1
	str	r3, [r2]
	beq	.L208
	bl	close(PLT)
.L208:
	ldr	r3, [sp, #4]
	ldr	r0, [r3, #60]
	cmn	r0, #1
	beq	.L209
	bl	close(PLT)
	ldr	r3, [sp, #4]
.L209:
	ldr	r10, [r3, #96]
	cmp	r10, #0
	addne	r8, sp, #8
	movne	r5, #0
	beq	.L219
.L220:
	ldr	fp, [r10, #12]
	add	r9, r10, #56
	add	r4, r10, #80
.L215:
	ldr	r1, [r4, #-8]
	cmp	r1, #0
	beq	.L217
	str	r1, [sp]
	bl	_ZNSt3_V215system_categoryEv(PLT)
	ldr	r1, [sp]
	mov	r7, r0
.L218:
	ldr	r3, [r1]
	ldr	r6, [r1, #4]
	cmp	r3, #0
	streq	r3, [r4, #-4]
	str	r3, [r4, #-8]
	mov	r3, #0
	str	r5, [r1]
	mov	r0, r3
	str	r5, [sp, #8]
	str	r7, [sp, #12]
	mov	r2, r8
	blx	r6
	ldr	r1, [r4, #-8]
	cmp	r1, #0
	bne	.L218
.L217:
	sub	r4, r4, #8
	cmp	r9, r4
	bne	.L215
	add	r0, r10, #20
	bl	pthread_mutex_destroy(PLT)
	mov	r0, r10
	mov	r1, #84
	bl	_ZdlPvj(PLT)
	subs	r10, fp, #0
	bne	.L220
	ldr	r3, [sp, #4]
.L219:
	ldr	r10, [r3, #100]
	cmp	r10, #0
	moveq	r4, r3
	beq	.L211
	add	r8, sp, #8
	mov	r5, #0
.L229:
	ldr	fp, [r10, #12]
	add	r9, r10, #56
	add	r4, r10, #80
.L225:
	ldr	r1, [r4, #-8]
	cmp	r1, #0
	beq	.L227
	str	r1, [sp]
	bl	_ZNSt3_V215system_categoryEv(PLT)
	ldr	r1, [sp]
	mov	r7, r0
.L228:
	ldr	r3, [r1]
	ldr	r6, [r1, #4]
	cmp	r3, #0
	streq	r3, [r4, #-4]
	str	r3, [r4, #-8]
	mov	r3, #0
	str	r5, [r1]
	mov	r0, r3
	str	r5, [sp, #8]
	str	r7, [sp, #12]
	mov	r2, r8
	blx	r6
	ldr	r1, [r4, #-8]
	cmp	r1, #0
	bne	.L228
.L227:
	sub	r4, r4, #8
	cmp	r9, r4
	bne	.L225
	add	r0, r10, #20
	bl	pthread_mutex_destroy(PLT)
	mov	r0, r10
	mov	r1, #84
	bl	_ZdlPvj(PLT)
	subs	r10, fp, #0
	bne	.L229
	ldr	r4, [sp, #4]
.L211:
	add	r0, r4, #72
	bl	pthread_mutex_destroy(PLT)
	ldr	r0, [r4, #52]
	cmn	r0, #1
	beq	.L222
	ldr	r3, [sp, #4]
	ldr	r3, [r3, #48]
	cmp	r0, r3
	beq	.L230
	bl	close(PLT)
.L222:
	ldr	r3, [sp, #4]
	ldr	r3, [r3, #48]
	cmn	r3, #1
	beq	.L231
.L230:
	mov	r0, r3
	bl	close(PLT)
.L231:
	ldr	r4, [sp, #4]
	add	r0, r4, #24
	bl	pthread_mutex_destroy(PLT)
	mov	r0, r4
	add	sp, sp, #20
	@ sp needed
	pop	{r4, r5, r6, r7, r8, r9, r10, fp, pc}
.L261:
	.align	2
.L260:
	.word	_GLOBAL_OFFSET_TABLE_-(.LPIC30+8)
	.word	_ZTVN4asio6detail13epoll_reactorE(GOT)
	.personality	__gxx_personality_v0
	.handlerdata
.LLSDA3048:
	.byte	0xff
	.byte	0xff
	.byte	0x1
	.uleb128 .LLSDACSE3048-.LLSDACSB3048
.LLSDACSB3048:
.LLSDACSE3048:
	.section	.text._ZN4asio6detail13epoll_reactorD2Ev,"axG",%progbits,_ZN4asio6detail13epoll_reactorD5Ev,comdat
	.fnend
	.size	_ZN4asio6detail13epoll_reactorD2Ev, .-_ZN4asio6detail13epoll_reactorD2Ev
	.weak	_ZN4asio6detail13epoll_reactorD1Ev
	.set	_ZN4asio6detail13epoll_reactorD1Ev,_ZN4asio6detail13epoll_reactorD2Ev
	.section	.text._ZN4asio6detail15task_io_serviceD0Ev,"axG",%progbits,_ZN4asio6detail15task_io_serviceD5Ev,comdat
	.align	2
	.weak	_ZN4asio6detail15task_io_serviceD0Ev
	.syntax unified
	.arm
	.fpu vfp
	.type	_ZN4asio6detail15task_io_serviceD0Ev, %function
_ZN4asio6detail15task_io_serviceD0Ev:
	.fnstart
.LFB9738:
	@ args = 0, pretend = 0, frame = 16
	@ frame_needed = 0, uses_anonymous_args = 0
	ldr	r3, .L272
	ldr	r2, .L272+4
.LPIC31:
	add	r3, pc, r3
	push	{r4, r5, r6, r7, r8, lr}
	.save {r4, r5, r6, r7, r8, lr}
	.pad #16
	sub	sp, sp, #16
	ldr	r3, [r3, r2]
	ldr	r1, [r0, #128]
	add	r3, r3, #8
	cmp	r1, #0
	mov	r4, r0
	str	r3, [r0]
	beq	.L265
	str	r1, [sp, #4]
	bl	_ZNSt3_V215system_categoryEv(PLT)
	ldr	r1, [sp, #4]
	add	r7, sp, #8
	mov	r5, #0
	mov	r8, r0
.L266:
	ldr	r3, [r1]
	ldr	r6, [r1, #4]
	cmp	r3, #0
	streq	r3, [r4, #132]
	str	r3, [r4, #128]
	mov	r3, #0
	str	r5, [r1]
	mov	r0, r3
	str	r5, [sp, #8]
	str	r8, [sp, #12]
	mov	r2, r7
	blx	r6
	ldr	r1, [r4, #128]
	cmp	r1, #0
	bne	.L266
.L265:
	add	r0, r4, #48
	bl	pthread_cond_destroy(PLT)
	add	r0, r4, #24
	bl	pthread_mutex_destroy(PLT)
	mov	r0, r4
	mov	r1, #144
	bl	_ZdlPvj(PLT)
	mov	r0, r4
	add	sp, sp, #16
	@ sp needed
	pop	{r4, r5, r6, r7, r8, pc}
.L273:
	.align	2
.L272:
	.word	_GLOBAL_OFFSET_TABLE_-(.LPIC31+8)
	.word	_ZTVN4asio6detail15task_io_serviceE(GOT)
	.personality	__gxx_personality_v0
	.handlerdata
.LLSDA9738:
	.byte	0xff
	.byte	0xff
	.byte	0x1
	.uleb128 .LLSDACSE9738-.LLSDACSB9738
.LLSDACSB9738:
.LLSDACSE9738:
	.section	.text._ZN4asio6detail15task_io_serviceD0Ev,"axG",%progbits,_ZN4asio6detail15task_io_serviceD5Ev,comdat
	.fnend
	.size	_ZN4asio6detail15task_io_serviceD0Ev, .-_ZN4asio6detail15task_io_serviceD0Ev
	.section	.text._ZN4asio6detail15task_io_serviceD2Ev,"axG",%progbits,_ZN4asio6detail15task_io_serviceD5Ev,comdat
	.align	2
	.weak	_ZN4asio6detail15task_io_serviceD2Ev
	.syntax unified
	.arm
	.fpu vfp
	.type	_ZN4asio6detail15task_io_serviceD2Ev, %function
_ZN4asio6detail15task_io_serviceD2Ev:
	.fnstart
.LFB9736:
	@ args = 0, pretend = 0, frame = 16
	@ frame_needed = 0, uses_anonymous_args = 0
	ldr	r3, .L284
	ldr	r2, .L284+4
.LPIC32:
	add	r3, pc, r3
	push	{r4, r5, r6, r7, r8, lr}
	.save {r4, r5, r6, r7, r8, lr}
	.pad #16
	sub	sp, sp, #16
	ldr	r3, [r3, r2]
	ldr	r1, [r0, #128]
	add	r3, r3, #8
	cmp	r1, #0
	mov	r4, r0
	str	r3, [r0]
	beq	.L277
	str	r1, [sp, #4]
	bl	_ZNSt3_V215system_categoryEv(PLT)
	ldr	r1, [sp, #4]
	add	r7, sp, #8
	mov	r5, #0
	mov	r8, r0
.L278:
	ldr	r3, [r1]
	ldr	r6, [r1, #4]
	cmp	r3, #0
	streq	r3, [r4, #132]
	str	r3, [r4, #128]
	mov	r3, #0
	str	r5, [r1]
	mov	r0, r3
	str	r5, [sp, #8]
	str	r8, [sp, #12]
	mov	r2, r7
	blx	r6
	ldr	r1, [r4, #128]
	cmp	r1, #0
	bne	.L278
.L277:
	add	r0, r4, #48
	bl	pthread_cond_destroy(PLT)
	add	r0, r4, #24
	bl	pthread_mutex_destroy(PLT)
	mov	r0, r4
	add	sp, sp, #16
	@ sp needed
	pop	{r4, r5, r6, r7, r8, pc}
.L285:
	.align	2
.L284:
	.word	_GLOBAL_OFFSET_TABLE_-(.LPIC32+8)
	.word	_ZTVN4asio6detail15task_io_serviceE(GOT)
	.personality	__gxx_personality_v0
	.handlerdata
.LLSDA9736:
	.byte	0xff
	.byte	0xff
	.byte	0x1
	.uleb128 .LLSDACSE9736-.LLSDACSB9736
.LLSDACSB9736:
.LLSDACSE9736:
	.section	.text._ZN4asio6detail15task_io_serviceD2Ev,"axG",%progbits,_ZN4asio6detail15task_io_serviceD5Ev,comdat
	.fnend
	.size	_ZN4asio6detail15task_io_serviceD2Ev, .-_ZN4asio6detail15task_io_serviceD2Ev
	.weak	_ZN4asio6detail15task_io_serviceD1Ev
	.set	_ZN4asio6detail15task_io_serviceD1Ev,_ZN4asio6detail15task_io_serviceD2Ev
	.section	.text._ZNK4asio5error6detail13misc_category7messageB5cxx11Ei,"axG",%progbits,_ZNK4asio5error6detail13misc_category7messageB5cxx11Ei,comdat
	.align	2
	.weak	_ZNK4asio5error6detail13misc_category7messageB5cxx11Ei
	.syntax unified
	.arm
	.fpu vfp
	.type	_ZNK4asio5error6detail13misc_category7messageB5cxx11Ei, %function
_ZNK4asio5error6detail13misc_category7messageB5cxx11Ei:
	.fnstart
.LFB2091:
	@ args = 0, pretend = 0, frame = 0
	@ frame_needed = 0, uses_anonymous_args = 0
	cmp	r2, #1
	push	{r4, lr}
	.save {r4, lr}
	mov	r4, r0
	beq	.L293
	cmp	r2, #2
	beq	.L294
	cmp	r2, #3
	beq	.L295
	cmp	r2, #4
	beq	.L296
	ldr	r1, .L297
	add	r3, r0, #8
.LPIC37:
	add	r1, pc, r1
	add	r2, r1, #15
	str	r3, [r0]
	bl	_ZNSt7__cxx1112basic_stringIcSt11char_traitsIcESaIcEE12_M_constructIPKcEEvT_S8_St20forward_iterator_tag.isra.176(PLT)
.L286:
	mov	r0, r4
	pop	{r4, pc}
.L296:
	ldr	r1, .L297+4
.LPIC36:
	add	r1, pc, r1
	bl	_ZNSt7__cxx1112basic_stringIcSt11char_traitsIcESaIcEEC2EPKcRKS3_.isra.178(PLT)
	mov	r0, r4
	pop	{r4, pc}
.L293:
	ldr	r1, .L297+8
.LPIC33:
	add	r1, pc, r1
	bl	_ZNSt7__cxx1112basic_stringIcSt11char_traitsIcESaIcEEC2EPKcRKS3_.isra.178(PLT)
	b	.L286
.L294:
	ldr	r1, .L297+12
.LPIC34:
	add	r1, pc, r1
	bl	_ZNSt7__cxx1112basic_stringIcSt11char_traitsIcESaIcEEC2EPKcRKS3_.isra.178(PLT)
	b	.L286
.L295:
	ldr	r1, .L297+16
.LPIC35:
	add	r1, pc, r1
	bl	_ZNSt7__cxx1112basic_stringIcSt11char_traitsIcESaIcEEC2EPKcRKS3_.isra.178(PLT)
	b	.L286
.L298:
	.align	2
.L297:
	.word	.LC11-(.LPIC37+8)
	.word	.LC10-(.LPIC36+8)
	.word	.LC7-(.LPIC33+8)
	.word	.LC8-(.LPIC34+8)
	.word	.LC9-(.LPIC35+8)
	.fnend
	.size	_ZNK4asio5error6detail13misc_category7messageB5cxx11Ei, .-_ZNK4asio5error6detail13misc_category7messageB5cxx11Ei
	.section	.text._ZNK4asio5error6detail14netdb_category7messageB5cxx11Ei,"axG",%progbits,_ZNK4asio5error6detail14netdb_category7messageB5cxx11Ei,comdat
	.align	2
	.weak	_ZNK4asio5error6detail14netdb_category7messageB5cxx11Ei
	.syntax unified
	.arm
	.fpu vfp
	.type	_ZNK4asio5error6detail14netdb_category7messageB5cxx11Ei, %function
_ZNK4asio5error6detail14netdb_category7messageB5cxx11Ei:
	.fnstart
.LFB2079:
	@ args = 0, pretend = 0, frame = 0
	@ frame_needed = 0, uses_anonymous_args = 0
	cmp	r2, #1
	push	{r4, lr}
	.save {r4, lr}
	mov	r4, r0
	beq	.L306
	cmp	r2, #2
	beq	.L307
	cmp	r2, #4
	beq	.L308
	cmp	r2, #3
	beq	.L309
	ldr	r1, .L310
	add	r3, r0, #8
.LPIC43:
	add	r1, pc, r1
	add	r2, r1, #16
	str	r3, [r0]
	bl	_ZNSt7__cxx1112basic_stringIcSt11char_traitsIcESaIcEE12_M_constructIPKcEEvT_S8_St20forward_iterator_tag.isra.176(PLT)
.L299:
	mov	r0, r4
	pop	{r4, pc}
.L309:
	ldr	r1, .L310+4
.LPIC42:
	add	r1, pc, r1
	bl	_ZNSt7__cxx1112basic_stringIcSt11char_traitsIcESaIcEEC2EPKcRKS3_.isra.178(PLT)
	mov	r0, r4
	pop	{r4, pc}
.L306:
	ldr	r1, .L310+8
.LPIC39:
	add	r1, pc, r1
	bl	_ZNSt7__cxx1112basic_stringIcSt11char_traitsIcESaIcEEC2EPKcRKS3_.isra.178(PLT)
	b	.L299
.L307:
	ldr	r1, .L310+12
.LPIC40:
	add	r1, pc, r1
	bl	_ZNSt7__cxx1112basic_stringIcSt11char_traitsIcESaIcEEC2EPKcRKS3_.isra.178(PLT)
	b	.L299
.L308:
	ldr	r1, .L310+16
.LPIC41:
	add	r1, pc, r1
	bl	_ZNSt7__cxx1112basic_stringIcSt11char_traitsIcESaIcEEC2EPKcRKS3_.isra.178(PLT)
	b	.L299
.L311:
	.align	2
.L310:
	.word	.LC16-(.LPIC43+8)
	.word	.LC15-(.LPIC42+8)
	.word	.LC12-(.LPIC39+8)
	.word	.LC13-(.LPIC40+8)
	.word	.LC14-(.LPIC41+8)
	.fnend
	.size	_ZNK4asio5error6detail14netdb_category7messageB5cxx11Ei, .-_ZNK4asio5error6detail14netdb_category7messageB5cxx11Ei
	.section	.text._ZNK4asio5error6detail17addrinfo_category7messageB5cxx11Ei,"axG",%progbits,_ZNK4asio5error6detail17addrinfo_category7messageB5cxx11Ei,comdat
	.align	2
	.weak	_ZNK4asio5error6detail17addrinfo_category7messageB5cxx11Ei
	.syntax unified
	.arm
	.fpu vfp
	.type	_ZNK4asio5error6detail17addrinfo_category7messageB5cxx11Ei, %function
_ZNK4asio5error6detail17addrinfo_category7messageB5cxx11Ei:
	.fnstart
.LFB2085:
	@ args = 0, pretend = 0, frame = 0
	@ frame_needed = 0, uses_anonymous_args = 0
	cmn	r2, #8
	push	{r4, lr}
	.save {r4, lr}
	mov	r4, r0
	beq	.L317
	cmn	r2, #7
	beq	.L318
	ldr	r1, .L319
	add	r3, r0, #8
.LPIC48:
	add	r1, pc, r1
	add	r2, r1, #19
	str	r3, [r0]
	bl	_ZNSt7__cxx1112basic_stringIcSt11char_traitsIcESaIcEE12_M_constructIPKcEEvT_S8_St20forward_iterator_tag.isra.176(PLT)
.L312:
	mov	r0, r4
	pop	{r4, pc}
.L318:
	ldr	r1, .L319+4
	add	r3, r0, #8
.LPIC46:
	add	r1, pc, r1
	str	r3, [r0]
	add	r2, r1, #25
	bl	_ZNSt7__cxx1112basic_stringIcSt11char_traitsIcESaIcEE12_M_constructIPKcEEvT_S8_St20forward_iterator_tag.isra.176(PLT)
	mov	r0, r4
	pop	{r4, pc}
.L317:
	ldr	r1, .L319+8
.LPIC45:
	add	r1, pc, r1
	bl	_ZNSt7__cxx1112basic_stringIcSt11char_traitsIcESaIcEEC2EPKcRKS3_.isra.178(PLT)
	b	.L312
.L320:
	.align	2
.L319:
	.word	.LC19-(.LPIC48+8)
	.word	.LC18-(.LPIC46+8)
	.word	.LC17-(.LPIC45+8)
	.fnend
	.size	_ZNK4asio5error6detail17addrinfo_category7messageB5cxx11Ei, .-_ZNK4asio5error6detail17addrinfo_category7messageB5cxx11Ei
	.section	.text._ZNK4asio6detail15system_category7messageB5cxx11Ei,"axG",%progbits,_ZNK4asio6detail15system_category7messageB5cxx11Ei,comdat
	.align	2
	.weak	_ZNK4asio6detail15system_category7messageB5cxx11Ei
	.syntax unified
	.arm
	.fpu vfp
	.type	_ZNK4asio6detail15system_category7messageB5cxx11Ei, %function
_ZNK4asio6detail15system_category7messageB5cxx11Ei:
	.fnstart
.LFB2058:
	@ args = 0, pretend = 0, frame = 256
	@ frame_needed = 0, uses_anonymous_args = 0
	cmp	r2, #125
	push	{r4, r5, lr}
	.save {r4, r5, lr}
	mov	r4, r0
	.pad #260
	sub	sp, sp, #260
	beq	.L327
	mov	r3, #0
	mov	r1, r3
	mov	r5, r2
	add	r0, sp, #4
	mov	r2, #252
	str	r3, [sp]
	bl	memset(PLT)
	mov	r0, r5
	mov	r2, #256
	mov	r1, sp
	bl	strerror_r(PLT)
	add	r3, r4, #8
	str	r3, [r4]
	subs	r5, r0, #0
	mvneq	r2, #0
	beq	.L324
	bl	strlen(PLT)
	add	r2, r5, r0
.L324:
	mov	r0, r4
	mov	r1, r5
	bl	_ZNSt7__cxx1112basic_stringIcSt11char_traitsIcESaIcEE12_M_constructIPKcEEvT_S8_St20forward_iterator_tag.isra.176(PLT)
	mov	r0, r4
	add	sp, sp, #260
	@ sp needed
	pop	{r4, r5, pc}
.L327:
	ldr	r1, .L328
	add	r3, r0, #8
.LPIC50:
	add	r1, pc, r1
	str	r3, [r0]
	add	r2, r1, #18
	bl	_ZNSt7__cxx1112basic_stringIcSt11char_traitsIcESaIcEE12_M_constructIPKcEEvT_S8_St20forward_iterator_tag.isra.176(PLT)
	mov	r0, r4
	add	sp, sp, #260
	@ sp needed
	pop	{r4, r5, pc}
.L329:
	.align	2
.L328:
	.word	.LC20-(.LPIC50+8)
	.fnend
	.size	_ZNK4asio6detail15system_category7messageB5cxx11Ei, .-_ZNK4asio6detail15system_category7messageB5cxx11Ei
	.section	.text._ZN9__gnu_cxx13__scoped_lockD2Ev,"axG",%progbits,_ZN9__gnu_cxx13__scoped_lockD5Ev,comdat
	.align	2
	.weak	_ZN9__gnu_cxx13__scoped_lockD2Ev
	.syntax unified
	.arm
	.fpu vfp
	.type	_ZN9__gnu_cxx13__scoped_lockD2Ev, %function
_ZN9__gnu_cxx13__scoped_lockD2Ev:
	.fnstart
.LFB1484:
	@ args = 0, pretend = 0, frame = 0
	@ frame_needed = 0, uses_anonymous_args = 0
	push	{r4, r5, r6, lr}
	.save {r4, r5, r6, lr}
	mov	r5, r0
	ldr	r4, .L344
	ldr	r3, .L344+4
.LPIC52:
	add	r4, pc, r4
	ldr	r3, [r4, r3]
	cmp	r3, #0
	beq	.L337
	ldr	r0, [r0]
	bl	_ZL28__gthrw_pthread_mutex_unlockP15pthread_mutex_t(PLT)
	cmp	r0, #0
	bne	.L343
.L337:
	mov	r0, r5
	pop	{r4, r5, r6, pc}
.L343:
	mov	r0, #4
	bl	__cxa_allocate_exception(PLT)
	ldr	r1, .L344+8
	ldr	r2, .L344+12
	ldr	r3, .L344+16
	ldr	r1, [r4, r1]
	add	r1, r1, #8
	str	r1, [r0]
	ldr	r2, [r4, r2]
	ldr	r1, [r4, r3]
.LEHB0:
	bl	__cxa_throw(PLT)
.LEHE0:
.L334:
	cmn	r1, #1
	beq	.L333
.LEHB1:
	bl	__cxa_end_cleanup(PLT)
.L333:
	bl	__cxa_call_unexpected(PLT)
.LEHE1:
.L345:
	.align	2
.L344:
	.word	_GLOBAL_OFFSET_TABLE_-(.LPIC52+8)
	.word	_ZL28__gthrw___pthread_key_createPjPFvPvE(GOT)
	.word	_ZTVN9__gnu_cxx26__concurrence_unlock_errorE(GOT)
	.word	_ZN9__gnu_cxx26__concurrence_unlock_errorD1Ev(GOT)
	.word	_ZTIN9__gnu_cxx26__concurrence_unlock_errorE(GOT)
	.personality	__gxx_personality_v0
	.handlerdata
	.align	2
.LLSDA1484:
	.byte	0xff
	.byte	0x90
	.uleb128 .LLSDATT1484-.LLSDATTD1484
.LLSDATTD1484:
	.byte	0x1
	.uleb128 .LLSDACSE1484-.LLSDACSB1484
.LLSDACSB1484:
	.uleb128 .LEHB0-.LFB1484
	.uleb128 .LEHE0-.LEHB0
	.uleb128 .L334-.LFB1484
	.uleb128 0x1
	.uleb128 .LEHB1-.LFB1484
	.uleb128 .LEHE1-.LEHB1
	.uleb128 0
	.uleb128 0
.LLSDACSE1484:
	.byte	0x7f
	.byte	0
	.align	2
.LLSDATT1484:
	.word	0
	.section	.text._ZN9__gnu_cxx13__scoped_lockD2Ev,"axG",%progbits,_ZN9__gnu_cxx13__scoped_lockD5Ev,comdat
	.fnend
	.size	_ZN9__gnu_cxx13__scoped_lockD2Ev, .-_ZN9__gnu_cxx13__scoped_lockD2Ev
	.weak	_ZN9__gnu_cxx13__scoped_lockD1Ev
	.set	_ZN9__gnu_cxx13__scoped_lockD1Ev,_ZN9__gnu_cxx13__scoped_lockD2Ev
	.section	.text._ZSt20__throw_bad_weak_ptrv,"axG",%progbits,_ZSt20__throw_bad_weak_ptrv,comdat
	.align	2
	.weak	_ZSt20__throw_bad_weak_ptrv
	.syntax unified
	.arm
	.fpu vfp
	.type	_ZSt20__throw_bad_weak_ptrv, %function
_ZSt20__throw_bad_weak_ptrv:
	.fnstart
.LFB1577:
	@ args = 0, pretend = 0, frame = 0
	@ frame_needed = 0, uses_anonymous_args = 0
	push	{r4, lr}
	.save {r4, lr}
	mov	r0, #4
	bl	__cxa_allocate_exception(PLT)
	ldr	r3, .L348
	ldr	ip, .L348+4
.LPIC53:
	add	r3, pc, r3
	ldr	r2, .L348+8
	ldr	ip, [r3, ip]
	ldr	r1, .L348+12
	add	ip, ip, #8
	str	ip, [r0]
	ldr	r2, [r3, r2]
	ldr	r1, [r3, r1]
	bl	__cxa_throw(PLT)
.L349:
	.align	2
.L348:
	.word	_GLOBAL_OFFSET_TABLE_-(.LPIC53+8)
	.word	_ZTVSt12bad_weak_ptr(GOT)
	.word	_ZNSt12bad_weak_ptrD1Ev(GOT)
	.word	_ZTISt12bad_weak_ptr(GOT)
	.fnend
	.size	_ZSt20__throw_bad_weak_ptrv, .-_ZSt20__throw_bad_weak_ptrv
	.section	.text._ZNSt16_Sp_counted_baseILN9__gnu_cxx12_Lock_policyE1EE15_M_add_ref_lockEv,"axG",%progbits,_ZNSt16_Sp_counted_baseILN9__gnu_cxx12_Lock_policyE1EE15_M_add_ref_lockEv,comdat
	.align	2
	.weak	_ZNSt16_Sp_counted_baseILN9__gnu_cxx12_Lock_policyE1EE15_M_add_ref_lockEv
	.syntax unified
	.arm
	.fpu vfp
	.type	_ZNSt16_Sp_counted_baseILN9__gnu_cxx12_Lock_policyE1EE15_M_add_ref_lockEv, %function
_ZNSt16_Sp_counted_baseILN9__gnu_cxx12_Lock_policyE1EE15_M_add_ref_lockEv:
	.fnstart
.LFB1593:
	@ args = 0, pretend = 0, frame = 8
	@ frame_needed = 0, uses_anonymous_args = 0
	push	{r4, r5, lr}
	.save {r4, r5, lr}
	.pad #12
	sub	sp, sp, #12
	ldr	r5, .L371
	ldr	r3, .L371+4
.LPIC54:
	add	r5, pc, r5
	mov	r4, r0
	add	r0, r0, #4
	str	r0, [sp, #4]
	ldr	r3, [r5, r3]
	cmp	r3, #0
	beq	.L351
	bl	_ZL26__gthrw_pthread_mutex_lockP15pthread_mutex_t(PLT)
	cmp	r0, #0
	bne	.L370
	add	r3, r4, #28
	mcr	p15, 0, r0, c7, c10, 5
.L367:
	ldrex	r2, [r3]
	add	r1, r2, #1
	strex	r0, r1, [r3]
	cmp	r0, #0
	bne	.L367
	cmp	r2, #0
	mcr	p15, 0, r0, c7, c10, 5
	beq	.L356
	ldr	r0, [sp, #4]
	bl	_ZL28__gthrw_pthread_mutex_unlockP15pthread_mutex_t(PLT)
	cmp	r0, #0
	bne	.L358
.L350:
	add	sp, sp, #12
	@ sp needed
	pop	{r4, r5, pc}
.L351:
	ldr	r3, [r4, #28]
	cmp	r3, #0
	add	r3, r3, #1
	str	r3, [r4, #28]
	bne	.L350
.L356:
	mov	r3, #0
	str	r3, [r4, #28]
.LEHB2:
	bl	_ZSt20__throw_bad_weak_ptrv(PLT)
.LEHE2:
.L359:
	add	r0, sp, #4
	bl	_ZN9__gnu_cxx13__scoped_lockD1Ev(PLT)
.L369:
.LEHB3:
	bl	__cxa_end_cleanup(PLT)
.LEHE3:
.L358:
	mov	r0, #4
	bl	__cxa_allocate_exception(PLT)
	ldr	r1, .L371+8
	ldr	r2, .L371+12
	ldr	r3, .L371+16
	ldr	r1, [r5, r1]
	add	r1, r1, #8
	str	r1, [r0]
	ldr	r2, [r5, r2]
	ldr	r1, [r5, r3]
.LEHB4:
	bl	__cxa_throw(PLT)
.LEHE4:
.L360:
	cmn	r1, #1
	bne	.L369
.LEHB5:
	bl	__cxa_call_unexpected(PLT)
.L370:
	mov	r0, #4
	bl	__cxa_allocate_exception(PLT)
	ldr	r1, .L371+20
	ldr	r2, .L371+24
	ldr	r3, .L371+28
	ldr	r1, [r5, r1]
	add	r1, r1, #8
	str	r1, [r0]
	ldr	r2, [r5, r2]
	ldr	r1, [r5, r3]
	bl	__cxa_throw(PLT)
.LEHE5:
.L372:
	.align	2
.L371:
	.word	_GLOBAL_OFFSET_TABLE_-(.LPIC54+8)
	.word	_ZL28__gthrw___pthread_key_createPjPFvPvE(GOT)
	.word	_ZTVN9__gnu_cxx26__concurrence_unlock_errorE(GOT)
	.word	_ZN9__gnu_cxx26__concurrence_unlock_errorD1Ev(GOT)
	.word	_ZTIN9__gnu_cxx26__concurrence_unlock_errorE(GOT)
	.word	_ZTVN9__gnu_cxx24__concurrence_lock_errorE(GOT)
	.word	_ZN9__gnu_cxx24__concurrence_lock_errorD1Ev(GOT)
	.word	_ZTIN9__gnu_cxx24__concurrence_lock_errorE(GOT)
	.personality	__gxx_personality_v0
	.handlerdata
	.align	2
.LLSDA1593:
	.byte	0xff
	.byte	0x90
	.uleb128 .LLSDATT1593-.LLSDATTD1593
.LLSDATTD1593:
	.byte	0x1
	.uleb128 .LLSDACSE1593-.LLSDACSB1593
.LLSDACSB1593:
	.uleb128 .LEHB2-.LFB1593
	.uleb128 .LEHE2-.LEHB2
	.uleb128 .L359-.LFB1593
	.uleb128 0
	.uleb128 .LEHB3-.LFB1593
	.uleb128 .LEHE3-.LEHB3
	.uleb128 0
	.uleb128 0
	.uleb128 .LEHB4-.LFB1593
	.uleb128 .LEHE4-.LEHB4
	.uleb128 .L360-.LFB1593
	.uleb128 0x1
	.uleb128 .LEHB5-.LFB1593
	.uleb128 .LEHE5-.LEHB5
	.uleb128 0
	.uleb128 0
.LLSDACSE1593:
	.byte	0x7f
	.byte	0
	.align	2
.LLSDATT1593:
	.word	0
	.section	.text._ZNSt16_Sp_counted_baseILN9__gnu_cxx12_Lock_policyE1EE15_M_add_ref_lockEv,"axG",%progbits,_ZNSt16_Sp_counted_baseILN9__gnu_cxx12_Lock_policyE1EE15_M_add_ref_lockEv,comdat
	.fnend
	.size	_ZNSt16_Sp_counted_baseILN9__gnu_cxx12_Lock_policyE1EE15_M_add_ref_lockEv, .-_ZNSt16_Sp_counted_baseILN9__gnu_cxx12_Lock_policyE1EE15_M_add_ref_lockEv
	.section	.text._ZNSt12system_errorC2ESt10error_codePKc,"axG",%progbits,_ZNSt12system_errorC5ESt10error_codePKc,comdat
	.align	2
	.weak	_ZNSt12system_errorC2ESt10error_codePKc
	.syntax unified
	.arm
	.fpu vfp
	.type	_ZNSt12system_errorC2ESt10error_codePKc, %function
_ZNSt12system_errorC2ESt10error_codePKc:
	.fnstart
.LFB2018:
	@ args = 0, pretend = 0, frame = 80
	@ frame_needed = 0, uses_anonymous_args = 0
	push	{r4, r5, r6, r7, r8, r9, r10, fp, lr}
	.save {r4, r5, r6, r7, r8, r9, r10, fp, lr}
	.pad #92
	sub	sp, sp, #92
	add	r4, sp, #8
	add	r8, sp, #64
	stm	r4, {r1, r2}
	ldr	r2, [sp, #12]
	mov	r5, r0
	mov	r1, r2
	ldr	ip, [r2]
	mov	r0, r8
	ldr	r2, [sp, #8]
	ldr	r6, [ip, #16]
	mov	r7, r3
.LEHB6:
	blx	r6
.LEHE6:
	mov	r3, #2
	str	r3, [sp]
	ldr	r3, .L392
	mov	r2, #0
	ldr	r9, .L392+4
	mov	r0, r8
	mov	r1, r2
.LPIC55:
	add	r3, pc, r3
.LPIC56:
	add	r9, pc, r9
.LEHB7:
	bl	_ZNSt7__cxx1112basic_stringIcSt11char_traitsIcESaIcEE10_M_replaceEjjPKcj(PLT)
.LEHE7:
	mov	lr, r0
	add	r6, sp, #48
	str	r6, [sp, #40]
	ldr	r3, [lr], #8
	mov	ip, r0
	cmp	r3, lr
	moveq	r10, r6
	ldreq	r0, [lr]	@ unaligned
	ldreq	r1, [lr, #4]	@ unaligned
	ldreq	r2, [lr, #8]	@ unaligned
	ldreq	r3, [lr, #12]	@ unaligned
	ldrne	r2, [ip, #8]
	strne	r3, [sp, #40]
	stmiaeq	r10!, {r0, r1, r2, r3}
	mov	fp, #0
	strne	r2, [sp, #48]
	ldr	r3, [ip, #4]
	strb	fp, [ip, #8]
	str	r3, [sp, #44]
	mov	r0, r7
	str	lr, [ip]
	str	fp, [ip, #4]
	bl	strlen(PLT)
	add	r10, sp, #40
	mov	r3, r7
	mov	r2, fp
	mov	r1, fp
	str	r0, [sp]
	mov	r0, r10
.LEHB8:
	bl	_ZNSt7__cxx1112basic_stringIcSt11char_traitsIcESaIcEE10_M_replaceEjjPKcj(PLT)
.LEHE8:
	mov	lr, r0
	add	r7, sp, #24
	str	r7, [sp, #16]
	ldr	r3, [lr], #8
	mov	ip, r0
	cmp	r3, lr
	moveq	fp, r7
	ldreq	r0, [lr]	@ unaligned
	ldreq	r1, [lr, #4]	@ unaligned
	ldreq	r2, [lr, #8]	@ unaligned
	ldreq	r3, [lr, #12]	@ unaligned
	ldrne	r2, [ip, #8]
	strne	r3, [sp, #16]
	stmiaeq	fp!, {r0, r1, r2, r3}
	mov	r3, #0
	strne	r2, [sp, #24]
	ldr	r2, [ip, #4]
	add	fp, sp, #16
	str	r2, [sp, #20]
	strb	r3, [ip, #8]
	str	lr, [ip]
	str	r3, [ip, #4]
	mov	r1, fp
	mov	r0, r5
.LEHB9:
	bl	_ZNSt13runtime_errorC2ERKNSt7__cxx1112basic_stringIcSt11char_traitsIcESaIcEEE(PLT)
.LEHE9:
	ldr	r0, [sp, #16]
	cmp	r0, r7
	beq	.L378
	bl	_ZdlPv(PLT)
.L378:
	ldr	r0, [sp, #40]
	cmp	r0, r6
	beq	.L379
	bl	_ZdlPv(PLT)
.L379:
	ldr	r0, [sp, #64]
	add	r3, sp, #72
	cmp	r0, r3
	beq	.L380
	bl	_ZdlPv(PLT)
.L380:
	ldr	r2, .L392+8
	ldm	r4, {r0, r1}
	mov	r3, r5
	ldr	r2, [r9, r2]
	add	r2, r2, #8
	str	r2, [r3], #8
	stm	r3, {r0, r1}
	mov	r0, r5
	add	sp, sp, #92
	@ sp needed
	pop	{r4, r5, r6, r7, r8, r9, r10, fp, pc}
.L387:
.L385:
	ldr	r0, [sp, #64]
	add	r8, r8, #8
	cmp	r0, r8
	beq	.L386
	bl	_ZdlPv(PLT)
.L386:
.LEHB10:
	bl	__cxa_end_cleanup(PLT)
.LEHE10:
.L389:
	ldr	r0, [sp, #16]
	add	fp, fp, #8
	cmp	r0, fp
	beq	.L383
	bl	_ZdlPv(PLT)
.L383:
	ldr	r0, [sp, #40]
	add	r10, r10, #8
	cmp	r0, r10
	beq	.L385
	bl	_ZdlPv(PLT)
	b	.L385
.L388:
	b	.L383
.L393:
	.align	2
.L392:
	.word	.LC21-(.LPIC55+8)
	.word	_GLOBAL_OFFSET_TABLE_-(.LPIC56+8)
	.word	_ZTVSt12system_error(GOT)
	.personality	__gxx_personality_v0
	.handlerdata
.LLSDA2018:
	.byte	0xff
	.byte	0xff
	.byte	0x1
	.uleb128 .LLSDACSE2018-.LLSDACSB2018
.LLSDACSB2018:
	.uleb128 .LEHB6-.LFB2018
	.uleb128 .LEHE6-.LEHB6
	.uleb128 0
	.uleb128 0
	.uleb128 .LEHB7-.LFB2018
	.uleb128 .LEHE7-.LEHB7
	.uleb128 .L387-.LFB2018
	.uleb128 0
	.uleb128 .LEHB8-.LFB2018
	.uleb128 .LEHE8-.LEHB8
	.uleb128 .L388-.LFB2018
	.uleb128 0
	.uleb128 .LEHB9-.LFB2018
	.uleb128 .LEHE9-.LEHB9
	.uleb128 .L389-.LFB2018
	.uleb128 0
	.uleb128 .LEHB10-.LFB2018
	.uleb128 .LEHE10-.LEHB10
	.uleb128 0
	.uleb128 0
.LLSDACSE2018:
	.section	.text._ZNSt12system_errorC2ESt10error_codePKc,"axG",%progbits,_ZNSt12system_errorC5ESt10error_codePKc,comdat
	.fnend
	.size	_ZNSt12system_errorC2ESt10error_codePKc, .-_ZNSt12system_errorC2ESt10error_codePKc
	.weak	_ZNSt12system_errorC1ESt10error_codePKc
	.set	_ZNSt12system_errorC1ESt10error_codePKc,_ZNSt12system_errorC2ESt10error_codePKc
	.section	.text._ZN4asio15system_categoryEv,"axG",%progbits,_ZN4asio15system_categoryEv,comdat
	.align	2
	.weak	_ZN4asio15system_categoryEv
	.syntax unified
	.arm
	.fpu vfp
	.type	_ZN4asio15system_categoryEv, %function
_ZN4asio15system_categoryEv:
	.fnstart
.LFB2061:
	@ args = 0, pretend = 0, frame = 0
	@ frame_needed = 0, uses_anonymous_args = 0
	push	{r4, r5, r6, lr}
	ldr	r4, .L404
	ldr	r3, .L404+4
.LPIC57:
	add	r4, pc, r4
	ldr	r5, [r4, r3]
	ldrb	r3, [r5]	@ zero_extendqisi2
	mcr	p15, 0, r0, c7, c10, 5
	tst	r3, #1
	beq	.L403
.L402:
	ldr	r3, .L404+8
	ldr	r4, [r4, r3]
	mov	r0, r4
	pop	{r4, r5, r6, pc}
.L403:
	mov	r0, r5
	bl	__cxa_guard_acquire(PLT)
	cmp	r0, #0
	beq	.L402
	mov	r0, r5
	bl	__cxa_guard_release(PLT)
	ldr	r3, .L404+8
	ldr	r1, .L404+12
	ldr	r2, .L404+16
	ldr	r1, [r4, r1]
	ldr	r4, [r4, r3]
.LPIC58:
	add	r2, pc, r2
	mov	r0, r4
	bl	__aeabi_atexit(PLT)
	mov	r0, r4
	pop	{r4, r5, r6, pc}
.L405:
	.align	2
.L404:
	.word	_GLOBAL_OFFSET_TABLE_-(.LPIC57+8)
	.word	_ZGVZN4asio15system_categoryEvE8instance(GOT)
	.word	_ZZN4asio15system_categoryEvE8instance(GOT)
	.word	_ZN4asio6detail15system_categoryD1Ev(GOT)
	.word	__dso_handle-(.LPIC58+8)
	.cantunwind
	.fnend
	.size	_ZN4asio15system_categoryEv, .-_ZN4asio15system_categoryEv
	.section	.text._ZN4asio6detail31reactive_socket_connect_op_base10do_performEPNS0_10reactor_opE,"axG",%progbits,_ZN4asio6detail31reactive_socket_connect_op_base10do_performEPNS0_10reactor_opE,comdat
	.align	2
	.weak	_ZN4asio6detail31reactive_socket_connect_op_base10do_performEPNS0_10reactor_opE
	.syntax unified
	.arm
	.fpu vfp
	.type	_ZN4asio6detail31reactive_socket_connect_op_base10do_performEPNS0_10reactor_opE, %function
_ZN4asio6detail31reactive_socket_connect_op_base10do_performEPNS0_10reactor_opE:
	.fnstart
.LFB3549:
	@ args = 0, pretend = 0, frame = 16
	@ frame_needed = 0, uses_anonymous_args = 0
	push	{r4, r5, r6, r7, r8, lr}
	.save {r4, r5, r6, r7, r8, lr}
	.pad #24
	sub	sp, sp, #24
	ldr	r5, [r0, #28]
	mov	r4, r0
	mov	r6, #4
	mov	r2, #0
	mov	r1, #1
	add	r0, sp, #16
	str	r5, [sp, #16]
	str	r6, [sp, #20]
	bl	poll(PLT)
	cmp	r0, #0
	bne	.L416
	add	sp, sp, #24
	@ sp needed
	pop	{r4, r5, r6, r7, r8, pc}
.L416:
	mov	r7, #0
	cmn	r5, #1
	str	r7, [sp, #8]
	beq	.L417
	bl	__errno_location(PLT)
	add	r3, sp, #12
	mov	r2, r6
	mov	r1, #1
	str	r6, [sp, #12]
	str	r7, [r0]
	mov	r8, r0
	str	r3, [sp]
	mov	r0, r5
	add	r3, sp, #8
	bl	getsockopt(PLT)
	ldr	r5, [r8]
	mov	r6, r0
	bl	_ZN4asio15system_categoryEv(PLT)
	cmp	r6, #0
	str	r5, [r4, #12]
	str	r0, [r4, #16]
	bne	.L409
	bl	_ZNSt3_V215system_categoryEv(PLT)
	ldr	r5, [sp, #8]
	str	r6, [r4, #12]
	cmp	r5, #0
	str	r0, [r4, #16]
	bne	.L418
.L409:
	mov	r0, #1
	add	sp, sp, #24
	@ sp needed
	pop	{r4, r5, r6, r7, r8, pc}
.L418:
	bl	_ZN4asio15system_categoryEv(PLT)
	str	r5, [r4, #12]
	str	r0, [r4, #16]
	b	.L409
.L417:
	bl	_ZN4asio15system_categoryEv(PLT)
	mov	r3, #9
	str	r3, [r4, #12]
	str	r0, [r4, #16]
	b	.L409
	.fnend
	.size	_ZN4asio6detail31reactive_socket_connect_op_base10do_performEPNS0_10reactor_opE, .-_ZN4asio6detail31reactive_socket_connect_op_base10do_performEPNS0_10reactor_opE
	.section	.text._ZN4asio5error18get_netdb_categoryEv,"axG",%progbits,_ZN4asio5error18get_netdb_categoryEv,comdat
	.align	2
	.weak	_ZN4asio5error18get_netdb_categoryEv
	.syntax unified
	.arm
	.fpu vfp
	.type	_ZN4asio5error18get_netdb_categoryEv, %function
_ZN4asio5error18get_netdb_categoryEv:
	.fnstart
.LFB2080:
	@ args = 0, pretend = 0, frame = 0
	@ frame_needed = 0, uses_anonymous_args = 0
	push	{r4, r5, r6, lr}
	ldr	r4, .L429
	ldr	r3, .L429+4
.LPIC59:
	add	r4, pc, r4
	ldr	r5, [r4, r3]
	ldrb	r3, [r5]	@ zero_extendqisi2
	mcr	p15, 0, r0, c7, c10, 5
	tst	r3, #1
	beq	.L428
.L427:
	ldr	r3, .L429+8
	ldr	r4, [r4, r3]
	mov	r0, r4
	pop	{r4, r5, r6, pc}
.L428:
	mov	r0, r5
	bl	__cxa_guard_acquire(PLT)
	cmp	r0, #0
	beq	.L427
	mov	r0, r5
	bl	__cxa_guard_release(PLT)
	ldr	r3, .L429+8
	ldr	r1, .L429+12
	ldr	r2, .L429+16
	ldr	r1, [r4, r1]
	ldr	r4, [r4, r3]
.LPIC60:
	add	r2, pc, r2
	mov	r0, r4
	bl	__aeabi_atexit(PLT)
	mov	r0, r4
	pop	{r4, r5, r6, pc}
.L430:
	.align	2
.L429:
	.word	_GLOBAL_OFFSET_TABLE_-(.LPIC59+8)
	.word	_ZGVZN4asio5error18get_netdb_categoryEvE8instance(GOT)
	.word	_ZZN4asio5error18get_netdb_categoryEvE8instance(GOT)
	.word	_ZN4asio5error6detail14netdb_categoryD1Ev(GOT)
	.word	__dso_handle-(.LPIC60+8)
	.cantunwind
	.fnend
	.size	_ZN4asio5error18get_netdb_categoryEv, .-_ZN4asio5error18get_netdb_categoryEv
	.section	.text._ZN4asio21asio_handler_allocateEjz,"axG",%progbits,_ZN4asio21asio_handler_allocateEjz,comdat
	.align	2
	.weak	_ZN4asio21asio_handler_allocateEjz
	.syntax unified
	.arm
	.fpu vfp
	.type	_ZN4asio21asio_handler_allocateEjz, %function
_ZN4asio21asio_handler_allocateEjz:
	.fnstart
.LFB2124:
	@ args = 4, pretend = 16, frame = 0
	@ frame_needed = 0, uses_anonymous_args = 1
	push	{r0, r1, r2, r3}
	.save {r0, r1, r2, r3}
	ldr	r3, .L447
	ldr	r2, .L447+4
.LPIC61:
	add	r3, pc, r3
	push	{r4, lr}
	.save {r4, lr}
	ldr	r3, [r3, r2]
	ldr	r4, [sp, #8]
	ldr	r0, [r3]
	bl	pthread_getspecific(PLT)
	cmp	r0, #0
	beq	.L432
	ldr	r3, [r0, #4]
	cmp	r3, #0
	beq	.L432
	ldr	r0, [r3]
	cmp	r0, #0
	beq	.L432
	mov	r2, #0
	str	r2, [r3]
	ldrb	r3, [r0]	@ zero_extendqisi2
	cmp	r4, r3
	strbls	r3, [r0, r4]
	bhi	.L446
	pop	{r4, lr}
	add	sp, sp, #16
	bx	lr
.L446:
	bl	_ZdlPv(PLT)
.L432:
	add	r0, r4, #1
	bl	_Znwj(PLT)
	cmp	r4, #255
	add	r3, r0, r4
	movhi	r4, #0
	strb	r4, [r3]
	pop	{r4, lr}
	add	sp, sp, #16
	bx	lr
.L448:
	.align	2
.L447:
	.word	_GLOBAL_OFFSET_TABLE_-(.LPIC61+8)
	.word	_ZN4asio6detail10call_stackINS0_15task_io_serviceENS0_27task_io_service_thread_infoEE4top_E(GOT)
	.fnend
	.size	_ZN4asio21asio_handler_allocateEjz, .-_ZN4asio21asio_handler_allocateEjz
	.section	.text._ZN4asio23asio_handler_deallocateEPvjz,"axG",%progbits,_ZN4asio23asio_handler_deallocateEPvjz,comdat
	.align	2
	.weak	_ZN4asio23asio_handler_deallocateEPvjz
	.syntax unified
	.arm
	.fpu vfp
	.type	_ZN4asio23asio_handler_deallocateEPvjz, %function
_ZN4asio23asio_handler_deallocateEPvjz:
	.fnstart
.LFB2125:
	@ args = 4, pretend = 12, frame = 0
	@ frame_needed = 0, uses_anonymous_args = 1
	push	{r1, r2, r3}
	ldr	r3, .L460
	ldr	r2, .L460+4
.LPIC62:
	add	r3, pc, r3
	push	{r4, r5, lr}
	mov	r4, r0
	ldr	r2, [r3, r2]
	ldr	r0, [r2]
	bl	pthread_getspecific(PLT)
	cmp	r0, #0
	beq	.L450
	ldr	r3, [r0, #4]
	ldr	r1, [sp, #12]
	adds	r2, r3, #0
	movne	r2, #1
	cmp	r1, #255
	movhi	r2, #0
	cmp	r2, #0
	beq	.L450
	ldr	r2, [r3]
	cmp	r2, #0
	beq	.L459
.L450:
	mov	r0, r4
	bl	_ZdlPv(PLT)
.L449:
	pop	{r4, r5, lr}
	add	sp, sp, #12
	bx	lr
.L459:
	ldrb	r2, [r4, r1]	@ zero_extendqisi2
	strb	r2, [r4]
	str	r4, [r3]
	b	.L449
.L461:
	.align	2
.L460:
	.word	_GLOBAL_OFFSET_TABLE_-(.LPIC62+8)
	.word	_ZN4asio6detail10call_stackINS0_15task_io_serviceENS0_27task_io_service_thread_infoEE4top_E(GOT)
	.cantunwind
	.fnend
	.size	_ZN4asio23asio_handler_deallocateEPvjz, .-_ZN4asio23asio_handler_deallocateEPvjz
	.section	.text._ZN4asio28asio_handler_is_continuationEz,"axG",%progbits,_ZN4asio28asio_handler_is_continuationEz,comdat
	.align	2
	.weak	_ZN4asio28asio_handler_is_continuationEz
	.syntax unified
	.arm
	.fpu vfp
	.type	_ZN4asio28asio_handler_is_continuationEz, %function
_ZN4asio28asio_handler_is_continuationEz:
	.fnstart
.LFB2128:
	@ args = 0, pretend = 0, frame = 0
	@ frame_needed = 0, uses_anonymous_args = 0
	@ link register save eliminated.
	mov	r0, #0
	bx	lr
	.cantunwind
	.fnend
	.size	_ZN4asio28asio_handler_is_continuationEz, .-_ZN4asio28asio_handler_is_continuationEz
	.section	.text._ZN4asio6detail16service_registry14do_use_serviceERKNS_10io_service7service3keyEPFPS3_RS2_E,"axG",%progbits,_ZN4asio6detail16service_registry14do_use_serviceERKNS_10io_service7service3keyEPFPS3_RS2_E,comdat
	.align	2
	.weak	_ZN4asio6detail16service_registry14do_use_serviceERKNS_10io_service7service3keyEPFPS3_RS2_E
	.syntax unified
	.arm
	.fpu vfp
	.type	_ZN4asio6detail16service_registry14do_use_serviceERKNS_10io_service7service3keyEPFPS3_RS2_E, %function
_ZN4asio6detail16service_registry14do_use_serviceERKNS_10io_service7service3keyEPFPS3_RS2_E:
	.fnstart
.LFB2543:
	@ args = 0, pretend = 0, frame = 0
	@ frame_needed = 0, uses_anonymous_args = 0
	push	{r4, r5, r6, r7, r8, lr}
	.save {r4, r5, r6, r7, r8, lr}
	mov	r6, r0
	add	r7, r0, #4
	mov	r0, r7
	mov	r5, r1
	mov	r8, r2
	bl	pthread_mutex_lock(PLT)
	ldr	r4, [r6, #32]
	cmp	r4, #0
	bne	.L472
	b	.L464
.L467:
	ldr	r4, [r4, #16]
	cmp	r4, #0
	beq	.L464
.L472:
	ldr	r3, [r4, #8]
	cmp	r3, #0
	beq	.L465
	ldr	r2, [r5, #4]
	adds	r1, r2, #0
	movne	r1, #1
	cmp	r3, r2
	movne	r1, #0
	cmp	r1, #0
	bne	.L466
.L465:
	ldr	r3, [r4, #4]
	subs	r0, r3, #0
	beq	.L467
	ldr	r3, [r5]
	subs	r1, r3, #0
	beq	.L467
	bl	_ZNKSt9type_infoeqERKS_(PLT)
	cmp	r0, #0
	beq	.L467
.L466:
	mov	r0, r7
	bl	pthread_mutex_unlock(PLT)
	mov	r0, r4
	pop	{r4, r5, r6, r7, r8, pc}
.L464:
	mov	r0, r7
	bl	pthread_mutex_unlock(PLT)
	ldr	r0, [r6, #28]
	blx	r8
	mov	r8, r0
	ldm	r5, {r0, r1}
	stmib	r8, {r0, r1}
	mov	r0, r7
	bl	pthread_mutex_lock(PLT)
	ldr	r4, [r6, #32]
	cmp	r4, #0
	bne	.L473
	str	r4, [r8, #16]
	str	r8, [r6, #32]
	mov	r4, r8
	b	.L466
.L471:
	ldr	r4, [r4, #16]
	cmp	r4, #0
	beq	.L504
.L473:
	ldr	r3, [r4, #8]
	cmp	r3, #0
	beq	.L469
	ldr	r2, [r5, #4]
	adds	r1, r2, #0
	movne	r1, #1
	cmp	r3, r2
	movne	r1, #0
	cmp	r1, #0
	bne	.L470
.L469:
	ldr	r3, [r4, #4]
	subs	r0, r3, #0
	beq	.L471
	ldr	r3, [r5]
	subs	r1, r3, #0
	beq	.L471
	bl	_ZNKSt9type_infoeqERKS_(PLT)
	cmp	r0, #0
	beq	.L471
.L470:
	ldr	r3, [r8]
	mov	r0, r8
	ldr	r3, [r3, #4]
	blx	r3
	b	.L466
.L504:
	ldr	r4, [r6, #32]
	str	r4, [r8, #16]
	str	r8, [r6, #32]
	mov	r4, r8
	b	.L466
	.fnend
	.size	_ZN4asio6detail16service_registry14do_use_serviceERKNS_10io_service7service3keyEPFPS3_RS2_E, .-_ZN4asio6detail16service_registry14do_use_serviceERKNS_10io_service7service3keyEPFPS3_RS2_E
	.section	.text._ZN4asio6detail13epoll_reactor3runEbRNS0_8op_queueINS0_25task_io_service_operationEEE,"axG",%progbits,_ZN4asio6detail13epoll_reactor3runEbRNS0_8op_queueINS0_25task_io_service_operationEEE,comdat
	.align	2
	.weak	_ZN4asio6detail13epoll_reactor3runEbRNS0_8op_queueINS0_25task_io_service_operationEEE
	.syntax unified
	.arm
	.fpu vfp
	.type	_ZN4asio6detail13epoll_reactor3runEbRNS0_8op_queueINS0_25task_io_service_operationEEE, %function
_ZN4asio6detail13epoll_reactor3runEbRNS0_8op_queueINS0_25task_io_service_operationEEE:
	.fnstart
.LFB3061:
	@ args = 0, pretend = 0, frame = 2088
	@ frame_needed = 0, uses_anonymous_args = 0
	ldr	r3, [r0, #60]
	push	{r4, r5, r6, r7, r8, lr}
	.save {r4, r5, r6, r7, r8, lr}
	cmn	r3, #1
	.pad #2080
	sub	sp, sp, #2080
	.pad #8
	sub	sp, sp, #8
	mov	r6, r0
	mov	r5, r2
	rsbne	r3, r1, #0
	beq	.L545
.L507:
	add	r4, sp, #40
	mov	r1, r4
	mov	r2, #128
	ldr	r0, [r6, #56]
.LEHB11:
	bl	epoll_wait(PLT)
.LEHE11:
	ldr	r8, [r6, #60]
	cmn	r8, #1
	movne	r8, #0
	moveq	r8, #1
	cmp	r0, #0
	ble	.L510
	mov	r1, r4
	add	ip, r4, r0, lsl #4
	add	lr, r6, #48
	add	r4, r6, #60
	mov	r7, #0
	b	.L514
.L511:
	cmp	r3, r4
	moveq	r8, #1
	beq	.L512
	ldr	r2, [r5, #4]
	ldr	r0, [r1]
	cmp	r2, #0
	str	r0, [r3, #8]
	str	r7, [r3]
	strne	r3, [r2]
	streq	r3, [r5, #4]
	strne	r3, [r5, #4]
	streq	r3, [r5]
.L512:
	add	r1, r1, #16
	cmp	ip, r1
	beq	.L510
.L514:
	ldr	r3, [r1, #8]
	cmp	r3, lr
	bne	.L511
	ldr	r3, [r6, #60]
	add	r1, r1, #16
	cmn	r3, #1
	moveq	r8, #1
	cmp	ip, r1
	bne	.L514
.L510:
	cmp	r8, #0
	bne	.L546
	add	sp, sp, #2080
	add	sp, sp, #8
	@ sp needed
	pop	{r4, r5, r6, r7, r8, pc}
.L546:
	add	r7, r6, #24
	mov	r0, r7
	bl	pthread_mutex_lock(PLT)
	ldr	r4, [r6, #64]
	cmp	r4, #0
	beq	.L519
.L520:
	ldr	r3, [r4]
	mov	r1, r5
	mov	r0, r4
	ldr	r3, [r3, #20]
.LEHB12:
	blx	r3
	ldr	r4, [r4, #4]
	cmp	r4, #0
	bne	.L520
.L519:
	ldr	r0, [r6, #60]
	cmn	r0, #1
	beq	.L518
	ldr	r4, [r6, #64]
	mov	r3, #0
	cmp	r4, r3
	str	r3, [sp, #8]
	str	r3, [sp, #12]
	beq	.L521
	ldr	r1, .L548
.L522:
	ldr	r3, [r4]
	mov	r0, r4
	ldr	r3, [r3, #16]
	blx	r3
.LEHE12:
	ldr	r4, [r4, #4]
	mov	r1, r0
	cmp	r4, #0
	bne	.L522
	ldr	r2, .L548+4
	asr	r3, r0, #31
	cmp	r0, #0
	smull	r0, r2, r2, r1
	rsb	r3, r3, r2, asr #18
	str	r3, [sp, #16]
	beq	.L547
	ldr	r2, .L548+8
	mov	r4, #1000
	ldr	r0, [r6, #60]
	mul	r3, r2, r3
	sub	r1, r1, r3
	mul	r4, r4, r1
.L527:
	mov	r1, #0
.L524:
	add	r3, sp, #24
	add	r2, sp, #8
	str	r4, [sp, #20]
	bl	timerfd_settime(PLT)
.L518:
	mov	r0, r7
	bl	pthread_mutex_unlock(PLT)
	add	sp, sp, #2080
	add	sp, sp, #8
	@ sp needed
	pop	{r4, r5, r6, r7, r8, pc}
.L547:
	mov	r1, #1
	ldr	r0, [r6, #60]
	mov	r4, r1
	b	.L524
.L545:
	add	r7, r0, #24
	mov	r0, r7
	str	r1, [sp, #4]
	bl	pthread_mutex_lock(PLT)
	ldr	r1, [sp, #4]
	cmp	r1, #0
	beq	.L528
	ldr	r4, [r6, #64]
	cmp	r4, #0
	beq	.L529
	ldr	r1, .L548+12
.L509:
	ldr	r3, [r4]
	mov	r0, r4
	ldr	r3, [r3, #12]
.LEHB13:
	blx	r3
.LEHE13:
	ldr	r4, [r4, #4]
	mov	r1, r0
	cmp	r4, #0
	bne	.L509
.L528:
	mov	r3, r1
.L508:
	mov	r0, r7
	str	r3, [sp, #4]
	bl	pthread_mutex_unlock(PLT)
	ldr	r3, [sp, #4]
	b	.L507
.L521:
	mov	r3, #300
	str	r3, [sp, #16]
	b	.L527
.L532:
.L544:
	mov	r0, r7
	bl	pthread_mutex_unlock(PLT)
.LEHB14:
	bl	__cxa_end_cleanup(PLT)
.LEHE14:
.L529:
	ldr	r3, .L548+12
	b	.L508
.L533:
	b	.L544
.L549:
	.align	2
.L548:
	.word	300000000
	.word	1125899907
	.word	1000000
	.word	300000
	.personality	__gxx_personality_v0
	.handlerdata
.LLSDA3061:
	.byte	0xff
	.byte	0xff
	.byte	0x1
	.uleb128 .LLSDACSE3061-.LLSDACSB3061
.LLSDACSB3061:
	.uleb128 .LEHB11-.LFB3061
	.uleb128 .LEHE11-.LEHB11
	.uleb128 0
	.uleb128 0
	.uleb128 .LEHB12-.LFB3061
	.uleb128 .LEHE12-.LEHB12
	.uleb128 .L533-.LFB3061
	.uleb128 0
	.uleb128 .LEHB13-.LFB3061
	.uleb128 .LEHE13-.LEHB13
	.uleb128 .L532-.LFB3061
	.uleb128 0
	.uleb128 .LEHB14-.LFB3061
	.uleb128 .LEHE14-.LEHB14
	.uleb128 0
	.uleb128 0
.LLSDACSE3061:
	.section	.text._ZN4asio6detail13epoll_reactor3runEbRNS0_8op_queueINS0_25task_io_service_operationEEE,"axG",%progbits,_ZN4asio6detail13epoll_reactor3runEbRNS0_8op_queueINS0_25task_io_service_operationEEE,comdat
	.fnend
	.size	_ZN4asio6detail13epoll_reactor3runEbRNS0_8op_queueINS0_25task_io_service_operationEEE, .-_ZN4asio6detail13epoll_reactor3runEbRNS0_8op_queueINS0_25task_io_service_operationEEE
	.section	.text._ZN4asio6detail15task_io_service12task_cleanupD2Ev,"axG",%progbits,_ZN4asio6detail15task_io_service12task_cleanupD5Ev,comdat
	.align	2
	.weak	_ZN4asio6detail15task_io_service12task_cleanupD2Ev
	.syntax unified
	.arm
	.fpu vfp
	.type	_ZN4asio6detail15task_io_service12task_cleanupD2Ev, %function
_ZN4asio6detail15task_io_service12task_cleanupD2Ev:
	.fnstart
.LFB3084:
	@ args = 0, pretend = 0, frame = 0
	@ frame_needed = 0, uses_anonymous_args = 0
	ldr	r2, [r0, #8]
	push	{r4, r5, r6, lr}
	mov	r4, r0
	ldr	r1, [r2, #12]
	cmp	r1, #0
	ble	.L551
	ldr	r3, [r0]
	mcr	p15, 0, r0, c7, c10, 5
	add	r3, r3, #124
.L561:
	ldrex	r2, [r3]
	add	r2, r2, r1
	strex	r0, r2, [r3]
	cmp	r0, #0
	bne	.L561
	mcr	p15, 0, r0, c7, c10, 5
	ldr	r2, [r4, #8]
.L551:
	ldr	r5, [r4, #4]
	mov	r3, #0
	str	r3, [r2, #12]
	ldrb	r3, [r5, #4]	@ zero_extendqisi2
	cmp	r3, #0
	beq	.L563
.L552:
	ldr	r1, [r2, #4]
	ldr	r3, [r4]
	mov	r0, #1
	cmp	r1, #0
	strb	r0, [r3, #120]
	beq	.L553
	ldr	r0, [r3, #132]
	cmp	r0, #0
	strne	r1, [r0]
	streq	r1, [r3, #128]
	ldr	r0, [r2, #8]
	mov	r1, #0
	str	r0, [r3, #132]
	str	r1, [r2, #4]
	str	r1, [r2, #8]
.L553:
	ldr	r1, [r3, #132]
	mov	r2, #0
	cmp	r1, r2
	str	r2, [r3, #108]
	add	r2, r3, #108
	strne	r2, [r1]
	streq	r2, [r3, #132]
	strne	r2, [r3, #132]
	streq	r2, [r3, #128]
	mov	r0, r4
	pop	{r4, r5, r6, pc}
.L563:
	ldr	r0, [r5]
	bl	pthread_mutex_lock(PLT)
	mov	r3, #1
	ldr	r2, [r4, #8]
	strb	r3, [r5, #4]
	b	.L552
	.cantunwind
	.fnend
	.size	_ZN4asio6detail15task_io_service12task_cleanupD2Ev, .-_ZN4asio6detail15task_io_service12task_cleanupD2Ev
	.weak	_ZN4asio6detail15task_io_service12task_cleanupD1Ev
	.set	_ZN4asio6detail15task_io_service12task_cleanupD1Ev,_ZN4asio6detail15task_io_service12task_cleanupD2Ev
	.section	.text._ZN4asio6detail15task_io_service12work_cleanupD2Ev,"axG",%progbits,_ZN4asio6detail15task_io_service12work_cleanupD5Ev,comdat
	.align	2
	.weak	_ZN4asio6detail15task_io_service12work_cleanupD2Ev
	.syntax unified
	.arm
	.fpu vfp
	.type	_ZN4asio6detail15task_io_service12work_cleanupD2Ev, %function
_ZN4asio6detail15task_io_service12work_cleanupD2Ev:
	.fnstart
.LFB3087:
	@ args = 0, pretend = 0, frame = 16
	@ frame_needed = 0, uses_anonymous_args = 0
	ldr	r3, [r0, #8]
	push	{r4, r5, r6, r7, lr}
	mov	r4, r0
	ldr	r2, [r3, #12]
	sub	sp, sp, #20
	cmp	r2, #1
	ble	.L565
	ldr	r3, [r0]
	sub	r2, r2, #1
	add	r3, r3, #124
	mcr	p15, 0, r0, c7, c10, 5
.L584:
	ldrex	r1, [r3]
	add	r1, r1, r2
	strex	r0, r1, [r3]
	cmp	r0, #0
	bne	.L584
	mcr	p15, 0, r0, c7, c10, 5
	ldr	r3, [r4, #8]
.L566:
	ldr	r2, [r3, #4]
	mov	r1, #0
	cmp	r2, r1
	str	r1, [r3, #12]
	beq	.L578
	ldr	r5, [r4, #4]
	ldrb	r1, [r5, #4]	@ zero_extendqisi2
	cmp	r1, #0
	beq	.L588
.L587:
	ldr	r1, [r4]
	ldr	r0, [r1, #132]
	cmp	r0, #0
	strne	r2, [r0]
	streq	r2, [r1, #128]
	ldr	r0, [r3, #8]
	mov	r2, #0
	str	r0, [r1, #132]
	str	r2, [r3, #4]
	str	r2, [r3, #8]
.L578:
	mov	r0, r4
	add	sp, sp, #20
	@ sp needed
	pop	{r4, r5, r6, r7, pc}
.L565:
	beq	.L566
	ldr	r5, [r0]
	mcr	p15, 0, r0, c7, c10, 5
	add	r3, r5, #124
.L583:
	ldrex	r2, [r3]
	sub	r2, r2, #1
	strex	r1, r2, [r3]
	cmp	r1, #0
	bne	.L583
	cmp	r2, #0
	mcr	p15, 0, r0, c7, c10, 5
	beq	.L589
.L586:
	ldr	r3, [r4, #8]
	b	.L566
.L588:
	ldr	r0, [r5]
	bl	pthread_mutex_lock(PLT)
	ldr	r3, [r4, #8]
	mov	r2, #1
	strb	r2, [r5, #4]
	ldr	r2, [r3, #4]
	cmp	r2, #0
	bne	.L587
	b	.L578
.L589:
	add	r6, r5, #24
	mov	r0, r6
	bl	pthread_mutex_lock(PLT)
	ldr	r3, [r5, #96]
	mov	r7, #1
	orr	r3, r3, r7
	str	r3, [r5, #96]
	strb	r7, [r5, #136]
	add	r0, r5, #48
	bl	pthread_cond_broadcast(PLT)
	ldrb	r2, [r5, #120]	@ zero_extendqisi2
	cmp	r2, #0
	bne	.L568
	ldr	r0, [r5, #104]
	cmp	r0, #0
	beq	.L568
	add	ip, r0, #48
	mov	lr, #-2147483639
	str	r2, [sp, #4]
	str	r2, [sp, #12]
	strb	r7, [r5, #120]
	ldr	r2, [r0, #48]
	mov	r3, sp
	ldr	r0, [r0, #56]
	mov	r1, #3
	str	lr, [sp]
	str	ip, [sp, #8]
	bl	epoll_ctl(PLT)
.L568:
	mov	r0, r6
	bl	pthread_mutex_unlock(PLT)
	b	.L586
	.cantunwind
	.fnend
	.size	_ZN4asio6detail15task_io_service12work_cleanupD2Ev, .-_ZN4asio6detail15task_io_service12work_cleanupD2Ev
	.weak	_ZN4asio6detail15task_io_service12work_cleanupD1Ev
	.set	_ZN4asio6detail15task_io_service12work_cleanupD1Ev,_ZN4asio6detail15task_io_service12work_cleanupD2Ev
	.section	.text._ZN4asio6detail27task_io_service_thread_infoD2Ev,"axG",%progbits,_ZN4asio6detail27task_io_service_thread_infoD5Ev,comdat
	.align	2
	.weak	_ZN4asio6detail27task_io_service_thread_infoD2Ev
	.syntax unified
	.arm
	.fpu vfp
	.type	_ZN4asio6detail27task_io_service_thread_infoD2Ev, %function
_ZN4asio6detail27task_io_service_thread_infoD2Ev:
	.fnstart
.LFB3106:
	@ args = 0, pretend = 0, frame = 16
	@ frame_needed = 0, uses_anonymous_args = 0
	ldr	r1, [r0, #4]
	push	{r4, r5, r6, r7, r8, lr}
	.save {r4, r5, r6, r7, r8, lr}
	cmp	r1, #0
	.pad #16
	sub	sp, sp, #16
	mov	r4, r0
	beq	.L595
	str	r1, [sp, #4]
	bl	_ZNSt3_V215system_categoryEv(PLT)
	ldr	r1, [sp, #4]
	add	r7, sp, #8
	mov	r5, #0
	mov	r8, r0
.L596:
	ldr	r3, [r1]
	ldr	r6, [r1, #4]
	cmp	r3, #0
	streq	r3, [r4, #8]
	str	r3, [r4, #4]
	mov	r3, #0
	str	r5, [r1]
	mov	r0, r3
	str	r5, [sp, #8]
	str	r8, [sp, #12]
	mov	r2, r7
	blx	r6
	ldr	r1, [r4, #4]
	cmp	r1, #0
	bne	.L596
.L595:
	ldr	r0, [r4]
	cmp	r0, #0
	beq	.L593
	bl	_ZdlPv(PLT)
.L593:
	mov	r0, r4
	add	sp, sp, #16
	@ sp needed
	pop	{r4, r5, r6, r7, r8, pc}
	.personality	__gxx_personality_v0
	.handlerdata
.LLSDA3106:
	.byte	0xff
	.byte	0xff
	.byte	0x1
	.uleb128 .LLSDACSE3106-.LLSDACSB3106
.LLSDACSB3106:
.LLSDACSE3106:
	.section	.text._ZN4asio6detail27task_io_service_thread_infoD2Ev,"axG",%progbits,_ZN4asio6detail27task_io_service_thread_infoD5Ev,comdat
	.fnend
	.size	_ZN4asio6detail27task_io_service_thread_infoD2Ev, .-_ZN4asio6detail27task_io_service_thread_infoD2Ev
	.weak	_ZN4asio6detail27task_io_service_thread_infoD1Ev
	.set	_ZN4asio6detail27task_io_service_thread_infoD1Ev,_ZN4asio6detail27task_io_service_thread_infoD2Ev
	.section	.text._ZN4asio6detail15task_io_service3runERSt10error_code,"axG",%progbits,_ZN4asio6detail15task_io_service3runERSt10error_code,comdat
	.align	2
	.weak	_ZN4asio6detail15task_io_service3runERSt10error_code
	.syntax unified
	.arm
	.fpu vfp
	.type	_ZN4asio6detail15task_io_service3runERSt10error_code, %function
_ZN4asio6detail15task_io_service3runERSt10error_code:
	.fnstart
.LFB3101:
	@ args = 0, pretend = 0, frame = 96
	@ frame_needed = 0, uses_anonymous_args = 0
	push	{r4, r5, r6, r7, r8, r9, r10, fp, lr}
	.save {r4, r5, r6, r7, r8, r9, r10, fp, lr}
	.pad #100
	sub	sp, sp, #100
	mov	r6, r1
	mov	r4, r0
	str	r1, [sp, #20]
	bl	_ZNSt3_V215system_categoryEv(PLT)
	mov	r5, #0
	str	r5, [r6]
	ldr	r3, .L726
.LPIC63:
	add	r3, pc, r3
	str	r0, [sp, #24]
	str	r0, [r6, #4]
	mcr	p15, 0, r0, c7, c10, 5
	ldr	r2, [r4, #124]
	mcr	p15, 0, r0, c7, c10, 5
	cmp	r2, r5
	beq	.L715
	ldr	r2, .L726+4
	add	r8, sp, #80
	str	r5, [sp, #80]
	str	r5, [sp, #84]
	str	r5, [sp, #88]
	str	r5, [sp, #92]
	str	r4, [sp, #40]
	str	r8, [sp, #44]
	ldr	r3, [r3, r2]
	mov	r6, r5
	str	r3, [sp, #28]
	ldr	r0, [r3]
	str	r5, [sp, #12]
	mov	r5, r3
	bl	pthread_getspecific(PLT)
	add	r3, r4, #48
	add	r1, sp, #40
	str	r3, [sp, #8]
	add	r3, sp, #84
	str	r3, [sp, #4]
	add	r10, r4, #108
	add	r9, sp, #32
	str	r0, [sp, #48]
	ldr	r0, [r5]
	bl	pthread_setspecific(PLT)
	add	r3, r4, #24
	mov	r0, r3
	str	r3, [sp, #32]
	bl	pthread_mutex_lock(PLT)
	mov	r3, #1
	mov	r7, r3
	strb	r3, [sp, #36]
	b	.L605
.L617:
	ldr	r1, [r2, #4]
	ldr	r3, [sp, #64]
	cmp	r1, #0
	strb	r7, [r3, #120]
	beq	.L618
	ldr	r0, [r3, #132]
	cmp	r0, #0
	strne	r1, [r0]
	streq	r1, [r3, #128]
	ldr	r1, [r2, #8]
	str	r1, [r3, #132]
	str	r6, [r2, #4]
	str	r6, [r2, #8]
.L618:
	ldr	r1, [r3, #132]
	add	r2, r3, #108
	cmp	r1, #0
	str	r6, [r3, #108]
	streq	r2, [r3, #132]
	strne	r2, [r1]
	streq	r2, [r3, #128]
	strne	r2, [r3, #132]
.L605:
	ldrb	r2, [r4, #136]	@ zero_extendqisi2
	cmp	r2, #0
	bne	.L607
.L719:
	ldr	r5, [r4, #128]
	cmp	r5, #0
	beq	.L608
	ldr	r3, [r5]
	cmp	r3, #0
	streq	r2, [r4, #132]
	str	r3, [r4, #128]
	str	r6, [r5]
	ldr	r3, [r4, #128]
	cmp	r3, #0
	moveq	fp, #1
	movne	fp, #0
	movne	r2, #1
	moveq	r2, #0
	cmp	r5, r10
	bne	.L610
	cmp	r3, #0
	strb	r2, [r4, #120]
	beq	.L611
	ldrb	r5, [r4, #20]	@ zero_extendqisi2
	cmp	r5, #0
	beq	.L716
.L611:
	ldrb	r3, [sp, #36]	@ zero_extendqisi2
	cmp	r3, #0
	bne	.L717
.L614:
	mov	r1, fp
	ldr	r2, [sp, #4]
	ldr	r0, [r4, #104]
	str	r4, [sp, #64]
	str	r9, [sp, #68]
	str	r8, [sp, #72]
.LEHB15:
	bl	_ZN4asio6detail13epoll_reactor3runEbRNS0_8op_queueINS0_25task_io_service_operationEEE(PLT)
.LEHE15:
	ldr	r2, [sp, #72]
	ldr	r1, [r2, #12]
	cmp	r1, #0
	ble	.L616
	ldr	r3, [sp, #64]
	mcr	p15, 0, r0, c7, c10, 5
	add	r3, r3, #124
.L706:
	ldrex	r2, [r3]
	add	r2, r2, r1
	strex	r0, r2, [r3]
	cmp	r0, #0
	bne	.L706
	mcr	p15, 0, r0, c7, c10, 5
	ldr	r2, [sp, #72]
.L616:
	ldr	r5, [sp, #68]
	str	r6, [r2, #12]
	ldrb	r3, [r5, #4]	@ zero_extendqisi2
	cmp	r3, #0
	bne	.L617
	ldr	r0, [r5]
	bl	pthread_mutex_lock(PLT)
	ldr	r2, [sp, #72]
	strb	r7, [r5, #4]
	b	.L617
.L717:
	ldr	r0, [sp, #32]
	bl	pthread_mutex_unlock(PLT)
	strb	r6, [sp, #36]
	b	.L614
.L716:
	ldrb	r2, [sp, #36]	@ zero_extendqisi2
	ldr	r3, [r4, #96]
	cmp	r2, #0
	orr	r3, r3, #1
	str	r3, [r4, #96]
	bne	.L718
.L612:
	cmp	r3, #1
	beq	.L614
	ldr	r0, [sp, #8]
	bl	pthread_cond_signal(PLT)
	b	.L614
.L608:
	ldr	r3, [r4, #96]
	ldr	r5, [sp, #8]
	bic	r3, r3, #1
.L643:
	add	r3, r3, #2
	str	r3, [r4, #96]
	ldr	r1, [sp, #32]
	mov	r0, r5
.LEHB16:
	bl	pthread_cond_wait(PLT)
.LEHE16:
	ldr	r3, [r4, #96]
	sub	r3, r3, #2
	tst	r3, #1
	str	r3, [r4, #96]
	beq	.L643
	ldrb	r2, [r4, #136]	@ zero_extendqisi2
	cmp	r2, #0
	beq	.L719
.L607:
	ldrb	r3, [sp, #36]	@ zero_extendqisi2
	cmp	r3, #0
	bne	.L720
.L657:
	ldr	r3, [sp, #28]
	ldr	r1, [sp, #48]
	ldr	r0, [r3]
	bl	pthread_setspecific(PLT)
	ldr	r1, [sp, #84]
	cmp	r1, #0
	beq	.L652
	ldr	r7, [sp, #24]
	add	r6, sp, #64
	mov	r4, #0
.L653:
	ldr	r3, [r1]
	ldr	r5, [r1, #4]
	cmp	r3, #0
	streq	r3, [sp, #88]
	str	r3, [sp, #84]
	mov	r3, #0
	str	r4, [r1]
	mov	r0, r3
	str	r4, [sp, #64]
	str	r7, [sp, #68]
	mov	r2, r6
	blx	r5
	ldr	r1, [sp, #84]
	cmp	r1, #0
	bne	.L653
.L652:
	ldr	r0, [sp, #80]
	cmp	r0, #0
	beq	.L711
	bl	_ZdlPv(PLT)
.L711:
	ldr	r0, [sp, #12]
	add	sp, sp, #100
	@ sp needed
	pop	{r4, r5, r6, r7, r8, r9, r10, fp, pc}
.L718:
	ldr	r0, [sp, #32]
	str	r3, [sp, #16]
	bl	pthread_mutex_unlock(PLT)
	strb	r5, [sp, #36]
	ldr	r3, [sp, #16]
	b	.L612
.L610:
	cmp	r3, #0
	ldr	fp, [r5, #8]
	beq	.L624
	ldrb	r3, [r4, #20]	@ zero_extendqisi2
	cmp	r3, #0
	beq	.L721
.L624:
	ldrb	r3, [sp, #36]	@ zero_extendqisi2
	cmp	r3, #0
	bne	.L722
.L627:
	mov	r3, fp
	str	r4, [sp, #52]
	str	r9, [sp, #56]
	str	r8, [sp, #60]
	ldr	fp, [r5, #4]
	mov	r1, r5
	ldr	r2, [sp, #20]
	mov	r0, r4
.LEHB17:
	blx	fp
.LEHE17:
	ldr	r3, [sp, #60]
	ldr	r2, [r3, #12]
	cmp	r2, #1
	ble	.L631
	ldr	r3, [sp, #52]
	sub	r2, r2, #1
	add	r3, r3, #124
	mcr	p15, 0, r0, c7, c10, 5
.L705:
	ldrex	r1, [r3]
	add	r1, r1, r2
	strex	r0, r1, [r3]
	cmp	r0, #0
	bne	.L705
	mcr	p15, 0, r0, c7, c10, 5
	ldr	r3, [sp, #60]
.L632:
	ldr	r2, [r3, #4]
	str	r6, [r3, #12]
	cmp	r2, #0
	beq	.L636
	ldr	r5, [sp, #56]
	ldrb	r1, [r5, #4]	@ zero_extendqisi2
	cmp	r1, #0
	beq	.L723
.L710:
	ldr	r1, [sp, #52]
	ldr	r0, [r1, #132]
	cmp	r0, #0
	strne	r2, [r0]
	streq	r2, [r1, #128]
	ldr	r2, [r3, #8]
	str	r2, [r1, #132]
	str	r6, [r3, #4]
	str	r6, [r3, #8]
.L636:
	ldr	r3, [sp, #12]
	cmn	r3, #1
	addne	r3, r3, #1
	strne	r3, [sp, #12]
	ldrb	r3, [sp, #36]	@ zero_extendqisi2
	cmp	r3, #0
	bne	.L605
	ldr	r0, [sp, #32]
	bl	pthread_mutex_lock(PLT)
	strb	r7, [sp, #36]
	b	.L605
.L631:
	beq	.L632
	ldr	fp, [sp, #52]
	mcr	p15, 0, r0, c7, c10, 5
	add	r3, fp, #124
.L704:
	ldrex	r2, [r3]
	sub	r2, r2, #1
	strex	r1, r2, [r3]
	cmp	r1, #0
	bne	.L704
	cmp	r2, #0
	mcr	p15, 0, r0, c7, c10, 5
	beq	.L724
.L709:
	ldr	r3, [sp, #60]
	b	.L632
.L722:
	ldr	r0, [sp, #32]
	bl	pthread_mutex_unlock(PLT)
	strb	r6, [sp, #36]
	b	.L627
.L723:
	ldr	r0, [r5]
	bl	pthread_mutex_lock(PLT)
	ldr	r3, [sp, #60]
	strb	r7, [r5, #4]
	ldr	r2, [r3, #4]
	cmp	r2, #0
	bne	.L710
	b	.L636
.L721:
	ldr	r2, [r4, #96]
	orr	r2, r2, #1
	cmp	r2, #1
	str	r2, [r4, #96]
	beq	.L625
	ldrb	r2, [sp, #36]	@ zero_extendqisi2
	cmp	r2, #0
	bne	.L725
.L626:
	ldr	r0, [sp, #8]
	bl	pthread_cond_signal(PLT)
	b	.L627
.L625:
	ldrb	r1, [r4, #120]	@ zero_extendqisi2
	cmp	r1, #0
	bne	.L624
	ldr	r0, [r4, #104]
	cmp	r0, #0
	beq	.L624
	add	r3, sp, #64
	mov	ip, #-2147483639
	strb	r2, [r4, #120]
	add	r2, r0, #48
	str	r1, [r3, #4]
	str	r1, [r3, #12]
	str	r2, [sp, #72]
	str	ip, [sp, #64]
	mov	r1, #3
	ldr	r2, [r0, #48]
	ldr	r0, [r0, #56]
	bl	epoll_ctl(PLT)
	b	.L624
.L725:
	ldr	r0, [sp, #32]
	str	r3, [sp, #16]
	bl	pthread_mutex_unlock(PLT)
	ldr	r3, [sp, #16]
	strb	r3, [sp, #36]
	b	.L626
.L715:
	add	r5, r4, #24
	mov	r0, r5
	bl	pthread_mutex_lock(PLT)
	ldr	r3, [r4, #96]
	mov	r6, #1
	orr	r3, r3, r6
	str	r3, [r4, #96]
	strb	r6, [r4, #136]
	add	r0, r4, #48
	bl	pthread_cond_broadcast(PLT)
	ldrb	r2, [r4, #120]	@ zero_extendqisi2
	cmp	r2, #0
	bne	.L603
	ldr	r0, [r4, #104]
	cmp	r0, #0
	beq	.L603
	add	r3, sp, #80
	add	r1, r0, #48
	mov	ip, #-2147483639
	str	r1, [sp, #88]
	str	r2, [r3, #4]
	str	r2, [r3, #12]
	str	ip, [sp, #80]
	strb	r6, [r4, #120]
	ldr	r2, [r0, #48]
	mov	r1, #3
	ldr	r0, [r0, #56]
	bl	epoll_ctl(PLT)
.L603:
	mov	r0, r5
	bl	pthread_mutex_unlock(PLT)
	mov	r3, #0
	mov	r0, r3
	str	r3, [sp, #12]
	add	sp, sp, #100
	@ sp needed
	pop	{r4, r5, r6, r7, r8, r9, r10, fp, pc}
.L724:
	add	r5, fp, #24
	mov	r0, r5
	bl	pthread_mutex_lock(PLT)
	ldr	r3, [fp, #96]
	strb	r7, [fp, #136]
	orr	r3, r3, #1
	str	r3, [fp, #96]
	add	r0, fp, #48
	bl	pthread_cond_broadcast(PLT)
	ldrb	r2, [fp, #120]	@ zero_extendqisi2
	cmp	r2, #0
	bne	.L634
	ldr	r0, [fp, #104]
	cmp	r0, #0
	beq	.L634
	add	r3, sp, #64
	mov	r1, #-2147483639
	add	ip, r0, #48
	strb	r7, [fp, #120]
	str	r1, [sp, #64]
	str	ip, [sp, #72]
	str	r2, [r3, #4]
	str	r2, [r3, #12]
	mov	r1, #3
	ldr	r2, [r0, #48]
	ldr	r0, [r0, #56]
	bl	epoll_ctl(PLT)
.L634:
	mov	r0, r5
	bl	pthread_mutex_unlock(PLT)
	b	.L709
.L720:
	ldr	r0, [sp, #32]
	bl	pthread_mutex_unlock(PLT)
	b	.L657
.L659:
.L645:
	ldrb	r3, [sp, #36]	@ zero_extendqisi2
	cmp	r3, #0
	beq	.L654
	ldr	r0, [sp, #32]
	bl	pthread_mutex_unlock(PLT)
.L654:
	ldr	r3, [sp, #28]
	ldr	r1, [sp, #48]
	ldr	r0, [r3]
	bl	pthread_setspecific(PLT)
	mov	r0, r8
	bl	_ZN4asio6detail27task_io_service_thread_infoD1Ev(PLT)
.LEHB18:
	bl	__cxa_end_cleanup(PLT)
.LEHE18:
.L660:
	add	r0, sp, #52
	bl	_ZN4asio6detail15task_io_service12work_cleanupD1Ev(PLT)
	b	.L645
.L661:
	add	r0, sp, #64
	bl	_ZN4asio6detail15task_io_service12task_cleanupD1Ev(PLT)
	b	.L645
.L727:
	.align	2
.L726:
	.word	_GLOBAL_OFFSET_TABLE_-(.LPIC63+8)
	.word	_ZN4asio6detail10call_stackINS0_15task_io_serviceENS0_27task_io_service_thread_infoEE4top_E(GOT)
	.personality	__gxx_personality_v0
	.handlerdata
.LLSDA3101:
	.byte	0xff
	.byte	0xff
	.byte	0x1
	.uleb128 .LLSDACSE3101-.LLSDACSB3101
.LLSDACSB3101:
	.uleb128 .LEHB15-.LFB3101
	.uleb128 .LEHE15-.LEHB15
	.uleb128 .L661-.LFB3101
	.uleb128 0
	.uleb128 .LEHB16-.LFB3101
	.uleb128 .LEHE16-.LEHB16
	.uleb128 .L659-.LFB3101
	.uleb128 0
	.uleb128 .LEHB17-.LFB3101
	.uleb128 .LEHE17-.LEHB17
	.uleb128 .L660-.LFB3101
	.uleb128 0
	.uleb128 .LEHB18-.LFB3101
	.uleb128 .LEHE18-.LEHB18
	.uleb128 0
	.uleb128 0
.LLSDACSE3101:
	.section	.text._ZN4asio6detail15task_io_service3runERSt10error_code,"axG",%progbits,_ZN4asio6detail15task_io_service3runERSt10error_code,comdat
	.fnend
	.size	_ZN4asio6detail15task_io_service3runERSt10error_code, .-_ZN4asio6detail15task_io_service3runERSt10error_code
	.section	.text._ZN4asio6detail15task_io_service25post_immediate_completionEPNS0_25task_io_service_operationEb,"axG",%progbits,_ZN4asio6detail15task_io_service25post_immediate_completionEPNS0_25task_io_service_operationEb,comdat
	.align	2
	.weak	_ZN4asio6detail15task_io_service25post_immediate_completionEPNS0_25task_io_service_operationEb
	.syntax unified
	.arm
	.fpu vfp
	.type	_ZN4asio6detail15task_io_service25post_immediate_completionEPNS0_25task_io_service_operationEb, %function
_ZN4asio6detail15task_io_service25post_immediate_completionEPNS0_25task_io_service_operationEb:
	.fnstart
.LFB3114:
	@ args = 0, pretend = 0, frame = 16
	@ frame_needed = 0, uses_anonymous_args = 0
	push	{r4, r5, r6, lr}
	mov	r5, r1
	ldrb	r1, [r0, #20]	@ zero_extendqisi2
	ldr	r3, .L762
	sub	sp, sp, #16
	orrs	r2, r2, r1
.LPIC64:
	add	r3, pc, r3
	mov	r4, r0
	beq	.L729
	ldr	r2, .L762+4
	ldr	r3, [r3, r2]
	ldr	r0, [r3]
	bl	pthread_getspecific(PLT)
	cmp	r0, #0
	bne	.L756
	b	.L729
.L732:
	ldr	r0, [r0, #8]
	cmp	r0, #0
	beq	.L729
.L756:
	ldr	r3, [r0]
	cmp	r4, r3
	bne	.L732
	ldr	r3, [r0, #4]
	cmp	r3, #0
	beq	.L729
	ldr	r1, [r3, #8]
	ldr	r2, [r3, #12]
	cmp	r1, #0
	add	r2, r2, #1
	mov	r0, #0
	str	r2, [r3, #12]
	str	r0, [r5]
	strne	r5, [r1]
	streq	r5, [r3, #8]
	strne	r5, [r3, #8]
	streq	r5, [r3, #4]
	add	sp, sp, #16
	@ sp needed
	pop	{r4, r5, r6, pc}
.L729:
	add	r3, r4, #124
	mcr	p15, 0, r0, c7, c10, 5
.L758:
	ldrex	r2, [r3]
	add	r2, r2, #1
	strex	r1, r2, [r3]
	cmp	r1, #0
	bne	.L758
	add	r6, r4, #24
	mcr	p15, 0, r0, c7, c10, 5
	mov	r0, r6
	bl	pthread_mutex_lock(PLT)
	ldr	r3, [r4, #132]
	mov	r2, #0
	cmp	r3, r2
	str	r2, [r5]
	strne	r5, [r3]
	ldr	r3, [r4, #96]
	strne	r5, [r4, #132]
	orr	r3, r3, #1
	streq	r5, [r4, #132]
	streq	r5, [r4, #128]
	cmp	r3, #1
	add	r5, r4, #48
	str	r3, [r4, #96]
	beq	.L739
	mov	r0, r6
	bl	pthread_mutex_unlock(PLT)
	mov	r0, r5
	bl	pthread_cond_signal(PLT)
	add	sp, sp, #16
	@ sp needed
	pop	{r4, r5, r6, pc}
.L739:
	ldrb	r1, [r4, #120]	@ zero_extendqisi2
	cmp	r1, #0
	bne	.L741
	ldr	r0, [r4, #104]
	cmp	r0, #0
	beq	.L741
	strb	r3, [r4, #120]
	add	lr, r0, #48
	mov	r4, #-2147483639
	ldr	r2, [r0, #48]
	str	r1, [sp, #4]
	str	r1, [sp, #12]
	mov	r3, sp
	ldr	r0, [r0, #56]
	mov	r1, #3
	str	r4, [sp]
	str	lr, [sp, #8]
	bl	epoll_ctl(PLT)
.L741:
	mov	r0, r6
	bl	pthread_mutex_unlock(PLT)
	add	sp, sp, #16
	@ sp needed
	pop	{r4, r5, r6, pc}
.L763:
	.align	2
.L762:
	.word	_GLOBAL_OFFSET_TABLE_-(.LPIC64+8)
	.word	_ZN4asio6detail10call_stackINS0_15task_io_serviceENS0_27task_io_service_thread_infoEE4top_E(GOT)
	.cantunwind
	.fnend
	.size	_ZN4asio6detail15task_io_service25post_immediate_completionEPNS0_25task_io_service_operationEb, .-_ZN4asio6detail15task_io_service25post_immediate_completionEPNS0_25task_io_service_operationEb
	.section	.text._ZN4asio6detail15task_io_service25post_deferred_completionsERNS0_8op_queueINS0_25task_io_service_operationEEE,"axG",%progbits,_ZN4asio6detail15task_io_service25post_deferred_completionsERNS0_8op_queueINS0_25task_io_service_operationEEE,comdat
	.align	2
	.weak	_ZN4asio6detail15task_io_service25post_deferred_completionsERNS0_8op_queueINS0_25task_io_service_operationEEE
	.syntax unified
	.arm
	.fpu vfp
	.type	_ZN4asio6detail15task_io_service25post_deferred_completionsERNS0_8op_queueINS0_25task_io_service_operationEEE, %function
_ZN4asio6detail15task_io_service25post_deferred_completionsERNS0_8op_queueINS0_25task_io_service_operationEEE:
	.fnstart
.LFB3116:
	@ args = 0, pretend = 0, frame = 16
	@ frame_needed = 0, uses_anonymous_args = 0
	ldr	r2, [r1]
	ldr	r3, .L810
	cmp	r2, #0
.LPIC65:
	add	r3, pc, r3
	bxeq	lr
	ldrb	r2, [r0, #20]	@ zero_extendqisi2
	push	{r4, r5, r6, lr}
	mov	r4, r0
	cmp	r2, #0
	sub	sp, sp, #16
	mov	r5, r1
	beq	.L767
	ldr	r2, .L810+4
	ldr	r3, [r3, r2]
	ldr	r0, [r3]
	bl	pthread_getspecific(PLT)
	cmp	r0, #0
	bne	.L802
	b	.L767
.L770:
	ldr	r0, [r0, #8]
	cmp	r0, #0
	beq	.L767
.L802:
	ldr	r2, [r0]
	cmp	r4, r2
	bne	.L770
	ldr	r3, [r0, #4]
	cmp	r3, #0
	beq	.L767
	ldr	r2, [r5]
	cmp	r2, #0
	beq	.L764
	ldr	r1, [r3, #8]
	cmp	r1, #0
	strne	r2, [r1]
	streq	r2, [r3, #4]
	ldr	r1, [r5, #4]
	mov	r2, #0
	str	r1, [r3, #8]
	str	r2, [r5]
	str	r2, [r5, #4]
	add	sp, sp, #16
	@ sp needed
	pop	{r4, r5, r6, pc}
.L767:
	add	r6, r4, #24
	mov	r0, r6
	bl	pthread_mutex_lock(PLT)
	ldr	r3, [r5]
	cmp	r3, #0
	beq	.L776
	ldr	r2, [r4, #132]
	cmp	r2, #0
	strne	r3, [r2]
	streq	r3, [r4, #128]
	ldr	r2, [r5, #4]
	mov	r3, #0
	str	r2, [r4, #132]
	str	r3, [r5]
	str	r3, [r5, #4]
.L776:
	ldr	r3, [r4, #96]
	add	r5, r4, #48
	orr	r3, r3, #1
	cmp	r3, #1
	str	r3, [r4, #96]
	beq	.L779
	mov	r0, r6
	bl	pthread_mutex_unlock(PLT)
	mov	r0, r5
	bl	pthread_cond_signal(PLT)
.L764:
	add	sp, sp, #16
	@ sp needed
	pop	{r4, r5, r6, pc}
.L779:
	ldrb	r1, [r4, #120]	@ zero_extendqisi2
	cmp	r1, #0
	bne	.L781
	ldr	r0, [r4, #104]
	cmp	r0, #0
	beq	.L781
	strb	r3, [r4, #120]
	add	lr, r0, #48
	mov	r4, #-2147483639
	ldr	r2, [r0, #48]
	str	r1, [sp, #4]
	str	r1, [sp, #12]
	mov	r3, sp
	ldr	r0, [r0, #56]
	mov	r1, #3
	str	r4, [sp]
	str	lr, [sp, #8]
	bl	epoll_ctl(PLT)
.L781:
	mov	r0, r6
	bl	pthread_mutex_unlock(PLT)
	add	sp, sp, #16
	@ sp needed
	pop	{r4, r5, r6, pc}
.L811:
	.align	2
.L810:
	.word	_GLOBAL_OFFSET_TABLE_-(.LPIC65+8)
	.word	_ZN4asio6detail10call_stackINS0_15task_io_serviceENS0_27task_io_service_thread_infoEE4top_E(GOT)
	.cantunwind
	.fnend
	.size	_ZN4asio6detail15task_io_service25post_deferred_completionsERNS0_8op_queueINS0_25task_io_service_operationEEE, .-_ZN4asio6detail15task_io_service25post_deferred_completionsERNS0_8op_queueINS0_25task_io_service_operationEEE
	.section	.text._ZN4asio6detail13epoll_reactor32perform_io_cleanup_on_block_exitD2Ev,"axG",%progbits,_ZN4asio6detail13epoll_reactor32perform_io_cleanup_on_block_exitD5Ev,comdat
	.align	2
	.weak	_ZN4asio6detail13epoll_reactor32perform_io_cleanup_on_block_exitD2Ev
	.syntax unified
	.arm
	.fpu vfp
	.type	_ZN4asio6detail13epoll_reactor32perform_io_cleanup_on_block_exitD2Ev, %function
_ZN4asio6detail13epoll_reactor32perform_io_cleanup_on_block_exitD2Ev:
	.fnstart
.LFB3076:
	@ args = 0, pretend = 0, frame = 16
	@ frame_needed = 0, uses_anonymous_args = 0
	ldr	r3, [r0, #12]
	push	{r4, r5, r6, r7, r8, lr}
	.save {r4, r5, r6, r7, r8, lr}
	cmp	r3, #0
	.pad #16
	sub	sp, sp, #16
	mov	r4, r0
	beq	.L813
	ldr	r3, [r0, #4]
	cmp	r3, #0
	beq	.L821
	ldr	r3, [r0]
	add	r1, r0, #4
	ldr	r0, [r3, #20]
	bl	_ZN4asio6detail15task_io_service25post_deferred_completionsERNS0_8op_queueINS0_25task_io_service_operationEEE(PLT)
	ldr	r1, [r4, #4]
.L816:
	cmp	r1, #0
	beq	.L821
	str	r1, [sp, #4]
	bl	_ZNSt3_V215system_categoryEv(PLT)
	ldr	r1, [sp, #4]
	add	r7, sp, #8
	mov	r5, #0
	mov	r8, r0
.L818:
	ldr	r3, [r1]
	ldr	r6, [r1, #4]
	cmp	r3, #0
	streq	r3, [r4, #8]
	str	r3, [r4, #4]
	mov	r3, #0
	str	r5, [r1]
	mov	r0, r3
	str	r5, [sp, #8]
	str	r8, [sp, #12]
	mov	r2, r7
	blx	r6
	ldr	r1, [r4, #4]
	cmp	r1, #0
	bne	.L818
.L821:
	mov	r0, r4
	add	sp, sp, #16
	@ sp needed
	pop	{r4, r5, r6, r7, r8, pc}
.L813:
	ldr	r3, [r0]
	ldr	r3, [r3, #20]
	mcr	p15, 0, r0, c7, c10, 5
	add	r3, r3, #124
.L826:
	ldrex	r2, [r3]
	add	r2, r2, #1
	strex	r1, r2, [r3]
	cmp	r1, #0
	bne	.L826
	mcr	p15, 0, r0, c7, c10, 5
	ldr	r1, [r4, #4]
	b	.L816
	.personality	__gxx_personality_v0
	.handlerdata
.LLSDA3076:
	.byte	0xff
	.byte	0xff
	.byte	0x1
	.uleb128 .LLSDACSE3076-.LLSDACSB3076
.LLSDACSB3076:
.LLSDACSE3076:
	.section	.text._ZN4asio6detail13epoll_reactor32perform_io_cleanup_on_block_exitD2Ev,"axG",%progbits,_ZN4asio6detail13epoll_reactor32perform_io_cleanup_on_block_exitD5Ev,comdat
	.fnend
	.size	_ZN4asio6detail13epoll_reactor32perform_io_cleanup_on_block_exitD2Ev, .-_ZN4asio6detail13epoll_reactor32perform_io_cleanup_on_block_exitD2Ev
	.weak	_ZN4asio6detail13epoll_reactor32perform_io_cleanup_on_block_exitD1Ev
	.set	_ZN4asio6detail13epoll_reactor32perform_io_cleanup_on_block_exitD1Ev,_ZN4asio6detail13epoll_reactor32perform_io_cleanup_on_block_exitD2Ev
	.section	.text._ZN4asio6detail13epoll_reactor16descriptor_state11do_completeEPNS0_15task_io_serviceEPNS0_25task_io_service_operationERKSt10error_codej,"axG",%progbits,_ZN4asio6detail13epoll_reactor16descriptor_state11do_completeEPNS0_15task_io_serviceEPNS0_25task_io_service_operationERKSt10error_codej,comdat
	.align	2
	.weak	_ZN4asio6detail13epoll_reactor16descriptor_state11do_completeEPNS0_15task_io_serviceEPNS0_25task_io_service_operationERKSt10error_codej
	.syntax unified
	.arm
	.fpu vfp
	.type	_ZN4asio6detail13epoll_reactor16descriptor_state11do_completeEPNS0_15task_io_serviceEPNS0_25task_io_service_operationERKSt10error_codej, %function
_ZN4asio6detail13epoll_reactor16descriptor_state11do_completeEPNS0_15task_io_serviceEPNS0_25task_io_service_operationERKSt10error_codej:
	.fnstart
.LFB3082:
	@ args = 0, pretend = 0, frame = 32
	@ frame_needed = 0, uses_anonymous_args = 0
	push	{r4, r5, r6, r7, r8, r9, r10, fp, lr}
	.save {r4, r5, r6, r7, r8, r9, r10, fp, lr}
	cmp	r0, #0
	ldr	r4, .L875
	.pad #36
	sub	sp, sp, #36
.LPIC66:
	add	r4, pc, r4
	beq	.L828
	add	fp, r1, #20
	mov	r5, r1
	str	r0, [sp]
	mov	r0, fp
	mov	r8, r3
	mov	r9, r2
	bl	pthread_mutex_lock(PLT)
	ldr	r3, .L875+4
	ldr	r2, [r5, #44]
	mov	r6, #0
	str	r2, [sp, #16]
	str	r6, [sp, #20]
	str	r6, [sp, #24]
	str	r6, [sp, #28]
	ldr	r7, [r4, r3]
	sub	r10, r5, #24
	add	r7, r7, #8
.L837:
	ldr	r3, [r7], #-4
	orr	r3, r3, #24
	tst	r3, r8
	bne	.L870
.L832:
	sub	r5, r5, #8
	cmp	r10, r5
	bne	.L837
	ldr	r6, [sp, #20]
	cmp	r6, #0
	str	r6, [sp, #28]
	beq	.L838
	ldr	r3, [r6]
	cmp	r3, #0
	str	r3, [sp, #20]
	streq	r3, [sp, #24]
	mov	r3, #0
	str	r3, [r6]
.L838:
	mov	r0, fp
	bl	pthread_mutex_unlock(PLT)
	ldr	r3, [sp, #28]
	cmp	r3, #0
	beq	.L840
	ldr	r3, [sp, #20]
	cmp	r3, #0
	beq	.L844
	ldr	r3, [sp, #16]
	add	r1, sp, #20
	ldr	r0, [r3, #20]
	bl	_ZN4asio6detail15task_io_service25post_deferred_completionsERNS0_8op_queueINS0_25task_io_service_operationEEE(PLT)
.L846:
	ldr	r1, [sp, #20]
	cmp	r1, #0
	beq	.L844
	str	r1, [sp, #4]
	bl	_ZNSt3_V215system_categoryEv(PLT)
	ldr	r1, [sp, #4]
	add	r5, sp, #8
	mov	r4, #0
	mov	r7, r0
.L848:
	ldr	r3, [r1]
	ldr	r8, [r1, #4]
	cmp	r3, #0
	streq	r3, [sp, #24]
	str	r3, [sp, #20]
	mov	r3, #0
	str	r4, [r1]
	mov	r0, r3
	str	r4, [sp, #8]
	str	r7, [sp, #12]
	mov	r2, r5
	blx	r8
	ldr	r1, [sp, #20]
	cmp	r1, #0
	bne	.L848
.L844:
	cmp	r6, #0
	beq	.L828
	mov	r2, r9
	ldr	r0, [sp]
	ldr	r4, [r6, #4]
	mov	r1, r6
	mov	r3, #0
.LEHB19:
	blx	r4
.LEHE19:
.L828:
	add	sp, sp, #36
	@ sp needed
	pop	{r4, r5, r6, r7, r8, r9, r10, fp, pc}
.L874:
	ldr	r3, [r4, #24]
	mov	r0, r4
.LEHB20:
	blx	r3
.LEHE20:
	cmp	r0, #0
	beq	.L832
	ldr	r3, [r5, #72]
	cmp	r3, #0
	beq	.L833
	ldr	r2, [r3]
	cmp	r2, #0
	str	r2, [r5, #72]
	streq	r2, [r5, #76]
	str	r6, [r3]
.L833:
	ldr	r3, [sp, #24]
	str	r6, [r4]
	cmp	r3, #0
	strne	r4, [r3]
	streq	r4, [sp, #24]
	strne	r4, [sp, #24]
	streq	r4, [sp, #20]
.L870:
	ldr	r4, [r5, #72]
	cmp	r4, #0
	bne	.L874
	b	.L832
.L840:
	ldr	r3, [sp, #16]
	ldr	r3, [r3, #20]
	mcr	p15, 0, r0, c7, c10, 5
	add	r3, r3, #124
.L872:
	ldrex	r2, [r3]
	add	r2, r2, #1
	strex	r1, r2, [r3]
	cmp	r1, #0
	bne	.L872
	mcr	p15, 0, r0, c7, c10, 5
	b	.L846
.L850:
	mov	r0, fp
	bl	pthread_mutex_unlock(PLT)
	add	r0, sp, #16
	bl	_ZN4asio6detail13epoll_reactor32perform_io_cleanup_on_block_exitD1Ev(PLT)
.LEHB21:
	bl	__cxa_end_cleanup(PLT)
.LEHE21:
.L876:
	.align	2
.L875:
	.word	_GLOBAL_OFFSET_TABLE_-(.LPIC66+8)
	.word	_ZZN4asio6detail13epoll_reactor16descriptor_state10perform_ioEjE4flag(GOT)
	.personality	__gxx_personality_v0
	.handlerdata
.LLSDA3082:
	.byte	0xff
	.byte	0xff
	.byte	0x1
	.uleb128 .LLSDACSE3082-.LLSDACSB3082
.LLSDACSB3082:
	.uleb128 .LEHB19-.LFB3082
	.uleb128 .LEHE19-.LEHB19
	.uleb128 0
	.uleb128 0
	.uleb128 .LEHB20-.LFB3082
	.uleb128 .LEHE20-.LEHB20
	.uleb128 .L850-.LFB3082
	.uleb128 0
	.uleb128 .LEHB21-.LFB3082
	.uleb128 .LEHE21-.LEHB21
	.uleb128 0
	.uleb128 0
.LLSDACSE3082:
	.section	.text._ZN4asio6detail13epoll_reactor16descriptor_state11do_completeEPNS0_15task_io_serviceEPNS0_25task_io_service_operationERKSt10error_codej,"axG",%progbits,_ZN4asio6detail13epoll_reactor16descriptor_state11do_completeEPNS0_15task_io_serviceEPNS0_25task_io_service_operationERKSt10error_codej,comdat
	.fnend
	.size	_ZN4asio6detail13epoll_reactor16descriptor_state11do_completeEPNS0_15task_io_serviceEPNS0_25task_io_service_operationERKSt10error_codej, .-_ZN4asio6detail13epoll_reactor16descriptor_state11do_completeEPNS0_15task_io_serviceEPNS0_25task_io_service_operationERKSt10error_codej
	.section	.text._ZN4asio6detail15task_io_service26wake_one_thread_and_unlockERNS0_11scoped_lockINS0_11posix_mutexEEE,"axG",%progbits,_ZN4asio6detail15task_io_service26wake_one_thread_and_unlockERNS0_11scoped_lockINS0_11posix_mutexEEE,comdat
	.align	2
	.weak	_ZN4asio6detail15task_io_service26wake_one_thread_and_unlockERNS0_11scoped_lockINS0_11posix_mutexEEE
	.syntax unified
	.arm
	.fpu vfp
	.type	_ZN4asio6detail15task_io_service26wake_one_thread_and_unlockERNS0_11scoped_lockINS0_11posix_mutexEEE, %function
_ZN4asio6detail15task_io_service26wake_one_thread_and_unlockERNS0_11scoped_lockINS0_11posix_mutexEEE:
	.fnstart
.LFB3122:
	@ args = 0, pretend = 0, frame = 16
	@ frame_needed = 0, uses_anonymous_args = 0
	ldr	r3, [r0, #96]
	push	{r4, r5, r6, lr}
	orr	r3, r3, #1
	cmp	r3, #1
	sub	sp, sp, #16
	mov	r4, r1
	str	r3, [r0, #96]
	beq	.L878
	ldrb	r3, [r1, #4]	@ zero_extendqisi2
	add	r5, r0, #48
	cmp	r3, #0
	bne	.L895
.L879:
	mov	r0, r5
	bl	pthread_cond_signal(PLT)
.L877:
	add	sp, sp, #16
	@ sp needed
	pop	{r4, r5, r6, pc}
.L878:
	ldrb	r1, [r0, #120]	@ zero_extendqisi2
	cmp	r1, #0
	bne	.L881
	ldr	lr, [r0, #104]
	cmp	lr, #0
	beq	.L881
	strb	r3, [r0, #120]
	mov	r6, #-2147483639
	add	r5, lr, #48
	str	r1, [sp, #4]
	str	r1, [sp, #12]
	mov	r3, sp
	ldr	r2, [lr, #48]
	ldr	r0, [lr, #56]
	mov	r1, #3
	str	r6, [sp]
	str	r5, [sp, #8]
	bl	epoll_ctl(PLT)
.L881:
	ldrb	r3, [r4, #4]	@ zero_extendqisi2
	cmp	r3, #0
	beq	.L877
	ldr	r0, [r4]
	bl	pthread_mutex_unlock(PLT)
	mov	r3, #0
	strb	r3, [r4, #4]
	add	sp, sp, #16
	@ sp needed
	pop	{r4, r5, r6, pc}
.L895:
	ldr	r0, [r1]
	bl	pthread_mutex_unlock(PLT)
	mov	r3, #0
	strb	r3, [r4, #4]
	b	.L879
	.cantunwind
	.fnend
	.size	_ZN4asio6detail15task_io_service26wake_one_thread_and_unlockERNS0_11scoped_lockINS0_11posix_mutexEEE, .-_ZN4asio6detail15task_io_service26wake_one_thread_and_unlockERNS0_11scoped_lockINS0_11posix_mutexEEE
	.section	.text._ZN4asio6detail16service_registry6createINS_21stream_socket_serviceINS_2ip3tcpEEEEEPNS_10io_service7serviceERS7_,"axG",%progbits,_ZN4asio6detail16service_registry6createINS_21stream_socket_serviceINS_2ip3tcpEEEEEPNS_10io_service7serviceERS7_,comdat
	.align	2
	.weak	_ZN4asio6detail16service_registry6createINS_21stream_socket_serviceINS_2ip3tcpEEEEEPNS_10io_service7serviceERS7_
	.syntax unified
	.arm
	.fpu vfp
	.type	_ZN4asio6detail16service_registry6createINS_21stream_socket_serviceINS_2ip3tcpEEEEEPNS_10io_service7serviceERS7_, %function
_ZN4asio6detail16service_registry6createINS_21stream_socket_serviceINS_2ip3tcpEEEEEPNS_10io_service7serviceERS7_:
	.fnstart
.LFB9014:
	@ args = 0, pretend = 0, frame = 24
	@ frame_needed = 0, uses_anonymous_args = 0
	push	{r4, r5, r6, r7, lr}
	.save {r4, r5, r6, r7, lr}
	mov	r5, r0
	.pad #28
	sub	sp, sp, #28
	mov	r0, #24
.LEHB22:
	bl	_Znwj(PLT)
.LEHE22:
	ldr	r3, .L913
	ldr	r1, .L913+4
.LPIC67:
	add	r3, pc, r3
	mov	r2, #0
	ldr	ip, .L913+8
	str	r2, [r0, #4]
	str	r2, [r0, #8]
	str	r2, [r0, #16]
	str	r5, [r0, #12]
	mov	r4, r0
	ldr	r1, [r3, r1]
	ldr	r0, .L913+12
	add	r1, r1, #8
	str	r1, [r4]
	str	r2, [sp, #4]
	add	r1, sp, #24
	ldr	r6, [r3, r0]
	ldr	r0, [r5]
	str	r6, [r1, #-24]!
	ldr	r7, [r3, ip]
	mov	r2, r7
.LEHB23:
	bl	_ZN4asio6detail16service_registry14do_use_serviceERKNS_10io_service7service3keyEPFPS3_RS2_E(PLT)
.LEHE23:
	ldr	r5, [r0, #20]
	str	r0, [r4, #20]
	add	r3, r5, #24
	mov	r0, r3
	str	r3, [sp, #8]
	bl	pthread_mutex_lock(PLT)
	ldrb	r3, [r5, #137]	@ zero_extendqisi2
	mov	r2, #1
	strb	r2, [sp, #12]
	cmp	r3, #0
	bne	.L899
	ldr	r3, [r5, #104]
	cmp	r3, #0
	beq	.L912
.L899:
	ldr	r0, [sp, #8]
	bl	pthread_mutex_unlock(PLT)
.L910:
	mov	r0, r4
	add	sp, sp, #28
	@ sp needed
	pop	{r4, r5, r6, r7, pc}
.L912:
	ldr	r0, [r5, #12]
	add	r1, sp, #24
	mov	r2, r7
	ldr	r0, [r0]
	str	r6, [r1, #-8]!
	str	r3, [sp, #20]
.LEHB24:
	bl	_ZN4asio6detail16service_registry14do_use_serviceERKNS_10io_service7service3keyEPFPS3_RS2_E(PLT)
.LEHE24:
	ldr	r2, [r5, #132]
	mov	r3, #0
	cmp	r2, r3
	str	r3, [r5, #108]
	add	r3, r5, #108
	str	r0, [r5, #104]
	streq	r3, [r5, #132]
	strne	r3, [r2]
	streq	r3, [r5, #128]
	strne	r3, [r5, #132]
	mov	r0, r5
	add	r1, sp, #8
	bl	_ZN4asio6detail15task_io_service26wake_one_thread_and_unlockERNS0_11scoped_lockINS0_11posix_mutexEEE(PLT)
	ldrb	r3, [sp, #12]	@ zero_extendqisi2
	cmp	r3, #0
	beq	.L910
	b	.L899
.L905:
.L904:
	mov	r0, r4
	mov	r1, #24
	bl	_ZdlPvj(PLT)
.LEHB25:
	bl	__cxa_end_cleanup(PLT)
.LEHE25:
.L906:
	ldrb	r3, [sp, #12]	@ zero_extendqisi2
	cmp	r3, #0
	beq	.L904
	ldr	r0, [sp, #8]
	bl	pthread_mutex_unlock(PLT)
	b	.L904
.L914:
	.align	2
.L913:
	.word	_GLOBAL_OFFSET_TABLE_-(.LPIC67+8)
	.word	_ZTVN4asio21stream_socket_serviceINS_2ip3tcpEEE(GOT)
	.word	_ZN4asio6detail16service_registry6createINS0_13epoll_reactorEEEPNS_10io_service7serviceERS4_(GOT)
	.word	_ZTIN4asio6detail14typeid_wrapperINS0_13epoll_reactorEEE(GOT)
	.personality	__gxx_personality_v0
	.handlerdata
.LLSDA9014:
	.byte	0xff
	.byte	0xff
	.byte	0x1
	.uleb128 .LLSDACSE9014-.LLSDACSB9014
.LLSDACSB9014:
	.uleb128 .LEHB22-.LFB9014
	.uleb128 .LEHE22-.LEHB22
	.uleb128 0
	.uleb128 0
	.uleb128 .LEHB23-.LFB9014
	.uleb128 .LEHE23-.LEHB23
	.uleb128 .L905-.LFB9014
	.uleb128 0
	.uleb128 .LEHB24-.LFB9014
	.uleb128 .LEHE24-.LEHB24
	.uleb128 .L906-.LFB9014
	.uleb128 0
	.uleb128 .LEHB25-.LFB9014
	.uleb128 .LEHE25-.LEHB25
	.uleb128 0
	.uleb128 0
.LLSDACSE9014:
	.section	.text._ZN4asio6detail16service_registry6createINS_21stream_socket_serviceINS_2ip3tcpEEEEEPNS_10io_service7serviceERS7_,"axG",%progbits,_ZN4asio6detail16service_registry6createINS_21stream_socket_serviceINS_2ip3tcpEEEEEPNS_10io_service7serviceERS7_,comdat
	.fnend
	.size	_ZN4asio6detail16service_registry6createINS_21stream_socket_serviceINS_2ip3tcpEEEEEPNS_10io_service7serviceERS7_, .-_ZN4asio6detail16service_registry6createINS_21stream_socket_serviceINS_2ip3tcpEEEEEPNS_10io_service7serviceERS7_
	.section	.text._ZN4asio6detail10socket_ops5closeEiRhbRSt10error_code,"axG",%progbits,_ZN4asio6detail10socket_ops5closeEiRhbRSt10error_code,comdat
	.align	2
	.weak	_ZN4asio6detail10socket_ops5closeEiRhbRSt10error_code
	.syntax unified
	.arm
	.fpu vfp
	.type	_ZN4asio6detail10socket_ops5closeEiRhbRSt10error_code, %function
_ZN4asio6detail10socket_ops5closeEiRhbRSt10error_code:
	.fnstart
.LFB3461:
	@ args = 0, pretend = 0, frame = 8
	@ frame_needed = 0, uses_anonymous_args = 0
	cmn	r0, #1
	push	{r4, r5, r6, r7, r8, r9, lr}
	.save {r4, r5, r6, r7, r8, r9, lr}
	mov	r5, r3
	.pad #20
	sub	sp, sp, #20
	beq	.L921
	cmp	r2, #0
	mov	r6, r0
	mov	r8, r1
	bne	.L918
.L920:
	bl	__errno_location(PLT)
	mov	r7, r0
.L919:
	mov	r3, #0
	str	r3, [r7]
	mov	r0, r6
	bl	close(PLT)
	ldr	r9, [r7]
	mov	r4, r0
	bl	_ZN4asio15system_categoryEv(PLT)
	cmp	r4, #0
	str	r9, [r5]
	str	r0, [r5, #4]
	bne	.L942
.L921:
	bl	_ZNSt3_V215system_categoryEv(PLT)
	mov	r4, #0
	str	r4, [r5]
	str	r0, [r5, #4]
.L915:
	mov	r0, r4
	add	sp, sp, #20
	@ sp needed
	pop	{r4, r5, r6, r7, r8, r9, pc}
.L918:
	ldrb	r3, [r1]	@ zero_extendqisi2
	tst	r3, #8
	beq	.L920
	orr	r3, r3, #8
	mov	r4, #0
	strb	r3, [r1]
	str	r4, [sp, #8]
	str	r4, [sp, #12]
	bl	__errno_location(PLT)
	mov	r2, #8
	add	r3, sp, r2
	mov	r1, #1
	str	r4, [r0]
	mov	r7, r0
	str	r2, [sp]
	mov	r0, r6
	mov	r2, #13
	bl	setsockopt(PLT)
	bl	_ZN4asio15system_categoryEv(PLT)
	b	.L919
.L942:
	bl	_ZN4asio15system_categoryEv(PLT)
	ldr	r3, [r5, #4]
	cmp	r3, r0
	beq	.L943
.L922:
	bl	_ZN4asio15system_categoryEv(PLT)
	ldr	r3, [r5, #4]
	cmp	r3, r0
	bne	.L915
	ldr	r3, [r5]
	cmp	r3, #11
	bne	.L915
	b	.L923
.L943:
	ldr	r3, [r5]
	cmp	r3, #11
	bne	.L922
.L923:
	add	r2, sp, #16
	mov	r4, #0
	str	r4, [r2, #-8]!
	ldr	r1, .L944
	mov	r0, r6
	bl	ioctl(PLT)
	ldrb	r3, [r8]	@ zero_extendqisi2
	mov	r0, r6
	bic	r3, r3, #3
	strb	r3, [r8]
	str	r4, [r7]
	bl	close(PLT)
	ldr	r6, [r7]
	mov	r4, r0
	bl	_ZN4asio15system_categoryEv(PLT)
	cmp	r4, #0
	str	r6, [r5]
	str	r0, [r5, #4]
	beq	.L921
	mov	r0, r4
	add	sp, sp, #20
	@ sp needed
	pop	{r4, r5, r6, r7, r8, r9, pc}
.L945:
	.align	2
.L944:
	.word	21537
	.fnend
	.size	_ZN4asio6detail10socket_ops5closeEiRhbRSt10error_code, .-_ZN4asio6detail10socket_ops5closeEiRhbRSt10error_code
	.section	.text._ZN4asio6detail28reactive_socket_service_base16start_connect_opERNS1_24base_implementation_typeEPNS0_10reactor_opEbPK8sockaddrj,"axG",%progbits,_ZN4asio6detail28reactive_socket_service_base16start_connect_opERNS1_24base_implementation_typeEPNS0_10reactor_opEbPK8sockaddrj,comdat
	.align	2
	.weak	_ZN4asio6detail28reactive_socket_service_base16start_connect_opERNS1_24base_implementation_typeEPNS0_10reactor_opEbPK8sockaddrj
	.syntax unified
	.arm
	.fpu vfp
	.type	_ZN4asio6detail28reactive_socket_service_base16start_connect_opERNS1_24base_implementation_typeEPNS0_10reactor_opEbPK8sockaddrj, %function
_ZN4asio6detail28reactive_socket_service_base16start_connect_opERNS1_24base_implementation_typeEPNS0_10reactor_opEbPK8sockaddrj:
	.fnstart
.LFB3621:
	@ args = 8, pretend = 0, frame = 16
	@ frame_needed = 0, uses_anonymous_args = 0
	push	{r4, r5, r6, r7, r8, r9, r10, fp, lr}
	.save {r4, r5, r6, r7, r8, r9, r10, fp, lr}
	mov	r6, r1
	ldrb	r1, [r1, #4]	@ zero_extendqisi2
	.pad #20
	sub	sp, sp, #20
	mov	r7, r0
	ands	r5, r1, #3
	mov	r4, r2
	mov	r8, r3
	beq	.L973
.L947:
	ldr	r5, [r6]
	cmn	r5, #1
	beq	.L974
	bl	__errno_location(PLT)
	mov	r3, #0
	ldr	r2, [sp, #60]
	ldr	r1, [sp, #56]
	mov	r9, r0
	mov	r0, r5
	str	r3, [r9]
	bl	connect(PLT)
	ldr	r9, [r9]
	mov	r5, r0
	bl	_ZN4asio15system_categoryEv(PLT)
	cmp	r5, #0
	str	r9, [r4, #12]
	str	r0, [r4, #16]
	bne	.L952
	bl	_ZNSt3_V215system_categoryEv(PLT)
	str	r5, [r4, #12]
	str	r0, [r4, #16]
.L953:
	ldr	r3, [r7]
	mov	r2, r8
	mov	r1, r4
	ldr	r0, [r3, #20]
	bl	_ZN4asio6detail15task_io_service25post_immediate_completionEPNS0_25task_io_service_operationEb(PLT)
.L946:
	add	sp, sp, #20
	@ sp needed
	pop	{r4, r5, r6, r7, r8, r9, r10, fp, pc}
.L973:
	ldr	r9, [r6]
	cmn	r9, #1
	beq	.L975
	bl	__errno_location(PLT)
	add	r2, sp, #16
	mov	r3, #1
	str	r3, [r2, #-16]!
	ldr	r1, .L981
	mov	r10, r0
	str	r5, [r0]
	mov	r0, r9
	bl	ioctl(PLT)
	ldr	r9, [r10]
	mov	fp, r0
	bl	_ZN4asio15system_categoryEv(PLT)
	cmp	fp, #0
	str	r9, [r4, #12]
	str	r0, [r4, #16]
	blt	.L953
	bl	_ZNSt3_V215system_categoryEv(PLT)
	str	r5, [r4, #12]
	str	r0, [r4, #16]
	ldrb	r3, [r6, #4]	@ zero_extendqisi2
	orr	r3, r3, #2
	strb	r3, [r6, #4]
	b	.L947
.L952:
	bl	_ZN4asio15system_categoryEv(PLT)
	ldr	r3, [r4, #16]
	cmp	r3, r0
	beq	.L976
.L951:
	bl	_ZN4asio15system_categoryEv(PLT)
	ldr	r3, [r4, #16]
	cmp	r3, r0
	beq	.L977
.L955:
	bl	_ZN4asio15system_categoryEv(PLT)
	ldr	r3, [r4, #16]
	cmp	r3, r0
	bne	.L953
	ldr	r3, [r4, #12]
	cmp	r3, #11
	bne	.L953
.L958:
	bl	_ZNSt3_V215system_categoryEv(PLT)
	ldr	r3, [r6, #8]
	mov	r2, #0
	cmp	r3, r2
	ldr	r7, [r7]
	ldr	r9, [r6]
	str	r2, [r4, #12]
	str	r0, [r4, #16]
	beq	.L978
	add	r5, r3, #20
	mov	r0, r5
	bl	pthread_mutex_lock(PLT)
	ldr	r3, [r6, #8]
	ldrb	r2, [r3, #80]	@ zero_extendqisi2
	cmp	r2, #0
	bne	.L979
	ldr	r1, [r3, #64]
	cmp	r1, #0
	beq	.L980
.L961:
	ldr	r2, [r3, #68]
	mov	r1, #0
	cmp	r2, r1
	str	r1, [r4]
	strne	r4, [r2]
	streq	r4, [r3, #68]
	strne	r4, [r3, #68]
	streq	r4, [r3, #64]
	ldr	r3, [r7, #20]
	mcr	p15, 0, r0, c7, c10, 5
	add	r3, r3, #124
.L969:
	ldrex	r2, [r3]
	add	r2, r2, #1
	strex	r1, r2, [r3]
	cmp	r1, #0
	bne	.L969
	mov	r0, r5
	mcr	p15, 0, r0, c7, c10, 5
	bl	pthread_mutex_unlock(PLT)
	b	.L946
.L974:
	bl	_ZN4asio15system_categoryEv(PLT)
	mov	r3, #9
	str	r3, [r4, #12]
	str	r0, [r4, #16]
	b	.L951
.L976:
	ldr	r3, [r4, #12]
	cmp	r3, #11
	bne	.L951
	bl	_ZN4asio15system_categoryEv(PLT)
	mov	r3, #105
	str	r3, [r4, #12]
	str	r0, [r4, #16]
	b	.L951
.L975:
	bl	_ZN4asio15system_categoryEv(PLT)
	mov	r3, #9
	str	r3, [r4, #12]
	str	r0, [r4, #16]
	b	.L953
.L977:
	ldr	r3, [r4, #12]
	cmp	r3, #115
	bne	.L955
	b	.L958
.L979:
	ldr	r0, [r7, #20]
	mov	r2, r8
	mov	r1, r4
	bl	_ZN4asio6detail15task_io_service25post_immediate_completionEPNS0_25task_io_service_operationEb(PLT)
	mov	r0, r5
	bl	pthread_mutex_unlock(PLT)
	b	.L946
.L978:
	bl	_ZN4asio15system_categoryEv(PLT)
	mov	r3, #9
	mov	r2, r8
	str	r3, [r4, #12]
	mov	r1, r4
	str	r0, [r4, #16]
	ldr	r0, [r7, #20]
	bl	_ZN4asio6detail15task_io_service25post_immediate_completionEPNS0_25task_io_service_operationEb(PLT)
	b	.L946
.L980:
	ldr	r0, [r3, #52]
	mov	r2, r9
	orr	r0, r0, #4
	str	r0, [r3, #52]
	str	r3, [sp, #8]
	str	r0, [sp]
	mov	r3, sp
	ldr	r0, [r7, #56]
	str	r1, [sp, #4]
	str	r1, [sp, #12]
	mov	r1, #3
	bl	epoll_ctl(PLT)
	ldr	r3, [r6, #8]
	b	.L961
.L982:
	.align	2
.L981:
	.word	21537
	.fnend
	.size	_ZN4asio6detail28reactive_socket_service_base16start_connect_opERNS1_24base_implementation_typeEPNS0_10reactor_opEbPK8sockaddrj, .-_ZN4asio6detail28reactive_socket_service_base16start_connect_opERNS1_24base_implementation_typeEPNS0_10reactor_opEbPK8sockaddrj
	.section	.text._ZN4asio2ip7address11from_stringEPKcRSt10error_code,"axG",%progbits,_ZN4asio2ip7address11from_stringEPKcRSt10error_code,comdat
	.align	2
	.weak	_ZN4asio2ip7address11from_stringEPKcRSt10error_code
	.syntax unified
	.arm
	.fpu vfp
	.type	_ZN4asio2ip7address11from_stringEPKcRSt10error_code, %function
_ZN4asio2ip7address11from_stringEPKcRSt10error_code:
	.fnstart
.LFB5614:
	@ args = 0, pretend = 0, frame = 104
	@ frame_needed = 0, uses_anonymous_args = 0
	push	{r4, r5, r6, r7, r8, r9, r10, fp, lr}
	sub	sp, sp, #108
	add	r9, sp, #20
	mov	r10, #0
	mov	r7, r1
	mov	r6, r2
	mov	r5, r0
	str	r10, [r9, #4]
	str	r10, [sp, #20]
	str	r10, [r9, #8]
	str	r10, [r9, #12]
	str	r10, [sp, #36]
	bl	__errno_location(PLT)
	mov	r1, #37
	str	r10, [r0]
	mov	r8, r0
	mov	r0, r7
	bl	strchr(PLT)
	subs	r4, r0, #0
	beq	.L1000
	sub	fp, r4, r7
	cmp	fp, #63
	bgt	.L1016
	add	r3, sp, #40
	mov	r2, fp
	mov	r1, r7
	mov	r0, r3
	bl	memcpy(PLT)
	add	r2, sp, #104
	add	fp, r2, fp
	strb	r10, [fp, #-64]
	mov	r1, r0
.L984:
	mov	r2, r9
	mov	r0, #10
	bl	inet_pton(PLT)
	ldr	r10, [r8]
	mov	fp, r0
	bl	_ZN4asio15system_categoryEv(PLT)
	cmp	fp, #0
	cmple	r10, #0
	moveq	r3, #1
	movne	r3, #0
	str	r10, [r6]
	str	r0, [r6, #4]
	beq	.L987
	cmp	fp, #0
	ble	.L986
	cmp	r4, #0
	str	r3, [sp, #36]
	beq	.L988
	ldrb	r3, [sp, #20]	@ zero_extendqisi2
	cmp	r3, #254
	beq	.L1017
	cmp	r3, #255
	beq	.L1018
.L1014:
	add	r4, r4, #1
.L991:
	mov	r0, r4
	mov	r2, #10
	mov	r1, #0
	bl	strtol(PLT)
	mov	r4, r0
.L988:
	ldm	r9, {r0, r1, r2, r3}
	mov	ip, sp
	ldr	r10, [r6]
	cmp	r10, #0
	stm	sp, {r0, r1, r2, r3}
	bne	.L992
.L1019:
	ldm	ip, {r0, r1, r2, r3}
	add	lr, r5, #8
	add	ip, sp, #48
	mov	r6, #1
	str	r10, [r5, #4]
	stm	ip, {r0, r1, r2, r3}
	str	r6, [r5]
	stm	lr, {r0, r1, r2, r3}
	mov	r0, r5
	str	r4, [r5, #24]
	add	sp, sp, #108
	@ sp needed
	pop	{r4, r5, r6, r7, r8, r9, r10, fp, pc}
.L987:
	bl	_ZN4asio15system_categoryEv(PLT)
	mov	r3, #22
	mov	r10, r3
	str	r3, [r6]
	str	r0, [r6, #4]
.L986:
	mov	r4, #0
	cmp	r10, #0
	mov	ip, sp
	str	r4, [sp, #4]
	str	r4, [sp]
	str	r4, [sp, #8]
	str	r4, [sp, #12]
	beq	.L1019
.L992:
	add	r2, sp, #104
	mov	r3, #0
	mov	r1, r7
	str	r3, [r2, #-64]!
	str	r3, [r8]
	mov	r0, #2
	bl	inet_pton(PLT)
	ldr	r4, [r8]
	mov	r7, r0
	bl	_ZN4asio15system_categoryEv(PLT)
	cmp	r7, #0
	cmple	r4, #0
	str	r4, [r6]
	str	r0, [r6, #4]
	beq	.L994
	cmp	r7, #0
	ble	.L996
	cmp	r4, #0
	ldr	lr, [sp, #40]
	beq	.L1020
.L996:
	mov	r3, #0
	mov	r0, r5
	str	r3, [r5]
	str	r3, [r5, #4]
	str	r3, [r5, #8]
	str	r3, [r5, #12]
	str	r3, [r5, #16]
	str	r3, [r5, #20]
	str	r3, [r5, #24]
	add	sp, sp, #108
	@ sp needed
	pop	{r4, r5, r6, r7, r8, r9, r10, fp, pc}
.L1016:
	bl	_ZN4asio15system_categoryEv(PLT)
	mov	r10, #22
	str	r10, [r6]
	str	r0, [r6, #4]
	b	.L986
.L994:
	bl	_ZN4asio15system_categoryEv(PLT)
	mov	r3, #22
	str	r3, [r6]
	str	r0, [r6, #4]
	b	.L996
.L1018:
	ldrb	r3, [sp, #21]	@ zero_extendqisi2
	and	r3, r3, #15
	cmp	r3, #2
	bne	.L1014
.L990:
	add	r4, r4, #1
	mov	r0, r4
	bl	if_nametoindex(PLT)
	cmp	r0, #0
	str	r0, [sp, #36]
	beq	.L991
	mov	r4, r0
	b	.L988
.L1020:
	add	r3, sp, #48
	str	r4, [sp, #48]
	str	r4, [sp, #52]
	str	r4, [sp, #56]
	str	r4, [sp, #60]
	ldm	r3, {r0, r1, r2, r3}
	add	ip, r5, #8
	stm	r5, {r4, lr}
	stm	ip, {r0, r1, r2, r3}
	mov	r0, r5
	str	r4, [r5, #24]
	add	sp, sp, #108
	@ sp needed
	pop	{r4, r5, r6, r7, r8, r9, r10, fp, pc}
.L1017:
	ldrb	r3, [sp, #21]	@ zero_extendqisi2
	and	r3, r3, #192
	cmp	r3, #128
	bne	.L1014
	b	.L990
.L1000:
	mov	r1, r7
	b	.L984
	.cantunwind
	.fnend
	.size	_ZN4asio2ip7address11from_stringEPKcRSt10error_code, .-_ZN4asio2ip7address11from_stringEPKcRSt10error_code
	.section	.text._ZN4asio2ip6detail8endpoint7addressERKNS0_7addressE,"axG",%progbits,_ZN4asio2ip6detail8endpoint7addressERKNS0_7addressE,comdat
	.align	2
	.weak	_ZN4asio2ip6detail8endpoint7addressERKNS0_7addressE
	.syntax unified
	.arm
	.fpu vfp
	.type	_ZN4asio2ip6detail8endpoint7addressERKNS0_7addressE, %function
_ZN4asio2ip6detail8endpoint7addressERKNS0_7addressE:
	.fnstart
.LFB5696:
	@ args = 0, pretend = 0, frame = 64
	@ frame_needed = 0, uses_anonymous_args = 0
	push	{r4, r5, r6, r7, r8, lr}
	.save {r4, r5, r6, r7, r8, lr}
	.pad #64
	sub	sp, sp, #64
	ldrh	r4, [r0, #2]
	ldr	r3, [r1]
	add	ip, sp, #36
	rev16	r4, r4
	ldr	r2, .L1032
	mov	r6, #0
	uxth	r4, r4
	cmp	r3, #0
.LPIC68:
	add	r2, pc, r2
	mov	lr, r0
	mov	r5, r1
	rev16	r4, r4
	str	r6, [ip, #8]
	str	r6, [ip, #12]
	str	r6, [ip, #16]
	str	r6, [ip, #20]
	beq	.L1030
	cmp	r3, #1
	uxth	r4, r4
	bne	.L1031
	add	r3, r1, #8
	ldr	r7, [r5, #24]
	ldm	r3, {r0, r1, r2, r3}
	mov	r5, r6
	add	r6, sp, #16
	mov	r8, #10
	stm	r6, {r0, r1, r2, r3}
	add	r6, sp, #44
	stm	sp, {r0, r1, r2, r3}
	stm	r6, {r0, r1, r2, r3}
.L1025:
	str	r7, [sp, #60]
	strh	r8, [sp, #36]	@ movhi
	strh	r4, [sp, #38]	@ movhi
	str	r5, [sp, #40]
	ldmia	ip!, {r0, r1, r2, r3}
	stmia	lr!, {r0, r1, r2, r3}
	ldm	ip, {r0, r1, r2}
	stm	lr, {r0, r1, r2}
	add	sp, sp, #64
	@ sp needed
	pop	{r4, r5, r6, r7, r8, pc}
.L1030:
	ldr	r5, [r1, #4]
	uxth	r4, r4
	mov	r7, r3
	mov	r8, #2
	b	.L1025
.L1031:
	ldr	r3, .L1032+4
	ldr	r3, [r2, r3]
	add	r3, r3, #8
	str	r3, [sp, #16]
.LEHB26:
	bl	_ZN4asio6detail15throw_exceptionISt8bad_castEEvRKT_.isra.92(PLT)
.LEHE26:
.L1028:
	add	r0, sp, #16
	bl	_ZNSt8bad_castD1Ev(PLT)
.LEHB27:
	bl	__cxa_end_cleanup(PLT)
.LEHE27:
.L1033:
	.align	2
.L1032:
	.word	_GLOBAL_OFFSET_TABLE_-(.LPIC68+8)
	.word	_ZTVSt8bad_cast(GOT)
	.personality	__gxx_personality_v0
	.handlerdata
.LLSDA5696:
	.byte	0xff
	.byte	0xff
	.byte	0x1
	.uleb128 .LLSDACSE5696-.LLSDACSB5696
.LLSDACSB5696:
	.uleb128 .LEHB26-.LFB5696
	.uleb128 .LEHE26-.LEHB26
	.uleb128 .L1028-.LFB5696
	.uleb128 0
	.uleb128 .LEHB27-.LFB5696
	.uleb128 .LEHE27-.LEHB27
	.uleb128 0
	.uleb128 0
.LLSDACSE5696:
	.section	.text._ZN4asio2ip6detail8endpoint7addressERKNS0_7addressE,"axG",%progbits,_ZN4asio2ip6detail8endpoint7addressERKNS0_7addressE,comdat
	.fnend
	.size	_ZN4asio2ip6detail8endpoint7addressERKNS0_7addressE, .-_ZN4asio2ip6detail8endpoint7addressERKNS0_7addressE
	.section	.text._ZN4asio6detail21resolver_service_base16shutdown_serviceEv,"axG",%progbits,_ZN4asio6detail21resolver_service_base16shutdown_serviceEv,comdat
	.align	2
	.weak	_ZN4asio6detail21resolver_service_base16shutdown_serviceEv
	.syntax unified
	.arm
	.fpu vfp
	.type	_ZN4asio6detail21resolver_service_base16shutdown_serviceEv, %function
_ZN4asio6detail21resolver_service_base16shutdown_serviceEv:
	.fnstart
.LFB5802:
	@ args = 0, pretend = 0, frame = 16
	@ frame_needed = 0, uses_anonymous_args = 0
	push	{r4, r5, r6, r7, r8, lr}
	.save {r4, r5, r6, r7, r8, lr}
	mov	r6, r0
	ldr	r5, [r0, #36]
	.pad #16
	sub	sp, sp, #16
	cmp	r5, #0
	beq	.L1035
	ldr	r4, [r5]
	mcr	p15, 0, r0, c7, c10, 5
	add	r3, r4, #124
.L1081:
	ldrex	r2, [r3]
	sub	r2, r2, #1
	strex	r1, r2, [r3]
	cmp	r1, #0
	bne	.L1081
	cmp	r2, #0
	mcr	p15, 0, r0, c7, c10, 5
	beq	.L1084
.L1036:
	mov	r0, r5
	mov	r1, #4
	bl	_ZdlPvj(PLT)
.L1035:
	ldr	r3, [r6, #28]
	mov	r2, #0
	cmp	r3, r2
	str	r2, [r6, #36]
	beq	.L1034
	ldr	r4, [r3, #4]
	mov	r7, #1
	add	r5, r4, #24
	mov	r0, r5
	bl	pthread_mutex_lock(PLT)
	ldr	r3, [r4, #96]
	strb	r7, [r4, #136]
	orr	r3, r3, r7
	str	r3, [r4, #96]
	add	r0, r4, #48
	bl	pthread_cond_broadcast(PLT)
	ldrb	r2, [r4, #120]	@ zero_extendqisi2
	cmp	r2, #0
	bne	.L1039
	ldr	r0, [r4, #104]
	cmp	r0, #0
	beq	.L1039
	add	r1, r0, #48
	mov	ip, #-2147483639
	strb	r7, [r4, #120]
	mov	r3, sp
	str	r1, [sp, #8]
	str	r2, [sp, #4]
	str	r2, [sp, #12]
	str	ip, [sp]
	mov	r1, #3
	ldr	r2, [r0, #48]
	ldr	r0, [r0, #56]
	bl	epoll_ctl(PLT)
.L1039:
	mov	r0, r5
	bl	pthread_mutex_unlock(PLT)
	ldr	r4, [r6, #40]
	cmp	r4, #0
	beq	.L1040
	ldrb	r1, [r4, #4]	@ zero_extendqisi2
	cmp	r1, #0
	beq	.L1085
.L1041:
	mov	r0, r4
	mov	r1, #8
	bl	_ZdlPvj(PLT)
.L1042:
	mov	r3, #0
	str	r3, [r6, #40]
.L1040:
	ldr	r7, [r6, #28]
	cmp	r7, #0
	beq	.L1043
	ldr	r5, [r7]
	cmp	r5, #0
	beq	.L1044
	ldr	r4, [r5, #32]
	cmp	r4, #0
	beq	.L1046
.L1049:
	ldr	r3, [r4]
	mov	r0, r4
	ldr	r3, [r3, #8]
	blx	r3
	ldr	r4, [r4, #16]
	cmp	r4, #0
	bne	.L1049
	ldr	r0, [r5, #32]
	cmp	r0, #0
	beq	.L1046
.L1050:
	ldr	r3, [r0]
	ldr	r4, [r0, #16]
	ldr	r3, [r3, #4]
	blx	r3
	subs	r0, r4, #0
	str	r4, [r5, #32]
	bne	.L1050
.L1046:
	add	r0, r5, #4
	bl	pthread_mutex_destroy(PLT)
	mov	r0, r5
	mov	r1, #36
	bl	_ZdlPvj(PLT)
.L1044:
	mov	r0, r7
	mov	r1, #8
	bl	_ZdlPvj(PLT)
.L1043:
	mov	r3, #0
	str	r3, [r6, #28]
.L1034:
	add	sp, sp, #16
	@ sp needed
	pop	{r4, r5, r6, r7, r8, pc}
.L1084:
	add	r7, r4, #24
	mov	r0, r7
	bl	pthread_mutex_lock(PLT)
	ldr	r3, [r4, #96]
	mov	r8, #1
	orr	r3, r3, r8
	str	r3, [r4, #96]
	strb	r8, [r4, #136]
	add	r0, r4, #48
	bl	pthread_cond_broadcast(PLT)
	ldrb	r2, [r4, #120]	@ zero_extendqisi2
	cmp	r2, #0
	bne	.L1037
	ldr	r0, [r4, #104]
	cmp	r0, #0
	beq	.L1037
	add	r1, r0, #48
	mov	ip, #-2147483639
	strb	r8, [r4, #120]
	mov	r3, sp
	str	r1, [sp, #8]
	str	r2, [sp, #4]
	str	r2, [sp, #12]
	str	ip, [sp]
	mov	r1, #3
	ldr	r2, [r0, #48]
	ldr	r0, [r0, #56]
	bl	epoll_ctl(PLT)
.L1037:
	mov	r0, r7
	bl	pthread_mutex_unlock(PLT)
	b	.L1036
.L1085:
	ldr	r0, [r4]
.LEHB28:
	bl	pthread_join(PLT)
.LEHE28:
	mov	r3, #1
	strb	r3, [r4, #4]
	ldr	r4, [r6, #40]
	cmp	r4, #0
	beq	.L1042
	ldrb	r3, [r4, #4]	@ zero_extendqisi2
	cmp	r3, #0
	bne	.L1041
	ldr	r0, [r4]
	bl	pthread_detach(PLT)
	b	.L1041
	.personality	__gxx_personality_v0
	.handlerdata
.LLSDA5802:
	.byte	0xff
	.byte	0xff
	.byte	0x1
	.uleb128 .LLSDACSE5802-.LLSDACSB5802
.LLSDACSB5802:
	.uleb128 .LEHB28-.LFB5802
	.uleb128 .LEHE28-.LEHB28
	.uleb128 0
	.uleb128 0
.LLSDACSE5802:
	.section	.text._ZN4asio6detail21resolver_service_base16shutdown_serviceEv,"axG",%progbits,_ZN4asio6detail21resolver_service_base16shutdown_serviceEv,comdat
	.fnend
	.size	_ZN4asio6detail21resolver_service_base16shutdown_serviceEv, .-_ZN4asio6detail21resolver_service_base16shutdown_serviceEv
	.section	.text._ZN4asio2ip16resolver_serviceINS0_3tcpEE16shutdown_serviceEv,"axG",%progbits,_ZN4asio2ip16resolver_serviceINS0_3tcpEE16shutdown_serviceEv,comdat
	.align	2
	.weak	_ZN4asio2ip16resolver_serviceINS0_3tcpEE16shutdown_serviceEv
	.syntax unified
	.arm
	.fpu vfp
	.type	_ZN4asio2ip16resolver_serviceINS0_3tcpEE16shutdown_serviceEv, %function
_ZN4asio2ip16resolver_serviceINS0_3tcpEE16shutdown_serviceEv:
	.fnstart
.LFB9848:
	@ args = 0, pretend = 0, frame = 0
	@ frame_needed = 0, uses_anonymous_args = 0
	@ link register save eliminated.
	add	r0, r0, #20
	b	_ZN4asio6detail21resolver_service_base16shutdown_serviceEv(PLT)
	.cantunwind
	.fnend
	.size	_ZN4asio2ip16resolver_serviceINS0_3tcpEE16shutdown_serviceEv, .-_ZN4asio2ip16resolver_serviceINS0_3tcpEE16shutdown_serviceEv
	.section	.text._ZN4asio2ip16resolver_serviceINS0_3tcpEED0Ev,"axG",%progbits,_ZN4asio2ip16resolver_serviceINS0_3tcpEED5Ev,comdat
	.align	2
	.weak	_ZN4asio2ip16resolver_serviceINS0_3tcpEED0Ev
	.syntax unified
	.arm
	.fpu vfp
	.type	_ZN4asio2ip16resolver_serviceINS0_3tcpEED0Ev, %function
_ZN4asio2ip16resolver_serviceINS0_3tcpEED0Ev:
	.fnstart
.LFB9710:
	@ args = 0, pretend = 0, frame = 16
	@ frame_needed = 0, uses_anonymous_args = 0
	ldr	r3, .L1127
	ldr	r2, .L1127+4
.LPIC69:
	add	r3, pc, r3
	push	{r4, r5, r6, r7, r8, lr}
	.save {r4, r5, r6, r7, r8, lr}
	mov	r6, r0
	ldr	r2, [r3, r2]
	.pad #16
	sub	sp, sp, #16
	add	r3, r2, #8
	str	r3, [r0], #20
	bl	_ZN4asio6detail21resolver_service_base16shutdown_serviceEv(PLT)
	ldr	r4, [r6, #60]
	cmp	r4, #0
	beq	.L1088
	ldrb	r3, [r4, #4]	@ zero_extendqisi2
	cmp	r3, #0
	beq	.L1125
.L1089:
	mov	r0, r4
	mov	r1, #8
	bl	_ZdlPvj(PLT)
.L1088:
	ldr	r5, [r6, #56]
	cmp	r5, #0
	beq	.L1090
	ldr	r4, [r5]
	mcr	p15, 0, r0, c7, c10, 5
	add	r3, r4, #124
.L1122:
	ldrex	r2, [r3]
	sub	r2, r2, #1
	strex	r1, r2, [r3]
	cmp	r1, #0
	bne	.L1122
	cmp	r2, #0
	mcr	p15, 0, r0, c7, c10, 5
	beq	.L1126
.L1091:
	mov	r0, r5
	mov	r1, #4
	bl	_ZdlPvj(PLT)
.L1090:
	ldr	r7, [r6, #48]
	cmp	r7, #0
	beq	.L1093
	ldr	r5, [r7]
	cmp	r5, #0
	beq	.L1094
	ldr	r4, [r5, #32]
	cmp	r4, #0
	beq	.L1096
.L1099:
	ldr	r3, [r4]
	mov	r0, r4
	ldr	r3, [r3, #8]
	blx	r3
	ldr	r4, [r4, #16]
	cmp	r4, #0
	bne	.L1099
	ldr	r0, [r5, #32]
	cmp	r0, #0
	beq	.L1096
.L1100:
	ldr	r3, [r0]
	ldr	r4, [r0, #16]
	ldr	r3, [r3, #4]
	blx	r3
	subs	r0, r4, #0
	str	r4, [r5, #32]
	bne	.L1100
.L1096:
	add	r0, r5, #4
	bl	pthread_mutex_destroy(PLT)
	mov	r0, r5
	mov	r1, #36
	bl	_ZdlPvj(PLT)
.L1094:
	mov	r0, r7
	mov	r1, #8
	bl	_ZdlPvj(PLT)
.L1093:
	add	r0, r6, #24
	bl	pthread_mutex_destroy(PLT)
	mov	r0, r6
	mov	r1, #64
	bl	_ZdlPvj(PLT)
	mov	r0, r6
	add	sp, sp, #16
	@ sp needed
	pop	{r4, r5, r6, r7, r8, pc}
.L1126:
	add	r7, r4, #24
	mov	r0, r7
	bl	pthread_mutex_lock(PLT)
	ldr	r3, [r4, #96]
	mov	r8, #1
	orr	r3, r3, r8
	str	r3, [r4, #96]
	strb	r8, [r4, #136]
	add	r0, r4, #48
	bl	pthread_cond_broadcast(PLT)
	ldrb	r2, [r4, #120]	@ zero_extendqisi2
	cmp	r2, #0
	bne	.L1092
	ldr	r0, [r4, #104]
	cmp	r0, #0
	beq	.L1092
	add	ip, r0, #48
	mov	lr, #-2147483639
	str	r2, [sp, #4]
	str	r2, [sp, #12]
	strb	r8, [r4, #120]
	ldr	r2, [r0, #48]
	mov	r3, sp
	ldr	r0, [r0, #56]
	mov	r1, #3
	str	lr, [sp]
	str	ip, [sp, #8]
	bl	epoll_ctl(PLT)
.L1092:
	mov	r0, r7
	bl	pthread_mutex_unlock(PLT)
	b	.L1091
.L1125:
	ldr	r0, [r4]
	bl	pthread_detach(PLT)
	b	.L1089
.L1128:
	.align	2
.L1127:
	.word	_GLOBAL_OFFSET_TABLE_-(.LPIC69+8)
	.word	_ZTVN4asio2ip16resolver_serviceINS0_3tcpEEE(GOT)
	.personality	__gxx_personality_v0
	.handlerdata
.LLSDA9710:
	.byte	0xff
	.byte	0xff
	.byte	0x1
	.uleb128 .LLSDACSE9710-.LLSDACSB9710
.LLSDACSB9710:
.LLSDACSE9710:
	.section	.text._ZN4asio2ip16resolver_serviceINS0_3tcpEED0Ev,"axG",%progbits,_ZN4asio2ip16resolver_serviceINS0_3tcpEED5Ev,comdat
	.fnend
	.size	_ZN4asio2ip16resolver_serviceINS0_3tcpEED0Ev, .-_ZN4asio2ip16resolver_serviceINS0_3tcpEED0Ev
	.section	.text._ZN4asio2ip16resolver_serviceINS0_3tcpEED2Ev,"axG",%progbits,_ZN4asio2ip16resolver_serviceINS0_3tcpEED5Ev,comdat
	.align	2
	.weak	_ZN4asio2ip16resolver_serviceINS0_3tcpEED2Ev
	.syntax unified
	.arm
	.fpu vfp
	.type	_ZN4asio2ip16resolver_serviceINS0_3tcpEED2Ev, %function
_ZN4asio2ip16resolver_serviceINS0_3tcpEED2Ev:
	.fnstart
.LFB9708:
	@ args = 0, pretend = 0, frame = 16
	@ frame_needed = 0, uses_anonymous_args = 0
	ldr	r3, .L1169
	ldr	r2, .L1169+4
.LPIC70:
	add	r3, pc, r3
	push	{r4, r5, r6, r7, r8, lr}
	.save {r4, r5, r6, r7, r8, lr}
	mov	r6, r0
	ldr	r2, [r3, r2]
	.pad #16
	sub	sp, sp, #16
	add	r3, r2, #8
	str	r3, [r0], #20
	bl	_ZN4asio6detail21resolver_service_base16shutdown_serviceEv(PLT)
	ldr	r4, [r6, #60]
	cmp	r4, #0
	beq	.L1130
	ldrb	r3, [r4, #4]	@ zero_extendqisi2
	cmp	r3, #0
	beq	.L1167
.L1131:
	mov	r0, r4
	mov	r1, #8
	bl	_ZdlPvj(PLT)
.L1130:
	ldr	r5, [r6, #56]
	cmp	r5, #0
	beq	.L1132
	ldr	r4, [r5]
	mcr	p15, 0, r0, c7, c10, 5
	add	r3, r4, #124
.L1164:
	ldrex	r2, [r3]
	sub	r2, r2, #1
	strex	r1, r2, [r3]
	cmp	r1, #0
	bne	.L1164
	cmp	r2, #0
	mcr	p15, 0, r0, c7, c10, 5
	beq	.L1168
.L1133:
	mov	r0, r5
	mov	r1, #4
	bl	_ZdlPvj(PLT)
.L1132:
	ldr	r7, [r6, #48]
	cmp	r7, #0
	beq	.L1135
	ldr	r5, [r7]
	cmp	r5, #0
	beq	.L1136
	ldr	r4, [r5, #32]
	cmp	r4, #0
	beq	.L1138
.L1141:
	ldr	r3, [r4]
	mov	r0, r4
	ldr	r3, [r3, #8]
	blx	r3
	ldr	r4, [r4, #16]
	cmp	r4, #0
	bne	.L1141
	ldr	r0, [r5, #32]
	cmp	r0, #0
	beq	.L1138
.L1142:
	ldr	r3, [r0]
	ldr	r4, [r0, #16]
	ldr	r3, [r3, #4]
	blx	r3
	subs	r0, r4, #0
	str	r4, [r5, #32]
	bne	.L1142
.L1138:
	add	r0, r5, #4
	bl	pthread_mutex_destroy(PLT)
	mov	r0, r5
	mov	r1, #36
	bl	_ZdlPvj(PLT)
.L1136:
	mov	r0, r7
	mov	r1, #8
	bl	_ZdlPvj(PLT)
.L1135:
	add	r0, r6, #24
	bl	pthread_mutex_destroy(PLT)
	mov	r0, r6
	add	sp, sp, #16
	@ sp needed
	pop	{r4, r5, r6, r7, r8, pc}
.L1168:
	add	r7, r4, #24
	mov	r0, r7
	bl	pthread_mutex_lock(PLT)
	ldr	r3, [r4, #96]
	mov	r8, #1
	orr	r3, r3, r8
	str	r3, [r4, #96]
	strb	r8, [r4, #136]
	add	r0, r4, #48
	bl	pthread_cond_broadcast(PLT)
	ldrb	r2, [r4, #120]	@ zero_extendqisi2
	cmp	r2, #0
	bne	.L1134
	ldr	r0, [r4, #104]
	cmp	r0, #0
	beq	.L1134
	add	ip, r0, #48
	mov	lr, #-2147483639
	str	r2, [sp, #4]
	str	r2, [sp, #12]
	strb	r8, [r4, #120]
	ldr	r2, [r0, #48]
	mov	r3, sp
	ldr	r0, [r0, #56]
	mov	r1, #3
	str	lr, [sp]
	str	ip, [sp, #8]
	bl	epoll_ctl(PLT)
.L1134:
	mov	r0, r7
	bl	pthread_mutex_unlock(PLT)
	b	.L1133
.L1167:
	ldr	r0, [r4]
	bl	pthread_detach(PLT)
	b	.L1131
.L1170:
	.align	2
.L1169:
	.word	_GLOBAL_OFFSET_TABLE_-(.LPIC70+8)
	.word	_ZTVN4asio2ip16resolver_serviceINS0_3tcpEEE(GOT)
	.personality	__gxx_personality_v0
	.handlerdata
.LLSDA9708:
	.byte	0xff
	.byte	0xff
	.byte	0x1
	.uleb128 .LLSDACSE9708-.LLSDACSB9708
.LLSDACSB9708:
.LLSDACSE9708:
	.section	.text._ZN4asio2ip16resolver_serviceINS0_3tcpEED2Ev,"axG",%progbits,_ZN4asio2ip16resolver_serviceINS0_3tcpEED5Ev,comdat
	.fnend
	.size	_ZN4asio2ip16resolver_serviceINS0_3tcpEED2Ev, .-_ZN4asio2ip16resolver_serviceINS0_3tcpEED2Ev
	.weak	_ZN4asio2ip16resolver_serviceINS0_3tcpEED1Ev
	.set	_ZN4asio2ip16resolver_serviceINS0_3tcpEED1Ev,_ZN4asio2ip16resolver_serviceINS0_3tcpEED2Ev
	.section	.text._ZN4asio6detail14strand_service16on_dispatch_exitD2Ev,"axG",%progbits,_ZN4asio6detail14strand_service16on_dispatch_exitD5Ev,comdat
	.align	2
	.weak	_ZN4asio6detail14strand_service16on_dispatch_exitD2Ev
	.syntax unified
	.arm
	.fpu vfp
	.type	_ZN4asio6detail14strand_service16on_dispatch_exitD2Ev, %function
_ZN4asio6detail14strand_service16on_dispatch_exitD2Ev:
	.fnstart
.LFB6158:
	@ args = 0, pretend = 0, frame = 0
	@ frame_needed = 0, uses_anonymous_args = 0
	push	{r4, r5, r6, lr}
	mov	r5, r0
	ldr	r0, [r0, #4]
	add	r0, r0, #12
	bl	pthread_mutex_lock(PLT)
	ldr	r0, [r5, #4]
	ldr	r4, [r0, #40]
	cmp	r4, #0
	ldreq	r4, [r0, #48]
	beq	.L1173
	ldr	r3, [r0, #52]
	cmp	r3, #0
	strne	r4, [r3]
	ldrne	r4, [r0, #48]
	ldr	r2, [r0, #44]
	mov	r3, #0
	streq	r4, [r0, #48]
	str	r2, [r0, #52]
	str	r3, [r0, #40]
	str	r3, [r0, #44]
.L1173:
	adds	r3, r4, #0
	movne	r3, #1
	strb	r3, [r0, #36]
	add	r0, r0, #12
	bl	pthread_mutex_unlock(PLT)
	cmp	r4, #0
	beq	.L1176
	mov	r2, #0
	ldm	r5, {r0, r1}
	bl	_ZN4asio6detail15task_io_service25post_immediate_completionEPNS0_25task_io_service_operationEb(PLT)
.L1176:
	mov	r0, r5
	pop	{r4, r5, r6, pc}
	.cantunwind
	.fnend
	.size	_ZN4asio6detail14strand_service16on_dispatch_exitD2Ev, .-_ZN4asio6detail14strand_service16on_dispatch_exitD2Ev
	.weak	_ZN4asio6detail14strand_service16on_dispatch_exitD1Ev
	.set	_ZN4asio6detail14strand_service16on_dispatch_exitD1Ev,_ZN4asio6detail14strand_service16on_dispatch_exitD2Ev
	.section	.text._ZN4asio6detail14strand_service11do_dispatchERPNS1_11strand_implEPNS0_25task_io_service_operationE,"axG",%progbits,_ZN4asio6detail14strand_service11do_dispatchERPNS1_11strand_implEPNS0_25task_io_service_operationE,comdat
	.align	2
	.weak	_ZN4asio6detail14strand_service11do_dispatchERPNS1_11strand_implEPNS0_25task_io_service_operationE
	.syntax unified
	.arm
	.fpu vfp
	.type	_ZN4asio6detail14strand_service11do_dispatchERPNS1_11strand_implEPNS0_25task_io_service_operationE, %function
_ZN4asio6detail14strand_service11do_dispatchERPNS1_11strand_implEPNS0_25task_io_service_operationE:
	.fnstart
.LFB6175:
	@ args = 0, pretend = 0, frame = 0
	@ frame_needed = 0, uses_anonymous_args = 0
	ldr	r3, .L1208
	ldr	ip, .L1208+4
.LPIC71:
	add	r3, pc, r3
	push	{r4, r5, r6, r7, r8, lr}
	mov	r6, r1
	ldr	r1, [r3, ip]
	ldr	r4, [r0, #20]
	mov	r5, r0
	ldr	r0, [r1]
	mov	r7, r2
	bl	pthread_getspecific(PLT)
	cmp	r0, #0
	bne	.L1203
	b	.L1182
.L1185:
	ldr	r0, [r0, #8]
	cmp	r0, #0
	beq	.L1182
.L1203:
	ldr	r3, [r0]
	cmp	r4, r3
	bne	.L1185
	ldr	r3, [r6]
	ldr	r4, [r0, #4]
	add	r0, r3, #12
	bl	pthread_mutex_lock(PLT)
	cmp	r4, #0
	beq	.L1187
	ldr	r0, [r6]
	ldrb	r3, [r0, #36]	@ zero_extendqisi2
	cmp	r3, #0
	beq	.L1207
.L1189:
	ldr	r3, [r0, #44]
	mov	r2, #0
	cmp	r3, r2
	str	r2, [r7]
	mov	r4, #0
	strne	r7, [r3]
	streq	r7, [r0, #44]
	strne	r7, [r0, #44]
	streq	r7, [r0, #40]
	add	r0, r0, #12
	bl	pthread_mutex_unlock(PLT)
	mov	r0, r4
	pop	{r4, r5, r6, r7, r8, pc}
.L1182:
	ldr	r0, [r6]
	add	r0, r0, #12
	bl	pthread_mutex_lock(PLT)
.L1187:
	ldr	r0, [r6]
	ldrb	r4, [r0, #36]	@ zero_extendqisi2
	cmp	r4, #0
	bne	.L1189
	mov	r3, #1
	strb	r3, [r0, #36]
	add	r0, r0, #12
	bl	pthread_mutex_unlock(PLT)
	ldr	r1, [r6]
	ldr	r0, [r5, #20]
	str	r4, [r7]
	ldr	r3, [r1, #52]
	mov	r2, #0
	cmp	r3, #0
	strne	r7, [r3]
	streq	r7, [r1, #52]
	strne	r7, [r1, #52]
	streq	r7, [r1, #48]
	bl	_ZN4asio6detail15task_io_service25post_immediate_completionEPNS0_25task_io_service_operationEb(PLT)
	mov	r0, r4
	pop	{r4, r5, r6, r7, r8, pc}
.L1207:
	mov	r4, #1
	strb	r4, [r0, #36]
	add	r0, r0, #12
	bl	pthread_mutex_unlock(PLT)
	mov	r0, r4
	pop	{r4, r5, r6, r7, r8, pc}
.L1209:
	.align	2
.L1208:
	.word	_GLOBAL_OFFSET_TABLE_-(.LPIC71+8)
	.word	_ZN4asio6detail10call_stackINS0_15task_io_serviceENS0_27task_io_service_thread_infoEE4top_E(GOT)
	.cantunwind
	.fnend
	.size	_ZN4asio6detail14strand_service11do_dispatchERPNS1_11strand_implEPNS0_25task_io_service_operationE, .-_ZN4asio6detail14strand_service11do_dispatchERPNS1_11strand_implEPNS0_25task_io_service_operationE
	.section	.text._ZNSt12__shared_ptrIN7asiopal9TCPClientELN9__gnu_cxx12_Lock_policyE1EEC2ERKS4_,"axG",%progbits,_ZNSt12__shared_ptrIN7asiopal9TCPClientELN9__gnu_cxx12_Lock_policyE1EEC5ERKS4_,comdat
	.align	2
	.weak	_ZNSt12__shared_ptrIN7asiopal9TCPClientELN9__gnu_cxx12_Lock_policyE1EEC2ERKS4_
	.syntax unified
	.arm
	.fpu vfp
	.type	_ZNSt12__shared_ptrIN7asiopal9TCPClientELN9__gnu_cxx12_Lock_policyE1EEC2ERKS4_, %function
_ZNSt12__shared_ptrIN7asiopal9TCPClientELN9__gnu_cxx12_Lock_policyE1EEC2ERKS4_:
	.fnstart
.LFB6813:
	@ args = 0, pretend = 0, frame = 0
	@ frame_needed = 0, uses_anonymous_args = 0
	@ link register save eliminated.
	ldm	r1, {r2, r3}
	stm	r0, {r2, r3}
	cmp	r3, #0
	ldr	r2, .L1217
.LPIC72:
	add	r2, pc, r2
	bxeq	lr
	ldr	r1, .L1217+4
	ldr	r2, [r2, r1]
	cmp	r2, #0
	beq	.L1212
	add	r3, r3, #28
	mcr	p15, 0, r0, c7, c10, 5
.L1216:
	ldrex	r2, [r3]
	add	r2, r2, #1
	strex	r1, r2, [r3]
	cmp	r1, #0
	bne	.L1216
	mcr	p15, 0, r0, c7, c10, 5
	bx	lr
.L1212:
	ldr	r2, [r3, #28]
	add	r2, r2, #1
	str	r2, [r3, #28]
	bx	lr
.L1218:
	.align	2
.L1217:
	.word	_GLOBAL_OFFSET_TABLE_-(.LPIC72+8)
	.word	_ZL28__gthrw___pthread_key_createPjPFvPvE(GOT)
	.cantunwind
	.fnend
	.size	_ZNSt12__shared_ptrIN7asiopal9TCPClientELN9__gnu_cxx12_Lock_policyE1EEC2ERKS4_, .-_ZNSt12__shared_ptrIN7asiopal9TCPClientELN9__gnu_cxx12_Lock_policyE1EEC2ERKS4_
	.weak	_ZNSt12__shared_ptrIN7asiopal9TCPClientELN9__gnu_cxx12_Lock_policyE1EEC1ERKS4_
	.set	_ZNSt12__shared_ptrIN7asiopal9TCPClientELN9__gnu_cxx12_Lock_policyE1EEC1ERKS4_,_ZNSt12__shared_ptrIN7asiopal9TCPClientELN9__gnu_cxx12_Lock_policyE1EEC2ERKS4_
	.section	.text._ZN4asio2ip20basic_resolver_queryINS0_3tcpEED2Ev,"axG",%progbits,_ZN4asio2ip20basic_resolver_queryINS0_3tcpEED5Ev,comdat
	.align	2
	.weak	_ZN4asio2ip20basic_resolver_queryINS0_3tcpEED2Ev
	.syntax unified
	.arm
	.fpu vfp
	.type	_ZN4asio2ip20basic_resolver_queryINS0_3tcpEED2Ev, %function
_ZN4asio2ip20basic_resolver_queryINS0_3tcpEED2Ev:
	.fnstart
.LFB6827:
	@ args = 0, pretend = 0, frame = 0
	@ frame_needed = 0, uses_anonymous_args = 0
	add	r3, r0, #64
	push	{r4, lr}
	mov	r4, r0
	ldr	r0, [r0, #56]
	cmp	r0, r3
	beq	.L1220
	bl	_ZdlPv(PLT)
.L1220:
	ldr	r0, [r4, #32]
	add	r3, r4, #40
	cmp	r0, r3
	beq	.L1221
	bl	_ZdlPv(PLT)
.L1221:
	mov	r0, r4
	pop	{r4, pc}
	.cantunwind
	.fnend
	.size	_ZN4asio2ip20basic_resolver_queryINS0_3tcpEED2Ev, .-_ZN4asio2ip20basic_resolver_queryINS0_3tcpEED2Ev
	.weak	_ZN4asio2ip20basic_resolver_queryINS0_3tcpEED1Ev
	.set	_ZN4asio2ip20basic_resolver_queryINS0_3tcpEED1Ev,_ZN4asio2ip20basic_resolver_queryINS0_3tcpEED2Ev
	.section	.text._ZNSt12__shared_ptrISt6vectorIN4asio2ip20basic_resolver_entryINS2_3tcpEEESaIS5_EELN9__gnu_cxx12_Lock_policyE1EEC2ERKSA_,"axG",%progbits,_ZNSt12__shared_ptrISt6vectorIN4asio2ip20basic_resolver_entryINS2_3tcpEEESaIS5_EELN9__gnu_cxx12_Lock_policyE1EEC5ERKSA_,comdat
	.align	2
	.weak	_ZNSt12__shared_ptrISt6vectorIN4asio2ip20basic_resolver_entryINS2_3tcpEEESaIS5_EELN9__gnu_cxx12_Lock_policyE1EEC2ERKSA_
	.syntax unified
	.arm
	.fpu vfp
	.type	_ZNSt12__shared_ptrISt6vectorIN4asio2ip20basic_resolver_entryINS2_3tcpEEESaIS5_EELN9__gnu_cxx12_Lock_policyE1EEC2ERKSA_, %function
_ZNSt12__shared_ptrISt6vectorIN4asio2ip20basic_resolver_entryINS2_3tcpEEESaIS5_EELN9__gnu_cxx12_Lock_policyE1EEC2ERKSA_:
	.fnstart
.LFB6866:
	@ args = 0, pretend = 0, frame = 0
	@ frame_needed = 0, uses_anonymous_args = 0
	@ link register save eliminated.
	ldm	r1, {r2, r3}
	stm	r0, {r2, r3}
	cmp	r3, #0
	ldr	r2, .L1230
.LPIC73:
	add	r2, pc, r2
	bxeq	lr
	ldr	r1, .L1230+4
	ldr	r2, [r2, r1]
	cmp	r2, #0
	beq	.L1225
	add	r3, r3, #28
	mcr	p15, 0, r0, c7, c10, 5
.L1229:
	ldrex	r2, [r3]
	add	r2, r2, #1
	strex	r1, r2, [r3]
	cmp	r1, #0
	bne	.L1229
	mcr	p15, 0, r0, c7, c10, 5
	bx	lr
.L1225:
	ldr	r2, [r3, #28]
	add	r2, r2, #1
	str	r2, [r3, #28]
	bx	lr
.L1231:
	.align	2
.L1230:
	.word	_GLOBAL_OFFSET_TABLE_-(.LPIC73+8)
	.word	_ZL28__gthrw___pthread_key_createPjPFvPvE(GOT)
	.cantunwind
	.fnend
	.size	_ZNSt12__shared_ptrISt6vectorIN4asio2ip20basic_resolver_entryINS2_3tcpEEESaIS5_EELN9__gnu_cxx12_Lock_policyE1EEC2ERKSA_, .-_ZNSt12__shared_ptrISt6vectorIN4asio2ip20basic_resolver_entryINS2_3tcpEEESaIS5_EELN9__gnu_cxx12_Lock_policyE1EEC2ERKSA_
	.weak	_ZNSt12__shared_ptrISt6vectorIN4asio2ip20basic_resolver_entryINS2_3tcpEEESaIS5_EELN9__gnu_cxx12_Lock_policyE1EEC1ERKSA_
	.set	_ZNSt12__shared_ptrISt6vectorIN4asio2ip20basic_resolver_entryINS2_3tcpEEESaIS5_EELN9__gnu_cxx12_Lock_policyE1EEC1ERKSA_,_ZNSt12__shared_ptrISt6vectorIN4asio2ip20basic_resolver_entryINS2_3tcpEEESaIS5_EELN9__gnu_cxx12_Lock_policyE1EEC2ERKSA_
	.section	.text._ZN4asio6detail15throw_exceptionISt12system_errorEEvRKT_,"axG",%progbits,_ZN4asio6detail15throw_exceptionISt12system_errorEEvRKT_,comdat
	.align	2
	.weak	_ZN4asio6detail15throw_exceptionISt12system_errorEEvRKT_
	.syntax unified
	.arm
	.fpu vfp
	.type	_ZN4asio6detail15throw_exceptionISt12system_errorEEvRKT_, %function
_ZN4asio6detail15throw_exceptionISt12system_errorEEvRKT_:
	.fnstart
.LFB7105:
	@ args = 0, pretend = 0, frame = 0
	@ frame_needed = 0, uses_anonymous_args = 0
	push	{r4, r5, r6, lr}
	.save {r4, r5, r6, lr}
	mov	r4, r0
	mov	r0, #16
	bl	__cxa_allocate_exception(PLT)
	mov	r1, r4
	add	r4, r4, #8
	mov	r5, r0
	bl	_ZNSt13runtime_errorC2ERKS_(PLT)
	ldr	r3, .L1234
	ldr	r2, .L1234+4
.LPIC74:
	add	r3, pc, r3
	ldm	r4, {r0, r1}
	ldr	r6, [r3, r2]
	ldr	lr, .L1234+8
	ldr	ip, .L1234+12
	mov	r2, r5
	add	r4, r6, #8
	str	r4, [r2], #8
	stm	r2, {r0, r1}
	mov	r0, r5
	ldr	r2, [r3, lr]
	ldr	r1, [r3, ip]
	bl	__cxa_throw(PLT)
.L1235:
	.align	2
.L1234:
	.word	_GLOBAL_OFFSET_TABLE_-(.LPIC74+8)
	.word	_ZTVSt12system_error(GOT)
	.word	_ZNSt12system_errorD1Ev(GOT)
	.word	_ZTISt12system_error(GOT)
	.fnend
	.size	_ZN4asio6detail15throw_exceptionISt12system_errorEEvRKT_, .-_ZN4asio6detail15throw_exceptionISt12system_errorEEvRKT_
	.section	.text._ZN4asio6detail14do_throw_errorERKSt10error_code,"axG",%progbits,_ZN4asio6detail14do_throw_errorERKSt10error_code,comdat
	.align	2
	.weak	_ZN4asio6detail14do_throw_errorERKSt10error_code
	.syntax unified
	.arm
	.fpu vfp
	.type	_ZN4asio6detail14do_throw_errorERKSt10error_code, %function
_ZN4asio6detail14do_throw_errorERKSt10error_code:
	.fnstart
.LFB2071:
	@ args = 0, pretend = 0, frame = 40
	@ frame_needed = 0, uses_anonymous_args = 0
	push	{r4, r5, r6, r7, r8, lr}
	.save {r4, r5, r6, r7, r8, lr}
	.pad #40
	sub	sp, sp, #40
	ldr	r4, [r0, #4]
	ldr	r7, [r0]
	add	r5, sp, #16
	ldr	r3, [r4]
	mov	r1, r4
	mov	r0, r5
	mov	r2, r7
	ldr	r3, [r3, #16]
	ldr	r8, .L1245
.LEHB29:
	blx	r3
.LEHE29:
	mov	r1, r5
	mov	r0, sp
	mov	r6, sp
.LPIC75:
	add	r8, pc, r8
.LEHB30:
	bl	_ZNSt13runtime_errorC2ERKNSt7__cxx1112basic_stringIcSt11char_traitsIcESaIcEEE(PLT)
.LEHE30:
	ldr	r0, [sp, #16]
	add	r3, sp, #24
	cmp	r0, r3
	beq	.L1237
	bl	_ZdlPv(PLT)
.L1237:
	ldr	r3, .L1245+4
	mov	r0, r6
	ldr	r3, [r8, r3]
	str	r7, [sp, #8]
	add	r3, r3, #8
	str	r3, [sp]
	str	r4, [sp, #12]
.LEHB31:
	bl	_ZN4asio6detail15throw_exceptionISt12system_errorEEvRKT_(PLT)
.LEHE31:
.L1241:
	mov	r0, r6
	bl	_ZNSt12system_errorD1Ev(PLT)
.L1244:
.LEHB32:
	bl	__cxa_end_cleanup(PLT)
.LEHE32:
.L1242:
	ldr	r0, [sp, #16]
	add	r5, r5, #8
	cmp	r0, r5
	beq	.L1244
	bl	_ZdlPv(PLT)
	b	.L1244
.L1246:
	.align	2
.L1245:
	.word	_GLOBAL_OFFSET_TABLE_-(.LPIC75+8)
	.word	_ZTVSt12system_error(GOT)
	.personality	__gxx_personality_v0
	.handlerdata
.LLSDA2071:
	.byte	0xff
	.byte	0xff
	.byte	0x1
	.uleb128 .LLSDACSE2071-.LLSDACSB2071
.LLSDACSB2071:
	.uleb128 .LEHB29-.LFB2071
	.uleb128 .LEHE29-.LEHB29
	.uleb128 0
	.uleb128 0
	.uleb128 .LEHB30-.LFB2071
	.uleb128 .LEHE30-.LEHB30
	.uleb128 .L1242-.LFB2071
	.uleb128 0
	.uleb128 .LEHB31-.LFB2071
	.uleb128 .LEHE31-.LEHB31
	.uleb128 .L1241-.LFB2071
	.uleb128 0
	.uleb128 .LEHB32-.LFB2071
	.uleb128 .LEHE32-.LEHB32
	.uleb128 0
	.uleb128 0
.LLSDACSE2071:
	.section	.text._ZN4asio6detail14do_throw_errorERKSt10error_code,"axG",%progbits,_ZN4asio6detail14do_throw_errorERKSt10error_code,comdat
	.fnend
	.size	_ZN4asio6detail14do_throw_errorERKSt10error_code, .-_ZN4asio6detail14do_throw_errorERKSt10error_code
	.section	.text._ZN4asio6detail12posix_thread4funcINS0_21resolver_service_base22work_io_service_runnerEE3runEv,"axG",%progbits,_ZN4asio6detail12posix_thread4funcINS0_21resolver_service_base22work_io_service_runnerEE3runEv,comdat
	.align	2
	.weak	_ZN4asio6detail12posix_thread4funcINS0_21resolver_service_base22work_io_service_runnerEE3runEv
	.syntax unified
	.arm
	.fpu vfp
	.type	_ZN4asio6detail12posix_thread4funcINS0_21resolver_service_base22work_io_service_runnerEE3runEv, %function
_ZN4asio6detail12posix_thread4funcINS0_21resolver_service_base22work_io_service_runnerEE3runEv:
	.fnstart
.LFB9846:
	@ args = 0, pretend = 0, frame = 96
	@ frame_needed = 0, uses_anonymous_args = 0
	ldr	r3, [r0, #4]
	push	{r4, r5, r6, r7, r8, r9, r10, fp, lr}
	.save {r4, r5, r6, r7, r8, r9, r10, fp, lr}
	.pad #100
	sub	sp, sp, #100
	ldr	r4, [r3, #4]
	bl	_ZNSt3_V215system_categoryEv(PLT)
	mov	r6, #0
	str	r6, [sp, #24]
	ldr	r5, .L1377
.LPIC76:
	add	r5, pc, r5
	str	r0, [sp, #16]
	str	r0, [sp, #28]
	mcr	p15, 0, r0, c7, c10, 5
	ldr	r3, [r4, #124]
	mcr	p15, 0, r0, c7, c10, 5
	cmp	r3, r6
	beq	.L1365
	ldr	r3, .L1377+4
	add	r8, sp, #80
	str	r6, [sp, #80]
	str	r6, [sp, #84]
	str	r6, [sp, #88]
	str	r6, [sp, #92]
	str	r4, [sp, #40]
	str	r8, [sp, #44]
	ldr	r3, [r5, r3]
	add	r2, r4, #48
	mov	r5, r3
	ldr	r0, [r3]
	str	r2, [sp, #8]
	str	r3, [sp, #20]
	bl	pthread_getspecific(PLT)
	add	r3, sp, #84
	add	r1, sp, #40
	str	r3, [sp, #4]
	add	r10, r4, #108
	add	r9, sp, #32
	str	r0, [sp, #48]
	ldr	r0, [r5]
	bl	pthread_setspecific(PLT)
	add	r3, r4, #24
	mov	r0, r3
	str	r3, [sp, #32]
	bl	pthread_mutex_lock(PLT)
	mov	r3, #1
	mov	r7, r3
	strb	r3, [sp, #36]
	b	.L1251
.L1263:
	ldr	r1, [r2, #4]
	ldr	r3, [sp, #64]
	cmp	r1, #0
	strb	r7, [r3, #120]
	beq	.L1264
	ldr	r0, [r3, #132]
	cmp	r0, #0
	strne	r1, [r0]
	streq	r1, [r3, #128]
	ldr	r1, [r2, #8]
	str	r1, [r3, #132]
	str	r6, [r2, #4]
	str	r6, [r2, #8]
.L1264:
	ldr	r1, [r3, #132]
	add	r2, r3, #108
	cmp	r1, #0
	str	r6, [r3, #108]
	streq	r2, [r3, #132]
	strne	r2, [r1]
	streq	r2, [r3, #128]
	strne	r2, [r3, #132]
.L1251:
	ldrb	r2, [r4, #136]	@ zero_extendqisi2
	cmp	r2, #0
	bne	.L1253
.L1369:
	ldr	r5, [r4, #128]
	cmp	r5, #0
	beq	.L1254
	ldr	r3, [r5]
	cmp	r3, #0
	streq	r2, [r4, #132]
	str	r3, [r4, #128]
	str	r6, [r5]
	ldr	r3, [r4, #128]
	cmp	r3, #0
	moveq	fp, #1
	movne	fp, #0
	movne	r2, #1
	moveq	r2, #0
	cmp	r5, r10
	bne	.L1256
	cmp	r3, #0
	strb	r2, [r4, #120]
	beq	.L1257
	ldrb	r5, [r4, #20]	@ zero_extendqisi2
	cmp	r5, #0
	beq	.L1366
.L1257:
	ldrb	r3, [sp, #36]	@ zero_extendqisi2
	cmp	r3, #0
	bne	.L1367
.L1260:
	ldr	r0, [r4, #104]
	mov	r1, fp
	ldr	r2, [sp, #4]
	str	r4, [sp, #64]
	str	r9, [sp, #68]
	str	r8, [sp, #72]
.LEHB33:
	bl	_ZN4asio6detail13epoll_reactor3runEbRNS0_8op_queueINS0_25task_io_service_operationEEE(PLT)
.LEHE33:
	ldr	r2, [sp, #72]
	ldr	r1, [r2, #12]
	cmp	r1, #0
	ble	.L1262
	ldr	r3, [sp, #64]
	mcr	p15, 0, r0, c7, c10, 5
	add	r3, r3, #124
.L1355:
	ldrex	r2, [r3]
	add	r2, r2, r1
	strex	r0, r2, [r3]
	cmp	r0, #0
	bne	.L1355
	mcr	p15, 0, r0, c7, c10, 5
	ldr	r2, [sp, #72]
.L1262:
	ldr	r5, [sp, #68]
	str	r6, [r2, #12]
	ldrb	r3, [r5, #4]	@ zero_extendqisi2
	cmp	r3, #0
	bne	.L1263
	ldr	r0, [r5]
	bl	pthread_mutex_lock(PLT)
	ldr	r2, [sp, #72]
	strb	r7, [r5, #4]
	b	.L1263
.L1367:
	ldr	r0, [sp, #32]
	bl	pthread_mutex_unlock(PLT)
	strb	r6, [sp, #36]
	b	.L1260
.L1366:
	ldrb	r2, [sp, #36]	@ zero_extendqisi2
	ldr	r3, [r4, #96]
	cmp	r2, #0
	orr	r3, r3, #1
	str	r3, [r4, #96]
	bne	.L1368
.L1258:
	cmp	r3, #1
	beq	.L1260
	ldr	r0, [sp, #8]
	bl	pthread_cond_signal(PLT)
	b	.L1260
.L1254:
	ldr	r3, [r4, #96]
	ldr	r5, [sp, #8]
	bic	r3, r3, #1
.L1289:
	add	r3, r3, #2
	str	r3, [r4, #96]
	ldr	r1, [sp, #32]
	mov	r0, r5
.LEHB34:
	bl	pthread_cond_wait(PLT)
.LEHE34:
	ldr	r3, [r4, #96]
	sub	r3, r3, #2
	tst	r3, #1
	str	r3, [r4, #96]
	beq	.L1289
	ldrb	r2, [r4, #136]	@ zero_extendqisi2
	cmp	r2, #0
	beq	.L1369
.L1253:
	ldrb	r3, [sp, #36]	@ zero_extendqisi2
	cmp	r3, #0
	bne	.L1370
.L1304:
	ldr	r3, [sp, #20]
	ldr	r1, [sp, #48]
	ldr	r0, [r3]
	bl	pthread_setspecific(PLT)
	ldr	r1, [sp, #84]
	cmp	r1, #0
	beq	.L1297
	ldr	r7, [sp, #16]
	add	r6, sp, #64
	mov	r4, #0
.L1298:
	ldr	r3, [r1]
	ldr	r5, [r1, #4]
	cmp	r3, #0
	streq	r3, [sp, #88]
	str	r3, [sp, #84]
	mov	r3, #0
	str	r4, [r1]
	mov	r0, r3
	str	r4, [sp, #64]
	str	r7, [sp, #68]
	mov	r2, r6
	blx	r5
	ldr	r1, [sp, #84]
	cmp	r1, #0
	bne	.L1298
.L1297:
	ldr	r0, [sp, #80]
	cmp	r0, #0
	beq	.L1250
	bl	_ZdlPv(PLT)
.L1250:
	ldr	r3, [sp, #24]
	cmp	r3, #0
	bne	.L1371
	add	sp, sp, #100
	@ sp needed
	pop	{r4, r5, r6, r7, r8, r9, r10, fp, pc}
.L1368:
	ldr	r0, [sp, #32]
	str	r3, [sp, #12]
	bl	pthread_mutex_unlock(PLT)
	strb	r5, [sp, #36]
	ldr	r3, [sp, #12]
	b	.L1258
.L1256:
	cmp	r3, #0
	ldr	fp, [r5, #8]
	beq	.L1270
	ldrb	r3, [r4, #20]	@ zero_extendqisi2
	cmp	r3, #0
	beq	.L1372
.L1270:
	ldrb	r3, [sp, #36]	@ zero_extendqisi2
	cmp	r3, #0
	bne	.L1373
.L1273:
	mov	r3, fp
	str	r4, [sp, #52]
	str	r9, [sp, #56]
	str	r8, [sp, #60]
	ldr	fp, [r5, #4]
	mov	r1, r5
	add	r2, sp, #24
	mov	r0, r4
.LEHB35:
	blx	fp
.LEHE35:
	ldr	r3, [sp, #60]
	ldr	r2, [r3, #12]
	cmp	r2, #1
	ble	.L1277
	ldr	r3, [sp, #52]
	sub	r2, r2, #1
	add	r3, r3, #124
	mcr	p15, 0, r0, c7, c10, 5
.L1354:
	ldrex	r1, [r3]
	add	r1, r1, r2
	strex	r0, r1, [r3]
	cmp	r0, #0
	bne	.L1354
	mcr	p15, 0, r0, c7, c10, 5
	ldr	r3, [sp, #60]
.L1278:
	ldr	r2, [r3, #4]
	str	r6, [r3, #12]
	cmp	r2, #0
	beq	.L1282
	ldr	r5, [sp, #56]
	ldrb	r1, [r5, #4]	@ zero_extendqisi2
	cmp	r1, #0
	beq	.L1374
.L1359:
	ldr	r1, [sp, #52]
	ldr	r0, [r1, #132]
	cmp	r0, #0
	strne	r2, [r0]
	streq	r2, [r1, #128]
	ldr	r2, [r3, #8]
	str	r2, [r1, #132]
	str	r6, [r3, #4]
	str	r6, [r3, #8]
.L1282:
	ldrb	r3, [sp, #36]	@ zero_extendqisi2
	cmp	r3, #0
	bne	.L1251
	ldr	r0, [sp, #32]
	bl	pthread_mutex_lock(PLT)
	strb	r7, [sp, #36]
	b	.L1251
.L1277:
	beq	.L1278
	ldr	fp, [sp, #52]
	mcr	p15, 0, r0, c7, c10, 5
	add	r3, fp, #124
.L1353:
	ldrex	r2, [r3]
	sub	r2, r2, #1
	strex	r1, r2, [r3]
	cmp	r1, #0
	bne	.L1353
	cmp	r2, #0
	mcr	p15, 0, r0, c7, c10, 5
	beq	.L1375
.L1358:
	ldr	r3, [sp, #60]
	b	.L1278
.L1373:
	ldr	r0, [sp, #32]
	bl	pthread_mutex_unlock(PLT)
	strb	r6, [sp, #36]
	b	.L1273
.L1374:
	ldr	r0, [r5]
	bl	pthread_mutex_lock(PLT)
	ldr	r3, [sp, #60]
	strb	r7, [r5, #4]
	ldr	r2, [r3, #4]
	cmp	r2, #0
	bne	.L1359
	b	.L1282
.L1372:
	ldr	r2, [r4, #96]
	orr	r2, r2, #1
	cmp	r2, #1
	str	r2, [r4, #96]
	beq	.L1271
	ldrb	r2, [sp, #36]	@ zero_extendqisi2
	cmp	r2, #0
	bne	.L1376
.L1272:
	ldr	r0, [sp, #8]
	bl	pthread_cond_signal(PLT)
	b	.L1273
.L1271:
	ldrb	r1, [r4, #120]	@ zero_extendqisi2
	cmp	r1, #0
	bne	.L1270
	ldr	r0, [r4, #104]
	cmp	r0, #0
	beq	.L1270
	add	r3, sp, #64
	strb	r2, [r4, #120]
	mov	ip, #-2147483639
	add	r2, r0, #48
	str	r1, [r3, #4]
	str	r1, [r3, #12]
	str	r2, [sp, #72]
	str	ip, [sp, #64]
	mov	r1, #3
	ldr	r2, [r0, #48]
	ldr	r0, [r0, #56]
	bl	epoll_ctl(PLT)
	b	.L1270
.L1365:
	add	r5, r4, #24
	mov	r0, r5
	bl	pthread_mutex_lock(PLT)
	ldr	r3, [r4, #96]
	mov	r6, #1
	orr	r3, r3, r6
	str	r3, [r4, #96]
	strb	r6, [r4, #136]
	add	r0, r4, #48
	bl	pthread_cond_broadcast(PLT)
	ldrb	r1, [r4, #120]	@ zero_extendqisi2
	cmp	r1, #0
	bne	.L1249
	ldr	r0, [r4, #104]
	cmp	r0, #0
	beq	.L1249
	add	ip, r0, #48
	add	r2, sp, #80
	mov	lr, #-2147483639
	strb	r6, [r4, #120]
	mov	r3, r2
	str	r1, [sp, #84]
	str	r1, [sp, #92]
	str	ip, [sp, #88]
	str	lr, [sp, #80]
	mov	r1, #3
	ldr	r2, [r0, #48]
	ldr	r0, [r0, #56]
	bl	epoll_ctl(PLT)
.L1249:
	mov	r0, r5
	bl	pthread_mutex_unlock(PLT)
	b	.L1250
.L1376:
	ldr	r0, [sp, #32]
	str	r3, [sp, #12]
	bl	pthread_mutex_unlock(PLT)
	ldr	r3, [sp, #12]
	strb	r3, [sp, #36]
	b	.L1272
.L1375:
	add	r5, fp, #24
	mov	r0, r5
	bl	pthread_mutex_lock(PLT)
	ldr	r3, [fp, #96]
	strb	r7, [fp, #136]
	orr	r3, r3, #1
	str	r3, [fp, #96]
	add	r0, fp, #48
	bl	pthread_cond_broadcast(PLT)
	ldrb	r2, [fp, #120]	@ zero_extendqisi2
	cmp	r2, #0
	bne	.L1280
	ldr	r0, [fp, #104]
	cmp	r0, #0
	beq	.L1280
	add	r3, sp, #64
	mov	r1, #-2147483639
	add	ip, r0, #48
	strb	r7, [fp, #120]
	str	r1, [sp, #64]
	str	ip, [sp, #72]
	str	r2, [r3, #4]
	str	r2, [r3, #12]
	mov	r1, #3
	ldr	r2, [r0, #48]
	ldr	r0, [r0, #56]
	bl	epoll_ctl(PLT)
.L1280:
	mov	r0, r5
	bl	pthread_mutex_unlock(PLT)
	b	.L1358
.L1370:
	ldr	r0, [sp, #32]
	bl	pthread_mutex_unlock(PLT)
	b	.L1304
.L1371:
	add	r0, sp, #24
.LEHB36:
	bl	_ZN4asio6detail14do_throw_errorERKSt10error_code(PLT)
.L1308:
	add	r0, sp, #64
	bl	_ZN4asio6detail15task_io_service12task_cleanupD1Ev(PLT)
.L1291:
	ldrb	r3, [sp, #36]	@ zero_extendqisi2
	cmp	r3, #0
	beq	.L1301
	ldr	r0, [sp, #32]
	bl	pthread_mutex_unlock(PLT)
.L1301:
	ldr	r3, [sp, #20]
	ldr	r1, [sp, #48]
	ldr	r0, [r3]
	bl	pthread_setspecific(PLT)
	mov	r0, r8
	bl	_ZN4asio6detail27task_io_service_thread_infoD1Ev(PLT)
	bl	__cxa_end_cleanup(PLT)
.LEHE36:
.L1307:
	add	r0, sp, #52
	bl	_ZN4asio6detail15task_io_service12work_cleanupD1Ev(PLT)
	b	.L1291
.L1306:
	b	.L1291
.L1378:
	.align	2
.L1377:
	.word	_GLOBAL_OFFSET_TABLE_-(.LPIC76+8)
	.word	_ZN4asio6detail10call_stackINS0_15task_io_serviceENS0_27task_io_service_thread_infoEE4top_E(GOT)
	.personality	__gxx_personality_v0
	.handlerdata
.LLSDA9846:
	.byte	0xff
	.byte	0xff
	.byte	0x1
	.uleb128 .LLSDACSE9846-.LLSDACSB9846
.LLSDACSB9846:
	.uleb128 .LEHB33-.LFB9846
	.uleb128 .LEHE33-.LEHB33
	.uleb128 .L1308-.LFB9846
	.uleb128 0
	.uleb128 .LEHB34-.LFB9846
	.uleb128 .LEHE34-.LEHB34
	.uleb128 .L1306-.LFB9846
	.uleb128 0
	.uleb128 .LEHB35-.LFB9846
	.uleb128 .LEHE35-.LEHB35
	.uleb128 .L1307-.LFB9846
	.uleb128 0
	.uleb128 .LEHB36-.LFB9846
	.uleb128 .LEHE36-.LEHB36
	.uleb128 0
	.uleb128 0
.LLSDACSE9846:
	.section	.text._ZN4asio6detail12posix_thread4funcINS0_21resolver_service_base22work_io_service_runnerEE3runEv,"axG",%progbits,_ZN4asio6detail12posix_thread4funcINS0_21resolver_service_base22work_io_service_runnerEE3runEv,comdat
	.fnend
	.size	_ZN4asio6detail12posix_thread4funcINS0_21resolver_service_base22work_io_service_runnerEE3runEv, .-_ZN4asio6detail12posix_thread4funcINS0_21resolver_service_base22work_io_service_runnerEE3runEv
	.section	.text.asio_detail_posix_thread_function,"axG",%progbits,asio_detail_posix_thread_function,comdat
	.align	2
	.weak	asio_detail_posix_thread_function
	.syntax unified
	.arm
	.fpu vfp
	.type	asio_detail_posix_thread_function, %function
asio_detail_posix_thread_function:
	.fnstart
.LFB5784:
	@ args = 0, pretend = 0, frame = 8
	@ frame_needed = 0, uses_anonymous_args = 0
	ldr	r3, .L1391
	ldr	r1, [r0]
	ldr	r2, .L1391+4
.LPIC77:
	add	r3, pc, r3
	push	{r4, r5, r6, lr}
	.save {r4, r5, r6, lr}
	.pad #8
	sub	sp, sp, #8
	ldr	r1, [r1, #8]
	ldr	r3, [r3, r2]
	mov	r4, r0
	cmp	r1, r3
	bne	.L1380
	ldr	r3, [r0, #4]
	mov	r2, #0
	str	r2, [sp]
	ldr	r6, [r3, #4]
	bl	_ZNSt3_V215system_categoryEv(PLT)
	mov	r1, sp
	str	r0, [sp, #4]
	mov	r0, r6
.LEHB37:
	bl	_ZN4asio6detail15task_io_service3runERSt10error_code(PLT)
	ldr	r3, [sp]
	cmp	r3, #0
	bne	.L1390
.L1382:
	ldr	r3, [r4]
	mov	r0, r4
	ldr	r3, [r3, #4]
	blx	r3
	mov	r0, #0
	add	sp, sp, #8
	@ sp needed
	pop	{r4, r5, r6, pc}
.L1380:
	blx	r1
	b	.L1382
.L1390:
	mov	r0, sp
	bl	_ZN4asio6detail14do_throw_errorERKSt10error_code(PLT)
.LEHE37:
.L1384:
	ldr	r3, [r4]
	mov	r0, r4
	ldr	r3, [r3, #4]
	blx	r3
.LEHB38:
	bl	__cxa_end_cleanup(PLT)
.LEHE38:
.L1392:
	.align	2
.L1391:
	.word	_GLOBAL_OFFSET_TABLE_-(.LPIC77+8)
	.word	_ZN4asio6detail12posix_thread4funcINS0_21resolver_service_base22work_io_service_runnerEE3runEv(GOT)
	.personality	__gxx_personality_v0
	.handlerdata
.LLSDA5784:
	.byte	0xff
	.byte	0xff
	.byte	0x1
	.uleb128 .LLSDACSE5784-.LLSDACSB5784
.LLSDACSB5784:
	.uleb128 .LEHB37-.LFB5784
	.uleb128 .LEHE37-.LEHB37
	.uleb128 .L1384-.LFB5784
	.uleb128 0
	.uleb128 .LEHB38-.LFB5784
	.uleb128 .LEHE38-.LEHB38
	.uleb128 0
	.uleb128 0
.LLSDACSE5784:
	.section	.text.asio_detail_posix_thread_function,"axG",%progbits,asio_detail_posix_thread_function,comdat
	.fnend
	.size	asio_detail_posix_thread_function, .-asio_detail_posix_thread_function
	.section	.text._ZN4asio6detail14do_throw_errorERKSt10error_codePKc,"axG",%progbits,_ZN4asio6detail14do_throw_errorERKSt10error_codePKc,comdat
	.align	2
	.weak	_ZN4asio6detail14do_throw_errorERKSt10error_codePKc
	.syntax unified
	.arm
	.fpu vfp
	.type	_ZN4asio6detail14do_throw_errorERKSt10error_codePKc, %function
_ZN4asio6detail14do_throw_errorERKSt10error_codePKc:
	.fnstart
.LFB2072:
	@ args = 0, pretend = 0, frame = 16
	@ frame_needed = 0, uses_anonymous_args = 0
	push	{r4, lr}
	.save {r4, lr}
	.pad #16
	sub	sp, sp, #16
	mov	r3, r1
	ldm	r0, {r1, r2}
	mov	r0, sp
.LEHB39:
	bl	_ZNSt12system_errorC1ESt10error_codePKc(PLT)
.LEHE39:
	mov	r0, sp
	mov	r4, sp
.LEHB40:
	bl	_ZN4asio6detail15throw_exceptionISt12system_errorEEvRKT_(PLT)
.LEHE40:
.L1395:
	mov	r0, r4
	bl	_ZNSt12system_errorD1Ev(PLT)
.LEHB41:
	bl	__cxa_end_cleanup(PLT)
.LEHE41:
	.personality	__gxx_personality_v0
	.handlerdata
.LLSDA2072:
	.byte	0xff
	.byte	0xff
	.byte	0x1
	.uleb128 .LLSDACSE2072-.LLSDACSB2072
.LLSDACSB2072:
	.uleb128 .LEHB39-.LFB2072
	.uleb128 .LEHE39-.LEHB39
	.uleb128 0
	.uleb128 0
	.uleb128 .LEHB40-.LFB2072
	.uleb128 .LEHE40-.LEHB40
	.uleb128 .L1395-.LFB2072
	.uleb128 0
	.uleb128 .LEHB41-.LFB2072
	.uleb128 .LEHE41-.LEHB41
	.uleb128 0
	.uleb128 0
.LLSDACSE2072:
	.section	.text._ZN4asio6detail14do_throw_errorERKSt10error_codePKc,"axG",%progbits,_ZN4asio6detail14do_throw_errorERKSt10error_codePKc,comdat
	.fnend
	.size	_ZN4asio6detail14do_throw_errorERKSt10error_codePKc, .-_ZN4asio6detail14do_throw_errorERKSt10error_codePKc
	.section	.text._ZN4asio6detail26eventfd_select_interrupter16open_descriptorsEv,"axG",%progbits,_ZN4asio6detail26eventfd_select_interrupter16open_descriptorsEv,comdat
	.align	2
	.weak	_ZN4asio6detail26eventfd_select_interrupter16open_descriptorsEv
	.syntax unified
	.arm
	.fpu vfp
	.type	_ZN4asio6detail26eventfd_select_interrupter16open_descriptorsEv, %function
_ZN4asio6detail26eventfd_select_interrupter16open_descriptorsEv:
	.fnstart
.LFB3006:
	@ args = 0, pretend = 0, frame = 16
	@ frame_needed = 0, uses_anonymous_args = 0
	push	{r4, r5, lr}
	.save {r4, r5, lr}
	mov	r4, r0
	.pad #20
	sub	sp, sp, #20
	ldr	r1, .L1422
	mov	r0, #0
	bl	eventfd(PLT)
	cmn	r0, #1
	str	r0, [r4]
	str	r0, [r4, #4]
	beq	.L1419
.L1397:
	add	sp, sp, #20
	@ sp needed
	pop	{r4, r5, pc}
.L1419:
	bl	__errno_location(PLT)
	ldr	r3, [r0]
	mov	r5, r0
	cmp	r3, #22
	beq	.L1420
.L1401:
	mov	r0, sp
	bl	pipe(PLT)
	cmp	r0, #0
	bne	.L1421
	ldr	r0, [sp]
	mov	r2, #2048
	str	r0, [r4]
	mov	r1, #4
	bl	fcntl(PLT)
	mov	r2, #1
	mov	r1, #2
	ldr	r0, [r4]
	bl	fcntl(PLT)
	ldr	r0, [sp, #4]
	mov	r2, #2048
	str	r0, [r4, #4]
	mov	r1, #4
	bl	fcntl(PLT)
	ldr	r0, [r4, #4]
	mov	r2, #1
	mov	r1, #2
	bl	fcntl(PLT)
	b	.L1397
.L1421:
	ldr	r4, [r5]
	bl	_ZN4asio15system_categoryEv(PLT)
	cmp	r4, #0
	str	r4, [sp, #8]
	str	r0, [sp, #12]
	beq	.L1397
	ldr	r1, .L1422+4
	add	r0, sp, #8
.LPIC78:
	add	r1, pc, r1
	bl	_ZN4asio6detail14do_throw_errorERKSt10error_codePKc(PLT)
.L1420:
	mov	r1, #0
	mov	r0, r1
	bl	eventfd(PLT)
	cmn	r0, #1
	str	r0, [r4]
	str	r0, [r4, #4]
	beq	.L1401
	mov	r2, #2048
	mov	r1, #4
	bl	fcntl(PLT)
	mov	r2, #1
	mov	r1, #2
	ldr	r0, [r4]
	bl	fcntl(PLT)
	ldr	r3, [r4]
	cmn	r3, #1
	bne	.L1397
	b	.L1401
.L1423:
	.align	2
.L1422:
	.word	526336
	.word	.LC22-(.LPIC78+8)
	.fnend
	.size	_ZN4asio6detail26eventfd_select_interrupter16open_descriptorsEv, .-_ZN4asio6detail26eventfd_select_interrupter16open_descriptorsEv
	.section	.text._ZN4asio6detail13epoll_reactor15do_epoll_createEv,"axG",%progbits,_ZN4asio6detail13epoll_reactor15do_epoll_createEv,comdat
	.align	2
	.weak	_ZN4asio6detail13epoll_reactor15do_epoll_createEv
	.syntax unified
	.arm
	.fpu vfp
	.type	_ZN4asio6detail13epoll_reactor15do_epoll_createEv, %function
_ZN4asio6detail13epoll_reactor15do_epoll_createEv:
	.fnstart
.LFB3063:
	@ args = 0, pretend = 0, frame = 8
	@ frame_needed = 0, uses_anonymous_args = 0
	push	{r4, r5, r6, lr}
	.save {r4, r5, r6, lr}
	mov	r0, #524288
	.pad #8
	sub	sp, sp, #8
	bl	epoll_create1(PLT)
	cmn	r0, #1
	mov	r4, r0
	beq	.L1431
.L1424:
	mov	r0, r4
	add	sp, sp, #8
	@ sp needed
	pop	{r4, r5, r6, pc}
.L1431:
	bl	__errno_location(PLT)
	ldr	r5, [r0]
	mov	r6, r0
	sub	r3, r5, #22
	bics	r3, r3, #16
	beq	.L1432
.L1426:
	bl	_ZN4asio15system_categoryEv(PLT)
	cmp	r5, #0
	str	r5, [sp]
	str	r0, [sp, #4]
	beq	.L1424
	ldr	r1, .L1434
	mov	r0, sp
.LPIC79:
	add	r1, pc, r1
	bl	_ZN4asio6detail14do_throw_errorERKSt10error_codePKc(PLT)
.L1432:
	ldr	r0, .L1434+4
	bl	epoll_create(PLT)
	cmn	r0, #1
	beq	.L1433
	mov	r2, #1
	mov	r1, #2
	mov	r4, r0
	bl	fcntl(PLT)
	b	.L1424
.L1433:
	ldr	r5, [r6]
	b	.L1426
.L1435:
	.align	2
.L1434:
	.word	.LC23-(.LPIC79+8)
	.word	20000
	.fnend
	.size	_ZN4asio6detail13epoll_reactor15do_epoll_createEv, .-_ZN4asio6detail13epoll_reactor15do_epoll_createEv
	.section	.text._ZN4asio6detail13epoll_reactor12fork_serviceENS_10io_service10fork_eventE,"axG",%progbits,_ZN4asio6detail13epoll_reactor12fork_serviceENS_10io_service10fork_eventE,comdat
	.align	2
	.weak	_ZN4asio6detail13epoll_reactor12fork_serviceENS_10io_service10fork_eventE
	.syntax unified
	.arm
	.fpu vfp
	.type	_ZN4asio6detail13epoll_reactor12fork_serviceENS_10io_service10fork_eventE, %function
_ZN4asio6detail13epoll_reactor12fork_serviceENS_10io_service10fork_eventE:
	.fnstart
.LFB3052:
	@ args = 0, pretend = 0, frame = 48
	@ frame_needed = 0, uses_anonymous_args = 0
	cmp	r1, #2
	bxne	lr
	push	{r4, r5, r6, r7, r8, r9, r10, lr}
	.save {r4, r5, r6, r7, r8, r9, r10, lr}
	mov	r5, r0
	ldr	r0, [r0, #56]
	.pad #48
	sub	sp, sp, #48
	cmn	r0, #1
	beq	.L1438
.LEHB42:
	bl	close(PLT)
.L1438:
	mvn	r3, #0
	str	r3, [r5, #56]
	bl	_ZN4asio6detail13epoll_reactor15do_epoll_createEv(PLT)
	ldr	r3, [r5, #60]
	cmn	r3, #1
	str	r0, [r5, #56]
	beq	.L1439
	mov	r0, r3
	bl	close(PLT)
.L1439:
	mvn	r3, #0
	str	r3, [r5, #60]
	mov	r1, #524288
	mov	r0, #1
	bl	timerfd_create(PLT)
	cmn	r0, #1
	mov	r4, r0
	beq	.L1493
.L1440:
	ldr	r3, [r5, #52]
	str	r4, [r5, #60]
	cmn	r3, #1
	add	r4, r5, #48
	beq	.L1441
	ldr	r0, [r5, #48]
	cmp	r3, r0
	beq	.L1442
	mov	r0, r3
	bl	close(PLT)
.L1441:
	ldr	r0, [r5, #48]
	cmn	r0, #1
	beq	.L1443
.L1442:
	bl	close(PLT)
.L1443:
	mvn	r3, #0
	str	r3, [r5, #52]
	str	r3, [r5, #48]
	mov	r0, r4
	bl	_ZN4asio6detail26eventfd_select_interrupter16open_descriptorsEv(PLT)
	mov	r8, #0
	mov	ip, #-2147483639
	mov	r3, sp
	ldr	r2, [r5, #48]
	mov	r1, #1
	ldr	r0, [r5, #56]
	str	ip, [sp]
	add	r7, sp, #48
	str	r4, [sp, #8]
	str	r8, [sp, #4]
	str	r8, [sp, #12]
	bl	epoll_ctl(PLT)
	mov	r2, #1
	mov	r3, #0
	ldr	r0, [r5, #52]
	strd	r2, [r7, #-16]!
	mov	r2, #8
	mov	r1, r7
	bl	write(PLT)
	ldr	r2, [r5, #60]
	mov	r6, sp
	cmn	r2, #1
	beq	.L1444
	mov	r0, #9
	add	ip, r5, #60
	str	r0, [sp]
	mov	r3, sp
	mov	r1, #1
	ldr	r0, [r5, #56]
	str	ip, [sp, #8]
	bl	epoll_ctl(PLT)
	ldr	r0, [r5, #60]
	cmn	r0, #1
	beq	.L1444
	ldr	r4, [r5, #64]
	str	r8, [sp, #16]
	cmp	r4, r8
	str	r8, [sp, #20]
	beq	.L1445
	ldr	r1, .L1495
.L1446:
	ldr	r3, [r4]
	mov	r0, r4
	ldr	r3, [r3, #16]
	blx	r3
.LEHE42:
	ldr	r4, [r4, #4]
	cmp	r4, #0
	mov	r1, r0
	bne	.L1446
	ldr	r2, .L1495+4
	asr	r3, r0, #31
	cmp	r0, #0
	smull	r0, r2, r2, r1
	rsb	r3, r3, r2, asr #18
	str	r3, [sp, #24]
	beq	.L1494
	ldr	r2, .L1495+8
	mov	r4, #1000
	ldr	r0, [r5, #60]
	mul	r3, r2, r3
	sub	r1, r1, r3
	mul	r4, r4, r1
.L1456:
	mov	r1, #0
.L1448:
	mov	r3, r7
	add	r2, sp, #16
	str	r4, [sp, #28]
	bl	timerfd_settime(PLT)
.L1449:
	add	r10, r5, #72
	mov	r0, r10
	bl	pthread_mutex_lock(PLT)
	ldr	r4, [r5, #96]
	cmp	r4, #0
	movne	r8, #1
	bne	.L1454
	b	.L1453
.L1451:
	ldr	r4, [r4, #12]
	cmp	r4, #0
	beq	.L1453
.L1454:
	ldr	ip, [r4, #52]
	mov	r3, r6
	ldr	r2, [r4, #48]
	mov	r1, r8
	ldr	r0, [r5, #56]
	str	r4, [sp, #8]
	str	ip, [sp]
	bl	epoll_ctl(PLT)
	cmp	r0, #0
	beq	.L1451
	bl	__errno_location(PLT)
	ldr	r9, [r0]
	bl	_ZN4asio15system_categoryEv(PLT)
	cmp	r9, #0
	str	r9, [sp, #32]
	str	r0, [sp, #36]
	beq	.L1451
	ldr	r1, .L1495+12
	mov	r0, r7
.LPIC80:
	add	r1, pc, r1
.LEHB43:
	bl	_ZN4asio6detail14do_throw_errorERKSt10error_codePKc(PLT)
.LEHE43:
.L1444:
	mov	r0, #0
	mov	ip, #-2147483639
	str	r0, [r7, #4]
	str	r0, [r7, #12]
	mov	r3, r7
	ldr	r2, [r5, #48]
	mov	r1, #3
	ldr	r0, [r5, #56]
	str	r4, [sp, #40]
	str	ip, [sp, #32]
	bl	epoll_ctl(PLT)
	b	.L1449
.L1453:
	mov	r0, r10
	bl	pthread_mutex_unlock(PLT)
	add	sp, sp, #48
	@ sp needed
	pop	{r4, r5, r6, r7, r8, r9, r10, pc}
.L1493:
	bl	__errno_location(PLT)
	ldr	r3, [r0]
	cmp	r3, #22
	bne	.L1440
	mov	r1, #0
	mov	r0, #1
	bl	timerfd_create(PLT)
	cmn	r0, #1
	mov	r4, r0
	beq	.L1440
	mov	r2, #1
	mov	r1, #2
.LEHB44:
	bl	fcntl(PLT)
	b	.L1440
.L1494:
	mov	r1, #1
	mov	r4, r1
	ldr	r0, [r5, #60]
	b	.L1448
.L1457:
	mov	r0, r10
	bl	pthread_mutex_unlock(PLT)
	bl	__cxa_end_cleanup(PLT)
.LEHE44:
.L1445:
	mov	r3, #300
	str	r3, [sp, #24]
	b	.L1456
.L1496:
	.align	2
.L1495:
	.word	300000000
	.word	1125899907
	.word	1000000
	.word	.LC24-(.LPIC80+8)
	.personality	__gxx_personality_v0
	.handlerdata
.LLSDA3052:
	.byte	0xff
	.byte	0xff
	.byte	0x1
	.uleb128 .LLSDACSE3052-.LLSDACSB3052
.LLSDACSB3052:
	.uleb128 .LEHB42-.LFB3052
	.uleb128 .LEHE42-.LEHB42
	.uleb128 0
	.uleb128 0
	.uleb128 .LEHB43-.LFB3052
	.uleb128 .LEHE43-.LEHB43
	.uleb128 .L1457-.LFB3052
	.uleb128 0
	.uleb128 .LEHB44-.LFB3052
	.uleb128 .LEHE44-.LEHB44
	.uleb128 0
	.uleb128 0
.LLSDACSE3052:
	.section	.text._ZN4asio6detail13epoll_reactor12fork_serviceENS_10io_service10fork_eventE,"axG",%progbits,_ZN4asio6detail13epoll_reactor12fork_serviceENS_10io_service10fork_eventE,comdat
	.fnend
	.size	_ZN4asio6detail13epoll_reactor12fork_serviceENS_10io_service10fork_eventE, .-_ZN4asio6detail13epoll_reactor12fork_serviceENS_10io_service10fork_eventE
	.section	.text._ZN4asio6detail20posix_tss_ptr_createERj,"axG",%progbits,_ZN4asio6detail20posix_tss_ptr_createERj,comdat
	.align	2
	.weak	_ZN4asio6detail20posix_tss_ptr_createERj
	.syntax unified
	.arm
	.fpu vfp
	.type	_ZN4asio6detail20posix_tss_ptr_createERj, %function
_ZN4asio6detail20posix_tss_ptr_createERj:
	.fnstart
.LFB2096:
	@ args = 0, pretend = 0, frame = 8
	@ frame_needed = 0, uses_anonymous_args = 0
	push	{r4, lr}
	.save {r4, lr}
	mov	r1, #0
	.pad #8
	sub	sp, sp, #8
	bl	pthread_key_create(PLT)
	mov	r4, r0
	bl	_ZN4asio15system_categoryEv(PLT)
	cmp	r4, #0
	str	r4, [sp]
	str	r0, [sp, #4]
	bne	.L1500
	add	sp, sp, #8
	@ sp needed
	pop	{r4, pc}
.L1500:
	ldr	r1, .L1501
	mov	r0, sp
.LPIC81:
	add	r1, pc, r1
	bl	_ZN4asio6detail14do_throw_errorERKSt10error_codePKc(PLT)
.L1502:
	.align	2
.L1501:
	.word	.LC25-(.LPIC81+8)
	.fnend
	.size	_ZN4asio6detail20posix_tss_ptr_createERj, .-_ZN4asio6detail20posix_tss_ptr_createERj
	.section	.text._ZN4asio2ip16resolver_serviceINS0_3tcpEE12fork_serviceENS_10io_service10fork_eventE,"axG",%progbits,_ZN4asio2ip16resolver_serviceINS0_3tcpEE12fork_serviceENS_10io_service10fork_eventE,comdat
	.align	2
	.weak	_ZN4asio2ip16resolver_serviceINS0_3tcpEE12fork_serviceENS_10io_service10fork_eventE
	.syntax unified
	.arm
	.fpu vfp
	.type	_ZN4asio2ip16resolver_serviceINS0_3tcpEE12fork_serviceENS_10io_service10fork_eventE, %function
_ZN4asio2ip16resolver_serviceINS0_3tcpEE12fork_serviceENS_10io_service10fork_eventE:
	.fnstart
.LFB9849:
	@ args = 0, pretend = 0, frame = 16
	@ frame_needed = 0, uses_anonymous_args = 0
	ldr	r3, [r0, #60]
	push	{r4, r5, r6, r7, r8, lr}
	.save {r4, r5, r6, r7, r8, lr}
	cmp	r3, #0
	ldr	r5, .L1524
	.pad #16
	sub	sp, sp, #16
.LPIC82:
	add	r5, pc, r5
	beq	.L1503
	cmp	r1, #0
	mov	r4, r0
	ldr	r3, [r0, #48]
	beq	.L1521
	ldr	r6, [r3, #4]
	mov	r7, #0
	add	r8, r6, #24
	mov	r0, r8
	bl	pthread_mutex_lock(PLT)
	mov	r0, r8
	strb	r7, [r6, #136]
	bl	pthread_mutex_unlock(PLT)
	mov	r0, #8
	ldr	r8, [r4, #48]
.LEHB45:
	bl	_Znwj(PLT)
.LEHE45:
	mov	r6, r0
	mov	r0, #8
	strb	r7, [r6, #4]
.LEHB46:
	bl	_Znwj(PLT)
.LEHE46:
	ldr	r1, .L1524+4
	ldr	r2, .L1524+8
	mov	r3, r0
	ldr	r1, [r5, r1]
	mov	r7, r0
	add	r1, r1, #8
	str	r1, [r0]
	str	r8, [r0, #4]
	mov	r1, #0
	ldr	r2, [r5, r2]
	mov	r0, r6
	bl	pthread_create(PLT)
	subs	r5, r0, #0
	bne	.L1522
	ldr	r5, [r4, #60]
	cmp	r5, #0
	beq	.L1510
	ldrb	r3, [r5, #4]	@ zero_extendqisi2
	cmp	r3, #0
	beq	.L1523
.L1512:
	mov	r0, r5
	mov	r1, #8
	bl	_ZdlPvj(PLT)
.L1510:
	str	r6, [r4, #60]
.L1503:
	add	sp, sp, #16
	@ sp needed
	pop	{r4, r5, r6, r7, r8, pc}
.L1521:
	ldr	r5, [r3, #4]
	mov	r7, #1
	add	r6, r5, #24
	mov	r0, r6
	bl	pthread_mutex_lock(PLT)
	ldr	r3, [r5, #96]
	strb	r7, [r5, #136]
	orr	r3, r3, r7
	str	r3, [r5, #96]
	add	r0, r5, #48
	bl	pthread_cond_broadcast(PLT)
	ldrb	r2, [r5, #120]	@ zero_extendqisi2
	cmp	r2, #0
	bne	.L1506
	ldr	r0, [r5, #104]
	cmp	r0, #0
	beq	.L1506
	add	r1, r0, #48
	mov	ip, #-2147483639
	strb	r7, [r5, #120]
	mov	r3, sp
	str	r1, [sp, #8]
	str	r2, [sp, #4]
	str	r2, [sp, #12]
	str	ip, [sp]
	mov	r1, #3
	ldr	r2, [r0, #48]
	ldr	r0, [r0, #56]
	bl	epoll_ctl(PLT)
.L1506:
	mov	r0, r6
	bl	pthread_mutex_unlock(PLT)
	ldr	r4, [r4, #60]
	ldrb	r1, [r4, #4]	@ zero_extendqisi2
	cmp	r1, #0
	bne	.L1503
	ldr	r0, [r4]
.LEHB47:
	bl	pthread_join(PLT)
.LEHE47:
	mov	r3, #1
	strb	r3, [r4, #4]
	add	sp, sp, #16
	@ sp needed
	pop	{r4, r5, r6, r7, r8, pc}
.L1523:
	ldr	r0, [r5]
	bl	pthread_detach(PLT)
	b	.L1512
.L1522:
	mov	r0, r7
	bl	_ZN4asio6detail12posix_thread4funcINS0_21resolver_service_base22work_io_service_runnerEED0Ev(PLT)
	bl	_ZN4asio15system_categoryEv(PLT)
	ldr	r1, .L1524+12
	str	r5, [sp]
.LPIC83:
	add	r1, pc, r1
	str	r0, [sp, #4]
	mov	r0, sp
.LEHB48:
	bl	_ZN4asio6detail14do_throw_errorERKSt10error_codePKc(PLT)
.LEHE48:
.L1513:
	mov	r0, r6
	mov	r1, #8
	bl	_ZdlPvj(PLT)
.LEHB49:
	bl	__cxa_end_cleanup(PLT)
.LEHE49:
.L1525:
	.align	2
.L1524:
	.word	_GLOBAL_OFFSET_TABLE_-(.LPIC82+8)
	.word	_ZTVN4asio6detail12posix_thread4funcINS0_21resolver_service_base22work_io_service_runnerEEE(GOT)
	.word	asio_detail_posix_thread_function(GOT)
	.word	.LC26-(.LPIC83+8)
	.personality	__gxx_personality_v0
	.handlerdata
.LLSDA9849:
	.byte	0xff
	.byte	0xff
	.byte	0x1
	.uleb128 .LLSDACSE9849-.LLSDACSB9849
.LLSDACSB9849:
	.uleb128 .LEHB45-.LFB9849
	.uleb128 .LEHE45-.LEHB45
	.uleb128 0
	.uleb128 0
	.uleb128 .LEHB46-.LFB9849
	.uleb128 .LEHE46-.LEHB46
	.uleb128 .L1513-.LFB9849
	.uleb128 0
	.uleb128 .LEHB47-.LFB9849
	.uleb128 .LEHE47-.LEHB47
	.uleb128 0
	.uleb128 0
	.uleb128 .LEHB48-.LFB9849
	.uleb128 .LEHE48-.LEHB48
	.uleb128 .L1513-.LFB9849
	.uleb128 0
	.uleb128 .LEHB49-.LFB9849
	.uleb128 .LEHE49-.LEHB49
	.uleb128 0
	.uleb128 0
.LLSDACSE9849:
	.section	.text._ZN4asio2ip16resolver_serviceINS0_3tcpEE12fork_serviceENS_10io_service10fork_eventE,"axG",%progbits,_ZN4asio2ip16resolver_serviceINS0_3tcpEE12fork_serviceENS_10io_service10fork_eventE,comdat
	.fnend
	.size	_ZN4asio2ip16resolver_serviceINS0_3tcpEE12fork_serviceENS_10io_service10fork_eventE, .-_ZN4asio2ip16resolver_serviceINS0_3tcpEE12fork_serviceENS_10io_service10fork_eventE
	.section	.text._ZN4asio6detail11object_poolINS0_13epoll_reactor16descriptor_stateEED2Ev,"axG",%progbits,_ZN4asio6detail11object_poolINS0_13epoll_reactor16descriptor_stateEED5Ev,comdat
	.align	2
	.weak	_ZN4asio6detail11object_poolINS0_13epoll_reactor16descriptor_stateEED2Ev
	.syntax unified
	.arm
	.fpu vfp
	.type	_ZN4asio6detail11object_poolINS0_13epoll_reactor16descriptor_stateEED2Ev, %function
_ZN4asio6detail11object_poolINS0_13epoll_reactor16descriptor_stateEED2Ev:
	.fnstart
.LFB7168:
	@ args = 0, pretend = 0, frame = 16
	@ frame_needed = 0, uses_anonymous_args = 0
	push	{r4, r5, r6, r7, r8, r9, r10, fp, lr}
	.save {r4, r5, r6, r7, r8, r9, r10, fp, lr}
	.pad #20
	sub	sp, sp, #20
	ldr	r10, [r0]
	str	r0, [sp, #4]
	cmp	r10, #0
	addne	r8, sp, #8
	movne	r5, #0
	beq	.L1565
.L1537:
	ldr	fp, [r10, #12]
	add	r9, r10, #56
	add	r4, r10, #80
.L1532:
	ldr	r1, [r4, #-8]
	cmp	r1, #0
	beq	.L1534
	str	r1, [sp]
	bl	_ZNSt3_V215system_categoryEv(PLT)
	ldr	r1, [sp]
	mov	r7, r0
.L1535:
	ldr	r3, [r1]
	ldr	r6, [r1, #4]
	cmp	r3, #0
	streq	r3, [r4, #-4]
	str	r3, [r4, #-8]
	mov	r3, #0
	str	r5, [r1]
	mov	r0, r3
	str	r5, [sp, #8]
	str	r7, [sp, #12]
	mov	r2, r8
	blx	r6
	ldr	r1, [r4, #-8]
	cmp	r1, #0
	bne	.L1535
.L1534:
	sub	r4, r4, #8
	cmp	r9, r4
	bne	.L1532
	add	r0, r10, #20
	bl	pthread_mutex_destroy(PLT)
	mov	r0, r10
	mov	r1, #84
	bl	_ZdlPvj(PLT)
	subs	r10, fp, #0
	bne	.L1537
	ldr	r3, [sp, #4]
.L1536:
	ldr	r10, [r3, #4]
	cmp	r10, #0
	addne	r8, sp, #8
	movne	r5, #0
	beq	.L1550
.L1544:
	ldr	fp, [r10, #12]
	add	r9, r10, #56
	add	r4, r10, #80
.L1540:
	ldr	r1, [r4, #-8]
	cmp	r1, #0
	beq	.L1542
	str	r1, [sp]
	bl	_ZNSt3_V215system_categoryEv(PLT)
	ldr	r1, [sp]
	mov	r7, r0
.L1543:
	ldr	r3, [r1]
	ldr	r6, [r1, #4]
	cmp	r3, #0
	streq	r3, [r4, #-4]
	str	r3, [r4, #-8]
	mov	r3, #0
	str	r5, [r1]
	mov	r0, r3
	str	r5, [sp, #8]
	str	r7, [sp, #12]
	mov	r2, r8
	blx	r6
	ldr	r1, [r4, #-8]
	cmp	r1, #0
	bne	.L1543
.L1542:
	sub	r4, r4, #8
	cmp	r9, r4
	bne	.L1540
	add	r0, r10, #20
	bl	pthread_mutex_destroy(PLT)
	mov	r0, r10
	mov	r1, #84
	bl	_ZdlPvj(PLT)
	subs	r10, fp, #0
	bne	.L1544
.L1550:
	ldr	r0, [sp, #4]
	add	sp, sp, #20
	@ sp needed
	pop	{r4, r5, r6, r7, r8, r9, r10, fp, pc}
.L1565:
	mov	r3, r0
	b	.L1536
	.personality	__gxx_personality_v0
	.handlerdata
.LLSDA7168:
	.byte	0xff
	.byte	0xff
	.byte	0x1
	.uleb128 .LLSDACSE7168-.LLSDACSB7168
.LLSDACSB7168:
.LLSDACSE7168:
	.section	.text._ZN4asio6detail11object_poolINS0_13epoll_reactor16descriptor_stateEED2Ev,"axG",%progbits,_ZN4asio6detail11object_poolINS0_13epoll_reactor16descriptor_stateEED5Ev,comdat
	.fnend
	.size	_ZN4asio6detail11object_poolINS0_13epoll_reactor16descriptor_stateEED2Ev, .-_ZN4asio6detail11object_poolINS0_13epoll_reactor16descriptor_stateEED2Ev
	.weak	_ZN4asio6detail11object_poolINS0_13epoll_reactor16descriptor_stateEED1Ev
	.set	_ZN4asio6detail11object_poolINS0_13epoll_reactor16descriptor_stateEED1Ev,_ZN4asio6detail11object_poolINS0_13epoll_reactor16descriptor_stateEED2Ev
	.section	.text._ZN4asio6detail16service_registry6createINS0_13epoll_reactorEEEPNS_10io_service7serviceERS4_,"axG",%progbits,_ZN4asio6detail16service_registry6createINS0_13epoll_reactorEEEPNS_10io_service7serviceERS4_,comdat
	.align	2
	.weak	_ZN4asio6detail16service_registry6createINS0_13epoll_reactorEEEPNS_10io_service7serviceERS4_
	.syntax unified
	.arm
	.fpu vfp
	.type	_ZN4asio6detail16service_registry6createINS0_13epoll_reactorEEEPNS_10io_service7serviceERS4_, %function
_ZN4asio6detail16service_registry6createINS0_13epoll_reactorEEEPNS_10io_service7serviceERS4_:
	.fnstart
.LFB8224:
	@ args = 0, pretend = 0, frame = 56
	@ frame_needed = 0, uses_anonymous_args = 0
	push	{r4, r5, r6, r7, r8, r9, lr}
	.save {r4, r5, r6, r7, r8, r9, lr}
	mov	r6, r0
	.pad #60
	sub	sp, sp, #60
	mov	r0, #104
.LEHB50:
	bl	_Znwj(PLT)
.LEHE50:
	ldr	r5, .L1636
	ldr	r3, .L1636+4
.LPIC84:
	add	r5, pc, r5
	mov	r1, #0
	ldr	r2, [r6, #4]
	str	r6, [r0, #12]
	str	r1, [r0, #4]
	str	r1, [r0, #8]
	str	r1, [r0, #16]
	ldr	r3, [r5, r3]
	mov	r4, r0
	add	r7, r0, #24
	add	r3, r3, #8
	mov	r0, r7
	str	r2, [r4, #20]
	str	r3, [r4]
	bl	pthread_mutex_init(PLT)
	mov	r6, r0
	bl	_ZN4asio15system_categoryEv(PLT)
	cmp	r6, #0
	str	r6, [sp, #8]
	str	r0, [sp, #12]
	bne	.L1627
	ldr	r1, .L1636+8
	mov	r0, r6
	bl	eventfd(PLT)
	add	r9, r4, #48
	cmn	r0, #1
	str	r0, [r4, #48]
	str	r0, [r4, #52]
	beq	.L1628
.L1569:
	mov	r0, #524288
	bl	epoll_create1(PLT)
	cmn	r0, #1
	mov	r5, r0
	beq	.L1629
.L1575:
	mov	r1, #524288
	mov	r0, #1
	str	r5, [r4, #56]
	bl	timerfd_create(PLT)
	cmn	r0, #1
	mov	r5, r0
	beq	.L1630
.L1578:
	mov	r3, #0
	add	r8, r4, #72
	mov	r1, r3
	mov	r0, r8
	str	r5, [r4, #60]
	str	r3, [r4, #64]
	strb	r3, [r4, #68]
	bl	pthread_mutex_init(PLT)
	mov	r5, r0
	bl	_ZN4asio15system_categoryEv(PLT)
	cmp	r5, #0
	str	r5, [sp, #40]
	str	r0, [sp, #44]
	bne	.L1631
	add	r6, sp, #40
	mov	r3, r6
	mov	ip, #-2147483639
	ldr	r2, [r4, #48]
	mov	r1, #1
	ldr	r0, [r4, #56]
	str	r5, [r4, #96]
	str	r5, [r4, #100]
	str	r9, [sp, #48]
	str	r5, [r6, #4]
	str	r5, [r6, #12]
	str	ip, [sp, #40]
	bl	epoll_ctl(PLT)
	mov	r2, #1
	mov	r3, #0
	add	r1, sp, #56
	ldr	r0, [r4, #52]
	strd	r2, [r1, #-56]!
	mov	r2, #8
.LEHB51:
	bl	write(PLT)
.LEHE51:
	ldr	r2, [r4, #60]
	cmn	r2, #1
	beq	.L1606
	mov	lr, #9
	add	ip, r4, #60
	mov	r3, r6
	mov	r1, #1
	ldr	r0, [r4, #56]
	str	lr, [sp, #40]
	str	ip, [sp, #48]
	bl	epoll_ctl(PLT)
.L1606:
	mov	r0, r4
	add	sp, sp, #60
	@ sp needed
	pop	{r4, r5, r6, r7, r8, r9, pc}
.L1630:
	bl	__errno_location(PLT)
	ldr	r3, [r0]
	cmp	r3, #22
	bne	.L1578
	mov	r1, #0
	mov	r0, #1
	bl	timerfd_create(PLT)
	cmn	r0, #1
	mov	r6, r0
	beq	.L1578
	mov	r2, #1
	mov	r1, #2
.LEHB52:
	bl	fcntl(PLT)
	mov	r5, r6
	b	.L1578
.L1629:
	bl	__errno_location(PLT)
	ldr	r6, [r0]
	mov	r8, r0
	sub	r3, r6, #22
	bics	r3, r3, #16
	beq	.L1632
.L1576:
	bl	_ZN4asio15system_categoryEv(PLT)
	cmp	r6, #0
	str	r6, [sp, #32]
	str	r0, [sp, #36]
	beq	.L1575
	ldr	r1, .L1636+12
	add	r0, sp, #32
.LPIC87:
	add	r1, pc, r1
	bl	_ZN4asio6detail14do_throw_errorERKSt10error_codePKc(PLT)
.LEHE52:
.L1628:
	bl	__errno_location(PLT)
	ldr	r3, [r0]
	mov	r5, r0
	cmp	r3, #22
	beq	.L1633
.L1571:
	add	r0, sp, #16
	bl	pipe(PLT)
	cmp	r0, #0
	bne	.L1634
	ldr	r3, [sp, #16]
	mov	r2, #2048
	mov	r0, r3
	mov	r1, #4
	str	r3, [r4, #48]
.LEHB53:
	bl	fcntl(PLT)
	mov	r2, #1
	mov	r1, #2
	ldr	r0, [r4, #48]
	bl	fcntl(PLT)
	ldr	r3, [sp, #20]
	mov	r2, #2048
	mov	r0, r3
	mov	r1, #4
	str	r3, [r4, #52]
	bl	fcntl(PLT)
	mov	r2, #1
	mov	r1, #2
	ldr	r0, [r4, #52]
	bl	fcntl(PLT)
	b	.L1569
.L1634:
	ldr	r5, [r5]
	bl	_ZN4asio15system_categoryEv(PLT)
	cmp	r5, #0
	str	r5, [sp, #24]
	str	r0, [sp, #28]
	beq	.L1569
	ldr	r1, .L1636+16
	add	r0, sp, #24
.LPIC86:
	add	r1, pc, r1
	bl	_ZN4asio6detail14do_throw_errorERKSt10error_codePKc(PLT)
.LEHE53:
.L1632:
	ldr	r0, .L1636+20
	bl	epoll_create(PLT)
	cmn	r0, #1
	mov	r6, r0
	beq	.L1635
	mov	r2, #1
	mov	r1, #2
.LEHB54:
	bl	fcntl(PLT)
.LEHE54:
	mov	r5, r6
	b	.L1575
.L1635:
	ldr	r6, [r8]
	b	.L1576
.L1597:
.L1584:
	ldr	r0, [r4, #52]
	cmn	r0, #1
	beq	.L1585
	ldr	r3, [r4, #48]
	cmp	r0, r3
	beq	.L1586
	bl	close(PLT)
.L1585:
	ldr	r3, [r4, #48]
	cmn	r3, #1
	beq	.L1588
.L1586:
	mov	r0, r3
	bl	close(PLT)
.L1588:
	mov	r0, r7
	bl	pthread_mutex_destroy(PLT)
.L1589:
	mov	r0, r4
	mov	r1, #104
	bl	_ZdlPvj(PLT)
.LEHB55:
	bl	__cxa_end_cleanup(PLT)
.LEHE55:
.L1633:
	mov	r1, r6
	mov	r0, r6
	bl	eventfd(PLT)
	cmn	r0, #1
	str	r0, [r4, #48]
	str	r0, [r4, #52]
	beq	.L1571
	mov	r2, #2048
	mov	r1, #4
.LEHB56:
	bl	fcntl(PLT)
	mov	r2, #1
	mov	r1, #2
	ldr	r0, [r4, #48]
	bl	fcntl(PLT)
.LEHE56:
	ldr	r3, [r4, #48]
	cmn	r3, #1
	bne	.L1569
	b	.L1571
.L1627:
	ldr	r1, .L1636+24
	add	r0, sp, #8
.LPIC85:
	add	r1, pc, r1
.LEHB57:
	bl	_ZN4asio6detail14do_throw_errorERKSt10error_codePKc(PLT)
.LEHE57:
.L1595:
	b	.L1589
.L1631:
	ldr	r1, .L1636+28
	add	r0, sp, #40
.LPIC88:
	add	r1, pc, r1
.LEHB58:
	bl	_ZN4asio6detail14do_throw_errorERKSt10error_codePKc(PLT)
.LEHE58:
.L1596:
	b	.L1588
.L1598:
	add	r0, r4, #96
	bl	_ZN4asio6detail11object_poolINS0_13epoll_reactor16descriptor_stateEED1Ev(PLT)
	mov	r0, r8
	bl	pthread_mutex_destroy(PLT)
	b	.L1584
.L1637:
	.align	2
.L1636:
	.word	_GLOBAL_OFFSET_TABLE_-(.LPIC84+8)
	.word	_ZTVN4asio6detail13epoll_reactorE(GOT)
	.word	526336
	.word	.LC23-(.LPIC87+8)
	.word	.LC22-(.LPIC86+8)
	.word	20000
	.word	.LC27-(.LPIC85+8)
	.word	.LC27-(.LPIC88+8)
	.personality	__gxx_personality_v0
	.handlerdata
.LLSDA8224:
	.byte	0xff
	.byte	0xff
	.byte	0x1
	.uleb128 .LLSDACSE8224-.LLSDACSB8224
.LLSDACSB8224:
	.uleb128 .LEHB50-.LFB8224
	.uleb128 .LEHE50-.LEHB50
	.uleb128 0
	.uleb128 0
	.uleb128 .LEHB51-.LFB8224
	.uleb128 .LEHE51-.LEHB51
	.uleb128 .L1598-.LFB8224
	.uleb128 0
	.uleb128 .LEHB52-.LFB8224
	.uleb128 .LEHE52-.LEHB52
	.uleb128 .L1597-.LFB8224
	.uleb128 0
	.uleb128 .LEHB53-.LFB8224
	.uleb128 .LEHE53-.LEHB53
	.uleb128 .L1596-.LFB8224
	.uleb128 0
	.uleb128 .LEHB54-.LFB8224
	.uleb128 .LEHE54-.LEHB54
	.uleb128 .L1597-.LFB8224
	.uleb128 0
	.uleb128 .LEHB55-.LFB8224
	.uleb128 .LEHE55-.LEHB55
	.uleb128 0
	.uleb128 0
	.uleb128 .LEHB56-.LFB8224
	.uleb128 .LEHE56-.LEHB56
	.uleb128 .L1596-.LFB8224
	.uleb128 0
	.uleb128 .LEHB57-.LFB8224
	.uleb128 .LEHE57-.LEHB57
	.uleb128 .L1595-.LFB8224
	.uleb128 0
	.uleb128 .LEHB58-.LFB8224
	.uleb128 .LEHE58-.LEHB58
	.uleb128 .L1597-.LFB8224
	.uleb128 0
.LLSDACSE8224:
	.section	.text._ZN4asio6detail16service_registry6createINS0_13epoll_reactorEEEPNS_10io_service7serviceERS4_,"axG",%progbits,_ZN4asio6detail16service_registry6createINS0_13epoll_reactorEEEPNS_10io_service7serviceERS4_,comdat
	.fnend
	.size	_ZN4asio6detail16service_registry6createINS0_13epoll_reactorEEEPNS_10io_service7serviceERS4_, .-_ZN4asio6detail16service_registry6createINS0_13epoll_reactorEEEPNS_10io_service7serviceERS4_
	.section	.text._ZN4asio6detail8op_queueINS0_25task_io_service_operationEED2Ev,"axG",%progbits,_ZN4asio6detail8op_queueINS0_25task_io_service_operationEED5Ev,comdat
	.align	2
	.weak	_ZN4asio6detail8op_queueINS0_25task_io_service_operationEED2Ev
	.syntax unified
	.arm
	.fpu vfp
	.type	_ZN4asio6detail8op_queueINS0_25task_io_service_operationEED2Ev, %function
_ZN4asio6detail8op_queueINS0_25task_io_service_operationEED2Ev:
	.fnstart
.LFB7174:
	@ args = 0, pretend = 0, frame = 16
	@ frame_needed = 0, uses_anonymous_args = 0
	ldr	r1, [r0]
	push	{r4, r5, r6, r7, r8, lr}
	.save {r4, r5, r6, r7, r8, lr}
	.pad #16
	sub	sp, sp, #16
	cmp	r1, #0
	mov	r4, r0
	str	r1, [sp, #4]
	beq	.L1644
	bl	_ZNSt3_V215system_categoryEv(PLT)
	ldr	r1, [sp, #4]
	add	r7, sp, #8
	mov	r5, #0
	mov	r8, r0
.L1642:
	ldr	r3, [r1]
	ldr	r6, [r1, #4]
	cmp	r3, #0
	streq	r3, [r4, #4]
	str	r3, [r4]
	mov	r3, #0
	str	r5, [r1]
	mov	r0, r3
	str	r5, [sp, #8]
	str	r8, [sp, #12]
	mov	r2, r7
	blx	r6
	ldr	r1, [r4]
	cmp	r1, #0
	bne	.L1642
.L1644:
	mov	r0, r4
	add	sp, sp, #16
	@ sp needed
	pop	{r4, r5, r6, r7, r8, pc}
	.personality	__gxx_personality_v0
	.handlerdata
.LLSDA7174:
	.byte	0xff
	.byte	0xff
	.byte	0x1
	.uleb128 .LLSDACSE7174-.LLSDACSB7174
.LLSDACSB7174:
.LLSDACSE7174:
	.section	.text._ZN4asio6detail8op_queueINS0_25task_io_service_operationEED2Ev,"axG",%progbits,_ZN4asio6detail8op_queueINS0_25task_io_service_operationEED5Ev,comdat
	.fnend
	.size	_ZN4asio6detail8op_queueINS0_25task_io_service_operationEED2Ev, .-_ZN4asio6detail8op_queueINS0_25task_io_service_operationEED2Ev
	.weak	_ZN4asio6detail8op_queueINS0_25task_io_service_operationEED1Ev
	.set	_ZN4asio6detail8op_queueINS0_25task_io_service_operationEED1Ev,_ZN4asio6detail8op_queueINS0_25task_io_service_operationEED2Ev
	.section	.text._ZN4asio6detail13epoll_reactor16shutdown_serviceEv,"axG",%progbits,_ZN4asio6detail13epoll_reactor16shutdown_serviceEv,comdat
	.align	2
	.weak	_ZN4asio6detail13epoll_reactor16shutdown_serviceEv
	.syntax unified
	.arm
	.fpu vfp
	.type	_ZN4asio6detail13epoll_reactor16shutdown_serviceEv, %function
_ZN4asio6detail13epoll_reactor16shutdown_serviceEv:
	.fnstart
.LFB3051:
	@ args = 0, pretend = 0, frame = 24
	@ frame_needed = 0, uses_anonymous_args = 0
	push	{r4, r5, r6, r7, r8, r9, lr}
	.save {r4, r5, r6, r7, r8, r9, lr}
	mov	r4, r0
	add	r5, r0, #24
	.pad #28
	sub	sp, sp, #28
	mov	r0, r5
	mov	r6, #1
	bl	pthread_mutex_lock(PLT)
	mov	r0, r5
	strb	r6, [r4, #68]
	bl	pthread_mutex_unlock(PLT)
	ldr	r3, [r4, #96]
	mov	ip, #0
	cmp	r3, ip
	str	ip, [sp, #8]
	str	ip, [sp, #12]
	beq	.L1665
	mov	r0, r6
	mov	r2, ip
	mov	r5, ip
	mov	r6, ip
	mov	r1, ip
.L1649:
	ldr	lr, [r3, #56]
	cmp	lr, #0
	beq	.L1652
	cmp	r2, #0
	moveq	r6, lr
	moveq	r5, r0
	mov	ip, r0
	strne	lr, [r2]
	ldr	r2, [r3, #60]
	str	r1, [r3, #56]
	str	r1, [r3, #60]
.L1652:
	ldr	lr, [r3, #64]
	cmp	lr, #0
	beq	.L1655
	cmp	r2, #0
	moveq	r6, lr
	moveq	r5, r0
	mov	ip, r0
	strne	lr, [r2]
	ldr	r2, [r3, #68]
	str	r1, [r3, #64]
	str	r1, [r3, #68]
.L1655:
	ldr	lr, [r3, #72]
	cmp	lr, #0
	beq	.L1658
	cmp	r2, #0
	moveq	r6, lr
	moveq	r5, r0
	mov	ip, r0
	strne	lr, [r2]
	ldr	r2, [r3, #76]
	str	r1, [r3, #72]
	str	r1, [r3, #76]
.L1658:
	ldr	lr, [r3, #12]
	strb	r0, [r3, #80]
	str	lr, [r4, #96]
	ldr	lr, [r3, #16]
	cmp	lr, #0
	ldrne	r7, [r3, #12]
	strne	r7, [lr, #12]
	ldr	lr, [r3, #12]
	cmp	lr, #0
	ldrne	r7, [r3, #16]
	strne	r7, [lr, #16]
	ldr	lr, [r4, #100]
	str	r1, [r3, #16]
	str	lr, [r3, #12]
	str	r3, [r4, #100]
	ldr	r3, [r4, #96]
	cmp	r3, #0
	bne	.L1649
	cmp	r5, #0
	strne	r6, [sp, #8]
	cmp	ip, #0
	strne	r2, [sp, #12]
.L1665:
	ldr	r4, [r4, #64]
	cmp	r4, #0
	addne	r5, sp, #8
	beq	.L1650
.L1668:
	ldr	r3, [r4]
	mov	r1, r5
	mov	r0, r4
	ldr	r3, [r3, #24]
.LEHB59:
	blx	r3
.LEHE59:
	ldr	r4, [r4, #4]
	cmp	r4, #0
	bne	.L1668
.L1650:
	ldr	r4, [sp, #8]
	cmp	r4, #0
	beq	.L1648
	mov	r6, #0
	str	r6, [sp, #8]
	str	r6, [sp, #12]
	bl	_ZNSt3_V215system_categoryEv(PLT)
	add	r7, sp, #16
	mov	r9, r0
.L1669:
	ldr	r5, [r4]
	mov	r3, #0
	str	r6, [r4]
	ldr	r8, [r4, #4]
	mov	r1, r4
	mov	r0, r3
	str	r6, [sp, #16]
	str	r9, [sp, #20]
	mov	r2, r7
	blx	r8
	subs	r4, r5, #0
	bne	.L1669
	ldr	r1, [sp, #8]
	cmp	r1, #0
	str	r1, [sp, #4]
	beq	.L1648
	bl	_ZNSt3_V215system_categoryEv(PLT)
	ldr	r1, [sp, #4]
	mov	r6, r0
.L1673:
	ldr	r3, [r1]
	ldr	r5, [r1, #4]
	cmp	r3, #0
	streq	r3, [sp, #12]
	str	r3, [sp, #8]
	mov	r3, #0
	str	r4, [r1]
	mov	r0, r3
	str	r4, [sp, #16]
	str	r6, [sp, #20]
	mov	r2, r7
	blx	r5
	ldr	r1, [sp, #8]
	cmp	r1, #0
	bne	.L1673
.L1648:
	add	sp, sp, #28
	@ sp needed
	pop	{r4, r5, r6, r7, r8, r9, pc}
.L1676:
	mov	r0, r5
	bl	_ZN4asio6detail8op_queueINS0_25task_io_service_operationEED1Ev(PLT)
.LEHB60:
	bl	__cxa_end_cleanup(PLT)
.LEHE60:
	.personality	__gxx_personality_v0
	.handlerdata
.LLSDA3051:
	.byte	0xff
	.byte	0xff
	.byte	0x1
	.uleb128 .LLSDACSE3051-.LLSDACSB3051
.LLSDACSB3051:
	.uleb128 .LEHB59-.LFB3051
	.uleb128 .LEHE59-.LEHB59
	.uleb128 .L1676-.LFB3051
	.uleb128 0
	.uleb128 .LEHB60-.LFB3051
	.uleb128 .LEHE60-.LEHB60
	.uleb128 0
	.uleb128 0
.LLSDACSE3051:
	.section	.text._ZN4asio6detail13epoll_reactor16shutdown_serviceEv,"axG",%progbits,_ZN4asio6detail13epoll_reactor16shutdown_serviceEv,comdat
	.fnend
	.size	_ZN4asio6detail13epoll_reactor16shutdown_serviceEv, .-_ZN4asio6detail13epoll_reactor16shutdown_serviceEv
	.section	.text._ZN4asio6detail13epoll_reactor21deregister_descriptorEiRPNS1_16descriptor_stateEb,"axG",%progbits,_ZN4asio6detail13epoll_reactor21deregister_descriptorEiRPNS1_16descriptor_stateEb,comdat
	.align	2
	.weak	_ZN4asio6detail13epoll_reactor21deregister_descriptorEiRPNS1_16descriptor_stateEb
	.syntax unified
	.arm
	.fpu vfp
	.type	_ZN4asio6detail13epoll_reactor21deregister_descriptorEiRPNS1_16descriptor_stateEb, %function
_ZN4asio6detail13epoll_reactor21deregister_descriptorEiRPNS1_16descriptor_stateEb:
	.fnstart
.LFB3059:
	@ args = 0, pretend = 0, frame = 40
	@ frame_needed = 0, uses_anonymous_args = 0
	ldr	ip, [r2]
	push	{r4, r5, r6, r7, r8, r9, r10, fp, lr}
	cmp	ip, #0
	ldr	r6, .L1748
	sub	sp, sp, #44
.LPIC89:
	add	r6, pc, r6
	beq	.L1711
	mov	r8, r2
	mov	r4, r3
	add	r3, ip, #20
	str	r0, [sp, #12]
	mov	r0, r3
	str	r3, [sp, #16]
	mov	r5, r1
	bl	pthread_mutex_lock(PLT)
	ldr	ip, [r8]
	ldrb	r3, [ip, #80]	@ zero_extendqisi2
	cmp	r3, #0
	bne	.L1713
	cmp	r4, #0
	beq	.L1744
	add	r3, sp, #24
	str	r3, [sp, #20]
.L1714:
	mov	r3, #0
	ldr	r2, .L1748+4
	mov	r7, r3
	mov	r9, #56
	mov	r10, #125
.LPIC90:
	add	r2, pc, r2
	str	r3, [sp, #4]
	str	r2, [sp, #8]
	str	r3, [sp, #24]
	str	r3, [sp, #28]
.L1724:
	lsl	fp, r3, #3
	b	.L1715
.L1747:
	ldr	r3, .L1748+8
	ldr	r5, [r6, r3]
.L1718:
	ldr	ip, [r8]
	str	r10, [r4, #12]
	add	r2, ip, fp
	str	r5, [r4, #16]
	ldr	r3, [r2, #56]
	cmp	r3, #0
	beq	.L1720
	ldr	r1, [r3]
	cmp	r1, #0
	str	r1, [r2, #56]
	streq	r1, [r2, #60]
	str	r7, [r3]
.L1720:
	ldr	r3, [sp, #28]
	str	r7, [r4]
	cmp	r3, #0
	strne	r4, [r3]
	streq	r4, [sp, #28]
	strne	r4, [sp, #28]
	streq	r4, [sp, #24]
.L1715:
	ldr	r4, [ip, r9]
	cmp	r4, #0
	beq	.L1716
	ldr	r3, .L1748+12
	ldr	r5, [r6, r3]
	ldrb	r3, [r5]	@ zero_extendqisi2
	mcr	p15, 0, r0, c7, c10, 5
	tst	r3, #1
	bne	.L1747
	mov	r0, r5
	bl	__cxa_guard_acquire(PLT)
	cmp	r0, #0
	beq	.L1747
	mov	r0, r5
	bl	__cxa_guard_release(PLT)
	ldr	r3, .L1748+8
	ldr	r1, .L1748+16
	ldr	r2, [sp, #8]
	ldr	r5, [r6, r3]
	ldr	r1, [r6, r1]
	mov	r0, r5
	bl	__aeabi_atexit(PLT)
	b	.L1718
.L1716:
	ldr	r3, [sp, #4]
	add	r9, r9, #8
	add	r3, r3, #1
	cmp	r3, #3
	str	r3, [sp, #4]
	bne	.L1724
	ldr	r5, [sp, #12]
	mvn	r2, #0
	mov	r3, #1
	str	r2, [ip, #48]
	strb	r3, [ip, #80]
	add	r6, r5, #72
	ldr	r0, [sp, #16]
	bl	pthread_mutex_unlock(PLT)
	mov	r0, r6
	ldr	r4, [r8]
	bl	pthread_mutex_lock(PLT)
	ldr	r3, [r5, #96]
	mov	r5, #0
	cmp	r4, r3
	mov	r0, r6
	ldreq	r2, [sp, #12]
	ldreq	r3, [r4, #12]
	streq	r3, [r2, #96]
	ldr	r3, [r4, #16]
	cmp	r3, #0
	ldrne	r2, [r4, #12]
	strne	r2, [r3, #12]
	ldr	r3, [r4, #12]
	cmp	r3, #0
	ldrne	r2, [r4, #16]
	strne	r2, [r3, #16]
	ldr	r2, [sp, #12]
	mov	r6, r2
	ldr	r3, [r2, #100]
	str	r5, [r4, #16]
	str	r3, [r4, #12]
	str	r4, [r2, #100]
	bl	pthread_mutex_unlock(PLT)
	ldr	r4, [sp, #20]
	ldr	r0, [r6, #20]
	str	r5, [r8]
	mov	r1, r4
	bl	_ZN4asio6detail15task_io_service25post_deferred_completionsERNS0_8op_queueINS0_25task_io_service_operationEEE(PLT)
	mov	r0, r4
	bl	_ZN4asio6detail8op_queueINS0_25task_io_service_operationEED1Ev(PLT)
.L1711:
	add	sp, sp, #44
	@ sp needed
	pop	{r4, r5, r6, r7, r8, r9, r10, fp, pc}
.L1713:
	ldr	r0, [sp, #16]
	bl	pthread_mutex_unlock(PLT)
	add	sp, sp, #44
	@ sp needed
	pop	{r4, r5, r6, r7, r8, r9, r10, fp, pc}
.L1744:
	ldr	r0, [sp, #12]
	add	ip, sp, #24
	mov	r3, ip
	mov	r2, r5
	mov	r1, #2
	ldr	r0, [r0, #56]
	str	ip, [sp, #20]
	str	r4, [sp, #24]
	str	r4, [sp, #28]
	str	r4, [sp, #32]
	str	r4, [sp, #36]
	bl	epoll_ctl(PLT)
	ldr	ip, [r8]
	b	.L1714
.L1749:
	.align	2
.L1748:
	.word	_GLOBAL_OFFSET_TABLE_-(.LPIC89+8)
	.word	__dso_handle-(.LPIC90+8)
	.word	_ZZN4asio15system_categoryEvE8instance(GOT)
	.word	_ZGVZN4asio15system_categoryEvE8instance(GOT)
	.word	_ZN4asio6detail15system_categoryD1Ev(GOT)
	.cantunwind
	.fnend
	.size	_ZN4asio6detail13epoll_reactor21deregister_descriptorEiRPNS1_16descriptor_stateEb, .-_ZN4asio6detail13epoll_reactor21deregister_descriptorEiRPNS1_16descriptor_stateEb
	.section	.text._ZN4asio6detail28reactive_socket_service_base7destroyERNS1_24base_implementation_typeE,"axG",%progbits,_ZN4asio6detail28reactive_socket_service_base7destroyERNS1_24base_implementation_typeE,comdat
	.align	2
	.weak	_ZN4asio6detail28reactive_socket_service_base7destroyERNS1_24base_implementation_typeE
	.syntax unified
	.arm
	.fpu vfp
	.type	_ZN4asio6detail28reactive_socket_service_base7destroyERNS1_24base_implementation_typeE, %function
_ZN4asio6detail28reactive_socket_service_base7destroyERNS1_24base_implementation_typeE:
	.fnstart
.LFB3614:
	@ args = 0, pretend = 0, frame = 8
	@ frame_needed = 0, uses_anonymous_args = 0
	ldr	r2, [r1]
	cmn	r2, #1
	bxeq	lr
	push	{r4, lr}
	.save {r4, lr}
	mov	r4, r1
	ldrb	r3, [r1, #4]	@ zero_extendqisi2
	.pad #8
	sub	sp, sp, #8
	mov	r1, r2
	ldr	r0, [r0]
	lsr	r3, r3, #6
	eor	r3, r3, #1
	add	r2, r4, #8
	and	r3, r3, #1
	bl	_ZN4asio6detail13epoll_reactor21deregister_descriptorEiRPNS1_16descriptor_stateEb(PLT)
	mov	r3, #0
	str	r3, [sp]
	bl	_ZNSt3_V215system_categoryEv(PLT)
	mov	r3, sp
	mov	r2, #1
	add	r1, r4, #4
	str	r0, [sp, #4]
	ldr	r0, [r4]
	bl	_ZN4asio6detail10socket_ops5closeEiRhbRSt10error_code(PLT)
	add	sp, sp, #8
	@ sp needed
	pop	{r4, pc}
	.fnend
	.size	_ZN4asio6detail28reactive_socket_service_base7destroyERNS1_24base_implementation_typeE, .-_ZN4asio6detail28reactive_socket_service_base7destroyERNS1_24base_implementation_typeE
	.section	.text._ZN4asio6detail10scoped_ptrINS_10io_serviceEED2Ev,"axG",%progbits,_ZN4asio6detail10scoped_ptrINS_10io_serviceEED5Ev,comdat
	.align	2
	.weak	_ZN4asio6detail10scoped_ptrINS_10io_serviceEED2Ev
	.syntax unified
	.arm
	.fpu vfp
	.type	_ZN4asio6detail10scoped_ptrINS_10io_serviceEED2Ev, %function
_ZN4asio6detail10scoped_ptrINS_10io_serviceEED2Ev:
	.fnstart
.LFB7335:
	@ args = 0, pretend = 0, frame = 0
	@ frame_needed = 0, uses_anonymous_args = 0
	push	{r4, r5, r6, r7, r8, lr}
	.save {r4, r5, r6, r7, r8, lr}
	mov	r7, r0
	ldr	r6, [r0]
	cmp	r6, #0
	beq	.L1760
	ldr	r5, [r6]
	cmp	r5, #0
	beq	.L1761
	ldr	r4, [r5, #32]
	cmp	r4, #0
	beq	.L1763
.L1766:
	ldr	r3, [r4]
	mov	r0, r4
	ldr	r3, [r3, #8]
	blx	r3
	ldr	r4, [r4, #16]
	cmp	r4, #0
	bne	.L1766
	ldr	r0, [r5, #32]
	cmp	r0, #0
	beq	.L1763
.L1767:
	ldr	r3, [r0]
	ldr	r4, [r0, #16]
	ldr	r3, [r3, #4]
	blx	r3
	subs	r0, r4, #0
	str	r4, [r5, #32]
	bne	.L1767
.L1763:
	add	r0, r5, #4
	bl	pthread_mutex_destroy(PLT)
	mov	r0, r5
	mov	r1, #36
	bl	_ZdlPvj(PLT)
.L1761:
	mov	r0, r6
	mov	r1, #8
	bl	_ZdlPvj(PLT)
.L1760:
	mov	r0, r7
	pop	{r4, r5, r6, r7, r8, pc}
	.personality	__gxx_personality_v0
	.handlerdata
.LLSDA7335:
	.byte	0xff
	.byte	0xff
	.byte	0x1
	.uleb128 .LLSDACSE7335-.LLSDACSB7335
.LLSDACSB7335:
.LLSDACSE7335:
	.section	.text._ZN4asio6detail10scoped_ptrINS_10io_serviceEED2Ev,"axG",%progbits,_ZN4asio6detail10scoped_ptrINS_10io_serviceEED5Ev,comdat
	.fnend
	.size	_ZN4asio6detail10scoped_ptrINS_10io_serviceEED2Ev, .-_ZN4asio6detail10scoped_ptrINS_10io_serviceEED2Ev
	.weak	_ZN4asio6detail10scoped_ptrINS_10io_serviceEED1Ev
	.set	_ZN4asio6detail10scoped_ptrINS_10io_serviceEED1Ev,_ZN4asio6detail10scoped_ptrINS_10io_serviceEED2Ev
	.section	.text._ZN4asio6detail16service_registry6createINS_2ip16resolver_serviceINS3_3tcpEEEEEPNS_10io_service7serviceERS7_,"axG",%progbits,_ZN4asio6detail16service_registry6createINS_2ip16resolver_serviceINS3_3tcpEEEEEPNS_10io_service7serviceERS7_,comdat
	.align	2
	.weak	_ZN4asio6detail16service_registry6createINS_2ip16resolver_serviceINS3_3tcpEEEEEPNS_10io_service7serviceERS7_
	.syntax unified
	.arm
	.fpu vfp
	.type	_ZN4asio6detail16service_registry6createINS_2ip16resolver_serviceINS3_3tcpEEEEEPNS_10io_service7serviceERS7_, %function
_ZN4asio6detail16service_registry6createINS_2ip16resolver_serviceINS3_3tcpEEEEEPNS_10io_service7serviceERS7_:
	.fnstart
.LFB8752:
	@ args = 0, pretend = 0, frame = 40
	@ frame_needed = 0, uses_anonymous_args = 0
	push	{r4, r5, r6, r7, r8, r9, r10, fp, lr}
	.save {r4, r5, r6, r7, r8, r9, r10, fp, lr}
	mov	r4, r0
	.pad #44
	sub	sp, sp, #44
	mov	r0, #64
.LEHB61:
	bl	_Znwj(PLT)
.LEHE61:
	ldr	r7, .L1813
	ldr	r3, .L1813+4
.LPIC91:
	add	r7, pc, r7
	mov	r1, #0
	ldr	r2, [r4, #4]
	str	r4, [r0, #12]
	str	r1, [r0, #4]
	str	r1, [r0, #8]
	str	r1, [r0, #16]
	ldr	r3, [r7, r3]
	mov	r5, r0
	add	r9, r0, #24
	add	r3, r3, #8
	mov	r0, r9
	str	r2, [r5, #20]
	str	r3, [r5]
	bl	pthread_mutex_init(PLT)
	mov	r4, r0
	bl	_ZN4asio15system_categoryEv(PLT)
	cmp	r4, #0
	str	r4, [sp, #8]
	str	r0, [sp, #12]
	bne	.L1809
	mov	r0, #8
.LEHB62:
	bl	_Znwj(PLT)
.LEHE62:
	mov	r6, r0
	mov	r0, #36
.LEHB63:
	bl	_Znwj(PLT)
.LEHE63:
	add	r10, r0, #4
	mov	r1, #0
	mov	r8, r0
	mov	r0, r10
	bl	pthread_mutex_init(PLT)
	mov	r4, r0
	bl	_ZN4asio15system_categoryEv(PLT)
	cmp	r4, #0
	str	r4, [sp, #16]
	str	r0, [sp, #20]
	bne	.L1810
	mov	r0, #144
	str	r6, [r8, #28]
.LEHB64:
	bl	_Znwj(PLT)
.LEHE64:
	ldr	r2, .L1813+8
	mov	r3, #0
	str	r3, [r0, #4]
	str	r3, [r0, #8]
	str	r3, [r0, #16]
	str	r6, [r0, #12]
	ldr	r2, [r7, r2]
	mov	r4, r0
	add	r2, r2, #8
	add	fp, r0, #24
	str	r2, [r0]
	mov	r1, r3
	strb	r3, [r4, #20]
	mov	r0, fp
	bl	pthread_mutex_init(PLT)
	str	r0, [sp, #4]
	bl	_ZN4asio15system_categoryEv(PLT)
	ldr	r3, [sp, #4]
	cmp	r3, #0
	str	r3, [sp, #24]
	str	r0, [sp, #28]
	bne	.L1811
	mov	r1, r3
	str	r3, [r4, #96]
	add	r0, r4, #48
	bl	pthread_cond_init(PLT)
	str	r0, [sp, #4]
	bl	_ZN4asio15system_categoryEv(PLT)
	ldr	r3, [sp, #4]
	cmp	r3, #0
	str	r3, [sp, #32]
	str	r0, [sp, #36]
	bne	.L1812
	ldr	r2, .L1813+12
	mov	r1, #1
	str	r3, [r4, #104]
	str	r3, [r4, #108]
	str	r3, [r4, #112]
	str	r3, [r4, #116]
	str	r3, [r4, #124]
	str	r3, [r4, #128]
	str	r3, [r4, #132]
	strb	r3, [r4, #136]
	strb	r3, [r4, #137]
	str	r4, [r8, #32]
	strb	r1, [r4, #120]
	ldr	r2, [r7, r2]
	mov	r0, #4
	str	r3, [r4, #16]
	stmib	r4, {r2, r3}
	str	r8, [r6]
	str	r4, [r6, #4]
	str	r6, [r5, #48]
	str	r4, [r5, #52]
.LEHB65:
	bl	_Znwj(PLT)
.LEHE65:
	ldr	r3, [r6, #4]
	str	r3, [r0]
	add	r3, r3, #124
	mcr	p15, 0, r0, c7, c10, 5
.L1806:
	ldrex	r2, [r3]
	add	r2, r2, #1
	strex	r1, r2, [r3]
	cmp	r1, #0
	bne	.L1806
	mov	r3, #0
	mcr	p15, 0, r0, c7, c10, 5
	str	r0, [r5, #56]
	str	r3, [r5, #60]
	mov	r0, r5
	add	sp, sp, #44
	@ sp needed
	pop	{r4, r5, r6, r7, r8, r9, r10, fp, pc}
.L1809:
	ldr	r1, .L1813+16
	add	r0, sp, #8
.LPIC92:
	add	r1, pc, r1
.LEHB66:
	bl	_ZN4asio6detail14do_throw_errorERKSt10error_codePKc(PLT)
.LEHE66:
.L1796:
.L1795:
	mov	r0, r5
	mov	r1, #64
	bl	_ZdlPvj(PLT)
.LEHB67:
	bl	__cxa_end_cleanup(PLT)
.LEHE67:
.L1812:
	ldr	r1, .L1813+20
	add	r0, sp, #32
.LPIC95:
	add	r1, pc, r1
.LEHB68:
	bl	_ZN4asio6detail14do_throw_errorERKSt10error_codePKc(PLT)
.LEHE68:
.L1803:
	mov	r0, fp
	bl	pthread_mutex_destroy(PLT)
.L1789:
	mov	r0, r4
	mov	r1, #144
	bl	_ZdlPvj(PLT)
.L1790:
	mov	r0, r10
	bl	pthread_mutex_destroy(PLT)
.L1791:
	mov	r0, r8
	mov	r1, #36
	bl	_ZdlPvj(PLT)
.L1792:
	mov	r0, r6
	mov	r1, #8
	bl	_ZdlPvj(PLT)
.L1793:
	mov	r0, r9
	bl	pthread_mutex_destroy(PLT)
	b	.L1795
.L1811:
	ldr	r1, .L1813+24
	add	r0, sp, #24
.LPIC94:
	add	r1, pc, r1
.LEHB69:
	bl	_ZN4asio6detail14do_throw_errorERKSt10error_codePKc(PLT)
.LEHE69:
.L1802:
	b	.L1789
.L1810:
	ldr	r1, .L1813+28
	add	r0, sp, #16
.LPIC93:
	add	r1, pc, r1
.LEHB70:
	bl	_ZN4asio6detail14do_throw_errorERKSt10error_codePKc(PLT)
.LEHE70:
.L1800:
	b	.L1791
.L1797:
	b	.L1793
.L1801:
	b	.L1790
.L1798:
	add	r0, r5, #48
	bl	_ZN4asio6detail10scoped_ptrINS_10io_serviceEED1Ev(PLT)
	b	.L1793
.L1799:
	b	.L1792
.L1814:
	.align	2
.L1813:
	.word	_GLOBAL_OFFSET_TABLE_-(.LPIC91+8)
	.word	_ZTVN4asio2ip16resolver_serviceINS0_3tcpEEE(GOT)
	.word	_ZTVN4asio6detail15task_io_serviceE(GOT)
	.word	_ZTIN4asio6detail14typeid_wrapperINS0_15task_io_serviceEEE(GOT)
	.word	.LC27-(.LPIC92+8)
	.word	.LC28-(.LPIC95+8)
	.word	.LC27-(.LPIC94+8)
	.word	.LC27-(.LPIC93+8)
	.personality	__gxx_personality_v0
	.handlerdata
.LLSDA8752:
	.byte	0xff
	.byte	0xff
	.byte	0x1
	.uleb128 .LLSDACSE8752-.LLSDACSB8752
.LLSDACSB8752:
	.uleb128 .LEHB61-.LFB8752
	.uleb128 .LEHE61-.LEHB61
	.uleb128 0
	.uleb128 0
	.uleb128 .LEHB62-.LFB8752
	.uleb128 .LEHE62-.LEHB62
	.uleb128 .L1797-.LFB8752
	.uleb128 0
	.uleb128 .LEHB63-.LFB8752
	.uleb128 .LEHE63-.LEHB63
	.uleb128 .L1799-.LFB8752
	.uleb128 0
	.uleb128 .LEHB64-.LFB8752
	.uleb128 .LEHE64-.LEHB64
	.uleb128 .L1801-.LFB8752
	.uleb128 0
	.uleb128 .LEHB65-.LFB8752
	.uleb128 .LEHE65-.LEHB65
	.uleb128 .L1798-.LFB8752
	.uleb128 0
	.uleb128 .LEHB66-.LFB8752
	.uleb128 .LEHE66-.LEHB66
	.uleb128 .L1796-.LFB8752
	.uleb128 0
	.uleb128 .LEHB67-.LFB8752
	.uleb128 .LEHE67-.LEHB67
	.uleb128 0
	.uleb128 0
	.uleb128 .LEHB68-.LFB8752
	.uleb128 .LEHE68-.LEHB68
	.uleb128 .L1803-.LFB8752
	.uleb128 0
	.uleb128 .LEHB69-.LFB8752
	.uleb128 .LEHE69-.LEHB69
	.uleb128 .L1802-.LFB8752
	.uleb128 0
	.uleb128 .LEHB70-.LFB8752
	.uleb128 .LEHE70-.LEHB70
	.uleb128 .L1800-.LFB8752
	.uleb128 0
.LLSDACSE8752:
	.section	.text._ZN4asio6detail16service_registry6createINS_2ip16resolver_serviceINS3_3tcpEEEEEPNS_10io_service7serviceERS7_,"axG",%progbits,_ZN4asio6detail16service_registry6createINS_2ip16resolver_serviceINS3_3tcpEEEEEPNS_10io_service7serviceERS7_,comdat
	.fnend
	.size	_ZN4asio6detail16service_registry6createINS_2ip16resolver_serviceINS3_3tcpEEEEEPNS_10io_service7serviceERS7_, .-_ZN4asio6detail16service_registry6createINS_2ip16resolver_serviceINS3_3tcpEEEEEPNS_10io_service7serviceERS7_
	.section	.text._ZN4asio6detail10call_stackINS0_14strand_service11strand_implEhE8containsEPS3_,"axG",%progbits,_ZN4asio6detail10call_stackINS0_14strand_service11strand_implEhE8containsEPS3_,comdat
	.align	2
	.weak	_ZN4asio6detail10call_stackINS0_14strand_service11strand_implEhE8containsEPS3_
	.syntax unified
	.arm
	.fpu vfp
	.type	_ZN4asio6detail10call_stackINS0_14strand_service11strand_implEhE8containsEPS3_, %function
_ZN4asio6detail10call_stackINS0_14strand_service11strand_implEhE8containsEPS3_:
	.fnstart
.LFB7386:
	@ args = 0, pretend = 0, frame = 0
	@ frame_needed = 0, uses_anonymous_args = 0
	ldr	r3, .L1824
	ldr	r2, .L1824+4
.LPIC96:
	add	r3, pc, r3
	push	{r4, lr}
	mov	r4, r0
	ldr	r3, [r3, r2]
	ldr	r0, [r3]
	bl	pthread_getspecific(PLT)
	cmp	r0, #0
	popeq	{r4, pc}
	ldr	r3, [r0]
	cmp	r4, r3
	bne	.L1819
	b	.L1817
.L1820:
	ldr	r3, [r0]
	cmp	r3, r4
	beq	.L1817
.L1819:
	ldr	r0, [r0, #8]
	cmp	r0, #0
	bne	.L1820
	pop	{r4, pc}
.L1817:
	ldr	r0, [r0, #4]
	pop	{r4, pc}
.L1825:
	.align	2
.L1824:
	.word	_GLOBAL_OFFSET_TABLE_-(.LPIC96+8)
	.word	_ZN4asio6detail10call_stackINS0_14strand_service11strand_implEhE4top_E(GOT)
	.cantunwind
	.fnend
	.size	_ZN4asio6detail10call_stackINS0_14strand_service11strand_implEhE8containsEPS3_, .-_ZN4asio6detail10call_stackINS0_14strand_service11strand_implEhE8containsEPS3_
	.section	.text._ZN4asio6detail10call_stackINS0_14strand_service11strand_implEhE7contextC2EPS3_,"axG",%progbits,_ZN4asio6detail10call_stackINS0_14strand_service11strand_implEhE7contextC5EPS3_,comdat
	.align	2
	.weak	_ZN4asio6detail10call_stackINS0_14strand_service11strand_implEhE7contextC2EPS3_
	.syntax unified
	.arm
	.fpu vfp
	.type	_ZN4asio6detail10call_stackINS0_14strand_service11strand_implEhE7contextC2EPS3_, %function
_ZN4asio6detail10call_stackINS0_14strand_service11strand_implEhE7contextC2EPS3_:
	.fnstart
.LFB7391:
	@ args = 0, pretend = 0, frame = 0
	@ frame_needed = 0, uses_anonymous_args = 0
	ldr	r3, .L1828
	ldr	r2, .L1828+4
.LPIC97:
	add	r3, pc, r3
	push	{r4, r5, r6, lr}
	mov	r4, r0
	str	r1, [r0]
	ldr	r5, [r3, r2]
	ldr	r0, [r5]
	bl	pthread_getspecific(PLT)
	str	r4, [r4, #4]
	mov	r1, r4
	str	r0, [r4, #8]
	ldr	r0, [r5]
	bl	pthread_setspecific(PLT)
	mov	r0, r4
	pop	{r4, r5, r6, pc}
.L1829:
	.align	2
.L1828:
	.word	_GLOBAL_OFFSET_TABLE_-(.LPIC97+8)
	.word	_ZN4asio6detail10call_stackINS0_14strand_service11strand_implEhE4top_E(GOT)
	.cantunwind
	.fnend
	.size	_ZN4asio6detail10call_stackINS0_14strand_service11strand_implEhE7contextC2EPS3_, .-_ZN4asio6detail10call_stackINS0_14strand_service11strand_implEhE7contextC2EPS3_
	.weak	_ZN4asio6detail10call_stackINS0_14strand_service11strand_implEhE7contextC1EPS3_
	.set	_ZN4asio6detail10call_stackINS0_14strand_service11strand_implEhE7contextC1EPS3_,_ZN4asio6detail10call_stackINS0_14strand_service11strand_implEhE7contextC2EPS3_
	.section	.text._ZNSt8functionIFvRKSt10shared_ptrIN7asiopal8ExecutorEEN4asio19basic_stream_socketINS6_2ip3tcpENS6_21stream_socket_serviceIS9_EEEERKSt10error_codeEEC2ERKSH_,"axG",%progbits,_ZNSt8functionIFvRKSt10shared_ptrIN7asiopal8ExecutorEEN4asio19basic_stream_socketINS6_2ip3tcpENS6_21stream_socket_serviceIS9_EEEERKSt10error_codeEEC5ERKSH_,comdat
	.align	2
	.weak	_ZNSt8functionIFvRKSt10shared_ptrIN7asiopal8ExecutorEEN4asio19basic_stream_socketINS6_2ip3tcpENS6_21stream_socket_serviceIS9_EEEERKSt10error_codeEEC2ERKSH_
	.syntax unified
	.arm
	.fpu vfp
	.type	_ZNSt8functionIFvRKSt10shared_ptrIN7asiopal8ExecutorEEN4asio19basic_stream_socketINS6_2ip3tcpENS6_21stream_socket_serviceIS9_EEEERKSt10error_codeEEC2ERKSH_, %function
_ZNSt8functionIFvRKSt10shared_ptrIN7asiopal8ExecutorEEN4asio19basic_stream_socketINS6_2ip3tcpENS6_21stream_socket_serviceIS9_EEEERKSt10error_codeEEC2ERKSH_:
	.fnstart
.LFB7693:
	@ args = 0, pretend = 0, frame = 0
	@ frame_needed = 0, uses_anonymous_args = 0
	mov	r3, #0
	push	{r4, r5, r6, lr}
	.save {r4, r5, r6, lr}
	mov	r4, r0
	str	r3, [r0, #8]
	ldr	r3, [r1, #8]
	cmp	r3, #0
	beq	.L1837
	mov	r2, #2
	mov	r5, r1
.LEHB71:
	blx	r3
.LEHE71:
	ldr	r2, [r5, #12]
	ldr	r3, [r5, #8]
	str	r2, [r4, #12]
	str	r3, [r4, #8]
.L1837:
	mov	r0, r4
	pop	{r4, r5, r6, pc}
.L1834:
	ldr	r3, [r4, #8]
	cmp	r3, #0
	beq	.L1833
	mov	r2, #3
	mov	r1, r4
	mov	r0, r4
	blx	r3
.L1833:
.LEHB72:
	bl	__cxa_end_cleanup(PLT)
.LEHE72:
	.personality	__gxx_personality_v0
	.handlerdata
.LLSDA7693:
	.byte	0xff
	.byte	0xff
	.byte	0x1
	.uleb128 .LLSDACSE7693-.LLSDACSB7693
.LLSDACSB7693:
	.uleb128 .LEHB71-.LFB7693
	.uleb128 .LEHE71-.LEHB71
	.uleb128 .L1834-.LFB7693
	.uleb128 0
	.uleb128 .LEHB72-.LFB7693
	.uleb128 .LEHE72-.LEHB72
	.uleb128 0
	.uleb128 0
.LLSDACSE7693:
	.section	.text._ZNSt8functionIFvRKSt10shared_ptrIN7asiopal8ExecutorEEN4asio19basic_stream_socketINS6_2ip3tcpENS6_21stream_socket_serviceIS9_EEEERKSt10error_codeEEC2ERKSH_,"axG",%progbits,_ZNSt8functionIFvRKSt10shared_ptrIN7asiopal8ExecutorEEN4asio19basic_stream_socketINS6_2ip3tcpENS6_21stream_socket_serviceIS9_EEEERKSt10error_codeEEC5ERKSH_,comdat
	.fnend
	.size	_ZNSt8functionIFvRKSt10shared_ptrIN7asiopal8ExecutorEEN4asio19basic_stream_socketINS6_2ip3tcpENS6_21stream_socket_serviceIS9_EEEERKSt10error_codeEEC2ERKSH_, .-_ZNSt8functionIFvRKSt10shared_ptrIN7asiopal8ExecutorEEN4asio19basic_stream_socketINS6_2ip3tcpENS6_21stream_socket_serviceIS9_EEEERKSt10error_codeEEC2ERKSH_
	.weak	_ZNSt8functionIFvRKSt10shared_ptrIN7asiopal8ExecutorEEN4asio19basic_stream_socketINS6_2ip3tcpENS6_21stream_socket_serviceIS9_EEEERKSt10error_codeEEC1ERKSH_
	.set	_ZNSt8functionIFvRKSt10shared_ptrIN7asiopal8ExecutorEEN4asio19basic_stream_socketINS6_2ip3tcpENS6_21stream_socket_serviceIS9_EEEERKSt10error_codeEEC1ERKSH_,_ZNSt8functionIFvRKSt10shared_ptrIN7asiopal8ExecutorEEN4asio19basic_stream_socketINS6_2ip3tcpENS6_21stream_socket_serviceIS9_EEEERKSt10error_codeEEC2ERKSH_
	.section	.text._ZNSt16_Sp_counted_baseILN9__gnu_cxx12_Lock_policyE1EE10_M_releaseEv,"axG",%progbits,_ZNSt16_Sp_counted_baseILN9__gnu_cxx12_Lock_policyE1EE10_M_releaseEv,comdat
	.align	2
	.weak	_ZNSt16_Sp_counted_baseILN9__gnu_cxx12_Lock_policyE1EE10_M_releaseEv
	.syntax unified
	.arm
	.fpu vfp
	.type	_ZNSt16_Sp_counted_baseILN9__gnu_cxx12_Lock_policyE1EE10_M_releaseEv, %function
_ZNSt16_Sp_counted_baseILN9__gnu_cxx12_Lock_policyE1EE10_M_releaseEv:
	.fnstart
.LFB7953:
	@ args = 0, pretend = 0, frame = 0
	@ frame_needed = 0, uses_anonymous_args = 0
	ldr	r3, .L1855
	ldr	r2, .L1855+4
.LPIC98:
	add	r3, pc, r3
	push	{r4, r5, r6, lr}
	mov	r4, r0
	ldr	r3, [r3, r2]
	cmp	r3, #0
	beq	.L1844
	add	r3, r0, #28
	mcr	p15, 0, r0, c7, c10, 5
.L1851:
	ldrex	r2, [r3]
	sub	r1, r2, #1
	strex	ip, r1, [r3]
	cmp	ip, #0
	bne	.L1851
	cmp	r2, #1
	mcr	p15, 0, r0, c7, c10, 5
	popne	{r4, r5, r6, pc}
	mov	r5, r4
	ldr	r3, [r5], #32
	ldr	r3, [r3, #8]
	blx	r3
	mcr	p15, 0, r0, c7, c10, 5
	mcr	p15, 0, r0, c7, c10, 5
.L1850:
	ldrex	r3, [r5]
	sub	r2, r3, #1
	strex	r1, r2, [r5]
	cmp	r1, #0
	bne	.L1850
	mcr	p15, 0, r0, c7, c10, 5
.L1849:
	cmp	r3, #1
	popne	{r4, r5, r6, pc}
	ldr	r3, [r4]
	mov	r0, r4
	pop	{r4, r5, r6, lr}
	ldr	r3, [r3, #12]
	bx	r3	@ indirect register sibling call
.L1844:
	ldr	r3, [r0, #28]
	cmp	r3, #1
	sub	r3, r3, #1
	str	r3, [r0, #28]
	popne	{r4, r5, r6, pc}
	ldr	r3, [r0]
	ldr	r3, [r3, #8]
	blx	r3
	mcr	p15, 0, r0, c7, c10, 5
	ldr	r3, [r4, #32]
	sub	r2, r3, #1
	str	r2, [r4, #32]
	b	.L1849
.L1856:
	.align	2
.L1855:
	.word	_GLOBAL_OFFSET_TABLE_-(.LPIC98+8)
	.word	_ZL28__gthrw___pthread_key_createPjPFvPvE(GOT)
	.cantunwind
	.fnend
	.size	_ZNSt16_Sp_counted_baseILN9__gnu_cxx12_Lock_policyE1EE10_M_releaseEv, .-_ZNSt16_Sp_counted_baseILN9__gnu_cxx12_Lock_policyE1EE10_M_releaseEv
	.section	.text._ZN7openpal6LoggerD2Ev,"axG",%progbits,_ZN7openpal6LoggerD5Ev,comdat
	.align	2
	.weak	_ZN7openpal6LoggerD2Ev
	.syntax unified
	.arm
	.fpu vfp
	.type	_ZN7openpal6LoggerD2Ev, %function
_ZN7openpal6LoggerD2Ev:
	.fnstart
.LFB6737:
	@ args = 0, pretend = 0, frame = 0
	@ frame_needed = 0, uses_anonymous_args = 0
	push	{r4, lr}
	mov	r4, r0
	ldr	r0, [r0, #12]
	cmp	r0, #0
	beq	.L1858
	bl	_ZNSt16_Sp_counted_baseILN9__gnu_cxx12_Lock_policyE1EE10_M_releaseEv(PLT)
.L1858:
	ldr	r0, [r4, #4]
	cmp	r0, #0
	beq	.L1859
	bl	_ZNSt16_Sp_counted_baseILN9__gnu_cxx12_Lock_policyE1EE10_M_releaseEv(PLT)
.L1859:
	mov	r0, r4
	pop	{r4, pc}
	.cantunwind
	.fnend
	.size	_ZN7openpal6LoggerD2Ev, .-_ZN7openpal6LoggerD2Ev
	.weak	_ZN7openpal6LoggerD1Ev
	.set	_ZN7openpal6LoggerD1Ev,_ZN7openpal6LoggerD2Ev
	.text
	.align	2
	.syntax unified
	.arm
	.fpu vfp
	.type	_ZZN7asiopal9TCPClient12BeginConnectERKSt8functionIFvRKSt10shared_ptrINS_8ExecutorEEN4asio19basic_stream_socketINS7_2ip3tcpENS7_21stream_socket_serviceISA_EEEERKSt10error_codeEEENUlSG_NS9_23basic_resolver_iteratorISA_EEE_D2Ev, %function
_ZZN7asiopal9TCPClient12BeginConnectERKSt8functionIFvRKSt10shared_ptrINS_8ExecutorEEN4asio19basic_stream_socketINS7_2ip3tcpENS7_21stream_socket_serviceISA_EEEERKSt10error_codeEEENUlSG_NS9_23basic_resolver_iteratorISA_EEE_D2Ev:
	.fnstart
.LFB6821:
	@ args = 0, pretend = 0, frame = 0
	@ frame_needed = 0, uses_anonymous_args = 0
	ldr	r3, [r0, #16]
	push	{r4, lr}
	.save {r4, lr}
	cmp	r3, #0
	mov	r4, r0
	beq	.L1868
	add	r1, r0, #8
	mov	r0, r1
	mov	r2, #3
	blx	r3
.L1868:
	ldr	r0, [r4, #4]
	cmp	r0, #0
	beq	.L1869
	bl	_ZNSt16_Sp_counted_baseILN9__gnu_cxx12_Lock_policyE1EE10_M_releaseEv(PLT)
.L1869:
	mov	r0, r4
	pop	{r4, pc}
	.personality	__gxx_personality_v0
	.handlerdata
.LLSDA6821:
	.byte	0xff
	.byte	0xff
	.byte	0x1
	.uleb128 .LLSDACSE6821-.LLSDACSB6821
.LLSDACSB6821:
.LLSDACSE6821:
	.text
	.fnend
	.size	_ZZN7asiopal9TCPClient12BeginConnectERKSt8functionIFvRKSt10shared_ptrINS_8ExecutorEEN4asio19basic_stream_socketINS7_2ip3tcpENS7_21stream_socket_serviceISA_EEEERKSt10error_codeEEENUlSG_NS9_23basic_resolver_iteratorISA_EEE_D2Ev, .-_ZZN7asiopal9TCPClient12BeginConnectERKSt8functionIFvRKSt10shared_ptrINS_8ExecutorEEN4asio19basic_stream_socketINS7_2ip3tcpENS7_21stream_socket_serviceISA_EEEERKSt10error_codeEEENUlSG_NS9_23basic_resolver_iteratorISA_EEE_D2Ev
	.set	_ZZN7asiopal9TCPClient12BeginConnectERKSt8functionIFvRKSt10shared_ptrINS_8ExecutorEEN4asio19basic_stream_socketINS7_2ip3tcpENS7_21stream_socket_serviceISA_EEEERKSt10error_codeEEENUlSG_NS9_23basic_resolver_iteratorISA_EEE_D1Ev,_ZZN7asiopal9TCPClient12BeginConnectERKSt8functionIFvRKSt10shared_ptrINS_8ExecutorEEN4asio19basic_stream_socketINS7_2ip3tcpENS7_21stream_socket_serviceISA_EEEERKSt10error_codeEEENUlSG_NS9_23basic_resolver_iteratorISA_EEE_D2Ev
	.align	2
	.syntax unified
	.arm
	.fpu vfp
	.type	_ZN4asio6detail10resolve_opINS_2ip3tcpENS0_15wrapped_handlerINS_10io_service6strandEZN7asiopal9TCPClient12BeginConnectERKSt8functionIFvRKSt10shared_ptrINS7_8ExecutorEENS_19basic_stream_socketIS3_NS_21stream_socket_serviceIS3_EEEERKSt10error_codeEEEUlSL_NS2_23basic_resolver_iteratorIS3_EEE_NS0_26is_continuation_if_runningEEEE3ptr5resetEv, %function
_ZN4asio6detail10resolve_opINS_2ip3tcpENS0_15wrapped_handlerINS_10io_service6strandEZN7asiopal9TCPClient12BeginConnectERKSt8functionIFvRKSt10shared_ptrINS7_8ExecutorEENS_19basic_stream_socketIS3_NS_21stream_socket_serviceIS3_EEEERKSt10error_codeEEEUlSL_NS2_23basic_resolver_iteratorIS3_EEE_NS0_26is_continuation_if_runningEEEE3ptr5resetEv:
	.fnstart
.LFB8755:
	@ args = 0, pretend = 0, frame = 0
	@ frame_needed = 0, uses_anonymous_args = 0
	push	{r4, r5, r6, lr}
	mov	r5, r0
	ldr	r4, [r0, #8]
	ldr	r6, .L1909
	cmp	r4, #0
.LPIC99:
	add	r6, pc, r6
	beq	.L1878
	ldr	r0, [r4, #144]
	cmp	r0, #0
	beq	.L1879
	bl	freeaddrinfo(PLT)
.L1879:
	add	r0, r4, #112
	bl	_ZZN7asiopal9TCPClient12BeginConnectERKSt8functionIFvRKSt10shared_ptrINS_8ExecutorEEN4asio19basic_stream_socketINS7_2ip3tcpENS7_21stream_socket_serviceISA_EEEERKSt10error_codeEEENUlSG_NS9_23basic_resolver_iteratorISA_EEE_D1Ev(PLT)
	ldr	r0, [r4, #76]
	add	r3, r4, #84
	cmp	r0, r3
	beq	.L1880
	bl	_ZdlPv(PLT)
.L1880:
	ldr	r0, [r4, #52]
	add	r3, r4, #60
	cmp	r0, r3
	beq	.L1881
	bl	_ZdlPv(PLT)
.L1881:
	ldr	r0, [r4, #16]
	cmp	r0, #0
	beq	.L1883
	ldr	r3, .L1909+4
	ldr	r3, [r6, r3]
	cmp	r3, #0
	beq	.L1884
	add	r3, r0, #32
	mcr	p15, 0, r0, c7, c10, 5
.L1905:
	ldrex	r2, [r3]
	sub	r1, r2, #1
	strex	ip, r1, [r3]
	cmp	ip, #0
	bne	.L1905
	cmp	r2, #1
	mcr	p15, 0, r0, c7, c10, 5
	beq	.L1907
.L1883:
	mov	r3, #0
	str	r3, [r5, #8]
.L1878:
	ldr	r4, [r5, #4]
	cmp	r4, #0
	popeq	{r4, r5, r6, pc}
	ldr	r3, .L1909+8
	ldr	r3, [r6, r3]
	ldr	r0, [r3]
	bl	pthread_getspecific(PLT)
	cmp	r0, #0
	beq	.L1888
	ldr	r3, [r0, #4]
	cmp	r3, #0
	beq	.L1888
	ldr	r2, [r3]
	cmp	r2, #0
	beq	.L1908
.L1888:
	mov	r0, r4
	bl	_ZdlPv(PLT)
.L1889:
	mov	r3, #0
	str	r3, [r5, #4]
	pop	{r4, r5, r6, pc}
.L1884:
	ldr	r2, [r0, #32]
	sub	r3, r2, #1
	cmp	r2, #1
	str	r3, [r0, #32]
	bne	.L1883
.L1907:
	mcr	p15, 0, r0, c7, c10, 5
	ldr	r3, [r0]
	ldr	r3, [r3, #12]
	blx	r3
	mov	r3, #0
	str	r3, [r5, #8]
	b	.L1878
.L1908:
	ldrb	r2, [r4, #148]	@ zero_extendqisi2
	strb	r2, [r4]
	str	r4, [r3]
	b	.L1889
.L1910:
	.align	2
.L1909:
	.word	_GLOBAL_OFFSET_TABLE_-(.LPIC99+8)
	.word	_ZL28__gthrw___pthread_key_createPjPFvPvE(GOT)
	.word	_ZN4asio6detail10call_stackINS0_15task_io_serviceENS0_27task_io_service_thread_infoEE4top_E(GOT)
	.cantunwind
	.fnend
	.size	_ZN4asio6detail10resolve_opINS_2ip3tcpENS0_15wrapped_handlerINS_10io_service6strandEZN7asiopal9TCPClient12BeginConnectERKSt8functionIFvRKSt10shared_ptrINS7_8ExecutorEENS_19basic_stream_socketIS3_NS_21stream_socket_serviceIS3_EEEERKSt10error_codeEEEUlSL_NS2_23basic_resolver_iteratorIS3_EEE_NS0_26is_continuation_if_runningEEEE3ptr5resetEv, .-_ZN4asio6detail10resolve_opINS_2ip3tcpENS0_15wrapped_handlerINS_10io_service6strandEZN7asiopal9TCPClient12BeginConnectERKSt8functionIFvRKSt10shared_ptrINS7_8ExecutorEENS_19basic_stream_socketIS3_NS_21stream_socket_serviceIS3_EEEERKSt10error_codeEEEUlSL_NS2_23basic_resolver_iteratorIS3_EEE_NS0_26is_continuation_if_runningEEEE3ptr5resetEv
	.section	.text.unlikely
	.align	2
	.syntax unified
	.arm
	.fpu vfp
	.type	_ZN4asio6detail7binder2IZN7asiopal9TCPClient12BeginConnectERKSt8functionIFvRKSt10shared_ptrINS2_8ExecutorEENS_19basic_stream_socketINS_2ip3tcpENS_21stream_socket_serviceISC_EEEERKSt10error_codeEEEUlSI_NSB_23basic_resolver_iteratorISC_EEE_SG_SO_ED2Ev, %function
_ZN4asio6detail7binder2IZN7asiopal9TCPClient12BeginConnectERKSt8functionIFvRKSt10shared_ptrINS2_8ExecutorEENS_19basic_stream_socketINS_2ip3tcpENS_21stream_socket_serviceISC_EEEERKSt10error_codeEEEUlSI_NSB_23basic_resolver_iteratorISC_EEE_SG_SO_ED2Ev:
	.fnstart
.LFB9592:
	@ args = 0, pretend = 0, frame = 0
	@ frame_needed = 0, uses_anonymous_args = 0
	push	{r4, lr}
	mov	r4, r0
	ldr	r0, [r0, #36]
	cmp	r0, #0
	beq	.L1912
	bl	_ZNSt16_Sp_counted_baseILN9__gnu_cxx12_Lock_policyE1EE10_M_releaseEv(PLT)
.L1912:
	mov	r0, r4
	bl	_ZZN7asiopal9TCPClient12BeginConnectERKSt8functionIFvRKSt10shared_ptrINS_8ExecutorEEN4asio19basic_stream_socketINS7_2ip3tcpENS7_21stream_socket_serviceISA_EEEERKSt10error_codeEEENUlSG_NS9_23basic_resolver_iteratorISA_EEE_D1Ev(PLT)
	mov	r0, r4
	pop	{r4, pc}
	.cantunwind
	.fnend
	.size	_ZN4asio6detail7binder2IZN7asiopal9TCPClient12BeginConnectERKSt8functionIFvRKSt10shared_ptrINS2_8ExecutorEENS_19basic_stream_socketINS_2ip3tcpENS_21stream_socket_serviceISC_EEEERKSt10error_codeEEEUlSI_NSB_23basic_resolver_iteratorISC_EEE_SG_SO_ED2Ev, .-_ZN4asio6detail7binder2IZN7asiopal9TCPClient12BeginConnectERKSt8functionIFvRKSt10shared_ptrINS2_8ExecutorEENS_19basic_stream_socketINS_2ip3tcpENS_21stream_socket_serviceISC_EEEERKSt10error_codeEEEUlSI_NSB_23basic_resolver_iteratorISC_EEE_SG_SO_ED2Ev
	.set	_ZN4asio6detail7binder2IZN7asiopal9TCPClient12BeginConnectERKSt8functionIFvRKSt10shared_ptrINS2_8ExecutorEENS_19basic_stream_socketINS_2ip3tcpENS_21stream_socket_serviceISC_EEEERKSt10error_codeEEEUlSI_NSB_23basic_resolver_iteratorISC_EEE_SG_SO_ED1Ev,_ZN4asio6detail7binder2IZN7asiopal9TCPClient12BeginConnectERKSt8functionIFvRKSt10shared_ptrINS2_8ExecutorEENS_19basic_stream_socketINS_2ip3tcpENS_21stream_socket_serviceISC_EEEERKSt10error_codeEEEUlSI_NSB_23basic_resolver_iteratorISC_EEE_SG_SO_ED2Ev
	.align	2
	.syntax unified
	.arm
	.fpu vfp
	.type	_ZN4asio6detail7binder2INS0_15wrapped_handlerINS_10io_service6strandEZN7asiopal9TCPClient12BeginConnectERKSt8functionIFvRKSt10shared_ptrINS5_8ExecutorEENS_19basic_stream_socketINS_2ip3tcpENS_21stream_socket_serviceISF_EEEERKSt10error_codeEEEUlSL_NSE_23basic_resolver_iteratorISF_EEE_NS0_26is_continuation_if_runningEEESJ_SR_ED2Ev, %function
_ZN4asio6detail7binder2INS0_15wrapped_handlerINS_10io_service6strandEZN7asiopal9TCPClient12BeginConnectERKSt8functionIFvRKSt10shared_ptrINS5_8ExecutorEENS_19basic_stream_socketINS_2ip3tcpENS_21stream_socket_serviceISF_EEEERKSt10error_codeEEEUlSL_NSE_23basic_resolver_iteratorISF_EEE_NS0_26is_continuation_if_runningEEESJ_SR_ED2Ev:
	.fnstart
.LFB8761:
	@ args = 0, pretend = 0, frame = 0
	@ frame_needed = 0, uses_anonymous_args = 0
	push	{r4, lr}
	mov	r4, r0
	ldr	r0, [r0, #44]
	cmp	r0, #0
	beq	.L1918
	bl	_ZNSt16_Sp_counted_baseILN9__gnu_cxx12_Lock_policyE1EE10_M_releaseEv(PLT)
.L1918:
	add	r0, r4, #8
	bl	_ZZN7asiopal9TCPClient12BeginConnectERKSt8functionIFvRKSt10shared_ptrINS_8ExecutorEEN4asio19basic_stream_socketINS7_2ip3tcpENS7_21stream_socket_serviceISA_EEEERKSt10error_codeEEENUlSG_NS9_23basic_resolver_iteratorISA_EEE_D1Ev(PLT)
	mov	r0, r4
	pop	{r4, pc}
	.cantunwind
	.fnend
	.size	_ZN4asio6detail7binder2INS0_15wrapped_handlerINS_10io_service6strandEZN7asiopal9TCPClient12BeginConnectERKSt8functionIFvRKSt10shared_ptrINS5_8ExecutorEENS_19basic_stream_socketINS_2ip3tcpENS_21stream_socket_serviceISF_EEEERKSt10error_codeEEEUlSL_NSE_23basic_resolver_iteratorISF_EEE_NS0_26is_continuation_if_runningEEESJ_SR_ED2Ev, .-_ZN4asio6detail7binder2INS0_15wrapped_handlerINS_10io_service6strandEZN7asiopal9TCPClient12BeginConnectERKSt8functionIFvRKSt10shared_ptrINS5_8ExecutorEENS_19basic_stream_socketINS_2ip3tcpENS_21stream_socket_serviceISF_EEEERKSt10error_codeEEEUlSL_NSE_23basic_resolver_iteratorISF_EEE_NS0_26is_continuation_if_runningEEESJ_SR_ED2Ev
	.set	_ZN4asio6detail7binder2INS0_15wrapped_handlerINS_10io_service6strandEZN7asiopal9TCPClient12BeginConnectERKSt8functionIFvRKSt10shared_ptrINS5_8ExecutorEENS_19basic_stream_socketINS_2ip3tcpENS_21stream_socket_serviceISF_EEEERKSt10error_codeEEEUlSL_NSE_23basic_resolver_iteratorISF_EEE_NS0_26is_continuation_if_runningEEESJ_SR_ED1Ev,_ZN4asio6detail7binder2INS0_15wrapped_handlerINS_10io_service6strandEZN7asiopal9TCPClient12BeginConnectERKSt8functionIFvRKSt10shared_ptrINS5_8ExecutorEENS_19basic_stream_socketINS_2ip3tcpENS_21stream_socket_serviceISF_EEEERKSt10error_codeEEEUlSL_NSE_23basic_resolver_iteratorISF_EEE_NS0_26is_continuation_if_runningEEESJ_SR_ED2Ev
	.text
	.align	2
	.syntax unified
	.arm
	.fpu vfp
	.type	_ZZN7asiopal9TCPClient12BeginConnectERKSt8functionIFvRKSt10shared_ptrINS_8ExecutorEEN4asio19basic_stream_socketINS7_2ip3tcpENS7_21stream_socket_serviceISA_EEEERKSt10error_codeEEENUlSG_E0_D2Ev, %function
_ZZN7asiopal9TCPClient12BeginConnectERKSt8functionIFvRKSt10shared_ptrINS_8ExecutorEEN4asio19basic_stream_socketINS7_2ip3tcpENS7_21stream_socket_serviceISA_EEEERKSt10error_codeEEENUlSG_E0_D2Ev:
	.fnstart
.LFB6838:
	@ args = 0, pretend = 0, frame = 0
	@ frame_needed = 0, uses_anonymous_args = 0
	ldr	r3, [r0, #16]
	push	{r4, lr}
	.save {r4, lr}
	cmp	r3, #0
	mov	r4, r0
	beq	.L1924
	add	r1, r0, #8
	mov	r0, r1
	mov	r2, #3
	blx	r3
.L1924:
	ldr	r0, [r4, #4]
	cmp	r0, #0
	beq	.L1925
	bl	_ZNSt16_Sp_counted_baseILN9__gnu_cxx12_Lock_policyE1EE10_M_releaseEv(PLT)
.L1925:
	mov	r0, r4
	pop	{r4, pc}
	.personality	__gxx_personality_v0
	.handlerdata
.LLSDA6838:
	.byte	0xff
	.byte	0xff
	.byte	0x1
	.uleb128 .LLSDACSE6838-.LLSDACSB6838
.LLSDACSB6838:
.LLSDACSE6838:
	.text
	.fnend
	.size	_ZZN7asiopal9TCPClient12BeginConnectERKSt8functionIFvRKSt10shared_ptrINS_8ExecutorEEN4asio19basic_stream_socketINS7_2ip3tcpENS7_21stream_socket_serviceISA_EEEERKSt10error_codeEEENUlSG_E0_D2Ev, .-_ZZN7asiopal9TCPClient12BeginConnectERKSt8functionIFvRKSt10shared_ptrINS_8ExecutorEEN4asio19basic_stream_socketINS7_2ip3tcpENS7_21stream_socket_serviceISA_EEEERKSt10error_codeEEENUlSG_E0_D2Ev
	.set	_ZZN7asiopal9TCPClient12BeginConnectERKSt8functionIFvRKSt10shared_ptrINS_8ExecutorEEN4asio19basic_stream_socketINS7_2ip3tcpENS7_21stream_socket_serviceISA_EEEERKSt10error_codeEEENUlSG_E0_D1Ev,_ZZN7asiopal9TCPClient12BeginConnectERKSt8functionIFvRKSt10shared_ptrINS_8ExecutorEEN4asio19basic_stream_socketINS7_2ip3tcpENS7_21stream_socket_serviceISA_EEEERKSt10error_codeEEENUlSG_E0_D2Ev
	.section	.text.unlikely
	.align	2
	.syntax unified
	.arm
	.fpu vfp
	.type	_ZN4asio6detail18completion_handlerINS0_7binder1IZN7asiopal9TCPClient12BeginConnectERKSt8functionIFvRKSt10shared_ptrINS3_8ExecutorEENS_19basic_stream_socketINS_2ip3tcpENS_21stream_socket_serviceISD_EEEERKSt10error_codeEEEUlSJ_E0_SH_EEE3ptr5resetEv, %function
_ZN4asio6detail18completion_handlerINS0_7binder1IZN7asiopal9TCPClient12BeginConnectERKSt8functionIFvRKSt10shared_ptrINS3_8ExecutorEENS_19basic_stream_socketINS_2ip3tcpENS_21stream_socket_serviceISD_EEEERKSt10error_codeEEEUlSJ_E0_SH_EEE3ptr5resetEv:
	.fnstart
.LFB9685:
	@ args = 0, pretend = 0, frame = 0
	@ frame_needed = 0, uses_anonymous_args = 0
	push	{r4, r5, r6, lr}
	mov	r5, r0
	ldr	r0, [r0, #8]
	ldr	r6, .L1951
	cmp	r0, #0
.LPIC100:
	add	r6, pc, r6
	beq	.L1934
	add	r0, r0, #12
	bl	_ZZN7asiopal9TCPClient12BeginConnectERKSt8functionIFvRKSt10shared_ptrINS_8ExecutorEEN4asio19basic_stream_socketINS7_2ip3tcpENS7_21stream_socket_serviceISA_EEEERKSt10error_codeEEENUlSG_E0_D1Ev(PLT)
	mov	r3, #0
	str	r3, [r5, #8]
.L1934:
	ldr	r4, [r5, #4]
	cmp	r4, #0
	popeq	{r4, r5, r6, pc}
	ldr	r3, .L1951+4
	ldr	r3, [r6, r3]
	ldr	r0, [r3]
	bl	pthread_getspecific(PLT)
	cmp	r0, #0
	beq	.L1936
	ldr	r3, [r0, #4]
	cmp	r3, #0
	beq	.L1936
	ldr	r2, [r3]
	cmp	r2, #0
	ldrbeq	r2, [r4, #44]	@ zero_extendqisi2
	strbeq	r2, [r4]
	streq	r4, [r3]
	beq	.L1937
.L1936:
	mov	r0, r4
	bl	_ZdlPv(PLT)
.L1937:
	mov	r3, #0
	str	r3, [r5, #4]
	pop	{r4, r5, r6, pc}
.L1952:
	.align	2
.L1951:
	.word	_GLOBAL_OFFSET_TABLE_-(.LPIC100+8)
	.word	_ZN4asio6detail10call_stackINS0_15task_io_serviceENS0_27task_io_service_thread_infoEE4top_E(GOT)
	.cantunwind
	.fnend
	.size	_ZN4asio6detail18completion_handlerINS0_7binder1IZN7asiopal9TCPClient12BeginConnectERKSt8functionIFvRKSt10shared_ptrINS3_8ExecutorEENS_19basic_stream_socketINS_2ip3tcpENS_21stream_socket_serviceISD_EEEERKSt10error_codeEEEUlSJ_E0_SH_EEE3ptr5resetEv, .-_ZN4asio6detail18completion_handlerINS0_7binder1IZN7asiopal9TCPClient12BeginConnectERKSt8functionIFvRKSt10shared_ptrINS3_8ExecutorEENS_19basic_stream_socketINS_2ip3tcpENS_21stream_socket_serviceISD_EEEERKSt10error_codeEEEUlSJ_E0_SH_EEE3ptr5resetEv
	.align	2
	.syntax unified
	.arm
	.fpu vfp
	.type	_ZN4asio6detail18completion_handlerINS0_7binder1INS0_15wrapped_handlerINS_10io_service6strandEZN7asiopal9TCPClient12BeginConnectERKSt8functionIFvRKSt10shared_ptrINS6_8ExecutorEENS_19basic_stream_socketINS_2ip3tcpENS_21stream_socket_serviceISG_EEEERKSt10error_codeEEEUlSM_E0_NS0_26is_continuation_if_runningEEESK_EEE3ptr5resetEv, %function
_ZN4asio6detail18completion_handlerINS0_7binder1INS0_15wrapped_handlerINS_10io_service6strandEZN7asiopal9TCPClient12BeginConnectERKSt8functionIFvRKSt10shared_ptrINS6_8ExecutorEENS_19basic_stream_socketINS_2ip3tcpENS_21stream_socket_serviceISG_EEEERKSt10error_codeEEEUlSM_E0_NS0_26is_continuation_if_runningEEESK_EEE3ptr5resetEv:
	.fnstart
.LFB8770:
	@ args = 0, pretend = 0, frame = 0
	@ frame_needed = 0, uses_anonymous_args = 0
	push	{r4, r5, r6, lr}
	mov	r5, r0
	ldr	r0, [r0, #8]
	ldr	r6, .L1971
	cmp	r0, #0
.LPIC101:
	add	r6, pc, r6
	beq	.L1954
	add	r0, r0, #20
	bl	_ZZN7asiopal9TCPClient12BeginConnectERKSt8functionIFvRKSt10shared_ptrINS_8ExecutorEEN4asio19basic_stream_socketINS7_2ip3tcpENS7_21stream_socket_serviceISA_EEEERKSt10error_codeEEENUlSG_E0_D1Ev(PLT)
	mov	r3, #0
	str	r3, [r5, #8]
.L1954:
	ldr	r4, [r5, #4]
	cmp	r4, #0
	popeq	{r4, r5, r6, pc}
	ldr	r3, .L1971+4
	ldr	r3, [r6, r3]
	ldr	r0, [r3]
	bl	pthread_getspecific(PLT)
	cmp	r0, #0
	beq	.L1956
	ldr	r3, [r0, #4]
	cmp	r3, #0
	beq	.L1956
	ldr	r2, [r3]
	cmp	r2, #0
	ldrbeq	r2, [r4, #52]	@ zero_extendqisi2
	strbeq	r2, [r4]
	streq	r4, [r3]
	beq	.L1957
.L1956:
	mov	r0, r4
	bl	_ZdlPv(PLT)
.L1957:
	mov	r3, #0
	str	r3, [r5, #4]
	pop	{r4, r5, r6, pc}
.L1972:
	.align	2
.L1971:
	.word	_GLOBAL_OFFSET_TABLE_-(.LPIC101+8)
	.word	_ZN4asio6detail10call_stackINS0_15task_io_serviceENS0_27task_io_service_thread_infoEE4top_E(GOT)
	.cantunwind
	.fnend
	.size	_ZN4asio6detail18completion_handlerINS0_7binder1INS0_15wrapped_handlerINS_10io_service6strandEZN7asiopal9TCPClient12BeginConnectERKSt8functionIFvRKSt10shared_ptrINS6_8ExecutorEENS_19basic_stream_socketINS_2ip3tcpENS_21stream_socket_serviceISG_EEEERKSt10error_codeEEEUlSM_E0_NS0_26is_continuation_if_runningEEESK_EEE3ptr5resetEv, .-_ZN4asio6detail18completion_handlerINS0_7binder1INS0_15wrapped_handlerINS_10io_service6strandEZN7asiopal9TCPClient12BeginConnectERKSt8functionIFvRKSt10shared_ptrINS6_8ExecutorEENS_19basic_stream_socketINS_2ip3tcpENS_21stream_socket_serviceISG_EEEERKSt10error_codeEEEUlSM_E0_NS0_26is_continuation_if_runningEEESK_EEE3ptr5resetEv
	.text
	.align	2
	.syntax unified
	.arm
	.fpu vfp
	.type	_ZN4asio6detail18completion_handlerINS0_17rewrapped_handlerINS0_7binder1INS0_15wrapped_handlerINS_10io_service6strandEZN7asiopal9TCPClient12BeginConnectERKSt8functionIFvRKSt10shared_ptrINS7_8ExecutorEENS_19basic_stream_socketINS_2ip3tcpENS_21stream_socket_serviceISH_EEEERKSt10error_codeEEEUlSN_E0_NS0_26is_continuation_if_runningEEESL_EESS_EEE3ptr5resetEv, %function
_ZN4asio6detail18completion_handlerINS0_17rewrapped_handlerINS0_7binder1INS0_15wrapped_handlerINS_10io_service6strandEZN7asiopal9TCPClient12BeginConnectERKSt8functionIFvRKSt10shared_ptrINS7_8ExecutorEENS_19basic_stream_socketINS_2ip3tcpENS_21stream_socket_serviceISH_EEEERKSt10error_codeEEEUlSN_E0_NS0_26is_continuation_if_runningEEESL_EESS_EEE3ptr5resetEv:
	.fnstart
.LFB9547:
	@ args = 0, pretend = 0, frame = 0
	@ frame_needed = 0, uses_anonymous_args = 0
	push	{r4, r5, r6, lr}
	mov	r4, r0
	ldr	r5, [r0, #8]
	ldr	r6, .L1992
	cmp	r5, #0
.LPIC102:
	add	r6, pc, r6
	beq	.L1974
	add	r0, r5, #44
	bl	_ZZN7asiopal9TCPClient12BeginConnectERKSt8functionIFvRKSt10shared_ptrINS_8ExecutorEEN4asio19basic_stream_socketINS7_2ip3tcpENS7_21stream_socket_serviceISA_EEEERKSt10error_codeEEENUlSG_E0_D1Ev(PLT)
	add	r0, r5, #12
	bl	_ZZN7asiopal9TCPClient12BeginConnectERKSt8functionIFvRKSt10shared_ptrINS_8ExecutorEEN4asio19basic_stream_socketINS7_2ip3tcpENS7_21stream_socket_serviceISA_EEEERKSt10error_codeEEENUlSG_E0_D1Ev(PLT)
	mov	r3, #0
	str	r3, [r4, #8]
.L1974:
	ldr	r5, [r4, #4]
	cmp	r5, #0
	popeq	{r4, r5, r6, pc}
	ldr	r3, .L1992+4
	ldr	r3, [r6, r3]
	ldr	r0, [r3]
	bl	pthread_getspecific(PLT)
	cmp	r0, #0
	beq	.L1976
	ldr	r3, [r0, #4]
	cmp	r3, #0
	beq	.L1976
	ldr	r2, [r3]
	cmp	r2, #0
	beq	.L1991
.L1976:
	mov	r0, r5
	bl	_ZdlPv(PLT)
.L1977:
	mov	r3, #0
	str	r3, [r4, #4]
	pop	{r4, r5, r6, pc}
.L1991:
	ldrb	r2, [r5, #76]	@ zero_extendqisi2
	strb	r2, [r5]
	str	r5, [r3]
	b	.L1977
.L1993:
	.align	2
.L1992:
	.word	_GLOBAL_OFFSET_TABLE_-(.LPIC102+8)
	.word	_ZN4asio6detail10call_stackINS0_15task_io_serviceENS0_27task_io_service_thread_infoEE4top_E(GOT)
	.cantunwind
	.fnend
	.size	_ZN4asio6detail18completion_handlerINS0_17rewrapped_handlerINS0_7binder1INS0_15wrapped_handlerINS_10io_service6strandEZN7asiopal9TCPClient12BeginConnectERKSt8functionIFvRKSt10shared_ptrINS7_8ExecutorEENS_19basic_stream_socketINS_2ip3tcpENS_21stream_socket_serviceISH_EEEERKSt10error_codeEEEUlSN_E0_NS0_26is_continuation_if_runningEEESL_EESS_EEE3ptr5resetEv, .-_ZN4asio6detail18completion_handlerINS0_17rewrapped_handlerINS0_7binder1INS0_15wrapped_handlerINS_10io_service6strandEZN7asiopal9TCPClient12BeginConnectERKSt8functionIFvRKSt10shared_ptrINS7_8ExecutorEENS_19basic_stream_socketINS_2ip3tcpENS_21stream_socket_serviceISH_EEEERKSt10error_codeEEEUlSN_E0_NS0_26is_continuation_if_runningEEESL_EESS_EEE3ptr5resetEv
	.section	.text.unlikely
	.align	2
	.syntax unified
	.arm
	.fpu vfp
	.type	_ZN4asio6detail26reactive_socket_connect_opINS0_15wrapped_handlerINS_10io_service6strandEZN7asiopal9TCPClient12BeginConnectERKSt8functionIFvRKSt10shared_ptrINS5_8ExecutorEENS_19basic_stream_socketINS_2ip3tcpENS_21stream_socket_serviceISF_EEEERKSt10error_codeEEEUlSL_E0_NS0_26is_continuation_if_runningEEEE3ptr5resetEv, %function
_ZN4asio6detail26reactive_socket_connect_opINS0_15wrapped_handlerINS_10io_service6strandEZN7asiopal9TCPClient12BeginConnectERKSt8functionIFvRKSt10shared_ptrINS5_8ExecutorEENS_19basic_stream_socketINS_2ip3tcpENS_21stream_socket_serviceISF_EEEERKSt10error_codeEEEUlSL_E0_NS0_26is_continuation_if_runningEEEE3ptr5resetEv:
	.fnstart
.LFB8778:
	@ args = 0, pretend = 0, frame = 0
	@ frame_needed = 0, uses_anonymous_args = 0
	push	{r4, r5, r6, lr}
	mov	r5, r0
	ldr	r0, [r0, #8]
	ldr	r6, .L2012
	cmp	r0, #0
.LPIC103:
	add	r6, pc, r6
	beq	.L1995
	add	r0, r0, #40
	bl	_ZZN7asiopal9TCPClient12BeginConnectERKSt8functionIFvRKSt10shared_ptrINS_8ExecutorEEN4asio19basic_stream_socketINS7_2ip3tcpENS7_21stream_socket_serviceISA_EEEERKSt10error_codeEEENUlSG_E0_D1Ev(PLT)
	mov	r3, #0
	str	r3, [r5, #8]
.L1995:
	ldr	r4, [r5, #4]
	cmp	r4, #0
	popeq	{r4, r5, r6, pc}
	ldr	r3, .L2012+4
	ldr	r3, [r6, r3]
	ldr	r0, [r3]
	bl	pthread_getspecific(PLT)
	cmp	r0, #0
	beq	.L1997
	ldr	r3, [r0, #4]
	cmp	r3, #0
	beq	.L1997
	ldr	r2, [r3]
	cmp	r2, #0
	ldrbeq	r2, [r4, #64]	@ zero_extendqisi2
	strbeq	r2, [r4]
	streq	r4, [r3]
	beq	.L1998
.L1997:
	mov	r0, r4
	bl	_ZdlPv(PLT)
.L1998:
	mov	r3, #0
	str	r3, [r5, #4]
	pop	{r4, r5, r6, pc}
.L2013:
	.align	2
.L2012:
	.word	_GLOBAL_OFFSET_TABLE_-(.LPIC103+8)
	.word	_ZN4asio6detail10call_stackINS0_15task_io_serviceENS0_27task_io_service_thread_infoEE4top_E(GOT)
	.cantunwind
	.fnend
	.size	_ZN4asio6detail26reactive_socket_connect_opINS0_15wrapped_handlerINS_10io_service6strandEZN7asiopal9TCPClient12BeginConnectERKSt8functionIFvRKSt10shared_ptrINS5_8ExecutorEENS_19basic_stream_socketINS_2ip3tcpENS_21stream_socket_serviceISF_EEEERKSt10error_codeEEEUlSL_E0_NS0_26is_continuation_if_runningEEEE3ptr5resetEv, .-_ZN4asio6detail26reactive_socket_connect_opINS0_15wrapped_handlerINS_10io_service6strandEZN7asiopal9TCPClient12BeginConnectERKSt8functionIFvRKSt10shared_ptrINS5_8ExecutorEENS_19basic_stream_socketINS_2ip3tcpENS_21stream_socket_serviceISF_EEEERKSt10error_codeEEEUlSL_E0_NS0_26is_continuation_if_runningEEEE3ptr5resetEv
	.text
	.align	2
	.syntax unified
	.arm
	.fpu vfp
	.type	_ZZN7asiopal9TCPClient19HandleResolveResultERKSt8functionIFvRKSt10shared_ptrINS_8ExecutorEEN4asio19basic_stream_socketINS7_2ip3tcpENS7_21stream_socket_serviceISA_EEEERKSt10error_codeEERKNS9_23basic_resolver_iteratorISA_EESG_ENUlSG_SM_E_D2Ev, %function
_ZZN7asiopal9TCPClient19HandleResolveResultERKSt8functionIFvRKSt10shared_ptrINS_8ExecutorEEN4asio19basic_stream_socketINS7_2ip3tcpENS7_21stream_socket_serviceISA_EEEERKSt10error_codeEERKNS9_23basic_resolver_iteratorISA_EESG_ENUlSG_SM_E_D2Ev:
	.fnstart
.LFB6852:
	@ args = 0, pretend = 0, frame = 0
	@ frame_needed = 0, uses_anonymous_args = 0
	ldr	r3, [r0, #16]
	push	{r4, lr}
	.save {r4, lr}
	cmp	r3, #0
	mov	r4, r0
	beq	.L2015
	add	r1, r0, #8
	mov	r0, r1
	mov	r2, #3
	blx	r3
.L2015:
	ldr	r0, [r4, #4]
	cmp	r0, #0
	beq	.L2016
	bl	_ZNSt16_Sp_counted_baseILN9__gnu_cxx12_Lock_policyE1EE10_M_releaseEv(PLT)
.L2016:
	mov	r0, r4
	pop	{r4, pc}
	.personality	__gxx_personality_v0
	.handlerdata
.LLSDA6852:
	.byte	0xff
	.byte	0xff
	.byte	0x1
	.uleb128 .LLSDACSE6852-.LLSDACSB6852
.LLSDACSB6852:
.LLSDACSE6852:
	.text
	.fnend
	.size	_ZZN7asiopal9TCPClient19HandleResolveResultERKSt8functionIFvRKSt10shared_ptrINS_8ExecutorEEN4asio19basic_stream_socketINS7_2ip3tcpENS7_21stream_socket_serviceISA_EEEERKSt10error_codeEERKNS9_23basic_resolver_iteratorISA_EESG_ENUlSG_SM_E_D2Ev, .-_ZZN7asiopal9TCPClient19HandleResolveResultERKSt8functionIFvRKSt10shared_ptrINS_8ExecutorEEN4asio19basic_stream_socketINS7_2ip3tcpENS7_21stream_socket_serviceISA_EEEERKSt10error_codeEERKNS9_23basic_resolver_iteratorISA_EESG_ENUlSG_SM_E_D2Ev
	.set	_ZZN7asiopal9TCPClient19HandleResolveResultERKSt8functionIFvRKSt10shared_ptrINS_8ExecutorEEN4asio19basic_stream_socketINS7_2ip3tcpENS7_21stream_socket_serviceISA_EEEERKSt10error_codeEERKNS9_23basic_resolver_iteratorISA_EESG_ENUlSG_SM_E_D1Ev,_ZZN7asiopal9TCPClient19HandleResolveResultERKSt8functionIFvRKSt10shared_ptrINS_8ExecutorEEN4asio19basic_stream_socketINS7_2ip3tcpENS7_21stream_socket_serviceISA_EEEERKSt10error_codeEERKNS9_23basic_resolver_iteratorISA_EESG_ENUlSG_SM_E_D2Ev
	.section	.text.unlikely
	.align	2
	.syntax unified
	.arm
	.fpu vfp
	.type	_ZN4asio6detail7binder2IZN7asiopal9TCPClient19HandleResolveResultERKSt8functionIFvRKSt10shared_ptrINS2_8ExecutorEENS_19basic_stream_socketINS_2ip3tcpENS_21stream_socket_serviceISC_EEEERKSt10error_codeEERKNSB_23basic_resolver_iteratorISC_EESI_EUlSI_SO_E_SG_SO_ED2Ev, %function
_ZN4asio6detail7binder2IZN7asiopal9TCPClient19HandleResolveResultERKSt8functionIFvRKSt10shared_ptrINS2_8ExecutorEENS_19basic_stream_socketINS_2ip3tcpENS_21stream_socket_serviceISC_EEEERKSt10error_codeEERKNSB_23basic_resolver_iteratorISC_EESI_EUlSI_SO_E_SG_SO_ED2Ev:
	.fnstart
.LFB8432:
	@ args = 0, pretend = 0, frame = 0
	@ frame_needed = 0, uses_anonymous_args = 0
	push	{r4, lr}
	mov	r4, r0
	ldr	r0, [r0, #36]
	cmp	r0, #0
	beq	.L2025
	bl	_ZNSt16_Sp_counted_baseILN9__gnu_cxx12_Lock_policyE1EE10_M_releaseEv(PLT)
.L2025:
	mov	r0, r4
	bl	_ZZN7asiopal9TCPClient19HandleResolveResultERKSt8functionIFvRKSt10shared_ptrINS_8ExecutorEEN4asio19basic_stream_socketINS7_2ip3tcpENS7_21stream_socket_serviceISA_EEEERKSt10error_codeEERKNS9_23basic_resolver_iteratorISA_EESG_ENUlSG_SM_E_D1Ev(PLT)
	mov	r0, r4
	pop	{r4, pc}
	.cantunwind
	.fnend
	.size	_ZN4asio6detail7binder2IZN7asiopal9TCPClient19HandleResolveResultERKSt8functionIFvRKSt10shared_ptrINS2_8ExecutorEENS_19basic_stream_socketINS_2ip3tcpENS_21stream_socket_serviceISC_EEEERKSt10error_codeEERKNSB_23basic_resolver_iteratorISC_EESI_EUlSI_SO_E_SG_SO_ED2Ev, .-_ZN4asio6detail7binder2IZN7asiopal9TCPClient19HandleResolveResultERKSt8functionIFvRKSt10shared_ptrINS2_8ExecutorEENS_19basic_stream_socketINS_2ip3tcpENS_21stream_socket_serviceISC_EEEERKSt10error_codeEERKNSB_23basic_resolver_iteratorISC_EESI_EUlSI_SO_E_SG_SO_ED2Ev
	.set	_ZN4asio6detail7binder2IZN7asiopal9TCPClient19HandleResolveResultERKSt8functionIFvRKSt10shared_ptrINS2_8ExecutorEENS_19basic_stream_socketINS_2ip3tcpENS_21stream_socket_serviceISC_EEEERKSt10error_codeEERKNSB_23basic_resolver_iteratorISC_EESI_EUlSI_SO_E_SG_SO_ED1Ev,_ZN4asio6detail7binder2IZN7asiopal9TCPClient19HandleResolveResultERKSt8functionIFvRKSt10shared_ptrINS2_8ExecutorEENS_19basic_stream_socketINS_2ip3tcpENS_21stream_socket_serviceISC_EEEERKSt10error_codeEERKNSB_23basic_resolver_iteratorISC_EESI_EUlSI_SO_E_SG_SO_ED2Ev
	.align	2
	.syntax unified
	.arm
	.fpu vfp
	.type	_ZZN7asiopal9TCPClient16PostConnectErrorERKSt8functionIFvRKSt10shared_ptrINS_8ExecutorEEN4asio19basic_stream_socketINS7_2ip3tcpENS7_21stream_socket_serviceISA_EEEERKSt10error_codeEESG_ENUlvE_D2Ev, %function
_ZZN7asiopal9TCPClient16PostConnectErrorERKSt8functionIFvRKSt10shared_ptrINS_8ExecutorEEN4asio19basic_stream_socketINS7_2ip3tcpENS7_21stream_socket_serviceISA_EEEERKSt10error_codeEESG_ENUlvE_D2Ev:
	.fnstart
.LFB6887:
	@ args = 0, pretend = 0, frame = 0
	@ frame_needed = 0, uses_anonymous_args = 0
	ldr	r3, [r0, #24]
	push	{r4, lr}
	.save {r4, lr}
	cmp	r3, #0
	mov	r4, r0
	beq	.L2031
	add	r1, r0, #16
	mov	r0, r1
	mov	r2, #3
	blx	r3
.L2031:
	ldr	r0, [r4, #4]
	cmp	r0, #0
	beq	.L2032
	bl	_ZNSt16_Sp_counted_baseILN9__gnu_cxx12_Lock_policyE1EE10_M_releaseEv(PLT)
.L2032:
	mov	r0, r4
	pop	{r4, pc}
	.personality	__gxx_personality_v0
	.handlerdata
.LLSDA6887:
	.byte	0xff
	.byte	0xff
	.byte	0x1
	.uleb128 .LLSDACSE6887-.LLSDACSB6887
.LLSDACSB6887:
.LLSDACSE6887:
	.section	.text.unlikely
	.fnend
	.size	_ZZN7asiopal9TCPClient16PostConnectErrorERKSt8functionIFvRKSt10shared_ptrINS_8ExecutorEEN4asio19basic_stream_socketINS7_2ip3tcpENS7_21stream_socket_serviceISA_EEEERKSt10error_codeEESG_ENUlvE_D2Ev, .-_ZZN7asiopal9TCPClient16PostConnectErrorERKSt8functionIFvRKSt10shared_ptrINS_8ExecutorEEN4asio19basic_stream_socketINS7_2ip3tcpENS7_21stream_socket_serviceISA_EEEERKSt10error_codeEESG_ENUlvE_D2Ev
	.set	_ZZN7asiopal9TCPClient16PostConnectErrorERKSt8functionIFvRKSt10shared_ptrINS_8ExecutorEEN4asio19basic_stream_socketINS7_2ip3tcpENS7_21stream_socket_serviceISA_EEEERKSt10error_codeEESG_ENUlvE_D1Ev,_ZZN7asiopal9TCPClient16PostConnectErrorERKSt8functionIFvRKSt10shared_ptrINS_8ExecutorEEN4asio19basic_stream_socketINS7_2ip3tcpENS7_21stream_socket_serviceISA_EEEERKSt10error_codeEESG_ENUlvE_D2Ev
	.text
	.align	2
	.syntax unified
	.arm
	.fpu vfp
	.type	_ZZN7asiopal9TCPClient12BeginConnectERKSt8functionIFvRKSt10shared_ptrINS_8ExecutorEEN4asio19basic_stream_socketINS7_2ip3tcpENS7_21stream_socket_serviceISA_EEEERKSt10error_codeEEENUlSG_NS9_23basic_resolver_iteratorISA_EEE_C2EOSN_, %function
_ZZN7asiopal9TCPClient12BeginConnectERKSt8functionIFvRKSt10shared_ptrINS_8ExecutorEEN4asio19basic_stream_socketINS7_2ip3tcpENS7_21stream_socket_serviceISA_EEEERKSt10error_codeEEENUlSG_NS9_23basic_resolver_iteratorISA_EEE_C2EOSN_:
	.fnstart
.LFB6824:
	@ args = 0, pretend = 0, frame = 0
	@ frame_needed = 0, uses_anonymous_args = 0
	push	{r4, lr}
	.save {r4, lr}
	mov	r4, r0
	mov	r2, #0
	ldr	r0, [r1]
	str	r2, [r4, #4]
	ldr	ip, [r1, #4]
	str	r0, [r4]
	str	r2, [r1, #4]
	add	r0, r4, #8
	str	ip, [r4, #4]
	str	r2, [r1], #8
.LEHB73:
	bl	_ZNSt8functionIFvRKSt10shared_ptrIN7asiopal8ExecutorEEN4asio19basic_stream_socketINS6_2ip3tcpENS6_21stream_socket_serviceIS9_EEEERKSt10error_codeEEC1ERKSH_(PLT)
.LEHE73:
	mov	r0, r4
	pop	{r4, pc}
.L2043:
	ldr	r0, [r4, #4]
	cmp	r0, #0
	beq	.L2042
	bl	_ZNSt16_Sp_counted_baseILN9__gnu_cxx12_Lock_policyE1EE10_M_releaseEv(PLT)
.L2042:
.LEHB74:
	bl	__cxa_end_cleanup(PLT)
.LEHE74:
	.personality	__gxx_personality_v0
	.handlerdata
.LLSDA6824:
	.byte	0xff
	.byte	0xff
	.byte	0x1
	.uleb128 .LLSDACSE6824-.LLSDACSB6824
.LLSDACSB6824:
	.uleb128 .LEHB73-.LFB6824
	.uleb128 .LEHE73-.LEHB73
	.uleb128 .L2043-.LFB6824
	.uleb128 0
	.uleb128 .LEHB74-.LFB6824
	.uleb128 .LEHE74-.LEHB74
	.uleb128 0
	.uleb128 0
.LLSDACSE6824:
	.text
	.fnend
	.size	_ZZN7asiopal9TCPClient12BeginConnectERKSt8functionIFvRKSt10shared_ptrINS_8ExecutorEEN4asio19basic_stream_socketINS7_2ip3tcpENS7_21stream_socket_serviceISA_EEEERKSt10error_codeEEENUlSG_NS9_23basic_resolver_iteratorISA_EEE_C2EOSN_, .-_ZZN7asiopal9TCPClient12BeginConnectERKSt8functionIFvRKSt10shared_ptrINS_8ExecutorEEN4asio19basic_stream_socketINS7_2ip3tcpENS7_21stream_socket_serviceISA_EEEERKSt10error_codeEEENUlSG_NS9_23basic_resolver_iteratorISA_EEE_C2EOSN_
	.set	_ZZN7asiopal9TCPClient12BeginConnectERKSt8functionIFvRKSt10shared_ptrINS_8ExecutorEEN4asio19basic_stream_socketINS7_2ip3tcpENS7_21stream_socket_serviceISA_EEEERKSt10error_codeEEENUlSG_NS9_23basic_resolver_iteratorISA_EEE_C1EOSN_,_ZZN7asiopal9TCPClient12BeginConnectERKSt8functionIFvRKSt10shared_ptrINS_8ExecutorEEN4asio19basic_stream_socketINS7_2ip3tcpENS7_21stream_socket_serviceISA_EEEERKSt10error_codeEEENUlSG_NS9_23basic_resolver_iteratorISA_EEE_C2EOSN_
	.align	2
	.syntax unified
	.arm
	.fpu vfp
	.type	_ZZN7asiopal9TCPClient12BeginConnectERKSt8functionIFvRKSt10shared_ptrINS_8ExecutorEEN4asio19basic_stream_socketINS7_2ip3tcpENS7_21stream_socket_serviceISA_EEEERKSt10error_codeEEENUlSG_E0_C2EOSL_, %function
_ZZN7asiopal9TCPClient12BeginConnectERKSt8functionIFvRKSt10shared_ptrINS_8ExecutorEEN4asio19basic_stream_socketINS7_2ip3tcpENS7_21stream_socket_serviceISA_EEEERKSt10error_codeEEENUlSG_E0_C2EOSL_:
	.fnstart
.LFB6841:
	@ args = 0, pretend = 0, frame = 0
	@ frame_needed = 0, uses_anonymous_args = 0
	push	{r4, lr}
	.save {r4, lr}
	mov	r4, r0
	mov	r2, #0
	ldr	r0, [r1]
	str	r2, [r4, #4]
	ldr	ip, [r1, #4]
	str	r0, [r4]
	str	r2, [r1, #4]
	add	r0, r4, #8
	str	ip, [r4, #4]
	str	r2, [r1], #8
.LEHB75:
	bl	_ZNSt8functionIFvRKSt10shared_ptrIN7asiopal8ExecutorEEN4asio19basic_stream_socketINS6_2ip3tcpENS6_21stream_socket_serviceIS9_EEEERKSt10error_codeEEC1ERKSH_(PLT)
.LEHE75:
	mov	r0, r4
	pop	{r4, pc}
.L2053:
	ldr	r0, [r4, #4]
	cmp	r0, #0
	beq	.L2052
	bl	_ZNSt16_Sp_counted_baseILN9__gnu_cxx12_Lock_policyE1EE10_M_releaseEv(PLT)
.L2052:
.LEHB76:
	bl	__cxa_end_cleanup(PLT)
.LEHE76:
	.personality	__gxx_personality_v0
	.handlerdata
.LLSDA6841:
	.byte	0xff
	.byte	0xff
	.byte	0x1
	.uleb128 .LLSDACSE6841-.LLSDACSB6841
.LLSDACSB6841:
	.uleb128 .LEHB75-.LFB6841
	.uleb128 .LEHE75-.LEHB75
	.uleb128 .L2053-.LFB6841
	.uleb128 0
	.uleb128 .LEHB76-.LFB6841
	.uleb128 .LEHE76-.LEHB76
	.uleb128 0
	.uleb128 0
.LLSDACSE6841:
	.text
	.fnend
