	.arch armv6
	.eabi_attribute 28, 1
	.eabi_attribute 20, 1
	.eabi_attribute 21, 1
	.eabi_attribute 23, 3
	.eabi_attribute 24, 1
	.eabi_attribute 25, 1
	.eabi_attribute 26, 2
	.eabi_attribute 30, 2
	.eabi_attribute 34, 1
	.eabi_attribute 18, 4
	.file	"TCPClientIOHandler.cpp"
	.section	.text._ZNK9__gnu_cxx24__concurrence_lock_error4whatEv,"axG",%progbits,_ZNK9__gnu_cxx24__concurrence_lock_error4whatEv,comdat
	.align	2
	.weak	_ZNK9__gnu_cxx24__concurrence_lock_error4whatEv
	.syntax unified
	.arm
	.fpu vfp
	.type	_ZNK9__gnu_cxx24__concurrence_lock_error4whatEv, %function
_ZNK9__gnu_cxx24__concurrence_lock_error4whatEv:
	.fnstart
.LFB589:
	@ args = 0, pretend = 0, frame = 0
	@ frame_needed = 0, uses_anonymous_args = 0
	@ link register save eliminated.
	ldr	r0, .L2
.LPIC0:
	add	r0, pc, r0
	bx	lr
.L3:
	.align	2
.L2:
	.word	.LC0-(.LPIC0+8)
	.cantunwind
	.fnend
	.size	_ZNK9__gnu_cxx24__concurrence_lock_error4whatEv, .-_ZNK9__gnu_cxx24__concurrence_lock_error4whatEv
	.section	.text._ZNK9__gnu_cxx26__concurrence_unlock_error4whatEv,"axG",%progbits,_ZNK9__gnu_cxx26__concurrence_unlock_error4whatEv,comdat
	.align	2
	.weak	_ZNK9__gnu_cxx26__concurrence_unlock_error4whatEv
	.syntax unified
	.arm
	.fpu vfp
	.type	_ZNK9__gnu_cxx26__concurrence_unlock_error4whatEv, %function
_ZNK9__gnu_cxx26__concurrence_unlock_error4whatEv:
	.fnstart
.LFB590:
	@ args = 0, pretend = 0, frame = 0
	@ frame_needed = 0, uses_anonymous_args = 0
	@ link register save eliminated.
	ldr	r0, .L5
.LPIC1:
	add	r0, pc, r0
	bx	lr
.L6:
	.align	2
.L5:
	.word	.LC1-(.LPIC1+8)
	.cantunwind
	.fnend
	.size	_ZNK9__gnu_cxx26__concurrence_unlock_error4whatEv, .-_ZNK9__gnu_cxx26__concurrence_unlock_error4whatEv
	.section	.text._ZNK4asio6detail15system_category4nameEv,"axG",%progbits,_ZNK4asio6detail15system_category4nameEv,comdat
	.align	2
	.weak	_ZNK4asio6detail15system_category4nameEv
	.syntax unified
	.arm
	.fpu vfp
	.type	_ZNK4asio6detail15system_category4nameEv, %function
_ZNK4asio6detail15system_category4nameEv:
	.fnstart
.LFB2669:
	@ args = 0, pretend = 0, frame = 0
	@ frame_needed = 0, uses_anonymous_args = 0
	@ link register save eliminated.
	ldr	r0, .L8
.LPIC2:
	add	r0, pc, r0
	bx	lr
.L9:
	.align	2
.L8:
	.word	.LC2-(.LPIC2+8)
	.cantunwind
	.fnend
	.size	_ZNK4asio6detail15system_category4nameEv, .-_ZNK4asio6detail15system_category4nameEv
	.section	.text._ZNK4asio5error6detail14netdb_category4nameEv,"axG",%progbits,_ZNK4asio5error6detail14netdb_category4nameEv,comdat
	.align	2
	.weak	_ZNK4asio5error6detail14netdb_category4nameEv
	.syntax unified
	.arm
	.fpu vfp
	.type	_ZNK4asio5error6detail14netdb_category4nameEv, %function
_ZNK4asio5error6detail14netdb_category4nameEv:
	.fnstart
.LFB2690:
	@ args = 0, pretend = 0, frame = 0
	@ frame_needed = 0, uses_anonymous_args = 0
	@ link register save eliminated.
	ldr	r0, .L11
.LPIC3:
	add	r0, pc, r0
	bx	lr
.L12:
	.align	2
.L11:
	.word	.LC3-(.LPIC3+8)
	.cantunwind
	.fnend
	.size	_ZNK4asio5error6detail14netdb_category4nameEv, .-_ZNK4asio5error6detail14netdb_category4nameEv
	.section	.text._ZNK4asio5error6detail17addrinfo_category4nameEv,"axG",%progbits,_ZNK4asio5error6detail17addrinfo_category4nameEv,comdat
	.align	2
	.weak	_ZNK4asio5error6detail17addrinfo_category4nameEv
	.syntax unified
	.arm
	.fpu vfp
	.type	_ZNK4asio5error6detail17addrinfo_category4nameEv, %function
_ZNK4asio5error6detail17addrinfo_category4nameEv:
	.fnstart
.LFB2696:
	@ args = 0, pretend = 0, frame = 0
	@ frame_needed = 0, uses_anonymous_args = 0
	@ link register save eliminated.
	ldr	r0, .L14
.LPIC4:
	add	r0, pc, r0
	bx	lr
.L15:
	.align	2
.L14:
	.word	.LC4-(.LPIC4+8)
	.cantunwind
	.fnend
	.size	_ZNK4asio5error6detail17addrinfo_category4nameEv, .-_ZNK4asio5error6detail17addrinfo_category4nameEv
	.section	.text._ZNK4asio5error6detail13misc_category4nameEv,"axG",%progbits,_ZNK4asio5error6detail13misc_category4nameEv,comdat
	.align	2
	.weak	_ZNK4asio5error6detail13misc_category4nameEv
	.syntax unified
	.arm
	.fpu vfp
	.type	_ZNK4asio5error6detail13misc_category4nameEv, %function
_ZNK4asio5error6detail13misc_category4nameEv:
	.fnstart
.LFB2702:
	@ args = 0, pretend = 0, frame = 0
	@ frame_needed = 0, uses_anonymous_args = 0
	@ link register save eliminated.
	ldr	r0, .L17
.LPIC5:
	add	r0, pc, r0
	bx	lr
.L18:
	.align	2
.L17:
	.word	.LC5-(.LPIC5+8)
	.cantunwind
	.fnend
	.size	_ZNK4asio5error6detail13misc_category4nameEv, .-_ZNK4asio5error6detail13misc_category4nameEv
	.section	.text._ZN4asio6detail10service_idINS0_13epoll_reactorEED2Ev,"axG",%progbits,_ZN4asio6detail10service_idINS0_13epoll_reactorEED5Ev,comdat
	.align	2
	.weak	_ZN4asio6detail10service_idINS0_13epoll_reactorEED2Ev
	.syntax unified
	.arm
	.fpu vfp
	.type	_ZN4asio6detail10service_idINS0_13epoll_reactorEED2Ev, %function
_ZN4asio6detail10service_idINS0_13epoll_reactorEED2Ev:
	.fnstart
.LFB10072:
	@ args = 0, pretend = 0, frame = 0
	@ frame_needed = 0, uses_anonymous_args = 0
	@ link register save eliminated.
	bx	lr
	.cantunwind
	.fnend
	.size	_ZN4asio6detail10service_idINS0_13epoll_reactorEED2Ev, .-_ZN4asio6detail10service_idINS0_13epoll_reactorEED2Ev
	.weak	_ZN4asio6detail10service_idINS0_13epoll_reactorEED1Ev
	.set	_ZN4asio6detail10service_idINS0_13epoll_reactorEED1Ev,_ZN4asio6detail10service_idINS0_13epoll_reactorEED2Ev
	.section	.text._ZN4asio6detail10service_idINS0_15task_io_serviceEED2Ev,"axG",%progbits,_ZN4asio6detail10service_idINS0_15task_io_serviceEED5Ev,comdat
	.align	2
	.weak	_ZN4asio6detail10service_idINS0_15task_io_serviceEED2Ev
	.syntax unified
	.arm
	.fpu vfp
	.type	_ZN4asio6detail10service_idINS0_15task_io_serviceEED2Ev, %function
_ZN4asio6detail10service_idINS0_15task_io_serviceEED2Ev:
	.fnstart
.LFB10075:
	@ args = 0, pretend = 0, frame = 0
	@ frame_needed = 0, uses_anonymous_args = 0
	@ link register save eliminated.
	bx	lr
	.cantunwind
	.fnend
	.size	_ZN4asio6detail10service_idINS0_15task_io_serviceEED2Ev, .-_ZN4asio6detail10service_idINS0_15task_io_serviceEED2Ev
	.weak	_ZN4asio6detail10service_idINS0_15task_io_serviceEED1Ev
	.set	_ZN4asio6detail10service_idINS0_15task_io_serviceEED1Ev,_ZN4asio6detail10service_idINS0_15task_io_serviceEED2Ev
	.section	.text._ZN4asio6detail10service_idINS0_14strand_serviceEED2Ev,"axG",%progbits,_ZN4asio6detail10service_idINS0_14strand_serviceEED5Ev,comdat
	.align	2
	.weak	_ZN4asio6detail10service_idINS0_14strand_serviceEED2Ev
	.syntax unified
	.arm
	.fpu vfp
	.type	_ZN4asio6detail10service_idINS0_14strand_serviceEED2Ev, %function
_ZN4asio6detail10service_idINS0_14strand_serviceEED2Ev:
	.fnstart
.LFB10081:
	@ args = 0, pretend = 0, frame = 0
	@ frame_needed = 0, uses_anonymous_args = 0
	@ link register save eliminated.
	bx	lr
	.cantunwind
	.fnend
	.size	_ZN4asio6detail10service_idINS0_14strand_serviceEED2Ev, .-_ZN4asio6detail10service_idINS0_14strand_serviceEED2Ev
	.weak	_ZN4asio6detail10service_idINS0_14strand_serviceEED1Ev
	.set	_ZN4asio6detail10service_idINS0_14strand_serviceEED1Ev,_ZN4asio6detail10service_idINS0_14strand_serviceEED2Ev
	.section	.text._ZNSt23_Sp_counted_ptr_inplaceIN7asiopal13SocketChannelESaIS1_ELN9__gnu_cxx12_Lock_policyE1EED2Ev,"axG",%progbits,_ZNSt23_Sp_counted_ptr_inplaceIN7asiopal13SocketChannelESaIS1_ELN9__gnu_cxx12_Lock_policyE1EED5Ev,comdat
	.align	2
	.weak	_ZNSt23_Sp_counted_ptr_inplaceIN7asiopal13SocketChannelESaIS1_ELN9__gnu_cxx12_Lock_policyE1EED2Ev
	.syntax unified
	.arm
	.fpu vfp
	.type	_ZNSt23_Sp_counted_ptr_inplaceIN7asiopal13SocketChannelESaIS1_ELN9__gnu_cxx12_Lock_policyE1EED2Ev, %function
_ZNSt23_Sp_counted_ptr_inplaceIN7asiopal13SocketChannelESaIS1_ELN9__gnu_cxx12_Lock_policyE1EED2Ev:
	.fnstart
.LFB10084:
	@ args = 0, pretend = 0, frame = 0
	@ frame_needed = 0, uses_anonymous_args = 0
	@ link register save eliminated.
	bx	lr
	.cantunwind
	.fnend
	.size	_ZNSt23_Sp_counted_ptr_inplaceIN7asiopal13SocketChannelESaIS1_ELN9__gnu_cxx12_Lock_policyE1EED2Ev, .-_ZNSt23_Sp_counted_ptr_inplaceIN7asiopal13SocketChannelESaIS1_ELN9__gnu_cxx12_Lock_policyE1EED2Ev
	.weak	_ZNSt23_Sp_counted_ptr_inplaceIN7asiopal13SocketChannelESaIS1_ELN9__gnu_cxx12_Lock_policyE1EED1Ev
	.set	_ZNSt23_Sp_counted_ptr_inplaceIN7asiopal13SocketChannelESaIS1_ELN9__gnu_cxx12_Lock_policyE1EED1Ev,_ZNSt23_Sp_counted_ptr_inplaceIN7asiopal13SocketChannelESaIS1_ELN9__gnu_cxx12_Lock_policyE1EED2Ev
	.section	.text._ZNSt23_Sp_counted_ptr_inplaceIN7asiopal9TCPClientESaIS1_ELN9__gnu_cxx12_Lock_policyE1EED2Ev,"axG",%progbits,_ZNSt23_Sp_counted_ptr_inplaceIN7asiopal9TCPClientESaIS1_ELN9__gnu_cxx12_Lock_policyE1EED5Ev,comdat
	.align	2
	.weak	_ZNSt23_Sp_counted_ptr_inplaceIN7asiopal9TCPClientESaIS1_ELN9__gnu_cxx12_Lock_policyE1EED2Ev
	.syntax unified
	.arm
	.fpu vfp
	.type	_ZNSt23_Sp_counted_ptr_inplaceIN7asiopal9TCPClientESaIS1_ELN9__gnu_cxx12_Lock_policyE1EED2Ev, %function
_ZNSt23_Sp_counted_ptr_inplaceIN7asiopal9TCPClientESaIS1_ELN9__gnu_cxx12_Lock_policyE1EED2Ev:
	.fnstart
.LFB10098:
	@ args = 0, pretend = 0, frame = 0
	@ frame_needed = 0, uses_anonymous_args = 0
	@ link register save eliminated.
	bx	lr
	.cantunwind
	.fnend
	.size	_ZNSt23_Sp_counted_ptr_inplaceIN7asiopal9TCPClientESaIS1_ELN9__gnu_cxx12_Lock_policyE1EED2Ev, .-_ZNSt23_Sp_counted_ptr_inplaceIN7asiopal9TCPClientESaIS1_ELN9__gnu_cxx12_Lock_policyE1EED2Ev
	.weak	_ZNSt23_Sp_counted_ptr_inplaceIN7asiopal9TCPClientESaIS1_ELN9__gnu_cxx12_Lock_policyE1EED1Ev
	.set	_ZNSt23_Sp_counted_ptr_inplaceIN7asiopal9TCPClientESaIS1_ELN9__gnu_cxx12_Lock_policyE1EED1Ev,_ZNSt23_Sp_counted_ptr_inplaceIN7asiopal9TCPClientESaIS1_ELN9__gnu_cxx12_Lock_policyE1EED2Ev
	.section	.text._ZNSt23_Sp_counted_ptr_inplaceIN7asiopal13SocketChannelESaIS1_ELN9__gnu_cxx12_Lock_policyE1EE10_M_destroyEv,"axG",%progbits,_ZNSt23_Sp_counted_ptr_inplaceIN7asiopal13SocketChannelESaIS1_ELN9__gnu_cxx12_Lock_policyE1EE10_M_destroyEv,comdat
	.align	2
	.weak	_ZNSt23_Sp_counted_ptr_inplaceIN7asiopal13SocketChannelESaIS1_ELN9__gnu_cxx12_Lock_policyE1EE10_M_destroyEv
	.syntax unified
	.arm
	.fpu vfp
	.type	_ZNSt23_Sp_counted_ptr_inplaceIN7asiopal13SocketChannelESaIS1_ELN9__gnu_cxx12_Lock_policyE1EE10_M_destroyEv, %function
_ZNSt23_Sp_counted_ptr_inplaceIN7asiopal13SocketChannelESaIS1_ELN9__gnu_cxx12_Lock_policyE1EE10_M_destroyEv:
	.fnstart
.LFB10088:
	@ args = 0, pretend = 0, frame = 0
	@ frame_needed = 0, uses_anonymous_args = 0
	@ link register save eliminated.
	b	_ZdlPv(PLT)
	.cantunwind
	.fnend
	.size	_ZNSt23_Sp_counted_ptr_inplaceIN7asiopal13SocketChannelESaIS1_ELN9__gnu_cxx12_Lock_policyE1EE10_M_destroyEv, .-_ZNSt23_Sp_counted_ptr_inplaceIN7asiopal13SocketChannelESaIS1_ELN9__gnu_cxx12_Lock_policyE1EE10_M_destroyEv
	.section	.text._ZNSt23_Sp_counted_ptr_inplaceIN7asiopal9TCPClientESaIS1_ELN9__gnu_cxx12_Lock_policyE1EE10_M_destroyEv,"axG",%progbits,_ZNSt23_Sp_counted_ptr_inplaceIN7asiopal9TCPClientESaIS1_ELN9__gnu_cxx12_Lock_policyE1EE10_M_destroyEv,comdat
	.align	2
	.weak	_ZNSt23_Sp_counted_ptr_inplaceIN7asiopal9TCPClientESaIS1_ELN9__gnu_cxx12_Lock_policyE1EE10_M_destroyEv
	.syntax unified
	.arm
	.fpu vfp
	.type	_ZNSt23_Sp_counted_ptr_inplaceIN7asiopal9TCPClientESaIS1_ELN9__gnu_cxx12_Lock_policyE1EE10_M_destroyEv, %function
_ZNSt23_Sp_counted_ptr_inplaceIN7asiopal9TCPClientESaIS1_ELN9__gnu_cxx12_Lock_policyE1EE10_M_destroyEv:
	.fnstart
.LFB10102:
	@ args = 0, pretend = 0, frame = 0
	@ frame_needed = 0, uses_anonymous_args = 0
	@ link register save eliminated.
	b	_ZdlPv(PLT)
	.cantunwind
	.fnend
	.size	_ZNSt23_Sp_counted_ptr_inplaceIN7asiopal9TCPClientESaIS1_ELN9__gnu_cxx12_Lock_policyE1EE10_M_destroyEv, .-_ZNSt23_Sp_counted_ptr_inplaceIN7asiopal9TCPClientESaIS1_ELN9__gnu_cxx12_Lock_policyE1EE10_M_destroyEv
	.section	.text._ZN4asio6detail15system_categoryD2Ev,"axG",%progbits,_ZN4asio6detail15system_categoryD5Ev,comdat
	.align	2
	.weak	_ZN4asio6detail15system_categoryD2Ev
	.syntax unified
	.arm
	.fpu vfp
	.type	_ZN4asio6detail15system_categoryD2Ev, %function
_ZN4asio6detail15system_categoryD2Ev:
	.fnstart
.LFB10048:
	@ args = 0, pretend = 0, frame = 0
	@ frame_needed = 0, uses_anonymous_args = 0
	ldr	r3, .L28
	ldr	r2, .L28+4
.LPIC6:
	add	r3, pc, r3
	push	{r4, lr}
	mov	r4, r0
	ldr	r3, [r3, r2]
	add	r3, r3, #8
	str	r3, [r0]
	bl	_ZNSt3_V214error_categoryD2Ev(PLT)
	mov	r0, r4
	pop	{r4, pc}
.L29:
	.align	2
.L28:
	.word	_GLOBAL_OFFSET_TABLE_-(.LPIC6+8)
	.word	_ZTVN4asio6detail15system_categoryE(GOT)
	.cantunwind
	.fnend
	.size	_ZN4asio6detail15system_categoryD2Ev, .-_ZN4asio6detail15system_categoryD2Ev
	.weak	_ZN4asio6detail15system_categoryD1Ev
	.set	_ZN4asio6detail15system_categoryD1Ev,_ZN4asio6detail15system_categoryD2Ev
	.section	.text._ZN4asio5error6detail14netdb_categoryD2Ev,"axG",%progbits,_ZN4asio5error6detail14netdb_categoryD5Ev,comdat
	.align	2
	.weak	_ZN4asio5error6detail14netdb_categoryD2Ev
	.syntax unified
	.arm
	.fpu vfp
	.type	_ZN4asio5error6detail14netdb_categoryD2Ev, %function
_ZN4asio5error6detail14netdb_categoryD2Ev:
	.fnstart
.LFB10044:
	@ args = 0, pretend = 0, frame = 0
	@ frame_needed = 0, uses_anonymous_args = 0
	ldr	r3, .L32
	ldr	r2, .L32+4
.LPIC7:
	add	r3, pc, r3
	push	{r4, lr}
	mov	r4, r0
	ldr	r3, [r3, r2]
	add	r3, r3, #8
	str	r3, [r0]
	bl	_ZNSt3_V214error_categoryD2Ev(PLT)
	mov	r0, r4
	pop	{r4, pc}
.L33:
	.align	2
.L32:
	.word	_GLOBAL_OFFSET_TABLE_-(.LPIC7+8)
	.word	_ZTVN4asio5error6detail14netdb_categoryE(GOT)
	.cantunwind
	.fnend
	.size	_ZN4asio5error6detail14netdb_categoryD2Ev, .-_ZN4asio5error6detail14netdb_categoryD2Ev
	.weak	_ZN4asio5error6detail14netdb_categoryD1Ev
	.set	_ZN4asio5error6detail14netdb_categoryD1Ev,_ZN4asio5error6detail14netdb_categoryD2Ev
	.section	.text._ZN4asio5error6detail17addrinfo_categoryD2Ev,"axG",%progbits,_ZN4asio5error6detail17addrinfo_categoryD5Ev,comdat
	.align	2
	.weak	_ZN4asio5error6detail17addrinfo_categoryD2Ev
	.syntax unified
	.arm
	.fpu vfp
	.type	_ZN4asio5error6detail17addrinfo_categoryD2Ev, %function
_ZN4asio5error6detail17addrinfo_categoryD2Ev:
	.fnstart
.LFB10040:
	@ args = 0, pretend = 0, frame = 0
	@ frame_needed = 0, uses_anonymous_args = 0
	ldr	r3, .L36
	ldr	r2, .L36+4
.LPIC8:
	add	r3, pc, r3
	push	{r4, lr}
	mov	r4, r0
	ldr	r3, [r3, r2]
	add	r3, r3, #8
	str	r3, [r0]
	bl	_ZNSt3_V214error_categoryD2Ev(PLT)
	mov	r0, r4
	pop	{r4, pc}
.L37:
	.align	2
.L36:
	.word	_GLOBAL_OFFSET_TABLE_-(.LPIC8+8)
	.word	_ZTVN4asio5error6detail17addrinfo_categoryE(GOT)
	.cantunwind
	.fnend
	.size	_ZN4asio5error6detail17addrinfo_categoryD2Ev, .-_ZN4asio5error6detail17addrinfo_categoryD2Ev
	.weak	_ZN4asio5error6detail17addrinfo_categoryD1Ev
	.set	_ZN4asio5error6detail17addrinfo_categoryD1Ev,_ZN4asio5error6detail17addrinfo_categoryD2Ev
	.section	.text._ZN4asio5error6detail13misc_categoryD2Ev,"axG",%progbits,_ZN4asio5error6detail13misc_categoryD5Ev,comdat
	.align	2
	.weak	_ZN4asio5error6detail13misc_categoryD2Ev
	.syntax unified
	.arm
	.fpu vfp
	.type	_ZN4asio5error6detail13misc_categoryD2Ev, %function
_ZN4asio5error6detail13misc_categoryD2Ev:
	.fnstart
.LFB10036:
	@ args = 0, pretend = 0, frame = 0
	@ frame_needed = 0, uses_anonymous_args = 0
	ldr	r3, .L40
	ldr	r2, .L40+4
.LPIC9:
	add	r3, pc, r3
	push	{r4, lr}
	mov	r4, r0
	ldr	r3, [r3, r2]
	add	r3, r3, #8
	str	r3, [r0]
	bl	_ZNSt3_V214error_categoryD2Ev(PLT)
	mov	r0, r4
	pop	{r4, pc}
.L41:
	.align	2
.L40:
	.word	_GLOBAL_OFFSET_TABLE_-(.LPIC9+8)
	.word	_ZTVN4asio5error6detail13misc_categoryE(GOT)
	.cantunwind
	.fnend
	.size	_ZN4asio5error6detail13misc_categoryD2Ev, .-_ZN4asio5error6detail13misc_categoryD2Ev
	.weak	_ZN4asio5error6detail13misc_categoryD1Ev
	.set	_ZN4asio5error6detail13misc_categoryD1Ev,_ZN4asio5error6detail13misc_categoryD2Ev
	.section	.text._ZN4asio6detail15system_categoryD0Ev,"axG",%progbits,_ZN4asio6detail15system_categoryD5Ev,comdat
	.align	2
	.weak	_ZN4asio6detail15system_categoryD0Ev
	.syntax unified
	.arm
	.fpu vfp
	.type	_ZN4asio6detail15system_categoryD0Ev, %function
_ZN4asio6detail15system_categoryD0Ev:
	.fnstart
.LFB10050:
	@ args = 0, pretend = 0, frame = 0
	@ frame_needed = 0, uses_anonymous_args = 0
	ldr	r3, .L44
	ldr	r2, .L44+4
.LPIC10:
	add	r3, pc, r3
	push	{r4, lr}
	mov	r4, r0
	ldr	r3, [r3, r2]
	add	r3, r3, #8
	str	r3, [r0]
	bl	_ZNSt3_V214error_categoryD2Ev(PLT)
	mov	r0, r4
	mov	r1, #4
	bl	_ZdlPvj(PLT)
	mov	r0, r4
	pop	{r4, pc}
.L45:
	.align	2
.L44:
	.word	_GLOBAL_OFFSET_TABLE_-(.LPIC10+8)
	.word	_ZTVN4asio6detail15system_categoryE(GOT)
	.cantunwind
	.fnend
	.size	_ZN4asio6detail15system_categoryD0Ev, .-_ZN4asio6detail15system_categoryD0Ev
	.section	.text._ZN4asio5error6detail14netdb_categoryD0Ev,"axG",%progbits,_ZN4asio5error6detail14netdb_categoryD5Ev,comdat
	.align	2
	.weak	_ZN4asio5error6detail14netdb_categoryD0Ev
	.syntax unified
	.arm
	.fpu vfp
	.type	_ZN4asio5error6detail14netdb_categoryD0Ev, %function
_ZN4asio5error6detail14netdb_categoryD0Ev:
	.fnstart
.LFB10046:
	@ args = 0, pretend = 0, frame = 0
	@ frame_needed = 0, uses_anonymous_args = 0
	ldr	r3, .L48
	ldr	r2, .L48+4
.LPIC11:
	add	r3, pc, r3
	push	{r4, lr}
	mov	r4, r0
	ldr	r3, [r3, r2]
	add	r3, r3, #8
	str	r3, [r0]
	bl	_ZNSt3_V214error_categoryD2Ev(PLT)
	mov	r0, r4
	mov	r1, #4
	bl	_ZdlPvj(PLT)
	mov	r0, r4
	pop	{r4, pc}
.L49:
	.align	2
.L48:
	.word	_GLOBAL_OFFSET_TABLE_-(.LPIC11+8)
	.word	_ZTVN4asio5error6detail14netdb_categoryE(GOT)
	.cantunwind
	.fnend
	.size	_ZN4asio5error6detail14netdb_categoryD0Ev, .-_ZN4asio5error6detail14netdb_categoryD0Ev
	.section	.text._ZN4asio5error6detail17addrinfo_categoryD0Ev,"axG",%progbits,_ZN4asio5error6detail17addrinfo_categoryD5Ev,comdat
	.align	2
	.weak	_ZN4asio5error6detail17addrinfo_categoryD0Ev
	.syntax unified
	.arm
	.fpu vfp
	.type	_ZN4asio5error6detail17addrinfo_categoryD0Ev, %function
_ZN4asio5error6detail17addrinfo_categoryD0Ev:
	.fnstart
.LFB10042:
	@ args = 0, pretend = 0, frame = 0
	@ frame_needed = 0, uses_anonymous_args = 0
	ldr	r3, .L52
	ldr	r2, .L52+4
.LPIC12:
	add	r3, pc, r3
	push	{r4, lr}
	mov	r4, r0
	ldr	r3, [r3, r2]
	add	r3, r3, #8
	str	r3, [r0]
	bl	_ZNSt3_V214error_categoryD2Ev(PLT)
	mov	r0, r4
	mov	r1, #4
	bl	_ZdlPvj(PLT)
	mov	r0, r4
	pop	{r4, pc}
.L53:
	.align	2
.L52:
	.word	_GLOBAL_OFFSET_TABLE_-(.LPIC12+8)
	.word	_ZTVN4asio5error6detail17addrinfo_categoryE(GOT)
	.cantunwind
	.fnend
	.size	_ZN4asio5error6detail17addrinfo_categoryD0Ev, .-_ZN4asio5error6detail17addrinfo_categoryD0Ev
	.section	.text._ZN4asio5error6detail13misc_categoryD0Ev,"axG",%progbits,_ZN4asio5error6detail13misc_categoryD5Ev,comdat
	.align	2
	.weak	_ZN4asio5error6detail13misc_categoryD0Ev
	.syntax unified
	.arm
	.fpu vfp
	.type	_ZN4asio5error6detail13misc_categoryD0Ev, %function
_ZN4asio5error6detail13misc_categoryD0Ev:
	.fnstart
.LFB10038:
	@ args = 0, pretend = 0, frame = 0
	@ frame_needed = 0, uses_anonymous_args = 0
	ldr	r3, .L56
	ldr	r2, .L56+4
.LPIC13:
	add	r3, pc, r3
	push	{r4, lr}
	mov	r4, r0
	ldr	r3, [r3, r2]
	add	r3, r3, #8
	str	r3, [r0]
	bl	_ZNSt3_V214error_categoryD2Ev(PLT)
	mov	r0, r4
	mov	r1, #4
	bl	_ZdlPvj(PLT)
	mov	r0, r4
	pop	{r4, pc}
.L57:
	.align	2
.L56:
	.word	_GLOBAL_OFFSET_TABLE_-(.LPIC13+8)
	.word	_ZTVN4asio5error6detail13misc_categoryE(GOT)
	.cantunwind
	.fnend
	.size	_ZN4asio5error6detail13misc_categoryD0Ev, .-_ZN4asio5error6detail13misc_categoryD0Ev
	.section	.text._ZNSt23_Sp_counted_ptr_inplaceIN7asiopal9TCPClientESaIS1_ELN9__gnu_cxx12_Lock_policyE1EED0Ev,"axG",%progbits,_ZNSt23_Sp_counted_ptr_inplaceIN7asiopal9TCPClientESaIS1_ELN9__gnu_cxx12_Lock_policyE1EED5Ev,comdat
	.align	2
	.weak	_ZNSt23_Sp_counted_ptr_inplaceIN7asiopal9TCPClientESaIS1_ELN9__gnu_cxx12_Lock_policyE1EED0Ev
	.syntax unified
	.arm
	.fpu vfp
	.type	_ZNSt23_Sp_counted_ptr_inplaceIN7asiopal9TCPClientESaIS1_ELN9__gnu_cxx12_Lock_policyE1EED0Ev, %function
_ZNSt23_Sp_counted_ptr_inplaceIN7asiopal9TCPClientESaIS1_ELN9__gnu_cxx12_Lock_policyE1EED0Ev:
	.fnstart
.LFB10100:
	@ args = 0, pretend = 0, frame = 0
	@ frame_needed = 0, uses_anonymous_args = 0
	push	{r4, lr}
	mov	r1, #208
	mov	r4, r0
	bl	_ZdlPvj(PLT)
	mov	r0, r4
	pop	{r4, pc}
	.cantunwind
	.fnend
	.size	_ZNSt23_Sp_counted_ptr_inplaceIN7asiopal9TCPClientESaIS1_ELN9__gnu_cxx12_Lock_policyE1EED0Ev, .-_ZNSt23_Sp_counted_ptr_inplaceIN7asiopal9TCPClientESaIS1_ELN9__gnu_cxx12_Lock_policyE1EED0Ev
	.section	.text._ZNSt23_Sp_counted_ptr_inplaceIN7asiopal13SocketChannelESaIS1_ELN9__gnu_cxx12_Lock_policyE1EED0Ev,"axG",%progbits,_ZNSt23_Sp_counted_ptr_inplaceIN7asiopal13SocketChannelESaIS1_ELN9__gnu_cxx12_Lock_policyE1EED5Ev,comdat
	.align	2
	.weak	_ZNSt23_Sp_counted_ptr_inplaceIN7asiopal13SocketChannelESaIS1_ELN9__gnu_cxx12_Lock_policyE1EED0Ev
	.syntax unified
	.arm
	.fpu vfp
	.type	_ZNSt23_Sp_counted_ptr_inplaceIN7asiopal13SocketChannelESaIS1_ELN9__gnu_cxx12_Lock_policyE1EED0Ev, %function
_ZNSt23_Sp_counted_ptr_inplaceIN7asiopal13SocketChannelESaIS1_ELN9__gnu_cxx12_Lock_policyE1EED0Ev:
	.fnstart
.LFB10086:
	@ args = 0, pretend = 0, frame = 0
	@ frame_needed = 0, uses_anonymous_args = 0
	push	{r4, lr}
	mov	r1, #88
	mov	r4, r0
	bl	_ZdlPvj(PLT)
	mov	r0, r4
	pop	{r4, pc}
	.cantunwind
	.fnend
	.size	_ZNSt23_Sp_counted_ptr_inplaceIN7asiopal13SocketChannelESaIS1_ELN9__gnu_cxx12_Lock_policyE1EED0Ev, .-_ZNSt23_Sp_counted_ptr_inplaceIN7asiopal13SocketChannelESaIS1_ELN9__gnu_cxx12_Lock_policyE1EED0Ev
	.section	.text._ZNSt23_Sp_counted_ptr_inplaceIN7asiopal9TCPClientESaIS1_ELN9__gnu_cxx12_Lock_policyE1EE14_M_get_deleterERKSt9type_info,"axG",%progbits,_ZNSt23_Sp_counted_ptr_inplaceIN7asiopal9TCPClientESaIS1_ELN9__gnu_cxx12_Lock_policyE1EE14_M_get_deleterERKSt9type_info,comdat
	.align	2
	.weak	_ZNSt23_Sp_counted_ptr_inplaceIN7asiopal9TCPClientESaIS1_ELN9__gnu_cxx12_Lock_policyE1EE14_M_get_deleterERKSt9type_info
	.syntax unified
	.arm
	.fpu vfp
	.type	_ZNSt23_Sp_counted_ptr_inplaceIN7asiopal9TCPClientESaIS1_ELN9__gnu_cxx12_Lock_policyE1EE14_M_get_deleterERKSt9type_info, %function
_ZNSt23_Sp_counted_ptr_inplaceIN7asiopal9TCPClientESaIS1_ELN9__gnu_cxx12_Lock_policyE1EE14_M_get_deleterERKSt9type_info:
	.fnstart
.LFB10103:
	@ args = 0, pretend = 0, frame = 0
	@ frame_needed = 0, uses_anonymous_args = 0
	ldr	r3, .L67
	ldr	r2, .L67+4
.LPIC14:
	add	r3, pc, r3
	push	{r4, lr}
	mov	r4, r0
	ldr	r2, [r3, r2]
	mov	r0, r1
	mov	r1, r2
	bl	_ZNKSt9type_infoeqERKS_(PLT)
	cmp	r0, #0
	addne	r0, r4, #36
	pop	{r4, pc}
.L68:
	.align	2
.L67:
	.word	_GLOBAL_OFFSET_TABLE_-(.LPIC14+8)
	.word	_ZTISt19_Sp_make_shared_tag(GOT)
	.cantunwind
	.fnend
	.size	_ZNSt23_Sp_counted_ptr_inplaceIN7asiopal9TCPClientESaIS1_ELN9__gnu_cxx12_Lock_policyE1EE14_M_get_deleterERKSt9type_info, .-_ZNSt23_Sp_counted_ptr_inplaceIN7asiopal9TCPClientESaIS1_ELN9__gnu_cxx12_Lock_policyE1EE14_M_get_deleterERKSt9type_info
	.section	.text._ZNSt23_Sp_counted_ptr_inplaceIN7asiopal13SocketChannelESaIS1_ELN9__gnu_cxx12_Lock_policyE1EE14_M_get_deleterERKSt9type_info,"axG",%progbits,_ZNSt23_Sp_counted_ptr_inplaceIN7asiopal13SocketChannelESaIS1_ELN9__gnu_cxx12_Lock_policyE1EE14_M_get_deleterERKSt9type_info,comdat
	.align	2
	.weak	_ZNSt23_Sp_counted_ptr_inplaceIN7asiopal13SocketChannelESaIS1_ELN9__gnu_cxx12_Lock_policyE1EE14_M_get_deleterERKSt9type_info
	.syntax unified
	.arm
	.fpu vfp
	.type	_ZNSt23_Sp_counted_ptr_inplaceIN7asiopal13SocketChannelESaIS1_ELN9__gnu_cxx12_Lock_policyE1EE14_M_get_deleterERKSt9type_info, %function
_ZNSt23_Sp_counted_ptr_inplaceIN7asiopal13SocketChannelESaIS1_ELN9__gnu_cxx12_Lock_policyE1EE14_M_get_deleterERKSt9type_info:
	.fnstart
.LFB10089:
	@ args = 0, pretend = 0, frame = 0
	@ frame_needed = 0, uses_anonymous_args = 0
	ldr	r3, .L73
	ldr	r2, .L73+4
.LPIC15:
	add	r3, pc, r3
	push	{r4, lr}
	mov	r4, r0
	ldr	r2, [r3, r2]
	mov	r0, r1
	mov	r1, r2
	bl	_ZNKSt9type_infoeqERKS_(PLT)
	cmp	r0, #0
	addne	r0, r4, #36
	pop	{r4, pc}
.L74:
	.align	2
.L73:
	.word	_GLOBAL_OFFSET_TABLE_-(.LPIC15+8)
	.word	_ZTISt19_Sp_make_shared_tag(GOT)
	.cantunwind
	.fnend
	.size	_ZNSt23_Sp_counted_ptr_inplaceIN7asiopal13SocketChannelESaIS1_ELN9__gnu_cxx12_Lock_policyE1EE14_M_get_deleterERKSt9type_info, .-_ZNSt23_Sp_counted_ptr_inplaceIN7asiopal13SocketChannelESaIS1_ELN9__gnu_cxx12_Lock_policyE1EE14_M_get_deleterERKSt9type_info
	.section	.text._ZN9__gnu_cxx24__concurrence_lock_errorD2Ev,"axG",%progbits,_ZN9__gnu_cxx24__concurrence_lock_errorD5Ev,comdat
	.align	2
	.weak	_ZN9__gnu_cxx24__concurrence_lock_errorD2Ev
	.syntax unified
	.arm
	.fpu vfp
	.type	_ZN9__gnu_cxx24__concurrence_lock_errorD2Ev, %function
_ZN9__gnu_cxx24__concurrence_lock_errorD2Ev:
	.fnstart
.LFB10064:
	@ args = 0, pretend = 0, frame = 0
	@ frame_needed = 0, uses_anonymous_args = 0
	ldr	r3, .L77
	ldr	r2, .L77+4
.LPIC16:
	add	r3, pc, r3
	push	{r4, lr}
	mov	r4, r0
	ldr	r3, [r3, r2]
	add	r3, r3, #8
	str	r3, [r0]
	bl	_ZNSt9exceptionD2Ev(PLT)
	mov	r0, r4
	pop	{r4, pc}
.L78:
	.align	2
.L77:
	.word	_GLOBAL_OFFSET_TABLE_-(.LPIC16+8)
	.word	_ZTVN9__gnu_cxx24__concurrence_lock_errorE(GOT)
	.cantunwind
	.fnend
	.size	_ZN9__gnu_cxx24__concurrence_lock_errorD2Ev, .-_ZN9__gnu_cxx24__concurrence_lock_errorD2Ev
	.weak	_ZN9__gnu_cxx24__concurrence_lock_errorD1Ev
	.set	_ZN9__gnu_cxx24__concurrence_lock_errorD1Ev,_ZN9__gnu_cxx24__concurrence_lock_errorD2Ev
	.section	.text._ZN9__gnu_cxx24__concurrence_lock_errorD0Ev,"axG",%progbits,_ZN9__gnu_cxx24__concurrence_lock_errorD5Ev,comdat
	.align	2
	.weak	_ZN9__gnu_cxx24__concurrence_lock_errorD0Ev
	.syntax unified
	.arm
	.fpu vfp
	.type	_ZN9__gnu_cxx24__concurrence_lock_errorD0Ev, %function
_ZN9__gnu_cxx24__concurrence_lock_errorD0Ev:
	.fnstart
.LFB10066:
	@ args = 0, pretend = 0, frame = 0
	@ frame_needed = 0, uses_anonymous_args = 0
	ldr	r3, .L81
	ldr	r2, .L81+4
.LPIC17:
	add	r3, pc, r3
	push	{r4, lr}
	mov	r4, r0
	ldr	r3, [r3, r2]
	add	r3, r3, #8
	str	r3, [r0]
	bl	_ZNSt9exceptionD2Ev(PLT)
	mov	r0, r4
	mov	r1, #4
	bl	_ZdlPvj(PLT)
	mov	r0, r4
	pop	{r4, pc}
.L82:
	.align	2
.L81:
	.word	_GLOBAL_OFFSET_TABLE_-(.LPIC17+8)
	.word	_ZTVN9__gnu_cxx24__concurrence_lock_errorE(GOT)
	.cantunwind
	.fnend
	.size	_ZN9__gnu_cxx24__concurrence_lock_errorD0Ev, .-_ZN9__gnu_cxx24__concurrence_lock_errorD0Ev
	.section	.text._ZN9__gnu_cxx26__concurrence_unlock_errorD2Ev,"axG",%progbits,_ZN9__gnu_cxx26__concurrence_unlock_errorD5Ev,comdat
	.align	2
	.weak	_ZN9__gnu_cxx26__concurrence_unlock_errorD2Ev
	.syntax unified
	.arm
	.fpu vfp
	.type	_ZN9__gnu_cxx26__concurrence_unlock_errorD2Ev, %function
_ZN9__gnu_cxx26__concurrence_unlock_errorD2Ev:
	.fnstart
.LFB10060:
	@ args = 0, pretend = 0, frame = 0
	@ frame_needed = 0, uses_anonymous_args = 0
	ldr	r3, .L85
	ldr	r2, .L85+4
.LPIC18:
	add	r3, pc, r3
	push	{r4, lr}
	mov	r4, r0
	ldr	r3, [r3, r2]
	add	r3, r3, #8
	str	r3, [r0]
	bl	_ZNSt9exceptionD2Ev(PLT)
	mov	r0, r4
	pop	{r4, pc}
.L86:
	.align	2
.L85:
	.word	_GLOBAL_OFFSET_TABLE_-(.LPIC18+8)
	.word	_ZTVN9__gnu_cxx26__concurrence_unlock_errorE(GOT)
	.cantunwind
	.fnend
	.size	_ZN9__gnu_cxx26__concurrence_unlock_errorD2Ev, .-_ZN9__gnu_cxx26__concurrence_unlock_errorD2Ev
	.weak	_ZN9__gnu_cxx26__concurrence_unlock_errorD1Ev
	.set	_ZN9__gnu_cxx26__concurrence_unlock_errorD1Ev,_ZN9__gnu_cxx26__concurrence_unlock_errorD2Ev
	.section	.text._ZN9__gnu_cxx26__concurrence_unlock_errorD0Ev,"axG",%progbits,_ZN9__gnu_cxx26__concurrence_unlock_errorD5Ev,comdat
	.align	2
	.weak	_ZN9__gnu_cxx26__concurrence_unlock_errorD0Ev
	.syntax unified
	.arm
	.fpu vfp
	.type	_ZN9__gnu_cxx26__concurrence_unlock_errorD0Ev, %function
_ZN9__gnu_cxx26__concurrence_unlock_errorD0Ev:
	.fnstart
.LFB10062:
	@ args = 0, pretend = 0, frame = 0
	@ frame_needed = 0, uses_anonymous_args = 0
	ldr	r3, .L89
	ldr	r2, .L89+4
.LPIC19:
	add	r3, pc, r3
	push	{r4, lr}
	mov	r4, r0
	ldr	r3, [r3, r2]
	add	r3, r3, #8
	str	r3, [r0]
	bl	_ZNSt9exceptionD2Ev(PLT)
	mov	r0, r4
	mov	r1, #4
	bl	_ZdlPvj(PLT)
	mov	r0, r4
	pop	{r4, pc}
.L90:
	.align	2
.L89:
	.word	_GLOBAL_OFFSET_TABLE_-(.LPIC19+8)
	.word	_ZTVN9__gnu_cxx26__concurrence_unlock_errorE(GOT)
	.cantunwind
	.fnend
	.size	_ZN9__gnu_cxx26__concurrence_unlock_errorD0Ev, .-_ZN9__gnu_cxx26__concurrence_unlock_errorD0Ev
	.section	.text._ZN4asio6detail7tss_ptrINS0_10call_stackINS0_15task_io_serviceENS0_27task_io_service_thread_infoEE7contextEED2Ev,"axG",%progbits,_ZN4asio6detail7tss_ptrINS0_10call_stackINS0_15task_io_serviceENS0_27task_io_service_thread_infoEE7contextEED5Ev,comdat
	.align	2
	.weak	_ZN4asio6detail7tss_ptrINS0_10call_stackINS0_15task_io_serviceENS0_27task_io_service_thread_infoEE7contextEED2Ev
	.syntax unified
	.arm
	.fpu vfp
	.type	_ZN4asio6detail7tss_ptrINS0_10call_stackINS0_15task_io_serviceENS0_27task_io_service_thread_infoEE7contextEED2Ev, %function
_ZN4asio6detail7tss_ptrINS0_10call_stackINS0_15task_io_serviceENS0_27task_io_service_thread_infoEE7contextEED2Ev:
	.fnstart
.LFB10069:
	@ args = 0, pretend = 0, frame = 0
	@ frame_needed = 0, uses_anonymous_args = 0
	push	{r4, lr}
	mov	r4, r0
	ldr	r0, [r0]
	bl	pthread_key_delete(PLT)
	mov	r0, r4
	pop	{r4, pc}
	.cantunwind
	.fnend
	.size	_ZN4asio6detail7tss_ptrINS0_10call_stackINS0_15task_io_serviceENS0_27task_io_service_thread_infoEE7contextEED2Ev, .-_ZN4asio6detail7tss_ptrINS0_10call_stackINS0_15task_io_serviceENS0_27task_io_service_thread_infoEE7contextEED2Ev
	.weak	_ZN4asio6detail7tss_ptrINS0_10call_stackINS0_15task_io_serviceENS0_27task_io_service_thread_infoEE7contextEED1Ev
	.set	_ZN4asio6detail7tss_ptrINS0_10call_stackINS0_15task_io_serviceENS0_27task_io_service_thread_infoEE7contextEED1Ev,_ZN4asio6detail7tss_ptrINS0_10call_stackINS0_15task_io_serviceENS0_27task_io_service_thread_infoEE7contextEED2Ev
	.section	.text._ZN4asio6detail7tss_ptrINS0_10call_stackINS0_14strand_service11strand_implEhE7contextEED2Ev,"axG",%progbits,_ZN4asio6detail7tss_ptrINS0_10call_stackINS0_14strand_service11strand_implEhE7contextEED5Ev,comdat
	.align	2
	.weak	_ZN4asio6detail7tss_ptrINS0_10call_stackINS0_14strand_service11strand_implEhE7contextEED2Ev
	.syntax unified
	.arm
	.fpu vfp
	.type	_ZN4asio6detail7tss_ptrINS0_10call_stackINS0_14strand_service11strand_implEhE7contextEED2Ev, %function
_ZN4asio6detail7tss_ptrINS0_10call_stackINS0_14strand_service11strand_implEhE7contextEED2Ev:
	.fnstart
.LFB10078:
	@ args = 0, pretend = 0, frame = 0
	@ frame_needed = 0, uses_anonymous_args = 0
	push	{r4, lr}
	mov	r4, r0
	ldr	r0, [r0]
	bl	pthread_key_delete(PLT)
	mov	r0, r4
	pop	{r4, pc}
	.cantunwind
	.fnend
	.size	_ZN4asio6detail7tss_ptrINS0_10call_stackINS0_14strand_service11strand_implEhE7contextEED2Ev, .-_ZN4asio6detail7tss_ptrINS0_10call_stackINS0_14strand_service11strand_implEhE7contextEED2Ev
	.weak	_ZN4asio6detail7tss_ptrINS0_10call_stackINS0_14strand_service11strand_implEhE7contextEED1Ev
	.set	_ZN4asio6detail7tss_ptrINS0_10call_stackINS0_14strand_service11strand_implEhE7contextEED1Ev,_ZN4asio6detail7tss_ptrINS0_10call_stackINS0_14strand_service11strand_implEhE7contextEED2Ev
	.section	.text.unlikely,"ax",%progbits
	.align	2
	.syntax unified
	.arm
	.fpu vfp
	.type	_ZZZN8asiodnp318TCPClientIOHandler12StartConnectERKSt10shared_ptrIN7asiopal9TCPClientEERKN7openpal12TimeDurationEENKUlRKS1_INS2_8ExecutorEEN4asio19basic_stream_socketINSF_2ip3tcpENSF_21stream_socket_serviceISI_EEEERKSt10error_codeE_clESE_SL_SO_ENUlvE_D2Ev, %function
_ZZZN8asiodnp318TCPClientIOHandler12StartConnectERKSt10shared_ptrIN7asiopal9TCPClientEERKN7openpal12TimeDurationEENKUlRKS1_INS2_8ExecutorEEN4asio19basic_stream_socketINSF_2ip3tcpENSF_21stream_socket_serviceISI_EEEERKSt10error_codeE_clESE_SL_SO_ENUlvE_D2Ev:
	.fnstart
.LFB7507:
	@ args = 0, pretend = 0, frame = 0
	@ frame_needed = 0, uses_anonymous_args = 0
	push	{r4, r5, r6, lr}
	mov	r5, r0
	ldr	r4, [r0, #20]
	ldr	r6, .L118
	cmp	r4, #0
.LPIC20:
	add	r6, pc, r6
	beq	.L97
	ldr	r3, .L118+4
	ldr	r3, [r6, r3]
	cmp	r3, #0
	beq	.L98
	add	r3, r4, #28
	mcr	p15, 0, r0, c7, c10, 5
.L114:
	ldrex	r2, [r3]
	sub	r1, r2, #1
	strex	r0, r1, [r3]
	cmp	r0, #0
	bne	.L114
	cmp	r2, #1
	mcr	p15, 0, r0, c7, c10, 5
	bne	.L97
	b	.L116
.L98:
	ldr	r3, [r4, #28]
	cmp	r3, #1
	sub	r3, r3, #1
	str	r3, [r4, #28]
	bne	.L97
	b	.L117
.L116:
	ldr	r3, [r4]
	mov	r0, r4
	ldr	r3, [r3, #8]
	blx	r3
	add	r2, r4, #32
	mcr	p15, 0, r0, c7, c10, 5
	mcr	p15, 0, r0, c7, c10, 5
.L112:
	ldrex	r3, [r2]
	sub	r1, r3, #1
	strex	r0, r1, [r2]
	cmp	r0, #0
	bne	.L112
	mcr	p15, 0, r0, c7, c10, 5
.L108:
	cmp	r3, #1
	bne	.L97
	ldr	r3, [r4]
	mov	r0, r4
	ldr	r3, [r3, #12]
	blx	r3
.L97:
	ldr	r4, [r5, #4]
	cmp	r4, #0
	beq	.L110
	ldr	r3, .L118+4
	ldr	r3, [r6, r3]
	cmp	r3, #0
	beq	.L104
	add	r3, r4, #28
	mcr	p15, 0, r0, c7, c10, 5
.L113:
	ldrex	r2, [r3]
	sub	r1, r2, #1
	strex	r0, r1, [r3]
	cmp	r0, #0
	bne	.L113
	cmp	r2, #1
	mcr	p15, 0, r0, c7, c10, 5
	bne	.L110
	ldr	r3, [r4]
	mov	r0, r4
	ldr	r3, [r3, #8]
	blx	r3
	mcr	p15, 0, r0, c7, c10, 5
	add	r2, r4, #32
	mcr	p15, 0, r0, c7, c10, 5
	b	.L111
.L104:
	ldr	r3, [r4, #28]
	cmp	r3, #1
	sub	r3, r3, #1
	str	r3, [r4, #28]
	bne	.L110
	ldr	r3, [r4]
	mov	r0, r4
	ldr	r3, [r3, #8]
	blx	r3
	mcr	p15, 0, r0, c7, c10, 5
	ldr	r3, [r4, #32]
	sub	r2, r3, #1
	str	r2, [r4, #32]
.L109:
	cmp	r3, #1
	bne	.L110
	ldr	r3, [r4]
	mov	r0, r4
	ldr	r3, [r3, #12]
	blx	r3
	b	.L110
.L117:
	ldr	r3, [r4]
	mov	r0, r4
	ldr	r3, [r3, #8]
	blx	r3
	mcr	p15, 0, r0, c7, c10, 5
	ldr	r3, [r4, #32]
	sub	r2, r3, #1
	str	r2, [r4, #32]
	b	.L108
.L111:
	ldrex	r3, [r2]
	sub	r1, r3, #1
	strex	r0, r1, [r2]
	cmp	r0, #0
	bne	.L111
	mcr	p15, 0, r0, c7, c10, 5
	b	.L109
.L110:
	mov	r0, r5
	pop	{r4, r5, r6, pc}
.L119:
	.align	2
.L118:
	.word	_GLOBAL_OFFSET_TABLE_-(.LPIC20+8)
	.word	_ZL28__gthrw___pthread_key_createPjPFvPvE(GOT)
	.cantunwind
	.fnend
	.size	_ZZZN8asiodnp318TCPClientIOHandler12StartConnectERKSt10shared_ptrIN7asiopal9TCPClientEERKN7openpal12TimeDurationEENKUlRKS1_INS2_8ExecutorEEN4asio19basic_stream_socketINSF_2ip3tcpENSF_21stream_socket_serviceISI_EEEERKSt10error_codeE_clESE_SL_SO_ENUlvE_D2Ev, .-_ZZZN8asiodnp318TCPClientIOHandler12StartConnectERKSt10shared_ptrIN7asiopal9TCPClientEERKN7openpal12TimeDurationEENKUlRKS1_INS2_8ExecutorEEN4asio19basic_stream_socketINSF_2ip3tcpENSF_21stream_socket_serviceISI_EEEERKSt10error_codeE_clESE_SL_SO_ENUlvE_D2Ev
	.set	_ZZZN8asiodnp318TCPClientIOHandler12StartConnectERKSt10shared_ptrIN7asiopal9TCPClientEERKN7openpal12TimeDurationEENKUlRKS1_INS2_8ExecutorEEN4asio19basic_stream_socketINSF_2ip3tcpENSF_21stream_socket_serviceISI_EEEERKSt10error_codeE_clESE_SL_SO_ENUlvE_D1Ev,_ZZZN8asiodnp318TCPClientIOHandler12StartConnectERKSt10shared_ptrIN7asiopal9TCPClientEERKN7openpal12TimeDurationEENKUlRKS1_INS2_8ExecutorEEN4asio19basic_stream_socketINSF_2ip3tcpENSF_21stream_socket_serviceISI_EEEERKSt10error_codeE_clESE_SL_SO_ENUlvE_D2Ev
	.align	2
	.syntax unified
	.arm
	.fpu vfp
	.type	_ZZN8asiodnp318TCPClientIOHandler12StartConnectERKSt10shared_ptrIN7asiopal9TCPClientEERKN7openpal12TimeDurationEENUlRKS1_INS2_8ExecutorEEN4asio19basic_stream_socketINSF_2ip3tcpENSF_21stream_socket_serviceISI_EEEERKSt10error_codeE_D2Ev, %function
_ZZN8asiodnp318TCPClientIOHandler12StartConnectERKSt10shared_ptrIN7asiopal9TCPClientEERKN7openpal12TimeDurationEENUlRKS1_INS2_8ExecutorEEN4asio19basic_stream_socketINSF_2ip3tcpENSF_21stream_socket_serviceISI_EEEERKSt10error_codeE_D2Ev:
	.fnstart
.LFB7516:
	@ args = 0, pretend = 0, frame = 0
	@ frame_needed = 0, uses_anonymous_args = 0
	push	{r4, r5, r6, lr}
	mov	r5, r0
	ldr	r4, [r0, #28]
	ldr	r6, .L143
	cmp	r4, #0
.LPIC21:
	add	r6, pc, r6
	beq	.L122
	ldr	r3, .L143+4
	ldr	r3, [r6, r3]
	cmp	r3, #0
	beq	.L123
	add	r3, r4, #28
	mcr	p15, 0, r0, c7, c10, 5
.L139:
	ldrex	r2, [r3]
	sub	r1, r2, #1
	strex	r0, r1, [r3]
	cmp	r0, #0
	bne	.L139
	cmp	r2, #1
	mcr	p15, 0, r0, c7, c10, 5
	bne	.L122
	b	.L141
.L123:
	ldr	r3, [r4, #28]
	cmp	r3, #1
	sub	r3, r3, #1
	str	r3, [r4, #28]
	bne	.L122
	b	.L142
.L141:
	ldr	r3, [r4]
	mov	r0, r4
	ldr	r3, [r3, #8]
	blx	r3
	add	r2, r4, #32
	mcr	p15, 0, r0, c7, c10, 5
	mcr	p15, 0, r0, c7, c10, 5
.L137:
	ldrex	r3, [r2]
	sub	r1, r3, #1
	strex	r0, r1, [r2]
	cmp	r0, #0
	bne	.L137
	mcr	p15, 0, r0, c7, c10, 5
.L133:
	cmp	r3, #1
	bne	.L122
	ldr	r3, [r4]
	mov	r0, r4
	ldr	r3, [r3, #12]
	blx	r3
.L122:
	ldr	r4, [r5, #4]
	cmp	r4, #0
	beq	.L135
	ldr	r3, .L143+4
	ldr	r3, [r6, r3]
	cmp	r3, #0
	beq	.L129
	add	r3, r4, #28
	mcr	p15, 0, r0, c7, c10, 5
.L138:
	ldrex	r2, [r3]
	sub	r1, r2, #1
	strex	r0, r1, [r3]
	cmp	r0, #0
	bne	.L138
	cmp	r2, #1
	mcr	p15, 0, r0, c7, c10, 5
	bne	.L135
	ldr	r3, [r4]
	mov	r0, r4
	ldr	r3, [r3, #8]
	blx	r3
	mcr	p15, 0, r0, c7, c10, 5
	add	r2, r4, #32
	mcr	p15, 0, r0, c7, c10, 5
	b	.L136
.L129:
	ldr	r3, [r4, #28]
	cmp	r3, #1
	sub	r3, r3, #1
	str	r3, [r4, #28]
	bne	.L135
	ldr	r3, [r4]
	mov	r0, r4
	ldr	r3, [r3, #8]
	blx	r3
	mcr	p15, 0, r0, c7, c10, 5
	ldr	r3, [r4, #32]
	sub	r2, r3, #1
	str	r2, [r4, #32]
.L134:
	cmp	r3, #1
	bne	.L135
	ldr	r3, [r4]
	mov	r0, r4
	ldr	r3, [r3, #12]
	blx	r3
	b	.L135
.L142:
	ldr	r3, [r4]
	mov	r0, r4
	ldr	r3, [r3, #8]
	blx	r3
	mcr	p15, 0, r0, c7, c10, 5
	ldr	r3, [r4, #32]
	sub	r2, r3, #1
	str	r2, [r4, #32]
	b	.L133
.L136:
	ldrex	r3, [r2]
	sub	r1, r3, #1
	strex	r0, r1, [r2]
	cmp	r0, #0
	bne	.L136
	mcr	p15, 0, r0, c7, c10, 5
	b	.L134
.L135:
	mov	r0, r5
	pop	{r4, r5, r6, pc}
.L144:
	.align	2
.L143:
	.word	_GLOBAL_OFFSET_TABLE_-(.LPIC21+8)
	.word	_ZL28__gthrw___pthread_key_createPjPFvPvE(GOT)
	.cantunwind
	.fnend
	.size	_ZZN8asiodnp318TCPClientIOHandler12StartConnectERKSt10shared_ptrIN7asiopal9TCPClientEERKN7openpal12TimeDurationEENUlRKS1_INS2_8ExecutorEEN4asio19basic_stream_socketINSF_2ip3tcpENSF_21stream_socket_serviceISI_EEEERKSt10error_codeE_D2Ev, .-_ZZN8asiodnp318TCPClientIOHandler12StartConnectERKSt10shared_ptrIN7asiopal9TCPClientEERKN7openpal12TimeDurationEENUlRKS1_INS2_8ExecutorEEN4asio19basic_stream_socketINSF_2ip3tcpENSF_21stream_socket_serviceISI_EEEERKSt10error_codeE_D2Ev
	.set	_ZZN8asiodnp318TCPClientIOHandler12StartConnectERKSt10shared_ptrIN7asiopal9TCPClientEERKN7openpal12TimeDurationEENUlRKS1_INS2_8ExecutorEEN4asio19basic_stream_socketINSF_2ip3tcpENSF_21stream_socket_serviceISI_EEEERKSt10error_codeE_D1Ev,_ZZN8asiodnp318TCPClientIOHandler12StartConnectERKSt10shared_ptrIN7asiopal9TCPClientEERKN7openpal12TimeDurationEENUlRKS1_INS2_8ExecutorEEN4asio19basic_stream_socketINSF_2ip3tcpENSF_21stream_socket_serviceISI_EEEERKSt10error_codeE_D2Ev
	.section	.text._ZNK4asio6detail15system_category7messageB5cxx11Ei,"axG",%progbits,_ZNK4asio6detail15system_category7messageB5cxx11Ei,comdat
	.align	2
	.weak	_ZNK4asio6detail15system_category7messageB5cxx11Ei
	.syntax unified
	.arm
	.fpu vfp
	.type	_ZNK4asio6detail15system_category7messageB5cxx11Ei, %function
_ZNK4asio6detail15system_category7messageB5cxx11Ei:
	.fnstart
.LFB2670:
	@ args = 0, pretend = 0, frame = 264
	@ frame_needed = 0, uses_anonymous_args = 0
	cmp	r2, #125
	push	{r4, r5, r6, r7, r8, lr}
	.save {r4, r5, r6, r7, r8, lr}
	mov	r4, r0
	.pad #264
	sub	sp, sp, #264
	beq	.L155
	mov	r7, #0
	mov	r5, r2
	mov	r1, r7
	mov	r2, #252
	add	r0, sp, #12
	str	r7, [sp, #8]
	bl	memset(PLT)
	mov	r0, r5
	mov	r2, #256
	add	r1, sp, #8
	bl	strerror_r(PLT)
	add	r6, r4, #8
	str	r6, [r4]
	subs	r8, r0, #0
	beq	.L148
	bl	strlen(PLT)
	cmp	r0, #15
	mov	r5, r0
	str	r0, [sp, #4]
	bhi	.L156
	cmp	r0, #1
	beq	.L157
	cmp	r0, #0
	bne	.L158
.L152:
	mov	r3, #0
	str	r5, [r4, #4]
	mov	r0, r4
	strb	r3, [r6, r5]
	add	sp, sp, #264
	@ sp needed
	pop	{r4, r5, r6, r7, r8, pc}
.L156:
	mov	r2, r7
	add	r1, sp, #4
	mov	r0, r4
	bl	_ZNSt7__cxx1112basic_stringIcSt11char_traitsIcESaIcEE9_M_createERjj(PLT)
	ldr	r3, [sp, #4]
	str	r3, [r4, #8]
	str	r0, [r4]
.L150:
	mov	r2, r5
	mov	r1, r8
	bl	memcpy(PLT)
	ldr	r5, [sp, #4]
	ldr	r6, [r4]
	b	.L152
.L157:
	ldrb	r3, [r8]	@ zero_extendqisi2
	strb	r3, [r4, #8]
	b	.L152
.L155:
	add	r1, sp, #264
	add	r3, r0, #8
	mov	r2, #18
	str	r2, [r1, #-256]!
	str	r3, [r0]
	mov	r2, #0
	bl	_ZNSt7__cxx1112basic_stringIcSt11char_traitsIcESaIcEE9_M_createERjj(PLT)
	ldr	ip, .L159
	ldr	r6, [sp, #8]
.LPIC22:
	add	ip, pc, ip
	str	r6, [r4, #8]
	mov	r5, #0
	str	r0, [r4]
	mov	lr, r0
	ldmia	ip!, {r0, r1, r2, r3}
	ldrh	ip, [ip]	@ unaligned
	str	r0, [lr]	@ unaligned
	str	r1, [lr, #4]	@ unaligned
	strh	ip, [lr, #16]	@ unaligned
	str	r2, [lr, #8]	@ unaligned
	str	r3, [lr, #12]	@ unaligned
	ldr	r3, [sp, #8]
	ldr	r2, [r4]
	str	r3, [r4, #4]
	mov	r0, r4
	strb	r5, [r2, r3]
	add	sp, sp, #264
	@ sp needed
	pop	{r4, r5, r6, r7, r8, pc}
.L148:
	ldr	r0, .L159+4
.LPIC23:
	add	r0, pc, r0
	bl	_ZSt19__throw_logic_errorPKc(PLT)
.L158:
	mov	r0, r6
	b	.L150
.L160:
	.align	2
.L159:
	.word	.LC6-(.LPIC22+8)
	.word	.LC7-(.LPIC23+8)
	.fnend
	.size	_ZNK4asio6detail15system_category7messageB5cxx11Ei, .-_ZNK4asio6detail15system_category7messageB5cxx11Ei
	.section	.text._ZNK4asio5error6detail17addrinfo_category7messageB5cxx11Ei,"axG",%progbits,_ZNK4asio5error6detail17addrinfo_category7messageB5cxx11Ei,comdat
	.align	2
	.weak	_ZNK4asio5error6detail17addrinfo_category7messageB5cxx11Ei
	.syntax unified
	.arm
	.fpu vfp
	.type	_ZNK4asio5error6detail17addrinfo_category7messageB5cxx11Ei, %function
_ZNK4asio5error6detail17addrinfo_category7messageB5cxx11Ei:
	.fnstart
.LFB2697:
	@ args = 0, pretend = 0, frame = 8
	@ frame_needed = 0, uses_anonymous_args = 0
	push	{r4, r5, r6, lr}
	.save {r4, r5, r6, lr}
	cmn	r2, #8
	.pad #8
	sub	sp, sp, #8
	add	r1, sp, #8
	mov	r4, r0
	beq	.L166
	cmn	r2, #7
	beq	.L167
	add	r3, r0, #8
	mov	r2, #19
	str	r2, [r1, #-4]!
	str	r3, [r0]
	mov	r2, #0
	bl	_ZNSt7__cxx1112basic_stringIcSt11char_traitsIcESaIcEE9_M_createERjj(PLT)
	ldr	ip, .L168
	ldr	r6, [sp, #4]
.LPIC26:
	add	ip, pc, ip
	str	r6, [r4, #8]
	mov	r5, #0
	str	r0, [r4]
	mov	lr, r0
	ldmia	ip!, {r0, r1, r2, r3}
	ldrh	r6, [ip]	@ unaligned
	ldrb	ip, [ip, #2]	@ zero_extendqisi2
	str	r0, [lr]	@ unaligned
	str	r1, [lr, #4]	@ unaligned
	str	r2, [lr, #8]	@ unaligned
	str	r3, [lr, #12]	@ unaligned
	strh	r6, [lr, #16]	@ unaligned
	strb	ip, [lr, #18]
	ldr	r3, [sp, #4]
	ldr	r2, [r4]
	str	r3, [r4, #4]
	strb	r5, [r2, r3]
.L161:
	mov	r0, r4
	add	sp, sp, #8
	@ sp needed
	pop	{r4, r5, r6, pc}
.L167:
	add	r3, r0, #8
	mov	r2, #25
	str	r2, [r1, #-4]!
	str	r3, [r0]
	mov	r2, #0
	bl	_ZNSt7__cxx1112basic_stringIcSt11char_traitsIcESaIcEE9_M_createERjj(PLT)
	ldr	ip, .L168+4
	ldr	r6, [sp, #4]
.LPIC25:
	add	ip, pc, ip
	str	r6, [r4, #8]
	mov	r5, #0
	str	r0, [r4]
	mov	lr, r0
	ldmia	ip!, {r0, r1, r2, r3}
	str	r0, [lr]	@ unaligned
	str	r1, [lr, #4]	@ unaligned
	ldmia	ip!, {r0, r1}
	str	r3, [lr, #12]	@ unaligned
	str	r2, [lr, #8]	@ unaligned
	ldrb	r3, [ip]	@ zero_extendqisi2
	str	r0, [lr, #16]	@ unaligned
	str	r1, [lr, #20]	@ unaligned
	strb	r3, [lr, #24]
	ldr	r3, [sp, #4]
	ldr	r2, [r4]
	str	r3, [r4, #4]
	mov	r0, r4
	strb	r5, [r2, r3]
	add	sp, sp, #8
	@ sp needed
	pop	{r4, r5, r6, pc}
.L166:
	add	r3, r0, #8
	mov	r2, #17
	str	r2, [r1, #-4]!
	str	r3, [r0]
	mov	r2, #0
	bl	_ZNSt7__cxx1112basic_stringIcSt11char_traitsIcESaIcEE9_M_createERjj(PLT)
	ldr	ip, .L168+8
	ldr	r6, [sp, #4]
.LPIC24:
	add	ip, pc, ip
	str	r6, [r4, #8]
	mov	r5, #0
	str	r0, [r4]
	mov	lr, r0
	ldmia	ip!, {r0, r1, r2, r3}
	ldrb	ip, [ip]	@ zero_extendqisi2
	str	r0, [lr]	@ unaligned
	str	r1, [lr, #4]	@ unaligned
	strb	ip, [lr, #16]
	str	r2, [lr, #8]	@ unaligned
	str	r3, [lr, #12]	@ unaligned
	ldr	r3, [sp, #4]
	ldr	r2, [r4]
	str	r3, [r4, #4]
	strb	r5, [r2, r3]
	b	.L161
.L169:
	.align	2
.L168:
	.word	.LC10-(.LPIC26+8)
	.word	.LC9-(.LPIC25+8)
	.word	.LC8-(.LPIC24+8)
	.fnend
	.size	_ZNK4asio5error6detail17addrinfo_category7messageB5cxx11Ei, .-_ZNK4asio5error6detail17addrinfo_category7messageB5cxx11Ei
	.section	.text._ZNK4asio5error6detail14netdb_category7messageB5cxx11Ei,"axG",%progbits,_ZNK4asio5error6detail14netdb_category7messageB5cxx11Ei,comdat
	.align	2
	.weak	_ZNK4asio5error6detail14netdb_category7messageB5cxx11Ei
	.syntax unified
	.arm
	.fpu vfp
	.type	_ZNK4asio5error6detail14netdb_category7messageB5cxx11Ei, %function
_ZNK4asio5error6detail14netdb_category7messageB5cxx11Ei:
	.fnstart
.LFB2691:
	@ args = 0, pretend = 0, frame = 8
	@ frame_needed = 0, uses_anonymous_args = 0
	push	{r4, r5, r6, lr}
	.save {r4, r5, r6, lr}
	cmp	r2, #1
	.pad #8
	sub	sp, sp, #8
	add	r1, sp, #8
	mov	r4, r0
	beq	.L183
	cmp	r2, #2
	beq	.L184
	cmp	r2, #4
	beq	.L185
	cmp	r2, #3
	beq	.L186
	add	r3, r0, #8
	mov	r2, #16
	str	r2, [r1, #-4]!
	str	r3, [r0]
	mov	r2, #0
	bl	_ZNSt7__cxx1112basic_stringIcSt11char_traitsIcESaIcEE9_M_createERjj(PLT)
	ldr	ip, .L187
	ldr	r5, [sp, #4]
.LPIC31:
	add	ip, pc, ip
	str	r5, [r4, #8]
	str	r0, [r4]
	mov	lr, r0
	ldmia	ip!, {r0, r1, r2, r3}
	mov	ip, #0
	str	r0, [lr]	@ unaligned
	str	r1, [lr, #4]	@ unaligned
	str	r2, [lr, #8]	@ unaligned
	str	r3, [lr, #12]	@ unaligned
	ldr	r3, [sp, #4]
	ldr	r2, [r4]
	str	r3, [r4, #4]
	strb	ip, [r2, r3]
.L170:
	mov	r0, r4
	add	sp, sp, #8
	@ sp needed
	pop	{r4, r5, r6, pc}
.L186:
	add	r3, r0, #8
	mov	r2, #55
	str	r2, [r1, #-4]!
	str	r3, [r0]
	mov	r2, #0
	bl	_ZNSt7__cxx1112basic_stringIcSt11char_traitsIcESaIcEE9_M_createERjj(PLT)
	ldr	r5, .L187+4
	ldr	r3, [sp, #4]
.LPIC30:
	add	r5, pc, r5
	add	r6, r5, #48
	str	r3, [r4, #8]
	mov	lr, r0
	str	r0, [r4]
.L178:
	mov	ip, r5
	add	lr, lr, #16
	ldmia	ip!, {r0, r1, r2, r3}
	add	r5, r5, #16
	cmp	ip, r6
	str	r0, [lr, #-16]	@ unaligned
	str	r1, [lr, #-12]	@ unaligned
	str	r2, [lr, #-8]	@ unaligned
	str	r3, [lr, #-4]	@ unaligned
	bne	.L178
	ldrh	r2, [r5, #4]	@ unaligned
	ldrb	r3, [r5, #6]	@ zero_extendqisi2
	ldr	r0, [r5]
	strh	r2, [lr, #4]	@ unaligned
	strb	r3, [lr, #6]
	str	r0, [lr]	@ unaligned
	ldr	r3, [sp, #4]
	ldr	r2, [r4]
	mov	r1, #0
	str	r3, [r4, #4]
	strb	r1, [r2, r3]
	b	.L170
.L183:
	add	r3, r0, #8
	mov	r2, #30
	str	r2, [r1, #-4]!
	str	r3, [r0]
	mov	r2, #0
	bl	_ZNSt7__cxx1112basic_stringIcSt11char_traitsIcESaIcEE9_M_createERjj(PLT)
	ldr	ip, .L187+8
	ldr	r6, [sp, #4]
.LPIC27:
	add	ip, pc, ip
	str	r6, [r4, #8]
	mov	r5, #0
	str	r0, [r4]
	mov	lr, r0
	ldmia	ip!, {r0, r1, r2, r3}
	str	r0, [lr]	@ unaligned
	str	r1, [lr, #4]	@ unaligned
	str	r2, [lr, #8]	@ unaligned
	ldmia	ip!, {r0, r1, r2}
	str	r3, [lr, #12]	@ unaligned
	ldrh	r3, [ip]	@ unaligned
	str	r0, [lr, #16]	@ unaligned
	str	r1, [lr, #20]	@ unaligned
	strh	r3, [lr, #28]	@ unaligned
	str	r2, [lr, #24]	@ unaligned
	ldr	r3, [sp, #4]
	ldr	r2, [r4]
	str	r3, [r4, #4]
	strb	r5, [r2, r3]
	b	.L170
.L184:
	add	r3, r0, #8
	mov	r2, #51
	str	r2, [r1, #-4]!
	str	r3, [r0]
	mov	r2, #0
	bl	_ZNSt7__cxx1112basic_stringIcSt11char_traitsIcESaIcEE9_M_createERjj(PLT)
	ldr	r5, .L187+12
	ldr	r3, [sp, #4]
.LPIC28:
	add	r5, pc, r5
	add	r6, r5, #48
	str	r3, [r4, #8]
	mov	lr, r0
	str	r0, [r4]
.L174:
	mov	ip, r5
	add	lr, lr, #16
	ldmia	ip!, {r0, r1, r2, r3}
	add	r5, r5, #16
	cmp	ip, r6
	str	r0, [lr, #-16]	@ unaligned
	str	r1, [lr, #-12]	@ unaligned
	str	r2, [lr, #-8]	@ unaligned
	str	r3, [lr, #-4]	@ unaligned
	bne	.L174
	ldrh	r2, [r5]	@ unaligned
	ldrb	r3, [r5, #2]	@ zero_extendqisi2
	mov	r1, #0
	strh	r2, [lr]	@ unaligned
	strb	r3, [lr, #2]
	ldr	r3, [sp, #4]
	ldr	r2, [r4]
	str	r3, [r4, #4]
	strb	r1, [r2, r3]
	b	.L170
.L185:
	add	r3, r0, #8
	mov	r2, #56
	str	r2, [r1, #-4]!
	str	r3, [r0]
	mov	r2, #0
	bl	_ZNSt7__cxx1112basic_stringIcSt11char_traitsIcESaIcEE9_M_createERjj(PLT)
	ldr	r5, .L187+16
	ldr	r3, [sp, #4]
.LPIC29:
	add	r5, pc, r5
	add	r6, r5, #48
	str	r3, [r4, #8]
	mov	lr, r0
	str	r0, [r4]
.L176:
	mov	ip, r5
	add	lr, lr, #16
	ldmia	ip!, {r0, r1, r2, r3}
	add	r5, r5, #16
	cmp	ip, r6
	str	r0, [lr, #-16]	@ unaligned
	str	r1, [lr, #-12]	@ unaligned
	str	r2, [lr, #-8]	@ unaligned
	str	r3, [lr, #-4]	@ unaligned
	bne	.L176
	ldmia	r5!, {r0, r1}
	mov	ip, #0
	str	r0, [lr]	@ unaligned
	str	r1, [lr, #4]	@ unaligned
	ldr	r3, [sp, #4]
	ldr	r2, [r4]
	str	r3, [r4, #4]
	strb	ip, [r2, r3]
	b	.L170
.L188:
	.align	2
.L187:
	.word	.LC15-(.LPIC31+8)
	.word	.LC14-(.LPIC30+8)
	.word	.LC11-(.LPIC27+8)
	.word	.LC12-(.LPIC28+8)
	.word	.LC13-(.LPIC29+8)
	.fnend
	.size	_ZNK4asio5error6detail14netdb_category7messageB5cxx11Ei, .-_ZNK4asio5error6detail14netdb_category7messageB5cxx11Ei
	.section	.text._ZNK4asio5error6detail13misc_category7messageB5cxx11Ei,"axG",%progbits,_ZNK4asio5error6detail13misc_category7messageB5cxx11Ei,comdat
	.align	2
	.weak	_ZNK4asio5error6detail13misc_category7messageB5cxx11Ei
	.syntax unified
	.arm
	.fpu vfp
	.type	_ZNK4asio5error6detail13misc_category7messageB5cxx11Ei, %function
_ZNK4asio5error6detail13misc_category7messageB5cxx11Ei:
	.fnstart
.LFB2703:
	@ args = 0, pretend = 0, frame = 8
	@ frame_needed = 0, uses_anonymous_args = 0
	cmp	r2, #1
	push	{r4, r5, r6, lr}
	.save {r4, r5, r6, lr}
	mov	r4, r0
	.pad #8
	sub	sp, sp, #8
	beq	.L198
	cmp	r2, #2
	beq	.L199
	cmp	r2, #3
	beq	.L200
	cmp	r2, #4
	beq	.L201
	ldr	ip, .L202
	add	r3, r0, #8
.LPIC36:
	add	ip, pc, ip
	mov	r5, #15
	ldmia	ip!, {r0, r1, r2}
	mov	lr, #0
	str	r3, [r4]
	str	r5, [r4, #4]
	ldrh	r6, [ip]	@ unaligned
	ldrb	ip, [ip, #2]	@ zero_extendqisi2
	str	r0, [r4, #8]	@ unaligned
	str	r1, [r4, #12]	@ unaligned
	str	r2, [r4, #16]	@ unaligned
	strh	r6, [r4, #20]	@ unaligned
	strb	ip, [r4, #22]
	strb	lr, [r4, #23]
.L189:
	mov	r0, r4
	add	sp, sp, #8
	@ sp needed
	pop	{r4, r5, r6, pc}
.L201:
	add	r1, sp, #8
	add	r3, r0, #8
	mov	r2, #57
	str	r2, [r1, #-4]!
	str	r3, [r0]
	mov	r2, #0
	bl	_ZNSt7__cxx1112basic_stringIcSt11char_traitsIcESaIcEE9_M_createERjj(PLT)
	ldr	r5, .L202+4
	ldr	r3, [sp, #4]
.LPIC35:
	add	r5, pc, r5
	add	r6, r5, #48
	str	r3, [r4, #8]
	mov	lr, r0
	str	r0, [r4]
.L195:
	mov	ip, r5
	add	lr, lr, #16
	ldmia	ip!, {r0, r1, r2, r3}
	add	r5, r5, #16
	cmp	ip, r6
	str	r0, [lr, #-16]	@ unaligned
	str	r1, [lr, #-12]	@ unaligned
	str	r2, [lr, #-8]	@ unaligned
	str	r3, [lr, #-4]	@ unaligned
	bne	.L195
	ldmia	r5!, {r0, r1}
	mov	ip, #0
	ldrb	r3, [r5]	@ zero_extendqisi2
	str	r0, [lr]	@ unaligned
	str	r1, [lr, #4]	@ unaligned
	strb	r3, [lr, #8]
	ldr	r3, [sp, #4]
	ldr	r2, [r4]
	str	r3, [r4, #4]
	strb	ip, [r2, r3]
	b	.L189
.L198:
	ldr	ip, .L202+8
	add	r3, r0, #8
.LPIC32:
	add	ip, pc, ip
	mov	lr, #12
	ldmia	ip!, {r0, r1, r2}
	mov	ip, #0
	str	r3, [r4]
	str	lr, [r4, #4]
	str	r0, [r4, #8]	@ unaligned
	str	r1, [r4, #12]	@ unaligned
	str	r2, [r4, #16]	@ unaligned
	strb	ip, [r4, #20]
	b	.L189
.L199:
	ldr	r2, .L202+12
	add	r3, r0, #8
.LPIC33:
	add	r2, pc, r2
	mov	lr, #11
	ldmia	r2!, {r0, r1}
	mov	ip, #0
	str	r3, [r4]
	ldrh	r5, [r2]	@ unaligned
	ldrb	r2, [r2, #2]	@ zero_extendqisi2
	str	r0, [r4, #8]	@ unaligned
	str	r1, [r4, #12]	@ unaligned
	strh	r5, [r4, #16]	@ unaligned
	strb	r2, [r4, #18]
	str	lr, [r4, #4]
	strb	ip, [r4, #19]
	b	.L189
.L200:
	add	r1, sp, #8
	add	r3, r0, #8
	mov	r2, #17
	str	r2, [r1, #-4]!
	str	r3, [r0]
	mov	r2, #0
	bl	_ZNSt7__cxx1112basic_stringIcSt11char_traitsIcESaIcEE9_M_createERjj(PLT)
	ldr	ip, .L202+16
	ldr	r6, [sp, #4]
.LPIC34:
	add	ip, pc, ip
	str	r6, [r4, #8]
	mov	r5, #0
	str	r0, [r4]
	mov	lr, r0
	ldmia	ip!, {r0, r1, r2, r3}
	ldrb	ip, [ip]	@ zero_extendqisi2
	str	r0, [lr]	@ unaligned
	str	r1, [lr, #4]	@ unaligned
	strb	ip, [lr, #16]
	str	r2, [lr, #8]	@ unaligned
	str	r3, [lr, #12]	@ unaligned
	ldr	r3, [sp, #4]
	ldr	r2, [r4]
	str	r3, [r4, #4]
	strb	r5, [r2, r3]
	b	.L189
.L203:
	.align	2
.L202:
	.word	.LC20-(.LPIC36+8)
	.word	.LC19-(.LPIC35+8)
	.word	.LC16-(.LPIC32+8)
	.word	.LC17-(.LPIC33+8)
	.word	.LC18-(.LPIC34+8)
	.fnend
	.size	_ZNK4asio5error6detail13misc_category7messageB5cxx11Ei, .-_ZNK4asio5error6detail13misc_category7messageB5cxx11Ei
	.text
	.align	2
	.syntax unified
	.arm
	.fpu vfp
	.type	_ZNSt14_Function_base13_Base_managerIZN8asiodnp318TCPClientIOHandler12StartConnectERKSt10shared_ptrIN7asiopal9TCPClientEERKN7openpal12TimeDurationEEUlRKS3_INS4_8ExecutorEEN4asio19basic_stream_socketINSH_2ip3tcpENSH_21stream_socket_serviceISK_EEEERKSt10error_codeE_E10_M_managerERSt9_Any_dataRKST_St18_Manager_operation, %function
_ZNSt14_Function_base13_Base_managerIZN8asiodnp318TCPClientIOHandler12StartConnectERKSt10shared_ptrIN7asiopal9TCPClientEERKN7openpal12TimeDurationEEUlRKS3_INS4_8ExecutorEEN4asio19basic_stream_socketINSH_2ip3tcpENSH_21stream_socket_serviceISK_EEEERKSt10error_codeE_E10_M_managerERSt9_Any_dataRKST_St18_Manager_operation:
	.fnstart
.LFB8845:
	@ args = 0, pretend = 0, frame = 0
	@ frame_needed = 0, uses_anonymous_args = 0
	push	{r4, r5, r6, r8, r9, lr}
	.save {r4, r5, r6, r8, r9, lr}
	mov	r5, r0
	ldr	r4, .L256
.LPIC38:
	add	r4, pc, r4
	cmp	r2, #3
	addls	pc, pc, r2, asl #2
	b	.L238
.L207:
	b	.L206
	b	.L208
	b	.L209
	b	.L210
	.p2align 1
.L210:
	ldr	r5, [r0]
	cmp	r5, #0
	beq	.L238
	ldr	r6, [r5, #28]
	cmp	r6, #0
	beq	.L218
	ldr	r3, .L256+4
	ldr	r3, [r4, r3]
	cmp	r3, #0
	beq	.L219
	add	r3, r6, #28
	mcr	p15, 0, r0, c7, c10, 5
.L245:
	ldrex	r2, [r3]
	sub	r1, r2, #1
	strex	r0, r1, [r3]
	cmp	r0, #0
	bne	.L245
	cmp	r2, #1
	mcr	p15, 0, r0, c7, c10, 5
	beq	.L254
.L218:
	ldr	r6, [r5, #4]
	cmp	r6, #0
	beq	.L224
	ldr	r3, .L256+4
	ldr	r3, [r4, r3]
	cmp	r3, #0
	beq	.L225
	add	r3, r6, #28
	mcr	p15, 0, r0, c7, c10, 5
.L244:
	ldrex	r2, [r3]
	sub	r1, r2, #1
	strex	r0, r1, [r3]
	cmp	r0, #0
	bne	.L244
	cmp	r2, #1
	mcr	p15, 0, r0, c7, c10, 5
	beq	.L255
.L224:
	mov	r0, r5
	mov	r1, #32
	bl	_ZdlPvj(PLT)
.L238:
	mov	r0, #0
	pop	{r4, r5, r6, r8, r9, pc}
.L209:
	mov	r0, #32
	ldr	r6, [r1]
	bl	_Znwj(PLT)
	ldm	r6, {r2, r3}
	cmp	r3, #0
	stm	r0, {r2, r3}
	beq	.L211
	ldr	r2, .L256+4
	ldr	r2, [r4, r2]
	cmp	r2, #0
	beq	.L212
	add	r3, r3, #28
	mcr	p15, 0, r0, c7, c10, 5
.L247:
	ldrex	r2, [r3]
	add	r2, r2, #1
	strex	r1, r2, [r3]
	cmp	r1, #0
	bne	.L247
	mcr	p15, 0, r0, c7, c10, 5
	ldr	r1, [r6, #28]
	ldrd	r2, [r6, #16]
	ldr	lr, [r6, #8]
	ldr	ip, [r6, #24]
	cmp	r1, #0
	str	lr, [r0, #8]
	strd	r2, [r0, #16]
	str	ip, [r0, #24]
	str	r1, [r0, #28]
	beq	.L214
.L249:
	add	r1, r1, #28
	mcr	p15, 0, r0, c7, c10, 5
.L246:
	ldrex	r3, [r1]
	add	r3, r3, #1
	strex	r2, r3, [r1]
	cmp	r2, #0
	bne	.L246
	mcr	p15, 0, r0, c7, c10, 5
.L214:
	str	r0, [r5]
	mov	r0, #0
	pop	{r4, r5, r6, r8, r9, pc}
.L208:
	ldr	r3, [r1]
	str	r3, [r0]
	mov	r0, #0
	pop	{r4, r5, r6, r8, r9, pc}
.L206:
	ldr	r3, .L256+8
.LPIC37:
	add	r3, pc, r3
	str	r3, [r0]
	mov	r0, #0
	pop	{r4, r5, r6, r8, r9, pc}
.L212:
	ldr	r2, [r3, #28]
	ldr	r1, [r6, #28]
	ldrd	r8, [r6, #16]
	add	r2, r2, #1
	str	r2, [r3, #28]
	ldr	r2, [r6, #8]
	ldr	r3, [r6, #24]
	cmp	r1, #0
	strd	r8, [r0, #16]
	str	r2, [r0, #8]
	str	r3, [r0, #24]
	str	r1, [r0, #28]
	beq	.L214
.L215:
	ldr	r3, [r1, #28]
	add	r3, r3, #1
	str	r3, [r1, #28]
	b	.L214
.L211:
	ldr	r1, [r6, #28]
	ldrd	r2, [r6, #16]
	ldr	lr, [r6, #8]
	ldr	ip, [r6, #24]
	cmp	r1, #0
	strd	r2, [r0, #16]
	str	lr, [r0, #8]
	str	ip, [r0, #24]
	str	r1, [r0, #28]
	beq	.L214
	ldr	r3, .L256+4
	ldr	r3, [r4, r3]
	cmp	r3, #0
	bne	.L249
	b	.L215
.L225:
	ldr	r3, [r6, #28]
	cmp	r3, #1
	sub	r3, r3, #1
	str	r3, [r6, #28]
	bne	.L224
	ldr	r3, [r6]
	mov	r0, r6
	ldr	r3, [r3, #8]
	blx	r3
	mcr	p15, 0, r0, c7, c10, 5
	ldr	r2, [r6, #32]
	sub	r3, r2, #1
	str	r3, [r6, #32]
.L231:
	cmp	r2, #1
	bne	.L224
	ldr	r3, [r6]
	mov	r0, r6
	ldr	r3, [r3, #12]
	blx	r3
	b	.L224
.L219:
	ldr	r3, [r6, #28]
	cmp	r3, #1
	sub	r3, r3, #1
	str	r3, [r6, #28]
	bne	.L218
	ldr	r3, [r6]
	mov	r0, r6
	ldr	r3, [r3, #8]
	blx	r3
	mcr	p15, 0, r0, c7, c10, 5
	ldr	r2, [r6, #32]
	sub	r3, r2, #1
	str	r3, [r6, #32]
.L230:
	cmp	r2, #1
	bne	.L218
	ldr	r3, [r6]
	mov	r0, r6
	ldr	r3, [r3, #12]
	blx	r3
	b	.L218
.L255:
	ldr	r3, [r6]
	mov	r0, r6
	ldr	r3, [r3, #8]
	blx	r3
	add	r3, r6, #32
	mcr	p15, 0, r0, c7, c10, 5
	mcr	p15, 0, r0, c7, c10, 5
.L242:
	ldrex	r2, [r3]
	sub	r1, r2, #1
	strex	r0, r1, [r3]
	cmp	r0, #0
	bne	.L242
	mcr	p15, 0, r0, c7, c10, 5
	b	.L231
.L254:
	ldr	r3, [r6]
	mov	r0, r6
	ldr	r3, [r3, #8]
	blx	r3
	add	r3, r6, #32
	mcr	p15, 0, r0, c7, c10, 5
	mcr	p15, 0, r0, c7, c10, 5
.L243:
	ldrex	r2, [r3]
	sub	r1, r2, #1
	strex	r0, r1, [r3]
	cmp	r0, #0
	bne	.L243
	mcr	p15, 0, r0, c7, c10, 5
	b	.L230
.L257:
	.align	2
.L256:
	.word	_GLOBAL_OFFSET_TABLE_-(.LPIC38+8)
	.word	_ZL28__gthrw___pthread_key_createPjPFvPvE(GOT)
	.word	.LANCHOR0-(.LPIC37+8)
	.fnend
	.size	_ZNSt14_Function_base13_Base_managerIZN8asiodnp318TCPClientIOHandler12StartConnectERKSt10shared_ptrIN7asiopal9TCPClientEERKN7openpal12TimeDurationEEUlRKS3_INS4_8ExecutorEEN4asio19basic_stream_socketINSH_2ip3tcpENSH_21stream_socket_serviceISK_EEEERKSt10error_codeE_E10_M_managerERSt9_Any_dataRKST_St18_Manager_operation, .-_ZNSt14_Function_base13_Base_managerIZN8asiodnp318TCPClientIOHandler12StartConnectERKSt10shared_ptrIN7asiopal9TCPClientEERKN7openpal12TimeDurationEEUlRKS3_INS4_8ExecutorEEN4asio19basic_stream_socketINSH_2ip3tcpENSH_21stream_socket_serviceISK_EEEERKSt10error_codeE_E10_M_managerERSt9_Any_dataRKST_St18_Manager_operation
	.align	2
	.syntax unified
	.arm
	.fpu vfp
	.type	_ZNSt14_Function_base13_Base_managerIZN7openpal8TimerRef5StartIZZN8asiodnp318TCPClientIOHandler12StartConnectERKSt10shared_ptrIN7asiopal9TCPClientEERKNS1_12TimeDurationEENKUlRKS6_INS7_8ExecutorEEN4asio19basic_stream_socketINSJ_2ip3tcpENSJ_21stream_socket_serviceISM_EEEERKSt10error_codeE_clESI_SP_SS_EUlvE_EEbSE_RKT_EUlvE_E10_M_managerERSt9_Any_dataRKS10_St18_Manager_operation, %function
_ZNSt14_Function_base13_Base_managerIZN7openpal8TimerRef5StartIZZN8asiodnp318TCPClientIOHandler12StartConnectERKSt10shared_ptrIN7asiopal9TCPClientEERKNS1_12TimeDurationEENKUlRKS6_INS7_8ExecutorEEN4asio19basic_stream_socketINSJ_2ip3tcpENSJ_21stream_socket_serviceISM_EEEERKSt10error_codeE_clESI_SP_SS_EUlvE_EEbSE_RKT_EUlvE_E10_M_managerERSt9_Any_dataRKS10_St18_Manager_operation:
	.fnstart
.LFB9093:
	@ args = 0, pretend = 0, frame = 0
	@ frame_needed = 0, uses_anonymous_args = 0
	push	{r4, r5, r6, r8, r9, lr}
	.save {r4, r5, r6, r8, r9, lr}
	mov	r5, r0
	ldr	r4, .L310
.LPIC40:
	add	r4, pc, r4
	cmp	r2, #3
	addls	pc, pc, r2, asl #2
	b	.L292
.L261:
	b	.L260
	b	.L262
	b	.L263
	b	.L264
	.p2align 1
.L264:
	ldr	r5, [r0]
	cmp	r5, #0
	beq	.L292
	ldr	r6, [r5, #28]
	cmp	r6, #0
	beq	.L272
	ldr	r3, .L310+4
	ldr	r3, [r4, r3]
	cmp	r3, #0
	beq	.L273
	add	r3, r6, #28
	mcr	p15, 0, r0, c7, c10, 5
.L299:
	ldrex	r2, [r3]
	sub	r1, r2, #1
	strex	r0, r1, [r3]
	cmp	r0, #0
	bne	.L299
	cmp	r2, #1
	mcr	p15, 0, r0, c7, c10, 5
	beq	.L308
.L272:
	ldr	r6, [r5, #12]
	cmp	r6, #0
	beq	.L278
	ldr	r3, .L310+4
	ldr	r3, [r4, r3]
	cmp	r3, #0
	beq	.L279
	add	r3, r6, #28
	mcr	p15, 0, r0, c7, c10, 5
.L298:
	ldrex	r2, [r3]
	sub	r1, r2, #1
	strex	r0, r1, [r3]
	cmp	r0, #0
	bne	.L298
	cmp	r2, #1
	mcr	p15, 0, r0, c7, c10, 5
	beq	.L309
.L278:
	mov	r0, r5
	mov	r1, #40
	bl	_ZdlPvj(PLT)
.L292:
	mov	r0, #0
	pop	{r4, r5, r6, r8, r9, pc}
.L263:
	mov	r0, #40
	ldr	r6, [r1]
	bl	_Znwj(PLT)
	ldr	r3, [r6, #12]
	ldr	r1, [r6]
	ldr	r2, [r6, #8]
	cmp	r3, #0
	str	r1, [r0]
	str	r2, [r0, #8]
	str	r3, [r0, #12]
	beq	.L265
	ldr	r2, .L310+4
	ldr	r2, [r4, r2]
	cmp	r2, #0
	beq	.L266
	add	r3, r3, #28
	mcr	p15, 0, r0, c7, c10, 5
.L301:
	ldrex	r2, [r3]
	add	r2, r2, #1
	strex	r1, r2, [r3]
	cmp	r1, #0
	bne	.L301
	mcr	p15, 0, r0, c7, c10, 5
	ldr	r1, [r6, #28]
	ldrd	r2, [r6, #16]
	ldr	ip, [r6, #24]
	cmp	r1, #0
	strd	r2, [r0, #16]
	str	ip, [r0, #24]
	str	r1, [r0, #28]
	beq	.L268
.L303:
	add	r1, r1, #28
	mcr	p15, 0, r0, c7, c10, 5
.L300:
	ldrex	r3, [r1]
	add	r3, r3, #1
	strex	r2, r3, [r1]
	cmp	r2, #0
	bne	.L300
	mcr	p15, 0, r0, c7, c10, 5
.L268:
	ldr	r3, [r6, #32]
	str	r0, [r5]
	str	r3, [r0, #32]
	mov	r0, #0
	pop	{r4, r5, r6, r8, r9, pc}
.L262:
	ldr	r3, [r1]
	str	r3, [r0]
	mov	r0, #0
	pop	{r4, r5, r6, r8, r9, pc}
.L260:
	ldr	r3, .L310+8
.LPIC39:
	add	r3, pc, r3
	add	r3, r3, #8
	str	r3, [r0]
	mov	r0, #0
	pop	{r4, r5, r6, r8, r9, pc}
.L266:
	ldr	r2, [r3, #28]
	ldr	r1, [r6, #28]
	ldrd	r8, [r6, #16]
	add	r2, r2, #1
	str	r2, [r3, #28]
	ldr	r3, [r6, #24]
	cmp	r1, #0
	strd	r8, [r0, #16]
	str	r1, [r0, #28]
	str	r3, [r0, #24]
	beq	.L268
.L269:
	ldr	r3, [r1, #28]
	add	r3, r3, #1
	str	r3, [r1, #28]
	b	.L268
.L265:
	ldr	r1, [r6, #28]
	ldrd	r2, [r6, #16]
	ldr	ip, [r6, #24]
	cmp	r1, #0
	strd	r2, [r0, #16]
	str	r1, [r0, #28]
	str	ip, [r0, #24]
	beq	.L268
	ldr	r3, .L310+4
	ldr	r3, [r4, r3]
	cmp	r3, #0
	bne	.L303
	b	.L269
.L279:
	ldr	r3, [r6, #28]
	cmp	r3, #1
	sub	r3, r3, #1
	str	r3, [r6, #28]
	bne	.L278
	ldr	r3, [r6]
	mov	r0, r6
	ldr	r3, [r3, #8]
	blx	r3
	mcr	p15, 0, r0, c7, c10, 5
	ldr	r2, [r6, #32]
	sub	r3, r2, #1
	str	r3, [r6, #32]
.L285:
	cmp	r2, #1
	bne	.L278
	ldr	r3, [r6]
	mov	r0, r6
	ldr	r3, [r3, #12]
	blx	r3
	b	.L278
.L273:
	ldr	r3, [r6, #28]
	cmp	r3, #1
	sub	r3, r3, #1
	str	r3, [r6, #28]
	bne	.L272
	ldr	r3, [r6]
	mov	r0, r6
	ldr	r3, [r3, #8]
	blx	r3
	mcr	p15, 0, r0, c7, c10, 5
	ldr	r2, [r6, #32]
	sub	r3, r2, #1
	str	r3, [r6, #32]
.L284:
	cmp	r2, #1
	bne	.L272
	ldr	r3, [r6]
	mov	r0, r6
	ldr	r3, [r3, #12]
	blx	r3
	b	.L272
.L309:
	ldr	r3, [r6]
	mov	r0, r6
	ldr	r3, [r3, #8]
	blx	r3
	add	r3, r6, #32
	mcr	p15, 0, r0, c7, c10, 5
	mcr	p15, 0, r0, c7, c10, 5
.L296:
	ldrex	r2, [r3]
	sub	r1, r2, #1
	strex	r0, r1, [r3]
	cmp	r0, #0
	bne	.L296
	mcr	p15, 0, r0, c7, c10, 5
	b	.L285
.L308:
	ldr	r3, [r6]
	mov	r0, r6
	ldr	r3, [r3, #8]
	blx	r3
	add	r3, r6, #32
	mcr	p15, 0, r0, c7, c10, 5
	mcr	p15, 0, r0, c7, c10, 5
.L297:
	ldrex	r2, [r3]
	sub	r1, r2, #1
	strex	r0, r1, [r3]
	cmp	r0, #0
	bne	.L297
	mcr	p15, 0, r0, c7, c10, 5
	b	.L284
.L311:
	.align	2
.L310:
	.word	_GLOBAL_OFFSET_TABLE_-(.LPIC40+8)
	.word	_ZL28__gthrw___pthread_key_createPjPFvPvE(GOT)
	.word	.LANCHOR0-(.LPIC39+8)
	.fnend
	.size	_ZNSt14_Function_base13_Base_managerIZN7openpal8TimerRef5StartIZZN8asiodnp318TCPClientIOHandler12StartConnectERKSt10shared_ptrIN7asiopal9TCPClientEERKNS1_12TimeDurationEENKUlRKS6_INS7_8ExecutorEEN4asio19basic_stream_socketINSJ_2ip3tcpENSJ_21stream_socket_serviceISM_EEEERKSt10error_codeE_clESI_SP_SS_EUlvE_EEbSE_RKT_EUlvE_E10_M_managerERSt9_Any_dataRKS10_St18_Manager_operation, .-_ZNSt14_Function_base13_Base_managerIZN7openpal8TimerRef5StartIZZN8asiodnp318TCPClientIOHandler12StartConnectERKSt10shared_ptrIN7asiopal9TCPClientEERKNS1_12TimeDurationEENKUlRKS6_INS7_8ExecutorEEN4asio19basic_stream_socketINSJ_2ip3tcpENSJ_21stream_socket_serviceISM_EEEERKSt10error_codeE_clESI_SP_SS_EUlvE_EEbSE_RKT_EUlvE_E10_M_managerERSt9_Any_dataRKS10_St18_Manager_operation
	.section	.text._ZN9__gnu_cxx13__scoped_lockD2Ev,"axG",%progbits,_ZN9__gnu_cxx13__scoped_lockD5Ev,comdat
	.align	2
	.weak	_ZN9__gnu_cxx13__scoped_lockD2Ev
	.syntax unified
	.arm
	.fpu vfp
	.type	_ZN9__gnu_cxx13__scoped_lockD2Ev, %function
_ZN9__gnu_cxx13__scoped_lockD2Ev:
	.fnstart
.LFB640:
	@ args = 0, pretend = 0, frame = 0
	@ frame_needed = 0, uses_anonymous_args = 0
	push	{r4, r5, r6, lr}
	.save {r4, r5, r6, lr}
	mov	r5, r0
	ldr	r4, .L326
	ldr	r3, .L326+4
.LPIC41:
	add	r4, pc, r4
	ldr	r3, [r4, r3]
	cmp	r3, #0
	beq	.L319
	ldr	r0, [r0]
	bl	_ZL28__gthrw_pthread_mutex_unlockP15pthread_mutex_t(PLT)
	cmp	r0, #0
	bne	.L325
.L319:
	mov	r0, r5
	pop	{r4, r5, r6, pc}
.L325:
	mov	r0, #4
	bl	__cxa_allocate_exception(PLT)
	ldr	r1, .L326+8
	ldr	r2, .L326+12
	ldr	r3, .L326+16
	ldr	r1, [r4, r1]
	add	r1, r1, #8
	str	r1, [r0]
	ldr	r2, [r4, r2]
	ldr	r1, [r4, r3]
.LEHB0:
	bl	__cxa_throw(PLT)
.LEHE0:
.L316:
	cmn	r1, #1
	beq	.L315
.LEHB1:
	bl	__cxa_end_cleanup(PLT)
.L315:
	bl	__cxa_call_unexpected(PLT)
.LEHE1:
.L327:
	.align	2
.L326:
	.word	_GLOBAL_OFFSET_TABLE_-(.LPIC41+8)
	.word	_ZL28__gthrw___pthread_key_createPjPFvPvE(GOT)
	.word	_ZTVN9__gnu_cxx26__concurrence_unlock_errorE(GOT)
	.word	_ZN9__gnu_cxx26__concurrence_unlock_errorD1Ev(GOT)
	.word	_ZTIN9__gnu_cxx26__concurrence_unlock_errorE(GOT)
	.global	__gxx_personality_v0
	.personality	__gxx_personality_v0
	.handlerdata
	.align	2
.LLSDA640:
	.byte	0xff
	.byte	0x90
	.uleb128 .LLSDATT640-.LLSDATTD640
.LLSDATTD640:
	.byte	0x1
	.uleb128 .LLSDACSE640-.LLSDACSB640
.LLSDACSB640:
	.uleb128 .LEHB0-.LFB640
	.uleb128 .LEHE0-.LEHB0
	.uleb128 .L316-.LFB640
	.uleb128 0x1
	.uleb128 .LEHB1-.LFB640
	.uleb128 .LEHE1-.LEHB1
	.uleb128 0
	.uleb128 0
.LLSDACSE640:
	.byte	0x7f
	.byte	0
	.align	2
.LLSDATT640:
	.word	0
	.section	.text._ZN9__gnu_cxx13__scoped_lockD2Ev,"axG",%progbits,_ZN9__gnu_cxx13__scoped_lockD5Ev,comdat
	.fnend
	.size	_ZN9__gnu_cxx13__scoped_lockD2Ev, .-_ZN9__gnu_cxx13__scoped_lockD2Ev
	.weak	_ZN9__gnu_cxx13__scoped_lockD1Ev
	.set	_ZN9__gnu_cxx13__scoped_lockD1Ev,_ZN9__gnu_cxx13__scoped_lockD2Ev
	.section	.text._ZSt20__throw_bad_weak_ptrv,"axG",%progbits,_ZSt20__throw_bad_weak_ptrv,comdat
	.align	2
	.weak	_ZSt20__throw_bad_weak_ptrv
	.syntax unified
	.arm
	.fpu vfp
	.type	_ZSt20__throw_bad_weak_ptrv, %function
_ZSt20__throw_bad_weak_ptrv:
	.fnstart
.LFB1592:
	@ args = 0, pretend = 0, frame = 0
	@ frame_needed = 0, uses_anonymous_args = 0
	push	{r4, lr}
	.save {r4, lr}
	mov	r0, #4
	bl	__cxa_allocate_exception(PLT)
	ldr	r3, .L330
	ldr	ip, .L330+4
.LPIC42:
	add	r3, pc, r3
	ldr	r2, .L330+8
	ldr	ip, [r3, ip]
	ldr	r1, .L330+12
	add	ip, ip, #8
	str	ip, [r0]
	ldr	r2, [r3, r2]
	ldr	r1, [r3, r1]
	bl	__cxa_throw(PLT)
.L331:
	.align	2
.L330:
	.word	_GLOBAL_OFFSET_TABLE_-(.LPIC42+8)
	.word	_ZTVSt12bad_weak_ptr(GOT)
	.word	_ZNSt12bad_weak_ptrD1Ev(GOT)
	.word	_ZTISt12bad_weak_ptr(GOT)
	.fnend
	.size	_ZSt20__throw_bad_weak_ptrv, .-_ZSt20__throw_bad_weak_ptrv
	.section	.text._ZNSt12system_errorC2ESt10error_codePKc,"axG",%progbits,_ZNSt12system_errorC5ESt10error_codePKc,comdat
	.align	2
	.weak	_ZNSt12system_errorC2ESt10error_codePKc
	.syntax unified
	.arm
	.fpu vfp
	.type	_ZNSt12system_errorC2ESt10error_codePKc, %function
_ZNSt12system_errorC2ESt10error_codePKc:
	.fnstart
.LFB2630:
	@ args = 0, pretend = 0, frame = 80
	@ frame_needed = 0, uses_anonymous_args = 0
	push	{r4, r5, r6, r7, r8, r9, r10, fp, lr}
	.save {r4, r5, r6, r7, r8, r9, r10, fp, lr}
	.pad #92
	sub	sp, sp, #92
	add	r4, sp, #8
	add	r8, sp, #64
	stm	r4, {r1, r2}
	ldr	r2, [sp, #12]
	mov	r5, r0
	mov	r1, r2
	ldr	ip, [r2]
	mov	r0, r8
	ldr	r2, [sp, #8]
	ldr	r6, [ip, #16]
	mov	r7, r3
.LEHB2:
	blx	r6
.LEHE2:
	mov	r3, #2
	str	r3, [sp]
	ldr	r3, .L351
	mov	r2, #0
	ldr	r9, .L351+4
	mov	r0, r8
	mov	r1, r2
.LPIC43:
	add	r3, pc, r3
.LPIC44:
	add	r9, pc, r9
.LEHB3:
	bl	_ZNSt7__cxx1112basic_stringIcSt11char_traitsIcESaIcEE10_M_replaceEjjPKcj(PLT)
.LEHE3:
	mov	lr, r0
	add	r6, sp, #48
	str	r6, [sp, #40]
	ldr	r3, [lr], #8
	mov	ip, r0
	cmp	r3, lr
	moveq	r10, r6
	ldreq	r0, [lr]	@ unaligned
	ldreq	r1, [lr, #4]	@ unaligned
	ldreq	r2, [lr, #8]	@ unaligned
	ldreq	r3, [lr, #12]	@ unaligned
	ldrne	r2, [ip, #8]
	strne	r3, [sp, #40]
	stmiaeq	r10!, {r0, r1, r2, r3}
	mov	fp, #0
	strne	r2, [sp, #48]
	ldr	r3, [ip, #4]
	strb	fp, [ip, #8]
	str	r3, [sp, #44]
	mov	r0, r7
	str	lr, [ip]
	str	fp, [ip, #4]
	bl	strlen(PLT)
	add	r10, sp, #40
	mov	r3, r7
	mov	r2, fp
	mov	r1, fp
	str	r0, [sp]
	mov	r0, r10
.LEHB4:
	bl	_ZNSt7__cxx1112basic_stringIcSt11char_traitsIcESaIcEE10_M_replaceEjjPKcj(PLT)
.LEHE4:
	mov	lr, r0
	add	r7, sp, #24
	str	r7, [sp, #16]
	ldr	r3, [lr], #8
	mov	ip, r0
	cmp	r3, lr
	moveq	fp, r7
	ldreq	r0, [lr]	@ unaligned
	ldreq	r1, [lr, #4]	@ unaligned
	ldreq	r2, [lr, #8]	@ unaligned
	ldreq	r3, [lr, #12]	@ unaligned
	ldrne	r2, [ip, #8]
	strne	r3, [sp, #16]
	stmiaeq	fp!, {r0, r1, r2, r3}
	mov	r3, #0
	strne	r2, [sp, #24]
	ldr	r2, [ip, #4]
	add	fp, sp, #16
	str	r2, [sp, #20]
	strb	r3, [ip, #8]
	str	lr, [ip]
	str	r3, [ip, #4]
	mov	r1, fp
	mov	r0, r5
.LEHB5:
	bl	_ZNSt13runtime_errorC2ERKNSt7__cxx1112basic_stringIcSt11char_traitsIcESaIcEEE(PLT)
.LEHE5:
	ldr	r0, [sp, #16]
	cmp	r0, r7
	beq	.L337
	bl	_ZdlPv(PLT)
.L337:
	ldr	r0, [sp, #40]
	cmp	r0, r6
	beq	.L338
	bl	_ZdlPv(PLT)
.L338:
	ldr	r0, [sp, #64]
	add	r3, sp, #72
	cmp	r0, r3
	beq	.L339
	bl	_ZdlPv(PLT)
.L339:
	ldr	r2, .L351+8
	ldm	r4, {r0, r1}
	mov	r3, r5
	ldr	r2, [r9, r2]
	add	r2, r2, #8
	str	r2, [r3], #8
	stm	r3, {r0, r1}
	mov	r0, r5
	add	sp, sp, #92
	@ sp needed
	pop	{r4, r5, r6, r7, r8, r9, r10, fp, pc}
.L346:
.L344:
	ldr	r0, [sp, #64]
	add	r8, r8, #8
	cmp	r0, r8
	beq	.L345
	bl	_ZdlPv(PLT)
.L345:
.LEHB6:
	bl	__cxa_end_cleanup(PLT)
.LEHE6:
.L348:
	ldr	r0, [sp, #16]
	add	fp, fp, #8
	cmp	r0, fp
	beq	.L342
	bl	_ZdlPv(PLT)
.L342:
	ldr	r0, [sp, #40]
	add	r10, r10, #8
	cmp	r0, r10
	beq	.L344
	bl	_ZdlPv(PLT)
	b	.L344
.L347:
	b	.L342
.L352:
	.align	2
.L351:
	.word	.LC21-(.LPIC43+8)
	.word	_GLOBAL_OFFSET_TABLE_-(.LPIC44+8)
	.word	_ZTVSt12system_error(GOT)
	.personality	__gxx_personality_v0
	.handlerdata
.LLSDA2630:
	.byte	0xff
	.byte	0xff
	.byte	0x1
	.uleb128 .LLSDACSE2630-.LLSDACSB2630
.LLSDACSB2630:
	.uleb128 .LEHB2-.LFB2630
	.uleb128 .LEHE2-.LEHB2
	.uleb128 0
	.uleb128 0
	.uleb128 .LEHB3-.LFB2630
	.uleb128 .LEHE3-.LEHB3
	.uleb128 .L346-.LFB2630
	.uleb128 0
	.uleb128 .LEHB4-.LFB2630
	.uleb128 .LEHE4-.LEHB4
	.uleb128 .L347-.LFB2630
	.uleb128 0
	.uleb128 .LEHB5-.LFB2630
	.uleb128 .LEHE5-.LEHB5
	.uleb128 .L348-.LFB2630
	.uleb128 0
	.uleb128 .LEHB6-.LFB2630
	.uleb128 .LEHE6-.LEHB6
	.uleb128 0
	.uleb128 0
.LLSDACSE2630:
	.section	.text._ZNSt12system_errorC2ESt10error_codePKc,"axG",%progbits,_ZNSt12system_errorC5ESt10error_codePKc,comdat
	.fnend
	.size	_ZNSt12system_errorC2ESt10error_codePKc, .-_ZNSt12system_errorC2ESt10error_codePKc
	.weak	_ZNSt12system_errorC1ESt10error_codePKc
	.set	_ZNSt12system_errorC1ESt10error_codePKc,_ZNSt12system_errorC2ESt10error_codePKc
	.section	.text._ZN4asio15system_categoryEv,"axG",%progbits,_ZN4asio15system_categoryEv,comdat
	.align	2
	.weak	_ZN4asio15system_categoryEv
	.syntax unified
	.arm
	.fpu vfp
	.type	_ZN4asio15system_categoryEv, %function
_ZN4asio15system_categoryEv:
	.fnstart
.LFB2673:
	@ args = 0, pretend = 0, frame = 0
	@ frame_needed = 0, uses_anonymous_args = 0
	push	{r4, r5, r6, lr}
	ldr	r4, .L363
	ldr	r3, .L363+4
.LPIC45:
	add	r4, pc, r4
	ldr	r5, [r4, r3]
	ldrb	r3, [r5]	@ zero_extendqisi2
	mcr	p15, 0, r0, c7, c10, 5
	tst	r3, #1
	beq	.L362
.L361:
	ldr	r3, .L363+8
	ldr	r4, [r4, r3]
	mov	r0, r4
	pop	{r4, r5, r6, pc}
.L362:
	mov	r0, r5
	bl	__cxa_guard_acquire(PLT)
	cmp	r0, #0
	beq	.L361
	mov	r0, r5
	bl	__cxa_guard_release(PLT)
	ldr	r3, .L363+8
	ldr	r1, .L363+12
	ldr	r2, .L363+16
	ldr	r1, [r4, r1]
	ldr	r4, [r4, r3]
.LPIC46:
	add	r2, pc, r2
	mov	r0, r4
	bl	__aeabi_atexit(PLT)
	mov	r0, r4
	pop	{r4, r5, r6, pc}
.L364:
	.align	2
.L363:
	.word	_GLOBAL_OFFSET_TABLE_-(.LPIC45+8)
	.word	_ZGVZN4asio15system_categoryEvE8instance(GOT)
	.word	_ZZN4asio15system_categoryEvE8instance(GOT)
	.word	_ZN4asio6detail15system_categoryD1Ev(GOT)
	.word	__dso_handle-(.LPIC46+8)
	.cantunwind
	.fnend
	.size	_ZN4asio15system_categoryEv, .-_ZN4asio15system_categoryEv
	.section	.text._ZNSt23_Sp_counted_ptr_inplaceIN7asiopal9TCPClientESaIS1_ELN9__gnu_cxx12_Lock_policyE1EE10_M_disposeEv,"axG",%progbits,_ZNSt23_Sp_counted_ptr_inplaceIN7asiopal9TCPClientESaIS1_ELN9__gnu_cxx12_Lock_policyE1EE10_M_disposeEv,comdat
	.align	2
	.weak	_ZNSt23_Sp_counted_ptr_inplaceIN7asiopal9TCPClientESaIS1_ELN9__gnu_cxx12_Lock_policyE1EE10_M_disposeEv
	.syntax unified
	.arm
	.fpu vfp
	.type	_ZNSt23_Sp_counted_ptr_inplaceIN7asiopal9TCPClientESaIS1_ELN9__gnu_cxx12_Lock_policyE1EE10_M_disposeEv, %function
_ZNSt23_Sp_counted_ptr_inplaceIN7asiopal9TCPClientESaIS1_ELN9__gnu_cxx12_Lock_policyE1EE10_M_disposeEv:
	.fnstart
.LFB10101:
	@ args = 0, pretend = 0, frame = 40
	@ frame_needed = 0, uses_anonymous_args = 0
	push	{r4, r5, r6, r7, r8, r9, r10, fp, lr}
	.save {r4, r5, r6, r7, r8, r9, r10, fp, lr}
	mov	r3, #0
	ldr	r4, [r0, #204]
	ldr	r10, .L573
	cmp	r4, r3
	.pad #52
	sub	sp, sp, #52
	str	r3, [r0, #200]
	str	r3, [r0, #204]
	mov	r5, r0
.LPIC47:
	add	r10, pc, r10
	beq	.L367
	ldr	r3, .L573+4
	ldr	r6, [r10, r3]
	cmp	r6, #0
	beq	.L368
	add	r3, r4, #28
	mcr	p15, 0, r0, c7, c10, 5
.L543:
	ldrex	r2, [r3]
	sub	r1, r2, #1
	strex	r0, r1, [r3]
	cmp	r0, #0
	bne	.L543
	cmp	r2, #1
	mcr	p15, 0, r0, c7, c10, 5
	beq	.L369
	ldr	r4, [r5, #204]
	cmp	r4, #0
	beq	.L367
.L370:
	add	r3, r4, #28
	mcr	p15, 0, r0, c7, c10, 5
.L542:
	ldrex	r2, [r3]
	sub	r1, r2, #1
	strex	r0, r1, [r3]
	cmp	r0, #0
	bne	.L542
	cmp	r2, #1
	mcr	p15, 0, r0, c7, c10, 5
	beq	.L561
.L367:
	ldr	r4, [r5, #120]
	cmn	r4, #1
	beq	.L378
	ldr	r3, [r5, #128]
	cmp	r3, #0
	beq	.L463
	ldr	r2, [r5, #136]
	add	r3, r3, #20
	str	r3, [sp, #28]
	mov	r0, r3
	ldr	r3, [r2, #20]
	ldrb	r6, [r5, #124]	@ zero_extendqisi2
	str	r3, [sp, #24]
	bl	pthread_mutex_lock(PLT)
	ldr	r1, [r5, #128]
	ldrb	r0, [r1, #80]	@ zero_extendqisi2
	cmp	r0, #0
	bne	.L380
	tst	r6, #64
	bne	.L562
.L381:
	mov	r6, #0
	ldr	r3, .L573+8
	mov	r7, r6
	mov	r9, #56
.LPIC48:
	add	r3, pc, r3
	str	r3, [sp, #20]
	str	r6, [sp, #16]
	str	r6, [sp, #8]
	str	r10, [sp, #12]
.L391:
	ldr	r4, [r1, r9]
	cmp	r4, #0
	beq	.L382
	ldr	r3, [sp, #8]
	ldr	r1, .L573+12
	ldr	r2, .L573+16
	lsl	r10, r3, #3
	ldr	r3, [sp, #12]
	ldr	r8, [r3, r1]
	ldr	fp, [r3, r2]
	b	.L384
.L386:
	ldr	r1, [r5, #128]
	mov	r3, #125
	add	r0, r1, r10
	str	r3, [r4, #12]
	ldr	r2, [r0, #56]
	str	fp, [r4, #16]
	cmp	r2, #0
	beq	.L388
	ldr	ip, [r2]
	cmp	ip, #0
	str	ip, [r0, #56]
	streq	ip, [r0, #60]
	str	r7, [r2]
.L388:
	cmp	r6, #0
	str	r7, [r4]
	strne	r4, [r6]
	beq	.L563
	ldr	r2, [r1, r9]
	mov	r6, r4
	cmp	r2, #0
	beq	.L382
.L571:
	mov	r4, r2
.L384:
	ldrb	r2, [r8]	@ zero_extendqisi2
	mcr	p15, 0, r0, c7, c10, 5
	tst	r2, #1
	bne	.L386
	mov	r0, r8
	bl	__cxa_guard_acquire(PLT)
	cmp	r0, #0
	beq	.L386
	mov	r0, r8
	bl	__cxa_guard_release(PLT)
	ldr	r3, [sp, #12]
	ldr	r1, .L573+20
	ldr	r2, [sp, #20]
	mov	r0, fp
	ldr	r1, [r3, r1]
	bl	__aeabi_atexit(PLT)
	b	.L386
.L396:
	add	r7, r4, #24
	mov	r0, r7
	bl	pthread_mutex_lock(PLT)
	ldr	r3, [r4, #132]
	cmp	r3, #0
	ldreq	r3, [sp, #16]
	ldrne	r2, [sp, #16]
	streq	r3, [r4, #128]
	strne	r2, [r3]
	ldr	r3, [r4, #96]
	str	r6, [r4, #132]
	orr	r3, r3, #1
	cmp	r3, #1
	str	r3, [r4, #96]
	add	r6, r4, #48
	beq	.L407
	mov	r0, r7
	bl	pthread_mutex_unlock(PLT)
	mov	r0, r6
	bl	pthread_cond_signal(PLT)
.L547:
	ldr	r4, [r5, #120]
	cmn	r4, #1
	beq	.L378
.L463:
	ldrb	r3, [r5, #124]	@ zero_extendqisi2
	tst	r3, #8
	bne	.L411
	bl	__errno_location(PLT)
	ldr	r3, .L573+12
	ldr	r6, [r10, r3]
	mov	r7, r0
.L412:
	mov	r3, #0
	str	r3, [r7]
	mov	r0, r4
	bl	close(PLT)
	ldr	r9, [r7]
	ldrb	r3, [r6]	@ zero_extendqisi2
	mcr	p15, 0, r0, c7, c10, 5
	tst	r3, #1
	mov	r8, r0
	beq	.L564
.L417:
	cmp	r8, #0
	beq	.L378
	ldrb	r3, [r6]	@ zero_extendqisi2
	mcr	p15, 0, r0, c7, c10, 5
	tst	r3, #1
	beq	.L565
.L421:
	cmp	r9, #11
	beq	.L566
	ldrb	r3, [r6]	@ zero_extendqisi2
	mcr	p15, 0, r0, c7, c10, 5
	tst	r3, #1
	bne	.L378
	mov	r0, r6
	bl	__cxa_guard_acquire(PLT)
	cmp	r0, #0
	beq	.L378
	mov	r0, r6
	bl	__cxa_guard_release(PLT)
	ldr	r1, .L573+20
	ldr	r3, .L573+16
	ldr	r2, .L573+24
	ldr	r1, [r10, r1]
.LPIC52:
	add	r2, pc, r2
	ldr	r0, [r10, r3]
	bl	__aeabi_atexit(PLT)
.L378:
	ldr	r0, [r5, #96]
	add	r3, r5, #104
	cmp	r0, r3
	beq	.L428
	bl	_ZdlPv(PLT)
.L428:
	ldr	r0, [r5, #72]
	add	r3, r5, #80
	cmp	r0, r3
	beq	.L429
	bl	_ZdlPv(PLT)
.L429:
	ldr	r4, [r5, #68]
	cmp	r4, #0
	beq	.L431
	ldr	r3, .L573+4
	ldr	r3, [r10, r3]
	cmp	r3, #0
	beq	.L432
	add	r3, r4, #28
	mcr	p15, 0, r0, c7, c10, 5
.L541:
	ldrex	r2, [r3]
	sub	r1, r2, #1
	strex	r0, r1, [r3]
	cmp	r0, #0
	bne	.L541
	cmp	r2, #1
	mcr	p15, 0, r0, c7, c10, 5
	beq	.L567
.L431:
	ldr	r4, [r5, #60]
	cmp	r4, #0
	beq	.L437
	ldr	r3, .L573+4
	ldr	r3, [r10, r3]
	cmp	r3, #0
	beq	.L438
	add	r3, r4, #28
	mcr	p15, 0, r0, c7, c10, 5
.L540:
	ldrex	r2, [r3]
	sub	r1, r2, #1
	strex	r0, r1, [r3]
	cmp	r0, #0
	bne	.L540
	cmp	r2, #1
	mcr	p15, 0, r0, c7, c10, 5
	beq	.L568
.L437:
	ldr	r4, [r5, #52]
	cmp	r4, #0
	beq	.L443
	ldr	r3, .L573+4
	ldr	r3, [r10, r3]
	cmp	r3, #0
	beq	.L444
	add	r3, r4, #28
	mcr	p15, 0, r0, c7, c10, 5
.L539:
	ldrex	r2, [r3]
	sub	r1, r2, #1
	strex	r0, r1, [r3]
	cmp	r0, #0
	bne	.L539
	cmp	r2, #1
	mcr	p15, 0, r0, c7, c10, 5
	beq	.L569
.L443:
	ldr	r0, [r5, #40]
	cmp	r0, #0
	beq	.L365
	ldr	r3, .L573+4
	ldr	r3, [r10, r3]
	cmp	r3, #0
	beq	.L450
	add	r3, r0, #32
	mcr	p15, 0, r0, c7, c10, 5
.L538:
	ldrex	r2, [r3]
	sub	r1, r2, #1
	strex	ip, r1, [r3]
	cmp	ip, #0
	bne	.L538
	cmp	r2, #1
	mcr	p15, 0, r0, c7, c10, 5
	beq	.L570
.L365:
	add	sp, sp, #52
	@ sp needed
	pop	{r4, r5, r6, r7, r8, r9, r10, fp, pc}
.L432:
	ldr	r3, [r4, #28]
	cmp	r3, #1
	sub	r3, r3, #1
	str	r3, [r4, #28]
	bne	.L431
	ldr	r3, [r4]
	mov	r0, r4
	ldr	r3, [r3, #8]
	blx	r3
	mcr	p15, 0, r0, c7, c10, 5
	ldr	r2, [r4, #32]
	sub	r3, r2, #1
	str	r3, [r4, #32]
	b	.L460
.L438:
	ldr	r3, [r4, #28]
	cmp	r3, #1
	sub	r3, r3, #1
	str	r3, [r4, #28]
	bne	.L437
	ldr	r3, [r4]
	mov	r0, r4
	ldr	r3, [r3, #8]
	blx	r3
	mcr	p15, 0, r0, c7, c10, 5
	ldr	r2, [r4, #32]
	sub	r3, r2, #1
	str	r3, [r4, #32]
	b	.L461
.L368:
	ldr	r3, [r4, #28]
	cmp	r3, #1
	sub	r3, r3, #1
	str	r3, [r4, #28]
	bne	.L367
	ldr	r3, [r4]
	mov	r0, r4
	ldr	r3, [r3, #8]
	blx	r3
	mcr	p15, 0, r0, c7, c10, 5
	ldr	r2, [r4, #32]
	sub	r3, r2, #1
	str	r3, [r4, #32]
	b	.L456
.L563:
	ldr	r2, [r1, r9]
	str	r4, [sp, #16]
	cmp	r2, #0
	mov	r6, r4
	bne	.L571
.L382:
	ldr	r3, [sp, #8]
	add	r9, r9, #8
	add	r3, r3, #1
	cmp	r3, #3
	str	r3, [sp, #8]
	bne	.L391
	ldr	r7, [sp, #24]
	mvn	r2, #0
	mov	r3, #1
	str	r2, [r1, #48]
	strb	r3, [r1, #80]
	add	r8, r7, #72
	ldr	r0, [sp, #28]
	ldr	r10, [sp, #12]
	bl	pthread_mutex_unlock(PLT)
	mov	r0, r8
	ldr	r4, [r5, #128]
	bl	pthread_mutex_lock(PLT)
	ldr	r3, [r7, #96]
	mov	r7, #0
	cmp	r4, r3
	mov	r0, r8
	ldreq	r2, [sp, #24]
	ldreq	r3, [r4, #12]
	streq	r3, [r2, #96]
	ldr	r3, [r4, #16]
	cmp	r3, #0
	ldrne	r2, [r4, #12]
	strne	r2, [r3, #12]
	ldr	r3, [r4, #12]
	cmp	r3, #0
	ldrne	r2, [r4, #16]
	strne	r2, [r3, #16]
	ldr	r2, [sp, #24]
	mov	r8, r2
	ldr	r3, [r2, #100]
	str	r7, [r4, #16]
	str	r3, [r4, #12]
	str	r4, [r2, #100]
	bl	pthread_mutex_unlock(PLT)
	ldr	r3, [sp, #16]
	str	r7, [r5, #128]
	cmp	r3, r7
	ldr	r4, [r8, #20]
	beq	.L547
	ldrb	r3, [r4, #20]	@ zero_extendqisi2
	cmp	r3, r7
	beq	.L396
	ldr	r3, .L573+28
	ldr	r3, [r10, r3]
	ldr	r0, [r3]
	bl	pthread_getspecific(PLT)
	cmp	r0, #0
	bne	.L528
	b	.L396
.L399:
	ldr	r0, [r0, #8]
	cmp	r0, #0
	beq	.L396
.L528:
	ldr	r3, [r0]
	cmp	r4, r3
	bne	.L399
	ldr	r3, [r0, #4]
	cmp	r3, #0
	beq	.L396
	ldr	r2, [r3, #8]
	cmp	r2, #0
	ldrne	r1, [sp, #16]
	ldreq	r2, [sp, #16]
	strne	r1, [r2]
	streq	r2, [r3, #4]
	str	r6, [r3, #8]
	b	.L547
.L450:
	ldr	r2, [r0, #32]
	sub	r3, r2, #1
	cmp	r2, #1
	str	r3, [r0, #32]
	bne	.L365
.L570:
	mcr	p15, 0, r0, c7, c10, 5
	ldr	r3, [r0]
	ldr	r3, [r3, #12]
	blx	r3
	add	sp, sp, #52
	@ sp needed
	pop	{r4, r5, r6, r7, r8, r9, r10, fp, pc}
.L444:
	ldr	r3, [r4, #28]
	cmp	r3, #1
	sub	r3, r3, #1
	str	r3, [r4, #28]
	bne	.L443
	ldr	r3, [r4]
	mov	r0, r4
	ldr	r3, [r3, #8]
	blx	r3
	mcr	p15, 0, r0, c7, c10, 5
	ldr	r2, [r4, #32]
	sub	r3, r2, #1
	str	r3, [r4, #32]
	b	.L462
.L380:
	ldr	r0, [sp, #28]
	bl	pthread_mutex_unlock(PLT)
	ldr	r4, [r5, #120]
	cmn	r4, #1
	bne	.L463
	b	.L378
.L569:
	ldr	r3, [r4]
	mov	r0, r4
	ldr	r3, [r3, #8]
	blx	r3
	add	r3, r4, #32
	mcr	p15, 0, r0, c7, c10, 5
	mcr	p15, 0, r0, c7, c10, 5
.L533:
	ldrex	r2, [r3]
	sub	r1, r2, #1
	strex	r0, r1, [r3]
	cmp	r0, #0
	bne	.L533
	mcr	p15, 0, r0, c7, c10, 5
.L462:
	cmp	r2, #1
	bne	.L443
	ldr	r3, [r4]
	mov	r0, r4
	ldr	r3, [r3, #12]
	blx	r3
	b	.L443
.L561:
	ldr	r3, [r4]
	mov	r0, r4
	ldr	r3, [r3, #8]
	blx	r3
	add	r3, r4, #32
	mcr	p15, 0, r0, c7, c10, 5
	mcr	p15, 0, r0, c7, c10, 5
.L536:
	ldrex	r2, [r3]
	sub	r1, r2, #1
	strex	r0, r1, [r3]
	cmp	r0, #0
	bne	.L536
	mcr	p15, 0, r0, c7, c10, 5
.L457:
	cmp	r2, #1
	bne	.L367
	ldr	r3, [r4]
	mov	r0, r4
	ldr	r3, [r3, #12]
	blx	r3
	b	.L367
.L567:
	ldr	r3, [r4]
	mov	r0, r4
	ldr	r3, [r3, #8]
	blx	r3
	add	r3, r4, #32
	mcr	p15, 0, r0, c7, c10, 5
	mcr	p15, 0, r0, c7, c10, 5
.L535:
	ldrex	r2, [r3]
	sub	r1, r2, #1
	strex	r0, r1, [r3]
	cmp	r0, #0
	bne	.L535
	mcr	p15, 0, r0, c7, c10, 5
.L460:
	cmp	r2, #1
	bne	.L431
	ldr	r3, [r4]
	mov	r0, r4
	ldr	r3, [r3, #12]
	blx	r3
	b	.L431
.L568:
	ldr	r3, [r4]
	mov	r0, r4
	ldr	r3, [r3, #8]
	blx	r3
	add	r3, r4, #32
	mcr	p15, 0, r0, c7, c10, 5
	mcr	p15, 0, r0, c7, c10, 5
.L534:
	ldrex	r2, [r3]
	sub	r1, r2, #1
	strex	r0, r1, [r3]
	cmp	r0, #0
	bne	.L534
	mcr	p15, 0, r0, c7, c10, 5
.L461:
	cmp	r2, #1
	bne	.L437
	ldr	r3, [r4]
	mov	r0, r4
	ldr	r3, [r3, #12]
	blx	r3
	b	.L437
.L562:
	str	r0, [sp, #32]
	str	r0, [sp, #36]
	str	r0, [sp, #40]
	str	r0, [sp, #44]
	ldr	r0, [sp, #24]
	add	ip, sp, #32
	mov	r1, #2
	mov	r2, r4
	mov	r3, ip
	ldr	r0, [r0, #56]
	bl	epoll_ctl(PLT)
	ldr	r1, [r5, #128]
	b	.L381
.L564:
	mov	r0, r6
	bl	__cxa_guard_acquire(PLT)
	cmp	r0, #0
	beq	.L417
	mov	r0, r6
	bl	__cxa_guard_release(PLT)
	ldr	r3, .L573+16
	ldr	r1, .L573+20
	ldr	r2, .L573+32
	ldr	r0, [r10, r3]
.LPIC50:
	add	r2, pc, r2
	ldr	r1, [r10, r1]
	bl	__aeabi_atexit(PLT)
	b	.L417
.L411:
	orr	r3, r3, #8
	mov	r6, #0
	strb	r3, [r5, #124]
	str	r6, [sp, #32]
	str	r6, [sp, #36]
	bl	__errno_location(PLT)
	mov	r2, #8
	add	r3, sp, #32
	mov	r1, #1
	str	r6, [r0]
	mov	r7, r0
	str	r2, [sp]
	mov	r0, r4
	mov	r2, #13
	bl	setsockopt(PLT)
	ldr	r3, .L573+12
	ldr	r6, [r10, r3]
	ldrb	r3, [r6]	@ zero_extendqisi2
	mcr	p15, 0, r0, c7, c10, 5
	tst	r3, #1
	bne	.L412
	mov	r0, r6
	bl	__cxa_guard_acquire(PLT)
	cmp	r0, #0
	beq	.L412
	mov	r0, r6
	bl	__cxa_guard_release(PLT)
	ldr	r3, .L573+16
	ldr	r1, .L573+20
	ldr	r2, .L573+36
	ldr	r0, [r10, r3]
.LPIC49:
	add	r2, pc, r2
	ldr	r1, [r10, r1]
	bl	__aeabi_atexit(PLT)
	b	.L412
.L566:
	add	r2, sp, #48
	mov	r8, #0
	str	r8, [r2, #-16]!
	ldr	r1, .L573+40
	mov	r0, r4
	bl	ioctl(PLT)
	ldrb	r3, [r5, #124]	@ zero_extendqisi2
	mov	r0, r4
	bic	r3, r3, #3
	strb	r3, [r5, #124]
	str	r8, [r7]
	bl	close(PLT)
	ldrb	r3, [r6]	@ zero_extendqisi2
	mcr	p15, 0, r0, c7, c10, 5
	tst	r3, #1
	bne	.L378
	mov	r0, r6
	bl	__cxa_guard_acquire(PLT)
	cmp	r0, #0
	beq	.L378
	mov	r0, r6
	bl	__cxa_guard_release(PLT)
	ldr	r3, .L573+16
	ldr	r1, .L573+20
	ldr	r2, .L573+44
	ldr	r0, [r10, r3]
.LPIC53:
	add	r2, pc, r2
	ldr	r1, [r10, r1]
	bl	__aeabi_atexit(PLT)
	b	.L378
.L369:
	ldr	r3, [r4]
	mov	r0, r4
	ldr	r3, [r3, #8]
	blx	r3
	add	r3, r4, #32
	mcr	p15, 0, r0, c7, c10, 5
	mcr	p15, 0, r0, c7, c10, 5
.L537:
	ldrex	r2, [r3]
	sub	r1, r2, #1
	strex	r0, r1, [r3]
	cmp	r0, #0
	bne	.L537
	mcr	p15, 0, r0, c7, c10, 5
.L456:
	cmp	r2, #1
	beq	.L572
.L545:
	ldr	r4, [r5, #204]
	cmp	r4, #0
	beq	.L367
	cmp	r6, #0
	bne	.L370
	ldr	r3, [r4, #28]
	cmp	r3, #1
	sub	r3, r3, #1
	str	r3, [r4, #28]
	bne	.L367
	ldr	r3, [r4]
	mov	r0, r4
	ldr	r3, [r3, #8]
	blx	r3
	mcr	p15, 0, r0, c7, c10, 5
	ldr	r2, [r4, #32]
	sub	r3, r2, #1
	str	r3, [r4, #32]
	b	.L457
.L407:
	ldrb	r2, [r4, #120]	@ zero_extendqisi2
	cmp	r2, #0
	bne	.L409
	ldr	r0, [r4, #104]
	cmp	r0, #0
	beq	.L409
	strb	r3, [r4, #120]
	add	r3, sp, #32
	add	r1, r0, #48
	mov	ip, #-2147483639
	str	r1, [sp, #40]
	str	r2, [r3, #4]
	str	r2, [r3, #12]
	str	ip, [sp, #32]
	mov	r1, #3
	ldr	r2, [r0, #48]
	ldr	r0, [r0, #56]
	bl	epoll_ctl(PLT)
.L409:
	mov	r0, r7
	bl	pthread_mutex_unlock(PLT)
	b	.L547
.L565:
	mov	r0, r6
	bl	__cxa_guard_acquire(PLT)
	cmp	r0, #0
	beq	.L421
	mov	r0, r6
	bl	__cxa_guard_release(PLT)
	ldr	r3, .L573+16
	ldr	r1, .L573+20
	ldr	r2, .L573+48
	ldr	r0, [r10, r3]
.LPIC51:
	add	r2, pc, r2
	ldr	r1, [r10, r1]
	bl	__aeabi_atexit(PLT)
	b	.L421
.L572:
	ldr	r3, [r4]
	mov	r0, r4
	ldr	r3, [r3, #12]
	blx	r3
	b	.L545
.L574:
	.align	2
.L573:
	.word	_GLOBAL_OFFSET_TABLE_-(.LPIC47+8)
	.word	_ZL28__gthrw___pthread_key_createPjPFvPvE(GOT)
	.word	__dso_handle-(.LPIC48+8)
	.word	_ZGVZN4asio15system_categoryEvE8instance(GOT)
	.word	_ZZN4asio15system_categoryEvE8instance(GOT)
	.word	_ZN4asio6detail15system_categoryD1Ev(GOT)
	.word	__dso_handle-(.LPIC52+8)
	.word	_ZN4asio6detail10call_stackINS0_15task_io_serviceENS0_27task_io_service_thread_infoEE4top_E(GOT)
	.word	__dso_handle-(.LPIC50+8)
	.word	__dso_handle-(.LPIC49+8)
	.word	21537
	.word	__dso_handle-(.LPIC53+8)
	.word	__dso_handle-(.LPIC51+8)
	.personality	__gxx_personality_v0
	.handlerdata
.LLSDA10101:
	.byte	0xff
	.byte	0xff
	.byte	0x1
	.uleb128 .LLSDACSE10101-.LLSDACSB10101
.LLSDACSB10101:
.LLSDACSE10101:
	.section	.text._ZNSt23_Sp_counted_ptr_inplaceIN7asiopal9TCPClientESaIS1_ELN9__gnu_cxx12_Lock_policyE1EE10_M_disposeEv,"axG",%progbits,_ZNSt23_Sp_counted_ptr_inplaceIN7asiopal9TCPClientESaIS1_ELN9__gnu_cxx12_Lock_policyE1EE10_M_disposeEv,comdat
	.fnend
	.size	_ZNSt23_Sp_counted_ptr_inplaceIN7asiopal9TCPClientESaIS1_ELN9__gnu_cxx12_Lock_policyE1EE10_M_disposeEv, .-_ZNSt23_Sp_counted_ptr_inplaceIN7asiopal9TCPClientESaIS1_ELN9__gnu_cxx12_Lock_policyE1EE10_M_disposeEv
	.section	.text._ZNSt23_Sp_counted_ptr_inplaceIN7asiopal13SocketChannelESaIS1_ELN9__gnu_cxx12_Lock_policyE1EE10_M_disposeEv,"axG",%progbits,_ZNSt23_Sp_counted_ptr_inplaceIN7asiopal13SocketChannelESaIS1_ELN9__gnu_cxx12_Lock_policyE1EE10_M_disposeEv,comdat
	.align	2
	.weak	_ZNSt23_Sp_counted_ptr_inplaceIN7asiopal13SocketChannelESaIS1_ELN9__gnu_cxx12_Lock_policyE1EE10_M_disposeEv
	.syntax unified
	.arm
	.fpu vfp
	.type	_ZNSt23_Sp_counted_ptr_inplaceIN7asiopal13SocketChannelESaIS1_ELN9__gnu_cxx12_Lock_policyE1EE10_M_disposeEv, %function
_ZNSt23_Sp_counted_ptr_inplaceIN7asiopal13SocketChannelESaIS1_ELN9__gnu_cxx12_Lock_policyE1EE10_M_disposeEv:
	.fnstart
.LFB10087:
	@ args = 0, pretend = 0, frame = 40
	@ frame_needed = 0, uses_anonymous_args = 0
	push	{r4, r5, r6, r7, r8, r9, r10, fp, lr}
	.save {r4, r5, r6, r7, r8, r9, r10, fp, lr}
	mov	r6, r0
	ldr	r9, .L742
	ldr	r3, .L742+4
.LPIC54:
	add	r9, pc, r9
	ldr	r4, [r0, #68]
	ldr	r3, [r9, r3]
	cmn	r4, #1
	add	r3, r3, #8
	.pad #52
	sub	sp, sp, #52
	str	r3, [r0, #36]
	beq	.L576
	ldr	r3, [r0, #76]
	cmp	r3, #0
	beq	.L650
	ldr	r2, [r0, #84]
	add	r3, r3, #20
	str	r3, [sp, #28]
	mov	r0, r3
	ldr	r3, [r2, #20]
	ldrb	r5, [r6, #72]	@ zero_extendqisi2
	str	r3, [sp, #24]
	bl	pthread_mutex_lock(PLT)
	ldr	r1, [r6, #76]
	ldrb	r0, [r1, #80]	@ zero_extendqisi2
	cmp	r0, #0
	bne	.L578
	tst	r5, #64
	bne	.L733
.L579:
	mov	r5, #0
	ldr	r3, .L742+8
	mov	r7, r5
	mov	r10, #56
.LPIC55:
	add	r3, pc, r3
	str	r3, [sp, #20]
	str	r5, [sp, #16]
	str	r5, [sp, #8]
	str	r9, [sp, #12]
.L589:
	ldr	r4, [r1, r10]
	cmp	r4, #0
	beq	.L580
	ldr	r3, [sp, #8]
	ldr	r1, .L742+12
	ldr	r2, .L742+16
	lsl	r9, r3, #3
	ldr	r3, [sp, #12]
	ldr	r8, [r3, r1]
	ldr	fp, [r3, r2]
	b	.L582
.L584:
	ldr	r1, [r6, #76]
	mov	r3, #125
	add	r0, r1, r9
	str	r3, [r4, #12]
	ldr	r2, [r0, #56]
	str	fp, [r4, #16]
	cmp	r2, #0
	beq	.L586
	ldr	ip, [r2]
	cmp	ip, #0
	str	ip, [r0, #56]
	streq	ip, [r0, #60]
	str	r7, [r2]
.L586:
	cmp	r5, #0
	str	r7, [r4]
	strne	r4, [r5]
	beq	.L734
	ldr	r2, [r1, r10]
	mov	r5, r4
	cmp	r2, #0
	beq	.L580
.L741:
	mov	r4, r2
.L582:
	ldrb	r2, [r8]	@ zero_extendqisi2
	mcr	p15, 0, r0, c7, c10, 5
	tst	r2, #1
	bne	.L584
	mov	r0, r8
	bl	__cxa_guard_acquire(PLT)
	cmp	r0, #0
	beq	.L584
	mov	r0, r8
	bl	__cxa_guard_release(PLT)
	ldr	r3, [sp, #12]
	ldr	r1, .L742+20
	ldr	r2, [sp, #20]
	mov	r0, fp
	ldr	r1, [r3, r1]
	bl	__aeabi_atexit(PLT)
	b	.L584
.L594:
	add	r7, r4, #24
	mov	r0, r7
	bl	pthread_mutex_lock(PLT)
	ldr	r3, [r4, #132]
	cmp	r3, #0
	ldreq	r3, [sp, #16]
	ldrne	r2, [sp, #16]
	streq	r3, [r4, #128]
	strne	r2, [r3]
	ldr	r3, [r4, #96]
	str	r5, [r4, #132]
	orr	r3, r3, #1
	cmp	r3, #1
	str	r3, [r4, #96]
	add	r5, r4, #48
	beq	.L605
	mov	r0, r7
	bl	pthread_mutex_unlock(PLT)
	mov	r0, r5
	bl	pthread_cond_signal(PLT)
.L724:
	ldr	r4, [r6, #68]
	cmn	r4, #1
	beq	.L576
.L650:
	ldrb	r3, [r6, #72]	@ zero_extendqisi2
	tst	r3, #8
	bne	.L609
	bl	__errno_location(PLT)
	ldr	r3, .L742+12
	ldr	r5, [r9, r3]
	mov	r7, r0
.L610:
	mov	r3, #0
	str	r3, [r7]
	mov	r0, r4
	bl	close(PLT)
	ldr	r10, [r7]
	ldrb	r3, [r5]	@ zero_extendqisi2
	mcr	p15, 0, r0, c7, c10, 5
	tst	r3, #1
	mov	r8, r0
	beq	.L735
.L615:
	cmp	r8, #0
	beq	.L576
	ldrb	r3, [r5]	@ zero_extendqisi2
	mcr	p15, 0, r0, c7, c10, 5
	tst	r3, #1
	beq	.L736
.L619:
	cmp	r10, #11
	beq	.L737
	ldrb	r3, [r5]	@ zero_extendqisi2
	mcr	p15, 0, r0, c7, c10, 5
	tst	r3, #1
	bne	.L576
	mov	r0, r5
	bl	__cxa_guard_acquire(PLT)
	cmp	r0, #0
	beq	.L576
	mov	r0, r5
	bl	__cxa_guard_release(PLT)
	ldr	r1, .L742+20
	ldr	r3, .L742+16
	ldr	r2, .L742+24
	ldr	r1, [r9, r1]
.LPIC59:
	add	r2, pc, r2
	ldr	r0, [r9, r3]
	bl	__aeabi_atexit(PLT)
.L576:
	ldr	r3, .L742+28
	ldr	r4, [r6, #60]
	ldr	r3, [r9, r3]
	cmp	r4, #0
	add	r3, r3, #8
	str	r3, [r6, #36]
	beq	.L627
	ldr	r3, .L742+32
	ldr	r3, [r9, r3]
	cmp	r3, #0
	beq	.L628
	add	r3, r4, #28
	mcr	p15, 0, r0, c7, c10, 5
.L721:
	ldrex	r2, [r3]
	sub	r1, r2, #1
	strex	r0, r1, [r3]
	cmp	r0, #0
	bne	.L721
	cmp	r2, #1
	mcr	p15, 0, r0, c7, c10, 5
	beq	.L738
.L627:
	ldr	r4, [r6, #52]
	cmp	r4, #0
	beq	.L633
	ldr	r3, .L742+32
	ldr	r3, [r9, r3]
	cmp	r3, #0
	beq	.L634
	add	r3, r4, #28
	mcr	p15, 0, r0, c7, c10, 5
.L720:
	ldrex	r2, [r3]
	sub	r1, r2, #1
	strex	r0, r1, [r3]
	cmp	r0, #0
	bne	.L720
	cmp	r2, #1
	mcr	p15, 0, r0, c7, c10, 5
	beq	.L739
.L633:
	ldr	r0, [r6, #44]
	cmp	r0, #0
	beq	.L575
	ldr	r3, .L742+32
	ldr	r3, [r9, r3]
	cmp	r3, #0
	beq	.L640
	add	r3, r0, #32
	mcr	p15, 0, r0, c7, c10, 5
.L719:
	ldrex	r2, [r3]
	sub	r1, r2, #1
	strex	ip, r1, [r3]
	cmp	ip, #0
	bne	.L719
	cmp	r2, #1
	mcr	p15, 0, r0, c7, c10, 5
	beq	.L740
.L575:
	add	sp, sp, #52
	@ sp needed
	pop	{r4, r5, r6, r7, r8, r9, r10, fp, pc}
.L628:
	ldr	r3, [r4, #28]
	cmp	r3, #1
	sub	r3, r3, #1
	str	r3, [r4, #28]
	bne	.L627
	ldr	r3, [r4]
	mov	r0, r4
	ldr	r3, [r3, #8]
	blx	r3
	mcr	p15, 0, r0, c7, c10, 5
	ldr	r2, [r4, #32]
	sub	r3, r2, #1
	str	r3, [r4, #32]
	b	.L648
.L634:
	ldr	r3, [r4, #28]
	cmp	r3, #1
	sub	r3, r3, #1
	str	r3, [r4, #28]
	bne	.L633
	ldr	r3, [r4]
	mov	r0, r4
	ldr	r3, [r3, #8]
	blx	r3
	mcr	p15, 0, r0, c7, c10, 5
	ldr	r2, [r4, #32]
	sub	r3, r2, #1
	str	r3, [r4, #32]
	b	.L649
.L734:
	ldr	r2, [r1, r10]
	str	r4, [sp, #16]
	cmp	r2, #0
	mov	r5, r4
	bne	.L741
.L580:
	ldr	r3, [sp, #8]
	add	r10, r10, #8
	add	r3, r3, #1
	cmp	r3, #3
	str	r3, [sp, #8]
	bne	.L589
	ldr	r7, [sp, #24]
	mvn	r2, #0
	mov	r3, #1
	str	r2, [r1, #48]
	strb	r3, [r1, #80]
	add	r8, r7, #72
	ldr	r0, [sp, #28]
	ldr	r9, [sp, #12]
	bl	pthread_mutex_unlock(PLT)
	mov	r0, r8
	ldr	r4, [r6, #76]
	bl	pthread_mutex_lock(PLT)
	ldr	r3, [r7, #96]
	mov	r7, #0
	cmp	r4, r3
	mov	r0, r8
	ldreq	r2, [sp, #24]
	ldreq	r3, [r4, #12]
	streq	r3, [r2, #96]
	ldr	r3, [r4, #16]
	cmp	r3, #0
	ldrne	r2, [r4, #12]
	strne	r2, [r3, #12]
	ldr	r3, [r4, #12]
	cmp	r3, #0
	ldrne	r2, [r4, #16]
	strne	r2, [r3, #16]
	ldr	r2, [sp, #24]
	mov	r8, r2
	ldr	r3, [r2, #100]
	str	r7, [r4, #16]
	str	r3, [r4, #12]
	str	r4, [r2, #100]
	bl	pthread_mutex_unlock(PLT)
	ldr	r3, [sp, #16]
	str	r7, [r6, #76]
	cmp	r3, r7
	ldr	r4, [r8, #20]
	beq	.L724
	ldrb	r3, [r4, #20]	@ zero_extendqisi2
	cmp	r3, r7
	beq	.L594
	ldr	r3, .L742+36
	ldr	r3, [r9, r3]
	ldr	r0, [r3]
	bl	pthread_getspecific(PLT)
	cmp	r0, #0
	bne	.L712
	b	.L594
.L597:
	ldr	r0, [r0, #8]
	cmp	r0, #0
	beq	.L594
.L712:
	ldr	r3, [r0]
	cmp	r4, r3
	bne	.L597
	ldr	r3, [r0, #4]
	cmp	r3, #0
	beq	.L594
	ldr	r2, [r3, #8]
	cmp	r2, #0
	ldrne	r1, [sp, #16]
	ldreq	r2, [sp, #16]
	strne	r1, [r2]
	streq	r2, [r3, #4]
	str	r5, [r3, #8]
	b	.L724
.L640:
	ldr	r2, [r0, #32]
	sub	r3, r2, #1
	cmp	r2, #1
	str	r3, [r0, #32]
	bne	.L575
.L740:
	mcr	p15, 0, r0, c7, c10, 5
	ldr	r3, [r0]
	ldr	r3, [r3, #12]
	blx	r3
	add	sp, sp, #52
	@ sp needed
	pop	{r4, r5, r6, r7, r8, r9, r10, fp, pc}
.L578:
	ldr	r0, [sp, #28]
	bl	pthread_mutex_unlock(PLT)
	ldr	r4, [r6, #68]
	cmn	r4, #1
	bne	.L650
	b	.L576
.L738:
	ldr	r3, [r4]
	mov	r0, r4
	ldr	r3, [r3, #8]
	blx	r3
	add	r3, r4, #32
	mcr	p15, 0, r0, c7, c10, 5
	mcr	p15, 0, r0, c7, c10, 5
.L718:
	ldrex	r2, [r3]
	sub	r1, r2, #1
	strex	r0, r1, [r3]
	cmp	r0, #0
	bne	.L718
	mcr	p15, 0, r0, c7, c10, 5
.L648:
	cmp	r2, #1
	bne	.L627
	ldr	r3, [r4]
	mov	r0, r4
	ldr	r3, [r3, #12]
	blx	r3
	b	.L627
.L739:
	ldr	r3, [r4]
	mov	r0, r4
	ldr	r3, [r3, #8]
	blx	r3
	add	r3, r4, #32
	mcr	p15, 0, r0, c7, c10, 5
	mcr	p15, 0, r0, c7, c10, 5
.L717:
	ldrex	r2, [r3]
	sub	r1, r2, #1
	strex	r0, r1, [r3]
	cmp	r0, #0
	bne	.L717
	mcr	p15, 0, r0, c7, c10, 5
.L649:
	cmp	r2, #1
	bne	.L633
	ldr	r3, [r4]
	mov	r0, r4
	ldr	r3, [r3, #12]
	blx	r3
	b	.L633
.L733:
	str	r0, [sp, #32]
	str	r0, [sp, #36]
	str	r0, [sp, #40]
	str	r0, [sp, #44]
	ldr	r0, [sp, #24]
	add	ip, sp, #32
	mov	r1, #2
	mov	r2, r4
	mov	r3, ip
	ldr	r0, [r0, #56]
	bl	epoll_ctl(PLT)
	ldr	r1, [r6, #76]
	b	.L579
.L735:
	mov	r0, r5
	bl	__cxa_guard_acquire(PLT)
	cmp	r0, #0
	beq	.L615
	mov	r0, r5
	bl	__cxa_guard_release(PLT)
	ldr	r3, .L742+16
	ldr	r1, .L742+20
	ldr	r2, .L742+40
	ldr	r0, [r9, r3]
.LPIC57:
	add	r2, pc, r2
	ldr	r1, [r9, r1]
	bl	__aeabi_atexit(PLT)
	b	.L615
.L609:
	orr	r3, r3, #8
	mov	r5, #0
	strb	r3, [r6, #72]
	str	r5, [sp, #32]
	str	r5, [sp, #36]
	bl	__errno_location(PLT)
	mov	r2, #8
	add	r3, sp, #32
	mov	r1, #1
	str	r5, [r0]
	mov	r7, r0
	str	r2, [sp]
	mov	r0, r4
	mov	r2, #13
	bl	setsockopt(PLT)
	ldr	r3, .L742+12
	ldr	r5, [r9, r3]
	ldrb	r3, [r5]	@ zero_extendqisi2
	mcr	p15, 0, r0, c7, c10, 5
	tst	r3, #1
	bne	.L610
	mov	r0, r5
	bl	__cxa_guard_acquire(PLT)
	cmp	r0, #0
	beq	.L610
	mov	r0, r5
	bl	__cxa_guard_release(PLT)
	ldr	r3, .L742+16
	ldr	r1, .L742+20
	ldr	r2, .L742+44
	ldr	r0, [r9, r3]
.LPIC56:
	add	r2, pc, r2
	ldr	r1, [r9, r1]
	bl	__aeabi_atexit(PLT)
	b	.L610
.L737:
	add	r2, sp, #48
	mov	r8, #0
	str	r8, [r2, #-16]!
	ldr	r1, .L742+48
	mov	r0, r4
	bl	ioctl(PLT)
	ldrb	r3, [r6, #72]	@ zero_extendqisi2
	mov	r0, r4
	bic	r3, r3, #3
	strb	r3, [r6, #72]
	str	r8, [r7]
	bl	close(PLT)
	ldrb	r3, [r5]	@ zero_extendqisi2
	mcr	p15, 0, r0, c7, c10, 5
	tst	r3, #1
	bne	.L576
	mov	r0, r5
	bl	__cxa_guard_acquire(PLT)
	cmp	r0, #0
	beq	.L576
	mov	r0, r5
	bl	__cxa_guard_release(PLT)
	ldr	r3, .L742+16
	ldr	r1, .L742+20
	ldr	r2, .L742+52
	ldr	r0, [r9, r3]
.LPIC60:
	add	r2, pc, r2
	ldr	r1, [r9, r1]
	bl	__aeabi_atexit(PLT)
	b	.L576
.L605:
	ldrb	r2, [r4, #120]	@ zero_extendqisi2
	cmp	r2, #0
	bne	.L607
	ldr	r0, [r4, #104]
	cmp	r0, #0
	beq	.L607
	strb	r3, [r4, #120]
	add	r3, sp, #32
	add	r1, r0, #48
	mov	ip, #-2147483639
	str	r1, [sp, #40]
	str	r2, [r3, #4]
	str	r2, [r3, #12]
	str	ip, [sp, #32]
	mov	r1, #3
	ldr	r2, [r0, #48]
	ldr	r0, [r0, #56]
	bl	epoll_ctl(PLT)
.L607:
	mov	r0, r7
	bl	pthread_mutex_unlock(PLT)
	b	.L724
.L736:
	mov	r0, r5
	bl	__cxa_guard_acquire(PLT)
	cmp	r0, #0
	beq	.L619
	mov	r0, r5
	bl	__cxa_guard_release(PLT)
	ldr	r3, .L742+16
	ldr	r1, .L742+20
	ldr	r2, .L742+56
	ldr	r0, [r9, r3]
.LPIC58:
	add	r2, pc, r2
	ldr	r1, [r9, r1]
	bl	__aeabi_atexit(PLT)
	b	.L619
.L743:
	.align	2
.L742:
	.word	_GLOBAL_OFFSET_TABLE_-(.LPIC54+8)
	.word	_ZTVN7asiopal13SocketChannelE(GOT)
	.word	__dso_handle-(.LPIC55+8)
	.word	_ZGVZN4asio15system_categoryEvE8instance(GOT)
	.word	_ZZN4asio15system_categoryEvE8instance(GOT)
	.word	_ZN4asio6detail15system_categoryD1Ev(GOT)
	.word	__dso_handle-(.LPIC59+8)
	.word	_ZTVN7asiopal13IAsyncChannelE(GOT)
	.word	_ZL28__gthrw___pthread_key_createPjPFvPvE(GOT)
	.word	_ZN4asio6detail10call_stackINS0_15task_io_serviceENS0_27task_io_service_thread_infoEE4top_E(GOT)
	.word	__dso_handle-(.LPIC57+8)
	.word	__dso_handle-(.LPIC56+8)
	.word	21537
	.word	__dso_handle-(.LPIC60+8)
	.word	__dso_handle-(.LPIC58+8)
	.personality	__gxx_personality_v0
	.handlerdata
.LLSDA10087:
	.byte	0xff
	.byte	0xff
	.byte	0x1
	.uleb128 .LLSDACSE10087-.LLSDACSB10087
.LLSDACSB10087:
.LLSDACSE10087:
	.section	.text._ZNSt23_Sp_counted_ptr_inplaceIN7asiopal13SocketChannelESaIS1_ELN9__gnu_cxx12_Lock_policyE1EE10_M_disposeEv,"axG",%progbits,_ZNSt23_Sp_counted_ptr_inplaceIN7asiopal13SocketChannelESaIS1_ELN9__gnu_cxx12_Lock_policyE1EE10_M_disposeEv,comdat
	.fnend
	.size	_ZNSt23_Sp_counted_ptr_inplaceIN7asiopal13SocketChannelESaIS1_ELN9__gnu_cxx12_Lock_policyE1EE10_M_disposeEv, .-_ZNSt23_Sp_counted_ptr_inplaceIN7asiopal13SocketChannelESaIS1_ELN9__gnu_cxx12_Lock_policyE1EE10_M_disposeEv
	.section	.text._ZN4asio6detail20posix_tss_ptr_createERj,"axG",%progbits,_ZN4asio6detail20posix_tss_ptr_createERj,comdat
	.align	2
	.weak	_ZN4asio6detail20posix_tss_ptr_createERj
	.syntax unified
	.arm
	.fpu vfp
	.type	_ZN4asio6detail20posix_tss_ptr_createERj, %function
_ZN4asio6detail20posix_tss_ptr_createERj:
	.fnstart
.LFB2708:
	@ args = 0, pretend = 0, frame = 24
	@ frame_needed = 0, uses_anonymous_args = 0
	push	{r4, r5, r6, lr}
	.save {r4, r5, r6, lr}
	mov	r1, #0
	.pad #24
	sub	sp, sp, #24
	bl	pthread_key_create(PLT)
	ldr	r4, .L758
	ldr	r3, .L758+4
.LPIC61:
	add	r4, pc, r4
	ldr	r6, [r4, r3]
	ldrb	r3, [r6]	@ zero_extendqisi2
	mcr	p15, 0, r0, c7, c10, 5
	tst	r3, #1
	mov	r5, r0
	beq	.L756
.L755:
	ldr	r3, .L758+8
	ldr	r6, [r4, r3]
.L746:
	cmp	r5, #0
	stm	sp, {r5, r6}
	bne	.L757
	add	sp, sp, #24
	@ sp needed
	pop	{r4, r5, r6, pc}
.L756:
	mov	r0, r6
	bl	__cxa_guard_acquire(PLT)
	cmp	r0, #0
	beq	.L755
	mov	r0, r6
	bl	__cxa_guard_release(PLT)
	ldr	r3, .L758+8
	ldr	r1, .L758+12
	ldr	r2, .L758+16
	ldr	r6, [r4, r3]
.LPIC62:
	add	r2, pc, r2
	ldr	r1, [r4, r1]
	mov	r0, r6
	bl	__aeabi_atexit(PLT)
	b	.L746
.L757:
	ldr	r3, .L758+20
	add	r5, sp, #8
	ldm	sp, {r1, r2}
.LPIC63:
	add	r3, pc, r3
	mov	r0, r5
.LEHB7:
	bl	_ZNSt12system_errorC1ESt10error_codePKc(PLT)
.LEHE7:
	mov	r0, #16
	bl	__cxa_allocate_exception(PLT)
	mov	r1, r5
	mov	r6, r0
	bl	_ZNSt13runtime_errorC2ERKS_(PLT)
	ldr	r3, .L758+24
	add	r2, sp, #24
	ldr	ip, .L758+28
	ldmdb	r2, {r0, r1}
	ldr	lr, [r4, r3]
	ldr	r2, .L758+32
	mov	r3, r6
	add	lr, lr, #8
	str	lr, [r3], #8
	stm	r3, {r0, r1}
	mov	r0, r6
	ldr	r2, [r4, r2]
	ldr	r1, [r4, ip]
.LEHB8:
	bl	__cxa_throw(PLT)
.LEHE8:
.L750:
	mov	r0, r5
	bl	_ZNSt12system_errorD1Ev(PLT)
.LEHB9:
	bl	__cxa_end_cleanup(PLT)
.LEHE9:
.L759:
	.align	2
.L758:
	.word	_GLOBAL_OFFSET_TABLE_-(.LPIC61+8)
	.word	_ZGVZN4asio15system_categoryEvE8instance(GOT)
	.word	_ZZN4asio15system_categoryEvE8instance(GOT)
	.word	_ZN4asio6detail15system_categoryD1Ev(GOT)
	.word	__dso_handle-(.LPIC62+8)
	.word	.LC22-(.LPIC63+8)
	.word	_ZTVSt12system_error(GOT)
	.word	_ZTISt12system_error(GOT)
	.word	_ZNSt12system_errorD1Ev(GOT)
	.personality	__gxx_personality_v0
	.handlerdata
.LLSDA2708:
	.byte	0xff
	.byte	0xff
	.byte	0x1
	.uleb128 .LLSDACSE2708-.LLSDACSB2708
.LLSDACSB2708:
	.uleb128 .LEHB7-.LFB2708
	.uleb128 .LEHE7-.LEHB7
	.uleb128 0
	.uleb128 0
	.uleb128 .LEHB8-.LFB2708
	.uleb128 .LEHE8-.LEHB8
	.uleb128 .L750-.LFB2708
	.uleb128 0
	.uleb128 .LEHB9-.LFB2708
	.uleb128 .LEHE9-.LEHB9
	.uleb128 0
	.uleb128 0
.LLSDACSE2708:
	.section	.text._ZN4asio6detail20posix_tss_ptr_createERj,"axG",%progbits,_ZN4asio6detail20posix_tss_ptr_createERj,comdat
	.fnend
	.size	_ZN4asio6detail20posix_tss_ptr_createERj, .-_ZN4asio6detail20posix_tss_ptr_createERj
	.section	.text._ZN4asio6detail28reactive_socket_service_base7destroyERNS1_24base_implementation_typeE,"axG",%progbits,_ZN4asio6detail28reactive_socket_service_base7destroyERNS1_24base_implementation_typeE,comdat
	.align	2
	.weak	_ZN4asio6detail28reactive_socket_service_base7destroyERNS1_24base_implementation_typeE
	.syntax unified
	.arm
	.fpu vfp
	.type	_ZN4asio6detail28reactive_socket_service_base7destroyERNS1_24base_implementation_typeE, %function
_ZN4asio6detail28reactive_socket_service_base7destroyERNS1_24base_implementation_typeE:
	.fnstart
.LFB4226:
	@ args = 0, pretend = 0, frame = 40
	@ frame_needed = 0, uses_anonymous_args = 0
	push	{r4, r5, r6, r7, r8, r9, r10, fp, lr}
	.save {r4, r5, r6, r7, r8, r9, r10, fp, lr}
	.pad #52
	sub	sp, sp, #52
	ldr	r4, [r1]
	ldr	r3, .L895
	cmn	r4, #1
.LPIC64:
	add	r3, pc, r3
	str	r3, [sp, #8]
	beq	.L760
	ldr	r2, [r1, #8]
	mov	r3, r0
	cmp	r2, #0
	mov	r6, r1
	beq	.L816
	add	r2, r2, #20
	ldr	r3, [r3]
	mov	r0, r2
	ldrb	r5, [r1, #4]	@ zero_extendqisi2
	str	r2, [sp, #28]
	str	r3, [sp, #24]
	bl	pthread_mutex_lock(PLT)
	ldr	r1, [r6, #8]
	ldrb	r0, [r1, #80]	@ zero_extendqisi2
	cmp	r0, #0
	bne	.L763
	tst	r5, #64
	bne	.L889
.L764:
	mov	r5, #0
	ldr	r3, .L895+4
	mov	r7, r5
	mov	r9, #56
.LPIC65:
	add	r3, pc, r3
	str	r3, [sp, #20]
	str	r5, [sp, #16]
	str	r5, [sp, #12]
.L774:
	ldr	r4, [r1, r9]
	cmp	r4, #0
	beq	.L765
	ldr	r3, [sp, #12]
	ldr	r1, .L895+8
	ldr	r2, .L895+12
	lsl	fp, r3, #3
	ldr	r3, [sp, #8]
	ldr	r8, [r3, r1]
	ldr	r10, [r3, r2]
	b	.L767
.L769:
	ldr	r1, [r6, #8]
	mov	r3, #125
	add	r0, r1, fp
	str	r3, [r4, #12]
	ldr	r2, [r0, #56]
	str	r10, [r4, #16]
	cmp	r2, #0
	beq	.L771
	ldr	ip, [r2]
	cmp	ip, #0
	str	ip, [r0, #56]
	streq	ip, [r0, #60]
	str	r7, [r2]
.L771:
	cmp	r5, #0
	str	r7, [r4]
	strne	r4, [r5]
	beq	.L890
	ldr	r2, [r1, r9]
	mov	r5, r4
	cmp	r2, #0
	beq	.L765
.L894:
	mov	r4, r2
.L767:
	ldrb	r2, [r8]	@ zero_extendqisi2
	mcr	p15, 0, r0, c7, c10, 5
	tst	r2, #1
	bne	.L769
	mov	r0, r8
	bl	__cxa_guard_acquire(PLT)
	cmp	r0, #0
	beq	.L769
	mov	r0, r8
	bl	__cxa_guard_release(PLT)
	ldr	r3, [sp, #8]
	ldr	r1, .L895+16
	ldr	r2, [sp, #20]
	mov	r0, r10
	ldr	r1, [r3, r1]
	bl	__aeabi_atexit(PLT)
	b	.L769
.L779:
	add	r7, r4, #24
	mov	r0, r7
	bl	pthread_mutex_lock(PLT)
	ldr	r3, [r4, #132]
	cmp	r3, #0
	ldreq	r3, [sp, #16]
	ldrne	r2, [sp, #16]
	streq	r3, [r4, #128]
	strne	r2, [r3]
	ldr	r3, [r4, #96]
	str	r5, [r4, #132]
	orr	r3, r3, #1
	cmp	r3, #1
	str	r3, [r4, #96]
	add	r5, r4, #48
	beq	.L790
	mov	r0, r7
	bl	pthread_mutex_unlock(PLT)
	mov	r0, r5
	bl	pthread_cond_signal(PLT)
.L885:
	ldr	r4, [r6]
	cmn	r4, #1
	beq	.L760
.L816:
	ldrb	r3, [r6, #4]	@ zero_extendqisi2
	tst	r3, #8
	bne	.L794
	bl	__errno_location(PLT)
	ldr	r3, .L895+8
	ldr	r2, [sp, #8]
	ldr	r5, [r2, r3]
	mov	r7, r0
.L795:
	mov	r3, #0
	str	r3, [r7]
	mov	r0, r4
	bl	close(PLT)
	ldr	r9, [r7]
	ldrb	r3, [r5]	@ zero_extendqisi2
	mcr	p15, 0, r0, c7, c10, 5
	tst	r3, #1
	mov	r8, r0
	beq	.L891
.L800:
	cmp	r8, #0
	beq	.L760
	ldrb	r3, [r5]	@ zero_extendqisi2
	mcr	p15, 0, r0, c7, c10, 5
	tst	r3, #1
	beq	.L892
.L804:
	cmp	r9, #11
	beq	.L893
	ldrb	r3, [r5]	@ zero_extendqisi2
	mcr	p15, 0, r0, c7, c10, 5
	tst	r3, #1
	bne	.L760
	mov	r0, r5
	bl	__cxa_guard_acquire(PLT)
	cmp	r0, #0
	beq	.L760
	mov	r0, r5
	bl	__cxa_guard_release(PLT)
	ldr	r0, [sp, #8]
	ldr	r1, .L895+16
	ldr	r3, .L895+12
	ldr	r2, .L895+20
	ldr	r1, [r0, r1]
.LPIC69:
	add	r2, pc, r2
	ldr	r0, [r0, r3]
	bl	__aeabi_atexit(PLT)
.L760:
	add	sp, sp, #52
	@ sp needed
	pop	{r4, r5, r6, r7, r8, r9, r10, fp, pc}
.L890:
	ldr	r2, [r1, r9]
	str	r4, [sp, #16]
	cmp	r2, #0
	mov	r5, r4
	bne	.L894
.L765:
	ldr	r3, [sp, #12]
	add	r9, r9, #8
	add	r3, r3, #1
	cmp	r3, #3
	str	r3, [sp, #12]
	bne	.L774
	ldr	r7, [sp, #24]
	mvn	r2, #0
	mov	r3, #1
	str	r2, [r1, #48]
	strb	r3, [r1, #80]
	add	r8, r7, #72
	ldr	r0, [sp, #28]
	bl	pthread_mutex_unlock(PLT)
	mov	r0, r8
	ldr	r4, [r6, #8]
	bl	pthread_mutex_lock(PLT)
	ldr	r3, [r7, #96]
	mov	r7, #0
	cmp	r4, r3
	mov	r0, r8
	ldreq	r2, [sp, #24]
	ldreq	r3, [r4, #12]
	streq	r3, [r2, #96]
	ldr	r3, [r4, #16]
	cmp	r3, #0
	ldrne	r2, [r4, #12]
	strne	r2, [r3, #12]
	ldr	r3, [r4, #12]
	cmp	r3, #0
	ldrne	r2, [r4, #16]
	strne	r2, [r3, #16]
	ldr	r2, [sp, #24]
	mov	r8, r2
	ldr	r3, [r2, #100]
	str	r7, [r4, #16]
	str	r3, [r4, #12]
	str	r4, [r2, #100]
	bl	pthread_mutex_unlock(PLT)
	ldr	r3, [sp, #16]
	str	r7, [r6, #8]
	cmp	r3, r7
	ldr	r4, [r8, #20]
	beq	.L885
	ldrb	r3, [r4, #20]	@ zero_extendqisi2
	cmp	r3, r7
	beq	.L779
	ldr	r2, [sp, #8]
	ldr	r3, .L895+24
	ldr	r3, [r2, r3]
	ldr	r0, [r3]
	bl	pthread_getspecific(PLT)
	cmp	r0, #0
	bne	.L878
	b	.L779
.L782:
	ldr	r0, [r0, #8]
	cmp	r0, #0
	beq	.L779
.L878:
	ldr	r3, [r0]
	cmp	r4, r3
	bne	.L782
	ldr	r3, [r0, #4]
	cmp	r3, #0
	beq	.L779
	ldr	r2, [r3, #8]
	cmp	r2, #0
	ldrne	r1, [sp, #16]
	ldreq	r2, [sp, #16]
	strne	r1, [r2]
	streq	r2, [r3, #4]
	str	r5, [r3, #8]
	b	.L885
.L763:
	ldr	r0, [sp, #28]
	bl	pthread_mutex_unlock(PLT)
	ldr	r4, [r6]
	cmn	r4, #1
	bne	.L816
	b	.L760
.L889:
	str	r0, [sp, #32]
	str	r0, [sp, #36]
	str	r0, [sp, #40]
	str	r0, [sp, #44]
	ldr	r0, [sp, #24]
	add	ip, sp, #32
	mov	r1, #2
	mov	r2, r4
	mov	r3, ip
	ldr	r0, [r0, #56]
	bl	epoll_ctl(PLT)
	ldr	r1, [r6, #8]
	b	.L764
.L891:
	mov	r0, r5
	bl	__cxa_guard_acquire(PLT)
	cmp	r0, #0
	beq	.L800
	mov	r0, r5
	bl	__cxa_guard_release(PLT)
	ldr	r0, [sp, #8]
	ldr	r3, .L895+12
	ldr	r1, .L895+16
	ldr	r2, .L895+28
	ldr	r1, [r0, r1]
.LPIC67:
	add	r2, pc, r2
	ldr	r0, [r0, r3]
	bl	__aeabi_atexit(PLT)
	b	.L800
.L794:
	orr	r3, r3, #8
	mov	r5, #0
	strb	r3, [r6, #4]
	str	r5, [sp, #32]
	str	r5, [sp, #36]
	bl	__errno_location(PLT)
	mov	r2, #8
	add	r3, sp, #32
	mov	r1, #1
	str	r5, [r0]
	mov	r7, r0
	str	r2, [sp]
	mov	r0, r4
	mov	r2, #13
	bl	setsockopt(PLT)
	ldr	r2, [sp, #8]
	ldr	r3, .L895+8
	ldr	r5, [r2, r3]
	ldrb	r3, [r5]	@ zero_extendqisi2
	mcr	p15, 0, r0, c7, c10, 5
	tst	r3, #1
	bne	.L795
	mov	r0, r5
	bl	__cxa_guard_acquire(PLT)
	cmp	r0, #0
	beq	.L795
	mov	r0, r5
	bl	__cxa_guard_release(PLT)
	ldr	r0, [sp, #8]
	ldr	r3, .L895+12
	ldr	r1, .L895+16
	ldr	r2, .L895+32
	ldr	r1, [r0, r1]
.LPIC66:
	add	r2, pc, r2
	ldr	r0, [r0, r3]
	bl	__aeabi_atexit(PLT)
	b	.L795
.L893:
	add	r2, sp, #48
	mov	r8, #0
	str	r8, [r2, #-16]!
	ldr	r1, .L895+36
	mov	r0, r4
	bl	ioctl(PLT)
	ldrb	r3, [r6, #4]	@ zero_extendqisi2
	mov	r0, r4
	bic	r3, r3, #3
	strb	r3, [r6, #4]
	str	r8, [r7]
	bl	close(PLT)
	ldrb	r3, [r5]	@ zero_extendqisi2
	mcr	p15, 0, r0, c7, c10, 5
	tst	r3, #1
	bne	.L760
	mov	r0, r5
	bl	__cxa_guard_acquire(PLT)
	cmp	r0, #0
	beq	.L760
	mov	r0, r5
	bl	__cxa_guard_release(PLT)
	ldr	r0, [sp, #8]
	ldr	r3, .L895+12
	ldr	r1, .L895+16
	ldr	r2, .L895+40
	ldr	r1, [r0, r1]
.LPIC70:
	add	r2, pc, r2
	ldr	r0, [r0, r3]
	bl	__aeabi_atexit(PLT)
	b	.L760
.L790:
	ldrb	r2, [r4, #120]	@ zero_extendqisi2
	cmp	r2, #0
	bne	.L792
	ldr	r0, [r4, #104]
	cmp	r0, #0
	beq	.L792
	strb	r3, [r4, #120]
	add	r3, sp, #32
	add	r1, r0, #48
	mov	ip, #-2147483639
	str	r1, [sp, #40]
	str	r2, [r3, #4]
	str	r2, [r3, #12]
	str	ip, [sp, #32]
	mov	r1, #3
	ldr	r2, [r0, #48]
	ldr	r0, [r0, #56]
	bl	epoll_ctl(PLT)
.L792:
	mov	r0, r7
	bl	pthread_mutex_unlock(PLT)
	b	.L885
.L892:
	mov	r0, r5
	bl	__cxa_guard_acquire(PLT)
	cmp	r0, #0
	beq	.L804
	mov	r0, r5
	bl	__cxa_guard_release(PLT)
	ldr	r0, [sp, #8]
	ldr	r3, .L895+12
	ldr	r1, .L895+16
	ldr	r2, .L895+44
	ldr	r1, [r0, r1]
.LPIC68:
	add	r2, pc, r2
	ldr	r0, [r0, r3]
	bl	__aeabi_atexit(PLT)
	b	.L804
.L896:
	.align	2
.L895:
	.word	_GLOBAL_OFFSET_TABLE_-(.LPIC64+8)
	.word	__dso_handle-(.LPIC65+8)
	.word	_ZGVZN4asio15system_categoryEvE8instance(GOT)
	.word	_ZZN4asio15system_categoryEvE8instance(GOT)
	.word	_ZN4asio6detail15system_categoryD1Ev(GOT)
	.word	__dso_handle-(.LPIC69+8)
	.word	_ZN4asio6detail10call_stackINS0_15task_io_serviceENS0_27task_io_service_thread_infoEE4top_E(GOT)
	.word	__dso_handle-(.LPIC67+8)
	.word	__dso_handle-(.LPIC66+8)
	.word	21537
	.word	__dso_handle-(.LPIC70+8)
	.word	__dso_handle-(.LPIC68+8)
	.fnend
	.size	_ZN4asio6detail28reactive_socket_service_base7destroyERNS1_24base_implementation_typeE, .-_ZN4asio6detail28reactive_socket_service_base7destroyERNS1_24base_implementation_typeE
	.text
	.align	2
	.global	_ZN8asiodnp318TCPClientIOHandler12StartConnectERKSt10shared_ptrIN7asiopal9TCPClientEERKN7openpal12TimeDurationE
	.syntax unified
	.arm
	.fpu vfp
	.type	_ZN8asiodnp318TCPClientIOHandler12StartConnectERKSt10shared_ptrIN7asiopal9TCPClientEERKN7openpal12TimeDurationE, %function
_ZN8asiodnp318TCPClientIOHandler12StartConnectERKSt10shared_ptrIN7asiopal9TCPClientEERKN7openpal12TimeDurationE:
	.fnstart
.LFB7485:
	@ args = 0, pretend = 0, frame = 176
	@ frame_needed = 0, uses_anonymous_args = 0
	push	{r4, r5, r6, r7, r8, r9, lr}
	.save {r4, r5, r6, r7, r8, r9, lr}
	.pad #180
	sub	sp, sp, #180
	add	r3, sp, #176
	add	r6, r0, #16
	mov	r5, #8
	str	r5, [r3, #-120]!
	mov	r4, r0
	mov	r7, r1
	mov	r0, r6
	mov	r1, r3
	str	r3, [sp]
	mov	r9, r2
.LEHB10:
	bl	_ZNK7openpal6Logger9IsEnabledERKNS_10LogFiltersE(PLT)
.LEHE10:
	ldr	r8, .L1032
.LPIC73:
	add	r8, pc, r8
	cmp	r0, #0
	bne	.L1023
.L898:
	ldr	r6, [r4, #12]
	cmp	r6, #0
	str	r6, [sp, #28]
	beq	.L899
	ldr	r3, .L1032+4
	add	r0, r6, #4
	str	r0, [sp, #56]
	ldr	r5, [r8, r3]
	cmp	r5, #0
	beq	.L900
	bl	_ZL26__gthrw_pthread_mutex_lockP15pthread_mutex_t(PLT)
	cmp	r0, #0
	bne	.L1024
	add	r3, r6, #28
	mcr	p15, 0, r0, c7, c10, 5
.L999:
	ldrex	r2, [r3]
	add	r1, r2, #1
	strex	r0, r1, [r3]
	cmp	r0, #0
	bne	.L999
	cmp	r2, #0
	mcr	p15, 0, r0, c7, c10, 5
	beq	.L946
	ldr	r0, [sp, #56]
	bl	_ZL28__gthrw_pthread_mutex_unlockP15pthread_mutex_t(PLT)
	cmp	r0, #0
	bne	.L1025
	ldm	r7, {r0, r1}
	ldrd	r2, [r9]
	ldr	lr, [r4, #8]
	cmp	r1, #0
	str	r1, [sp, #52]
	str	r4, [sp, #32]
	strd	r2, [sp, #40]
	str	r0, [sp, #48]
	str	lr, [sp, #24]
	ldreq	r1, [sp, #28]
	beq	.L958
	add	r1, r1, #28
	mcr	p15, 0, r0, c7, c10, 5
.L1007:
	ldrex	r3, [r1]
	add	r3, r3, #1
	strex	r2, r3, [r1]
	cmp	r2, #0
	bne	.L1007
	mcr	p15, 0, r0, c7, c10, 5
	ldr	r3, [sp, #28]
	ldr	r2, [sp, #24]
	cmp	r3, #0
	str	r3, [sp, #60]
	ldr	r6, [r4, #668]
	str	r2, [sp, #56]
	addne	r3, r3, #28
	beq	.L1026
.L951:
	mcr	p15, 0, r0, c7, c10, 5
.L1006:
	ldrex	r2, [r3]
	add	r2, r2, #1
	strex	r1, r2, [r3]
	cmp	r1, #0
	bne	.L1006
	mcr	p15, 0, r0, c7, c10, 5
	ldr	r1, [sp, #52]
	ldrd	r2, [sp, #40]
	ldr	ip, [sp, #32]
	ldr	r0, [sp, #48]
	cmp	r1, #0
	str	ip, [sp, #64]
	strd	r2, [sp, #72]
	str	r0, [sp, #80]
	str	r1, [sp, #84]
	beq	.L912
.L1009:
	add	r1, r1, #28
	mcr	p15, 0, r0, c7, c10, 5
.L1005:
	ldrex	r3, [r1]
	add	r3, r3, #1
	strex	r2, r3, [r1]
	cmp	r2, #0
	bne	.L1005
	mcr	p15, 0, r0, c7, c10, 5
.L912:
	mov	r3, #0
	mov	r0, #32
	str	r3, [sp, #16]
.LEHB11:
	bl	_Znwj(PLT)
.LEHE11:
	mov	r3, r0
	ldr	ip, [sp, #56]
	ldr	lr, [sp, #60]
	ldr	r2, [sp, #84]
	ldrd	r0, [sp, #72]
	str	ip, [r3]
	ldr	ip, [sp, #64]
	str	lr, [r3, #4]
	ldr	lr, [sp, #80]
	str	ip, [r3, #8]
	cmp	r2, #0
	mov	ip, #0
	strd	r0, [r3, #16]
	str	lr, [r3, #24]
	str	r2, [r3, #28]
	str	ip, [sp, #60]
	str	ip, [sp, #56]
	beq	.L913
	cmp	r5, ip
	beq	.L914
	add	r2, r2, #28
	mcr	p15, 0, r0, c7, c10, 5
.L1004:
	ldrex	r1, [r2]
	add	r1, r1, #1
	strex	r0, r1, [r2]
	cmp	r0, #0
	bne	.L1004
	mcr	p15, 0, r0, c7, c10, 5
.L913:
	add	r2, sp, #8
	str	r2, [sp, #4]
	ldr	ip, .L1032+8
	ldr	r2, .L1032+12
.LPIC74:
	add	ip, pc, ip
.LPIC75:
	add	r2, pc, r2
	mov	r0, r6
	ldr	r1, [sp, #4]
	str	r3, [sp, #8]
	str	ip, [sp, #20]
	str	r2, [sp, #16]
.LEHB12:
	bl	_ZN7asiopal9TCPClient12BeginConnectERKSt8functionIFvRKSt10shared_ptrINS_8ExecutorEEN4asio19basic_stream_socketINS7_2ip3tcpENS7_21stream_socket_serviceISA_EEEERKSt10error_codeEE(PLT)
.LEHE12:
	ldr	r3, [sp, #16]
	cmp	r3, #0
	beq	.L919
	ldr	r1, [sp, #4]
	mov	r2, #3
	mov	r0, r1
	blx	r3
.L919:
	ldr	r4, [sp, #84]
	cmp	r4, #0
	beq	.L921
	cmp	r5, #0
	beq	.L922
	add	r3, r4, #28
	mcr	p15, 0, r0, c7, c10, 5
.L1003:
	ldrex	r2, [r3]
	sub	r1, r2, #1
	strex	r0, r1, [r3]
	cmp	r0, #0
	bne	.L1003
	cmp	r2, #1
	mcr	p15, 0, r0, c7, c10, 5
	beq	.L1027
.L921:
	ldr	r4, [sp, #60]
	cmp	r4, #0
	beq	.L927
	cmp	r5, #0
	beq	.L928
	add	r3, r4, #28
	mcr	p15, 0, r0, c7, c10, 5
.L1002:
	ldrex	r2, [r3]
	sub	r1, r2, #1
	strex	r0, r1, [r3]
	cmp	r0, #0
	bne	.L1002
	cmp	r2, #1
	mcr	p15, 0, r0, c7, c10, 5
	beq	.L1028
.L927:
	ldr	r4, [sp, #52]
	cmp	r4, #0
	beq	.L933
	cmp	r5, #0
	beq	.L934
	add	r3, r4, #28
	mcr	p15, 0, r0, c7, c10, 5
.L1001:
	ldrex	r2, [r3]
	sub	r1, r2, #1
	strex	r0, r1, [r3]
	cmp	r0, #0
	bne	.L1001
	cmp	r2, #1
	mcr	p15, 0, r0, c7, c10, 5
	beq	.L1029
.L933:
	ldr	r4, [sp, #28]
	cmp	r4, #0
	beq	.L897
	cmp	r5, #0
	beq	.L940
	add	r3, r4, #28
	mcr	p15, 0, r0, c7, c10, 5
.L1000:
	ldrex	r2, [r3]
	sub	r1, r2, #1
	strex	r0, r1, [r3]
	cmp	r0, #0
	bne	.L1000
	cmp	r2, #1
	mcr	p15, 0, r0, c7, c10, 5
	beq	.L1030
.L897:
	add	sp, sp, #180
	@ sp needed
	pop	{r4, r5, r6, r7, r8, r9, pc}
.L922:
	ldr	r3, [r4, #28]
	cmp	r3, #1
	sub	r3, r3, #1
	str	r3, [r4, #28]
	bne	.L921
	ldr	r3, [r4]
	mov	r0, r4
	ldr	r3, [r3, #8]
	blx	r3
	mcr	p15, 0, r0, c7, c10, 5
	ldr	r2, [r4, #32]
	sub	r3, r2, #1
	str	r3, [r4, #32]
	b	.L953
.L934:
	ldr	r3, [r4, #28]
	cmp	r3, #1
	sub	r3, r3, #1
	str	r3, [r4, #28]
	bne	.L933
	ldr	r3, [r4]
	mov	r0, r4
	ldr	r3, [r3, #8]
	blx	r3
	mcr	p15, 0, r0, c7, c10, 5
	ldr	r2, [r4, #32]
	sub	r3, r2, #1
	str	r3, [r4, #32]
	b	.L955
.L914:
	ldr	r1, [r2, #28]
	add	r1, r1, #1
	str	r1, [r2, #28]
	b	.L913
.L900:
	ldr	r3, [r6, #28]
	cmp	r3, #0
	add	r3, r3, #1
	str	r3, [r6, #28]
	beq	.L946
	ldm	r7, {r0, ip}
	ldrd	r2, [r9]
	ldr	lr, [r4, #8]
	cmp	ip, #0
	str	r4, [sp, #32]
	strd	r2, [sp, #40]
	str	ip, [sp, #52]
	str	r0, [sp, #48]
	str	lr, [sp, #24]
	moveq	r1, r6
	beq	.L958
	ldr	r1, [ip, #28]
	cmp	r6, #0
	add	r1, r1, #1
	str	r1, [ip, #28]
	mov	r7, r6
	str	r6, [sp, #60]
	str	lr, [sp, #56]
	ldr	r6, [r4, #668]
	beq	.L1031
	ldr	r1, [r7, #28]
	add	r1, r1, #1
	str	r1, [r7, #28]
	str	r4, [sp, #64]
	ldr	r1, [ip, #28]
	str	r0, [sp, #80]
	str	ip, [sp, #84]
	strd	r2, [sp, #72]
.L960:
	add	r1, r1, #1
	str	r1, [ip, #28]
	b	.L912
.L1023:
	ldr	r2, .L1032+16
	ldr	r3, [r4, #616]
.LPIC71:
	add	r2, pc, r2
	mov	r1, #120
	ldr	r0, [sp]
	bl	snprintf(PLT)
	add	r1, sp, #176
	ldr	r2, .L1032+20
	mov	r0, r6
	str	r5, [r1, #-152]!
	ldr	r3, [sp]
.LPIC72:
	add	r2, pc, r2
.LEHB13:
	bl	_ZN7openpal6Logger3LogERKNS_10LogFiltersEPKcS5_(PLT)
.LEHE13:
	b	.L898
.L940:
	ldr	r3, [r4, #28]
	cmp	r3, #1
	sub	r3, r3, #1
	str	r3, [r4, #28]
	bne	.L897
	ldr	r3, [r4]
	mov	r0, r4
	ldr	r3, [r3, #8]
	blx	r3
	mcr	p15, 0, r0, c7, c10, 5
	ldr	r2, [r4, #32]
	sub	r3, r2, #1
	str	r3, [r4, #32]
	b	.L956
.L928:
	ldr	r3, [r4, #28]
	cmp	r3, #1
	sub	r3, r3, #1
	str	r3, [r4, #28]
	bne	.L927
	ldr	r3, [r4]
	mov	r0, r4
	ldr	r3, [r3, #8]
	blx	r3
	mcr	p15, 0, r0, c7, c10, 5
	ldr	r2, [r4, #32]
	sub	r3, r2, #1
	str	r3, [r4, #32]
	b	.L954
.L1030:
	ldr	r3, [r4]
	mov	r0, r4
	ldr	r3, [r3, #8]
	blx	r3
	add	r3, r4, #32
	mcr	p15, 0, r0, c7, c10, 5
	mcr	p15, 0, r0, c7, c10, 5
.L995:
	ldrex	r2, [r3]
	sub	r1, r2, #1
	strex	r0, r1, [r3]
	cmp	r0, #0
	bne	.L995
	mcr	p15, 0, r0, c7, c10, 5
.L956:
	cmp	r2, #1
	bne	.L897
	ldr	r3, [r4]
	mov	r0, r4
	ldr	r3, [r3, #12]
	blx	r3
	b	.L897
.L1028:
	ldr	r3, [r4]
	mov	r0, r4
	ldr	r3, [r3, #8]
	blx	r3
	add	r3, r4, #32
	mcr	p15, 0, r0, c7, c10, 5
	mcr	p15, 0, r0, c7, c10, 5
.L997:
	ldrex	r2, [r3]
	sub	r1, r2, #1
	strex	r0, r1, [r3]
	cmp	r0, #0
	bne	.L997
	mcr	p15, 0, r0, c7, c10, 5
.L954:
	cmp	r2, #1
	bne	.L927
	ldr	r3, [r4]
	mov	r0, r4
	ldr	r3, [r3, #12]
	blx	r3
	b	.L927
.L1027:
	ldr	r3, [r4]
	mov	r0, r4
	ldr	r3, [r3, #8]
	blx	r3
	add	r3, r4, #32
	mcr	p15, 0, r0, c7, c10, 5
	mcr	p15, 0, r0, c7, c10, 5
.L998:
	ldrex	r2, [r3]
	sub	r1, r2, #1
	strex	r0, r1, [r3]
	cmp	r0, #0
	bne	.L998
	mcr	p15, 0, r0, c7, c10, 5
.L953:
	cmp	r2, #1
	bne	.L921
	ldr	r3, [r4]
	mov	r0, r4
	ldr	r3, [r3, #12]
	blx	r3
	b	.L921
.L1029:
	ldr	r3, [r4]
	mov	r0, r4
	ldr	r3, [r3, #8]
	blx	r3
	add	r3, r4, #32
	mcr	p15, 0, r0, c7, c10, 5
	mcr	p15, 0, r0, c7, c10, 5
.L996:
	ldrex	r2, [r3]
	sub	r1, r2, #1
	strex	r0, r1, [r3]
	cmp	r0, #0
	bne	.L996
	mcr	p15, 0, r0, c7, c10, 5
.L955:
	cmp	r2, #1
	bne	.L933
	ldr	r3, [r4]
	mov	r0, r4
	ldr	r3, [r3, #12]
	blx	r3
	b	.L933
.L1026:
	ldr	r1, [sp, #52]
	ldrd	r2, [sp, #40]
	ldr	ip, [sp, #48]
	ldr	r0, [sp, #32]
	cmp	r1, #0
	str	r1, [sp, #84]
	strd	r2, [sp, #72]
	str	ip, [sp, #80]
	str	r0, [sp, #64]
	bne	.L1009
	b	.L912
.L958:
	cmp	r1, #0
	str	lr, [sp, #56]
	str	r1, [sp, #60]
	ldr	r6, [r4, #668]
	beq	.L909
	cmp	r5, #0
	beq	.L910
	add	r3, r1, #28
	b	.L951
.L946:
	mov	r3, #0
	str	r3, [r6, #28]
.LEHB14:
	bl	_ZSt20__throw_bad_weak_ptrv(PLT)
.LEHE14:
.L963:
	ldr	r0, [sp]
	bl	_ZN9__gnu_cxx13__scoped_lockD1Ev(PLT)
.L1010:
.LEHB15:
	bl	__cxa_end_cleanup(PLT)
.L910:
	ldr	ip, [r1, #28]
	ldrd	r2, [sp, #40]
	add	ip, ip, #1
	str	ip, [r1, #28]
	str	r4, [sp, #64]
	str	r0, [sp, #80]
	str	r5, [sp, #84]
	strd	r2, [sp, #72]
	b	.L912
.L1031:
	str	r4, [sp, #64]
	str	r0, [sp, #80]
	str	ip, [sp, #84]
	strd	r2, [sp, #72]
	b	.L960
.L909:
	ldrd	r2, [sp, #40]
	str	r4, [sp, #64]
	str	r0, [sp, #80]
	str	r1, [sp, #84]
	strd	r2, [sp, #72]
	b	.L912
.L899:
	bl	_ZSt20__throw_bad_weak_ptrv(PLT)
.L1024:
	mov	r0, #4
	bl	__cxa_allocate_exception(PLT)
	ldr	r1, .L1032+24
	ldr	r2, .L1032+28
	ldr	r3, .L1032+32
	ldr	r1, [r8, r1]
	add	r1, r1, #8
	str	r1, [r0]
	ldr	r2, [r8, r2]
	ldr	r1, [r8, r3]
	bl	__cxa_throw(PLT)
.LEHE15:
.L1025:
	mov	r0, #4
	bl	__cxa_allocate_exception(PLT)
	ldr	r1, .L1032+36
	ldr	r2, .L1032+40
	ldr	r3, .L1032+44
	ldr	r1, [r8, r1]
	add	r1, r1, #8
	str	r1, [r0]
	ldr	r2, [r8, r2]
	ldr	r1, [r8, r3]
.LEHB16:
	bl	__cxa_throw(PLT)
.LEHE16:
.L964:
	cmn	r1, #1
	bne	.L1010
.LEHB17:
	bl	__cxa_call_unexpected(PLT)
.LEHE17:
.L961:
	ldr	r3, [sp, #16]
	cmp	r3, #0
	beq	.L918
	ldr	r1, [sp, #4]
	mov	r2, #3
	mov	r0, r1
	blx	r3
.L918:
	ldr	r0, [sp]
	bl	_ZZN8asiodnp318TCPClientIOHandler12StartConnectERKSt10shared_ptrIN7asiopal9TCPClientEERKN7openpal12TimeDurationEENUlRKS1_INS2_8ExecutorEEN4asio19basic_stream_socketINSF_2ip3tcpENSF_21stream_socket_serviceISI_EEEERKSt10error_codeE_D1Ev(PLT)
	add	r0, sp, #24
	bl	_ZZN8asiodnp318TCPClientIOHandler12StartConnectERKSt10shared_ptrIN7asiopal9TCPClientEERKN7openpal12TimeDurationEENUlRKS1_INS2_8ExecutorEEN4asio19basic_stream_socketINSF_2ip3tcpENSF_21stream_socket_serviceISI_EEEERKSt10error_codeE_D1Ev(PLT)
.LEHB18:
	bl	__cxa_end_cleanup(PLT)
.LEHE18:
.L962:
	ldr	r3, [sp, #16]
	cmp	r3, #0
	beq	.L918
	add	r1, sp, #8
	mov	r0, r1
	mov	r2, #3
	blx	r3
	b	.L918
.L1033:
	.align	2
.L1032:
	.word	_GLOBAL_OFFSET_TABLE_-(.LPIC73+8)
	.word	_ZL28__gthrw___pthread_key_createPjPFvPvE(GOT)
	.word	_ZNSt17_Function_handlerIFvRKSt10shared_ptrIN7asiopal8ExecutorEEN4asio19basic_stream_socketINS6_2ip3tcpENS6_21stream_socket_serviceIS9_EEEERKSt10error_codeEZN8asiodnp318TCPClientIOHandler12StartConnectERKS0_INS1_9TCPClientEERKN7openpal12TimeDurationEEUlS5_SC_SF_E_E9_M_invokeERKSt9_Any_dataS5_OSC_SF_-(.LPIC74+8)
	.word	_ZNSt14_Function_base13_Base_managerIZN8asiodnp318TCPClientIOHandler12StartConnectERKSt10shared_ptrIN7asiopal9TCPClientEERKN7openpal12TimeDurationEEUlRKS3_INS4_8ExecutorEEN4asio19basic_stream_socketINSH_2ip3tcpENSH_21stream_socket_serviceISK_EEEERKSt10error_codeE_E10_M_managerERSt9_Any_dataRKST_St18_Manager_operation-(.LPIC75+8)
	.word	.LC23-(.LPIC71+8)
	.word	.LC24-(.LPIC72+8)
	.word	_ZTVN9__gnu_cxx24__concurrence_lock_errorE(GOT)
	.word	_ZN9__gnu_cxx24__concurrence_lock_errorD1Ev(GOT)
	.word	_ZTIN9__gnu_cxx24__concurrence_lock_errorE(GOT)
	.word	_ZTVN9__gnu_cxx26__concurrence_unlock_errorE(GOT)
	.word	_ZN9__gnu_cxx26__concurrence_unlock_errorD1Ev(GOT)
	.word	_ZTIN9__gnu_cxx26__concurrence_unlock_errorE(GOT)
	.personality	__gxx_personality_v0
	.handlerdata
	.align	2
.LLSDA7485:
	.byte	0xff
	.byte	0x90
	.uleb128 .LLSDATT7485-.LLSDATTD7485
.LLSDATTD7485:
	.byte	0x1
	.uleb128 .LLSDACSE7485-.LLSDACSB7485
.LLSDACSB7485:
	.uleb128 .LEHB10-.LFB7485
	.uleb128 .LEHE10-.LEHB10
	.uleb128 0
	.uleb128 0
	.uleb128 .LEHB11-.LFB7485
	.uleb128 .LEHE11-.LEHB11
	.uleb128 .L962-.LFB7485
	.uleb128 0
	.uleb128 .LEHB12-.LFB7485
	.uleb128 .LEHE12-.LEHB12
	.uleb128 .L961-.LFB7485
	.uleb128 0
	.uleb128 .LEHB13-.LFB7485
	.uleb128 .LEHE13-.LEHB13
	.uleb128 0
	.uleb128 0
	.uleb128 .LEHB14-.LFB7485
	.uleb128 .LEHE14-.LEHB14
	.uleb128 .L963-.LFB7485
	.uleb128 0
	.uleb128 .LEHB15-.LFB7485
	.uleb128 .LEHE15-.LEHB15
	.uleb128 0
	.uleb128 0
	.uleb128 .LEHB16-.LFB7485
	.uleb128 .LEHE16-.LEHB16
	.uleb128 .L964-.LFB7485
	.uleb128 0x1
	.uleb128 .LEHB17-.LFB7485
	.uleb128 .LEHE17-.LEHB17
	.uleb128 0
	.uleb128 0
	.uleb128 .LEHB18-.LFB7485
	.uleb128 .LEHE18-.LEHB18
	.uleb128 0
	.uleb128 0
.LLSDACSE7485:
	.byte	0x7f
	.byte	0
	.align	2
.LLSDATT7485:
	.word	0
	.text
	.fnend
	.size	_ZN8asiodnp318TCPClientIOHandler12StartConnectERKSt10shared_ptrIN7asiopal9TCPClientEERKN7openpal12TimeDurationE, .-_ZN8asiodnp318TCPClientIOHandler12StartConnectERKSt10shared_ptrIN7asiopal9TCPClientEERKN7openpal12TimeDurationE
	.align	2
	.syntax unified
	.arm
	.fpu vfp
	.type	_ZNSt17_Function_handlerIFvvEZN7openpal8TimerRef5StartIZZN8asiodnp318TCPClientIOHandler12StartConnectERKSt10shared_ptrIN7asiopal9TCPClientEERKNS1_12TimeDurationEENKUlRKS6_INS7_8ExecutorEEN4asio19basic_stream_socketINSJ_2ip3tcpENSJ_21stream_socket_serviceISM_EEEERKSt10error_codeE_clESI_SP_SS_EUlvE_EEbSE_RKT_EUlvE_E9_M_invokeERKSt9_Any_data, %function
_ZNSt17_Function_handlerIFvvEZN7openpal8TimerRef5StartIZZN8asiodnp318TCPClientIOHandler12StartConnectERKSt10shared_ptrIN7asiopal9TCPClientEERKNS1_12TimeDurationEENKUlRKS6_INS7_8ExecutorEEN4asio19basic_stream_socketINSJ_2ip3tcpENSJ_21stream_socket_serviceISM_EEEERKSt10error_codeE_clESI_SP_SS_EUlvE_EEbSE_RKT_EUlvE_E9_M_invokeERKSt9_Any_data:
	.fnstart
.LFB9092:
	@ args = 0, pretend = 0, frame = 0
	@ frame_needed = 0, uses_anonymous_args = 0
	ldr	r3, [r0]
	str	lr, [sp, #-4]!
	mov	r2, r3
	mov	lr, #0
	ldr	ip, [r2], #8
	ldr	r0, [r3, #32]
	add	r1, r3, #24
	str	lr, [ip, #4]
	add	r2, r2, #8
	ldr	lr, [sp], #4
	b	_ZN8asiodnp318TCPClientIOHandler12StartConnectERKSt10shared_ptrIN7asiopal9TCPClientEERKN7openpal12TimeDurationE(PLT)
	.cantunwind
	.fnend
	.size	_ZNSt17_Function_handlerIFvvEZN7openpal8TimerRef5StartIZZN8asiodnp318TCPClientIOHandler12StartConnectERKSt10shared_ptrIN7asiopal9TCPClientEERKNS1_12TimeDurationEENKUlRKS6_INS7_8ExecutorEEN4asio19basic_stream_socketINSJ_2ip3tcpENSJ_21stream_socket_serviceISM_EEEERKSt10error_codeE_clESI_SP_SS_EUlvE_EEbSE_RKT_EUlvE_E9_M_invokeERKSt9_Any_data, .-_ZNSt17_Function_handlerIFvvEZN7openpal8TimerRef5StartIZZN8asiodnp318TCPClientIOHandler12StartConnectERKSt10shared_ptrIN7asiopal9TCPClientEERKNS1_12TimeDurationEENKUlRKS6_INS7_8ExecutorEEN4asio19basic_stream_socketINSJ_2ip3tcpENSJ_21stream_socket_serviceISM_EEEERKSt10error_codeE_clESI_SP_SS_EUlvE_EEbSE_RKT_EUlvE_E9_M_invokeERKSt9_Any_data
	.align	2
	.global	_ZN8asiodnp318TCPClientIOHandler18BeginChannelAcceptEv
	.syntax unified
	.arm
	.fpu vfp
	.type	_ZN8asiodnp318TCPClientIOHandler18BeginChannelAcceptEv, %function
_ZN8asiodnp318TCPClientIOHandler18BeginChannelAcceptEv:
	.fnstart
.LFB7482:
	@ args = 0, pretend = 0, frame = 0
	@ frame_needed = 0, uses_anonymous_args = 0
	push	{r4, r5, r6, r7, r8, r9, lr}
	.save {r4, r5, r6, r7, r8, r9, lr}
	mov	r4, r0
	.pad #12
	sub	sp, sp, #12
	mov	r0, #208
.LEHB19:
	bl	_Znwj(PLT)
.LEHE19:
	ldr	r6, .L1069
	ldr	r1, .L1069+4
.LPIC76:
	add	r6, pc, r6
	mov	r3, #0
	add	r2, r4, #644
	mov	r5, r0
	mov	r0, #1
	str	r0, [r5, #28]
	str	r0, [r5, #32]
	str	r3, [r5, #4]
	str	r3, [r5, #8]
	str	r3, [r5, #12]
	str	r3, [r5, #16]
	str	r3, [r5, #20]
	str	r3, [r5, #24]
	ldr	r3, [r6, r1]
	mov	r0, r5
	add	r3, r3, #8
	str	r3, [r0], #36
	add	r1, r4, #16
	str	r2, [sp]
	add	r3, r4, #616
	add	r2, r4, #580
.LEHB20:
	bl	_ZN7asiopal9TCPClientC1ERKN7openpal6LoggerERKSt10shared_ptrINS_8ExecutorEERKNS_10IPEndpointERKNSt7__cxx1112basic_stringIcSt11char_traitsIcESaIcEEE(PLT)
.LEHE20:
	ldr	r3, .L1069+8
	ldr	r2, [r5]
	mov	r0, r5
	ldr	r1, [r6, r3]
	ldr	r3, [r2, #16]
	blx	r3
	add	r9, r4, #668
	subs	r7, r0, #0
	beq	.L1038
	ldr	r0, [r7, #4]
	cmp	r0, #0
	beq	.L1041
	ldr	r3, [r0, #28]
	cmp	r3, #0
	beq	.L1041
.L1038:
	ldr	r8, [r4, #672]
	str	r7, [r4, #668]
	cmp	r8, #0
	str	r5, [r4, #672]
	beq	.L1049
	ldr	r3, .L1069+12
	ldr	r3, [r6, r3]
	cmp	r3, #0
	beq	.L1050
	add	r3, r8, #28
	mcr	p15, 0, r0, c7, c10, 5
.L1060:
	ldrex	r2, [r3]
	sub	r1, r2, #1
	strex	r0, r1, [r3]
	cmp	r0, #0
	bne	.L1060
	cmp	r2, #1
	mcr	p15, 0, r0, c7, c10, 5
	beq	.L1066
.L1049:
	mov	r1, r9
	add	r2, r4, #592
	mov	r0, r4
	add	sp, sp, #12
	@ sp needed
	pop	{r4, r5, r6, r7, r8, r9, lr}
.LEHB21:
	b	_ZN8asiodnp318TCPClientIOHandler12StartConnectERKSt10shared_ptrIN7asiopal9TCPClientEERKN7openpal12TimeDurationE(PLT)
.L1050:
	ldr	r3, [r8, #28]
	cmp	r3, #1
	sub	r3, r3, #1
	str	r3, [r8, #28]
	bne	.L1049
	ldr	r3, [r8]
	mov	r0, r8
	ldr	r3, [r3, #8]
	blx	r3
	mcr	p15, 0, r0, c7, c10, 5
	ldr	r2, [r8, #32]
	sub	r3, r2, #1
	str	r3, [r8, #32]
	b	.L1056
.L1041:
	ldr	r3, .L1069+12
	str	r7, [r7]
	ldr	r3, [r6, r3]
	cmp	r3, #0
	beq	.L1067
	add	r3, r5, #32
	mcr	p15, 0, r0, c7, c10, 5
.L1061:
	ldrex	r2, [r3]
	add	r2, r2, #1
	strex	r1, r2, [r3]
	cmp	r1, #0
	bne	.L1061
	mcr	p15, 0, r0, c7, c10, 5
	ldr	r0, [r7, #4]
	cmp	r0, #0
	beq	.L1045
	add	r3, r0, #32
	mcr	p15, 0, r0, c7, c10, 5
.L1059:
	ldrex	r2, [r3]
	sub	r1, r2, #1
	strex	ip, r1, [r3]
	cmp	ip, #0
	bne	.L1059
	mcr	p15, 0, r0, c7, c10, 5
.L1055:
	cmp	r2, #1
	beq	.L1068
.L1045:
	str	r5, [r7, #4]
	b	.L1038
.L1066:
	ldr	r3, [r8]
	mov	r0, r8
	ldr	r3, [r3, #8]
	blx	r3
	add	r3, r8, #32
	mcr	p15, 0, r0, c7, c10, 5
	mcr	p15, 0, r0, c7, c10, 5
.L1058:
	ldrex	r2, [r3]
	sub	r1, r2, #1
	strex	r0, r1, [r3]
	cmp	r0, #0
	bne	.L1058
	mcr	p15, 0, r0, c7, c10, 5
.L1056:
	cmp	r2, #1
	bne	.L1049
	ldr	r3, [r8]
	mov	r0, r8
	ldr	r3, [r3, #12]
	blx	r3
	b	.L1049
.L1067:
	ldr	r3, [r5, #32]
	cmp	r0, #0
	add	r3, r3, #1
	str	r3, [r5, #32]
	beq	.L1045
	ldr	r2, [r0, #32]
	sub	r3, r2, #1
	str	r3, [r0, #32]
	b	.L1055
.L1068:
	mcr	p15, 0, r0, c7, c10, 5
	ldr	r3, [r0]
	ldr	r3, [r3, #12]
	blx	r3
	b	.L1045
.L1057:
	mov	r0, r5
	bl	_ZdlPv(PLT)
	bl	__cxa_end_cleanup(PLT)
.LEHE21:
.L1070:
	.align	2
.L1069:
	.word	_GLOBAL_OFFSET_TABLE_-(.LPIC76+8)
	.word	_ZTVSt23_Sp_counted_ptr_inplaceIN7asiopal9TCPClientESaIS1_ELN9__gnu_cxx12_Lock_policyE1EE(GOT)
	.word	_ZTISt19_Sp_make_shared_tag(GOT)
	.word	_ZL28__gthrw___pthread_key_createPjPFvPvE(GOT)
	.personality	__gxx_personality_v0
	.handlerdata
.LLSDA7482:
	.byte	0xff
	.byte	0xff
	.byte	0x1
	.uleb128 .LLSDACSE7482-.LLSDACSB7482
.LLSDACSB7482:
	.uleb128 .LEHB19-.LFB7482
	.uleb128 .LEHE19-.LEHB19
	.uleb128 0
	.uleb128 0
	.uleb128 .LEHB20-.LFB7482
	.uleb128 .LEHE20-.LEHB20
	.uleb128 .L1057-.LFB7482
	.uleb128 0
	.uleb128 .LEHB21-.LFB7482
	.uleb128 .LEHE21-.LEHB21
	.uleb128 0
	.uleb128 0
.LLSDACSE7482:
	.text
	.fnend
	.size	_ZN8asiodnp318TCPClientIOHandler18BeginChannelAcceptEv, .-_ZN8asiodnp318TCPClientIOHandler18BeginChannelAcceptEv
	.align	2
	.global	_ZN8asiodnp318TCPClientIOHandler17OnChannelShutdownEv
	.syntax unified
	.arm
	.fpu vfp
	.type	_ZN8asiodnp318TCPClientIOHandler17OnChannelShutdownEv, %function
_ZN8asiodnp318TCPClientIOHandler17OnChannelShutdownEv:
	.fnstart
.LFB7484:
	@ args = 0, pretend = 0, frame = 0
	@ frame_needed = 0, uses_anonymous_args = 0
	@ link register save eliminated.
	b	_ZN8asiodnp318TCPClientIOHandler18BeginChannelAcceptEv(PLT)
	.cantunwind
	.fnend
	.size	_ZN8asiodnp318TCPClientIOHandler17OnChannelShutdownEv, .-_ZN8asiodnp318TCPClientIOHandler17OnChannelShutdownEv
	.align	2
	.global	_ZN8asiodnp318TCPClientIOHandler10ResetStateEv
	.syntax unified
	.arm
	.fpu vfp
	.type	_ZN8asiodnp318TCPClientIOHandler10ResetStateEv, %function
_ZN8asiodnp318TCPClientIOHandler10ResetStateEv:
	.fnstart
.LFB7527:
	@ args = 0, pretend = 0, frame = 0
	@ frame_needed = 0, uses_anonymous_args = 0
	push	{r4, r5, r6, lr}
	.save {r4, r5, r6, lr}
	mov	r4, r0
	ldr	r0, [r0, #668]
	ldr	r6, .L1089
	cmp	r0, #0
.LPIC77:
	add	r6, pc, r6
	beq	.L1074
	bl	_ZN7asiopal9TCPClient6CancelEv(PLT)
	ldr	r5, [r4, #672]
	mov	r3, #0
	cmp	r5, r3
	str	r3, [r4, #668]
	str	r3, [r4, #672]
	beq	.L1074
	ldr	r3, .L1089+4
	ldr	r3, [r6, r3]
	cmp	r3, #0
	beq	.L1076
	add	r3, r5, #28
	mcr	p15, 0, r0, c7, c10, 5
.L1084:
	ldrex	r2, [r3]
	sub	r1, r2, #1
	strex	r0, r1, [r3]
	cmp	r0, #0
	bne	.L1084
	cmp	r2, #1
	mcr	p15, 0, r0, c7, c10, 5
	beq	.L1088
.L1074:
	add	r0, r4, #676
	pop	{r4, r5, r6, lr}
	b	_ZN7openpal8TimerRef6CancelEv(PLT)
.L1076:
	ldr	r3, [r5, #28]
	cmp	r3, #1
	sub	r3, r3, #1
	str	r3, [r5, #28]
	bne	.L1074
	ldr	r3, [r5]
	mov	r0, r5
	ldr	r3, [r3, #8]
	blx	r3
	mcr	p15, 0, r0, c7, c10, 5
	ldr	r2, [r5, #32]
	sub	r3, r2, #1
	str	r3, [r5, #32]
	b	.L1079
.L1088:
	ldr	r3, [r5]
	mov	r0, r5
	ldr	r3, [r3, #8]
	blx	r3
	add	r3, r5, #32
	mcr	p15, 0, r0, c7, c10, 5
	mcr	p15, 0, r0, c7, c10, 5
.L1083:
	ldrex	r2, [r3]
	sub	r1, r2, #1
	strex	r0, r1, [r3]
	cmp	r0, #0
	bne	.L1083
	mcr	p15, 0, r0, c7, c10, 5
.L1079:
	cmp	r2, #1
	bne	.L1074
	ldr	r3, [r5]
	mov	r0, r5
	ldr	r3, [r3, #12]
	blx	r3
	b	.L1074
.L1090:
	.align	2
.L1089:
	.word	_GLOBAL_OFFSET_TABLE_-(.LPIC77+8)
	.word	_ZL28__gthrw___pthread_key_createPjPFvPvE(GOT)
	.fnend
	.size	_ZN8asiodnp318TCPClientIOHandler10ResetStateEv, .-_ZN8asiodnp318TCPClientIOHandler10ResetStateEv
	.align	2
	.global	_ZN8asiodnp318TCPClientIOHandler20SuspendChannelAcceptEv
	.syntax unified
	.arm
	.fpu vfp
	.type	_ZN8asiodnp318TCPClientIOHandler20SuspendChannelAcceptEv, %function
_ZN8asiodnp318TCPClientIOHandler20SuspendChannelAcceptEv:
	.fnstart
.LFB7483:
	@ args = 0, pretend = 0, frame = 0
	@ frame_needed = 0, uses_anonymous_args = 0
	@ link register save eliminated.
	b	_ZN8asiodnp318TCPClientIOHandler10ResetStateEv(PLT)
	.cantunwind
	.fnend
	.size	_ZN8asiodnp318TCPClientIOHandler20SuspendChannelAcceptEv, .-_ZN8asiodnp318TCPClientIOHandler20SuspendChannelAcceptEv
	.global	_ZN8asiodnp318TCPClientIOHandler12ShutdownImplEv
	.set	_ZN8asiodnp318TCPClientIOHandler12ShutdownImplEv,_ZN8asiodnp318TCPClientIOHandler20SuspendChannelAcceptEv
	.section	.text._ZNSt16_Sp_counted_baseILN9__gnu_cxx12_Lock_policyE1EE10_M_releaseEv,"axG",%progbits,_ZNSt16_Sp_counted_baseILN9__gnu_cxx12_Lock_policyE1EE10_M_releaseEv,comdat
	.align	2
	.weak	_ZNSt16_Sp_counted_baseILN9__gnu_cxx12_Lock_policyE1EE10_M_releaseEv
	.syntax unified
	.arm
	.fpu vfp
	.type	_ZNSt16_Sp_counted_baseILN9__gnu_cxx12_Lock_policyE1EE10_M_releaseEv, %function
_ZNSt16_Sp_counted_baseILN9__gnu_cxx12_Lock_policyE1EE10_M_releaseEv:
	.fnstart
.LFB8488:
	@ args = 0, pretend = 0, frame = 0
	@ frame_needed = 0, uses_anonymous_args = 0
	ldr	r3, .L1104
	ldr	r2, .L1104+4
.LPIC78:
	add	r3, pc, r3
	push	{r4, r5, r6, lr}
	mov	r4, r0
	ldr	r3, [r3, r2]
	cmp	r3, #0
	beq	.L1093
	add	r3, r0, #28
	mcr	p15, 0, r0, c7, c10, 5
.L1100:
	ldrex	r2, [r3]
	sub	r1, r2, #1
	strex	ip, r1, [r3]
	cmp	ip, #0
	bne	.L1100
	cmp	r2, #1
	mcr	p15, 0, r0, c7, c10, 5
	popne	{r4, r5, r6, pc}
	mov	r5, r4
	ldr	r3, [r5], #32
	ldr	r3, [r3, #8]
	blx	r3
	mcr	p15, 0, r0, c7, c10, 5
	mcr	p15, 0, r0, c7, c10, 5
.L1099:
	ldrex	r3, [r5]
	sub	r2, r3, #1
	strex	r1, r2, [r5]
	cmp	r1, #0
	bne	.L1099
	mcr	p15, 0, r0, c7, c10, 5
.L1098:
	cmp	r3, #1
	popne	{r4, r5, r6, pc}
	ldr	r3, [r4]
	mov	r0, r4
	pop	{r4, r5, r6, lr}
	ldr	r3, [r3, #12]
	bx	r3	@ indirect register sibling call
.L1093:
	ldr	r3, [r0, #28]
	cmp	r3, #1
	sub	r3, r3, #1
	str	r3, [r0, #28]
	popne	{r4, r5, r6, pc}
	ldr	r3, [r0]
	ldr	r3, [r3, #8]
	blx	r3
	mcr	p15, 0, r0, c7, c10, 5
	ldr	r3, [r4, #32]
	sub	r2, r3, #1
	str	r2, [r4, #32]
	b	.L1098
.L1105:
	.align	2
.L1104:
	.word	_GLOBAL_OFFSET_TABLE_-(.LPIC78+8)
	.word	_ZL28__gthrw___pthread_key_createPjPFvPvE(GOT)
	.cantunwind
	.fnend
	.size	_ZNSt16_Sp_counted_baseILN9__gnu_cxx12_Lock_policyE1EE10_M_releaseEv, .-_ZNSt16_Sp_counted_baseILN9__gnu_cxx12_Lock_policyE1EE10_M_releaseEv
	.text
	.align	2
	.syntax unified
	.arm
	.fpu vfp
	.type	_ZZN8asiodnp318TCPClientIOHandler12StartConnectERKSt10shared_ptrIN7asiopal9TCPClientEERKN7openpal12TimeDurationEENKUlRKS1_INS2_8ExecutorEEN4asio19basic_stream_socketINSF_2ip3tcpENSF_21stream_socket_serviceISI_EEEERKSt10error_codeE_clESE_SL_SO_, %function
_ZZN8asiodnp318TCPClientIOHandler12StartConnectERKSt10shared_ptrIN7asiopal9TCPClientEERKN7openpal12TimeDurationEENKUlRKS1_INS2_8ExecutorEEN4asio19basic_stream_socketINSF_2ip3tcpENSF_21stream_socket_serviceISI_EEEERKSt10error_codeE_clESE_SL_SO_:
	.fnstart
.LFB7492:
	@ args = 0, pretend = 0, frame = 256
	@ frame_needed = 0, uses_anonymous_args = 0
	push	{r4, r5, r6, r7, r8, r9, r10, fp, lr}
	.save {r4, r5, r6, r7, r8, r9, r10, fp, lr}
	mov	r7, r3
	ldr	r3, [r3]
	ldr	r5, .L1649
	cmp	r3, #0
	.pad #268
	sub	sp, sp, #268
	mov	r4, r0
.LPIC81:
	add	r5, pc, r5
	beq	.L1107
	add	r3, sp, #264
	mov	r2, r3
	ldr	r0, [r0, #8]
	mov	r3, #4
	str	r3, [r2, #-120]!
	add	r0, r0, #16
	mov	r1, r2
	str	r2, [sp, #12]
.LEHB22:
	bl	_ZNK7openpal6Logger9IsEnabledERKNS_10LogFiltersE(PLT)
	cmp	r0, #0
	bne	.L1622
.L1108:
	ldr	r2, [r4, #8]
	add	r8, r4, #16
	add	r3, r2, #600
	ldr	ip, [r2, #608]
	ldr	r0, [r2, #44]
	mov	r1, ip
	ldr	ip, [ip]
	add	r0, r0, #1
	str	r0, [r2, #44]
	ldr	r6, [ip, #8]
	mov	r2, r8
	add	r0, sp, #48
	blx	r6
.LEHE22:
	ldm	r4, {r1, r3}
	ldrd	r6, [sp, #48]
	cmp	r3, #0
	str	r3, [sp, #76]
	str	r1, [sp, #72]
	beq	.L1110
	ldr	r2, .L1649+100
	ldr	r0, [r5, r2]
	cmp	r0, #0
	beq	.L1111
	add	r3, r3, #28
	mcr	p15, 0, r0, c7, c10, 5
.L1578:
	ldrex	r2, [r3]
	add	r2, r2, #1
	strex	r1, r2, [r3]
	cmp	r1, #0
	bne	.L1578
	mcr	p15, 0, r0, c7, c10, 5
	ldr	r2, [r4, #28]
	ldr	lr, [r4, #24]
	cmp	r2, #0
	strd	r6, [sp, #80]
	str	r2, [sp, #92]
	str	lr, [sp, #88]
	beq	.L1623
.L1580:
	add	r2, r2, #28
	mcr	p15, 0, r0, c7, c10, 5
.L1577:
	ldrex	r3, [r2]
	add	r3, r3, #1
	strex	r1, r3, [r2]
	cmp	r1, #0
	bne	.L1577
	mcr	p15, 0, r0, c7, c10, 5
	ldr	r3, [sp, #76]
	ldr	r9, [r4, #8]
	ldr	r1, [sp, #72]
	add	r4, r9, #676
	cmp	r3, #0
	str	r9, [sp, #96]
	str	r4, [sp, #104]
	str	r3, [sp, #116]
	str	r1, [sp, #112]
	beq	.L1624
.L1581:
	add	r3, r3, #28
	mcr	p15, 0, r0, c7, c10, 5
.L1576:
	ldrex	r2, [r3]
	add	r2, r2, #1
	strex	r1, r2, [r3]
	cmp	r1, #0
	bne	.L1576
	mcr	p15, 0, r0, c7, c10, 5
	ldr	r2, [sp, #92]
	ldrd	r6, [sp, #80]
	ldr	r3, [sp, #88]
	cmp	r2, #0
	strd	r6, [sp, #120]
	str	r3, [sp, #128]
	str	r2, [sp, #132]
	beq	.L1583
.L1582:
	add	r2, r2, #28
	mcr	p15, 0, r0, c7, c10, 5
.L1575:
	ldrex	r3, [r2]
	add	r3, r3, #1
	strex	r1, r3, [r2]
	cmp	r1, #0
	bne	.L1575
	mcr	p15, 0, r0, c7, c10, 5
.L1583:
	ldr	ip, [sp, #104]
	ldr	r9, [sp, #96]
	ldr	r1, [sp, #112]
	ldr	r3, [sp, #116]
.L1123:
	cmp	r3, #0
	str	r9, [sp, #136]
	str	ip, [sp, #144]
	str	r1, [sp, #152]
	str	r3, [sp, #156]
	beq	.L1127
.L1350:
	cmp	r0, #0
	beq	.L1128
	add	r3, r3, #28
	mcr	p15, 0, r0, c7, c10, 5
.L1574:
	ldrex	r2, [r3]
	add	r2, r2, #1
	strex	r1, r2, [r3]
	cmp	r1, #0
	bne	.L1574
	mcr	p15, 0, r0, c7, c10, 5
	ldr	ip, [sp, #132]
	ldrd	r2, [sp, #120]
	ldr	r1, [sp, #128]
	cmp	ip, #0
	strd	r2, [sp, #160]
	str	r1, [sp, #168]
	str	ip, [sp, #172]
	beq	.L1585
.L1584:
	add	ip, ip, #28
	mcr	p15, 0, r0, c7, c10, 5
.L1573:
	ldrex	r3, [ip]
	add	r3, r3, #1
	strex	r2, r3, [ip]
	cmp	r2, #0
	bne	.L1573
	mcr	p15, 0, r0, c7, c10, 5
.L1585:
	ldr	r9, [sp, #136]
.L1130:
	mov	r3, #0
	mov	r0, #40
	str	r9, [sp, #176]
	str	r3, [sp, #64]
.LEHB23:
	bl	_Znwj(PLT)
.LEHE23:
	ldr	r1, [sp, #156]
	ldr	r2, [sp, #144]
	ldr	r3, [sp, #152]
	cmp	r1, #0
	mov	ip, r0
	str	r2, [r0]
	str	r3, [r0, #8]
	str	r1, [r0, #12]
	beq	.L1132
	ldr	r3, .L1649+100
	ldr	r3, [r5, r3]
	cmp	r3, #0
	beq	.L1133
	add	r1, r1, #28
	mcr	p15, 0, r0, c7, c10, 5
.L1572:
	ldrex	r3, [r1]
	add	r3, r3, #1
	strex	r2, r3, [r1]
	cmp	r2, #0
	bne	.L1572
	mcr	p15, 0, r0, c7, c10, 5
	ldr	r1, [sp, #172]
	ldrd	r2, [sp, #160]
	ldr	r0, [sp, #168]
	cmp	r1, #0
	strd	r2, [ip, #16]
	str	r0, [ip, #24]
	str	r1, [ip, #28]
	beq	.L1135
.L1586:
	add	r1, r1, #28
	mcr	p15, 0, r0, c7, c10, 5
.L1571:
	ldrex	r3, [r1]
	add	r3, r3, #1
	strex	r2, r3, [r1]
	cmp	r2, #0
	bne	.L1571
	mcr	p15, 0, r0, c7, c10, 5
.L1135:
	ldr	r2, [sp, #176]
	ldr	lr, .L1649+4
	ldr	r3, .L1649+8
	mov	r0, r4
	add	r4, sp, #56
.LPIC82:
	add	lr, pc, lr
.LPIC83:
	add	r3, pc, r3
	str	r2, [ip, #32]
	mov	r1, r8
	mov	r2, r4
	str	ip, [sp, #56]
	str	lr, [sp, #68]
	str	r3, [sp, #64]
.LEHB24:
	bl	_ZN7openpal8TimerRef11StartActionERKNS_12TimeDurationERKSt8functionIFvvEE(PLT)
.LEHE24:
	ldr	r3, [sp, #64]
	cmp	r3, #0
	beq	.L1142
	mov	r2, #3
	mov	r1, r4
	mov	r0, r4
	blx	r3
.L1142:
	ldr	r4, [sp, #172]
	cmp	r4, #0
	beq	.L1144
	ldr	r3, .L1649+100
	ldr	r3, [r5, r3]
	cmp	r3, #0
	beq	.L1145
	add	r3, r4, #28
	mcr	p15, 0, r0, c7, c10, 5
.L1570:
	ldrex	r2, [r3]
	sub	r1, r2, #1
	strex	r0, r1, [r3]
	cmp	r0, #0
	bne	.L1570
	cmp	r2, #1
	mcr	p15, 0, r0, c7, c10, 5
	beq	.L1625
.L1144:
	ldr	r4, [sp, #156]
	cmp	r4, #0
	beq	.L1150
	ldr	r3, .L1649+100
	ldr	r3, [r5, r3]
	cmp	r3, #0
	beq	.L1151
	add	r3, r4, #28
	mcr	p15, 0, r0, c7, c10, 5
.L1569:
	ldrex	r2, [r3]
	sub	r1, r2, #1
	strex	r0, r1, [r3]
	cmp	r0, #0
	bne	.L1569
	cmp	r2, #1
	mcr	p15, 0, r0, c7, c10, 5
	beq	.L1626
.L1150:
	ldr	r4, [sp, #132]
	cmp	r4, #0
	beq	.L1156
	ldr	r3, .L1649+100
	ldr	r3, [r5, r3]
	cmp	r3, #0
	beq	.L1157
	add	r3, r4, #28
	mcr	p15, 0, r0, c7, c10, 5
.L1568:
	ldrex	r2, [r3]
	sub	r1, r2, #1
	strex	r0, r1, [r3]
	cmp	r0, #0
	bne	.L1568
	cmp	r2, #1
	mcr	p15, 0, r0, c7, c10, 5
	beq	.L1627
.L1156:
	ldr	r4, [sp, #116]
	cmp	r4, #0
	beq	.L1162
	ldr	r3, .L1649+100
	ldr	r3, [r5, r3]
	cmp	r3, #0
	beq	.L1163
	add	r3, r4, #28
	mcr	p15, 0, r0, c7, c10, 5
.L1567:
	ldrex	r2, [r3]
	sub	r1, r2, #1
	strex	r0, r1, [r3]
	cmp	r0, #0
	bne	.L1567
	cmp	r2, #1
	mcr	p15, 0, r0, c7, c10, 5
	beq	.L1628
.L1162:
	ldr	r4, [sp, #92]
	cmp	r4, #0
	beq	.L1168
	ldr	r3, .L1649+100
	ldr	r3, [r5, r3]
	cmp	r3, #0
	beq	.L1171
	add	r3, r4, #28
	mcr	p15, 0, r0, c7, c10, 5
.L1566:
	ldrex	r2, [r3]
	sub	r1, r2, #1
	strex	r0, r1, [r3]
	cmp	r0, #0
	bne	.L1566
	cmp	r2, #1
	mcr	p15, 0, r0, c7, c10, 5
	beq	.L1629
.L1168:
	ldr	r4, [sp, #76]
	cmp	r4, #0
	beq	.L1106
	ldr	r3, .L1649+100
	ldr	r3, [r5, r3]
	cmp	r3, #0
	beq	.L1177
	add	r3, r4, #28
	mcr	p15, 0, r0, c7, c10, 5
.L1565:
	ldrex	r2, [r3]
	sub	r1, r2, #1
	strex	r0, r1, [r3]
	cmp	r0, #0
	bne	.L1565
	cmp	r2, #1
	mcr	p15, 0, r0, c7, c10, 5
	beq	.L1630
.L1106:
	add	sp, sp, #268
	@ sp needed
	pop	{r4, r5, r6, r7, r8, r9, r10, fp, pc}
.L1107:
	add	r3, sp, #264
	ldr	r0, [r0, #8]
	mov	r7, #8
	str	r7, [r3, #-120]!
	mov	r8, r1
	add	r0, r0, #16
	mov	r1, r3
	mov	r6, r2
	str	r3, [sp, #12]
.LEHB25:
	bl	_ZNK7openpal6Logger9IsEnabledERKNS_10LogFiltersE(PLT)
.LEHE25:
	cmp	r0, #0
	bne	.L1631
.L1182:
	ldr	r2, [r4, #8]
	ldr	r3, [r8, #4]
	str	r2, [sp, #20]
	subs	r2, r3, #0
	str	r3, [sp, #16]
	ldr	r4, [r8]
	beq	.L1183
	ldr	r3, .L1649+100
	ldr	r3, [r5, r3]
	cmp	r3, #0
	beq	.L1184
	add	r3, r2, #28
	mcr	p15, 0, r0, c7, c10, 5
.L1564:
	ldrex	r2, [r3]
	add	r2, r2, #1
	strex	r1, r2, [r3]
	cmp	r1, #0
	bne	.L1564
	mcr	p15, 0, r0, c7, c10, 5
.L1183:
	ldrb	r3, [r6, #4]	@ zero_extendqisi2
	ldr	r1, [r6]
	ldr	r2, [r6, #16]
	strb	r3, [sp, #108]
	mvn	r3, #0
	str	r3, [r6]
	mov	r3, #0
	strb	r3, [r6, #4]
	str	r2, [sp, #120]
	str	r1, [sp, #104]
	ldr	r2, [r6, #8]
	mov	r1, #2
	str	r3, [r6, #8]
	ldr	r3, [r6, #12]
	mov	r0, #88
	str	r1, [r6, #12]
	str	r2, [sp, #112]
	str	r3, [sp, #116]
.LEHB26:
	bl	_Znwj(PLT)
.LEHE26:
	ldr	r1, .L1649+12
	mov	r3, #0
	str	r3, [r0, #4]
	str	r3, [r0, #8]
	str	r3, [r0, #12]
	str	r3, [r0, #16]
	str	r3, [r0, #20]
	str	r3, [r0, #24]
	mov	r3, #1
	str	r3, [r0, #28]
	str	r3, [r0, #32]
	ldr	r2, [sp, #16]
	ldr	r3, [r5, r1]
	cmp	r2, #0
	add	r3, r3, #8
	mov	r8, r0
	str	r4, [sp, #56]
	str	r2, [sp, #60]
	str	r3, [r0], #36
	beq	.L1185
	ldr	r3, .L1649+100
	ldr	r3, [r5, r3]
	cmp	r3, #0
	beq	.L1186
	add	r3, r2, #28
	mcr	p15, 0, r0, c7, c10, 5
.L1563:
	ldrex	r2, [r3]
	add	r2, r2, #1
	strex	r1, r2, [r3]
	cmp	r1, #0
	bne	.L1563
	mcr	p15, 0, r0, c7, c10, 5
.L1185:
	ldrb	r3, [sp, #108]	@ zero_extendqisi2
	ldr	r1, [sp, #120]
	ldr	r2, [sp, #104]
	strb	r3, [sp, #148]
	str	r1, [sp, #160]
	ldr	r3, [sp, #112]
	ldr	r1, [sp, #116]
	str	r2, [sp, #144]
	mvn	r2, #0
	str	r3, [sp, #152]
	str	r1, [sp, #156]
	mov	r3, #0
	mov	ip, #2
	str	r2, [sp, #104]
	add	r1, sp, #56
	ldr	r2, [sp, #12]
	strb	r3, [sp, #108]
	str	r3, [sp, #112]
	str	ip, [sp, #116]
.LEHB27:
	bl	_ZN7asiopal13SocketChannelC1ESt10shared_ptrINS_8ExecutorEEN4asio19basic_stream_socketINS4_2ip3tcpENS4_21stream_socket_serviceIS7_EEEE(PLT)
.LEHE27:
	ldr	r6, [sp, #144]
	cmn	r6, #1
	beq	.L1187
	ldr	r3, [sp, #152]
	cmp	r3, #0
	beq	.L1347
	ldr	r2, [sp, #160]
	add	r3, r3, #20
	str	r3, [sp, #40]
	mov	r0, r3
	ldr	r3, [r2, #20]
	ldrb	r4, [sp, #148]	@ zero_extendqisi2
	str	r3, [sp, #36]
	bl	pthread_mutex_lock(PLT)
	ldr	r1, [sp, #152]
	ldrb	r0, [r1, #80]	@ zero_extendqisi2
	cmp	r0, #0
	bne	.L1189
	tst	r4, #64
	bne	.L1632
.L1190:
	mov	r6, #0
	ldr	r3, .L1649+16
	mov	r7, r6
	mov	r10, #56
.LPIC86:
	add	r3, pc, r3
	str	r3, [sp, #32]
	str	r6, [sp, #28]
	str	r6, [sp, #24]
	str	r8, [sp, #44]
.L1200:
	ldr	r4, [r1, r10]
	cmp	r4, #0
	beq	.L1191
	ldr	r1, .L1649+84
	ldr	r2, .L1649+88
	ldr	r3, [sp, #24]
	ldr	r8, [r5, r1]
	ldr	r9, [r5, r2]
	lsl	fp, r3, #3
	b	.L1193
.L1195:
	ldr	r1, [sp, #152]
	mov	r3, #125
	add	r2, r1, fp
	str	r3, [r4, #12]
	ldr	r3, [r2, #56]
	str	r9, [r4, #16]
	cmp	r3, #0
	beq	.L1197
	ldr	r0, [r3]
	cmp	r0, #0
	str	r0, [r2, #56]
	streq	r0, [r2, #60]
	str	r7, [r3]
.L1197:
	cmp	r6, #0
	str	r7, [r4]
	strne	r4, [r6]
	beq	.L1633
.L1199:
	ldr	r3, [r1, r10]
	mov	r6, r4
	cmp	r3, #0
	beq	.L1191
	mov	r4, r3
.L1193:
	ldrb	r3, [r8]	@ zero_extendqisi2
	mcr	p15, 0, r0, c7, c10, 5
	tst	r3, #1
	bne	.L1195
	mov	r0, r8
	bl	__cxa_guard_acquire(PLT)
	cmp	r0, #0
	beq	.L1195
	mov	r0, r8
	bl	__cxa_guard_release(PLT)
	ldr	r3, .L1649+92
	ldr	r2, [sp, #32]
	mov	r0, r9
	ldr	r1, [r5, r3]
	bl	__aeabi_atexit(PLT)
	b	.L1195
.L1191:
	ldr	r3, [sp, #24]
	add	r10, r10, #8
	add	r3, r3, #1
	cmp	r3, #3
	str	r3, [sp, #24]
	bne	.L1200
	ldr	r9, [sp, #36]
	mvn	r2, #0
	mov	r3, #1
	str	r2, [r1, #48]
	strb	r3, [r1, #80]
	add	r4, r9, #72
	ldr	r0, [sp, #40]
	ldr	r8, [sp, #44]
	bl	pthread_mutex_unlock(PLT)
	mov	r0, r4
	ldr	r7, [sp, #152]
	bl	pthread_mutex_lock(PLT)
	ldr	r3, [r9, #96]
	mov	r9, #0
	cmp	r7, r3
	mov	r0, r4
	ldreq	r2, [sp, #36]
	ldreq	r3, [r7, #12]
	streq	r3, [r2, #96]
	ldr	r3, [r7, #16]
	cmp	r3, #0
	ldrne	r2, [r7, #12]
	strne	r2, [r3, #12]
	ldr	r3, [r7, #12]
	cmp	r3, #0
	ldrne	r2, [r7, #16]
	strne	r2, [r3, #16]
	ldr	r2, [sp, #36]
	mov	r4, r2
	ldr	r3, [r2, #100]
	str	r9, [r7, #16]
	str	r3, [r7, #12]
	str	r7, [r2, #100]
	bl	pthread_mutex_unlock(PLT)
	ldr	r3, [sp, #28]
	str	r9, [sp, #152]
	cmp	r3, r9
	ldr	r7, [r4, #20]
	beq	.L1587
	ldrb	r3, [r7, #20]	@ zero_extendqisi2
	cmp	r3, r9
	bne	.L1634
.L1205:
	add	r4, r7, #24
	mov	r0, r4
	bl	pthread_mutex_lock(PLT)
	ldr	r3, [r7, #132]
	cmp	r3, #0
	ldreq	r3, [sp, #28]
	ldrne	r2, [sp, #28]
	streq	r3, [r7, #128]
	strne	r2, [r3]
	ldr	r3, [r7, #96]
	str	r6, [r7, #132]
	orr	r3, r3, #1
	cmp	r3, #1
	str	r3, [r7, #96]
	add	r6, r7, #48
	bne	.L1635
	ldrb	r2, [r7, #120]	@ zero_extendqisi2
	cmp	r2, #0
	bne	.L1218
	ldr	r0, [r7, #104]
	cmp	r0, #0
	beq	.L1218
	strb	r3, [r7, #120]
	add	r3, sp, #72
	add	r1, r0, #48
	mov	ip, #-2147483639
	str	r1, [sp, #80]
	str	r2, [r3, #4]
	str	r2, [r3, #12]
	str	ip, [sp, #72]
	mov	r1, #3
	ldr	r2, [r0, #48]
	ldr	r0, [r0, #56]
	bl	epoll_ctl(PLT)
.L1218:
	mov	r0, r4
	bl	pthread_mutex_unlock(PLT)
.L1587:
	ldr	r6, [sp, #144]
	cmn	r6, #1
	beq	.L1187
.L1347:
	ldrb	r3, [sp, #148]	@ zero_extendqisi2
	tst	r3, #8
	bne	.L1220
	bl	__errno_location(PLT)
	ldr	r3, .L1649+84
	ldr	r4, [r5, r3]
	mov	r7, r0
.L1221:
	mov	r3, #0
	str	r3, [r7]
	mov	r0, r6
	bl	close(PLT)
	ldr	r9, [r7]
	ldrb	r3, [r4]	@ zero_extendqisi2
	mcr	p15, 0, r0, c7, c10, 5
	tst	r3, #1
	mov	r10, r0
	beq	.L1636
.L1226:
	cmp	r10, #0
	beq	.L1187
	ldrb	r3, [r4]	@ zero_extendqisi2
	mcr	p15, 0, r0, c7, c10, 5
	tst	r3, #1
	bne	.L1230
	mov	r0, r4
	bl	__cxa_guard_acquire(PLT)
	cmp	r0, #0
	beq	.L1230
	mov	r0, r4
	bl	__cxa_guard_release(PLT)
	ldr	r1, .L1649+92
	ldr	r3, .L1649+88
	ldr	r2, .L1649+20
	ldr	r1, [r5, r1]
.LPIC89:
	add	r2, pc, r2
	ldr	r0, [r5, r3]
	bl	__aeabi_atexit(PLT)
.L1230:
	cmp	r9, #11
	beq	.L1637
	ldrb	r3, [r4]	@ zero_extendqisi2
	mcr	p15, 0, r0, c7, c10, 5
	tst	r3, #1
	bne	.L1187
	mov	r0, r4
	bl	__cxa_guard_acquire(PLT)
	cmp	r0, #0
	beq	.L1187
	mov	r0, r4
	bl	__cxa_guard_release(PLT)
	ldr	r1, .L1649+92
	ldr	r3, .L1649+88
	ldr	r2, .L1649+24
	ldr	r1, [r5, r1]
.LPIC90:
	add	r2, pc, r2
	ldr	r0, [r5, r3]
	bl	__aeabi_atexit(PLT)
.L1187:
	ldr	r4, [sp, #60]
	cmp	r4, #0
	beq	.L1238
	ldr	r3, .L1649+100
	ldr	r3, [r5, r3]
	cmp	r3, #0
	beq	.L1239
	add	r3, r4, #28
	mcr	p15, 0, r0, c7, c10, 5
.L1562:
	ldrex	r2, [r3]
	sub	r1, r2, #1
	strex	r0, r1, [r3]
	cmp	r0, #0
	bne	.L1562
	cmp	r2, #1
	mcr	p15, 0, r0, c7, c10, 5
	beq	.L1638
.L1238:
	ldr	r3, .L1649+28
	ldr	r2, [r8]
	mov	r0, r8
	ldr	r1, [r5, r3]
	ldr	r3, [r2, #16]
	blx	r3
	subs	r4, r0, #0
	beq	.L1244
	ldr	r3, [r4, #8]
	cmp	r3, #0
	beq	.L1249
	ldr	r2, [r3, #28]
	cmp	r2, #0
	beq	.L1249
.L1244:
	ldr	r0, [sp, #20]
	ldr	r1, [sp, #12]
	str	r4, [sp, #144]
	str	r8, [sp, #148]
.LEHB28:
	bl	_ZN8asiodnp39IOHandler12OnNewChannelERKSt10shared_ptrIN7asiopal13IAsyncChannelEE(PLT)
.LEHE28:
	ldr	r4, [sp, #148]
	cmp	r4, #0
	beq	.L1257
	ldr	r3, .L1649+100
	ldr	r3, [r5, r3]
	cmp	r3, #0
	beq	.L1258
	add	r3, r4, #28
	mcr	p15, 0, r0, c7, c10, 5
.L1560:
	ldrex	r2, [r3]
	sub	r1, r2, #1
	strex	r0, r1, [r3]
	cmp	r0, #0
	bne	.L1560
	cmp	r2, #1
	mcr	p15, 0, r0, c7, c10, 5
	beq	.L1639
.L1257:
	ldr	r6, [sp, #104]
	cmn	r6, #1
	beq	.L1262
	ldr	r3, [sp, #112]
	cmp	r3, #0
	beq	.L1348
	ldr	r2, [sp, #120]
	add	r3, r3, #20
	str	r3, [sp, #36]
	mov	r0, r3
	ldr	r3, [r2, #20]
	ldrb	r4, [sp, #108]	@ zero_extendqisi2
	str	r3, [sp, #32]
	bl	pthread_mutex_lock(PLT)
	ldr	r1, [sp, #112]
	ldrb	ip, [r1, #80]	@ zero_extendqisi2
	cmp	ip, #0
	bne	.L1264
	tst	r4, #64
	bne	.L1640
.L1265:
	mov	r6, #0
	ldr	r3, .L1649+32
	mov	r7, r6
	mov	r9, #56
.LPIC92:
	add	r3, pc, r3
	str	r3, [sp, #28]
	str	r6, [sp, #24]
	str	r6, [sp, #20]
.L1275:
	ldr	r4, [r1, r9]
	cmp	r4, #0
	beq	.L1266
	ldr	r1, .L1649+84
	ldr	r2, .L1649+88
	ldr	r3, [sp, #20]
	ldr	r8, [r5, r1]
	ldr	r10, [r5, r2]
	lsl	fp, r3, #3
	b	.L1268
.L1270:
	ldr	r1, [sp, #112]
	mov	r3, #125
	add	r2, r1, fp
	str	r3, [r4, #12]
	ldr	r3, [r2, #56]
	str	r10, [r4, #16]
	cmp	r3, #0
	beq	.L1272
	ldr	r0, [r3]
	cmp	r0, #0
	str	r0, [r2, #56]
	streq	r0, [r2, #60]
	str	r7, [r3]
.L1272:
	cmp	r6, #0
	str	r7, [r4]
	strne	r4, [r6]
	beq	.L1641
	ldr	r3, [r1, r9]
	mov	r6, r4
	cmp	r3, #0
	beq	.L1266
.L1644:
	mov	r4, r3
.L1268:
	ldrb	r3, [r8]	@ zero_extendqisi2
	mcr	p15, 0, r0, c7, c10, 5
	tst	r3, #1
	bne	.L1270
	mov	r0, r8
	bl	__cxa_guard_acquire(PLT)
	cmp	r0, #0
	beq	.L1270
	mov	r0, r8
	bl	__cxa_guard_release(PLT)
	ldr	r3, .L1649+92
	ldr	r2, [sp, #28]
	mov	r0, r10
	ldr	r1, [r5, r3]
	bl	__aeabi_atexit(PLT)
	b	.L1270
.L1264:
	ldr	r0, [sp, #36]
	bl	pthread_mutex_unlock(PLT)
.L1589:
	ldr	r6, [sp, #104]
	cmn	r6, #1
	beq	.L1262
.L1348:
	ldrb	r3, [sp, #108]	@ zero_extendqisi2
	tst	r3, #8
	bne	.L1295
	bl	__errno_location(PLT)
	ldr	r3, .L1649+84
	ldr	r4, [r5, r3]
	mov	r7, r0
.L1296:
	mov	r3, #0
	str	r3, [r7]
	mov	r0, r6
	bl	close(PLT)
	ldr	r9, [r7]
	ldrb	r3, [r4]	@ zero_extendqisi2
	mcr	p15, 0, r0, c7, c10, 5
	tst	r3, #1
	mov	r8, r0
	beq	.L1642
.L1301:
	cmp	r8, #0
	beq	.L1262
	ldrb	r3, [r4]	@ zero_extendqisi2
	mcr	p15, 0, r0, c7, c10, 5
	tst	r3, #1
	bne	.L1305
	mov	r0, r4
	bl	__cxa_guard_acquire(PLT)
	cmp	r0, #0
	beq	.L1305
	mov	r0, r4
	bl	__cxa_guard_release(PLT)
	ldr	r1, .L1649+92
	ldr	r3, .L1649+88
	ldr	r2, .L1649+36
	ldr	r1, [r5, r1]
.LPIC95:
	add	r2, pc, r2
	ldr	r0, [r5, r3]
	bl	__aeabi_atexit(PLT)
.L1305:
	cmp	r9, #11
	beq	.L1643
	ldrb	r3, [r4]	@ zero_extendqisi2
	mcr	p15, 0, r0, c7, c10, 5
	tst	r3, #1
	bne	.L1262
	mov	r0, r4
	bl	__cxa_guard_acquire(PLT)
	cmp	r0, #0
	beq	.L1262
	mov	r0, r4
	bl	__cxa_guard_release(PLT)
	ldr	r1, .L1649+92
	ldr	r3, .L1649+88
	ldr	r2, .L1649+40
	ldr	r1, [r5, r1]
.LPIC96:
	add	r2, pc, r2
	ldr	r0, [r5, r3]
	bl	__aeabi_atexit(PLT)
.L1262:
	ldr	r2, [sp, #16]
	cmp	r2, #0
	beq	.L1106
	ldr	r3, .L1649+100
	ldr	r3, [r5, r3]
	cmp	r3, #0
	beq	.L1314
	add	r3, r2, #28
	mcr	p15, 0, r0, c7, c10, 5
.L1559:
	ldrex	r2, [r3]
	sub	r1, r2, #1
	strex	r0, r1, [r3]
	cmp	r0, #0
	bne	.L1559
	cmp	r2, #1
	mcr	p15, 0, r0, c7, c10, 5
	bne	.L1106
	ldr	r4, [sp, #16]
	mov	r0, r4
	ldr	r3, [r4]
	ldr	r3, [r3, #8]
	blx	r3
	add	r3, r4, #32
	mcr	p15, 0, r0, c7, c10, 5
	mcr	p15, 0, r0, c7, c10, 5
.L1549:
	ldrex	r2, [r3]
	sub	r1, r2, #1
	strex	r0, r1, [r3]
	cmp	r0, #0
	bne	.L1549
	mcr	p15, 0, r0, c7, c10, 5
.L1346:
	cmp	r2, #1
	bne	.L1106
	ldr	r0, [sp, #16]
	ldr	r3, [r0]
	ldr	r3, [r3, #12]
	blx	r3
	b	.L1106
.L1631:
	ldr	r3, [r4, #8]
	ldr	r9, [sp, #12]
	ldr	r2, .L1649+44
	mov	r1, #120
.LPIC84:
	add	r2, pc, r2
	ldr	r3, [r3, #616]
	mov	r0, r9
	bl	snprintf(PLT)
	add	r1, sp, #264
	ldr	r0, [r4, #8]
	ldr	r2, .L1649+48
	str	r7, [r1, #-160]!
	add	r0, r0, #16
	mov	r3, r9
.LPIC85:
	add	r2, pc, r2
.LEHB29:
	bl	_ZN7openpal6Logger3LogERKNS_10LogFiltersEPKcS5_(PLT)
	b	.L1182
.L1622:
	ldr	r1, [r7, #4]
	add	r6, sp, #104
	ldr	r2, [r7]
	ldr	r3, [r1]
	mov	r0, r6
	ldr	r3, [r3, #16]
	blx	r3
	ldr	r2, .L1649+52
	ldr	r3, [sp, #104]
.LPIC79:
	add	r2, pc, r2
	mov	r1, #120
	ldr	r0, [sp, #12]
	bl	snprintf(PLT)
	ldr	r0, [sp, #104]
	add	r3, sp, #112
	cmp	r0, r3
	beq	.L1109
	bl	_ZdlPv(PLT)
.L1109:
	ldr	r0, [r4, #8]
	ldr	r2, .L1649+56
	mov	ip, #4
	mov	r1, r6
	add	r0, r0, #16
	ldr	r3, [sp, #12]
.LPIC80:
	add	r2, pc, r2
	str	ip, [sp, #104]
	bl	_ZN7openpal6Logger3LogERKNS_10LogFiltersEPKcS5_(PLT)
.LEHE29:
	b	.L1108
.L1295:
	mov	r4, #0
	orr	r3, r3, #8
	strb	r3, [sp, #108]
	str	r4, [sp, #144]
	str	r4, [sp, #148]
	bl	__errno_location(PLT)
	mov	r2, #8
	ldr	r3, [sp, #12]
	mov	r1, #1
	str	r4, [r0]
	mov	r7, r0
	str	r2, [sp]
	mov	r0, r6
	mov	r2, #13
	bl	setsockopt(PLT)
	ldr	r3, .L1649+84
	ldr	r4, [r5, r3]
	ldrb	r3, [r4]	@ zero_extendqisi2
	mcr	p15, 0, r0, c7, c10, 5
	tst	r3, #1
	bne	.L1296
	mov	r0, r4
	bl	__cxa_guard_acquire(PLT)
	cmp	r0, #0
	beq	.L1296
	mov	r0, r4
	bl	__cxa_guard_release(PLT)
	ldr	r3, .L1649+88
	ldr	r1, .L1649+92
	ldr	r2, .L1649+60
	ldr	r0, [r5, r3]
.LPIC93:
	add	r2, pc, r2
	ldr	r1, [r5, r1]
	bl	__aeabi_atexit(PLT)
	b	.L1296
.L1110:
	ldr	r2, [r4, #28]
	ldr	lr, [r4, #24]
	cmp	r2, #0
	strd	r6, [sp, #80]
	str	r2, [sp, #92]
	str	lr, [sp, #88]
	beq	.L1116
	ldr	r0, .L1649+100
	ldr	r0, [r5, r0]
	cmp	r0, #0
	bne	.L1580
	b	.L1114
.L1643:
	ldr	r2, [sp, #12]
	mov	r8, #0
	ldr	r1, .L1649+64
	mov	r0, r6
	str	r8, [sp, #144]
	bl	ioctl(PLT)
	ldrb	r3, [sp, #108]	@ zero_extendqisi2
	str	r8, [r7]
	mov	r0, r6
	bic	r3, r3, #3
	strb	r3, [sp, #108]
	bl	close(PLT)
	ldrb	r3, [r4]	@ zero_extendqisi2
	mcr	p15, 0, r0, c7, c10, 5
	tst	r3, #1
	bne	.L1262
	mov	r0, r4
	bl	__cxa_guard_acquire(PLT)
	cmp	r0, #0
	beq	.L1262
	mov	r0, r4
	bl	__cxa_guard_release(PLT)
	ldr	r3, .L1649+88
	ldr	r1, .L1649+92
	ldr	r2, .L1649+68
	ldr	r0, [r5, r3]
.LPIC97:
	add	r2, pc, r2
	ldr	r1, [r5, r1]
	bl	__aeabi_atexit(PLT)
	b	.L1262
.L1637:
	add	r2, sp, #264
	mov	r9, #0
	str	r9, [r2, #-192]!
	ldr	r1, .L1649+64
	mov	r0, r6
	bl	ioctl(PLT)
	ldrb	r3, [sp, #148]	@ zero_extendqisi2
	str	r9, [r7]
	mov	r0, r6
	bic	r3, r3, #3
	strb	r3, [sp, #148]
	bl	close(PLT)
	ldrb	r3, [r4]	@ zero_extendqisi2
	mcr	p15, 0, r0, c7, c10, 5
	tst	r3, #1
	bne	.L1187
	mov	r0, r4
	bl	__cxa_guard_acquire(PLT)
	cmp	r0, #0
	beq	.L1187
	mov	r0, r4
	bl	__cxa_guard_release(PLT)
	ldr	r3, .L1649+88
	ldr	r1, .L1649+92
	ldr	r2, .L1649+72
	ldr	r0, [r5, r3]
.LPIC91:
	add	r2, pc, r2
	ldr	r1, [r5, r1]
	bl	__aeabi_atexit(PLT)
	b	.L1187
.L1650:
	.align	2
.L1649:
	.word	_GLOBAL_OFFSET_TABLE_-(.LPIC81+8)
	.word	_ZNSt17_Function_handlerIFvvEZN7openpal8TimerRef5StartIZZN8asiodnp318TCPClientIOHandler12StartConnectERKSt10shared_ptrIN7asiopal9TCPClientEERKNS1_12TimeDurationEENKUlRKS6_INS7_8ExecutorEEN4asio19basic_stream_socketINSJ_2ip3tcpENSJ_21stream_socket_serviceISM_EEEERKSt10error_codeE_clESI_SP_SS_EUlvE_EEbSE_RKT_EUlvE_E9_M_invokeERKSt9_Any_data-(.LPIC82+8)
	.word	_ZNSt14_Function_base13_Base_managerIZN7openpal8TimerRef5StartIZZN8asiodnp318TCPClientIOHandler12StartConnectERKSt10shared_ptrIN7asiopal9TCPClientEERKNS1_12TimeDurationEENKUlRKS6_INS7_8ExecutorEEN4asio19basic_stream_socketINSJ_2ip3tcpENSJ_21stream_socket_serviceISM_EEEERKSt10error_codeE_clESI_SP_SS_EUlvE_EEbSE_RKT_EUlvE_E10_M_managerERSt9_Any_dataRKS10_St18_Manager_operation-(.LPIC83+8)
	.word	_ZTVSt23_Sp_counted_ptr_inplaceIN7asiopal13SocketChannelESaIS1_ELN9__gnu_cxx12_Lock_policyE1EE(GOT)
	.word	__dso_handle-(.LPIC86+8)
	.word	__dso_handle-(.LPIC89+8)
	.word	__dso_handle-(.LPIC90+8)
	.word	_ZTISt19_Sp_make_shared_tag(GOT)
	.word	__dso_handle-(.LPIC92+8)
	.word	__dso_handle-(.LPIC95+8)
	.word	__dso_handle-(.LPIC96+8)
	.word	.LC27-(.LPIC84+8)
	.word	.LC28-(.LPIC85+8)
	.word	.LC25-(.LPIC79+8)
	.word	.LC26-(.LPIC80+8)
	.word	__dso_handle-(.LPIC93+8)
	.word	21537
	.word	__dso_handle-(.LPIC97+8)
	.word	__dso_handle-(.LPIC91+8)
	.word	__dso_handle-(.LPIC94+8)
	.word	__dso_handle-(.LPIC88+8)
	.word	_ZGVZN4asio15system_categoryEvE8instance(GOT)
	.word	_ZZN4asio15system_categoryEvE8instance(GOT)
	.word	_ZN4asio6detail15system_categoryD1Ev(GOT)
	.word	__dso_handle-(.LPIC87+8)
	.word	_ZL28__gthrw___pthread_key_createPjPFvPvE(GOT)
	.word	_ZN4asio6detail10call_stackINS0_15task_io_serviceENS0_27task_io_service_thread_infoEE4top_E(GOT)
.L1641:
	ldr	r3, [r1, r9]
	str	r4, [sp, #24]
	cmp	r3, #0
	mov	r6, r4
	bne	.L1644
.L1266:
	ldr	r3, [sp, #20]
	add	r9, r9, #8
	add	r3, r3, #1
	cmp	r3, #3
	str	r3, [sp, #20]
	bne	.L1275
	ldr	r8, [sp, #32]
	mvn	r2, #0
	mov	r3, #1
	str	r2, [r1, #48]
	strb	r3, [r1, #80]
	add	r7, r8, #72
	ldr	r0, [sp, #36]
	bl	pthread_mutex_unlock(PLT)
	mov	r0, r7
	ldr	r4, [sp, #112]
	bl	pthread_mutex_lock(PLT)
	ldr	r3, [r8, #96]
	mov	r8, #0
	cmp	r4, r3
	mov	r0, r7
	ldreq	r2, [sp, #32]
	ldreq	r3, [r4, #12]
	streq	r3, [r2, #96]
	ldr	r3, [r4, #16]
	cmp	r3, #0
	ldrne	r2, [r4, #12]
	strne	r2, [r3, #12]
	ldr	r3, [r4, #12]
	cmp	r3, #0
	ldrne	r2, [r4, #16]
	strne	r2, [r3, #16]
	ldr	r2, [sp, #32]
	mov	r7, r2
	ldr	r3, [r2, #100]
	str	r8, [r4, #16]
	str	r3, [r4, #12]
	str	r4, [r2, #100]
	bl	pthread_mutex_unlock(PLT)
	ldr	r3, [sp, #24]
	str	r8, [sp, #112]
	cmp	r3, r8
	ldr	r4, [r7, #20]
	beq	.L1589
	ldrb	r3, [r4, #20]	@ zero_extendqisi2
	cmp	r3, r8
	beq	.L1280
	ldr	r3, .L1649+104
	ldr	r3, [r5, r3]
	ldr	r0, [r3]
	bl	pthread_getspecific(PLT)
	cmp	r0, #0
	bne	.L1541
	b	.L1280
.L1283:
	ldr	r0, [r0, #8]
	cmp	r0, #0
	beq	.L1280
.L1541:
	ldr	r3, [r0]
	cmp	r4, r3
	bne	.L1283
	ldr	r3, [r0, #4]
	cmp	r3, #0
	beq	.L1280
	ldr	r2, [r3, #8]
	cmp	r2, #0
	ldrne	r1, [sp, #24]
	ldreq	r2, [sp, #24]
	strne	r1, [r2]
	streq	r2, [r3, #4]
	str	r6, [r3, #8]
	b	.L1589
.L1633:
	str	r4, [sp, #28]
	b	.L1199
.L1280:
	add	r7, r4, #24
	mov	r0, r7
	bl	pthread_mutex_lock(PLT)
	ldr	r3, [r4, #132]
	cmp	r3, #0
	ldreq	r3, [sp, #24]
	ldrne	r2, [sp, #24]
	streq	r3, [r4, #128]
	strne	r2, [r3]
	ldr	r3, [r4, #96]
	str	r6, [r4, #132]
	orr	r3, r3, #1
	cmp	r3, #1
	str	r3, [r4, #96]
	add	r6, r4, #48
	beq	.L1291
	mov	r0, r7
	bl	pthread_mutex_unlock(PLT)
	mov	r0, r6
	bl	pthread_cond_signal(PLT)
	b	.L1589
.L1111:
	ldr	ip, [r3, #28]
	ldr	r2, [r4, #28]
	ldr	lr, [r4, #24]
	add	ip, ip, #1
	cmp	r2, #0
	str	ip, [r3, #28]
	strd	r6, [sp, #80]
	str	r2, [sp, #92]
	str	lr, [sp, #88]
	beq	.L1645
.L1114:
	ldr	ip, [r2, #28]
	ldr	r9, [r4, #8]
	add	ip, ip, #1
	add	r4, r9, #676
	cmp	r3, #0
	str	ip, [r2, #28]
	str	r9, [sp, #96]
	str	r1, [sp, #112]
	str	r3, [sp, #116]
	str	r4, [sp, #104]
	beq	.L1534
	ldr	ip, [r3, #28]
	ldrd	r6, [sp, #80]
.L1119:
	add	ip, ip, #1
	cmp	r2, #0
	str	ip, [r3, #28]
	str	lr, [sp, #128]
	str	r2, [sp, #132]
	strd	r6, [sp, #120]
	beq	.L1646
.L1124:
	ldr	lr, [r2, #28]
	mov	ip, r4
	add	lr, lr, #1
	str	lr, [r2, #28]
	b	.L1123
.L1184:
	ldr	r2, [sp, #16]
	ldr	r3, [r2, #28]
	add	r3, r3, #1
	str	r3, [r2, #28]
	b	.L1183
.L1128:
	ldr	r2, [r3, #28]
	ldrd	r0, [sp, #120]
	ldr	ip, [sp, #132]
	add	r2, r2, #1
	str	r2, [r3, #28]
	ldr	r3, [sp, #128]
	cmp	ip, #0
	strd	r0, [sp, #160]
	str	ip, [sp, #172]
	str	r3, [sp, #168]
	beq	.L1130
.L1131:
	ldr	r3, [ip, #28]
	add	r3, r3, #1
	str	r3, [ip, #28]
	b	.L1130
.L1133:
	ldr	r0, [r1, #28]
	ldrd	r2, [sp, #160]
	add	r0, r0, #1
	str	r0, [r1, #28]
	ldr	r1, [sp, #172]
	strd	r2, [ip, #16]
	ldr	r3, [sp, #168]
	cmp	r1, #0
	str	r1, [ip, #28]
	str	r3, [ip, #24]
	beq	.L1135
.L1136:
	ldr	r3, [r1, #28]
	add	r3, r3, #1
	str	r3, [r1, #28]
	b	.L1135
.L1249:
	ldr	r2, .L1649+100
	str	r4, [r4, #4]
	ldr	r2, [r5, r2]
	cmp	r2, #0
	beq	.L1647
	add	r3, r8, #32
	mcr	p15, 0, r0, c7, c10, 5
.L1561:
	ldrex	r2, [r3]
	add	r2, r2, #1
	strex	r1, r2, [r3]
	cmp	r1, #0
	bne	.L1561
	mcr	p15, 0, r0, c7, c10, 5
	ldr	r0, [r4, #8]
	cmp	r0, #0
	beq	.L1253
	add	r3, r0, #32
	mcr	p15, 0, r0, c7, c10, 5
.L1551:
	ldrex	r2, [r3]
	sub	r1, r2, #1
	strex	ip, r1, [r3]
	cmp	ip, #0
	bne	.L1551
	mcr	p15, 0, r0, c7, c10, 5
.L1342:
	cmp	r2, #1
	beq	.L1648
.L1253:
	str	r8, [r4, #8]
	b	.L1244
.L1186:
	ldr	r3, [r2, #28]
	add	r3, r3, #1
	str	r3, [r2, #28]
	b	.L1185
.L1163:
	ldr	r3, [r4, #28]
	cmp	r3, #1
	sub	r3, r3, #1
	str	r3, [r4, #28]
	bne	.L1162
	ldr	r3, [r4]
	mov	r0, r4
	ldr	r3, [r3, #8]
	blx	r3
	mcr	p15, 0, r0, c7, c10, 5
	ldr	r2, [r4, #32]
	sub	r3, r2, #1
	str	r3, [r4, #32]
	b	.L1336
.L1177:
	ldr	r3, [r4, #28]
	cmp	r3, #1
	sub	r3, r3, #1
	str	r3, [r4, #28]
	bne	.L1106
	ldr	r3, [r4]
	mov	r0, r4
	ldr	r3, [r3, #8]
	blx	r3
	mcr	p15, 0, r0, c7, c10, 5
	ldr	r2, [r4, #32]
	sub	r3, r2, #1
	str	r3, [r4, #32]
	b	.L1338
.L1151:
	ldr	r3, [r4, #28]
	cmp	r3, #1
	sub	r3, r3, #1
	str	r3, [r4, #28]
	bne	.L1150
	ldr	r3, [r4]
	mov	r0, r4
	ldr	r3, [r3, #8]
	blx	r3
	mcr	p15, 0, r0, c7, c10, 5
	ldr	r2, [r4, #32]
	sub	r3, r2, #1
	str	r3, [r4, #32]
	b	.L1334
.L1171:
	ldr	r3, [r4, #28]
	cmp	r3, #1
	sub	r3, r3, #1
	str	r3, [r4, #28]
	bne	.L1168
	ldr	r3, [r4]
	mov	r0, r4
	ldr	r3, [r3, #8]
	blx	r3
	mcr	p15, 0, r0, c7, c10, 5
	ldr	r2, [r4, #32]
	sub	r3, r2, #1
	str	r3, [r4, #32]
	b	.L1337
.L1314:
	ldr	r3, [r2, #28]
	cmp	r3, #1
	sub	r3, r3, #1
	str	r3, [r2, #28]
	bne	.L1106
	ldr	r3, [r2]
	mov	r4, r2
	mov	r0, r2
	ldr	r3, [r3, #8]
	blx	r3
	mcr	p15, 0, r0, c7, c10, 5
	ldr	r2, [r4, #32]
	sub	r3, r2, #1
	str	r3, [r4, #32]
	b	.L1346
.L1258:
	ldr	r3, [r4, #28]
	cmp	r3, #1
	sub	r3, r3, #1
	str	r3, [r4, #28]
	bne	.L1257
	ldr	r3, [r4]
	mov	r0, r4
	ldr	r3, [r3, #8]
	blx	r3
	mcr	p15, 0, r0, c7, c10, 5
	ldr	r2, [r4, #32]
	sub	r3, r2, #1
	str	r3, [r4, #32]
	b	.L1343
.L1157:
	ldr	r3, [r4, #28]
	cmp	r3, #1
	sub	r3, r3, #1
	str	r3, [r4, #28]
	bne	.L1156
	ldr	r3, [r4]
	mov	r0, r4
	ldr	r3, [r3, #8]
	blx	r3
	mcr	p15, 0, r0, c7, c10, 5
	ldr	r2, [r4, #32]
	sub	r3, r2, #1
	str	r3, [r4, #32]
	b	.L1335
.L1145:
	ldr	r3, [r4, #28]
	cmp	r3, #1
	sub	r3, r3, #1
	str	r3, [r4, #28]
	bne	.L1144
	ldr	r3, [r4]
	mov	r0, r4
	ldr	r3, [r3, #8]
	blx	r3
	mcr	p15, 0, r0, c7, c10, 5
	ldr	r2, [r4, #32]
	sub	r3, r2, #1
	str	r3, [r4, #32]
	b	.L1333
.L1239:
	ldr	r3, [r4, #28]
	cmp	r3, #1
	sub	r3, r3, #1
	str	r3, [r4, #28]
	bne	.L1238
	ldr	r3, [r4]
	mov	r0, r4
	ldr	r3, [r3, #8]
	blx	r3
	mcr	p15, 0, r0, c7, c10, 5
	ldr	r2, [r4, #32]
	sub	r3, r2, #1
	str	r3, [r4, #32]
	b	.L1341
.L1642:
	mov	r0, r4
	bl	__cxa_guard_acquire(PLT)
	cmp	r0, #0
	beq	.L1301
	mov	r0, r4
	bl	__cxa_guard_release(PLT)
	ldr	r3, .L1649+88
	ldr	r1, .L1649+92
	ldr	r2, .L1649+76
	ldr	r0, [r5, r3]
.LPIC94:
	add	r2, pc, r2
	ldr	r1, [r5, r1]
	bl	__aeabi_atexit(PLT)
	b	.L1301
.L1189:
	ldr	r0, [sp, #40]
	bl	pthread_mutex_unlock(PLT)
	b	.L1587
.L1636:
	mov	r0, r4
	bl	__cxa_guard_acquire(PLT)
	cmp	r0, #0
	beq	.L1226
	mov	r0, r4
	bl	__cxa_guard_release(PLT)
	ldr	r3, .L1649+88
	ldr	r1, .L1649+92
	ldr	r2, .L1649+80
	ldr	r0, [r5, r3]
.LPIC88:
	add	r2, pc, r2
	ldr	r1, [r5, r1]
	bl	__aeabi_atexit(PLT)
	b	.L1226
.L1626:
	ldr	r3, [r4]
	mov	r0, r4
	ldr	r3, [r3, #8]
	blx	r3
	add	r3, r4, #32
	mcr	p15, 0, r0, c7, c10, 5
	mcr	p15, 0, r0, c7, c10, 5
.L1557:
	ldrex	r2, [r3]
	sub	r1, r2, #1
	strex	r0, r1, [r3]
	cmp	r0, #0
	bne	.L1557
	mcr	p15, 0, r0, c7, c10, 5
.L1334:
	cmp	r2, #1
	bne	.L1150
	ldr	r3, [r4]
	mov	r0, r4
	ldr	r3, [r3, #12]
	blx	r3
	b	.L1150
.L1630:
	ldr	r3, [r4]
	mov	r0, r4
	ldr	r3, [r3, #8]
	blx	r3
	add	r3, r4, #32
	mcr	p15, 0, r0, c7, c10, 5
	mcr	p15, 0, r0, c7, c10, 5
.L1553:
	ldrex	r2, [r3]
	sub	r1, r2, #1
	strex	r0, r1, [r3]
	cmp	r0, #0
	bne	.L1553
	mcr	p15, 0, r0, c7, c10, 5
.L1338:
	cmp	r2, #1
	bne	.L1106
	ldr	r3, [r4]
	mov	r0, r4
	ldr	r3, [r3, #12]
	blx	r3
	b	.L1106
.L1628:
	ldr	r3, [r4]
	mov	r0, r4
	ldr	r3, [r3, #8]
	blx	r3
	add	r3, r4, #32
	mcr	p15, 0, r0, c7, c10, 5
	mcr	p15, 0, r0, c7, c10, 5
.L1555:
	ldrex	r2, [r3]
	sub	r1, r2, #1
	strex	r0, r1, [r3]
	cmp	r0, #0
	bne	.L1555
	mcr	p15, 0, r0, c7, c10, 5
.L1336:
	cmp	r2, #1
	bne	.L1162
	ldr	r3, [r4]
	mov	r0, r4
	ldr	r3, [r3, #12]
	blx	r3
	b	.L1162
.L1220:
	mov	r4, #0
	orr	r3, r3, #8
	strb	r3, [sp, #148]
	str	r4, [sp, #72]
	str	r4, [sp, #76]
	bl	__errno_location(PLT)
	mov	r2, #8
	add	r3, sp, #72
	mov	r1, #1
	str	r4, [r0]
	mov	r7, r0
	str	r2, [sp]
	mov	r0, r6
	mov	r2, #13
	bl	setsockopt(PLT)
	ldr	r3, .L1649+84
	ldr	r4, [r5, r3]
	ldrb	r3, [r4]	@ zero_extendqisi2
	mcr	p15, 0, r0, c7, c10, 5
	tst	r3, #1
	bne	.L1221
	mov	r0, r4
	bl	__cxa_guard_acquire(PLT)
	cmp	r0, #0
	beq	.L1221
	mov	r0, r4
	bl	__cxa_guard_release(PLT)
	ldr	r3, .L1649+88
	ldr	r1, .L1649+92
	ldr	r2, .L1649+96
	ldr	r0, [r5, r3]
.LPIC87:
	add	r2, pc, r2
	ldr	r1, [r5, r1]
	bl	__aeabi_atexit(PLT)
	b	.L1221
.L1116:
	ldr	r9, [r4, #8]
	str	r1, [sp, #112]
	add	r4, r9, #676
	str	r9, [sp, #96]
	str	r2, [sp, #116]
	str	r4, [sp, #104]
.L1121:
	ldrd	r2, [sp, #80]
	mov	r0, #0
	str	lr, [sp, #128]
	strd	r2, [sp, #120]
	str	r0, [sp, #132]
.L1126:
	mov	r3, #0
	str	r9, [sp, #136]
	str	r4, [sp, #144]
	str	r1, [sp, #152]
	str	r3, [sp, #156]
.L1127:
	ldr	ip, [sp, #132]
	ldrd	r2, [sp, #120]
	ldr	r1, [sp, #128]
	cmp	ip, #0
	strd	r2, [sp, #160]
	str	ip, [sp, #172]
	str	r1, [sp, #168]
	beq	.L1130
	ldr	r3, .L1649+100
	ldr	r3, [r5, r3]
	cmp	r3, #0
	bne	.L1584
	b	.L1131
.L1132:
	ldr	r1, [sp, #172]
	ldrd	r2, [sp, #160]
	ldr	r0, [sp, #168]
	cmp	r1, #0
	strd	r2, [ip, #16]
	str	r1, [ip, #28]
	str	r0, [ip, #24]
	beq	.L1135
	ldr	r3, .L1649+100
	ldr	r3, [r5, r3]
	cmp	r3, #0
	bne	.L1586
	b	.L1136
.L1627:
	ldr	r3, [r4]
	mov	r0, r4
	ldr	r3, [r3, #8]
	blx	r3
	add	r3, r4, #32
	mcr	p15, 0, r0, c7, c10, 5
	mcr	p15, 0, r0, c7, c10, 5
.L1556:
	ldrex	r2, [r3]
	sub	r1, r2, #1
	strex	r0, r1, [r3]
	cmp	r0, #0
	bne	.L1556
	mcr	p15, 0, r0, c7, c10, 5
.L1335:
	cmp	r2, #1
	bne	.L1156
	ldr	r3, [r4]
	mov	r0, r4
	ldr	r3, [r3, #12]
	blx	r3
	b	.L1156
.L1629:
	ldr	r3, [r4]
	mov	r0, r4
	ldr	r3, [r3, #8]
	blx	r3
	add	r3, r4, #32
	mcr	p15, 0, r0, c7, c10, 5
	mcr	p15, 0, r0, c7, c10, 5
.L1554:
	ldrex	r2, [r3]
	sub	r1, r2, #1
	strex	r0, r1, [r3]
	cmp	r0, #0
	bne	.L1554
	mcr	p15, 0, r0, c7, c10, 5
.L1337:
	cmp	r2, #1
	bne	.L1168
	ldr	r3, [r4]
	mov	r0, r4
	ldr	r3, [r3, #12]
	blx	r3
	b	.L1168
.L1639:
	ldr	r3, [r4]
	mov	r0, r4
	ldr	r3, [r3, #8]
	blx	r3
	add	r3, r4, #32
	mcr	p15, 0, r0, c7, c10, 5
	mcr	p15, 0, r0, c7, c10, 5
.L1550:
	ldrex	r2, [r3]
	sub	r1, r2, #1
	strex	r0, r1, [r3]
	cmp	r0, #0
	bne	.L1550
	mcr	p15, 0, r0, c7, c10, 5
.L1343:
	cmp	r2, #1
	bne	.L1257
	ldr	r3, [r4]
	mov	r0, r4
	ldr	r3, [r3, #12]
	blx	r3
	b	.L1257
.L1625:
	ldr	r3, [r4]
	mov	r0, r4
	ldr	r3, [r3, #8]
	blx	r3
	add	r3, r4, #32
	mcr	p15, 0, r0, c7, c10, 5
	mcr	p15, 0, r0, c7, c10, 5
.L1558:
	ldrex	r2, [r3]
	sub	r1, r2, #1
	strex	r0, r1, [r3]
	cmp	r0, #0
	bne	.L1558
	mcr	p15, 0, r0, c7, c10, 5
.L1333:
	cmp	r2, #1
	bne	.L1144
	ldr	r3, [r4]
	mov	r0, r4
	ldr	r3, [r3, #12]
	blx	r3
	b	.L1144
.L1635:
	mov	r0, r4
	bl	pthread_mutex_unlock(PLT)
	mov	r0, r6
	bl	pthread_cond_signal(PLT)
	b	.L1587
.L1638:
	ldr	r3, [r4]
	mov	r0, r4
	ldr	r3, [r3, #8]
	blx	r3
	add	r3, r4, #32
	mcr	p15, 0, r0, c7, c10, 5
	mcr	p15, 0, r0, c7, c10, 5
.L1552:
	ldrex	r2, [r3]
	sub	r1, r2, #1
	strex	r0, r1, [r3]
	cmp	r0, #0
	bne	.L1552
	mcr	p15, 0, r0, c7, c10, 5
.L1341:
	cmp	r2, #1
	bne	.L1238
	ldr	r3, [r4]
	mov	r0, r4
	ldr	r3, [r3, #12]
	blx	r3
	b	.L1238
.L1634:
	ldr	r3, .L1649+104
	ldr	r3, [r5, r3]
	ldr	r0, [r3]
	bl	pthread_getspecific(PLT)
	cmp	r0, #0
	beq	.L1205
	ldr	r3, [r0]
	cmp	r3, r7
	bne	.L1208
	b	.L1206
.L1538:
	ldr	r3, [r0]
	cmp	r7, r3
	beq	.L1206
.L1208:
	ldr	r0, [r0, #8]
	cmp	r0, #0
	bne	.L1538
	b	.L1205
.L1647:
	ldr	r2, [r8, #32]
	subs	r0, r3, #0
	add	r3, r2, #1
	str	r3, [r8, #32]
	beq	.L1253
	ldr	r2, [r0, #32]
	sub	r3, r2, #1
	str	r3, [r0, #32]
	b	.L1342
.L1291:
	ldrb	r2, [r4, #120]	@ zero_extendqisi2
	cmp	r2, #0
	bne	.L1293
	ldr	r1, [r4, #104]
	cmp	r1, #0
	beq	.L1293
	ldr	ip, [sp, #12]
	strb	r3, [r4, #120]
	mov	r0, #-2147483639
	add	r3, r1, #48
	str	r2, [ip, #8]
	str	r0, [sp, #144]
	str	r3, [sp, #152]
	str	r2, [ip, #4]
	str	r2, [ip, #12]
	ldr	r0, [r1, #56]
	ldr	r2, [r1, #48]
	mov	r3, ip
	mov	r1, #3
	bl	epoll_ctl(PLT)
.L1293:
	mov	r0, r7
	bl	pthread_mutex_unlock(PLT)
	b	.L1589
.L1640:
	ldr	r0, [sp, #32]
	ldr	lr, [sp, #12]
	mov	r1, #2
	ldr	r0, [r0, #56]
	mov	r2, r6
	mov	r3, lr
	str	ip, [sp, #144]
	str	ip, [lr, #4]
	str	ip, [lr, #8]
	str	ip, [lr, #12]
	bl	epoll_ctl(PLT)
	ldr	r1, [sp, #112]
	b	.L1265
.L1623:
	ldr	r9, [r4, #8]
	ldr	r3, [sp, #76]
	ldr	r1, [sp, #72]
	add	r4, r9, #676
	cmp	r3, #0
	str	r9, [sp, #96]
	str	r4, [sp, #104]
	str	r3, [sp, #116]
	str	r1, [sp, #112]
	bne	.L1581
	b	.L1121
.L1624:
	ldr	r2, [sp, #92]
	ldrd	r6, [sp, #80]
	ldr	r3, [sp, #88]
	cmp	r2, #0
	str	r2, [sp, #132]
	strd	r6, [sp, #120]
	str	r3, [sp, #128]
	beq	.L1126
.L1349:
	cmp	r0, #0
	bne	.L1582
	mov	r3, r0
	b	.L1124
.L1632:
	str	r0, [sp, #72]
	str	r0, [sp, #76]
	str	r0, [sp, #80]
	str	r0, [sp, #84]
	ldr	r0, [sp, #36]
	add	ip, sp, #72
	mov	r1, #2
	mov	r2, r6
	mov	r3, ip
	ldr	r0, [r0, #56]
	bl	epoll_ctl(PLT)
	ldr	r1, [sp, #152]
	b	.L1190
.L1648:
	mcr	p15, 0, r0, c7, c10, 5
	ldr	r3, [r0]
	ldr	r3, [r3, #12]
	blx	r3
	b	.L1253
.L1206:
	ldr	r3, [r0, #4]
	cmp	r3, #0
	beq	.L1205
	ldr	r2, [r3, #8]
	cmp	r2, #0
	ldrne	r1, [sp, #28]
	ldreq	r2, [sp, #28]
	strne	r1, [r2]
	streq	r2, [r3, #4]
	str	r6, [r3, #8]
	b	.L1587
.L1646:
	str	r9, [sp, #136]
	str	r4, [sp, #144]
	str	r1, [sp, #152]
	str	r3, [sp, #156]
	b	.L1350
.L1534:
	ldrd	r6, [sp, #80]
	str	lr, [sp, #128]
	str	r2, [sp, #132]
	strd	r6, [sp, #120]
	b	.L1349
.L1645:
	ldr	r9, [r4, #8]
	str	r1, [sp, #112]
	add	r4, r9, #676
	str	r9, [sp, #96]
	str	r3, [sp, #116]
	str	r4, [sp, #104]
	b	.L1119
.L1358:
	ldr	r0, [sp, #148]
	cmp	r0, #0
	beq	.L1247
	bl	_ZNSt16_Sp_counted_baseILN9__gnu_cxx12_Lock_policyE1EE10_M_releaseEv(PLT)
.L1247:
	ldr	r0, [sp, #120]
	add	r1, sp, #104
	add	r0, r0, #20
	bl	_ZN4asio6detail28reactive_socket_service_base7destroyERNS1_24base_implementation_typeE(PLT)
	ldr	r3, [sp, #16]
	cmp	r3, #0
	beq	.L1320
	mov	r0, r3
	bl	_ZNSt16_Sp_counted_baseILN9__gnu_cxx12_Lock_policyE1EE10_M_releaseEv(PLT)
.L1320:
.LEHB30:
	bl	__cxa_end_cleanup(PLT)
.LEHE30:
.L1357:
	b	.L1247
.L1359:
	ldr	r3, [sp, #64]
	cmp	r3, #0
	beq	.L1141
	mov	r2, #3
	mov	r1, r4
	mov	r0, r4
	blx	r3
.L1141:
	ldr	r3, [sp, #12]
	add	r0, r3, #8
	bl	_ZZZN8asiodnp318TCPClientIOHandler12StartConnectERKSt10shared_ptrIN7asiopal9TCPClientEERKN7openpal12TimeDurationEENKUlRKS1_INS2_8ExecutorEEN4asio19basic_stream_socketINSF_2ip3tcpENSF_21stream_socket_serviceISI_EEEERKSt10error_codeE_clESE_SL_SO_ENUlvE_D1Ev(PLT)
	add	r0, sp, #112
	bl	_ZZZN8asiodnp318TCPClientIOHandler12StartConnectERKSt10shared_ptrIN7asiopal9TCPClientEERKN7openpal12TimeDurationEENKUlRKS1_INS2_8ExecutorEEN4asio19basic_stream_socketINSF_2ip3tcpENSF_21stream_socket_serviceISI_EEEERKSt10error_codeE_clESE_SL_SO_ENUlvE_D1Ev(PLT)
	add	r0, sp, #72
	bl	_ZZZN8asiodnp318TCPClientIOHandler12StartConnectERKSt10shared_ptrIN7asiopal9TCPClientEERKN7openpal12TimeDurationEENKUlRKS1_INS2_8ExecutorEEN4asio19basic_stream_socketINSF_2ip3tcpENSF_21stream_socket_serviceISI_EEEERKSt10error_codeE_clESE_SL_SO_ENUlvE_D1Ev(PLT)
.LEHB31:
	bl	__cxa_end_cleanup(PLT)
.LEHE31:
.L1361:
	ldr	r0, [sp, #160]
	ldr	r1, [sp, #12]
	add	r0, r0, #20
	bl	_ZN4asio6detail28reactive_socket_service_base7destroyERNS1_24base_implementation_typeE(PLT)
	ldr	r0, [sp, #60]
	cmp	r0, #0
	beq	.L1246
	bl	_ZNSt16_Sp_counted_baseILN9__gnu_cxx12_Lock_policyE1EE10_M_releaseEv(PLT)
.L1246:
	mov	r0, r8
	bl	_ZdlPv(PLT)
	b	.L1247
.L1360:
	ldr	r3, [sp, #64]
	cmp	r3, #0
	beq	.L1141
	add	r1, sp, #56
	mov	r0, r1
	mov	r2, #3
	blx	r3
	b	.L1141
	.personality	__gxx_personality_v0
	.handlerdata
.LLSDA7492:
	.byte	0xff
	.byte	0xff
	.byte	0x1
	.uleb128 .LLSDACSE7492-.LLSDACSB7492
.LLSDACSB7492:
	.uleb128 .LEHB22-.LFB7492
	.uleb128 .LEHE22-.LEHB22
	.uleb128 0
	.uleb128 0
	.uleb128 .LEHB23-.LFB7492
	.uleb128 .LEHE23-.LEHB23
	.uleb128 .L1360-.LFB7492
	.uleb128 0
	.uleb128 .LEHB24-.LFB7492
	.uleb128 .LEHE24-.LEHB24
	.uleb128 .L1359-.LFB7492
	.uleb128 0
	.uleb128 .LEHB25-.LFB7492
	.uleb128 .LEHE25-.LEHB25
	.uleb128 0
	.uleb128 0
	.uleb128 .LEHB26-.LFB7492
	.uleb128 .LEHE26-.LEHB26
	.uleb128 .L1357-.LFB7492
	.uleb128 0
	.uleb128 .LEHB27-.LFB7492
	.uleb128 .LEHE27-.LEHB27
	.uleb128 .L1361-.LFB7492
	.uleb128 0
	.uleb128 .LEHB28-.LFB7492
	.uleb128 .LEHE28-.LEHB28
	.uleb128 .L1358-.LFB7492
	.uleb128 0
	.uleb128 .LEHB29-.LFB7492
	.uleb128 .LEHE29-.LEHB29
	.uleb128 0
	.uleb128 0
	.uleb128 .LEHB30-.LFB7492
	.uleb128 .LEHE30-.LEHB30
	.uleb128 0
	.uleb128 0
	.uleb128 .LEHB31-.LFB7492
	.uleb128 .LEHE31-.LEHB31
	.uleb128 0
	.uleb128 0
.LLSDACSE7492:
	.text
	.fnend
	.size	_ZZN8asiodnp318TCPClientIOHandler12StartConnectERKSt10shared_ptrIN7asiopal9TCPClientEERKN7openpal12TimeDurationEENKUlRKS1_INS2_8ExecutorEEN4asio19basic_stream_socketINSF_2ip3tcpENSF_21stream_socket_serviceISI_EEEERKSt10error_codeE_clESE_SL_SO_, .-_ZZN8asiodnp318TCPClientIOHandler12StartConnectERKSt10shared_ptrIN7asiopal9TCPClientEERKN7openpal12TimeDurationEENKUlRKS1_INS2_8ExecutorEEN4asio19basic_stream_socketINSF_2ip3tcpENSF_21stream_socket_serviceISI_EEEERKSt10error_codeE_clESE_SL_SO_
	.align	2
	.syntax unified
	.arm
	.fpu vfp
	.type	_ZNSt17_Function_handlerIFvRKSt10shared_ptrIN7asiopal8ExecutorEEN4asio19basic_stream_socketINS6_2ip3tcpENS6_21stream_socket_serviceIS9_EEEERKSt10error_codeEZN8asiodnp318TCPClientIOHandler12StartConnectERKS0_INS1_9TCPClientEERKN7openpal12TimeDurationEEUlS5_SC_SF_E_E9_M_invokeERKSt9_Any_dataS5_OSC_SF_, %function
_ZNSt17_Function_handlerIFvRKSt10shared_ptrIN7asiopal8ExecutorEEN4asio19basic_stream_socketINS6_2ip3tcpENS6_21stream_socket_serviceIS9_EEEERKSt10error_codeEZN8asiodnp318TCPClientIOHandler12StartConnectERKS0_INS1_9TCPClientEERKN7openpal12TimeDurationEEUlS5_SC_SF_E_E9_M_invokeERKSt9_Any_dataS5_OSC_SF_:
	.fnstart
.LFB8843:
	@ args = 0, pretend = 0, frame = 64
	@ frame_needed = 0, uses_anonymous_args = 0
	push	{r4, r5, r6, r7, r8, r9, r10, fp, lr}
	.save {r4, r5, r6, r7, r8, r9, r10, fp, lr}
	.pad #76
	sub	sp, sp, #76
	ldr	ip, [r2, #12]
	ldr	lr, [r2]
	mvn	r4, #0
	str	ip, [sp, #64]
	mov	ip, #0
	ldr	r0, [r0]
	ldrb	r6, [r2, #4]	@ zero_extendqisi2
	str	r4, [r2]
	strb	ip, [r2, #4]
	mov	r4, #2
	str	lr, [sp, #52]
	ldr	lr, [r2, #8]
	str	ip, [r2, #8]
	ldr	ip, .L1788
	str	r4, [r2, #12]
	ldr	r5, [r2, #16]
	add	r4, sp, #52
.LPIC98:
	add	ip, pc, ip
	mov	r2, r4
	strb	r6, [sp, #56]
	str	r5, [sp, #68]
	str	lr, [sp, #60]
	str	ip, [sp, #8]
.LEHB32:
	bl	_ZZN8asiodnp318TCPClientIOHandler12StartConnectERKSt10shared_ptrIN7asiopal9TCPClientEERKN7openpal12TimeDurationEENKUlRKS1_INS2_8ExecutorEEN4asio19basic_stream_socketINSF_2ip3tcpENSF_21stream_socket_serviceISI_EEEERKSt10error_codeE_clESE_SL_SO_(PLT)
.LEHE32:
	ldr	r4, [sp, #52]
	cmn	r4, #1
	beq	.L1651
	ldr	r3, [sp, #60]
	cmp	r3, #0
	beq	.L1708
	ldr	r2, [sp, #68]
	add	r3, r3, #20
	str	r3, [sp, #28]
	mov	r0, r3
	ldr	r3, [r2, #20]
	ldrb	r5, [sp, #56]	@ zero_extendqisi2
	str	r3, [sp, #24]
	bl	pthread_mutex_lock(PLT)
	ldr	r1, [sp, #60]
	ldrb	r0, [r1, #80]	@ zero_extendqisi2
	cmp	r0, #0
	bne	.L1654
	tst	r5, #64
	bne	.L1782
.L1655:
	mov	r5, #0
	ldr	r3, .L1788+4
	mov	r6, r5
	mov	r8, #56
	mov	r10, #125
.LPIC99:
	add	r3, pc, r3
	str	r3, [sp, #20]
	str	r5, [sp, #16]
	str	r5, [sp, #12]
.L1665:
	ldr	r4, [r1, r8]
	cmp	r4, #0
	beq	.L1656
	ldr	r3, [sp, #12]
	ldr	r1, .L1788+8
	ldr	r2, .L1788+12
	lsl	fp, r3, #3
	ldr	r3, [sp, #8]
	ldr	r7, [r3, r1]
	ldr	r9, [r3, r2]
	b	.L1658
.L1660:
	ldr	r1, [sp, #60]
	str	r10, [r4, #12]
	add	r0, r1, fp
	str	r9, [r4, #16]
	ldr	r2, [r0, #56]
	cmp	r2, #0
	beq	.L1662
	ldr	ip, [r2]
	cmp	ip, #0
	str	ip, [r0, #56]
	streq	ip, [r0, #60]
	str	r6, [r2]
.L1662:
	cmp	r5, #0
	str	r6, [r4]
	strne	r4, [r5]
	beq	.L1783
	ldr	r2, [r1, r8]
	mov	r5, r4
	cmp	r2, #0
	beq	.L1656
.L1787:
	mov	r4, r2
.L1658:
	ldrb	r2, [r7]	@ zero_extendqisi2
	mcr	p15, 0, r0, c7, c10, 5
	tst	r2, #1
	bne	.L1660
	mov	r0, r7
	bl	__cxa_guard_acquire(PLT)
	cmp	r0, #0
	beq	.L1660
	mov	r0, r7
	bl	__cxa_guard_release(PLT)
	ldr	r3, [sp, #8]
	ldr	r1, .L1788+16
	ldr	r2, [sp, #20]
	mov	r0, r9
	ldr	r1, [r3, r1]
	bl	__aeabi_atexit(PLT)
	b	.L1660
.L1670:
	add	r6, r4, #24
	mov	r0, r6
	bl	pthread_mutex_lock(PLT)
	ldr	r3, [r4, #132]
	cmp	r3, #0
	ldreq	r3, [sp, #16]
	ldrne	r2, [sp, #16]
	streq	r3, [r4, #128]
	strne	r2, [r3]
	ldr	r3, [r4, #96]
	str	r5, [r4, #132]
	orr	r3, r3, #1
	cmp	r3, #1
	str	r3, [r4, #96]
	add	r5, r4, #48
	beq	.L1681
	mov	r0, r6
	bl	pthread_mutex_unlock(PLT)
	mov	r0, r5
	bl	pthread_cond_signal(PLT)
.L1778:
	ldr	r4, [sp, #52]
	cmn	r4, #1
	beq	.L1651
.L1708:
	ldrb	r3, [sp, #56]	@ zero_extendqisi2
	tst	r3, #8
	bne	.L1685
	bl	__errno_location(PLT)
	ldr	r3, .L1788+8
	ldr	r2, [sp, #8]
	ldr	r5, [r2, r3]
	mov	r6, r0
.L1686:
	mov	r3, #0
	str	r3, [r6]
	mov	r0, r4
	bl	close(PLT)
	ldr	r8, [r6]
	ldrb	r3, [r5]	@ zero_extendqisi2
	mcr	p15, 0, r0, c7, c10, 5
	tst	r3, #1
	mov	r7, r0
	beq	.L1784
.L1691:
	cmp	r7, #0
	beq	.L1651
	ldrb	r3, [r5]	@ zero_extendqisi2
	mcr	p15, 0, r0, c7, c10, 5
	tst	r3, #1
	beq	.L1785
.L1695:
	cmp	r8, #11
	beq	.L1786
	ldrb	r3, [r5]	@ zero_extendqisi2
	mcr	p15, 0, r0, c7, c10, 5
	tst	r3, #1
	bne	.L1651
	mov	r0, r5
	bl	__cxa_guard_acquire(PLT)
	cmp	r0, #0
	beq	.L1651
	mov	r0, r5
	bl	__cxa_guard_release(PLT)
	ldr	r0, [sp, #8]
	ldr	r1, .L1788+16
	ldr	r3, .L1788+12
	ldr	r2, .L1788+20
	ldr	r1, [r0, r1]
.LPIC103:
	add	r2, pc, r2
	ldr	r0, [r0, r3]
	bl	__aeabi_atexit(PLT)
.L1651:
	add	sp, sp, #76
	@ sp needed
	pop	{r4, r5, r6, r7, r8, r9, r10, fp, pc}
.L1783:
	ldr	r2, [r1, r8]
	str	r4, [sp, #16]
	cmp	r2, #0
	mov	r5, r4
	bne	.L1787
.L1656:
	ldr	r3, [sp, #12]
	add	r8, r8, #8
	add	r3, r3, #1
	cmp	r3, #3
	str	r3, [sp, #12]
	bne	.L1665
	ldr	r6, [sp, #24]
	mvn	r2, #0
	mov	r3, #1
	str	r2, [r1, #48]
	strb	r3, [r1, #80]
	add	r7, r6, #72
	ldr	r0, [sp, #28]
	bl	pthread_mutex_unlock(PLT)
	mov	r0, r7
	ldr	r4, [sp, #60]
	bl	pthread_mutex_lock(PLT)
	ldr	r3, [r6, #96]
	mov	r6, #0
	cmp	r4, r3
	mov	r0, r7
	ldreq	r2, [sp, #24]
	ldreq	r3, [r4, #12]
	streq	r3, [r2, #96]
	ldr	r3, [r4, #16]
	cmp	r3, #0
	ldrne	r2, [r4, #12]
	strne	r2, [r3, #12]
	ldr	r3, [r4, #12]
	cmp	r3, #0
	ldrne	r2, [r4, #16]
	strne	r2, [r3, #16]
	ldr	r2, [sp, #24]
	mov	r7, r2
	ldr	r3, [r2, #100]
	str	r6, [r4, #16]
	str	r3, [r4, #12]
	str	r4, [r2, #100]
	bl	pthread_mutex_unlock(PLT)
	ldr	r3, [sp, #16]
	str	r6, [sp, #60]
	cmp	r3, r6
	ldr	r4, [r7, #20]
	beq	.L1778
	ldrb	r3, [r4, #20]	@ zero_extendqisi2
	cmp	r3, r6
	beq	.L1670
	ldr	r2, [sp, #8]
	ldr	r3, .L1788+24
	ldr	r3, [r2, r3]
	ldr	r0, [r3]
	bl	pthread_getspecific(PLT)
	cmp	r0, #0
	bne	.L1771
	b	.L1670
.L1673:
	ldr	r0, [r0, #8]
	cmp	r0, #0
	beq	.L1670
.L1771:
	ldr	r3, [r0]
	cmp	r4, r3
	bne	.L1673
	ldr	r3, [r0, #4]
	cmp	r3, #0
	beq	.L1670
	ldr	r2, [r3, #8]
	cmp	r2, #0
	ldrne	r1, [sp, #16]
	ldreq	r2, [sp, #16]
	strne	r1, [r2]
	streq	r2, [r3, #4]
	str	r5, [r3, #8]
	b	.L1778
.L1654:
	ldr	r0, [sp, #28]
	bl	pthread_mutex_unlock(PLT)
	ldr	r4, [sp, #52]
	cmn	r4, #1
	bne	.L1708
	b	.L1651
.L1782:
	str	r0, [sp, #32]
	str	r0, [sp, #36]
	str	r0, [sp, #40]
	str	r0, [sp, #44]
	ldr	r0, [sp, #24]
	add	ip, sp, #32
	mov	r1, #2
	mov	r2, r4
	mov	r3, ip
	ldr	r0, [r0, #56]
	bl	epoll_ctl(PLT)
	ldr	r1, [sp, #60]
	b	.L1655
.L1784:
	mov	r0, r5
	bl	__cxa_guard_acquire(PLT)
	cmp	r0, #0
	beq	.L1691
	mov	r0, r5
	bl	__cxa_guard_release(PLT)
	ldr	r0, [sp, #8]
	ldr	r3, .L1788+12
	ldr	r1, .L1788+16
	ldr	r2, .L1788+28
	ldr	r1, [r0, r1]
.LPIC101:
	add	r2, pc, r2
	ldr	r0, [r0, r3]
	bl	__aeabi_atexit(PLT)
	b	.L1691
.L1685:
	mov	r5, #0
	orr	r3, r3, #8
	strb	r3, [sp, #56]
	str	r5, [sp, #32]
	str	r5, [sp, #36]
	bl	__errno_location(PLT)
	mov	r2, #8
	add	r3, sp, #32
	mov	r1, #1
	str	r5, [r0]
	mov	r6, r0
	str	r2, [sp]
	mov	r0, r4
	mov	r2, #13
	bl	setsockopt(PLT)
	ldr	r2, [sp, #8]
	ldr	r3, .L1788+8
	ldr	r5, [r2, r3]
	ldrb	r3, [r5]	@ zero_extendqisi2
	mcr	p15, 0, r0, c7, c10, 5
	tst	r3, #1
	bne	.L1686
	mov	r0, r5
	bl	__cxa_guard_acquire(PLT)
	cmp	r0, #0
	beq	.L1686
	mov	r0, r5
	bl	__cxa_guard_release(PLT)
	ldr	r0, [sp, #8]
	ldr	r3, .L1788+12
	ldr	r1, .L1788+16
	ldr	r2, .L1788+32
	ldr	r1, [r0, r1]
.LPIC100:
	add	r2, pc, r2
	ldr	r0, [r0, r3]
	bl	__aeabi_atexit(PLT)
	b	.L1686
.L1786:
	add	r2, sp, #72
	mov	r7, #0
	str	r7, [r2, #-40]!
	ldr	r1, .L1788+36
	mov	r0, r4
	bl	ioctl(PLT)
	ldrb	r3, [sp, #56]	@ zero_extendqisi2
	str	r7, [r6]
	mov	r0, r4
	bic	r3, r3, #3
	strb	r3, [sp, #56]
	bl	close(PLT)
	ldrb	r3, [r5]	@ zero_extendqisi2
	mcr	p15, 0, r0, c7, c10, 5
	tst	r3, #1
	bne	.L1651
	mov	r0, r5
	bl	__cxa_guard_acquire(PLT)
	cmp	r0, #0
	beq	.L1651
	mov	r0, r5
	bl	__cxa_guard_release(PLT)
	ldr	r0, [sp, #8]
	ldr	r3, .L1788+12
	ldr	r1, .L1788+16
	ldr	r2, .L1788+40
	ldr	r1, [r0, r1]
.LPIC104:
	add	r2, pc, r2
	ldr	r0, [r0, r3]
	bl	__aeabi_atexit(PLT)
	b	.L1651
.L1681:
	ldrb	r2, [r4, #120]	@ zero_extendqisi2
	cmp	r2, #0
	bne	.L1683
	ldr	r0, [r4, #104]
	cmp	r0, #0
	beq	.L1683
	strb	r3, [r4, #120]
	add	r3, sp, #32
	add	r1, r0, #48
	mov	ip, #-2147483639
	str	r1, [sp, #40]
	str	r2, [r3, #4]
	str	r2, [r3, #12]
	str	ip, [sp, #32]
	mov	r1, #3
	ldr	r2, [r0, #48]
	ldr	r0, [r0, #56]
	bl	epoll_ctl(PLT)
.L1683:
	mov	r0, r6
	bl	pthread_mutex_unlock(PLT)
	b	.L1778
.L1785:
	mov	r0, r5
	bl	__cxa_guard_acquire(PLT)
	cmp	r0, #0
	beq	.L1695
	mov	r0, r5
	bl	__cxa_guard_release(PLT)
	ldr	r0, [sp, #8]
	ldr	r3, .L1788+12
	ldr	r1, .L1788+16
	ldr	r2, .L1788+44
	ldr	r1, [r0, r1]
.LPIC102:
	add	r2, pc, r2
	ldr	r0, [r0, r3]
	bl	__aeabi_atexit(PLT)
	b	.L1695
.L1711:
	ldr	r0, [sp, #68]
	mov	r1, r4
	add	r0, r0, #20
	bl	_ZN4asio6detail28reactive_socket_service_base7destroyERNS1_24base_implementation_typeE(PLT)
.LEHB33:
	bl	__cxa_end_cleanup(PLT)
.LEHE33:
.L1789:
	.align	2
.L1788:
	.word	_GLOBAL_OFFSET_TABLE_-(.LPIC98+8)
	.word	__dso_handle-(.LPIC99+8)
	.word	_ZGVZN4asio15system_categoryEvE8instance(GOT)
	.word	_ZZN4asio15system_categoryEvE8instance(GOT)
	.word	_ZN4asio6detail15system_categoryD1Ev(GOT)
	.word	__dso_handle-(.LPIC103+8)
	.word	_ZN4asio6detail10call_stackINS0_15task_io_serviceENS0_27task_io_service_thread_infoEE4top_E(GOT)
	.word	__dso_handle-(.LPIC101+8)
	.word	__dso_handle-(.LPIC100+8)
	.word	21537
	.word	__dso_handle-(.LPIC104+8)
	.word	__dso_handle-(.LPIC102+8)
	.personality	__gxx_personality_v0
	.handlerdata
.LLSDA8843:
	.byte	0xff
	.byte	0xff
	.byte	0x1
	.uleb128 .LLSDACSE8843-.LLSDACSB8843
.LLSDACSB8843:
	.uleb128 .LEHB32-.LFB8843
	.uleb128 .LEHE32-.LEHB32
	.uleb128 .L1711-.LFB8843
	.uleb128 0
	.uleb128 .LEHB33-.LFB8843
	.uleb128 .LEHE33-.LEHB33
	.uleb128 0
	.uleb128 0
.LLSDACSE8843:
	.text
	.fnend
	.size	_ZNSt17_Function_handlerIFvRKSt10shared_ptrIN7asiopal8ExecutorEEN4asio19basic_stream_socketINS6_2ip3tcpENS6_21stream_socket_serviceIS9_EEEERKSt10error_codeEZN8asiodnp318TCPClientIOHandler12StartConnectERKS0_INS1_9TCPClientEERKN7openpal12TimeDurationEEUlS5_SC_SF_E_E9_M_invokeERKSt9_Any_dataS5_OSC_SF_, .-_ZNSt17_Function_handlerIFvRKSt10shared_ptrIN7asiopal8ExecutorEEN4asio19basic_stream_socketINS6_2ip3tcpENS6_21stream_socket_serviceIS9_EEEERKSt10error_codeEZN8asiodnp318TCPClientIOHandler12StartConnectERKS0_INS1_9TCPClientEERKN7openpal12TimeDurationEEUlS5_SC_SF_E_E9_M_invokeERKSt9_Any_dataS5_OSC_SF_
	.section	.text._ZNSt8_Rb_treeIPN8opendnp317IScheduleCallbackES2_St9_IdentityIS2_ESt4lessIS2_ESaIS2_EE8_M_eraseEPSt13_Rb_tree_nodeIS2_E,"axG",%progbits,_ZNSt8_Rb_treeIPN8opendnp317IScheduleCallbackES2_St9_IdentityIS2_ESt4lessIS2_ESaIS2_EE8_M_eraseEPSt13_Rb_tree_nodeIS2_E,comdat
	.align	2
	.weak	_ZNSt8_Rb_treeIPN8opendnp317IScheduleCallbackES2_St9_IdentityIS2_ESt4lessIS2_ESaIS2_EE8_M_eraseEPSt13_Rb_tree_nodeIS2_E
	.syntax unified
	.arm
	.fpu vfp
	.type	_ZNSt8_Rb_treeIPN8opendnp317IScheduleCallbackES2_St9_IdentityIS2_ESt4lessIS2_ESaIS2_EE8_M_eraseEPSt13_Rb_tree_nodeIS2_E, %function
_ZNSt8_Rb_treeIPN8opendnp317IScheduleCallbackES2_St9_IdentityIS2_ESt4lessIS2_ESaIS2_EE8_M_eraseEPSt13_Rb_tree_nodeIS2_E:
	.fnstart
.LFB8768:
	@ args = 0, pretend = 0, frame = 16
	@ frame_needed = 0, uses_anonymous_args = 0
	push	{r4, r5, r6, r7, r8, r9, r10, fp, lr}
	sub	sp, sp, #20
	subs	r3, r1, #0
	str	r3, [sp, #12]
	beq	.L1790
	mov	r4, r0
.L1794:
	ldr	r7, [r3, #12]
	cmp	r7, #0
	strne	r7, [sp, #4]
	movne	r3, r7
	beq	.L1796
.L1797:
	ldr	r8, [r3, #12]
	cmp	r8, #0
	strne	r8, [sp, #8]
	movne	r3, r8
	beq	.L1799
.L1800:
	ldr	r9, [r3, #12]
	cmp	r9, #0
	beq	.L1802
.L1803:
	ldr	r10, [r9, #12]
	cmp	r10, #0
	beq	.L1805
.L1806:
	ldr	fp, [r10, #12]
	cmp	fp, #0
	beq	.L1808
.L1809:
	ldr	r6, [fp, #12]
	cmp	r6, #0
	beq	.L1811
.L1812:
	ldr	r5, [r6, #12]
	cmp	r5, #0
	beq	.L1814
.L1815:
	ldr	r3, [r5, #12]
	cmp	r3, #0
	movne	r7, r3
	beq	.L1816
.L1817:
	ldr	r1, [r7, #12]
	mov	r0, r4
	bl	_ZNSt8_Rb_treeIPN8opendnp317IScheduleCallbackES2_St9_IdentityIS2_ESt4lessIS2_ESaIS2_EE8_M_eraseEPSt13_Rb_tree_nodeIS2_E(PLT)
	ldr	r8, [r7, #8]
	mov	r0, r7
	bl	_ZdlPv(PLT)
	subs	r7, r8, #0
	bne	.L1817
.L1816:
	ldr	r7, [r5, #8]
	mov	r0, r5
	bl	_ZdlPv(PLT)
	subs	r5, r7, #0
	bne	.L1815
.L1814:
	ldr	r5, [r6, #8]
	mov	r0, r6
	bl	_ZdlPv(PLT)
	subs	r6, r5, #0
	bne	.L1812
.L1811:
	ldr	r5, [fp, #8]
	mov	r0, fp
	bl	_ZdlPv(PLT)
	subs	fp, r5, #0
	bne	.L1809
.L1808:
	ldr	r5, [r10, #8]
	mov	r0, r10
	bl	_ZdlPv(PLT)
	subs	r10, r5, #0
	bne	.L1806
.L1805:
	ldr	r5, [r9, #8]
	mov	r0, r9
	bl	_ZdlPv(PLT)
	subs	r9, r5, #0
	bne	.L1803
	ldr	r3, [sp, #8]
.L1802:
	ldr	r5, [r3, #8]
	mov	r0, r3
	bl	_ZdlPv(PLT)
	subs	r3, r5, #0
	str	r3, [sp, #8]
	bne	.L1800
	ldr	r3, [sp, #4]
.L1799:
	ldr	r5, [r3, #8]
	mov	r0, r3
	bl	_ZdlPv(PLT)
	subs	r3, r5, #0
	str	r3, [sp, #4]
	bne	.L1797
	ldr	r3, [sp, #12]
.L1796:
	ldr	r5, [r3, #8]
	mov	r0, r3
	bl	_ZdlPv(PLT)
	subs	r3, r5, #0
	str	r3, [sp, #12]
	bne	.L1794
.L1790:
	add	sp, sp, #20
	@ sp needed
	pop	{r4, r5, r6, r7, r8, r9, r10, fp, pc}
	.cantunwind
	.fnend
	.size	_ZNSt8_Rb_treeIPN8opendnp317IScheduleCallbackES2_St9_IdentityIS2_ESt4lessIS2_ESaIS2_EE8_M_eraseEPSt13_Rb_tree_nodeIS2_E, .-_ZNSt8_Rb_treeIPN8opendnp317IScheduleCallbackES2_St9_IdentityIS2_ESt4lessIS2_ESaIS2_EE8_M_eraseEPSt13_Rb_tree_nodeIS2_E
	.section	.text._ZN8asiodnp39IOHandlerD2Ev,"axG",%progbits,_ZN8asiodnp39IOHandlerD5Ev,comdat
	.align	2
	.weak	_ZN8asiodnp39IOHandlerD2Ev
	.syntax unified
	.arm
	.fpu vfp
	.type	_ZN8asiodnp39IOHandlerD2Ev, %function
_ZN8asiodnp39IOHandlerD2Ev:
	.fnstart
.LFB7390:
	@ args = 0, pretend = 0, frame = 24
	@ frame_needed = 0, uses_anonymous_args = 0
	push	{r4, r5, r6, r7, r8, r9, r10, fp, lr}
	mov	r9, r0
	ldr	fp, .L2038
	ldr	r3, .L2038+4
.LPIC113:
	add	fp, pc, fp
	ldr	r1, .L2038+8
	ldr	r3, [fp, r3]
	ldr	r0, [r0, #536]
	add	ip, r3, #8
	add	r3, r3, #52
	str	ip, [r9]
	str	r3, [r9, #4]
	ldr	r3, [fp, r1]
	cmp	r0, #0
	add	r3, r3, #8
	sub	sp, sp, #28
	str	r3, [r9, #504]
	beq	.L1847
	ldr	r5, [r9, #572]
	ldr	r4, [r9, #556]
	add	r5, r5, #4
	cmp	r4, r5
	bcs	.L1848
.L1849:
	ldr	r0, [r4], #4
	bl	_ZdlPv(PLT)
	cmp	r5, r4
	bhi	.L1849
	ldr	r0, [r9, #536]
.L1848:
	bl	_ZdlPv(PLT)
.L1847:
	ldr	r1, [r9, #520]
	add	r0, r9, #512
	bl	_ZNSt8_Rb_treeIPN8opendnp317IScheduleCallbackES2_St9_IdentityIS2_ESt4lessIS2_ESaIS2_EE8_M_eraseEPSt13_Rb_tree_nodeIS2_E(PLT)
	ldr	r4, [r9, #500]
	cmp	r4, #0
	beq	.L1851
	ldr	r3, .L2038+12
	ldr	r3, [fp, r3]
	cmp	r3, #0
	beq	.L1852
	add	r3, r4, #28
	mcr	p15, 0, r0, c7, c10, 5
.L1990:
	ldrex	r1, [r3]
	sub	r2, r1, #1
	strex	r0, r2, [r3]
	cmp	r0, #0
	bne	.L1990
	cmp	r1, #1
	mcr	p15, 0, r0, c7, c10, 5
	beq	.L2015
.L1851:
	ldr	r4, [r9, #132]
	cmp	r4, #0
	beq	.L1857
	ldr	r3, .L2038+12
	ldr	r3, [fp, r3]
	cmp	r3, #0
	beq	.L1858
	add	r3, r4, #28
	mcr	p15, 0, r0, c7, c10, 5
.L1989:
	ldrex	r1, [r3]
	sub	r2, r1, #1
	strex	r0, r2, [r3]
	cmp	r0, #0
	bne	.L1989
	cmp	r1, #1
	mcr	p15, 0, r0, c7, c10, 5
	beq	.L2016
.L1857:
	ldr	r4, [r9, #124]
	cmp	r4, #0
	beq	.L1863
	ldr	r3, .L2038+12
	ldr	r3, [fp, r3]
	cmp	r3, #0
	beq	.L1864
	add	r3, r4, #28
	mcr	p15, 0, r0, c7, c10, 5
.L1988:
	ldrex	r1, [r3]
	sub	r2, r1, #1
	strex	r0, r2, [r3]
	cmp	r0, #0
	bne	.L1988
	cmp	r1, #1
	mcr	p15, 0, r0, c7, c10, 5
	beq	.L2017
.L1863:
	ldr	r3, [r9, #100]
	ldr	r2, [r9, #116]
	add	r8, r3, #4
	str	r3, [sp, #16]
	ldr	r3, [r9, #96]
	ldr	r6, [r9, #88]
	str	r3, [sp, #12]
	ldr	r3, [r9, #104]
	cmp	r2, r8
	strhi	r6, [sp, #20]
	str	r2, [sp, #8]
	str	r3, [sp, #4]
	ldr	r7, [r9, #108]
	movhi	r10, r2
	movhi	r6, fp
	bls	.L1878
.L1879:
	ldr	r4, [r8], #4
	add	fp, r4, #512
	b	.L1877
.L2020:
	add	r3, r5, #28
	mcr	p15, 0, r0, c7, c10, 5
.L1987:
	ldrex	r2, [r3]
	sub	r1, r2, #1
	strex	r0, r1, [r3]
	cmp	r0, #0
	bne	.L1987
	cmp	r2, #1
	mcr	p15, 0, r0, c7, c10, 5
	beq	.L2018
.L1872:
	add	r4, r4, #16
	cmp	r4, fp
	beq	.L2019
.L1877:
	ldr	r5, [r4, #12]
	cmp	r5, #0
	beq	.L1872
	ldr	r3, .L2038+12
	ldr	r3, [r6, r3]
	cmp	r3, #0
	bne	.L2020
	ldr	r3, [r5, #28]
	cmp	r3, #1
	sub	r3, r3, #1
	str	r3, [r5, #28]
	bne	.L1872
	ldr	r3, [r5]
	mov	r0, r5
	ldr	r3, [r3, #8]
	blx	r3
	mcr	p15, 0, r0, c7, c10, 5
	ldr	r2, [r5, #32]
	sub	r3, r2, #1
	str	r3, [r5, #32]
.L1945:
	cmp	r2, #1
	bne	.L1872
	ldr	r3, [r5]
	mov	r0, r5
	add	r4, r4, #16
	ldr	r3, [r3, #12]
	blx	r3
	cmp	r4, fp
	bne	.L1877
.L2019:
	cmp	r10, r8
	bhi	.L1879
	mov	fp, r6
	ldr	r2, [sp, #8]
	ldr	r6, [sp, #20]
.L1878:
	ldr	r3, [sp, #16]
	cmp	r3, r2
	beq	.L2021
	ldr	r3, [sp, #12]
	cmp	r6, r3
	movne	r5, r3
	bne	.L1893
	b	.L1892
.L2023:
	add	r3, r4, #28
	mcr	p15, 0, r0, c7, c10, 5
.L1986:
	ldrex	r2, [r3]
	sub	r1, r2, #1
	strex	r0, r1, [r3]
	cmp	r0, #0
	bne	.L1986
	cmp	r2, #1
	mcr	p15, 0, r0, c7, c10, 5
	beq	.L2022
.L1887:
	add	r6, r6, #16
	cmp	r5, r6
	beq	.L1892
.L1893:
	ldr	r4, [r6, #12]
	cmp	r4, #0
	beq	.L1887
	ldr	r3, .L2038+12
	ldr	r3, [fp, r3]
	cmp	r3, #0
	bne	.L2023
	ldr	r3, [r4, #28]
	cmp	r3, #1
	sub	r3, r3, #1
	str	r3, [r4, #28]
	bne	.L1887
	ldr	r3, [r4]
	mov	r0, r4
	ldr	r3, [r3, #8]
	blx	r3
	mcr	p15, 0, r0, c7, c10, 5
	ldr	r2, [r4, #32]
	sub	r3, r2, #1
	cmp	r2, #1
	str	r3, [r4, #32]
	bne	.L1887
	ldr	r3, [r4]
	mov	r0, r4
	ldr	r3, [r3, #12]
	blx	r3
.L2035:
	add	r6, r6, #16
	cmp	r5, r6
	bne	.L1893
.L1892:
	ldr	r3, [sp, #4]
	cmp	r3, r7
	movne	r5, r3
	bne	.L1900
	b	.L1884
.L2025:
	add	r3, r4, #28
	mcr	p15, 0, r0, c7, c10, 5
.L1985:
	ldrex	r2, [r3]
	sub	r1, r2, #1
	strex	r0, r1, [r3]
	cmp	r0, #0
	bne	.L1985
	cmp	r2, #1
	mcr	p15, 0, r0, c7, c10, 5
	beq	.L2024
.L1895:
	add	r7, r7, #16
	cmp	r5, r7
	beq	.L1884
.L1900:
	ldr	r4, [r7, #12]
	cmp	r4, #0
	beq	.L1895
	ldr	r3, .L2038+12
	ldr	r3, [fp, r3]
	cmp	r3, #0
	bne	.L2025
	ldr	r3, [r4, #28]
	cmp	r3, #1
	sub	r3, r3, #1
	str	r3, [r4, #28]
	bne	.L1895
	ldr	r3, [r4]
	mov	r0, r4
	ldr	r3, [r3, #8]
	blx	r3
	mcr	p15, 0, r0, c7, c10, 5
	ldr	r2, [r4, #32]
	sub	r3, r2, #1
	cmp	r2, #1
	str	r3, [r4, #32]
	bne	.L1895
	ldr	r3, [r4]
	mov	r0, r4
	ldr	r3, [r3, #12]
	blx	r3
.L2034:
	add	r7, r7, #16
	cmp	r5, r7
	bne	.L1900
.L1884:
	ldr	r0, [r9, #80]
	cmp	r0, #0
	beq	.L1882
	ldr	r5, [r9, #116]
	ldr	r4, [r9, #100]
	add	r5, r5, #4
	cmp	r4, r5
	bcs	.L1908
.L1909:
	ldr	r0, [r4], #4
	bl	_ZdlPv(PLT)
	cmp	r5, r4
	bhi	.L1909
	ldr	r0, [r9, #80]
.L1908:
	bl	_ZdlPv(PLT)
.L1882:
	ldr	r4, [r9, #68]
	ldr	r6, [r9, #72]
	cmp	r4, r6
	bne	.L1917
	b	.L1910
.L2028:
	add	r3, r5, #28
	mcr	p15, 0, r0, c7, c10, 5
.L1983:
	ldrex	r2, [r3]
	sub	r1, r2, #1
	strex	r0, r1, [r3]
	cmp	r0, #0
	bne	.L1983
	cmp	r2, #1
	mcr	p15, 0, r0, c7, c10, 5
	beq	.L2026
.L1912:
	add	r4, r4, #16
	cmp	r6, r4
	beq	.L2027
.L1917:
	ldr	r5, [r4, #12]
	cmp	r5, #0
	beq	.L1912
	ldr	r3, .L2038+12
	ldr	r3, [fp, r3]
	cmp	r3, #0
	bne	.L2028
	ldr	r3, [r5, #28]
	cmp	r3, #1
	sub	r3, r3, #1
	str	r3, [r5, #28]
	bne	.L1912
	ldr	r3, [r5]
	mov	r0, r5
	ldr	r3, [r3, #8]
	blx	r3
	mcr	p15, 0, r0, c7, c10, 5
	ldr	r3, [r5, #32]
	sub	r2, r3, #1
	cmp	r3, #1
	str	r2, [r5, #32]
	bne	.L1912
	ldr	r3, [r5]
	mov	r0, r5
	ldr	r3, [r3, #12]
	blx	r3
.L2033:
	add	r4, r4, #16
	cmp	r6, r4
	bne	.L1917
.L2027:
	ldr	r6, [r9, #68]
.L1910:
	cmp	r6, #0
	beq	.L1918
	mov	r0, r6
	bl	_ZdlPv(PLT)
.L1918:
	ldr	r4, [r9, #36]
	cmp	r4, #0
	beq	.L1920
	ldr	r3, .L2038+12
	ldr	r3, [fp, r3]
	cmp	r3, #0
	beq	.L1921
	add	r3, r4, #28
	mcr	p15, 0, r0, c7, c10, 5
.L1982:
	ldrex	r1, [r3]
	sub	r2, r1, #1
	strex	r0, r2, [r3]
	cmp	r0, #0
	bne	.L1982
	cmp	r1, #1
	mcr	p15, 0, r0, c7, c10, 5
	beq	.L2029
.L1920:
	ldr	r4, [r9, #28]
	cmp	r4, #0
	beq	.L1926
	ldr	r3, .L2038+12
	ldr	r3, [fp, r3]
	cmp	r3, #0
	beq	.L1927
	add	r3, r4, #28
	mcr	p15, 0, r0, c7, c10, 5
.L1981:
	ldrex	r1, [r3]
	sub	r2, r1, #1
	strex	r0, r2, [r3]
	cmp	r0, #0
	bne	.L1981
	cmp	r1, #1
	mcr	p15, 0, r0, c7, c10, 5
	beq	.L2030
.L1926:
	ldr	r4, [r9, #20]
	cmp	r4, #0
	beq	.L1932
	ldr	r3, .L2038+12
	ldr	r3, [fp, r3]
	cmp	r3, #0
	beq	.L1933
	add	r3, r4, #28
	mcr	p15, 0, r0, c7, c10, 5
.L1980:
	ldrex	r1, [r3]
	sub	r2, r1, #1
	strex	r0, r2, [r3]
	cmp	r0, #0
	bne	.L1980
	cmp	r1, #1
	mcr	p15, 0, r0, c7, c10, 5
	beq	.L2031
.L1932:
	ldr	r0, [r9, #12]
	cmp	r0, #0
	beq	.L1955
	ldr	r3, .L2038+12
	ldr	r3, [fp, r3]
	cmp	r3, #0
	beq	.L1939
	add	r2, r0, #32
	mcr	p15, 0, r0, c7, c10, 5
.L1979:
	ldrex	r3, [r2]
	sub	r1, r3, #1
	strex	ip, r1, [r2]
	cmp	ip, #0
	bne	.L1979
	cmp	r3, #1
	mcr	p15, 0, r0, c7, c10, 5
	beq	.L2032
.L1955:
	mov	r0, r9
	add	sp, sp, #28
	@ sp needed
	pop	{r4, r5, r6, r7, r8, r9, r10, fp, pc}
.L2018:
	ldr	r3, [r5]
	mov	r0, r5
	ldr	r3, [r3, #8]
	blx	r3
	add	r3, r5, #32
	mcr	p15, 0, r0, c7, c10, 5
	mcr	p15, 0, r0, c7, c10, 5
.L1975:
	ldrex	r2, [r3]
	sub	r1, r2, #1
	strex	r0, r1, [r3]
	cmp	r0, #0
	bne	.L1975
	mcr	p15, 0, r0, c7, c10, 5
	b	.L1945
.L2026:
	ldr	r3, [r5]
	mov	r0, r5
	ldr	r3, [r3, #8]
	blx	r3
	add	r2, r5, #32
	mcr	p15, 0, r0, c7, c10, 5
	mcr	p15, 0, r0, c7, c10, 5
.L1971:
	ldrex	r3, [r2]
	sub	r1, r3, #1
	strex	r0, r1, [r2]
	cmp	r0, #0
	bne	.L1971
	cmp	r3, #1
	mcr	p15, 0, r0, c7, c10, 5
	bne	.L1912
	ldr	r3, [r5]
	mov	r0, r5
	ldr	r3, [r3, #12]
	blx	r3
	b	.L2033
.L2024:
	ldr	r3, [r4]
	mov	r0, r4
	ldr	r3, [r3, #8]
	blx	r3
	add	r3, r4, #32
	mcr	p15, 0, r0, c7, c10, 5
	mcr	p15, 0, r0, c7, c10, 5
.L1973:
	ldrex	r2, [r3]
	sub	r1, r2, #1
	strex	r0, r1, [r3]
	cmp	r0, #0
	bne	.L1973
	cmp	r2, #1
	mcr	p15, 0, r0, c7, c10, 5
	bne	.L1895
	ldr	r3, [r4]
	mov	r0, r4
	ldr	r3, [r3, #12]
	blx	r3
	b	.L2034
.L2022:
	ldr	r3, [r4]
	mov	r0, r4
	ldr	r3, [r3, #8]
	blx	r3
	add	r3, r4, #32
	mcr	p15, 0, r0, c7, c10, 5
	mcr	p15, 0, r0, c7, c10, 5
.L1974:
	ldrex	r2, [r3]
	sub	r1, r2, #1
	strex	r0, r1, [r3]
	cmp	r0, #0
	bne	.L1974
	cmp	r2, #1
	mcr	p15, 0, r0, c7, c10, 5
	bne	.L1887
	ldr	r3, [r4]
	mov	r0, r4
	ldr	r3, [r3, #12]
	blx	r3
	b	.L2035
.L1939:
	ldr	r3, [r0, #32]
	sub	r2, r3, #1
	cmp	r3, #1
	str	r2, [r0, #32]
	bne	.L1955
.L2032:
	mcr	p15, 0, r0, c7, c10, 5
	ldr	r3, [r0]
	ldr	r3, [r3, #12]
	blx	r3
	mov	r0, r9
	add	sp, sp, #28
	@ sp needed
	pop	{r4, r5, r6, r7, r8, r9, r10, fp, pc}
.L1933:
	ldr	r3, [r4, #28]
	cmp	r3, #1
	sub	r3, r3, #1
	str	r3, [r4, #28]
	bne	.L1932
	ldr	r3, [r4]
	mov	r0, r4
	ldr	r3, [r3, #8]
	blx	r3
	mcr	p15, 0, r0, c7, c10, 5
	ldr	r3, [r4, #32]
	sub	r1, r3, #1
	str	r1, [r4, #32]
	b	.L1952
.L1864:
	ldr	r3, [r4, #28]
	cmp	r3, #1
	sub	r3, r3, #1
	str	r3, [r4, #28]
	bne	.L1863
	ldr	r3, [r4]
	mov	r0, r4
	ldr	r3, [r3, #8]
	blx	r3
	mcr	p15, 0, r0, c7, c10, 5
	ldr	r3, [r4, #32]
	sub	r1, r3, #1
	str	r1, [r4, #32]
	b	.L1944
.L1921:
	ldr	r3, [r4, #28]
	cmp	r3, #1
	sub	r3, r3, #1
	str	r3, [r4, #28]
	bne	.L1920
	ldr	r3, [r4]
	mov	r0, r4
	ldr	r3, [r3, #8]
	blx	r3
	mcr	p15, 0, r0, c7, c10, 5
	ldr	r3, [r4, #32]
	sub	r1, r3, #1
	str	r1, [r4, #32]
	b	.L1950
.L1927:
	ldr	r3, [r4, #28]
	cmp	r3, #1
	sub	r3, r3, #1
	str	r3, [r4, #28]
	bne	.L1926
	ldr	r3, [r4]
	mov	r0, r4
	ldr	r3, [r3, #8]
	blx	r3
	mcr	p15, 0, r0, c7, c10, 5
	ldr	r3, [r4, #32]
	sub	r1, r3, #1
	str	r1, [r4, #32]
	b	.L1951
.L1858:
	ldr	r3, [r4, #28]
	cmp	r3, #1
	sub	r3, r3, #1
	str	r3, [r4, #28]
	bne	.L1857
	ldr	r3, [r4]
	mov	r0, r4
	ldr	r3, [r3, #8]
	blx	r3
	mcr	p15, 0, r0, c7, c10, 5
	ldr	r3, [r4, #32]
	sub	r1, r3, #1
	str	r1, [r4, #32]
	b	.L1943
.L1852:
	ldr	r3, [r4, #28]
	cmp	r3, #1
	sub	r3, r3, #1
	str	r3, [r4, #28]
	bne	.L1851
	ldr	r3, [r4]
	mov	r0, r4
	ldr	r3, [r3, #8]
	blx	r3
	mcr	p15, 0, r0, c7, c10, 5
	ldr	r3, [r4, #32]
	sub	r1, r3, #1
	str	r1, [r4, #32]
	b	.L1942
.L2017:
	ldr	r3, [r4]
	mov	r0, r4
	ldr	r3, [r3, #8]
	blx	r3
	add	r1, r4, #32
	mcr	p15, 0, r0, c7, c10, 5
	mcr	p15, 0, r0, c7, c10, 5
.L1976:
	ldrex	r3, [r1]
	sub	r2, r3, #1
	strex	r0, r2, [r1]
	cmp	r0, #0
	bne	.L1976
	mcr	p15, 0, r0, c7, c10, 5
.L1944:
	cmp	r3, #1
	bne	.L1863
	ldr	r3, [r4]
	mov	r0, r4
	ldr	r3, [r3, #12]
	blx	r3
	b	.L1863
.L2029:
	ldr	r3, [r4]
	mov	r0, r4
	ldr	r3, [r3, #8]
	blx	r3
	add	r1, r4, #32
	mcr	p15, 0, r0, c7, c10, 5
	mcr	p15, 0, r0, c7, c10, 5
.L1970:
	ldrex	r3, [r1]
	sub	r2, r3, #1
	strex	r0, r2, [r1]
	cmp	r0, #0
	bne	.L1970
	mcr	p15, 0, r0, c7, c10, 5
.L1950:
	cmp	r3, #1
	bne	.L1920
	ldr	r3, [r4]
	mov	r0, r4
	ldr	r3, [r3, #12]
	blx	r3
	b	.L1920
.L2030:
	ldr	r3, [r4]
	mov	r0, r4
	ldr	r3, [r3, #8]
	blx	r3
	add	r1, r4, #32
	mcr	p15, 0, r0, c7, c10, 5
	mcr	p15, 0, r0, c7, c10, 5
.L1969:
	ldrex	r3, [r1]
	sub	r2, r3, #1
	strex	r0, r2, [r1]
	cmp	r0, #0
	bne	.L1969
	mcr	p15, 0, r0, c7, c10, 5
.L1951:
	cmp	r3, #1
	bne	.L1926
	ldr	r3, [r4]
	mov	r0, r4
	ldr	r3, [r3, #12]
	blx	r3
	b	.L1926
.L2031:
	ldr	r3, [r4]
	mov	r0, r4
	ldr	r3, [r3, #8]
	blx	r3
	add	r1, r4, #32
	mcr	p15, 0, r0, c7, c10, 5
	mcr	p15, 0, r0, c7, c10, 5
.L1968:
	ldrex	r3, [r1]
	sub	r2, r3, #1
	strex	r0, r2, [r1]
	cmp	r0, #0
	bne	.L1968
	mcr	p15, 0, r0, c7, c10, 5
.L1952:
	cmp	r3, #1
	bne	.L1932
	ldr	r3, [r4]
	mov	r0, r4
	ldr	r3, [r3, #12]
	blx	r3
	b	.L1932
.L2015:
	ldr	r3, [r4]
	mov	r0, r4
	ldr	r3, [r3, #8]
	blx	r3
	add	r1, r4, #32
	mcr	p15, 0, r0, c7, c10, 5
	mcr	p15, 0, r0, c7, c10, 5
.L1978:
	ldrex	r3, [r1]
	sub	r2, r3, #1
	strex	r0, r2, [r1]
	cmp	r0, #0
	bne	.L1978
	mcr	p15, 0, r0, c7, c10, 5
.L1942:
	cmp	r3, #1
	bne	.L1851
	ldr	r3, [r4]
	mov	r0, r4
	ldr	r3, [r3, #12]
	blx	r3
	b	.L1851
.L2016:
	ldr	r3, [r4]
	mov	r0, r4
	ldr	r3, [r3, #8]
	blx	r3
	add	r1, r4, #32
	mcr	p15, 0, r0, c7, c10, 5
	mcr	p15, 0, r0, c7, c10, 5
.L1977:
	ldrex	r3, [r1]
	sub	r2, r3, #1
	strex	r0, r2, [r1]
	cmp	r0, #0
	bne	.L1977
	mcr	p15, 0, r0, c7, c10, 5
.L1943:
	cmp	r3, #1
	bne	.L1857
	ldr	r3, [r4]
	mov	r0, r4
	ldr	r3, [r3, #12]
	blx	r3
	b	.L1857
.L2021:
	ldr	r3, [sp, #4]
	cmp	r6, r3
	movne	r5, r3
	bne	.L1907
	b	.L1884
.L2037:
	add	r3, r4, #28
	mcr	p15, 0, r0, c7, c10, 5
.L1984:
	ldrex	r2, [r3]
	sub	r1, r2, #1
	strex	r0, r1, [r3]
	cmp	r0, #0
	bne	.L1984
	cmp	r2, #1
	mcr	p15, 0, r0, c7, c10, 5
	beq	.L2036
.L1902:
	add	r6, r6, #16
	cmp	r5, r6
	beq	.L1884
.L1907:
	ldr	r4, [r6, #12]
	cmp	r4, #0
	beq	.L1902
	ldr	r3, .L2038+12
	ldr	r3, [fp, r3]
	cmp	r3, #0
	bne	.L2037
	ldr	r3, [r4, #28]
	cmp	r3, #1
	sub	r3, r3, #1
	str	r3, [r4, #28]
	bne	.L1902
	ldr	r3, [r4]
	mov	r0, r4
	ldr	r3, [r3, #8]
	blx	r3
	mcr	p15, 0, r0, c7, c10, 5
	ldr	r3, [r4, #32]
	sub	r2, r3, #1
	str	r2, [r4, #32]
.L1948:
	cmp	r3, #1
	bne	.L1902
	ldr	r3, [r4]
	mov	r0, r4
	ldr	r3, [r3, #12]
	blx	r3
	b	.L1902
.L2036:
	ldr	r3, [r4]
	mov	r0, r4
	ldr	r3, [r3, #8]
	blx	r3
	add	r2, r4, #32
	mcr	p15, 0, r0, c7, c10, 5
	mcr	p15, 0, r0, c7, c10, 5
.L1972:
	ldrex	r3, [r2]
	sub	r1, r3, #1
	strex	r0, r1, [r2]
	cmp	r0, #0
	bne	.L1972
	mcr	p15, 0, r0, c7, c10, 5
	b	.L1948
.L2039:
	.align	2
.L2038:
	.word	_GLOBAL_OFFSET_TABLE_-(.LPIC113+8)
	.word	_ZTVN8asiodnp39IOHandlerE(GOT)
	.word	_ZTVN8opendnp317MultidropTaskLockE(GOT)
	.word	_ZL28__gthrw___pthread_key_createPjPFvPvE(GOT)
	.cantunwind
	.fnend
	.size	_ZN8asiodnp39IOHandlerD2Ev, .-_ZN8asiodnp39IOHandlerD2Ev
	.set	.LTHUNK0,_ZN8asiodnp39IOHandlerD2Ev
	.align	2
	.weak	_ZThn4_N8asiodnp39IOHandlerD1Ev
	.syntax unified
	.arm
	.fpu vfp
	.type	_ZThn4_N8asiodnp39IOHandlerD1Ev, %function
_ZThn4_N8asiodnp39IOHandlerD1Ev:
	.fnstart
.LFB10379:
	@ args = 0, pretend = 0, frame = 0
	@ frame_needed = 0, uses_anonymous_args = 0
	sub	r0, r0, #4
	b	.LTHUNK0(PLT)
	.cantunwind
	.fnend
	.size	_ZThn4_N8asiodnp39IOHandlerD1Ev, .-_ZThn4_N8asiodnp39IOHandlerD1Ev
	.weak	_ZN8asiodnp39IOHandlerD1Ev
	.set	_ZN8asiodnp39IOHandlerD1Ev,_ZN8asiodnp39IOHandlerD2Ev
	.section	.text._ZN8asiodnp39IOHandlerD0Ev,"axG",%progbits,_ZN8asiodnp39IOHandlerD5Ev,comdat
	.align	2
	.weak	_ZN8asiodnp39IOHandlerD0Ev
	.syntax unified
	.arm
	.fpu vfp
	.type	_ZN8asiodnp39IOHandlerD0Ev, %function
_ZN8asiodnp39IOHandlerD0Ev:
	.fnstart
.LFB7392:
	@ args = 0, pretend = 0, frame = 0
	@ frame_needed = 0, uses_anonymous_args = 0
	push	{r4, lr}
	mov	r4, r0
	bl	_ZN8asiodnp39IOHandlerD1Ev(PLT)
	mov	r0, r4
	mov	r1, #580
	bl	_ZdlPvj(PLT)
	mov	r0, r4
	pop	{r4, pc}
	.cantunwind
	.fnend
	.size	_ZN8asiodnp39IOHandlerD0Ev, .-_ZN8asiodnp39IOHandlerD0Ev
	.set	.LTHUNK1,_ZN8asiodnp39IOHandlerD0Ev
	.align	2
	.weak	_ZThn4_N8asiodnp39IOHandlerD0Ev
	.syntax unified
	.arm
	.fpu vfp
	.type	_ZThn4_N8asiodnp39IOHandlerD0Ev, %function
_ZThn4_N8asiodnp39IOHandlerD0Ev:
	.fnstart
.LFB10380:
	@ args = 0, pretend = 0, frame = 0
	@ frame_needed = 0, uses_anonymous_args = 0
	sub	r0, r0, #4
	b	.LTHUNK1(PLT)
	.cantunwind
	.fnend
	.size	_ZThn4_N8asiodnp39IOHandlerD0Ev, .-_ZThn4_N8asiodnp39IOHandlerD0Ev
	.text
	.align	2
	.global	_ZN8asiodnp318TCPClientIOHandlerC2ERKN7openpal6LoggerERKSt10shared_ptrINS_16IChannelListenerEERKS5_IN7asiopal8ExecutorEERKNSA_12ChannelRetryERKNSA_10IPEndpointERKNSt7__cxx1112basic_stringIcSt11char_traitsIcESaIcEEE
	.syntax unified
	.arm
	.fpu vfp
	.type	_ZN8asiodnp318TCPClientIOHandlerC2ERKN7openpal6LoggerERKSt10shared_ptrINS_16IChannelListenerEERKS5_IN7asiopal8ExecutorEERKNSA_12ChannelRetryERKNSA_10IPEndpointERKNSt7__cxx1112basic_stringIcSt11char_traitsIcESaIcEEE, %function
_ZN8asiodnp318TCPClientIOHandlerC2ERKN7openpal6LoggerERKSt10shared_ptrINS_16IChannelListenerEERKS5_IN7asiopal8ExecutorEERKNSA_12ChannelRetryERKNSA_10IPEndpointERKNSt7__cxx1112basic_stringIcSt11char_traitsIcESaIcEEE:
	.fnstart
.LFB7479:
	@ args = 12, pretend = 0, frame = 8
	@ frame_needed = 0, uses_anonymous_args = 0
	push	{r4, r5, r6, r7, r8, r9, r10, fp, lr}
	.save {r4, r5, r6, r7, r8, r9, r10, fp, lr}
	.pad #12
	sub	sp, sp, #12
	mov	r4, r0
	mov	r6, r3
	ldr	r7, [sp, #52]
	ldr	r8, [sp, #56]
.LEHB34:
	bl	_ZN8asiodnp39IOHandlerC2ERKN7openpal6LoggerERKSt10shared_ptrINS_16IChannelListenerEE(PLT)
.LEHE34:
	ldr	r1, .L2100
	ldr	r2, .L2100+4
.LPIC114:
	add	r1, pc, r1
	ldr	r3, [r6, #4]
	ldr	r2, [r1, r2]
	cmp	r3, #0
	add	r0, r2, #8
	str	r0, [r4]
	ldr	r0, [r6]
	add	r2, r2, #52
	str	r2, [r4, #4]
	str	r0, [r4, #580]
	str	r3, [r4, #584]
	beq	.L2043
	ldr	r2, .L2100+8
	ldr	r2, [r1, r2]
	cmp	r2, #0
	beq	.L2044
	add	r3, r3, #28
	mcr	p15, 0, r0, c7, c10, 5
.L2085:
	ldrex	r2, [r3]
	add	r2, r2, #1
	strex	r1, r2, [r3]
	cmp	r1, #0
	bne	.L2085
	mcr	p15, 0, r0, c7, c10, 5
.L2043:
	ldr	ip, [sp, #48]
	add	lr, r4, #592
	ldr	r5, [r7, #4]
	ldmia	ip!, {r0, r1, r2, r3}
	add	r9, r4, #624
	add	r10, r4, #616
	stmia	lr!, {r0, r1, r2, r3}
	rsb	r3, r5, #0
	ldm	ip, {r0, r1}
	stm	lr, {r0, r1}
	str	r9, [r4, #616]
	ldr	fp, [r7]
	clz	r2, fp
	cmp	fp, r3
	lsr	r2, r2, #5
	moveq	r2, #0
	cmp	r2, #0
	beq	.L2092
	ldr	r0, .L2100+12
.LPIC115:
	add	r0, pc, r0
.LEHB35:
	bl	_ZSt19__throw_logic_errorPKc(PLT)
.LEHE35:
.L2092:
	cmp	r5, #15
	str	r5, [sp]
	bhi	.L2093
	cmp	r5, #1
	beq	.L2094
	cmp	r5, #0
	moveq	r3, r9
	bne	.L2095
.L2049:
	mov	r2, #0
	str	r5, [r4, #620]
	strb	r2, [r3, r5]
	ldrh	r3, [r7, #24]
	ldr	r5, [r8, #4]
	add	r7, r4, #652
	strh	r3, [r10, #24]	@ movhi
	str	r7, [r4, #644]
	ldr	r8, [r8]
	rsb	r3, r5, #0
	cmp	r8, r3
	sub	r2, r8, r2
	clz	r2, r2
	lsr	r2, r2, #5
	moveq	r2, #0
	cmp	r2, #0
	add	r0, r4, #644
	beq	.L2096
	ldr	r0, .L2100+16
.LPIC116:
	add	r0, pc, r0
.LEHB36:
	bl	_ZSt19__throw_logic_errorPKc(PLT)
.LEHE36:
.L2096:
	cmp	r5, #15
	str	r5, [sp, #4]
	bhi	.L2097
	cmp	r5, #1
	beq	.L2098
	cmp	r5, #0
	moveq	r2, r7
	bne	.L2099
.L2054:
	mov	r3, #0
	str	r5, [r4, #648]
	add	r0, r4, #676
	strb	r3, [r2, r5]
	ldr	r1, [r6]
	str	r3, [r4, #668]
	str	r3, [r4, #672]
.LEHB37:
	bl	_ZN7openpal8TimerRefC1ERNS_9IExecutorE(PLT)
.LEHE37:
	mov	r0, r4
	add	sp, sp, #12
	@ sp needed
	pop	{r4, r5, r6, r7, r8, r9, r10, fp, pc}
.L2044:
	ldr	r2, [r3, #28]
	add	r2, r2, #1
	str	r2, [r3, #28]
	b	.L2043
.L2093:
	mov	r1, sp
	mov	r0, r10
.LEHB38:
	bl	_ZNSt7__cxx1112basic_stringIcSt11char_traitsIcESaIcEE9_M_createERjj(PLT)
.LEHE38:
	ldr	r3, [sp]
	str	r0, [r4, #616]
	str	r3, [r4, #624]
.L2047:
	mov	r2, r5
	mov	r1, fp
	bl	memcpy(PLT)
	ldr	r5, [sp]
	ldr	r3, [r4, #616]
	b	.L2049
.L2097:
	add	r1, sp, #4
.LEHB39:
	bl	_ZNSt7__cxx1112basic_stringIcSt11char_traitsIcESaIcEE9_M_createERjj(PLT)
.LEHE39:
	ldr	r3, [sp, #4]
	str	r0, [r4, #644]
	str	r3, [r4, #652]
.L2052:
	mov	r2, r5
	mov	r1, r8
	bl	memcpy(PLT)
	ldr	r5, [sp, #4]
	ldr	r2, [r4, #644]
	b	.L2054
.L2094:
	ldrb	r2, [fp]	@ zero_extendqisi2
	mov	r3, r9
	strb	r2, [r4, #624]
	b	.L2049
.L2098:
	ldrb	r3, [r8]	@ zero_extendqisi2
	mov	r2, r7
	strb	r3, [r4, #652]
	b	.L2054
.L2068:
.L2060:
	ldr	r0, [r4, #584]
	cmp	r0, #0
	beq	.L2061
	bl	_ZNSt16_Sp_counted_baseILN9__gnu_cxx12_Lock_policyE1EE10_M_releaseEv(PLT)
.L2061:
	mov	r0, r4
	bl	_ZN8asiodnp39IOHandlerD2Ev(PLT)
.LEHB40:
	bl	__cxa_end_cleanup(PLT)
.LEHE40:
.L2069:
.L2058:
	ldr	r0, [r4, #616]
	cmp	r9, r0
	beq	.L2060
	bl	_ZdlPv(PLT)
	b	.L2060
.L2095:
	mov	r0, r9
	b	.L2047
.L2099:
	mov	r0, r7
	b	.L2052
.L2070:
	ldr	r0, [r4, #672]
	cmp	r0, #0
	beq	.L2056
	bl	_ZNSt16_Sp_counted_baseILN9__gnu_cxx12_Lock_policyE1EE10_M_releaseEv(PLT)
.L2056:
	ldr	r0, [r4, #644]
	cmp	r7, r0
	beq	.L2058
	bl	_ZdlPv(PLT)
	b	.L2058
.L2101:
	.align	2
.L2100:
	.word	_GLOBAL_OFFSET_TABLE_-(.LPIC114+8)
	.word	_ZTVN8asiodnp318TCPClientIOHandlerE(GOT)
	.word	_ZL28__gthrw___pthread_key_createPjPFvPvE(GOT)
	.word	.LC7-(.LPIC115+8)
	.word	.LC7-(.LPIC116+8)
	.personality	__gxx_personality_v0
	.handlerdata
.LLSDA7479:
	.byte	0xff
	.byte	0xff
	.byte	0x1
	.uleb128 .LLSDACSE7479-.LLSDACSB7479
.LLSDACSB7479:
	.uleb128 .LEHB34-.LFB7479
	.uleb128 .LEHE34-.LEHB34
	.uleb128 0
	.uleb128 0
	.uleb128 .LEHB35-.LFB7479
	.uleb128 .LEHE35-.LEHB35
	.uleb128 .L2068-.LFB7479
	.uleb128 0
	.uleb128 .LEHB36-.LFB7479
	.uleb128 .LEHE36-.LEHB36
	.uleb128 .L2069-.LFB7479
	.uleb128 0
	.uleb128 .LEHB37-.LFB7479
	.uleb128 .LEHE37-.LEHB37
	.uleb128 .L2070-.LFB7479
	.uleb128 0
	.uleb128 .LEHB38-.LFB7479
	.uleb128 .LEHE38-.LEHB38
	.uleb128 .L2068-.LFB7479
	.uleb128 0
	.uleb128 .LEHB39-.LFB7479
	.uleb128 .LEHE39-.LEHB39
	.uleb128 .L2069-.LFB7479
	.uleb128 0
	.uleb128 .LEHB40-.LFB7479
	.uleb128 .LEHE40-.LEHB40
	.uleb128 0
	.uleb128 0
.LLSDACSE7479:
	.text
	.fnend
	.size	_ZN8asiodnp318TCPClientIOHandlerC2ERKN7openpal6LoggerERKSt10shared_ptrINS_16IChannelListenerEERKS5_IN7asiopal8ExecutorEERKNSA_12ChannelRetryERKNSA_10IPEndpointERKNSt7__cxx1112basic_stringIcSt11char_traitsIcESaIcEEE, .-_ZN8asiodnp318TCPClientIOHandlerC2ERKN7openpal6LoggerERKSt10shared_ptrINS_16IChannelListenerEERKS5_IN7asiopal8ExecutorEERKNSA_12ChannelRetryERKNSA_10IPEndpointERKNSt7__cxx1112basic_stringIcSt11char_traitsIcESaIcEEE
	.global	_ZN8asiodnp318TCPClientIOHandlerC1ERKN7openpal6LoggerERKSt10shared_ptrINS_16IChannelListenerEERKS5_IN7asiopal8ExecutorEERKNSA_12ChannelRetryERKNSA_10IPEndpointERKNSt7__cxx1112basic_stringIcSt11char_traitsIcESaIcEEE
	.set	_ZN8asiodnp318TCPClientIOHandlerC1ERKN7openpal6LoggerERKSt10shared_ptrINS_16IChannelListenerEERKS5_IN7asiopal8ExecutorEERKNSA_12ChannelRetryERKNSA_10IPEndpointERKNSt7__cxx1112basic_stringIcSt11char_traitsIcESaIcEEE,_ZN8asiodnp318TCPClientIOHandlerC2ERKN7openpal6LoggerERKSt10shared_ptrINS_16IChannelListenerEERKS5_IN7asiopal8ExecutorEERKNSA_12ChannelRetryERKNSA_10IPEndpointERKNSt7__cxx1112basic_stringIcSt11char_traitsIcESaIcEEE
	.section	.text._ZN8asiodnp318TCPClientIOHandlerD2Ev,"axG",%progbits,_ZN8asiodnp318TCPClientIOHandlerD5Ev,comdat
	.align	2
	.weak	_ZN8asiodnp318TCPClientIOHandlerD2Ev
	.syntax unified
	.arm
	.fpu vfp
	.type	_ZN8asiodnp318TCPClientIOHandlerD2Ev, %function
_ZN8asiodnp318TCPClientIOHandlerD2Ev:
	.fnstart
.LFB9996:
	@ args = 0, pretend = 0, frame = 0
	@ frame_needed = 0, uses_anonymous_args = 0
	push	{r4, r5, r6, lr}
	mov	r4, r0
	ldr	r5, .L2131
	ldr	r3, .L2131+4
.LPIC117:
	add	r5, pc, r5
	add	r0, r0, #676
	ldr	r3, [r5, r3]
	add	r2, r3, #8
	add	r3, r3, #52
	stm	r4, {r2, r3}
	bl	_ZN7openpal8TimerRefD1Ev(PLT)
	ldr	r6, [r4, #672]
	cmp	r6, #0
	beq	.L2104
	ldr	r3, .L2131+8
	ldr	r3, [r5, r3]
	cmp	r3, #0
	beq	.L2105
	add	r3, r6, #28
	mcr	p15, 0, r0, c7, c10, 5
.L2123:
	ldrex	r2, [r3]
	sub	r1, r2, #1
	strex	r0, r1, [r3]
	cmp	r0, #0
	bne	.L2123
	cmp	r2, #1
	mcr	p15, 0, r0, c7, c10, 5
	beq	.L2129
.L2104:
	ldr	r0, [r4, #644]
	add	r3, r4, #652
	cmp	r0, r3
	beq	.L2109
	bl	_ZdlPv(PLT)
.L2109:
	ldr	r0, [r4, #616]
	add	r3, r4, #624
	cmp	r0, r3
	beq	.L2110
	bl	_ZdlPv(PLT)
.L2110:
	ldr	r6, [r4, #584]
	cmp	r6, #0
	beq	.L2112
	ldr	r3, .L2131+8
	ldr	r3, [r5, r3]
	cmp	r3, #0
	beq	.L2113
	add	r3, r6, #28
	mcr	p15, 0, r0, c7, c10, 5
.L2122:
	ldrex	r2, [r3]
	sub	r1, r2, #1
	strex	r0, r1, [r3]
	cmp	r0, #0
	bne	.L2122
	cmp	r2, #1
	mcr	p15, 0, r0, c7, c10, 5
	beq	.L2130
.L2112:
	mov	r0, r4
	bl	_ZN8asiodnp39IOHandlerD2Ev(PLT)
	mov	r0, r4
	pop	{r4, r5, r6, pc}
.L2105:
	ldr	r3, [r6, #28]
	cmp	r3, #1
	sub	r3, r3, #1
	str	r3, [r6, #28]
	bne	.L2104
	ldr	r3, [r6]
	mov	r0, r6
	ldr	r3, [r3, #8]
	blx	r3
	mcr	p15, 0, r0, c7, c10, 5
	ldr	r2, [r6, #32]
	sub	r3, r2, #1
	str	r3, [r6, #32]
	b	.L2117
.L2113:
	ldr	r3, [r6, #28]
	cmp	r3, #1
	sub	r3, r3, #1
	str	r3, [r6, #28]
	bne	.L2112
	ldr	r3, [r6]
	mov	r0, r6
	ldr	r3, [r3, #8]
	blx	r3
	mcr	p15, 0, r0, c7, c10, 5
	ldr	r2, [r6, #32]
	sub	r3, r2, #1
	str	r3, [r6, #32]
	b	.L2118
.L2130:
	ldr	r3, [r6]
	mov	r0, r6
	ldr	r3, [r3, #8]
	blx	r3
	add	r3, r6, #32
	mcr	p15, 0, r0, c7, c10, 5
	mcr	p15, 0, r0, c7, c10, 5
.L2120:
	ldrex	r2, [r3]
	sub	r1, r2, #1
	strex	r0, r1, [r3]
	cmp	r0, #0
	bne	.L2120
	mcr	p15, 0, r0, c7, c10, 5
.L2118:
	cmp	r2, #1
	bne	.L2112
	ldr	r3, [r6]
	mov	r0, r6
	ldr	r3, [r3, #12]
	blx	r3
	b	.L2112
.L2129:
	ldr	r3, [r6]
	mov	r0, r6
	ldr	r3, [r3, #8]
	blx	r3
	add	r3, r6, #32
	mcr	p15, 0, r0, c7, c10, 5
	mcr	p15, 0, r0, c7, c10, 5
.L2121:
	ldrex	r2, [r3]
	sub	r1, r2, #1
	strex	r0, r1, [r3]
	cmp	r0, #0
	bne	.L2121
	mcr	p15, 0, r0, c7, c10, 5
.L2117:
	cmp	r2, #1
	bne	.L2104
	ldr	r3, [r6]
	mov	r0, r6
	ldr	r3, [r3, #12]
	blx	r3
	b	.L2104
.L2132:
	.align	2
.L2131:
	.word	_GLOBAL_OFFSET_TABLE_-(.LPIC117+8)
	.word	_ZTVN8asiodnp318TCPClientIOHandlerE(GOT)
	.word	_ZL28__gthrw___pthread_key_createPjPFvPvE(GOT)
	.cantunwind
	.fnend
	.size	_ZN8asiodnp318TCPClientIOHandlerD2Ev, .-_ZN8asiodnp318TCPClientIOHandlerD2Ev
	.weak	_ZN8asiodnp318TCPClientIOHandlerD1Ev
	.set	_ZN8asiodnp318TCPClientIOHandlerD1Ev,_ZN8asiodnp318TCPClientIOHandlerD2Ev
	.set	.LTHUNK2,_ZN8asiodnp318TCPClientIOHandlerD1Ev
	.align	2
	.weak	_ZThn4_N8asiodnp318TCPClientIOHandlerD1Ev
	.syntax unified
	.arm
	.fpu vfp
	.type	_ZThn4_N8asiodnp318TCPClientIOHandlerD1Ev, %function
_ZThn4_N8asiodnp318TCPClientIOHandlerD1Ev:
	.fnstart
.LFB10382:
	@ args = 0, pretend = 0, frame = 0
	@ frame_needed = 0, uses_anonymous_args = 0
	sub	r0, r0, #4
	b	.LTHUNK2(PLT)
	.cantunwind
	.fnend
	.size	_ZThn4_N8asiodnp318TCPClientIOHandlerD1Ev, .-_ZThn4_N8asiodnp318TCPClientIOHandlerD1Ev
	.section	.text._ZN8asiodnp318TCPClientIOHandlerD0Ev,"axG",%progbits,_ZN8asiodnp318TCPClientIOHandlerD5Ev,comdat
	.align	2
	.weak	_ZN8asiodnp318TCPClientIOHandlerD0Ev
	.syntax unified
	.arm
	.fpu vfp
	.type	_ZN8asiodnp318TCPClientIOHandlerD0Ev, %function
_ZN8asiodnp318TCPClientIOHandlerD0Ev:
	.fnstart
.LFB9998:
	@ args = 0, pretend = 0, frame = 0
	@ frame_needed = 0, uses_anonymous_args = 0
	push	{r4, r5, r6, lr}
	mov	r4, r0
	ldr	r5, .L2162
	ldr	r3, .L2162+4
.LPIC118:
	add	r5, pc, r5
	add	r0, r0, #676
	ldr	r3, [r5, r3]
	add	r2, r3, #8
	add	r3, r3, #52
	stm	r4, {r2, r3}
	bl	_ZN7openpal8TimerRefD1Ev(PLT)
	ldr	r6, [r4, #672]
	cmp	r6, #0
	beq	.L2135
	ldr	r3, .L2162+8
	ldr	r3, [r5, r3]
	cmp	r3, #0
	beq	.L2136
	add	r3, r6, #28
	mcr	p15, 0, r0, c7, c10, 5
.L2154:
	ldrex	r2, [r3]
	sub	r1, r2, #1
	strex	r0, r1, [r3]
	cmp	r0, #0
	bne	.L2154
	cmp	r2, #1
	mcr	p15, 0, r0, c7, c10, 5
	beq	.L2160
.L2135:
	ldr	r0, [r4, #644]
	add	r3, r4, #652
	cmp	r0, r3
	beq	.L2140
	bl	_ZdlPv(PLT)
.L2140:
	ldr	r0, [r4, #616]
	add	r3, r4, #624
	cmp	r0, r3
	beq	.L2141
	bl	_ZdlPv(PLT)
.L2141:
	ldr	r6, [r4, #584]
	cmp	r6, #0
	beq	.L2143
	ldr	r3, .L2162+8
	ldr	r3, [r5, r3]
	cmp	r3, #0
	beq	.L2144
	add	r3, r6, #28
	mcr	p15, 0, r0, c7, c10, 5
.L2153:
	ldrex	r2, [r3]
	sub	r1, r2, #1
	strex	r0, r1, [r3]
	cmp	r0, #0
	bne	.L2153
	cmp	r2, #1
	mcr	p15, 0, r0, c7, c10, 5
	beq	.L2161
.L2143:
	mov	r0, r4
	bl	_ZN8asiodnp39IOHandlerD2Ev(PLT)
	mov	r0, r4
	mov	r1, #688
	bl	_ZdlPvj(PLT)
	mov	r0, r4
	pop	{r4, r5, r6, pc}
.L2136:
	ldr	r3, [r6, #28]
	cmp	r3, #1
	sub	r3, r3, #1
	str	r3, [r6, #28]
	bne	.L2135
	ldr	r3, [r6]
	mov	r0, r6
	ldr	r3, [r3, #8]
	blx	r3
	mcr	p15, 0, r0, c7, c10, 5
	ldr	r2, [r6, #32]
	sub	r3, r2, #1
	str	r3, [r6, #32]
	b	.L2148
.L2144:
	ldr	r3, [r6, #28]
	cmp	r3, #1
	sub	r3, r3, #1
	str	r3, [r6, #28]
	bne	.L2143
	ldr	r3, [r6]
	mov	r0, r6
	ldr	r3, [r3, #8]
	blx	r3
	mcr	p15, 0, r0, c7, c10, 5
	ldr	r2, [r6, #32]
	sub	r3, r2, #1
	str	r3, [r6, #32]
	b	.L2149
.L2161:
	ldr	r3, [r6]
	mov	r0, r6
	ldr	r3, [r3, #8]
	blx	r3
	add	r3, r6, #32
	mcr	p15, 0, r0, c7, c10, 5
	mcr	p15, 0, r0, c7, c10, 5
.L2151:
	ldrex	r2, [r3]
	sub	r1, r2, #1
	strex	r0, r1, [r3]
	cmp	r0, #0
	bne	.L2151
	mcr	p15, 0, r0, c7, c10, 5
.L2149:
	cmp	r2, #1
	bne	.L2143
	ldr	r3, [r6]
	mov	r0, r6
	ldr	r3, [r3, #12]
	blx	r3
	b	.L2143
.L2160:
	ldr	r3, [r6]
	mov	r0, r6
	ldr	r3, [r3, #8]
	blx	r3
	add	r3, r6, #32
	mcr	p15, 0, r0, c7, c10, 5
	mcr	p15, 0, r0, c7, c10, 5
.L2152:
	ldrex	r2, [r3]
	sub	r1, r2, #1
	strex	r0, r1, [r3]
	cmp	r0, #0
	bne	.L2152
	mcr	p15, 0, r0, c7, c10, 5
.L2148:
	cmp	r2, #1
	bne	.L2135
	ldr	r3, [r6]
	mov	r0, r6
	ldr	r3, [r3, #12]
	blx	r3
	b	.L2135
.L2163:
	.align	2
.L2162:
	.word	_GLOBAL_OFFSET_TABLE_-(.LPIC118+8)
	.word	_ZTVN8asiodnp318TCPClientIOHandlerE(GOT)
	.word	_ZL28__gthrw___pthread_key_createPjPFvPvE(GOT)
	.cantunwind
	.fnend
	.size	_ZN8asiodnp318TCPClientIOHandlerD0Ev, .-_ZN8asiodnp318TCPClientIOHandlerD0Ev
	.set	.LTHUNK3,_ZN8asiodnp318TCPClientIOHandlerD0Ev
	.align	2
	.weak	_ZThn4_N8asiodnp318TCPClientIOHandlerD0Ev
	.syntax unified
	.arm
	.fpu vfp
	.type	_ZThn4_N8asiodnp318TCPClientIOHandlerD0Ev, %function
_ZThn4_N8asiodnp318TCPClientIOHandlerD0Ev:
	.fnstart
.LFB10383:
	@ args = 0, pretend = 0, frame = 0
	@ frame_needed = 0, uses_anonymous_args = 0
	sub	r0, r0, #4
	b	.LTHUNK3(PLT)
	.cantunwind
	.fnend
	.size	_ZThn4_N8asiodnp318TCPClientIOHandlerD0Ev, .-_ZThn4_N8asiodnp318TCPClientIOHandlerD0Ev
	.section	.text.startup,"ax",%progbits
	.align	2
	.syntax unified
	.arm
	.fpu vfp
	.type	_GLOBAL__sub_I_TCPClientIOHandler.cpp, %function
_GLOBAL__sub_I_TCPClientIOHandler.cpp:
	.fnstart
.LFB10224:
	@ args = 0, pretend = 0, frame = 0
	@ frame_needed = 0, uses_anonymous_args = 0
	push	{r4, r5, r6, lr}
	bl	_ZN4asio15system_categoryEv(PLT)
	ldr	r4, .L2196
	ldr	r3, .L2196+4
.LPIC119:
	add	r4, pc, r4
	ldr	r5, [r4, r3]
	ldrb	r3, [r5]	@ zero_extendqisi2
	mcr	p15, 0, r0, c7, c10, 5
	tst	r3, #1
	beq	.L2189
.L2166:
	ldr	r3, .L2196+8
	ldr	r5, [r4, r3]
	ldrb	r3, [r5]	@ zero_extendqisi2
	mcr	p15, 0, r0, c7, c10, 5
	tst	r3, #1
	beq	.L2190
.L2169:
	ldr	r3, .L2196+12
	ldr	r5, [r4, r3]
	ldrb	r3, [r5]	@ zero_extendqisi2
	mcr	p15, 0, r0, c7, c10, 5
	tst	r3, #1
	beq	.L2191
.L2172:
	ldr	r3, .L2196+16
	ldr	r3, [r4, r3]
	ldr	r2, [r3]
	tst	r2, #1
	beq	.L2192
.L2174:
	ldr	r3, .L2196+20
	ldr	r3, [r4, r3]
	ldr	r2, [r3]
	tst	r2, #1
	beq	.L2193
.L2175:
	ldr	r3, .L2196+24
	ldr	r3, [r4, r3]
	ldr	r2, [r3]
	tst	r2, #1
	beq	.L2194
.L2176:
	ldr	r3, .L2196+28
	ldr	r3, [r4, r3]
	ldr	r2, [r3]
	tst	r2, #1
	beq	.L2195
.L2177:
	ldr	r3, .L2196+32
	ldr	r3, [r4, r3]
	ldr	r2, [r3]
	tst	r2, #1
	popne	{r4, r5, r6, pc}
	ldr	r2, .L2196+36
	mov	r0, #1
	ldr	r1, .L2196+40
	str	r0, [r3]
	ldr	r0, [r4, r2]
	ldr	r2, .L2196+44
	ldr	r1, [r4, r1]
.LPIC127:
	add	r2, pc, r2
	pop	{r4, r5, r6, lr}
	b	__aeabi_atexit(PLT)
.L2191:
	mov	r0, r5
	bl	__cxa_guard_acquire(PLT)
	cmp	r0, #0
	beq	.L2172
	mov	r0, r5
	bl	__cxa_guard_release(PLT)
	ldr	r3, .L2196+48
	ldr	r1, .L2196+52
	ldr	r2, .L2196+56
	ldr	r0, [r4, r3]
.LPIC122:
	add	r2, pc, r2
	ldr	r1, [r4, r1]
	bl	__aeabi_atexit(PLT)
	b	.L2172
.L2190:
	mov	r0, r5
	bl	__cxa_guard_acquire(PLT)
	cmp	r0, #0
	beq	.L2169
	mov	r0, r5
	bl	__cxa_guard_release(PLT)
	ldr	r3, .L2196+60
	ldr	r1, .L2196+64
	ldr	r2, .L2196+68
	ldr	r0, [r4, r3]
.LPIC121:
	add	r2, pc, r2
	ldr	r1, [r4, r1]
	bl	__aeabi_atexit(PLT)
	b	.L2169
.L2189:
	mov	r0, r5
	bl	__cxa_guard_acquire(PLT)
	cmp	r0, #0
	beq	.L2166
	mov	r0, r5
	bl	__cxa_guard_release(PLT)
	ldr	r3, .L2196+72
	ldr	r1, .L2196+76
	ldr	r2, .L2196+80
	ldr	r0, [r4, r3]
.LPIC120:
	add	r2, pc, r2
	ldr	r1, [r4, r1]
	bl	__aeabi_atexit(PLT)
	b	.L2166
.L2194:
	ldr	r2, .L2196+84
	mov	r0, #1
	ldr	r1, .L2196+88
	str	r0, [r3]
	ldr	r0, [r4, r2]
	ldr	r2, .L2196+92
	ldr	r1, [r4, r1]
.LPIC125:
	add	r2, pc, r2
	bl	__aeabi_atexit(PLT)
	b	.L2176
.L2193:
	ldr	r2, .L2196+96
	mov	r0, #1
	ldr	r1, .L2196+100
	str	r0, [r3]
	ldr	r0, [r4, r2]
	ldr	r2, .L2196+104
	ldr	r1, [r4, r1]
.LPIC124:
	add	r2, pc, r2
	bl	__aeabi_atexit(PLT)
	b	.L2175
.L2195:
	ldr	r2, .L2196+108
	mov	r1, #1
	str	r1, [r3]
	ldr	r5, [r4, r2]
	mov	r0, r5
	bl	_ZN4asio6detail20posix_tss_ptr_createERj(PLT)
	ldr	r3, .L2196+112
	ldr	r2, .L2196+116
	mov	r0, r5
.LPIC126:
	add	r2, pc, r2
	ldr	r1, [r4, r3]
	bl	__aeabi_atexit(PLT)
	b	.L2177
.L2192:
	ldr	r2, .L2196+120
	mov	r1, #1
	str	r1, [r3]
	ldr	r5, [r4, r2]
	mov	r0, r5
	bl	_ZN4asio6detail20posix_tss_ptr_createERj(PLT)
	ldr	r3, .L2196+124
	ldr	r2, .L2196+128
	mov	r0, r5
.LPIC123:
	add	r2, pc, r2
	ldr	r1, [r4, r3]
	bl	__aeabi_atexit(PLT)
	b	.L2174
.L2197:
	.align	2
.L2196:
	.word	_GLOBAL_OFFSET_TABLE_-(.LPIC119+8)
	.word	_ZGVZN4asio5error18get_netdb_categoryEvE8instance(GOT)
	.word	_ZGVZN4asio5error21get_addrinfo_categoryEvE8instance(GOT)
	.word	_ZGVZN4asio5error17get_misc_categoryEvE8instance(GOT)
	.word	_ZGVN4asio6detail10call_stackINS0_15task_io_serviceENS0_27task_io_service_thread_infoEE4top_E(GOT)
	.word	_ZGVN4asio6detail12service_baseINS0_13epoll_reactorEE2idE(GOT)
	.word	_ZGVN4asio6detail12service_baseINS0_15task_io_serviceEE2idE(GOT)
	.word	_ZGVN4asio6detail10call_stackINS0_14strand_service11strand_implEhE4top_E(GOT)
	.word	_ZGVN4asio6detail12service_baseINS0_14strand_serviceEE2idE(GOT)
	.word	_ZN4asio6detail12service_baseINS0_14strand_serviceEE2idE(GOT)
	.word	_ZN4asio6detail10service_idINS0_14strand_serviceEED1Ev(GOT)
	.word	__dso_handle-(.LPIC127+8)
	.word	_ZZN4asio5error17get_misc_categoryEvE8instance(GOT)
	.word	_ZN4asio5error6detail13misc_categoryD1Ev(GOT)
	.word	__dso_handle-(.LPIC122+8)
	.word	_ZZN4asio5error21get_addrinfo_categoryEvE8instance(GOT)
	.word	_ZN4asio5error6detail17addrinfo_categoryD1Ev(GOT)
	.word	__dso_handle-(.LPIC121+8)
	.word	_ZZN4asio5error18get_netdb_categoryEvE8instance(GOT)
	.word	_ZN4asio5error6detail14netdb_categoryD1Ev(GOT)
	.word	__dso_handle-(.LPIC120+8)
	.word	_ZN4asio6detail12service_baseINS0_15task_io_serviceEE2idE(GOT)
	.word	_ZN4asio6detail10service_idINS0_15task_io_serviceEED1Ev(GOT)
	.word	__dso_handle-(.LPIC125+8)
	.word	_ZN4asio6detail12service_baseINS0_13epoll_reactorEE2idE(GOT)
	.word	_ZN4asio6detail10service_idINS0_13epoll_reactorEED1Ev(GOT)
	.word	__dso_handle-(.LPIC124+8)
	.word	_ZN4asio6detail10call_stackINS0_14strand_service11strand_implEhE4top_E(GOT)
	.word	_ZN4asio6detail7tss_ptrINS0_10call_stackINS0_14strand_service11strand_implEhE7contextEED1Ev(GOT)
	.word	__dso_handle-(.LPIC126+8)
	.word	_ZN4asio6detail10call_stackINS0_15task_io_serviceENS0_27task_io_service_thread_infoEE4top_E(GOT)
	.word	_ZN4asio6detail7tss_ptrINS0_10call_stackINS0_15task_io_serviceENS0_27task_io_service_thread_infoEE7contextEED1Ev(GOT)
	.word	__dso_handle-(.LPIC123+8)
	.cantunwind
	.fnend
	.size	_GLOBAL__sub_I_TCPClientIOHandler.cpp, .-_GLOBAL__sub_I_TCPClientIOHandler.cpp
	.section	.init_array,"aw"
	.align	2
	.word	_GLOBAL__sub_I_TCPClientIOHandler.cpp
	.weak	_ZTSN9__gnu_cxx7__mutexE
	.section	.rodata._ZTSN9__gnu_cxx7__mutexE,"aG",%progbits,_ZTSN9__gnu_cxx7__mutexE,comdat
	.align	2
	.type	_ZTSN9__gnu_cxx7__mutexE, %object
	.size	_ZTSN9__gnu_cxx7__mutexE, 21
_ZTSN9__gnu_cxx7__mutexE:
	.ascii	"N9__gnu_cxx7__mutexE\000"
	.weak	_ZTIN9__gnu_cxx7__mutexE
	.section	.data.rel.ro._ZTIN9__gnu_cxx7__mutexE,"awG",%progbits,_ZTIN9__gnu_cxx7__mutexE,comdat
	.align	2
	.type	_ZTIN9__gnu_cxx7__mutexE, %object
	.size	_ZTIN9__gnu_cxx7__mutexE, 8
_ZTIN9__gnu_cxx7__mutexE:
	.word	_ZTVN10__cxxabiv117__class_type_infoE+8
	.word	_ZTSN9__gnu_cxx7__mutexE
	.weak	_ZTSSt11_Mutex_baseILN9__gnu_cxx12_Lock_policyE1EE
	.section	.rodata._ZTSSt11_Mutex_baseILN9__gnu_cxx12_Lock_policyE1EE,"aG",%progbits,_ZTSSt11_Mutex_baseILN9__gnu_cxx12_Lock_policyE1EE,comdat
	.align	2
	.type	_ZTSSt11_Mutex_baseILN9__gnu_cxx12_Lock_policyE1EE, %object
	.size	_ZTSSt11_Mutex_baseILN9__gnu_cxx12_Lock_policyE1EE, 47
_ZTSSt11_Mutex_baseILN9__gnu_cxx12_Lock_policyE1EE:
	.ascii	"St11_Mutex_baseILN9__gnu_cxx12_Lock_policyE1EE\000"
	.weak	_ZTISt11_Mutex_baseILN9__gnu_cxx12_Lock_policyE1EE
	.section	.data.rel.ro._ZTISt11_Mutex_baseILN9__gnu_cxx12_Lock_policyE1EE,"awG",%progbits,_ZTISt11_Mutex_baseILN9__gnu_cxx12_Lock_policyE1EE,comdat
	.align	2
	.type	_ZTISt11_Mutex_baseILN9__gnu_cxx12_Lock_policyE1EE, %object
	.size	_ZTISt11_Mutex_baseILN9__gnu_cxx12_Lock_policyE1EE, 12
_ZTISt11_Mutex_baseILN9__gnu_cxx12_Lock_policyE1EE:
	.word	_ZTVN10__cxxabiv120__si_class_type_infoE+8
	.word	_ZTSSt11_Mutex_baseILN9__gnu_cxx12_Lock_policyE1EE
	.word	_ZTIN9__gnu_cxx7__mutexE
	.weak	_ZTSSt23enable_shared_from_thisIN7asiopal13IAsyncChannelEE
	.section	.rodata._ZTSSt23enable_shared_from_thisIN7asiopal13IAsyncChannelEE,"aG",%progbits,_ZTSSt23enable_shared_from_thisIN7asiopal13IAsyncChannelEE,comdat
	.align	2
	.type	_ZTSSt23enable_shared_from_thisIN7asiopal13IAsyncChannelEE, %object
	.size	_ZTSSt23enable_shared_from_thisIN7asiopal13IAsyncChannelEE, 55
_ZTSSt23enable_shared_from_thisIN7asiopal13IAsyncChannelEE:
	.ascii	"St23enable_shared_from_thisIN7asiopal13IAsyncChanne"
	.ascii	"lEE\000"
	.weak	_ZTISt23enable_shared_from_thisIN7asiopal13IAsyncChannelEE
	.section	.data.rel.ro._ZTISt23enable_shared_from_thisIN7asiopal13IAsyncChannelEE,"awG",%progbits,_ZTISt23enable_shared_from_thisIN7asiopal13IAsyncChannelEE,comdat
	.align	2
	.type	_ZTISt23enable_shared_from_thisIN7asiopal13IAsyncChannelEE, %object
	.size	_ZTISt23enable_shared_from_thisIN7asiopal13IAsyncChannelEE, 8
_ZTISt23enable_shared_from_thisIN7asiopal13IAsyncChannelEE:
	.word	_ZTVN10__cxxabiv117__class_type_infoE+8
	.word	_ZTSSt23enable_shared_from_thisIN7asiopal13IAsyncChannelEE
	.weak	_ZTSN7openpal10UncopyableE
	.section	.rodata._ZTSN7openpal10UncopyableE,"aG",%progbits,_ZTSN7openpal10UncopyableE,comdat
	.align	2
	.type	_ZTSN7openpal10UncopyableE, %object
	.size	_ZTSN7openpal10UncopyableE, 23
_ZTSN7openpal10UncopyableE:
	.ascii	"N7openpal10UncopyableE\000"
	.weak	_ZTIN7openpal10UncopyableE
	.section	.data.rel.ro._ZTIN7openpal10UncopyableE,"awG",%progbits,_ZTIN7openpal10UncopyableE,comdat
	.align	2
	.type	_ZTIN7openpal10UncopyableE, %object
	.size	_ZTIN7openpal10UncopyableE, 8
_ZTIN7openpal10UncopyableE:
	.word	_ZTVN10__cxxabiv117__class_type_infoE+8
	.word	_ZTSN7openpal10UncopyableE
	.weak	_ZGVN4asio6detail12service_baseINS0_14strand_serviceEE2idE
	.section	.bss._ZGVN4asio6detail12service_baseINS0_14strand_serviceEE2idE,"awG",%nobits,_ZGVN4asio6detail12service_baseINS0_14strand_serviceEE2idE,comdat
	.align	2
	.type	_ZGVN4asio6detail12service_baseINS0_14strand_serviceEE2idE, %gnu_unique_object
	.size	_ZGVN4asio6detail12service_baseINS0_14strand_serviceEE2idE, 4
_ZGVN4asio6detail12service_baseINS0_14strand_serviceEE2idE:
	.space	4
	.weak	_ZGVN4asio6detail10call_stackINS0_14strand_service11strand_implEhE4top_E
	.section	.bss._ZGVN4asio6detail10call_stackINS0_14strand_service11strand_implEhE4top_E,"awG",%nobits,_ZGVN4asio6detail10call_stackINS0_14strand_service11strand_implEhE4top_E,comdat
	.align	2
	.type	_ZGVN4asio6detail10call_stackINS0_14strand_service11strand_implEhE4top_E, %gnu_unique_object
	.size	_ZGVN4asio6detail10call_stackINS0_14strand_service11strand_implEhE4top_E, 4
_ZGVN4asio6detail10call_stackINS0_14strand_service11strand_implEhE4top_E:
	.space	4
	.weak	_ZGVN4asio6detail12service_baseINS0_15task_io_serviceEE2idE
	.section	.bss._ZGVN4asio6detail12service_baseINS0_15task_io_serviceEE2idE,"awG",%nobits,_ZGVN4asio6detail12service_baseINS0_15task_io_serviceEE2idE,comdat
	.align	2
	.type	_ZGVN4asio6detail12service_baseINS0_15task_io_serviceEE2idE, %gnu_unique_object
	.size	_ZGVN4asio6detail12service_baseINS0_15task_io_serviceEE2idE, 4
_ZGVN4asio6detail12service_baseINS0_15task_io_serviceEE2idE:
	.space	4
	.weak	_ZGVN4asio6detail12service_baseINS0_13epoll_reactorEE2idE
	.section	.bss._ZGVN4asio6detail12service_baseINS0_13epoll_reactorEE2idE,"awG",%nobits,_ZGVN4asio6detail12service_baseINS0_13epoll_reactorEE2idE,comdat
	.align	2
	.type	_ZGVN4asio6detail12service_baseINS0_13epoll_reactorEE2idE, %gnu_unique_object
	.size	_ZGVN4asio6detail12service_baseINS0_13epoll_reactorEE2idE, 4
_ZGVN4asio6detail12service_baseINS0_13epoll_reactorEE2idE:
	.space	4
	.weak	_ZGVN4asio6detail10call_stackINS0_15task_io_serviceENS0_27task_io_service_thread_infoEE4top_E
	.section	.bss._ZGVN4asio6detail10call_stackINS0_15task_io_serviceENS0_27task_io_service_thread_infoEE4top_E,"awG",%nobits,_ZGVN4asio6detail10call_stackINS0_15task_io_serviceENS0_27task_io_service_thread_infoEE4top_E,comdat
	.align	2
	.type	_ZGVN4asio6detail10call_stackINS0_15task_io_serviceENS0_27task_io_service_thread_infoEE4top_E, %gnu_unique_object
	.size	_ZGVN4asio6detail10call_stackINS0_15task_io_serviceENS0_27task_io_service_thread_infoEE4top_E, 4
_ZGVN4asio6detail10call_stackINS0_15task_io_serviceENS0_27task_io_service_thread_infoEE4top_E:
	.space	4
	.weak	_ZN4asio6detail12service_baseINS0_14strand_serviceEE2idE
	.section	.bss._ZN4asio6detail12service_baseINS0_14strand_serviceEE2idE,"awG",%nobits,_ZN4asio6detail12service_baseINS0_14strand_serviceEE2idE,comdat
	.align	2
	.type	_ZN4asio6detail12service_baseINS0_14strand_serviceEE2idE, %gnu_unique_object
	.size	_ZN4asio6detail12service_baseINS0_14strand_serviceEE2idE, 1
_ZN4asio6detail12service_baseINS0_14strand_serviceEE2idE:
	.space	1
	.weak	_ZN4asio6detail10call_stackINS0_14strand_service11strand_implEhE4top_E
	.section	.bss._ZN4asio6detail10call_stackINS0_14strand_service11strand_implEhE4top_E,"awG",%nobits,_ZN4asio6detail10call_stackINS0_14strand_service11strand_implEhE4top_E,comdat
	.align	2
	.type	_ZN4asio6detail10call_stackINS0_14strand_service11strand_implEhE4top_E, %gnu_unique_object
	.size	_ZN4asio6detail10call_stackINS0_14strand_service11strand_implEhE4top_E, 4
_ZN4asio6detail10call_stackINS0_14strand_service11strand_implEhE4top_E:
	.space	4
	.weak	_ZN4asio6detail12service_baseINS0_15task_io_serviceEE2idE
	.section	.bss._ZN4asio6detail12service_baseINS0_15task_io_serviceEE2idE,"awG",%nobits,_ZN4asio6detail12service_baseINS0_15task_io_serviceEE2idE,comdat
	.align	2
	.type	_ZN4asio6detail12service_baseINS0_15task_io_serviceEE2idE, %gnu_unique_object
	.size	_ZN4asio6detail12service_baseINS0_15task_io_serviceEE2idE, 1
_ZN4asio6detail12service_baseINS0_15task_io_serviceEE2idE:
	.space	1
	.weak	_ZN4asio6detail12service_baseINS0_13epoll_reactorEE2idE
	.section	.bss._ZN4asio6detail12service_baseINS0_13epoll_reactorEE2idE,"awG",%nobits,_ZN4asio6detail12service_baseINS0_13epoll_reactorEE2idE,comdat
	.align	2
	.type	_ZN4asio6detail12service_baseINS0_13epoll_reactorEE2idE, %gnu_unique_object
	.size	_ZN4asio6detail12service_baseINS0_13epoll_reactorEE2idE, 1
_ZN4asio6detail12service_baseINS0_13epoll_reactorEE2idE:
	.space	1
	.weak	_ZN4asio6detail10call_stackINS0_15task_io_serviceENS0_27task_io_service_thread_infoEE4top_E
	.section	.bss._ZN4asio6detail10call_stackINS0_15task_io_serviceENS0_27task_io_service_thread_infoEE4top_E,"awG",%nobits,_ZN4asio6detail10call_stackINS0_15task_io_serviceENS0_27task_io_service_thread_infoEE4top_E,comdat
	.align	2
	.type	_ZN4asio6detail10call_stackINS0_15task_io_serviceENS0_27task_io_service_thread_infoEE4top_E, %gnu_unique_object
	.size	_ZN4asio6detail10call_stackINS0_15task_io_serviceENS0_27task_io_service_thread_infoEE4top_E, 4
_ZN4asio6detail10call_stackINS0_15task_io_serviceENS0_27task_io_service_thread_infoEE4top_E:
	.space	4
	.weak	_ZTSN9__gnu_cxx24__concurrence_lock_errorE
	.section	.rodata._ZTSN9__gnu_cxx24__concurrence_lock_errorE,"aG",%progbits,_ZTSN9__gnu_cxx24__concurrence_lock_errorE,comdat
	.align	2
	.type	_ZTSN9__gnu_cxx24__concurrence_lock_errorE, %object
	.size	_ZTSN9__gnu_cxx24__concurrence_lock_errorE, 39
_ZTSN9__gnu_cxx24__concurrence_lock_errorE:
	.ascii	"N9__gnu_cxx24__concurrence_lock_errorE\000"
	.weak	_ZTIN9__gnu_cxx24__concurrence_lock_errorE
	.section	.data.rel.ro._ZTIN9__gnu_cxx24__concurrence_lock_errorE,"awG",%progbits,_ZTIN9__gnu_cxx24__concurrence_lock_errorE,comdat
	.align	2
	.type	_ZTIN9__gnu_cxx24__concurrence_lock_errorE, %object
	.size	_ZTIN9__gnu_cxx24__concurrence_lock_errorE, 12
_ZTIN9__gnu_cxx24__concurrence_lock_errorE:
	.word	_ZTVN10__cxxabiv120__si_class_type_infoE+8
	.word	_ZTSN9__gnu_cxx24__concurrence_lock_errorE
	.word	_ZTISt9exception
	.weak	_ZTSN9__gnu_cxx26__concurrence_unlock_errorE
	.section	.rodata._ZTSN9__gnu_cxx26__concurrence_unlock_errorE,"aG",%progbits,_ZTSN9__gnu_cxx26__concurrence_unlock_errorE,comdat
	.align	2
	.type	_ZTSN9__gnu_cxx26__concurrence_unlock_errorE, %object
	.size	_ZTSN9__gnu_cxx26__concurrence_unlock_errorE, 41
_ZTSN9__gnu_cxx26__concurrence_unlock_errorE:
	.ascii	"N9__gnu_cxx26__concurrence_unlock_errorE\000"
	.weak	_ZTIN9__gnu_cxx26__concurrence_unlock_errorE
	.section	.data.rel.ro._ZTIN9__gnu_cxx26__concurrence_unlock_errorE,"awG",%progbits,_ZTIN9__gnu_cxx26__concurrence_unlock_errorE,comdat
	.align	2
	.type	_ZTIN9__gnu_cxx26__concurrence_unlock_errorE, %object
	.size	_ZTIN9__gnu_cxx26__concurrence_unlock_errorE, 12
_ZTIN9__gnu_cxx26__concurrence_unlock_errorE:
	.word	_ZTVN10__cxxabiv120__si_class_type_infoE+8
	.word	_ZTSN9__gnu_cxx26__concurrence_unlock_errorE
	.word	_ZTISt9exception
	.weak	_ZTSSt16_Sp_counted_baseILN9__gnu_cxx12_Lock_policyE1EE
	.section	.rodata._ZTSSt16_Sp_counted_baseILN9__gnu_cxx12_Lock_policyE1EE,"aG",%progbits,_ZTSSt16_Sp_counted_baseILN9__gnu_cxx12_Lock_policyE1EE,comdat
	.align	2
	.type	_ZTSSt16_Sp_counted_baseILN9__gnu_cxx12_Lock_policyE1EE, %object
	.size	_ZTSSt16_Sp_counted_baseILN9__gnu_cxx12_Lock_policyE1EE, 52
_ZTSSt16_Sp_counted_baseILN9__gnu_cxx12_Lock_policyE1EE:
	.ascii	"St16_Sp_counted_baseILN9__gnu_cxx12_Lock_policyE1EE"
	.ascii	"\000"
	.weak	_ZTISt16_Sp_counted_baseILN9__gnu_cxx12_Lock_policyE1EE
	.section	.data.rel.ro._ZTISt16_Sp_counted_baseILN9__gnu_cxx12_Lock_policyE1EE,"awG",%progbits,_ZTISt16_Sp_counted_baseILN9__gnu_cxx12_Lock_policyE1EE,comdat
	.align	2
	.type	_ZTISt16_Sp_counted_baseILN9__gnu_cxx12_Lock_policyE1EE, %object
	.size	_ZTISt16_Sp_counted_baseILN9__gnu_cxx12_Lock_policyE1EE, 24
_ZTISt16_Sp_counted_baseILN9__gnu_cxx12_Lock_policyE1EE:
	.word	_ZTVN10__cxxabiv121__vmi_class_type_infoE+8
	.word	_ZTSSt16_Sp_counted_baseILN9__gnu_cxx12_Lock_policyE1EE
	.word	0
	.word	1
	.word	_ZTISt11_Mutex_baseILN9__gnu_cxx12_Lock_policyE1EE
	.word	1026
	.weak	_ZTSN4asio6detail15system_categoryE
	.section	.rodata._ZTSN4asio6detail15system_categoryE,"aG",%progbits,_ZTSN4asio6detail15system_categoryE,comdat
	.align	2
	.type	_ZTSN4asio6detail15system_categoryE, %object
	.size	_ZTSN4asio6detail15system_categoryE, 32
_ZTSN4asio6detail15system_categoryE:
	.ascii	"N4asio6detail15system_categoryE\000"
	.weak	_ZTIN4asio6detail15system_categoryE
	.section	.data.rel.ro._ZTIN4asio6detail15system_categoryE,"awG",%progbits,_ZTIN4asio6detail15system_categoryE,comdat
	.align	2
	.type	_ZTIN4asio6detail15system_categoryE, %object
	.size	_ZTIN4asio6detail15system_categoryE, 12
_ZTIN4asio6detail15system_categoryE:
	.word	_ZTVN10__cxxabiv120__si_class_type_infoE+8
	.word	_ZTSN4asio6detail15system_categoryE
	.word	_ZTINSt3_V214error_categoryE
	.weak	_ZTSN4asio5error6detail14netdb_categoryE
	.section	.rodata._ZTSN4asio5error6detail14netdb_categoryE,"aG",%progbits,_ZTSN4asio5error6detail14netdb_categoryE,comdat
	.align	2
	.type	_ZTSN4asio5error6detail14netdb_categoryE, %object
	.size	_ZTSN4asio5error6detail14netdb_categoryE, 37
_ZTSN4asio5error6detail14netdb_categoryE:
	.ascii	"N4asio5error6detail14netdb_categoryE\000"
	.weak	_ZTIN4asio5error6detail14netdb_categoryE
	.section	.data.rel.ro._ZTIN4asio5error6detail14netdb_categoryE,"awG",%progbits,_ZTIN4asio5error6detail14netdb_categoryE,comdat
	.align	2
	.type	_ZTIN4asio5error6detail14netdb_categoryE, %object
	.size	_ZTIN4asio5error6detail14netdb_categoryE, 12
_ZTIN4asio5error6detail14netdb_categoryE:
	.word	_ZTVN10__cxxabiv120__si_class_type_infoE+8
	.word	_ZTSN4asio5error6detail14netdb_categoryE
	.word	_ZTINSt3_V214error_categoryE
	.weak	_ZTSN4asio5error6detail17addrinfo_categoryE
	.section	.rodata._ZTSN4asio5error6detail17addrinfo_categoryE,"aG",%progbits,_ZTSN4asio5error6detail17addrinfo_categoryE,comdat
	.align	2
	.type	_ZTSN4asio5error6detail17addrinfo_categoryE, %object
	.size	_ZTSN4asio5error6detail17addrinfo_categoryE, 40
_ZTSN4asio5error6detail17addrinfo_categoryE:
	.ascii	"N4asio5error6detail17addrinfo_categoryE\000"
	.weak	_ZTIN4asio5error6detail17addrinfo_categoryE
	.section	.data.rel.ro._ZTIN4asio5error6detail17addrinfo_categoryE,"awG",%progbits,_ZTIN4asio5error6detail17addrinfo_categoryE,comdat
	.align	2
	.type	_ZTIN4asio5error6detail17addrinfo_categoryE, %object
	.size	_ZTIN4asio5error6detail17addrinfo_categoryE, 12
_ZTIN4asio5error6detail17addrinfo_categoryE:
	.word	_ZTVN10__cxxabiv120__si_class_type_infoE+8
	.word	_ZTSN4asio5error6detail17addrinfo_categoryE
	.word	_ZTINSt3_V214error_categoryE
	.weak	_ZTSN4asio5error6detail13misc_categoryE
	.section	.rodata._ZTSN4asio5error6detail13misc_categoryE,"aG",%progbits,_ZTSN4asio5error6detail13misc_categoryE,comdat
	.align	2
	.type	_ZTSN4asio5error6detail13misc_categoryE, %object
	.size	_ZTSN4asio5error6detail13misc_categoryE, 36
_ZTSN4asio5error6detail13misc_categoryE:
	.ascii	"N4asio5error6detail13misc_categoryE\000"
	.weak	_ZTIN4asio5error6detail13misc_categoryE
	.section	.data.rel.ro._ZTIN4asio5error6detail13misc_categoryE,"awG",%progbits,_ZTIN4asio5error6detail13misc_categoryE,comdat
	.align	2
	.type	_ZTIN4asio5error6detail13misc_categoryE, %object
	.size	_ZTIN4asio5error6detail13misc_categoryE, 12
_ZTIN4asio5error6detail13misc_categoryE:
	.word	_ZTVN10__cxxabiv120__si_class_type_infoE+8
	.word	_ZTSN4asio5error6detail13misc_categoryE
	.word	_ZTINSt3_V214error_categoryE
	.weak	_ZTSN7asiopal13IAsyncChannelE
	.section	.rodata._ZTSN7asiopal13IAsyncChannelE,"aG",%progbits,_ZTSN7asiopal13IAsyncChannelE,comdat
	.align	2
	.type	_ZTSN7asiopal13IAsyncChannelE, %object
	.size	_ZTSN7asiopal13IAsyncChannelE, 26
_ZTSN7asiopal13IAsyncChannelE:
	.ascii	"N7asiopal13IAsyncChannelE\000"
	.weak	_ZTIN7asiopal13IAsyncChannelE
	.section	.data.rel.ro._ZTIN7asiopal13IAsyncChannelE,"awG",%progbits,_ZTIN7asiopal13IAsyncChannelE,comdat
	.align	2
	.type	_ZTIN7asiopal13IAsyncChannelE, %object
	.size	_ZTIN7asiopal13IAsyncChannelE, 32
_ZTIN7asiopal13IAsyncChannelE:
	.word	_ZTVN10__cxxabiv121__vmi_class_type_infoE+8
	.word	_ZTSN7asiopal13IAsyncChannelE
	.word	0
	.word	2
	.word	_ZTISt23enable_shared_from_thisIN7asiopal13IAsyncChannelEE
	.word	1026
	.word	_ZTIN7openpal10UncopyableE
	.word	0
	.global	_ZTSN8asiodnp318TCPClientIOHandlerE
	.global	_ZTIN8asiodnp318TCPClientIOHandlerE
	.weak	_ZTSSt19_Sp_make_shared_tag
	.section	.rodata._ZTSSt19_Sp_make_shared_tag,"aG",%progbits,_ZTSSt19_Sp_make_shared_tag,comdat
	.align	2
	.type	_ZTSSt19_Sp_make_shared_tag, %object
	.size	_ZTSSt19_Sp_make_shared_tag, 24
_ZTSSt19_Sp_make_shared_tag:
	.ascii	"St19_Sp_make_shared_tag\000"
	.weak	_ZTISt19_Sp_make_shared_tag
	.section	.data.rel.ro._ZTISt19_Sp_make_shared_tag,"awG",%progbits,_ZTISt19_Sp_make_shared_tag,comdat
	.align	2
	.type	_ZTISt19_Sp_make_shared_tag, %object
	.size	_ZTISt19_Sp_make_shared_tag, 8
_ZTISt19_Sp_make_shared_tag:
	.word	_ZTVN10__cxxabiv117__class_type_infoE+8
	.word	_ZTSSt19_Sp_make_shared_tag
	.weak	_ZTSSt23_Sp_counted_ptr_inplaceIN7asiopal9TCPClientESaIS1_ELN9__gnu_cxx12_Lock_policyE1EE
	.section	.rodata._ZTSSt23_Sp_counted_ptr_inplaceIN7asiopal9TCPClientESaIS1_ELN9__gnu_cxx12_Lock_policyE1EE,"aG",%progbits,_ZTSSt23_Sp_counted_ptr_inplaceIN7asiopal9TCPClientESaIS1_ELN9__gnu_cxx12_Lock_policyE1EE,comdat
	.align	2
	.type	_ZTSSt23_Sp_counted_ptr_inplaceIN7asiopal9TCPClientESaIS1_ELN9__gnu_cxx12_Lock_policyE1EE, %object
	.size	_ZTSSt23_Sp_counted_ptr_inplaceIN7asiopal9TCPClientESaIS1_ELN9__gnu_cxx12_Lock_policyE1EE, 86
_ZTSSt23_Sp_counted_ptr_inplaceIN7asiopal9TCPClientESaIS1_ELN9__gnu_cxx12_Lock_policyE1EE:
	.ascii	"St23_Sp_counted_ptr_inplaceIN7asiopal9TCPClientESaI"
	.ascii	"S1_ELN9__gnu_cxx12_Lock_policyE1EE\000"
	.weak	_ZTISt23_Sp_counted_ptr_inplaceIN7asiopal9TCPClientESaIS1_ELN9__gnu_cxx12_Lock_policyE1EE
	.section	.data.rel.ro._ZTISt23_Sp_counted_ptr_inplaceIN7asiopal9TCPClientESaIS1_ELN9__gnu_cxx12_Lock_policyE1EE,"awG",%progbits,_ZTISt23_Sp_counted_ptr_inplaceIN7asiopal9TCPClientESaIS1_ELN9__gnu_cxx12_Lock_policyE1EE,comdat
	.align	2
	.type	_ZTISt23_Sp_counted_ptr_inplaceIN7asiopal9TCPClientESaIS1_ELN9__gnu_cxx12_Lock_policyE1EE, %object
	.size	_ZTISt23_Sp_counted_ptr_inplaceIN7asiopal9TCPClientESaIS1_ELN9__gnu_cxx12_Lock_policyE1EE, 12
_ZTISt23_Sp_counted_ptr_inplaceIN7asiopal9TCPClientESaIS1_ELN9__gnu_cxx12_Lock_policyE1EE:
	.word	_ZTVN10__cxxabiv120__si_class_type_infoE+8
	.word	_ZTSSt23_Sp_counted_ptr_inplaceIN7asiopal9TCPClientESaIS1_ELN9__gnu_cxx12_Lock_policyE1EE
	.word	_ZTISt16_Sp_counted_baseILN9__gnu_cxx12_Lock_policyE1EE
	.weak	_ZTSSt23_Sp_counted_ptr_inplaceIN7asiopal13SocketChannelESaIS1_ELN9__gnu_cxx12_Lock_policyE1EE
	.section	.rodata._ZTSSt23_Sp_counted_ptr_inplaceIN7asiopal13SocketChannelESaIS1_ELN9__gnu_cxx12_Lock_policyE1EE,"aG",%progbits,_ZTSSt23_Sp_counted_ptr_inplaceIN7asiopal13SocketChannelESaIS1_ELN9__gnu_cxx12_Lock_policyE1EE,comdat
	.align	2
	.type	_ZTSSt23_Sp_counted_ptr_inplaceIN7asiopal13SocketChannelESaIS1_ELN9__gnu_cxx12_Lock_policyE1EE, %object
	.size	_ZTSSt23_Sp_counted_ptr_inplaceIN7asiopal13SocketChannelESaIS1_ELN9__gnu_cxx12_Lock_policyE1EE, 91
_ZTSSt23_Sp_counted_ptr_inplaceIN7asiopal13SocketChannelESaIS1_ELN9__gnu_cxx12_Lock_policyE1EE:
	.ascii	"St23_Sp_counted_ptr_inplaceIN7asiopal13SocketChanne"
	.ascii	"lESaIS1_ELN9__gnu_cxx12_Lock_policyE1EE\000"
	.weak	_ZTISt23_Sp_counted_ptr_inplaceIN7asiopal13SocketChannelESaIS1_ELN9__gnu_cxx12_Lock_policyE1EE
	.section	.data.rel.ro._ZTISt23_Sp_counted_ptr_inplaceIN7asiopal13SocketChannelESaIS1_ELN9__gnu_cxx12_Lock_policyE1EE,"awG",%progbits,_ZTISt23_Sp_counted_ptr_inplaceIN7asiopal13SocketChannelESaIS1_ELN9__gnu_cxx12_Lock_policyE1EE,comdat
	.align	2
	.type	_ZTISt23_Sp_counted_ptr_inplaceIN7asiopal13SocketChannelESaIS1_ELN9__gnu_cxx12_Lock_policyE1EE, %object
	.size	_ZTISt23_Sp_counted_ptr_inplaceIN7asiopal13SocketChannelESaIS1_ELN9__gnu_cxx12_Lock_policyE1EE, 12
_ZTISt23_Sp_counted_ptr_inplaceIN7asiopal13SocketChannelESaIS1_ELN9__gnu_cxx12_Lock_policyE1EE:
	.word	_ZTVN10__cxxabiv120__si_class_type_infoE+8
	.word	_ZTSSt23_Sp_counted_ptr_inplaceIN7asiopal13SocketChannelESaIS1_ELN9__gnu_cxx12_Lock_policyE1EE
	.word	_ZTISt16_Sp_counted_baseILN9__gnu_cxx12_Lock_policyE1EE
	.weak	_ZTVN9__gnu_cxx24__concurrence_lock_errorE
	.section	.data.rel.ro._ZTVN9__gnu_cxx24__concurrence_lock_errorE,"awG",%progbits,_ZTVN9__gnu_cxx24__concurrence_lock_errorE,comdat
	.align	2
	.type	_ZTVN9__gnu_cxx24__concurrence_lock_errorE, %object
	.size	_ZTVN9__gnu_cxx24__concurrence_lock_errorE, 20
_ZTVN9__gnu_cxx24__concurrence_lock_errorE:
	.word	0
	.word	_ZTIN9__gnu_cxx24__concurrence_lock_errorE
	.word	_ZN9__gnu_cxx24__concurrence_lock_errorD1Ev
	.word	_ZN9__gnu_cxx24__concurrence_lock_errorD0Ev
	.word	_ZNK9__gnu_cxx24__concurrence_lock_error4whatEv
	.weak	_ZTVN9__gnu_cxx26__concurrence_unlock_errorE
	.section	.data.rel.ro._ZTVN9__gnu_cxx26__concurrence_unlock_errorE,"awG",%progbits,_ZTVN9__gnu_cxx26__concurrence_unlock_errorE,comdat
	.align	2
	.type	_ZTVN9__gnu_cxx26__concurrence_unlock_errorE, %object
	.size	_ZTVN9__gnu_cxx26__concurrence_unlock_errorE, 20
_ZTVN9__gnu_cxx26__concurrence_unlock_errorE:
	.word	0
	.word	_ZTIN9__gnu_cxx26__concurrence_unlock_errorE
	.word	_ZN9__gnu_cxx26__concurrence_unlock_errorD1Ev
	.word	_ZN9__gnu_cxx26__concurrence_unlock_errorD0Ev
	.word	_ZNK9__gnu_cxx26__concurrence_unlock_error4whatEv
	.weak	_ZTVN4asio6detail15system_categoryE
	.section	.data.rel.ro._ZTVN4asio6detail15system_categoryE,"awG",%progbits,_ZTVN4asio6detail15system_categoryE,comdat
	.align	2
	.type	_ZTVN4asio6detail15system_categoryE, %object
	.size	_ZTVN4asio6detail15system_categoryE, 40
_ZTVN4asio6detail15system_categoryE:
	.word	0
	.word	_ZTIN4asio6detail15system_categoryE
	.word	_ZN4asio6detail15system_categoryD1Ev
	.word	_ZN4asio6detail15system_categoryD0Ev
	.word	_ZNK4asio6detail15system_category4nameEv
	.word	_ZNKSt3_V214error_category10_M_messageB5cxx11Ei
	.word	_ZNK4asio6detail15system_category7messageB5cxx11Ei
	.word	_ZNKSt3_V214error_category23default_error_conditionEi
	.word	_ZNKSt3_V214error_category10equivalentEiRKSt15error_condition
	.word	_ZNKSt3_V214error_category10equivalentERKSt10error_codei
	.weak	_ZTVN4asio5error6detail14netdb_categoryE
	.section	.data.rel.ro._ZTVN4asio5error6detail14netdb_categoryE,"awG",%progbits,_ZTVN4asio5error6detail14netdb_categoryE,comdat
	.align	2
	.type	_ZTVN4asio5error6detail14netdb_categoryE, %object
	.size	_ZTVN4asio5error6detail14netdb_categoryE, 40
_ZTVN4asio5error6detail14netdb_categoryE:
	.word	0
	.word	_ZTIN4asio5error6detail14netdb_categoryE
	.word	_ZN4asio5error6detail14netdb_categoryD1Ev
	.word	_ZN4asio5error6detail14netdb_categoryD0Ev
	.word	_ZNK4asio5error6detail14netdb_category4nameEv
	.word	_ZNKSt3_V214error_category10_M_messageB5cxx11Ei
	.word	_ZNK4asio5error6detail14netdb_category7messageB5cxx11Ei
	.word	_ZNKSt3_V214error_category23default_error_conditionEi
	.word	_ZNKSt3_V214error_category10equivalentEiRKSt15error_condition
	.word	_ZNKSt3_V214error_category10equivalentERKSt10error_codei
	.weak	_ZTVN4asio5error6detail17addrinfo_categoryE
	.section	.data.rel.ro._ZTVN4asio5error6detail17addrinfo_categoryE,"awG",%progbits,_ZTVN4asio5error6detail17addrinfo_categoryE,comdat
	.align	2
	.type	_ZTVN4asio5error6detail17addrinfo_categoryE, %object
	.size	_ZTVN4asio5error6detail17addrinfo_categoryE, 40
_ZTVN4asio5error6detail17addrinfo_categoryE:
	.word	0
	.word	_ZTIN4asio5error6detail17addrinfo_categoryE
	.word	_ZN4asio5error6detail17addrinfo_categoryD1Ev
	.word	_ZN4asio5error6detail17addrinfo_categoryD0Ev
	.word	_ZNK4asio5error6detail17addrinfo_category4nameEv
	.word	_ZNKSt3_V214error_category10_M_messageB5cxx11Ei
	.word	_ZNK4asio5error6detail17addrinfo_category7messageB5cxx11Ei
	.word	_ZNKSt3_V214error_category23default_error_conditionEi
	.word	_ZNKSt3_V214error_category10equivalentEiRKSt15error_condition
	.word	_ZNKSt3_V214error_category10equivalentERKSt10error_codei
	.weak	_ZTVN4asio5error6detail13misc_categoryE
	.section	.data.rel.ro._ZTVN4asio5error6detail13misc_categoryE,"awG",%progbits,_ZTVN4asio5error6detail13misc_categoryE,comdat
	.align	2
	.type	_ZTVN4asio5error6detail13misc_categoryE, %object
	.size	_ZTVN4asio5error6detail13misc_categoryE, 40
_ZTVN4asio5error6detail13misc_categoryE:
	.word	0
	.word	_ZTIN4asio5error6detail13misc_categoryE
	.word	_ZN4asio5error6detail13misc_categoryD1Ev
	.word	_ZN4asio5error6detail13misc_categoryD0Ev
	.word	_ZNK4asio5error6detail13misc_category4nameEv
	.word	_ZNKSt3_V214error_category10_M_messageB5cxx11Ei
	.word	_ZNK4asio5error6detail13misc_category7messageB5cxx11Ei
	.word	_ZNKSt3_V214error_category23default_error_conditionEi
	.word	_ZNKSt3_V214error_category10equivalentEiRKSt15error_condition
	.word	_ZNKSt3_V214error_category10equivalentERKSt10error_codei
	.weak	_ZTVN7asiopal13IAsyncChannelE
	.section	.data.rel.ro._ZTVN7asiopal13IAsyncChannelE,"awG",%progbits,_ZTVN7asiopal13IAsyncChannelE,comdat
	.align	2
	.type	_ZTVN7asiopal13IAsyncChannelE, %object
	.size	_ZTVN7asiopal13IAsyncChannelE, 28
_ZTVN7asiopal13IAsyncChannelE:
	.word	0
	.word	_ZTIN7asiopal13IAsyncChannelE
	.word	0
	.word	0
	.word	__cxa_pure_virtual
	.word	__cxa_pure_virtual
	.word	__cxa_pure_virtual
	.global	_ZTVN8asiodnp318TCPClientIOHandlerE
	.weak	_ZTVSt23_Sp_counted_ptr_inplaceIN7asiopal9TCPClientESaIS1_ELN9__gnu_cxx12_Lock_policyE1EE
	.section	.data.rel.ro._ZTVSt23_Sp_counted_ptr_inplaceIN7asiopal9TCPClientESaIS1_ELN9__gnu_cxx12_Lock_policyE1EE,"awG",%progbits,_ZTVSt23_Sp_counted_ptr_inplaceIN7asiopal9TCPClientESaIS1_ELN9__gnu_cxx12_Lock_policyE1EE,comdat
	.align	2
	.type	_ZTVSt23_Sp_counted_ptr_inplaceIN7asiopal9TCPClientESaIS1_ELN9__gnu_cxx12_Lock_policyE1EE, %object
	.size	_ZTVSt23_Sp_counted_ptr_inplaceIN7asiopal9TCPClientESaIS1_ELN9__gnu_cxx12_Lock_policyE1EE, 28
_ZTVSt23_Sp_counted_ptr_inplaceIN7asiopal9TCPClientESaIS1_ELN9__gnu_cxx12_Lock_policyE1EE:
	.word	0
	.word	_ZTISt23_Sp_counted_ptr_inplaceIN7asiopal9TCPClientESaIS1_ELN9__gnu_cxx12_Lock_policyE1EE
	.word	_ZNSt23_Sp_counted_ptr_inplaceIN7asiopal9TCPClientESaIS1_ELN9__gnu_cxx12_Lock_policyE1EED1Ev
	.word	_ZNSt23_Sp_counted_ptr_inplaceIN7asiopal9TCPClientESaIS1_ELN9__gnu_cxx12_Lock_policyE1EED0Ev
	.word	_ZNSt23_Sp_counted_ptr_inplaceIN7asiopal9TCPClientESaIS1_ELN9__gnu_cxx12_Lock_policyE1EE10_M_disposeEv
	.word	_ZNSt23_Sp_counted_ptr_inplaceIN7asiopal9TCPClientESaIS1_ELN9__gnu_cxx12_Lock_policyE1EE10_M_destroyEv
	.word	_ZNSt23_Sp_counted_ptr_inplaceIN7asiopal9TCPClientESaIS1_ELN9__gnu_cxx12_Lock_policyE1EE14_M_get_deleterERKSt9type_info
	.weak	_ZTVSt23_Sp_counted_ptr_inplaceIN7asiopal13SocketChannelESaIS1_ELN9__gnu_cxx12_Lock_policyE1EE
	.section	.data.rel.ro._ZTVSt23_Sp_counted_ptr_inplaceIN7asiopal13SocketChannelESaIS1_ELN9__gnu_cxx12_Lock_policyE1EE,"awG",%progbits,_ZTVSt23_Sp_counted_ptr_inplaceIN7asiopal13SocketChannelESaIS1_ELN9__gnu_cxx12_Lock_policyE1EE,comdat
	.align	2
	.type	_ZTVSt23_Sp_counted_ptr_inplaceIN7asiopal13SocketChannelESaIS1_ELN9__gnu_cxx12_Lock_policyE1EE, %object
	.size	_ZTVSt23_Sp_counted_ptr_inplaceIN7asiopal13SocketChannelESaIS1_ELN9__gnu_cxx12_Lock_policyE1EE, 28
_ZTVSt23_Sp_counted_ptr_inplaceIN7asiopal13SocketChannelESaIS1_ELN9__gnu_cxx12_Lock_policyE1EE:
	.word	0
	.word	_ZTISt23_Sp_counted_ptr_inplaceIN7asiopal13SocketChannelESaIS1_ELN9__gnu_cxx12_Lock_policyE1EE
	.word	_ZNSt23_Sp_counted_ptr_inplaceIN7asiopal13SocketChannelESaIS1_ELN9__gnu_cxx12_Lock_policyE1EED1Ev
	.word	_ZNSt23_Sp_counted_ptr_inplaceIN7asiopal13SocketChannelESaIS1_ELN9__gnu_cxx12_Lock_policyE1EED0Ev
	.word	_ZNSt23_Sp_counted_ptr_inplaceIN7asiopal13SocketChannelESaIS1_ELN9__gnu_cxx12_Lock_policyE1EE10_M_disposeEv
	.word	_ZNSt23_Sp_counted_ptr_inplaceIN7asiopal13SocketChannelESaIS1_ELN9__gnu_cxx12_Lock_policyE1EE10_M_destroyEv
	.word	_ZNSt23_Sp_counted_ptr_inplaceIN7asiopal13SocketChannelESaIS1_ELN9__gnu_cxx12_Lock_policyE1EE14_M_get_deleterERKSt9type_info
	.weak	_ZGVZN4asio5error17get_misc_categoryEvE8instance
	.section	.bss._ZGVZN4asio5error17get_misc_categoryEvE8instance,"awG",%nobits,_ZGVZN4asio5error17get_misc_categoryEvE8instance,comdat
	.align	2
	.type	_ZGVZN4asio5error17get_misc_categoryEvE8instance, %gnu_unique_object
	.size	_ZGVZN4asio5error17get_misc_categoryEvE8instance, 4
_ZGVZN4asio5error17get_misc_categoryEvE8instance:
	.space	4
	.weak	_ZZN4asio5error17get_misc_categoryEvE8instance
	.section	.data.rel._ZZN4asio5error17get_misc_categoryEvE8instance,"awG",%progbits,_ZZN4asio5error17get_misc_categoryEvE8instance,comdat
	.align	2
	.type	_ZZN4asio5error17get_misc_categoryEvE8instance, %gnu_unique_object
	.size	_ZZN4asio5error17get_misc_categoryEvE8instance, 4
_ZZN4asio5error17get_misc_categoryEvE8instance:
	.word	_ZTVN4asio5error6detail13misc_categoryE+8
	.weak	_ZGVZN4asio5error21get_addrinfo_categoryEvE8instance
	.section	.bss._ZGVZN4asio5error21get_addrinfo_categoryEvE8instance,"awG",%nobits,_ZGVZN4asio5error21get_addrinfo_categoryEvE8instance,comdat
	.align	2
	.type	_ZGVZN4asio5error21get_addrinfo_categoryEvE8instance, %gnu_unique_object
	.size	_ZGVZN4asio5error21get_addrinfo_categoryEvE8instance, 4
_ZGVZN4asio5error21get_addrinfo_categoryEvE8instance:
	.space	4
	.weak	_ZZN4asio5error21get_addrinfo_categoryEvE8instance
	.section	.data.rel._ZZN4asio5error21get_addrinfo_categoryEvE8instance,"awG",%progbits,_ZZN4asio5error21get_addrinfo_categoryEvE8instance,comdat
	.align	2
	.type	_ZZN4asio5error21get_addrinfo_categoryEvE8instance, %gnu_unique_object
	.size	_ZZN4asio5error21get_addrinfo_categoryEvE8instance, 4
_ZZN4asio5error21get_addrinfo_categoryEvE8instance:
	.word	_ZTVN4asio5error6detail17addrinfo_categoryE+8
	.weak	_ZGVZN4asio5error18get_netdb_categoryEvE8instance
	.section	.bss._ZGVZN4asio5error18get_netdb_categoryEvE8instance,"awG",%nobits,_ZGVZN4asio5error18get_netdb_categoryEvE8instance,comdat
	.align	2
	.type	_ZGVZN4asio5error18get_netdb_categoryEvE8instance, %gnu_unique_object
	.size	_ZGVZN4asio5error18get_netdb_categoryEvE8instance, 4
_ZGVZN4asio5error18get_netdb_categoryEvE8instance:
	.space	4
	.weak	_ZZN4asio5error18get_netdb_categoryEvE8instance
	.section	.data.rel._ZZN4asio5error18get_netdb_categoryEvE8instance,"awG",%progbits,_ZZN4asio5error18get_netdb_categoryEvE8instance,comdat
	.align	2
	.type	_ZZN4asio5error18get_netdb_categoryEvE8instance, %gnu_unique_object
	.size	_ZZN4asio5error18get_netdb_categoryEvE8instance, 4
_ZZN4asio5error18get_netdb_categoryEvE8instance:
	.word	_ZTVN4asio5error6detail14netdb_categoryE+8
	.weak	_ZGVZN4asio15system_categoryEvE8instance
	.section	.bss._ZGVZN4asio15system_categoryEvE8instance,"awG",%nobits,_ZGVZN4asio15system_categoryEvE8instance,comdat
	.align	2
	.type	_ZGVZN4asio15system_categoryEvE8instance, %gnu_unique_object
	.size	_ZGVZN4asio15system_categoryEvE8instance, 4
_ZGVZN4asio15system_categoryEvE8instance:
	.space	4
	.weak	_ZZN4asio15system_categoryEvE8instance
	.section	.data.rel._ZZN4asio15system_categoryEvE8instance,"awG",%progbits,_ZZN4asio15system_categoryEvE8instance,comdat
	.align	2
	.type	_ZZN4asio15system_categoryEvE8instance, %gnu_unique_object
	.size	_ZZN4asio15system_categoryEvE8instance, 4
_ZZN4asio15system_categoryEvE8instance:
	.word	_ZTVN4asio6detail15system_categoryE+8
	.weakref	_ZL28__gthrw___pthread_key_createPjPFvPvE,__pthread_key_create
	.weakref	_ZL28__gthrw_pthread_mutex_unlockP15pthread_mutex_t,pthread_mutex_unlock
	.weakref	_ZL26__gthrw_pthread_mutex_lockP15pthread_mutex_t,pthread_mutex_lock
	.section	.rodata
	.align	2
	.type	_ZTSN8asiodnp318TCPClientIOHandlerE, %object
	.size	_ZTSN8asiodnp318TCPClientIOHandlerE, 32
_ZTSN8asiodnp318TCPClientIOHandlerE:
	.ascii	"N8asiodnp318TCPClientIOHandlerE\000"
	.type	_ZTSZN8asiodnp318TCPClientIOHandler12StartConnectERKSt10shared_ptrIN7asiopal9TCPClientEERKN7openpal12TimeDurationEEUlRKS1_INS2_8ExecutorEEN4asio19basic_stream_socketINSF_2ip3tcpENSF_21stream_socket_serviceISI_EEEERKSt10error_codeE_, %object
	.size	_ZTSZN8asiodnp318TCPClientIOHandler12StartConnectERKSt10shared_ptrIN7asiopal9TCPClientEERKN7openpal12TimeDurationEEUlRKS1_INS2_8ExecutorEEN4asio19basic_stream_socketINSF_2ip3tcpENSF_21stream_socket_serviceISI_EEEERKSt10error_codeE_, 229
_ZTSZN8asiodnp318TCPClientIOHandler12StartConnectERKSt10shared_ptrIN7asiopal9TCPClientEERKN7openpal12TimeDurationEEUlRKS1_INS2_8ExecutorEEN4asio19basic_stream_socketINSF_2ip3tcpENSF_21stream_socket_serviceISI_EEEERKSt10error_codeE_:
	.ascii	"*ZN8asiodnp318TCPClientIOHandler12StartConnectERKSt"
	.ascii	"10shared_ptrIN7asiopal9TCPClientEERKN7openpal12Time"
	.ascii	"DurationEEUlRKS1_INS2_8ExecutorEEN4asio19basic_stre"
	.ascii	"am_socketINSF_2ip3tcpENSF_21stream_socket_serviceIS"
	.ascii	"I_EEEERKSt10error_codeE_\000"
	.space	3
	.type	_ZTSZN7openpal8TimerRef5StartIZZN8asiodnp318TCPClientIOHandler12StartConnectERKSt10shared_ptrIN7asiopal9TCPClientEERKNS_12TimeDurationEENKUlRKS4_INS5_8ExecutorEEN4asio19basic_stream_socketINSH_2ip3tcpENSH_21stream_socket_serviceISK_EEEERKSt10error_codeE_clESG_SN_SQ_EUlvE_EEbSC_RKT_EUlvE_, %object
	.size	_ZTSZN7openpal8TimerRef5StartIZZN8asiodnp318TCPClientIOHandler12StartConnectERKSt10shared_ptrIN7asiopal9TCPClientEERKNS_12TimeDurationEENKUlRKS4_INS5_8ExecutorEEN4asio19basic_stream_socketINSH_2ip3tcpENSH_21stream_socket_serviceISK_EEEERKSt10error_codeE_clESG_SN_SQ_EUlvE_EEbSC_RKT_EUlvE_, 286
_ZTSZN7openpal8TimerRef5StartIZZN8asiodnp318TCPClientIOHandler12StartConnectERKSt10shared_ptrIN7asiopal9TCPClientEERKNS_12TimeDurationEENKUlRKS4_INS5_8ExecutorEEN4asio19basic_stream_socketINSH_2ip3tcpENSH_21stream_socket_serviceISK_EEEERKSt10error_codeE_clESG_SN_SQ_EUlvE_EEbSC_RKT_EUlvE_:
	.ascii	"*ZN7openpal8TimerRef5StartIZZN8asiodnp318TCPClientI"
	.ascii	"OHandler12StartConnectERKSt10shared_ptrIN7asiopal9T"
	.ascii	"CPClientEERKNS_12TimeDurationEENKUlRKS4_INS5_8Execu"
	.ascii	"torEEN4asio19basic_stream_socketINSH_2ip3tcpENSH_21"
	.ascii	"stream_socket_serviceISK_EEEERKSt10error_codeE_clES"
	.ascii	"G_SN_SQ_EUlvE_EEbSC_RKT_EUlvE_\000"
	.section	.data.rel.ro,"aw",%progbits
	.align	2
	.set	.LANCHOR0,. + 0
	.type	_ZTIZN8asiodnp318TCPClientIOHandler12StartConnectERKSt10shared_ptrIN7asiopal9TCPClientEERKN7openpal12TimeDurationEEUlRKS1_INS2_8ExecutorEEN4asio19basic_stream_socketINSF_2ip3tcpENSF_21stream_socket_serviceISI_EEEERKSt10error_codeE_, %object
	.size	_ZTIZN8asiodnp318TCPClientIOHandler12StartConnectERKSt10shared_ptrIN7asiopal9TCPClientEERKN7openpal12TimeDurationEEUlRKS1_INS2_8ExecutorEEN4asio19basic_stream_socketINSF_2ip3tcpENSF_21stream_socket_serviceISI_EEEERKSt10error_codeE_, 8
_ZTIZN8asiodnp318TCPClientIOHandler12StartConnectERKSt10shared_ptrIN7asiopal9TCPClientEERKN7openpal12TimeDurationEEUlRKS1_INS2_8ExecutorEEN4asio19basic_stream_socketINSF_2ip3tcpENSF_21stream_socket_serviceISI_EEEERKSt10error_codeE_:
	.word	_ZTVN10__cxxabiv117__class_type_infoE+8
	.word	_ZTSZN8asiodnp318TCPClientIOHandler12StartConnectERKSt10shared_ptrIN7asiopal9TCPClientEERKN7openpal12TimeDurationEEUlRKS1_INS2_8ExecutorEEN4asio19basic_stream_socketINSF_2ip3tcpENSF_21stream_socket_serviceISI_EEEERKSt10error_codeE_
	.type	_ZTIZN7openpal8TimerRef5StartIZZN8asiodnp318TCPClientIOHandler12StartConnectERKSt10shared_ptrIN7asiopal9TCPClientEERKNS_12TimeDurationEENKUlRKS4_INS5_8ExecutorEEN4asio19basic_stream_socketINSH_2ip3tcpENSH_21stream_socket_serviceISK_EEEERKSt10error_codeE_clESG_SN_SQ_EUlvE_EEbSC_RKT_EUlvE_, %object
	.size	_ZTIZN7openpal8TimerRef5StartIZZN8asiodnp318TCPClientIOHandler12StartConnectERKSt10shared_ptrIN7asiopal9TCPClientEERKNS_12TimeDurationEENKUlRKS4_INS5_8ExecutorEEN4asio19basic_stream_socketINSH_2ip3tcpENSH_21stream_socket_serviceISK_EEEERKSt10error_codeE_clESG_SN_SQ_EUlvE_EEbSC_RKT_EUlvE_, 8
_ZTIZN7openpal8TimerRef5StartIZZN8asiodnp318TCPClientIOHandler12StartConnectERKSt10shared_ptrIN7asiopal9TCPClientEERKNS_12TimeDurationEENKUlRKS4_INS5_8ExecutorEEN4asio19basic_stream_socketINSH_2ip3tcpENSH_21stream_socket_serviceISK_EEEERKSt10error_codeE_clESG_SN_SQ_EUlvE_EEbSC_RKT_EUlvE_:
	.word	_ZTVN10__cxxabiv117__class_type_infoE+8
	.word	_ZTSZN7openpal8TimerRef5StartIZZN8asiodnp318TCPClientIOHandler12StartConnectERKSt10shared_ptrIN7asiopal9TCPClientEERKNS_12TimeDurationEENKUlRKS4_INS5_8ExecutorEEN4asio19basic_stream_socketINSH_2ip3tcpENSH_21stream_socket_serviceISK_EEEERKSt10error_codeE_clESG_SN_SQ_EUlvE_EEbSC_RKT_EUlvE_
	.type	_ZTIN8asiodnp318TCPClientIOHandlerE, %object
	.size	_ZTIN8asiodnp318TCPClientIOHandlerE, 12
_ZTIN8asiodnp318TCPClientIOHandlerE:
	.word	_ZTVN10__cxxabiv120__si_class_type_infoE+8
	.word	_ZTSN8asiodnp318TCPClientIOHandlerE
	.word	_ZTIN8asiodnp39IOHandlerE
	.type	_ZTVN8asiodnp318TCPClientIOHandlerE, %object
	.size	_ZTVN8asiodnp318TCPClientIOHandlerE, 68
_ZTVN8asiodnp318TCPClientIOHandlerE:
	.word	0
	.word	_ZTIN8asiodnp318TCPClientIOHandlerE
	.word	_ZN8asiodnp318TCPClientIOHandlerD1Ev
	.word	_ZN8asiodnp318TCPClientIOHandlerD0Ev
	.word	_ZN8asiodnp39IOHandler7OnFrameERKN8opendnp316LinkHeaderFieldsERKN7openpal6RSliceE
	.word	_ZN8asiodnp39IOHandler14OnReadCompleteERKSt10error_codej
	.word	_ZN8asiodnp39IOHandler15OnWriteCompleteERKSt10error_codej
	.word	_ZN8asiodnp318TCPClientIOHandler18BeginChannelAcceptEv
	.word	_ZN8asiodnp318TCPClientIOHandler20SuspendChannelAcceptEv
	.word	_ZN8asiodnp318TCPClientIOHandler12ShutdownImplEv
	.word	_ZN8asiodnp318TCPClientIOHandler17OnChannelShutdownEv
	.word	-4
	.word	_ZTIN8asiodnp318TCPClientIOHandlerE
	.word	_ZThn4_N8asiodnp318TCPClientIOHandlerD1Ev
	.word	_ZThn4_N8asiodnp318TCPClientIOHandlerD0Ev
	.word	_ZThn4_N8asiodnp39IOHandler14OnReadCompleteERKSt10error_codej
	.word	_ZThn4_N8asiodnp39IOHandler15OnWriteCompleteERKSt10error_codej
	.section	.rodata._ZN4asio6detail20posix_tss_ptr_createERj.str1.4,"aMS",%progbits,1
	.align	2
.LC22:
	.ascii	"tss\000"
	.section	.rodata._ZNK4asio5error6detail13misc_category4nameEv.str1.4,"aMS",%progbits,1
	.align	2
.LC5:
	.ascii	"asio.misc\000"
	.section	.rodata._ZNK4asio5error6detail13misc_category7messageB5cxx11Ei.str1.4,"aMS",%progbits,1
	.align	2
.LC16:
	.ascii	"Already open\000"
	.space	3
.LC17:
	.ascii	"End of file\000"
.LC18:
	.ascii	"Element not found\000"
	.space	2
.LC19:
	.ascii	"The descriptor does not fit into the select call's "
	.ascii	"fd_set\000"
	.space	2
.LC20:
	.ascii	"asio.misc error\000"
	.section	.rodata._ZNK4asio5error6detail14netdb_category4nameEv.str1.4,"aMS",%progbits,1
	.align	2
.LC3:
	.ascii	"asio.netdb\000"
	.section	.rodata._ZNK4asio5error6detail14netdb_category7messageB5cxx11Ei.str1.4,"aMS",%progbits,1
	.align	2
.LC11:
	.ascii	"Host not found (authoritative)\000"
	.space	1
.LC12:
	.ascii	"Host not found (non-authoritative), try again later"
	.ascii	"\000"
.LC13:
	.ascii	"The query is valid, but it does not have associated"
	.ascii	" data\000"
	.space	3
.LC14:
	.ascii	"A non-recoverable error occurred during database lo"
	.ascii	"okup\000"
.LC15:
	.ascii	"asio.netdb error\000"
	.section	.rodata._ZNK4asio5error6detail17addrinfo_category4nameEv.str1.4,"aMS",%progbits,1
	.align	2
.LC4:
	.ascii	"asio.addrinfo\000"
	.section	.rodata._ZNK4asio5error6detail17addrinfo_category7messageB5cxx11Ei.str1.4,"aMS",%progbits,1
	.align	2
.LC8:
	.ascii	"Service not found\000"
	.space	2
.LC9:
	.ascii	"Socket type not supported\000"
	.space	2
.LC10:
	.ascii	"asio.addrinfo error\000"
	.section	.rodata._ZNK4asio6detail15system_category4nameEv.str1.4,"aMS",%progbits,1
	.align	2
.LC2:
	.ascii	"asio.system\000"
	.section	.rodata._ZNK4asio6detail15system_category7messageB5cxx11Ei.str1.4,"aMS",%progbits,1
	.align	2
.LC6:
	.ascii	"Operation aborted.\000"
	.space	1
.LC7:
	.ascii	"basic_string::_M_construct null not valid\000"
	.section	.rodata._ZNK9__gnu_cxx24__concurrence_lock_error4whatEv.str1.4,"aMS",%progbits,1
	.align	2
.LC0:
	.ascii	"__gnu_cxx::__concurrence_lock_error\000"
	.section	.rodata._ZNK9__gnu_cxx26__concurrence_unlock_error4whatEv.str1.4,"aMS",%progbits,1
	.align	2
.LC1:
	.ascii	"__gnu_cxx::__concurrence_unlock_error\000"
	.section	.rodata._ZNSt12system_errorC2ESt10error_codePKc.str1.4,"aMS",%progbits,1
	.align	2
.LC21:
	.ascii	": \000"
	.section	.rodata.str1.4,"aMS",%progbits,1
	.align	2
.LC23:
