	.arch armv6
	.eabi_attribute 28, 1
	.eabi_attribute 20, 1
	.eabi_attribute 21, 1
	.eabi_attribute 23, 3
	.eabi_attribute 24, 1
	.eabi_attribute 25, 1
	.eabi_attribute 26, 2
	.eabi_attribute 30, 2
	.eabi_attribute 34, 1
	.eabi_attribute 18, 4
	.file	"Timer.cpp"
	.section	.text._ZNK4asio6detail15system_category4nameEv,"axG",%progbits,_ZNK4asio6detail15system_category4nameEv,comdat
	.align	2
	.weak	_ZNK4asio6detail15system_category4nameEv
	.syntax unified
	.arm
	.fpu vfp
	.type	_ZNK4asio6detail15system_category4nameEv, %function
_ZNK4asio6detail15system_category4nameEv:
	.fnstart
.LFB2033:
	@ args = 0, pretend = 0, frame = 0
	@ frame_needed = 0, uses_anonymous_args = 0
	@ link register save eliminated.
	ldr	r0, .L2
.LPIC0:
	add	r0, pc, r0
	bx	lr
.L3:
	.align	2
.L2:
	.word	.LC0-(.LPIC0+8)
	.cantunwind
	.fnend
	.size	_ZNK4asio6detail15system_category4nameEv, .-_ZNK4asio6detail15system_category4nameEv
	.section	.text._ZNK4asio5error6detail14netdb_category4nameEv,"axG",%progbits,_ZNK4asio5error6detail14netdb_category4nameEv,comdat
	.align	2
	.weak	_ZNK4asio5error6detail14netdb_category4nameEv
	.syntax unified
	.arm
	.fpu vfp
	.type	_ZNK4asio5error6detail14netdb_category4nameEv, %function
_ZNK4asio5error6detail14netdb_category4nameEv:
	.fnstart
.LFB2054:
	@ args = 0, pretend = 0, frame = 0
	@ frame_needed = 0, uses_anonymous_args = 0
	@ link register save eliminated.
	ldr	r0, .L5
.LPIC1:
	add	r0, pc, r0
	bx	lr
.L6:
	.align	2
.L5:
	.word	.LC1-(.LPIC1+8)
	.cantunwind
	.fnend
	.size	_ZNK4asio5error6detail14netdb_category4nameEv, .-_ZNK4asio5error6detail14netdb_category4nameEv
	.section	.text._ZNK4asio5error6detail17addrinfo_category4nameEv,"axG",%progbits,_ZNK4asio5error6detail17addrinfo_category4nameEv,comdat
	.align	2
	.weak	_ZNK4asio5error6detail17addrinfo_category4nameEv
	.syntax unified
	.arm
	.fpu vfp
	.type	_ZNK4asio5error6detail17addrinfo_category4nameEv, %function
_ZNK4asio5error6detail17addrinfo_category4nameEv:
	.fnstart
.LFB2060:
	@ args = 0, pretend = 0, frame = 0
	@ frame_needed = 0, uses_anonymous_args = 0
	@ link register save eliminated.
	ldr	r0, .L8
.LPIC2:
	add	r0, pc, r0
	bx	lr
.L9:
	.align	2
.L8:
	.word	.LC2-(.LPIC2+8)
	.cantunwind
	.fnend
	.size	_ZNK4asio5error6detail17addrinfo_category4nameEv, .-_ZNK4asio5error6detail17addrinfo_category4nameEv
	.section	.text._ZNK4asio5error6detail13misc_category4nameEv,"axG",%progbits,_ZNK4asio5error6detail13misc_category4nameEv,comdat
	.align	2
	.weak	_ZNK4asio5error6detail13misc_category4nameEv
	.syntax unified
	.arm
	.fpu vfp
	.type	_ZNK4asio5error6detail13misc_category4nameEv, %function
_ZNK4asio5error6detail13misc_category4nameEv:
	.fnstart
.LFB2066:
	@ args = 0, pretend = 0, frame = 0
	@ frame_needed = 0, uses_anonymous_args = 0
	@ link register save eliminated.
	ldr	r0, .L11
.LPIC3:
	add	r0, pc, r0
	bx	lr
.L12:
	.align	2
.L11:
	.word	.LC3-(.LPIC3+8)
	.cantunwind
	.fnend
	.size	_ZNK4asio5error6detail13misc_category4nameEv, .-_ZNK4asio5error6detail13misc_category4nameEv
	.section	.text._ZN4asio10io_service7service12fork_serviceENS0_10fork_eventE,"axG",%progbits,_ZN4asio10io_service7service12fork_serviceENS0_10fork_eventE,comdat
	.align	2
	.weak	_ZN4asio10io_service7service12fork_serviceENS0_10fork_eventE
	.syntax unified
	.arm
	.fpu vfp
	.type	_ZN4asio10io_service7service12fork_serviceENS0_10fork_eventE, %function
_ZN4asio10io_service7service12fork_serviceENS0_10fork_eventE:
	.fnstart
.LFB3147:
	@ args = 0, pretend = 0, frame = 0
	@ frame_needed = 0, uses_anonymous_args = 0
	@ link register save eliminated.
	bx	lr
	.cantunwind
	.fnend
	.size	_ZN4asio10io_service7service12fork_serviceENS0_10fork_eventE, .-_ZN4asio10io_service7service12fork_serviceENS0_10fork_eventE
	.section	.text._ZN4asio6detail10service_idINS0_13epoll_reactorEED2Ev,"axG",%progbits,_ZN4asio6detail10service_idINS0_13epoll_reactorEED5Ev,comdat
	.align	2
	.weak	_ZN4asio6detail10service_idINS0_13epoll_reactorEED2Ev
	.syntax unified
	.arm
	.fpu vfp
	.type	_ZN4asio6detail10service_idINS0_13epoll_reactorEED2Ev, %function
_ZN4asio6detail10service_idINS0_13epoll_reactorEED2Ev:
	.fnstart
.LFB7494:
	@ args = 0, pretend = 0, frame = 0
	@ frame_needed = 0, uses_anonymous_args = 0
	@ link register save eliminated.
	bx	lr
	.cantunwind
	.fnend
	.size	_ZN4asio6detail10service_idINS0_13epoll_reactorEED2Ev, .-_ZN4asio6detail10service_idINS0_13epoll_reactorEED2Ev
	.weak	_ZN4asio6detail10service_idINS0_13epoll_reactorEED1Ev
	.set	_ZN4asio6detail10service_idINS0_13epoll_reactorEED1Ev,_ZN4asio6detail10service_idINS0_13epoll_reactorEED2Ev
	.section	.text._ZN4asio6detail10service_idINS0_15task_io_serviceEED2Ev,"axG",%progbits,_ZN4asio6detail10service_idINS0_15task_io_serviceEED5Ev,comdat
	.align	2
	.weak	_ZN4asio6detail10service_idINS0_15task_io_serviceEED2Ev
	.syntax unified
	.arm
	.fpu vfp
	.type	_ZN4asio6detail10service_idINS0_15task_io_serviceEED2Ev, %function
_ZN4asio6detail10service_idINS0_15task_io_serviceEED2Ev:
	.fnstart
.LFB7497:
	@ args = 0, pretend = 0, frame = 0
	@ frame_needed = 0, uses_anonymous_args = 0
	@ link register save eliminated.
	bx	lr
	.cantunwind
	.fnend
	.size	_ZN4asio6detail10service_idINS0_15task_io_serviceEED2Ev, .-_ZN4asio6detail10service_idINS0_15task_io_serviceEED2Ev
	.weak	_ZN4asio6detail10service_idINS0_15task_io_serviceEED1Ev
	.set	_ZN4asio6detail10service_idINS0_15task_io_serviceEED1Ev,_ZN4asio6detail10service_idINS0_15task_io_serviceEED2Ev
	.section	.text._ZN4asio6detail10service_idINS0_14strand_serviceEED2Ev,"axG",%progbits,_ZN4asio6detail10service_idINS0_14strand_serviceEED5Ev,comdat
	.align	2
	.weak	_ZN4asio6detail10service_idINS0_14strand_serviceEED2Ev
	.syntax unified
	.arm
	.fpu vfp
	.type	_ZN4asio6detail10service_idINS0_14strand_serviceEED2Ev, %function
_ZN4asio6detail10service_idINS0_14strand_serviceEED2Ev:
	.fnstart
.LFB7503:
	@ args = 0, pretend = 0, frame = 0
	@ frame_needed = 0, uses_anonymous_args = 0
	@ link register save eliminated.
	bx	lr
	.cantunwind
	.fnend
	.size	_ZN4asio6detail10service_idINS0_14strand_serviceEED2Ev, .-_ZN4asio6detail10service_idINS0_14strand_serviceEED2Ev
	.weak	_ZN4asio6detail10service_idINS0_14strand_serviceEED1Ev
	.set	_ZN4asio6detail10service_idINS0_14strand_serviceEED1Ev,_ZN4asio6detail10service_idINS0_14strand_serviceEED2Ev
	.section	.text._ZN4asio6detail10service_idINS_22waitable_timer_serviceINSt6chrono3_V212steady_clockENS_11wait_traitsIS5_EEEEED2Ev,"axG",%progbits,_ZN4asio6detail10service_idINS_22waitable_timer_serviceINSt6chrono3_V212steady_clockENS_11wait_traitsIS5_EEEEED5Ev,comdat
	.align	2
	.weak	_ZN4asio6detail10service_idINS_22waitable_timer_serviceINSt6chrono3_V212steady_clockENS_11wait_traitsIS5_EEEEED2Ev
	.syntax unified
	.arm
	.fpu vfp
	.type	_ZN4asio6detail10service_idINS_22waitable_timer_serviceINSt6chrono3_V212steady_clockENS_11wait_traitsIS5_EEEEED2Ev, %function
_ZN4asio6detail10service_idINS_22waitable_timer_serviceINSt6chrono3_V212steady_clockENS_11wait_traitsIS5_EEEEED2Ev:
	.fnstart
.LFB7506:
	@ args = 0, pretend = 0, frame = 0
	@ frame_needed = 0, uses_anonymous_args = 0
	@ link register save eliminated.
	bx	lr
	.cantunwind
	.fnend
	.size	_ZN4asio6detail10service_idINS_22waitable_timer_serviceINSt6chrono3_V212steady_clockENS_11wait_traitsIS5_EEEEED2Ev, .-_ZN4asio6detail10service_idINS_22waitable_timer_serviceINSt6chrono3_V212steady_clockENS_11wait_traitsIS5_EEEEED2Ev
	.weak	_ZN4asio6detail10service_idINS_22waitable_timer_serviceINSt6chrono3_V212steady_clockENS_11wait_traitsIS5_EEEEED1Ev
	.set	_ZN4asio6detail10service_idINS_22waitable_timer_serviceINSt6chrono3_V212steady_clockENS_11wait_traitsIS5_EEEEED1Ev,_ZN4asio6detail10service_idINS_22waitable_timer_serviceINSt6chrono3_V212steady_clockENS_11wait_traitsIS5_EEEEED2Ev
	.section	.text._ZN4asio22waitable_timer_serviceINSt6chrono3_V212steady_clockENS_11wait_traitsIS3_EEE16shutdown_serviceEv,"axG",%progbits,_ZN4asio22waitable_timer_serviceINSt6chrono3_V212steady_clockENS_11wait_traitsIS3_EEE16shutdown_serviceEv,comdat
	.align	2
	.weak	_ZN4asio22waitable_timer_serviceINSt6chrono3_V212steady_clockENS_11wait_traitsIS3_EEE16shutdown_serviceEv
	.syntax unified
	.arm
	.fpu vfp
	.type	_ZN4asio22waitable_timer_serviceINSt6chrono3_V212steady_clockENS_11wait_traitsIS3_EEE16shutdown_serviceEv, %function
_ZN4asio22waitable_timer_serviceINSt6chrono3_V212steady_clockENS_11wait_traitsIS3_EEE16shutdown_serviceEv:
	.fnstart
.LFB7516:
	@ args = 0, pretend = 0, frame = 0
	@ frame_needed = 0, uses_anonymous_args = 0
	@ link register save eliminated.
	bx	lr
	.cantunwind
	.fnend
	.size	_ZN4asio22waitable_timer_serviceINSt6chrono3_V212steady_clockENS_11wait_traitsIS3_EEE16shutdown_serviceEv, .-_ZN4asio22waitable_timer_serviceINSt6chrono3_V212steady_clockENS_11wait_traitsIS3_EEE16shutdown_serviceEv
	.section	.text._ZNK4asio6detail11timer_queueINS0_18chrono_time_traitsINSt6chrono3_V212steady_clockENS_11wait_traitsIS5_EEEEE5emptyEv,"axG",%progbits,_ZNK4asio6detail11timer_queueINS0_18chrono_time_traitsINSt6chrono3_V212steady_clockENS_11wait_traitsIS5_EEEEE5emptyEv,comdat
	.align	2
	.weak	_ZNK4asio6detail11timer_queueINS0_18chrono_time_traitsINSt6chrono3_V212steady_clockENS_11wait_traitsIS5_EEEEE5emptyEv
	.syntax unified
	.arm
	.fpu vfp
	.type	_ZNK4asio6detail11timer_queueINS0_18chrono_time_traitsINSt6chrono3_V212steady_clockENS_11wait_traitsIS5_EEEEE5emptyEv, %function
_ZNK4asio6detail11timer_queueINS0_18chrono_time_traitsINSt6chrono3_V212steady_clockENS_11wait_traitsIS5_EEEEE5emptyEv:
	.fnstart
.LFB7517:
	@ args = 0, pretend = 0, frame = 0
	@ frame_needed = 0, uses_anonymous_args = 0
	@ link register save eliminated.
	ldr	r0, [r0, #8]
	clz	r0, r0
	lsr	r0, r0, #5
	bx	lr
	.cantunwind
	.fnend
	.size	_ZNK4asio6detail11timer_queueINS0_18chrono_time_traitsINSt6chrono3_V212steady_clockENS_11wait_traitsIS5_EEEEE5emptyEv, .-_ZNK4asio6detail11timer_queueINS0_18chrono_time_traitsINSt6chrono3_V212steady_clockENS_11wait_traitsIS5_EEEEE5emptyEv
	.section	.text._ZN4asio6detail11timer_queueINS0_18chrono_time_traitsINSt6chrono3_V212steady_clockENS_11wait_traitsIS5_EEEEE14get_all_timersERNS0_8op_queueINS0_25task_io_service_operationEEE,"axG",%progbits,_ZN4asio6detail11timer_queueINS0_18chrono_time_traitsINSt6chrono3_V212steady_clockENS_11wait_traitsIS5_EEEEE14get_all_timersERNS0_8op_queueINS0_25task_io_service_operationEEE,comdat
	.align	2
	.weak	_ZN4asio6detail11timer_queueINS0_18chrono_time_traitsINSt6chrono3_V212steady_clockENS_11wait_traitsIS5_EEEEE14get_all_timersERNS0_8op_queueINS0_25task_io_service_operationEEE
	.syntax unified
	.arm
	.fpu vfp
	.type	_ZN4asio6detail11timer_queueINS0_18chrono_time_traitsINSt6chrono3_V212steady_clockENS_11wait_traitsIS5_EEEEE14get_all_timersERNS0_8op_queueINS0_25task_io_service_operationEEE, %function
_ZN4asio6detail11timer_queueINS0_18chrono_time_traitsINSt6chrono3_V212steady_clockENS_11wait_traitsIS5_EEEEE14get_all_timersERNS0_8op_queueINS0_25task_io_service_operationEEE:
	.fnstart
.LFB7521:
	@ args = 0, pretend = 0, frame = 0
	@ frame_needed = 0, uses_anonymous_args = 0
	ldr	r3, [r0, #8]
	cmp	r3, #0
	beq	.L36
	mov	r2, #0
	push	{r4, lr}
.L25:
	ldr	lr, [r3]
	ldr	ip, [r3, #12]
	cmp	lr, #0
	beq	.L22
	ldr	r4, [r1, #4]
	cmp	r4, #0
	strne	lr, [r4]
	streq	lr, [r1]
	ldr	lr, [r3, #4]
	str	lr, [r1, #4]
	str	r2, [r3]
	str	r2, [r3, #4]
.L22:
	cmp	ip, #0
	str	r2, [r3, #12]
	str	r2, [r3, #16]
	mov	r3, ip
	bne	.L25
	ldr	r3, [r0, #12]
	str	ip, [r0, #8]
	str	r3, [r0, #16]
	pop	{r4, pc}
.L36:
	ldr	r3, [r0, #12]
	str	r3, [r0, #16]
	bx	lr
	.cantunwind
	.fnend
	.size	_ZN4asio6detail11timer_queueINS0_18chrono_time_traitsINSt6chrono3_V212steady_clockENS_11wait_traitsIS5_EEEEE14get_all_timersERNS0_8op_queueINS0_25task_io_service_operationEEE, .-_ZN4asio6detail11timer_queueINS0_18chrono_time_traitsINSt6chrono3_V212steady_clockENS_11wait_traitsIS5_EEEEE14get_all_timersERNS0_8op_queueINS0_25task_io_service_operationEEE
	.section	.text._ZN4asio6detail15system_categoryD2Ev,"axG",%progbits,_ZN4asio6detail15system_categoryD5Ev,comdat
	.align	2
	.weak	_ZN4asio6detail15system_categoryD2Ev
	.syntax unified
	.arm
	.fpu vfp
	.type	_ZN4asio6detail15system_categoryD2Ev, %function
_ZN4asio6detail15system_categoryD2Ev:
	.fnstart
.LFB7470:
	@ args = 0, pretend = 0, frame = 0
	@ frame_needed = 0, uses_anonymous_args = 0
	ldr	r3, .L39
	ldr	r2, .L39+4
.LPIC4:
	add	r3, pc, r3
	push	{r4, lr}
	mov	r4, r0
	ldr	r3, [r3, r2]
	add	r3, r3, #8
	str	r3, [r0]
	bl	_ZNSt3_V214error_categoryD2Ev(PLT)
	mov	r0, r4
	pop	{r4, pc}
.L40:
	.align	2
.L39:
	.word	_GLOBAL_OFFSET_TABLE_-(.LPIC4+8)
	.word	_ZTVN4asio6detail15system_categoryE(GOT)
	.cantunwind
	.fnend
	.size	_ZN4asio6detail15system_categoryD2Ev, .-_ZN4asio6detail15system_categoryD2Ev
	.weak	_ZN4asio6detail15system_categoryD1Ev
	.set	_ZN4asio6detail15system_categoryD1Ev,_ZN4asio6detail15system_categoryD2Ev
	.section	.text._ZN4asio5error6detail14netdb_categoryD2Ev,"axG",%progbits,_ZN4asio5error6detail14netdb_categoryD5Ev,comdat
	.align	2
	.weak	_ZN4asio5error6detail14netdb_categoryD2Ev
	.syntax unified
	.arm
	.fpu vfp
	.type	_ZN4asio5error6detail14netdb_categoryD2Ev, %function
_ZN4asio5error6detail14netdb_categoryD2Ev:
	.fnstart
.LFB7466:
	@ args = 0, pretend = 0, frame = 0
	@ frame_needed = 0, uses_anonymous_args = 0
	ldr	r3, .L43
	ldr	r2, .L43+4
.LPIC5:
	add	r3, pc, r3
	push	{r4, lr}
	mov	r4, r0
	ldr	r3, [r3, r2]
	add	r3, r3, #8
	str	r3, [r0]
	bl	_ZNSt3_V214error_categoryD2Ev(PLT)
	mov	r0, r4
	pop	{r4, pc}
.L44:
	.align	2
.L43:
	.word	_GLOBAL_OFFSET_TABLE_-(.LPIC5+8)
	.word	_ZTVN4asio5error6detail14netdb_categoryE(GOT)
	.cantunwind
	.fnend
	.size	_ZN4asio5error6detail14netdb_categoryD2Ev, .-_ZN4asio5error6detail14netdb_categoryD2Ev
	.weak	_ZN4asio5error6detail14netdb_categoryD1Ev
	.set	_ZN4asio5error6detail14netdb_categoryD1Ev,_ZN4asio5error6detail14netdb_categoryD2Ev
	.section	.text._ZN4asio5error6detail17addrinfo_categoryD2Ev,"axG",%progbits,_ZN4asio5error6detail17addrinfo_categoryD5Ev,comdat
	.align	2
	.weak	_ZN4asio5error6detail17addrinfo_categoryD2Ev
	.syntax unified
	.arm
	.fpu vfp
	.type	_ZN4asio5error6detail17addrinfo_categoryD2Ev, %function
_ZN4asio5error6detail17addrinfo_categoryD2Ev:
	.fnstart
.LFB7462:
	@ args = 0, pretend = 0, frame = 0
	@ frame_needed = 0, uses_anonymous_args = 0
	ldr	r3, .L47
	ldr	r2, .L47+4
.LPIC6:
	add	r3, pc, r3
	push	{r4, lr}
	mov	r4, r0
	ldr	r3, [r3, r2]
	add	r3, r3, #8
	str	r3, [r0]
	bl	_ZNSt3_V214error_categoryD2Ev(PLT)
	mov	r0, r4
	pop	{r4, pc}
.L48:
	.align	2
.L47:
	.word	_GLOBAL_OFFSET_TABLE_-(.LPIC6+8)
	.word	_ZTVN4asio5error6detail17addrinfo_categoryE(GOT)
	.cantunwind
	.fnend
	.size	_ZN4asio5error6detail17addrinfo_categoryD2Ev, .-_ZN4asio5error6detail17addrinfo_categoryD2Ev
	.weak	_ZN4asio5error6detail17addrinfo_categoryD1Ev
	.set	_ZN4asio5error6detail17addrinfo_categoryD1Ev,_ZN4asio5error6detail17addrinfo_categoryD2Ev
	.section	.text._ZN4asio5error6detail13misc_categoryD2Ev,"axG",%progbits,_ZN4asio5error6detail13misc_categoryD5Ev,comdat
	.align	2
	.weak	_ZN4asio5error6detail13misc_categoryD2Ev
	.syntax unified
	.arm
	.fpu vfp
	.type	_ZN4asio5error6detail13misc_categoryD2Ev, %function
_ZN4asio5error6detail13misc_categoryD2Ev:
	.fnstart
.LFB7458:
	@ args = 0, pretend = 0, frame = 0
	@ frame_needed = 0, uses_anonymous_args = 0
	ldr	r3, .L51
	ldr	r2, .L51+4
.LPIC7:
	add	r3, pc, r3
	push	{r4, lr}
	mov	r4, r0
	ldr	r3, [r3, r2]
	add	r3, r3, #8
	str	r3, [r0]
	bl	_ZNSt3_V214error_categoryD2Ev(PLT)
	mov	r0, r4
	pop	{r4, pc}
.L52:
	.align	2
.L51:
	.word	_GLOBAL_OFFSET_TABLE_-(.LPIC7+8)
	.word	_ZTVN4asio5error6detail13misc_categoryE(GOT)
	.cantunwind
	.fnend
	.size	_ZN4asio5error6detail13misc_categoryD2Ev, .-_ZN4asio5error6detail13misc_categoryD2Ev
	.weak	_ZN4asio5error6detail13misc_categoryD1Ev
	.set	_ZN4asio5error6detail13misc_categoryD1Ev,_ZN4asio5error6detail13misc_categoryD2Ev
	.section	.text._ZN4asio6detail11timer_queueINS0_18chrono_time_traitsINSt6chrono3_V212steady_clockENS_11wait_traitsIS5_EEEEED2Ev,"axG",%progbits,_ZN4asio6detail11timer_queueINS0_18chrono_time_traitsINSt6chrono3_V212steady_clockENS_11wait_traitsIS5_EEEEED5Ev,comdat
	.align	2
	.weak	_ZN4asio6detail11timer_queueINS0_18chrono_time_traitsINSt6chrono3_V212steady_clockENS_11wait_traitsIS5_EEEEED2Ev
	.syntax unified
	.arm
	.fpu vfp
	.type	_ZN4asio6detail11timer_queueINS0_18chrono_time_traitsINSt6chrono3_V212steady_clockENS_11wait_traitsIS5_EEEEED2Ev, %function
_ZN4asio6detail11timer_queueINS0_18chrono_time_traitsINSt6chrono3_V212steady_clockENS_11wait_traitsIS5_EEEEED2Ev:
	.fnstart
.LFB7347:
	@ args = 0, pretend = 0, frame = 0
	@ frame_needed = 0, uses_anonymous_args = 0
	ldr	r3, .L59
	ldr	r2, .L59+4
.LPIC8:
	add	r3, pc, r3
	push	{r4, lr}
	mov	r4, r0
	ldr	r3, [r3, r2]
	ldr	r0, [r0, #12]
	add	r3, r3, #8
	cmp	r0, #0
	str	r3, [r4]
	beq	.L54
	bl	_ZdlPv(PLT)
.L54:
	mov	r0, r4
	pop	{r4, pc}
.L60:
	.align	2
.L59:
	.word	_GLOBAL_OFFSET_TABLE_-(.LPIC8+8)
	.word	_ZTVN4asio6detail11timer_queueINS0_18chrono_time_traitsINSt6chrono3_V212steady_clockENS_11wait_traitsIS5_EEEEEE(GOT)
	.cantunwind
	.fnend
	.size	_ZN4asio6detail11timer_queueINS0_18chrono_time_traitsINSt6chrono3_V212steady_clockENS_11wait_traitsIS5_EEEEED2Ev, .-_ZN4asio6detail11timer_queueINS0_18chrono_time_traitsINSt6chrono3_V212steady_clockENS_11wait_traitsIS5_EEEEED2Ev
	.weak	_ZN4asio6detail11timer_queueINS0_18chrono_time_traitsINSt6chrono3_V212steady_clockENS_11wait_traitsIS5_EEEEED1Ev
	.set	_ZN4asio6detail11timer_queueINS0_18chrono_time_traitsINSt6chrono3_V212steady_clockENS_11wait_traitsIS5_EEEEED1Ev,_ZN4asio6detail11timer_queueINS0_18chrono_time_traitsINSt6chrono3_V212steady_clockENS_11wait_traitsIS5_EEEEED2Ev
	.section	.text._ZN4asio6detail15system_categoryD0Ev,"axG",%progbits,_ZN4asio6detail15system_categoryD5Ev,comdat
	.align	2
	.weak	_ZN4asio6detail15system_categoryD0Ev
	.syntax unified
	.arm
	.fpu vfp
	.type	_ZN4asio6detail15system_categoryD0Ev, %function
_ZN4asio6detail15system_categoryD0Ev:
	.fnstart
.LFB7472:
	@ args = 0, pretend = 0, frame = 0
	@ frame_needed = 0, uses_anonymous_args = 0
	ldr	r3, .L63
	ldr	r2, .L63+4
.LPIC9:
	add	r3, pc, r3
	push	{r4, lr}
	mov	r4, r0
	ldr	r3, [r3, r2]
	add	r3, r3, #8
	str	r3, [r0]
	bl	_ZNSt3_V214error_categoryD2Ev(PLT)
	mov	r0, r4
	mov	r1, #4
	bl	_ZdlPvj(PLT)
	mov	r0, r4
	pop	{r4, pc}
.L64:
	.align	2
.L63:
	.word	_GLOBAL_OFFSET_TABLE_-(.LPIC9+8)
	.word	_ZTVN4asio6detail15system_categoryE(GOT)
	.cantunwind
	.fnend
	.size	_ZN4asio6detail15system_categoryD0Ev, .-_ZN4asio6detail15system_categoryD0Ev
	.section	.text._ZN4asio5error6detail14netdb_categoryD0Ev,"axG",%progbits,_ZN4asio5error6detail14netdb_categoryD5Ev,comdat
	.align	2
	.weak	_ZN4asio5error6detail14netdb_categoryD0Ev
	.syntax unified
	.arm
	.fpu vfp
	.type	_ZN4asio5error6detail14netdb_categoryD0Ev, %function
_ZN4asio5error6detail14netdb_categoryD0Ev:
	.fnstart
.LFB7468:
	@ args = 0, pretend = 0, frame = 0
	@ frame_needed = 0, uses_anonymous_args = 0
	ldr	r3, .L67
	ldr	r2, .L67+4
.LPIC10:
	add	r3, pc, r3
	push	{r4, lr}
	mov	r4, r0
	ldr	r3, [r3, r2]
	add	r3, r3, #8
	str	r3, [r0]
	bl	_ZNSt3_V214error_categoryD2Ev(PLT)
	mov	r0, r4
	mov	r1, #4
	bl	_ZdlPvj(PLT)
	mov	r0, r4
	pop	{r4, pc}
.L68:
	.align	2
.L67:
	.word	_GLOBAL_OFFSET_TABLE_-(.LPIC10+8)
	.word	_ZTVN4asio5error6detail14netdb_categoryE(GOT)
	.cantunwind
	.fnend
	.size	_ZN4asio5error6detail14netdb_categoryD0Ev, .-_ZN4asio5error6detail14netdb_categoryD0Ev
	.section	.text._ZN4asio5error6detail17addrinfo_categoryD0Ev,"axG",%progbits,_ZN4asio5error6detail17addrinfo_categoryD5Ev,comdat
	.align	2
	.weak	_ZN4asio5error6detail17addrinfo_categoryD0Ev
	.syntax unified
	.arm
	.fpu vfp
	.type	_ZN4asio5error6detail17addrinfo_categoryD0Ev, %function
_ZN4asio5error6detail17addrinfo_categoryD0Ev:
	.fnstart
.LFB7464:
	@ args = 0, pretend = 0, frame = 0
	@ frame_needed = 0, uses_anonymous_args = 0
	ldr	r3, .L71
	ldr	r2, .L71+4
.LPIC11:
	add	r3, pc, r3
	push	{r4, lr}
	mov	r4, r0
	ldr	r3, [r3, r2]
	add	r3, r3, #8
	str	r3, [r0]
	bl	_ZNSt3_V214error_categoryD2Ev(PLT)
	mov	r0, r4
	mov	r1, #4
	bl	_ZdlPvj(PLT)
	mov	r0, r4
	pop	{r4, pc}
.L72:
	.align	2
.L71:
	.word	_GLOBAL_OFFSET_TABLE_-(.LPIC11+8)
	.word	_ZTVN4asio5error6detail17addrinfo_categoryE(GOT)
	.cantunwind
	.fnend
	.size	_ZN4asio5error6detail17addrinfo_categoryD0Ev, .-_ZN4asio5error6detail17addrinfo_categoryD0Ev
	.section	.text._ZN4asio5error6detail13misc_categoryD0Ev,"axG",%progbits,_ZN4asio5error6detail13misc_categoryD5Ev,comdat
	.align	2
	.weak	_ZN4asio5error6detail13misc_categoryD0Ev
	.syntax unified
	.arm
	.fpu vfp
	.type	_ZN4asio5error6detail13misc_categoryD0Ev, %function
_ZN4asio5error6detail13misc_categoryD0Ev:
	.fnstart
.LFB7460:
	@ args = 0, pretend = 0, frame = 0
	@ frame_needed = 0, uses_anonymous_args = 0
	ldr	r3, .L75
	ldr	r2, .L75+4
.LPIC12:
	add	r3, pc, r3
	push	{r4, lr}
	mov	r4, r0
	ldr	r3, [r3, r2]
	add	r3, r3, #8
	str	r3, [r0]
	bl	_ZNSt3_V214error_categoryD2Ev(PLT)
	mov	r0, r4
	mov	r1, #4
	bl	_ZdlPvj(PLT)
	mov	r0, r4
	pop	{r4, pc}
.L76:
	.align	2
.L75:
	.word	_GLOBAL_OFFSET_TABLE_-(.LPIC12+8)
	.word	_ZTVN4asio5error6detail13misc_categoryE(GOT)
	.cantunwind
	.fnend
	.size	_ZN4asio5error6detail13misc_categoryD0Ev, .-_ZN4asio5error6detail13misc_categoryD0Ev
	.section	.text._ZN4asio6detail11timer_queueINS0_18chrono_time_traitsINSt6chrono3_V212steady_clockENS_11wait_traitsIS5_EEEEED0Ev,"axG",%progbits,_ZN4asio6detail11timer_queueINS0_18chrono_time_traitsINSt6chrono3_V212steady_clockENS_11wait_traitsIS5_EEEEED5Ev,comdat
	.align	2
	.weak	_ZN4asio6detail11timer_queueINS0_18chrono_time_traitsINSt6chrono3_V212steady_clockENS_11wait_traitsIS5_EEEEED0Ev
	.syntax unified
	.arm
	.fpu vfp
	.type	_ZN4asio6detail11timer_queueINS0_18chrono_time_traitsINSt6chrono3_V212steady_clockENS_11wait_traitsIS5_EEEEED0Ev, %function
_ZN4asio6detail11timer_queueINS0_18chrono_time_traitsINSt6chrono3_V212steady_clockENS_11wait_traitsIS5_EEEEED0Ev:
	.fnstart
.LFB7349:
	@ args = 0, pretend = 0, frame = 0
	@ frame_needed = 0, uses_anonymous_args = 0
	ldr	r3, .L83
	ldr	r2, .L83+4
.LPIC13:
	add	r3, pc, r3
	push	{r4, lr}
	mov	r4, r0
	ldr	r3, [r3, r2]
	ldr	r0, [r0, #12]
	add	r3, r3, #8
	cmp	r0, #0
	str	r3, [r4]
	beq	.L78
	bl	_ZdlPv(PLT)
.L78:
	mov	r0, r4
	mov	r1, #24
	bl	_ZdlPvj(PLT)
	mov	r0, r4
	pop	{r4, pc}
.L84:
	.align	2
.L83:
	.word	_GLOBAL_OFFSET_TABLE_-(.LPIC13+8)
	.word	_ZTVN4asio6detail11timer_queueINS0_18chrono_time_traitsINSt6chrono3_V212steady_clockENS_11wait_traitsIS5_EEEEEE(GOT)
	.cantunwind
	.fnend
	.size	_ZN4asio6detail11timer_queueINS0_18chrono_time_traitsINSt6chrono3_V212steady_clockENS_11wait_traitsIS5_EEEEED0Ev, .-_ZN4asio6detail11timer_queueINS0_18chrono_time_traitsINSt6chrono3_V212steady_clockENS_11wait_traitsIS5_EEEEED0Ev
	.section	.text._ZN4asio22waitable_timer_serviceINSt6chrono3_V212steady_clockENS_11wait_traitsIS3_EEED0Ev,"axG",%progbits,_ZN4asio22waitable_timer_serviceINSt6chrono3_V212steady_clockENS_11wait_traitsIS3_EEED5Ev,comdat
	.align	2
	.weak	_ZN4asio22waitable_timer_serviceINSt6chrono3_V212steady_clockENS_11wait_traitsIS3_EEED0Ev
	.syntax unified
	.arm
	.fpu vfp
	.type	_ZN4asio22waitable_timer_serviceINSt6chrono3_V212steady_clockENS_11wait_traitsIS3_EEED0Ev, %function
_ZN4asio22waitable_timer_serviceINSt6chrono3_V212steady_clockENS_11wait_traitsIS3_EEED0Ev:
	.fnstart
.LFB7436:
	@ args = 0, pretend = 0, frame = 0
	@ frame_needed = 0, uses_anonymous_args = 0
	push	{r4, r5, r6, r7, r8, lr}
	mov	r4, r0
	ldr	r6, .L104
	ldr	r3, .L104+4
.LPIC14:
	add	r6, pc, r6
	ldr	r7, [r0, #44]
	ldr	r3, [r6, r3]
	add	r8, r7, #24
	add	r3, r3, #8
	mov	r5, r0
	str	r3, [r4], #20
	mov	r0, r8
	bl	pthread_mutex_lock(PLT)
	ldr	r2, [r7, #64]
	cmp	r2, #0
	beq	.L86
	cmp	r4, r2
	bne	.L88
	b	.L101
.L103:
	cmp	r4, r3
	beq	.L102
	mov	r2, r3
.L88:
	ldr	r3, [r2, #4]
	cmp	r3, #0
	bne	.L103
.L86:
	mov	r0, r8
	bl	pthread_mutex_unlock(PLT)
	ldr	r3, .L104+8
	ldr	r0, [r5, #32]
	ldr	r3, [r6, r3]
	cmp	r0, #0
	add	r3, r3, #8
	str	r3, [r5, #20]
	beq	.L89
	bl	_ZdlPv(PLT)
.L89:
	mov	r0, r5
	mov	r1, #48
	bl	_ZdlPvj(PLT)
	mov	r0, r5
	pop	{r4, r5, r6, r7, r8, pc}
.L102:
	ldr	r1, [r5, #24]
	mov	r3, #0
	str	r1, [r2, #4]
	str	r3, [r5, #24]
	b	.L86
.L101:
	ldr	r2, [r5, #24]
	mov	r3, #0
	str	r2, [r7, #64]
	str	r3, [r5, #24]
	b	.L86
.L105:
	.align	2
.L104:
	.word	_GLOBAL_OFFSET_TABLE_-(.LPIC14+8)
	.word	_ZTVN4asio22waitable_timer_serviceINSt6chrono3_V212steady_clockENS_11wait_traitsIS3_EEEE(GOT)
	.word	_ZTVN4asio6detail11timer_queueINS0_18chrono_time_traitsINSt6chrono3_V212steady_clockENS_11wait_traitsIS5_EEEEEE(GOT)
	.cantunwind
	.fnend
	.size	_ZN4asio22waitable_timer_serviceINSt6chrono3_V212steady_clockENS_11wait_traitsIS3_EEED0Ev, .-_ZN4asio22waitable_timer_serviceINSt6chrono3_V212steady_clockENS_11wait_traitsIS3_EEED0Ev
	.global	__aeabi_ldivmod
	.text
	.align	2
	.global	_ZN7asiopal5Timer9ExpiresAtEv
	.syntax unified
	.arm
	.fpu vfp
	.type	_ZN7asiopal5Timer9ExpiresAtEv, %function
_ZN7asiopal5Timer9ExpiresAtEv:
	.fnstart
.LFB6235:
	@ args = 0, pretend = 0, frame = 0
	@ frame_needed = 0, uses_anonymous_args = 0
	push	{r4, lr}
	.save {r4, lr}
	mov	r3, #0
	mov	r4, r0
	ldr	r2, .L108
	ldrd	r0, [r1, #16]
	bl	__aeabi_ldivmod(PLT)
	mov	r2, r0
	mov	r3, r1
	mov	r0, r4
	bl	_ZN7openpal18MonotonicTimestampC1Ex(PLT)
	mov	r0, r4
	pop	{r4, pc}
.L109:
	.align	2
.L108:
	.word	1000000
	.fnend
	.size	_ZN7asiopal5Timer9ExpiresAtEv, .-_ZN7asiopal5Timer9ExpiresAtEv
	.section	.text._ZN4asio6detail7tss_ptrINS0_10call_stackINS0_15task_io_serviceENS0_27task_io_service_thread_infoEE7contextEED2Ev,"axG",%progbits,_ZN4asio6detail7tss_ptrINS0_10call_stackINS0_15task_io_serviceENS0_27task_io_service_thread_infoEE7contextEED5Ev,comdat
	.align	2
	.weak	_ZN4asio6detail7tss_ptrINS0_10call_stackINS0_15task_io_serviceENS0_27task_io_service_thread_infoEE7contextEED2Ev
	.syntax unified
	.arm
	.fpu vfp
	.type	_ZN4asio6detail7tss_ptrINS0_10call_stackINS0_15task_io_serviceENS0_27task_io_service_thread_infoEE7contextEED2Ev, %function
_ZN4asio6detail7tss_ptrINS0_10call_stackINS0_15task_io_serviceENS0_27task_io_service_thread_infoEE7contextEED2Ev:
	.fnstart
.LFB7491:
	@ args = 0, pretend = 0, frame = 0
	@ frame_needed = 0, uses_anonymous_args = 0
	push	{r4, lr}
	mov	r4, r0
	ldr	r0, [r0]
	bl	pthread_key_delete(PLT)
	mov	r0, r4
	pop	{r4, pc}
	.cantunwind
	.fnend
	.size	_ZN4asio6detail7tss_ptrINS0_10call_stackINS0_15task_io_serviceENS0_27task_io_service_thread_infoEE7contextEED2Ev, .-_ZN4asio6detail7tss_ptrINS0_10call_stackINS0_15task_io_serviceENS0_27task_io_service_thread_infoEE7contextEED2Ev
	.weak	_ZN4asio6detail7tss_ptrINS0_10call_stackINS0_15task_io_serviceENS0_27task_io_service_thread_infoEE7contextEED1Ev
	.set	_ZN4asio6detail7tss_ptrINS0_10call_stackINS0_15task_io_serviceENS0_27task_io_service_thread_infoEE7contextEED1Ev,_ZN4asio6detail7tss_ptrINS0_10call_stackINS0_15task_io_serviceENS0_27task_io_service_thread_infoEE7contextEED2Ev
	.section	.text._ZN4asio6detail7tss_ptrINS0_10call_stackINS0_14strand_service11strand_implEhE7contextEED2Ev,"axG",%progbits,_ZN4asio6detail7tss_ptrINS0_10call_stackINS0_14strand_service11strand_implEhE7contextEED5Ev,comdat
	.align	2
	.weak	_ZN4asio6detail7tss_ptrINS0_10call_stackINS0_14strand_service11strand_implEhE7contextEED2Ev
	.syntax unified
	.arm
	.fpu vfp
	.type	_ZN4asio6detail7tss_ptrINS0_10call_stackINS0_14strand_service11strand_implEhE7contextEED2Ev, %function
_ZN4asio6detail7tss_ptrINS0_10call_stackINS0_14strand_service11strand_implEhE7contextEED2Ev:
	.fnstart
.LFB7500:
	@ args = 0, pretend = 0, frame = 0
	@ frame_needed = 0, uses_anonymous_args = 0
	push	{r4, lr}
	mov	r4, r0
	ldr	r0, [r0]
	bl	pthread_key_delete(PLT)
	mov	r0, r4
	pop	{r4, pc}
	.cantunwind
	.fnend
	.size	_ZN4asio6detail7tss_ptrINS0_10call_stackINS0_14strand_service11strand_implEhE7contextEED2Ev, .-_ZN4asio6detail7tss_ptrINS0_10call_stackINS0_14strand_service11strand_implEhE7contextEED2Ev
	.weak	_ZN4asio6detail7tss_ptrINS0_10call_stackINS0_14strand_service11strand_implEhE7contextEED1Ev
	.set	_ZN4asio6detail7tss_ptrINS0_10call_stackINS0_14strand_service11strand_implEhE7contextEED1Ev,_ZN4asio6detail7tss_ptrINS0_10call_stackINS0_14strand_service11strand_implEhE7contextEED2Ev
	.section	.text._ZN4asio22waitable_timer_serviceINSt6chrono3_V212steady_clockENS_11wait_traitsIS3_EEED2Ev,"axG",%progbits,_ZN4asio22waitable_timer_serviceINSt6chrono3_V212steady_clockENS_11wait_traitsIS3_EEED5Ev,comdat
	.align	2
	.weak	_ZN4asio22waitable_timer_serviceINSt6chrono3_V212steady_clockENS_11wait_traitsIS3_EEED2Ev
	.syntax unified
	.arm
	.fpu vfp
	.type	_ZN4asio22waitable_timer_serviceINSt6chrono3_V212steady_clockENS_11wait_traitsIS3_EEED2Ev, %function
_ZN4asio22waitable_timer_serviceINSt6chrono3_V212steady_clockENS_11wait_traitsIS3_EEED2Ev:
	.fnstart
.LFB7434:
	@ args = 0, pretend = 0, frame = 0
	@ frame_needed = 0, uses_anonymous_args = 0
	push	{r4, r5, r6, r7, r8, lr}
	mov	r4, r0
	ldr	r6, .L133
	ldr	r3, .L133+4
.LPIC15:
	add	r6, pc, r6
	ldr	r7, [r0, #44]
	ldr	r3, [r6, r3]
	add	r8, r7, #24
	add	r3, r3, #8
	mov	r5, r0
	str	r3, [r4], #20
	mov	r0, r8
	bl	pthread_mutex_lock(PLT)
	ldr	r2, [r7, #64]
	cmp	r2, #0
	beq	.L115
	cmp	r4, r2
	bne	.L117
	b	.L130
.L132:
	cmp	r4, r3
	beq	.L131
	mov	r2, r3
.L117:
	ldr	r3, [r2, #4]
	cmp	r3, #0
	bne	.L132
.L115:
	mov	r0, r8
	bl	pthread_mutex_unlock(PLT)
	ldr	r3, .L133+8
	ldr	r0, [r5, #32]
	ldr	r3, [r6, r3]
	cmp	r0, #0
	add	r3, r3, #8
	str	r3, [r5, #20]
	beq	.L118
	bl	_ZdlPv(PLT)
.L118:
	mov	r0, r5
	pop	{r4, r5, r6, r7, r8, pc}
.L131:
	ldr	r1, [r5, #24]
	mov	r3, #0
	str	r1, [r2, #4]
	str	r3, [r5, #24]
	b	.L115
.L130:
	ldr	r2, [r5, #24]
	mov	r3, #0
	str	r2, [r7, #64]
	str	r3, [r5, #24]
	b	.L115
.L134:
	.align	2
.L133:
	.word	_GLOBAL_OFFSET_TABLE_-(.LPIC15+8)
	.word	_ZTVN4asio22waitable_timer_serviceINSt6chrono3_V212steady_clockENS_11wait_traitsIS3_EEEE(GOT)
	.word	_ZTVN4asio6detail11timer_queueINS0_18chrono_time_traitsINSt6chrono3_V212steady_clockENS_11wait_traitsIS5_EEEEEE(GOT)
	.cantunwind
	.fnend
	.size	_ZN4asio22waitable_timer_serviceINSt6chrono3_V212steady_clockENS_11wait_traitsIS3_EEED2Ev, .-_ZN4asio22waitable_timer_serviceINSt6chrono3_V212steady_clockENS_11wait_traitsIS3_EEED2Ev
	.weak	_ZN4asio22waitable_timer_serviceINSt6chrono3_V212steady_clockENS_11wait_traitsIS3_EEED1Ev
	.set	_ZN4asio22waitable_timer_serviceINSt6chrono3_V212steady_clockENS_11wait_traitsIS3_EEED1Ev,_ZN4asio22waitable_timer_serviceINSt6chrono3_V212steady_clockENS_11wait_traitsIS3_EEED2Ev
	.section	.text._ZN4asio6detail13epoll_reactorD0Ev,"axG",%progbits,_ZN4asio6detail13epoll_reactorD5Ev,comdat
	.align	2
	.weak	_ZN4asio6detail13epoll_reactorD0Ev
	.syntax unified
	.arm
	.fpu vfp
	.type	_ZN4asio6detail13epoll_reactorD0Ev, %function
_ZN4asio6detail13epoll_reactorD0Ev:
	.fnstart
.LFB3026:
	@ args = 0, pretend = 0, frame = 16
	@ frame_needed = 0, uses_anonymous_args = 0
	ldr	r3, .L188
	ldr	r2, .L188+4
	push	{r4, r5, r6, r7, r8, r9, r10, fp, lr}
	.save {r4, r5, r6, r7, r8, r9, r10, fp, lr}
.LPIC24:
	add	r3, pc, r3
	.pad #20
	sub	sp, sp, #20
	str	r0, [sp, #4]
	ldr	r3, [r3, r2]
	mov	r2, r0
	ldr	r0, [r0, #56]
	add	r3, r3, #8
	cmn	r0, #1
	str	r3, [r2]
	beq	.L136
	bl	close(PLT)
.L136:
	ldr	r3, [sp, #4]
	ldr	r0, [r3, #60]
	cmn	r0, #1
	beq	.L137
	bl	close(PLT)
	ldr	r3, [sp, #4]
.L137:
	ldr	r10, [r3, #96]
	cmp	r10, #0
	addne	r8, sp, #8
	movne	r5, #0
	beq	.L147
.L148:
	ldr	fp, [r10, #12]
	add	r9, r10, #56
	add	r4, r10, #80
.L143:
	ldr	r1, [r4, #-8]
	cmp	r1, #0
	beq	.L145
	str	r1, [sp]
	bl	_ZNSt3_V215system_categoryEv(PLT)
	ldr	r1, [sp]
	mov	r7, r0
.L146:
	ldr	r3, [r1]
	ldr	r6, [r1, #4]
	cmp	r3, #0
	streq	r3, [r4, #-4]
	str	r3, [r4, #-8]
	mov	r3, #0
	str	r5, [r1]
	mov	r0, r3
	str	r5, [sp, #8]
	str	r7, [sp, #12]
	mov	r2, r8
	blx	r6
	ldr	r1, [r4, #-8]
	cmp	r1, #0
	bne	.L146
.L145:
	sub	r4, r4, #8
	cmp	r9, r4
	bne	.L143
	add	r0, r10, #20
	bl	pthread_mutex_destroy(PLT)
	mov	r0, r10
	mov	r1, #84
	bl	_ZdlPvj(PLT)
	subs	r10, fp, #0
	bne	.L148
	ldr	r3, [sp, #4]
.L147:
	ldr	r10, [r3, #100]
	cmp	r10, #0
	moveq	r4, r3
	beq	.L139
	add	r8, sp, #8
	mov	r5, #0
.L157:
	ldr	fp, [r10, #12]
	add	r9, r10, #56
	add	r4, r10, #80
.L153:
	ldr	r1, [r4, #-8]
	cmp	r1, #0
	beq	.L155
	str	r1, [sp]
	bl	_ZNSt3_V215system_categoryEv(PLT)
	ldr	r1, [sp]
	mov	r7, r0
.L156:
	ldr	r3, [r1]
	ldr	r6, [r1, #4]
	cmp	r3, #0
	streq	r3, [r4, #-4]
	str	r3, [r4, #-8]
	mov	r3, #0
	str	r5, [r1]
	mov	r0, r3
	str	r5, [sp, #8]
	str	r7, [sp, #12]
	mov	r2, r8
	blx	r6
	ldr	r1, [r4, #-8]
	cmp	r1, #0
	bne	.L156
.L155:
	sub	r4, r4, #8
	cmp	r9, r4
	bne	.L153
	add	r0, r10, #20
	bl	pthread_mutex_destroy(PLT)
	mov	r0, r10
	mov	r1, #84
	bl	_ZdlPvj(PLT)
	subs	r10, fp, #0
	bne	.L157
	ldr	r4, [sp, #4]
.L139:
	add	r0, r4, #72
	bl	pthread_mutex_destroy(PLT)
	ldr	r0, [r4, #52]
	cmn	r0, #1
	beq	.L150
	ldr	r3, [sp, #4]
	ldr	r3, [r3, #48]
	cmp	r0, r3
	beq	.L158
	bl	close(PLT)
.L150:
	ldr	r3, [sp, #4]
	ldr	r3, [r3, #48]
	cmn	r3, #1
	beq	.L159
.L158:
	mov	r0, r3
	bl	close(PLT)
.L159:
	ldr	r4, [sp, #4]
	add	r0, r4, #24
	bl	pthread_mutex_destroy(PLT)
	mov	r0, r4
	mov	r1, #104
	bl	_ZdlPvj(PLT)
	mov	r0, r4
	add	sp, sp, #20
	@ sp needed
	pop	{r4, r5, r6, r7, r8, r9, r10, fp, pc}
.L189:
	.align	2
.L188:
	.word	_GLOBAL_OFFSET_TABLE_-(.LPIC24+8)
	.word	_ZTVN4asio6detail13epoll_reactorE(GOT)
	.global	__gxx_personality_v0
	.personality	__gxx_personality_v0
	.handlerdata
.LLSDA3026:
	.byte	0xff
	.byte	0xff
	.byte	0x1
	.uleb128 .LLSDACSE3026-.LLSDACSB3026
.LLSDACSB3026:
.LLSDACSE3026:
	.section	.text._ZN4asio6detail13epoll_reactorD0Ev,"axG",%progbits,_ZN4asio6detail13epoll_reactorD5Ev,comdat
	.fnend
	.size	_ZN4asio6detail13epoll_reactorD0Ev, .-_ZN4asio6detail13epoll_reactorD0Ev
	.section	.text._ZN4asio6detail13epoll_reactorD2Ev,"axG",%progbits,_ZN4asio6detail13epoll_reactorD5Ev,comdat
	.align	2
	.weak	_ZN4asio6detail13epoll_reactorD2Ev
	.syntax unified
	.arm
	.fpu vfp
	.type	_ZN4asio6detail13epoll_reactorD2Ev, %function
_ZN4asio6detail13epoll_reactorD2Ev:
	.fnstart
.LFB3024:
	@ args = 0, pretend = 0, frame = 16
	@ frame_needed = 0, uses_anonymous_args = 0
	ldr	r3, .L243
	ldr	r2, .L243+4
	push	{r4, r5, r6, r7, r8, r9, r10, fp, lr}
	.save {r4, r5, r6, r7, r8, r9, r10, fp, lr}
.LPIC25:
	add	r3, pc, r3
	.pad #20
	sub	sp, sp, #20
	str	r0, [sp, #4]
	ldr	r3, [r3, r2]
	mov	r2, r0
	ldr	r0, [r0, #56]
	add	r3, r3, #8
	cmn	r0, #1
	str	r3, [r2]
	beq	.L191
	bl	close(PLT)
.L191:
	ldr	r3, [sp, #4]
	ldr	r0, [r3, #60]
	cmn	r0, #1
	beq	.L192
	bl	close(PLT)
	ldr	r3, [sp, #4]
.L192:
	ldr	r10, [r3, #96]
	cmp	r10, #0
	addne	r8, sp, #8
	movne	r5, #0
	beq	.L202
.L203:
	ldr	fp, [r10, #12]
	add	r9, r10, #56
	add	r4, r10, #80
.L198:
	ldr	r1, [r4, #-8]
	cmp	r1, #0
	beq	.L200
	str	r1, [sp]
	bl	_ZNSt3_V215system_categoryEv(PLT)
	ldr	r1, [sp]
	mov	r7, r0
.L201:
	ldr	r3, [r1]
	ldr	r6, [r1, #4]
	cmp	r3, #0
	streq	r3, [r4, #-4]
	str	r3, [r4, #-8]
	mov	r3, #0
	str	r5, [r1]
	mov	r0, r3
	str	r5, [sp, #8]
	str	r7, [sp, #12]
	mov	r2, r8
	blx	r6
	ldr	r1, [r4, #-8]
	cmp	r1, #0
	bne	.L201
.L200:
	sub	r4, r4, #8
	cmp	r9, r4
	bne	.L198
	add	r0, r10, #20
	bl	pthread_mutex_destroy(PLT)
	mov	r0, r10
	mov	r1, #84
	bl	_ZdlPvj(PLT)
	subs	r10, fp, #0
	bne	.L203
	ldr	r3, [sp, #4]
.L202:
	ldr	r10, [r3, #100]
	cmp	r10, #0
	moveq	r4, r3
	beq	.L194
	add	r8, sp, #8
	mov	r5, #0
.L212:
	ldr	fp, [r10, #12]
	add	r9, r10, #56
	add	r4, r10, #80
.L208:
	ldr	r1, [r4, #-8]
	cmp	r1, #0
	beq	.L210
	str	r1, [sp]
	bl	_ZNSt3_V215system_categoryEv(PLT)
	ldr	r1, [sp]
	mov	r7, r0
.L211:
	ldr	r3, [r1]
	ldr	r6, [r1, #4]
	cmp	r3, #0
	streq	r3, [r4, #-4]
	str	r3, [r4, #-8]
	mov	r3, #0
	str	r5, [r1]
	mov	r0, r3
	str	r5, [sp, #8]
	str	r7, [sp, #12]
	mov	r2, r8
	blx	r6
	ldr	r1, [r4, #-8]
	cmp	r1, #0
	bne	.L211
.L210:
	sub	r4, r4, #8
	cmp	r9, r4
	bne	.L208
	add	r0, r10, #20
	bl	pthread_mutex_destroy(PLT)
	mov	r0, r10
	mov	r1, #84
	bl	_ZdlPvj(PLT)
	subs	r10, fp, #0
	bne	.L212
	ldr	r4, [sp, #4]
.L194:
	add	r0, r4, #72
	bl	pthread_mutex_destroy(PLT)
	ldr	r0, [r4, #52]
	cmn	r0, #1
	beq	.L205
	ldr	r3, [sp, #4]
	ldr	r3, [r3, #48]
	cmp	r0, r3
	beq	.L213
	bl	close(PLT)
.L205:
	ldr	r3, [sp, #4]
	ldr	r3, [r3, #48]
	cmn	r3, #1
	beq	.L214
.L213:
	mov	r0, r3
	bl	close(PLT)
.L214:
	ldr	r4, [sp, #4]
	add	r0, r4, #24
	bl	pthread_mutex_destroy(PLT)
	mov	r0, r4
	add	sp, sp, #20
	@ sp needed
	pop	{r4, r5, r6, r7, r8, r9, r10, fp, pc}
.L244:
	.align	2
.L243:
	.word	_GLOBAL_OFFSET_TABLE_-(.LPIC25+8)
	.word	_ZTVN4asio6detail13epoll_reactorE(GOT)
	.personality	__gxx_personality_v0
	.handlerdata
.LLSDA3024:
	.byte	0xff
	.byte	0xff
	.byte	0x1
	.uleb128 .LLSDACSE3024-.LLSDACSB3024
.LLSDACSB3024:
.LLSDACSE3024:
	.section	.text._ZN4asio6detail13epoll_reactorD2Ev,"axG",%progbits,_ZN4asio6detail13epoll_reactorD5Ev,comdat
	.fnend
	.size	_ZN4asio6detail13epoll_reactorD2Ev, .-_ZN4asio6detail13epoll_reactorD2Ev
	.weak	_ZN4asio6detail13epoll_reactorD1Ev
	.set	_ZN4asio6detail13epoll_reactorD1Ev,_ZN4asio6detail13epoll_reactorD2Ev
	.section	.text._ZN4asio6detail13epoll_reactor16shutdown_serviceEv,"axG",%progbits,_ZN4asio6detail13epoll_reactor16shutdown_serviceEv,comdat
	.align	2
	.weak	_ZN4asio6detail13epoll_reactor16shutdown_serviceEv
	.syntax unified
	.arm
	.fpu vfp
	.type	_ZN4asio6detail13epoll_reactor16shutdown_serviceEv, %function
_ZN4asio6detail13epoll_reactor16shutdown_serviceEv:
	.fnstart
.LFB3027:
	@ args = 0, pretend = 0, frame = 24
	@ frame_needed = 0, uses_anonymous_args = 0
	push	{r4, r5, r6, r7, r8, r9, lr}
	.save {r4, r5, r6, r7, r8, r9, lr}
	mov	r4, r0
	add	r5, r0, #24
	.pad #28
	sub	sp, sp, #28
	mov	r0, r5
	mov	r6, #1
	bl	pthread_mutex_lock(PLT)
	mov	r0, r5
	strb	r6, [r4, #68]
	bl	pthread_mutex_unlock(PLT)
	ldr	r3, [r4, #96]
	mov	ip, #0
	ldr	r5, .L335
	cmp	r3, ip
	str	ip, [sp, #8]
	str	ip, [sp, #12]
.LPIC26:
	add	r5, pc, r5
	beq	.L262
	mov	r0, r6
	mov	r2, ip
	mov	r6, ip
	mov	r7, ip
	mov	r1, ip
.L246:
	ldr	lr, [r3, #56]
	cmp	lr, #0
	beq	.L249
	cmp	r2, #0
	moveq	r7, lr
	moveq	r6, r0
	mov	ip, r0
	strne	lr, [r2]
	ldr	r2, [r3, #60]
	str	r1, [r3, #56]
	str	r1, [r3, #60]
.L249:
	ldr	lr, [r3, #64]
	cmp	lr, #0
	beq	.L252
	cmp	r2, #0
	moveq	r7, lr
	moveq	r6, r0
	mov	ip, r0
	strne	lr, [r2]
	ldr	r2, [r3, #68]
	str	r1, [r3, #64]
	str	r1, [r3, #68]
.L252:
	ldr	lr, [r3, #72]
	cmp	lr, #0
	beq	.L255
	cmp	r2, #0
	moveq	r7, lr
	moveq	r6, r0
	mov	ip, r0
	strne	lr, [r2]
	ldr	r2, [r3, #76]
	str	r1, [r3, #72]
	str	r1, [r3, #76]
.L255:
	ldr	lr, [r3, #12]
	strb	r0, [r3, #80]
	str	lr, [r4, #96]
	ldr	lr, [r3, #16]
	cmp	lr, #0
	ldrne	r8, [r3, #12]
	strne	r8, [lr, #12]
	ldr	lr, [r3, #12]
	cmp	lr, #0
	ldrne	r8, [r3, #16]
	strne	r8, [lr, #16]
	ldr	lr, [r4, #100]
	str	r1, [r3, #16]
	str	lr, [r3, #12]
	str	r3, [r4, #100]
	ldr	r3, [r4, #96]
	cmp	r3, #0
	bne	.L246
	cmp	r6, #0
	strne	r7, [sp, #8]
	cmp	ip, #0
	strne	r2, [sp, #12]
.L262:
	ldr	r6, [r4, #64]
	cmp	r6, #0
	beq	.L247
	ldr	r3, .L335+4
	add	r8, sp, #8
	mov	r4, #0
	ldr	r7, [r5, r3]
	mov	r5, #1
.L274:
	ldr	r3, [r6]
	ldr	r3, [r3, #24]
	cmp	r3, r7
	bne	.L265
	ldr	r3, [r6, #8]
	cmp	r3, #0
	beq	.L273
	ldr	r2, [sp, #12]
	ldr	r9, [sp, #8]
	mov	ip, r4
	mov	lr, #0
.L270:
	ldr	r0, [r3]
	ldr	r1, [r3, #12]
	cmp	r0, #0
	beq	.L268
	cmp	r2, #0
	moveq	r9, r0
	moveq	lr, r5
	mov	ip, r5
	strne	r0, [r2]
	ldr	r2, [r3, #4]
	str	r4, [r3]
	str	r4, [r3, #4]
.L268:
	cmp	r1, #0
	str	r4, [r3, #12]
	str	r4, [r3, #16]
	mov	r3, r1
	bne	.L270
	cmp	lr, #0
	strne	r9, [sp, #8]
	cmp	ip, #0
	strne	r2, [sp, #12]
	str	r4, [r6, #8]
.L273:
	ldr	r3, [r6, #12]
	str	r3, [r6, #16]
.L267:
	ldr	r6, [r6, #4]
	cmp	r6, #0
	bne	.L274
.L247:
	ldr	r4, [sp, #8]
	cmp	r4, #0
	beq	.L245
	mov	r6, #0
	str	r6, [sp, #8]
	str	r6, [sp, #12]
	bl	_ZNSt3_V215system_categoryEv(PLT)
	add	r7, sp, #16
	mov	r9, r0
.L275:
	ldr	r5, [r4]
	mov	r3, #0
	str	r6, [r4]
	ldr	r8, [r4, #4]
	mov	r1, r4
	mov	r0, r3
	str	r6, [sp, #16]
	str	r9, [sp, #20]
	mov	r2, r7
	blx	r8
	subs	r4, r5, #0
	bne	.L275
	ldr	r1, [sp, #8]
	cmp	r1, #0
	str	r1, [sp, #4]
	beq	.L245
	bl	_ZNSt3_V215system_categoryEv(PLT)
	ldr	r1, [sp, #4]
	mov	r6, r0
.L279:
	ldr	r3, [r1]
	ldr	r5, [r1, #4]
	cmp	r3, #0
	streq	r3, [sp, #12]
	str	r3, [sp, #8]
	mov	r3, #0
	str	r4, [r1]
	mov	r0, r3
	str	r4, [sp, #16]
	str	r6, [sp, #20]
	mov	r2, r7
	blx	r5
	ldr	r1, [sp, #8]
	cmp	r1, #0
	bne	.L279
.L245:
	add	sp, sp, #28
	@ sp needed
	pop	{r4, r5, r6, r7, r8, r9, pc}
.L265:
	mov	r1, r8
	mov	r0, r6
.LEHB0:
	blx	r3
.LEHE0:
	b	.L267
.L287:
	ldr	r4, [sp, #8]
	cmp	r4, #0
	beq	.L283
	bl	_ZNSt3_V215system_categoryEv(PLT)
	add	r7, sp, #16
	mov	r5, #0
	mov	r6, r0
.L284:
	ldr	r3, [r4]
	ldr	r8, [r4, #4]
	cmp	r3, #0
	streq	r3, [sp, #12]
	str	r3, [sp, #8]
	mov	r3, #0
	str	r5, [r4]
	mov	r1, r4
	mov	r0, r3
	str	r5, [sp, #16]
	str	r6, [sp, #20]
	mov	r2, r7
	blx	r8
	ldr	r4, [sp, #8]
	cmp	r4, #0
	bne	.L284
.L283:
.LEHB1:
	bl	__cxa_end_cleanup(PLT)
.LEHE1:
.L336:
	.align	2
.L335:
	.word	_GLOBAL_OFFSET_TABLE_-(.LPIC26+8)
	.word	_ZN4asio6detail11timer_queueINS0_18chrono_time_traitsINSt6chrono3_V212steady_clockENS_11wait_traitsIS5_EEEEE14get_all_timersERNS0_8op_queueINS0_25task_io_service_operationEEE(GOT)
	.personality	__gxx_personality_v0
	.handlerdata
.LLSDA3027:
	.byte	0xff
	.byte	0xff
	.byte	0x1
	.uleb128 .LLSDACSE3027-.LLSDACSB3027
.LLSDACSB3027:
	.uleb128 .LEHB0-.LFB3027
	.uleb128 .LEHE0-.LEHB0
	.uleb128 .L287-.LFB3027
	.uleb128 0
	.uleb128 .LEHB1-.LFB3027
	.uleb128 .LEHE1-.LEHB1
	.uleb128 0
	.uleb128 0
.LLSDACSE3027:
	.section	.text._ZN4asio6detail13epoll_reactor16shutdown_serviceEv,"axG",%progbits,_ZN4asio6detail13epoll_reactor16shutdown_serviceEv,comdat
	.fnend
	.size	_ZN4asio6detail13epoll_reactor16shutdown_serviceEv, .-_ZN4asio6detail13epoll_reactor16shutdown_serviceEv
	.section	.text._ZNK4asio6detail11timer_queueINS0_18chrono_time_traitsINSt6chrono3_V212steady_clockENS_11wait_traitsIS5_EEEEE18wait_duration_msecEl,"axG",%progbits,_ZNK4asio6detail11timer_queueINS0_18chrono_time_traitsINSt6chrono3_V212steady_clockENS_11wait_traitsIS5_EEEEE18wait_duration_msecEl,comdat
	.align	2
	.weak	_ZNK4asio6detail11timer_queueINS0_18chrono_time_traitsINSt6chrono3_V212steady_clockENS_11wait_traitsIS5_EEEEE18wait_duration_msecEl
	.syntax unified
	.arm
	.fpu vfp
	.type	_ZNK4asio6detail11timer_queueINS0_18chrono_time_traitsINSt6chrono3_V212steady_clockENS_11wait_traitsIS5_EEEEE18wait_duration_msecEl, %function
_ZNK4asio6detail11timer_queueINS0_18chrono_time_traitsINSt6chrono3_V212steady_clockENS_11wait_traitsIS5_EEEEE18wait_duration_msecEl:
	.fnstart
.LFB7518:
	@ args = 0, pretend = 0, frame = 8
	@ frame_needed = 0, uses_anonymous_args = 0
	push	{r4, r5, r6, r7, r8, r9, lr}
	sub	sp, sp, #12
	ldr	r5, [r0, #12]
	ldr	r3, [r0, #16]
	cmp	r3, r5
	moveq	r0, r1
	beq	.L337
	mov	r0, sp
	mov	r4, r1
	bl	_ZNSt6chrono3_V212steady_clock3nowEv(PLT)
	ldrd	r0, [r5]
	ldrd	r2, [sp]
	cmp	r0, #0
	sbcs	ip, r1, #0
	blt	.L339
	cmp	r2, #0
	sbcs	ip, r3, #0
	blt	.L353
.L352:
	subs	r0, r0, r2
	sbc	r1, r1, r3
	cmp	r0, #1
	sbcs	r3, r1, #0
	blt	.L348
.L343:
	mov	r3, #0
	ldr	r2, .L355
	bl	__aeabi_ldivmod(PLT)
	orrs	r3, r0, r1
	moveq	r0, #1
	bne	.L354
.L337:
	add	sp, sp, #12
	@ sp needed
	pop	{r4, r5, r6, r7, r8, r9, pc}
.L353:
	cmp	r3, #-2147483648
	cmpeq	r2, #0
	beq	.L346
	mvn	r6, #0
	subs	r6, r6, r0
	mvn	r7, #-2147483648
	sbc	r7, r7, r1
	rsbs	r8, r2, #0
	rsc	r9, r3, #0
	cmp	r6, r8
	sbcs	ip, r7, r9
	blt	.L346
	subs	r0, r0, r2
	sbc	r1, r1, r3
	b	.L343
.L339:
	cmp	r2, #0
	sbcs	ip, r3, #0
	blt	.L352
.L348:
	mov	r0, #0
	add	sp, sp, #12
	@ sp needed
	pop	{r4, r5, r6, r7, r8, r9, pc}
.L354:
	cmp	r4, r0
	asr	r3, r4, #31
	sbcs	r3, r3, r1
	movlt	r0, r4
	add	sp, sp, #12
	@ sp needed
	pop	{r4, r5, r6, r7, r8, r9, pc}
.L346:
	mov	r0, r4
	add	sp, sp, #12
	@ sp needed
	pop	{r4, r5, r6, r7, r8, r9, pc}
.L356:
	.align	2
.L355:
	.word	1000000
	.cantunwind
	.fnend
	.size	_ZNK4asio6detail11timer_queueINS0_18chrono_time_traitsINSt6chrono3_V212steady_clockENS_11wait_traitsIS5_EEEEE18wait_duration_msecEl, .-_ZNK4asio6detail11timer_queueINS0_18chrono_time_traitsINSt6chrono3_V212steady_clockENS_11wait_traitsIS5_EEEEE18wait_duration_msecEl
	.section	.text._ZNK4asio6detail11timer_queueINS0_18chrono_time_traitsINSt6chrono3_V212steady_clockENS_11wait_traitsIS5_EEEEE18wait_duration_usecEl,"axG",%progbits,_ZNK4asio6detail11timer_queueINS0_18chrono_time_traitsINSt6chrono3_V212steady_clockENS_11wait_traitsIS5_EEEEE18wait_duration_usecEl,comdat
	.align	2
	.weak	_ZNK4asio6detail11timer_queueINS0_18chrono_time_traitsINSt6chrono3_V212steady_clockENS_11wait_traitsIS5_EEEEE18wait_duration_usecEl
	.syntax unified
	.arm
	.fpu vfp
	.type	_ZNK4asio6detail11timer_queueINS0_18chrono_time_traitsINSt6chrono3_V212steady_clockENS_11wait_traitsIS5_EEEEE18wait_duration_usecEl, %function
_ZNK4asio6detail11timer_queueINS0_18chrono_time_traitsINSt6chrono3_V212steady_clockENS_11wait_traitsIS5_EEEEE18wait_duration_usecEl:
	.fnstart
.LFB7519:
	@ args = 0, pretend = 0, frame = 8
	@ frame_needed = 0, uses_anonymous_args = 0
	push	{r4, r5, r6, r7, r8, r9, lr}
	sub	sp, sp, #12
	ldr	r5, [r0, #12]
	ldr	r3, [r0, #16]
	cmp	r3, r5
	moveq	r0, r1
	beq	.L357
	mov	r0, sp
	mov	r4, r1
	bl	_ZNSt6chrono3_V212steady_clock3nowEv(PLT)
	ldrd	r0, [r5]
	ldrd	r2, [sp]
	cmp	r0, #0
	sbcs	ip, r1, #0
	blt	.L359
	cmp	r2, #0
	sbcs	ip, r3, #0
	blt	.L373
.L372:
	subs	r0, r0, r2
	sbc	r1, r1, r3
	cmp	r0, #1
	sbcs	r3, r1, #0
	blt	.L368
.L363:
	mov	r3, #0
	mov	r2, #1000
	bl	__aeabi_ldivmod(PLT)
	orrs	r3, r0, r1
	moveq	r0, #1
	bne	.L374
.L357:
	add	sp, sp, #12
	@ sp needed
	pop	{r4, r5, r6, r7, r8, r9, pc}
.L373:
	cmp	r3, #-2147483648
	cmpeq	r2, #0
	beq	.L366
	mvn	r6, #0
	subs	r6, r6, r0
	mvn	r7, #-2147483648
	sbc	r7, r7, r1
	rsbs	r8, r2, #0
	rsc	r9, r3, #0
	cmp	r6, r8
	sbcs	ip, r7, r9
	blt	.L366
	subs	r0, r0, r2
	sbc	r1, r1, r3
	b	.L363
.L359:
	cmp	r2, #0
	sbcs	ip, r3, #0
	blt	.L372
.L368:
	mov	r0, #0
	add	sp, sp, #12
	@ sp needed
	pop	{r4, r5, r6, r7, r8, r9, pc}
.L374:
	cmp	r4, r0
	asr	r3, r4, #31
	sbcs	r3, r3, r1
	movlt	r0, r4
	add	sp, sp, #12
	@ sp needed
	pop	{r4, r5, r6, r7, r8, r9, pc}
.L366:
	mov	r0, r4
	add	sp, sp, #12
	@ sp needed
	pop	{r4, r5, r6, r7, r8, r9, pc}
	.cantunwind
	.fnend
	.size	_ZNK4asio6detail11timer_queueINS0_18chrono_time_traitsINSt6chrono3_V212steady_clockENS_11wait_traitsIS5_EEEEE18wait_duration_usecEl, .-_ZNK4asio6detail11timer_queueINS0_18chrono_time_traitsINSt6chrono3_V212steady_clockENS_11wait_traitsIS5_EEEEE18wait_duration_usecEl
	.section	.text._ZN4asio6detail11timer_queueINS0_18chrono_time_traitsINSt6chrono3_V212steady_clockENS_11wait_traitsIS5_EEEEE16get_ready_timersERNS0_8op_queueINS0_25task_io_service_operationEEE,"axG",%progbits,_ZN4asio6detail11timer_queueINS0_18chrono_time_traitsINSt6chrono3_V212steady_clockENS_11wait_traitsIS5_EEEEE16get_ready_timersERNS0_8op_queueINS0_25task_io_service_operationEEE,comdat
	.align	2
	.weak	_ZN4asio6detail11timer_queueINS0_18chrono_time_traitsINSt6chrono3_V212steady_clockENS_11wait_traitsIS5_EEEEE16get_ready_timersERNS0_8op_queueINS0_25task_io_service_operationEEE
	.syntax unified
	.arm
	.fpu vfp
	.type	_ZN4asio6detail11timer_queueINS0_18chrono_time_traitsINSt6chrono3_V212steady_clockENS_11wait_traitsIS5_EEEEE16get_ready_timersERNS0_8op_queueINS0_25task_io_service_operationEEE, %function
_ZN4asio6detail11timer_queueINS0_18chrono_time_traitsINSt6chrono3_V212steady_clockENS_11wait_traitsIS5_EEEEE16get_ready_timersERNS0_8op_queueINS0_25task_io_service_operationEEE:
	.fnstart
.LFB7520:
	@ args = 0, pretend = 0, frame = 64
	@ frame_needed = 0, uses_anonymous_args = 0
	ldr	r2, [r0, #16]
	ldr	r3, [r0, #12]
	cmp	r2, r3
	bxeq	lr
	push	{r4, r5, r6, r7, r8, r9, r10, fp, lr}
	sub	sp, sp, #68
	mov	r4, r0
	str	r0, [sp, #20]
	add	r0, sp, #40
	str	r1, [sp, #32]
	bl	_ZNSt6chrono3_V212steady_clock3nowEv(PLT)
	ldr	r3, [r4, #16]
	ldr	fp, [r4, #12]
	mov	r1, r3
	str	r3, [sp, #4]
	ldrd	r2, [sp, #40]
	cmp	r1, fp
	mov	r4, r2
	mov	r5, r3
	strd	r4, [sp, #24]
	beq	.L375
	ldrd	r2, [fp]
	cmp	r4, r2
	sbcs	r3, r5, r3
	blt	.L375
	add	r3, sp, #48
	str	r3, [sp, #8]
.L379:
	ldr	r7, [fp, #8]
	ldr	r3, [r7]
	cmp	r3, #0
	beq	.L399
	ldr	r2, [sp, #32]
	ldr	r2, [r2, #4]
	cmp	r2, #0
	strne	r3, [r2]
	ldreq	r2, [sp, #32]
	ldrne	r2, [sp, #32]
	streq	r3, [r2]
	ldr	r3, [r7, #4]
	str	r3, [r2, #4]
	mov	r3, #0
	str	r3, [r7]
	str	r3, [r7, #4]
.L399:
	ldr	r3, [sp, #4]
	ldr	r10, [r7, #8]
	cmp	r3, fp
	beq	.L385
	sub	lr, r3, fp
	asr	lr, lr, #4
	cmp	r10, lr
	bcs	.L385
	sub	lr, lr, #1
	cmp	r10, lr
	bne	.L419
	ldr	r2, [sp, #20]
	sub	r3, r3, #16
	str	r3, [sp, #4]
	str	r3, [r2, #16]
	mov	r3, r2
.L383:
	ldr	r3, [r3, #8]
	cmp	r7, r3
	ldr	r3, [r7, #12]
	ldreq	r2, [sp, #20]
	streq	r3, [r2, #8]
	ldr	r2, [r7, #16]
	cmp	r2, #0
	strne	r3, [r2, #12]
	ldrne	r3, [r7, #12]
	cmp	r3, #0
	strne	r2, [r3, #16]
	ldr	r3, [sp, #4]
	cmp	r3, fp
	mov	r3, #0
	str	r3, [r7, #12]
	str	r3, [r7, #16]
	beq	.L375
	ldrd	r2, [fp]
	ldrd	r0, [sp, #24]
	cmp	r0, r2
	sbcs	r3, r1, r3
	bge	.L379
.L375:
	add	sp, sp, #68
	@ sp needed
	pop	{r4, r5, r6, r7, r8, r9, r10, fp, pc}
.L385:
	ldr	r3, [sp, #20]
	ldr	r3, [r3, #16]
	str	r3, [sp, #4]
	ldr	r3, [sp, #20]
	b	.L383
.L419:
	lsl	r8, r10, #4
	add	ip, fp, r8
	sub	r3, r3, #16
	ldr	r5, [sp, #8]
	mov	r9, r3
	str	r3, [sp, #4]
	ldm	ip, {r0, r1, r2, r3}
	mov	r4, r5
	cmp	r10, #0
	stm	r5, {r0, r1, r2, r3}
	add	r3, fp, lr, lsl #4
	ldmia	r4!, {r0, r1, r2}
	ldr	r5, [r3, #4]	@ unaligned
	ldr	r4, [r3, #8]	@ unaligned
	ldr	r6, [r3]	@ unaligned
	str	r6, [fp, r10, lsl #4]	@ unaligned
	str	r4, [ip, #8]	@ unaligned
	str	r5, [ip, #4]	@ unaligned
	str	r0, [fp, lr, lsl #4]	@ unaligned
	str	r2, [r3, #8]	@ unaligned
	str	r1, [r3, #4]	@ unaligned
	ldr	r2, [ip, #8]
	ldr	r3, [r3, #8]
	str	r10, [r2, #8]
	ldr	r2, [sp, #20]
	str	lr, [r3, #8]
	str	r9, [r2, #16]
	beq	.L386
	sub	r5, r10, #1
	ldrd	r0, [fp, r8]
	lsr	r5, r5, #1
	lsl	r3, r5, #4
	add	lr, fp, r3
	ldrd	r2, [r3, fp]
	cmp	r0, r2
	sbcs	r3, r1, r3
	bge	.L386
	str	r7, [sp, #12]
	b	.L388
.L418:
	ldrd	r0, [fp, r6]
	ldrd	r8, [fp, r3]
	mov	r10, r5
	add	ip, fp, r6
	cmp	r0, r8
	sbcs	r2, r1, r9
	mov	r5, r4
	add	lr, fp, r3
	bge	.L421
.L388:
	ldm	ip, {r0, r1, r2, r3}
	sub	r4, r5, #1
	ldr	r6, [sp, #8]
	ldr	r9, [lr]	@ unaligned
	mov	r7, r6
	stm	r6, {r0, r1, r2, r3}
	lsr	r4, r4, #1
	ldmia	r7!, {r0, r1, r2}
	cmp	r5, #0
	ldr	r8, [lr, #4]	@ unaligned
	ldr	r7, [lr, #8]	@ unaligned
	str	r9, [ip]	@ unaligned
	str	r7, [ip, #8]	@ unaligned
	str	r8, [ip, #4]	@ unaligned
	str	r2, [lr, #8]	@ unaligned
	str	r0, [lr]	@ unaligned
	str	r1, [lr, #4]	@ unaligned
	ldr	r2, [lr, #8]
	ldr	r1, [ip, #8]
	lsl	r6, r5, #4
	lsl	r3, r4, #4
	str	r10, [r1, #8]
	str	r5, [r2, #8]
	bne	.L418
.L421:
	ldr	r7, [sp, #12]
	ldr	r3, [sp, #20]
	b	.L383
.L386:
	ldr	r3, [sp, #4]
	lsl	lr, r10, #1
	sub	r3, r3, fp
	add	lr, lr, #1
	asr	r3, r3, #4
	cmp	lr, r3
	str	r3, [sp, #12]
	strcc	r7, [sp, #36]
	bcc	.L392
	b	.L429
.L390:
	ldrd	r0, [fp, r5]
	ldrd	r2, [fp, ip]
	add	r5, fp, r5
	add	ip, fp, ip
	cmp	r0, r2
	mov	r7, r3
	sbcs	r3, r1, r3
	mov	r6, r2
	movlt	r7, r1
	movlt	r6, r0
	movlt	ip, r5
	movlt	r4, lr
.L391:
	ldrd	r2, [fp, r8]
	ldr	r9, [sp, #8]
	lsl	lr, r4, #1
	cmp	r2, r6
	sbcs	r3, r3, r7
	str	r9, [sp, #16]
	add	lr, lr, #1
	add	r5, fp, r8
	blt	.L423
	ldm	r5, {r0, r1, r2, r3}
	ldr	r6, [sp, #12]
	ldr	r7, [ip]	@ unaligned
	stm	r9, {r0, r1, r2, r3}
	mov	r3, r9
	cmp	lr, r6
	ldmia	r3!, {r0, r1, r2}
	ldr	r6, [ip, #4]	@ unaligned
	ldr	r3, [ip, #8]	@ unaligned
	str	r7, [fp, r8]	@ unaligned
	str	r3, [r5, #8]	@ unaligned
	str	r6, [r5, #4]	@ unaligned
	str	r2, [ip, #8]	@ unaligned
	str	r0, [ip]	@ unaligned
	str	r1, [ip, #4]	@ unaligned
	ldr	r3, [ip, #8]
	ldr	r2, [r5, #8]
	str	r10, [r2, #8]
	str	r4, [r3, #8]
	mov	r10, r4
	bcs	.L423
	ldr	r3, [sp, #12]
	lsl	r8, r4, #4
.L392:
	add	r4, lr, #1
	lsl	r5, lr, #4
	cmp	r4, r3
	add	ip, r5, #16
	bne	.L390
	mov	r4, lr
	add	ip, fp, r5
	ldrd	r6, [fp, r5]
	b	.L391
.L423:
	ldr	r7, [sp, #36]
.L429:
	ldr	r3, [sp, #20]
	b	.L383
	.cantunwind
	.fnend
	.size	_ZN4asio6detail11timer_queueINS0_18chrono_time_traitsINSt6chrono3_V212steady_clockENS_11wait_traitsIS5_EEEEE16get_ready_timersERNS0_8op_queueINS0_25task_io_service_operationEEE, .-_ZN4asio6detail11timer_queueINS0_18chrono_time_traitsINSt6chrono3_V212steady_clockENS_11wait_traitsIS5_EEEEE16get_ready_timersERNS0_8op_queueINS0_25task_io_service_operationEEE
	.section	.text._ZNK4asio6detail15system_category7messageB5cxx11Ei,"axG",%progbits,_ZNK4asio6detail15system_category7messageB5cxx11Ei,comdat
	.align	2
	.weak	_ZNK4asio6detail15system_category7messageB5cxx11Ei
	.syntax unified
	.arm
	.fpu vfp
	.type	_ZNK4asio6detail15system_category7messageB5cxx11Ei, %function
_ZNK4asio6detail15system_category7messageB5cxx11Ei:
	.fnstart
.LFB2034:
	@ args = 0, pretend = 0, frame = 264
	@ frame_needed = 0, uses_anonymous_args = 0
	cmp	r2, #125
	push	{r4, r5, r6, r7, r8, lr}
	.save {r4, r5, r6, r7, r8, lr}
	mov	r4, r0
	.pad #264
	sub	sp, sp, #264
	beq	.L441
	mov	r7, #0
	mov	r5, r2
	mov	r1, r7
	mov	r2, #252
	add	r0, sp, #12
	str	r7, [sp, #8]
	bl	memset(PLT)
	mov	r0, r5
	mov	r2, #256
	add	r1, sp, #8
	bl	strerror_r(PLT)
	add	r6, r4, #8
	str	r6, [r4]
	subs	r8, r0, #0
	beq	.L434
	bl	strlen(PLT)
	cmp	r0, #15
	mov	r5, r0
	str	r0, [sp, #4]
	bhi	.L442
	cmp	r0, #1
	beq	.L443
	cmp	r0, #0
	bne	.L444
.L438:
	mov	r3, #0
	str	r5, [r4, #4]
	mov	r0, r4
	strb	r3, [r6, r5]
	add	sp, sp, #264
	@ sp needed
	pop	{r4, r5, r6, r7, r8, pc}
.L442:
	mov	r2, r7
	add	r1, sp, #4
	mov	r0, r4
	bl	_ZNSt7__cxx1112basic_stringIcSt11char_traitsIcESaIcEE9_M_createERjj(PLT)
	ldr	r3, [sp, #4]
	str	r3, [r4, #8]
	str	r0, [r4]
.L436:
	mov	r2, r5
	mov	r1, r8
	bl	memcpy(PLT)
	ldr	r5, [sp, #4]
	ldr	r6, [r4]
	b	.L438
.L443:
	ldrb	r3, [r8]	@ zero_extendqisi2
	strb	r3, [r4, #8]
	b	.L438
.L441:
	add	r1, sp, #264
	add	r3, r0, #8
	mov	r2, #18
	str	r2, [r1, #-256]!
	str	r3, [r0]
	mov	r2, #0
	bl	_ZNSt7__cxx1112basic_stringIcSt11char_traitsIcESaIcEE9_M_createERjj(PLT)
	ldr	ip, .L445
	ldr	r6, [sp, #8]
.LPIC27:
	add	ip, pc, ip
	str	r6, [r4, #8]
	mov	r5, #0
	str	r0, [r4]
	mov	lr, r0
	ldmia	ip!, {r0, r1, r2, r3}
	ldrh	ip, [ip]	@ unaligned
	str	r0, [lr]	@ unaligned
	str	r1, [lr, #4]	@ unaligned
	strh	ip, [lr, #16]	@ unaligned
	str	r2, [lr, #8]	@ unaligned
	str	r3, [lr, #12]	@ unaligned
	ldr	r3, [sp, #8]
	ldr	r2, [r4]
	str	r3, [r4, #4]
	mov	r0, r4
	strb	r5, [r2, r3]
	add	sp, sp, #264
	@ sp needed
	pop	{r4, r5, r6, r7, r8, pc}
.L434:
	ldr	r0, .L445+4
.LPIC28:
	add	r0, pc, r0
	bl	_ZSt19__throw_logic_errorPKc(PLT)
.L444:
	mov	r0, r6
	b	.L436
.L446:
	.align	2
.L445:
	.word	.LC4-(.LPIC27+8)
	.word	.LC5-(.LPIC28+8)
	.fnend
	.size	_ZNK4asio6detail15system_category7messageB5cxx11Ei, .-_ZNK4asio6detail15system_category7messageB5cxx11Ei
	.section	.text._ZNK4asio5error6detail17addrinfo_category7messageB5cxx11Ei,"axG",%progbits,_ZNK4asio5error6detail17addrinfo_category7messageB5cxx11Ei,comdat
	.align	2
	.weak	_ZNK4asio5error6detail17addrinfo_category7messageB5cxx11Ei
	.syntax unified
	.arm
	.fpu vfp
	.type	_ZNK4asio5error6detail17addrinfo_category7messageB5cxx11Ei, %function
_ZNK4asio5error6detail17addrinfo_category7messageB5cxx11Ei:
	.fnstart
.LFB2061:
	@ args = 0, pretend = 0, frame = 8
	@ frame_needed = 0, uses_anonymous_args = 0
	push	{r4, r5, r6, lr}
	.save {r4, r5, r6, lr}
	cmn	r2, #8
	.pad #8
	sub	sp, sp, #8
	add	r1, sp, #8
	mov	r4, r0
	beq	.L452
	cmn	r2, #7
	beq	.L453
	add	r3, r0, #8
	mov	r2, #19
	str	r2, [r1, #-4]!
	str	r3, [r0]
	mov	r2, #0
	bl	_ZNSt7__cxx1112basic_stringIcSt11char_traitsIcESaIcEE9_M_createERjj(PLT)
	ldr	ip, .L454
	ldr	r6, [sp, #4]
.LPIC31:
	add	ip, pc, ip
	str	r6, [r4, #8]
	mov	r5, #0
	str	r0, [r4]
	mov	lr, r0
	ldmia	ip!, {r0, r1, r2, r3}
	ldrh	r6, [ip]	@ unaligned
	ldrb	ip, [ip, #2]	@ zero_extendqisi2
	str	r0, [lr]	@ unaligned
	str	r1, [lr, #4]	@ unaligned
	str	r2, [lr, #8]	@ unaligned
	str	r3, [lr, #12]	@ unaligned
	strh	r6, [lr, #16]	@ unaligned
	strb	ip, [lr, #18]
	ldr	r3, [sp, #4]
	ldr	r2, [r4]
	str	r3, [r4, #4]
	strb	r5, [r2, r3]
.L447:
	mov	r0, r4
	add	sp, sp, #8
	@ sp needed
	pop	{r4, r5, r6, pc}
.L453:
	add	r3, r0, #8
	mov	r2, #25
	str	r2, [r1, #-4]!
	str	r3, [r0]
	mov	r2, #0
	bl	_ZNSt7__cxx1112basic_stringIcSt11char_traitsIcESaIcEE9_M_createERjj(PLT)
	ldr	ip, .L454+4
	ldr	r6, [sp, #4]
.LPIC30:
	add	ip, pc, ip
	str	r6, [r4, #8]
	mov	r5, #0
	str	r0, [r4]
	mov	lr, r0
	ldmia	ip!, {r0, r1, r2, r3}
	str	r0, [lr]	@ unaligned
	str	r1, [lr, #4]	@ unaligned
	ldmia	ip!, {r0, r1}
	str	r3, [lr, #12]	@ unaligned
	str	r2, [lr, #8]	@ unaligned
	ldrb	r3, [ip]	@ zero_extendqisi2
	str	r0, [lr, #16]	@ unaligned
	str	r1, [lr, #20]	@ unaligned
	strb	r3, [lr, #24]
	ldr	r3, [sp, #4]
	ldr	r2, [r4]
	str	r3, [r4, #4]
	mov	r0, r4
	strb	r5, [r2, r3]
	add	sp, sp, #8
	@ sp needed
	pop	{r4, r5, r6, pc}
.L452:
	add	r3, r0, #8
	mov	r2, #17
	str	r2, [r1, #-4]!
	str	r3, [r0]
	mov	r2, #0
	bl	_ZNSt7__cxx1112basic_stringIcSt11char_traitsIcESaIcEE9_M_createERjj(PLT)
	ldr	ip, .L454+8
	ldr	r6, [sp, #4]
.LPIC29:
	add	ip, pc, ip
	str	r6, [r4, #8]
	mov	r5, #0
	str	r0, [r4]
	mov	lr, r0
	ldmia	ip!, {r0, r1, r2, r3}
	ldrb	ip, [ip]	@ zero_extendqisi2
	str	r0, [lr]	@ unaligned
	str	r1, [lr, #4]	@ unaligned
	strb	ip, [lr, #16]
	str	r2, [lr, #8]	@ unaligned
	str	r3, [lr, #12]	@ unaligned
	ldr	r3, [sp, #4]
	ldr	r2, [r4]
	str	r3, [r4, #4]
	strb	r5, [r2, r3]
	b	.L447
.L455:
	.align	2
.L454:
	.word	.LC8-(.LPIC31+8)
	.word	.LC7-(.LPIC30+8)
	.word	.LC6-(.LPIC29+8)
	.fnend
	.size	_ZNK4asio5error6detail17addrinfo_category7messageB5cxx11Ei, .-_ZNK4asio5error6detail17addrinfo_category7messageB5cxx11Ei
	.section	.text._ZNK4asio5error6detail14netdb_category7messageB5cxx11Ei,"axG",%progbits,_ZNK4asio5error6detail14netdb_category7messageB5cxx11Ei,comdat
	.align	2
	.weak	_ZNK4asio5error6detail14netdb_category7messageB5cxx11Ei
	.syntax unified
	.arm
	.fpu vfp
	.type	_ZNK4asio5error6detail14netdb_category7messageB5cxx11Ei, %function
_ZNK4asio5error6detail14netdb_category7messageB5cxx11Ei:
	.fnstart
.LFB2055:
	@ args = 0, pretend = 0, frame = 8
	@ frame_needed = 0, uses_anonymous_args = 0
	push	{r4, r5, r6, lr}
	.save {r4, r5, r6, lr}
	cmp	r2, #1
	.pad #8
	sub	sp, sp, #8
	add	r1, sp, #8
	mov	r4, r0
	beq	.L469
	cmp	r2, #2
	beq	.L470
	cmp	r2, #4
	beq	.L471
	cmp	r2, #3
	beq	.L472
	add	r3, r0, #8
	mov	r2, #16
	str	r2, [r1, #-4]!
	str	r3, [r0]
	mov	r2, #0
	bl	_ZNSt7__cxx1112basic_stringIcSt11char_traitsIcESaIcEE9_M_createERjj(PLT)
	ldr	ip, .L473
	ldr	r5, [sp, #4]
.LPIC36:
	add	ip, pc, ip
	str	r5, [r4, #8]
	str	r0, [r4]
	mov	lr, r0
	ldmia	ip!, {r0, r1, r2, r3}
	mov	ip, #0
	str	r0, [lr]	@ unaligned
	str	r1, [lr, #4]	@ unaligned
	str	r2, [lr, #8]	@ unaligned
	str	r3, [lr, #12]	@ unaligned
	ldr	r3, [sp, #4]
	ldr	r2, [r4]
	str	r3, [r4, #4]
	strb	ip, [r2, r3]
.L456:
	mov	r0, r4
	add	sp, sp, #8
	@ sp needed
	pop	{r4, r5, r6, pc}
.L472:
	add	r3, r0, #8
	mov	r2, #55
	str	r2, [r1, #-4]!
	str	r3, [r0]
	mov	r2, #0
	bl	_ZNSt7__cxx1112basic_stringIcSt11char_traitsIcESaIcEE9_M_createERjj(PLT)
	ldr	r5, .L473+4
	ldr	r3, [sp, #4]
.LPIC35:
	add	r5, pc, r5
	add	r6, r5, #48
	str	r3, [r4, #8]
	mov	lr, r0
	str	r0, [r4]
.L464:
	mov	ip, r5
	add	lr, lr, #16
	ldmia	ip!, {r0, r1, r2, r3}
	add	r5, r5, #16
	cmp	ip, r6
	str	r0, [lr, #-16]	@ unaligned
	str	r1, [lr, #-12]	@ unaligned
	str	r2, [lr, #-8]	@ unaligned
	str	r3, [lr, #-4]	@ unaligned
	bne	.L464
	ldrh	r2, [r5, #4]	@ unaligned
	ldrb	r3, [r5, #6]	@ zero_extendqisi2
	ldr	r0, [r5]
	strh	r2, [lr, #4]	@ unaligned
	strb	r3, [lr, #6]
	str	r0, [lr]	@ unaligned
	ldr	r3, [sp, #4]
	ldr	r2, [r4]
	mov	r1, #0
	str	r3, [r4, #4]
	strb	r1, [r2, r3]
	b	.L456
.L469:
	add	r3, r0, #8
	mov	r2, #30
	str	r2, [r1, #-4]!
	str	r3, [r0]
	mov	r2, #0
	bl	_ZNSt7__cxx1112basic_stringIcSt11char_traitsIcESaIcEE9_M_createERjj(PLT)
	ldr	ip, .L473+8
	ldr	r6, [sp, #4]
.LPIC32:
	add	ip, pc, ip
	str	r6, [r4, #8]
	mov	r5, #0
	str	r0, [r4]
	mov	lr, r0
	ldmia	ip!, {r0, r1, r2, r3}
	str	r0, [lr]	@ unaligned
	str	r1, [lr, #4]	@ unaligned
	str	r2, [lr, #8]	@ unaligned
	ldmia	ip!, {r0, r1, r2}
	str	r3, [lr, #12]	@ unaligned
	ldrh	r3, [ip]	@ unaligned
	str	r0, [lr, #16]	@ unaligned
	str	r1, [lr, #20]	@ unaligned
	strh	r3, [lr, #28]	@ unaligned
	str	r2, [lr, #24]	@ unaligned
	ldr	r3, [sp, #4]
	ldr	r2, [r4]
	str	r3, [r4, #4]
	strb	r5, [r2, r3]
	b	.L456
.L470:
	add	r3, r0, #8
	mov	r2, #51
	str	r2, [r1, #-4]!
	str	r3, [r0]
	mov	r2, #0
	bl	_ZNSt7__cxx1112basic_stringIcSt11char_traitsIcESaIcEE9_M_createERjj(PLT)
	ldr	r5, .L473+12
	ldr	r3, [sp, #4]
.LPIC33:
	add	r5, pc, r5
	add	r6, r5, #48
	str	r3, [r4, #8]
	mov	lr, r0
	str	r0, [r4]
.L460:
	mov	ip, r5
	add	lr, lr, #16
	ldmia	ip!, {r0, r1, r2, r3}
	add	r5, r5, #16
	cmp	ip, r6
	str	r0, [lr, #-16]	@ unaligned
	str	r1, [lr, #-12]	@ unaligned
	str	r2, [lr, #-8]	@ unaligned
	str	r3, [lr, #-4]	@ unaligned
	bne	.L460
	ldrh	r2, [r5]	@ unaligned
	ldrb	r3, [r5, #2]	@ zero_extendqisi2
	mov	r1, #0
	strh	r2, [lr]	@ unaligned
	strb	r3, [lr, #2]
	ldr	r3, [sp, #4]
	ldr	r2, [r4]
	str	r3, [r4, #4]
	strb	r1, [r2, r3]
	b	.L456
.L471:
	add	r3, r0, #8
	mov	r2, #56
	str	r2, [r1, #-4]!
	str	r3, [r0]
	mov	r2, #0
	bl	_ZNSt7__cxx1112basic_stringIcSt11char_traitsIcESaIcEE9_M_createERjj(PLT)
	ldr	r5, .L473+16
	ldr	r3, [sp, #4]
.LPIC34:
	add	r5, pc, r5
	add	r6, r5, #48
	str	r3, [r4, #8]
	mov	lr, r0
	str	r0, [r4]
.L462:
	mov	ip, r5
	add	lr, lr, #16
	ldmia	ip!, {r0, r1, r2, r3}
	add	r5, r5, #16
	cmp	ip, r6
	str	r0, [lr, #-16]	@ unaligned
	str	r1, [lr, #-12]	@ unaligned
	str	r2, [lr, #-8]	@ unaligned
	str	r3, [lr, #-4]	@ unaligned
	bne	.L462
	ldmia	r5!, {r0, r1}
	mov	ip, #0
	str	r0, [lr]	@ unaligned
	str	r1, [lr, #4]	@ unaligned
	ldr	r3, [sp, #4]
	ldr	r2, [r4]
	str	r3, [r4, #4]
	strb	ip, [r2, r3]
	b	.L456
.L474:
	.align	2
.L473:
	.word	.LC13-(.LPIC36+8)
	.word	.LC12-(.LPIC35+8)
	.word	.LC9-(.LPIC32+8)
	.word	.LC10-(.LPIC33+8)
	.word	.LC11-(.LPIC34+8)
	.fnend
	.size	_ZNK4asio5error6detail14netdb_category7messageB5cxx11Ei, .-_ZNK4asio5error6detail14netdb_category7messageB5cxx11Ei
	.section	.text._ZNK4asio5error6detail13misc_category7messageB5cxx11Ei,"axG",%progbits,_ZNK4asio5error6detail13misc_category7messageB5cxx11Ei,comdat
	.align	2
	.weak	_ZNK4asio5error6detail13misc_category7messageB5cxx11Ei
	.syntax unified
	.arm
	.fpu vfp
	.type	_ZNK4asio5error6detail13misc_category7messageB5cxx11Ei, %function
_ZNK4asio5error6detail13misc_category7messageB5cxx11Ei:
	.fnstart
.LFB2067:
	@ args = 0, pretend = 0, frame = 8
	@ frame_needed = 0, uses_anonymous_args = 0
	cmp	r2, #1
	push	{r4, r5, r6, lr}
	.save {r4, r5, r6, lr}
	mov	r4, r0
	.pad #8
	sub	sp, sp, #8
	beq	.L484
	cmp	r2, #2
	beq	.L485
	cmp	r2, #3
	beq	.L486
	cmp	r2, #4
	beq	.L487
	ldr	ip, .L488
	add	r3, r0, #8
.LPIC41:
	add	ip, pc, ip
	mov	r5, #15
	ldmia	ip!, {r0, r1, r2}
	mov	lr, #0
	str	r3, [r4]
	str	r5, [r4, #4]
	ldrh	r6, [ip]	@ unaligned
	ldrb	ip, [ip, #2]	@ zero_extendqisi2
	str	r0, [r4, #8]	@ unaligned
	str	r1, [r4, #12]	@ unaligned
	str	r2, [r4, #16]	@ unaligned
	strh	r6, [r4, #20]	@ unaligned
	strb	ip, [r4, #22]
	strb	lr, [r4, #23]
.L475:
	mov	r0, r4
	add	sp, sp, #8
	@ sp needed
	pop	{r4, r5, r6, pc}
.L487:
	add	r1, sp, #8
	add	r3, r0, #8
	mov	r2, #57
	str	r2, [r1, #-4]!
	str	r3, [r0]
	mov	r2, #0
	bl	_ZNSt7__cxx1112basic_stringIcSt11char_traitsIcESaIcEE9_M_createERjj(PLT)
	ldr	r5, .L488+4
	ldr	r3, [sp, #4]
.LPIC40:
	add	r5, pc, r5
	add	r6, r5, #48
	str	r3, [r4, #8]
	mov	lr, r0
	str	r0, [r4]
.L481:
	mov	ip, r5
	add	lr, lr, #16
	ldmia	ip!, {r0, r1, r2, r3}
	add	r5, r5, #16
	cmp	ip, r6
	str	r0, [lr, #-16]	@ unaligned
	str	r1, [lr, #-12]	@ unaligned
	str	r2, [lr, #-8]	@ unaligned
	str	r3, [lr, #-4]	@ unaligned
	bne	.L481
	ldmia	r5!, {r0, r1}
	mov	ip, #0
	ldrb	r3, [r5]	@ zero_extendqisi2
	str	r0, [lr]	@ unaligned
	str	r1, [lr, #4]	@ unaligned
	strb	r3, [lr, #8]
	ldr	r3, [sp, #4]
	ldr	r2, [r4]
	str	r3, [r4, #4]
	strb	ip, [r2, r3]
	b	.L475
.L484:
	ldr	ip, .L488+8
	add	r3, r0, #8
.LPIC37:
	add	ip, pc, ip
	mov	lr, #12
	ldmia	ip!, {r0, r1, r2}
	mov	ip, #0
	str	r3, [r4]
	str	lr, [r4, #4]
	str	r0, [r4, #8]	@ unaligned
	str	r1, [r4, #12]	@ unaligned
	str	r2, [r4, #16]	@ unaligned
	strb	ip, [r4, #20]
	b	.L475
.L485:
	ldr	r2, .L488+12
	add	r3, r0, #8
.LPIC38:
	add	r2, pc, r2
	mov	lr, #11
	ldmia	r2!, {r0, r1}
	mov	ip, #0
	str	r3, [r4]
	ldrh	r5, [r2]	@ unaligned
	ldrb	r2, [r2, #2]	@ zero_extendqisi2
	str	r0, [r4, #8]	@ unaligned
	str	r1, [r4, #12]	@ unaligned
	strh	r5, [r4, #16]	@ unaligned
	strb	r2, [r4, #18]
	str	lr, [r4, #4]
	strb	ip, [r4, #19]
	b	.L475
.L486:
	add	r1, sp, #8
	add	r3, r0, #8
	mov	r2, #17
	str	r2, [r1, #-4]!
	str	r3, [r0]
	mov	r2, #0
	bl	_ZNSt7__cxx1112basic_stringIcSt11char_traitsIcESaIcEE9_M_createERjj(PLT)
	ldr	ip, .L488+16
	ldr	r6, [sp, #4]
.LPIC39:
	add	ip, pc, ip
	str	r6, [r4, #8]
	mov	r5, #0
	str	r0, [r4]
	mov	lr, r0
	ldmia	ip!, {r0, r1, r2, r3}
	ldrb	ip, [ip]	@ zero_extendqisi2
	str	r0, [lr]	@ unaligned
	str	r1, [lr, #4]	@ unaligned
	strb	ip, [lr, #16]
	str	r2, [lr, #8]	@ unaligned
	str	r3, [lr, #12]	@ unaligned
	ldr	r3, [sp, #4]
	ldr	r2, [r4]
	str	r3, [r4, #4]
	strb	r5, [r2, r3]
	b	.L475
.L489:
	.align	2
.L488:
	.word	.LC18-(.LPIC41+8)
	.word	.LC17-(.LPIC40+8)
	.word	.LC14-(.LPIC37+8)
	.word	.LC15-(.LPIC38+8)
	.word	.LC16-(.LPIC39+8)
	.fnend
	.size	_ZNK4asio5error6detail13misc_category7messageB5cxx11Ei, .-_ZNK4asio5error6detail13misc_category7messageB5cxx11Ei
	.section	.text._ZNSt12system_errorC2ESt10error_codePKc,"axG",%progbits,_ZNSt12system_errorC5ESt10error_codePKc,comdat
	.align	2
	.weak	_ZNSt12system_errorC2ESt10error_codePKc
	.syntax unified
	.arm
	.fpu vfp
	.type	_ZNSt12system_errorC2ESt10error_codePKc, %function
_ZNSt12system_errorC2ESt10error_codePKc:
	.fnstart
.LFB1994:
	@ args = 0, pretend = 0, frame = 80
	@ frame_needed = 0, uses_anonymous_args = 0
	push	{r4, r5, r6, r7, r8, r9, r10, fp, lr}
	.save {r4, r5, r6, r7, r8, r9, r10, fp, lr}
	.pad #92
	sub	sp, sp, #92
	add	r4, sp, #8
	add	r8, sp, #64
	stm	r4, {r1, r2}
	ldr	r2, [sp, #12]
	mov	r5, r0
	mov	r1, r2
	ldr	ip, [r2]
	mov	r0, r8
	ldr	r2, [sp, #8]
	ldr	r6, [ip, #16]
	mov	r7, r3
.LEHB2:
	blx	r6
.LEHE2:
	mov	r3, #2
	str	r3, [sp]
	ldr	r3, .L509
	mov	r2, #0
	ldr	r9, .L509+4
	mov	r0, r8
	mov	r1, r2
.LPIC42:
	add	r3, pc, r3
.LPIC43:
	add	r9, pc, r9
.LEHB3:
	bl	_ZNSt7__cxx1112basic_stringIcSt11char_traitsIcESaIcEE10_M_replaceEjjPKcj(PLT)
.LEHE3:
	mov	lr, r0
	add	r6, sp, #48
	str	r6, [sp, #40]
	ldr	r3, [lr], #8
	mov	ip, r0
	cmp	r3, lr
	moveq	r10, r6
	ldreq	r0, [lr]	@ unaligned
	ldreq	r1, [lr, #4]	@ unaligned
	ldreq	r2, [lr, #8]	@ unaligned
	ldreq	r3, [lr, #12]	@ unaligned
	ldrne	r2, [ip, #8]
	strne	r3, [sp, #40]
	stmiaeq	r10!, {r0, r1, r2, r3}
	mov	fp, #0
	strne	r2, [sp, #48]
	ldr	r3, [ip, #4]
	strb	fp, [ip, #8]
	str	r3, [sp, #44]
	mov	r0, r7
	str	lr, [ip]
	str	fp, [ip, #4]
	bl	strlen(PLT)
	add	r10, sp, #40
	mov	r3, r7
	mov	r2, fp
	mov	r1, fp
	str	r0, [sp]
	mov	r0, r10
.LEHB4:
	bl	_ZNSt7__cxx1112basic_stringIcSt11char_traitsIcESaIcEE10_M_replaceEjjPKcj(PLT)
.LEHE4:
	mov	lr, r0
	add	r7, sp, #24
	str	r7, [sp, #16]
	ldr	r3, [lr], #8
	mov	ip, r0
	cmp	r3, lr
	moveq	fp, r7
	ldreq	r0, [lr]	@ unaligned
	ldreq	r1, [lr, #4]	@ unaligned
	ldreq	r2, [lr, #8]	@ unaligned
	ldreq	r3, [lr, #12]	@ unaligned
	ldrne	r2, [ip, #8]
	strne	r3, [sp, #16]
	stmiaeq	fp!, {r0, r1, r2, r3}
	mov	r3, #0
	strne	r2, [sp, #24]
	ldr	r2, [ip, #4]
	add	fp, sp, #16
	str	r2, [sp, #20]
	strb	r3, [ip, #8]
	str	lr, [ip]
	str	r3, [ip, #4]
	mov	r1, fp
	mov	r0, r5
.LEHB5:
	bl	_ZNSt13runtime_errorC2ERKNSt7__cxx1112basic_stringIcSt11char_traitsIcESaIcEEE(PLT)
.LEHE5:
	ldr	r0, [sp, #16]
	cmp	r0, r7
	beq	.L495
	bl	_ZdlPv(PLT)
.L495:
	ldr	r0, [sp, #40]
	cmp	r0, r6
	beq	.L496
	bl	_ZdlPv(PLT)
.L496:
	ldr	r0, [sp, #64]
	add	r3, sp, #72
	cmp	r0, r3
	beq	.L497
	bl	_ZdlPv(PLT)
.L497:
	ldr	r2, .L509+8
	ldm	r4, {r0, r1}
	mov	r3, r5
	ldr	r2, [r9, r2]
	add	r2, r2, #8
	str	r2, [r3], #8
	stm	r3, {r0, r1}
	mov	r0, r5
	add	sp, sp, #92
	@ sp needed
	pop	{r4, r5, r6, r7, r8, r9, r10, fp, pc}
.L504:
.L502:
	ldr	r0, [sp, #64]
	add	r8, r8, #8
	cmp	r0, r8
	beq	.L503
	bl	_ZdlPv(PLT)
.L503:
.LEHB6:
	bl	__cxa_end_cleanup(PLT)
.LEHE6:
.L506:
	ldr	r0, [sp, #16]
	add	fp, fp, #8
	cmp	r0, fp
	beq	.L500
	bl	_ZdlPv(PLT)
.L500:
	ldr	r0, [sp, #40]
	add	r10, r10, #8
	cmp	r0, r10
	beq	.L502
	bl	_ZdlPv(PLT)
	b	.L502
.L505:
	b	.L500
.L510:
	.align	2
.L509:
	.word	.LC19-(.LPIC42+8)
	.word	_GLOBAL_OFFSET_TABLE_-(.LPIC43+8)
	.word	_ZTVSt12system_error(GOT)
	.personality	__gxx_personality_v0
	.handlerdata
.LLSDA1994:
	.byte	0xff
	.byte	0xff
	.byte	0x1
	.uleb128 .LLSDACSE1994-.LLSDACSB1994
.LLSDACSB1994:
	.uleb128 .LEHB2-.LFB1994
	.uleb128 .LEHE2-.LEHB2
	.uleb128 0
	.uleb128 0
	.uleb128 .LEHB3-.LFB1994
	.uleb128 .LEHE3-.LEHB3
	.uleb128 .L504-.LFB1994
	.uleb128 0
	.uleb128 .LEHB4-.LFB1994
	.uleb128 .LEHE4-.LEHB4
	.uleb128 .L505-.LFB1994
	.uleb128 0
	.uleb128 .LEHB5-.LFB1994
	.uleb128 .LEHE5-.LEHB5
	.uleb128 .L506-.LFB1994
	.uleb128 0
	.uleb128 .LEHB6-.LFB1994
	.uleb128 .LEHE6-.LEHB6
	.uleb128 0
	.uleb128 0
.LLSDACSE1994:
	.section	.text._ZNSt12system_errorC2ESt10error_codePKc,"axG",%progbits,_ZNSt12system_errorC5ESt10error_codePKc,comdat
	.fnend
	.size	_ZNSt12system_errorC2ESt10error_codePKc, .-_ZNSt12system_errorC2ESt10error_codePKc
	.weak	_ZNSt12system_errorC1ESt10error_codePKc
	.set	_ZNSt12system_errorC1ESt10error_codePKc,_ZNSt12system_errorC2ESt10error_codePKc
	.section	.text._ZN4asio6detail14do_throw_errorERKSt10error_codePKc,"axG",%progbits,_ZN4asio6detail14do_throw_errorERKSt10error_codePKc,comdat
	.align	2
	.weak	_ZN4asio6detail14do_throw_errorERKSt10error_codePKc
	.syntax unified
	.arm
	.fpu vfp
	.type	_ZN4asio6detail14do_throw_errorERKSt10error_codePKc, %function
_ZN4asio6detail14do_throw_errorERKSt10error_codePKc:
	.fnstart
.LFB2048:
	@ args = 0, pretend = 0, frame = 16
	@ frame_needed = 0, uses_anonymous_args = 0
	push	{r4, r5, r6, lr}
	.save {r4, r5, r6, lr}
	.pad #16
	sub	sp, sp, #16
	mov	r3, r1
	ldm	r0, {r1, r2}
	mov	r0, sp
.LEHB7:
	bl	_ZNSt12system_errorC1ESt10error_codePKc(PLT)
.LEHE7:
	mov	r0, #16
	bl	__cxa_allocate_exception(PLT)
	mov	r1, sp
	mov	r5, sp
	mov	r6, r0
	bl	_ZNSt13runtime_errorC2ERKS_(PLT)
	ldr	r3, .L515
	ldr	r2, .L515+4
.LPIC44:
	add	r3, pc, r3
	add	r1, sp, #16
	ldr	r4, [r3, r2]
	ldmdb	r1, {r0, r1}
	ldr	lr, .L515+8
	ldr	ip, .L515+12
	mov	r2, r6
	add	r4, r4, #8
	str	r4, [r2], #8
	stm	r2, {r0, r1}
	mov	r0, r6
	ldr	r2, [r3, lr]
	ldr	r1, [r3, ip]
.LEHB8:
	bl	__cxa_throw(PLT)
.LEHE8:
.L513:
	mov	r0, r5
	bl	_ZNSt12system_errorD1Ev(PLT)
.LEHB9:
	bl	__cxa_end_cleanup(PLT)
.LEHE9:
.L516:
	.align	2
.L515:
	.word	_GLOBAL_OFFSET_TABLE_-(.LPIC44+8)
	.word	_ZTVSt12system_error(GOT)
	.word	_ZNSt12system_errorD1Ev(GOT)
	.word	_ZTISt12system_error(GOT)
	.personality	__gxx_personality_v0
	.handlerdata
.LLSDA2048:
	.byte	0xff
	.byte	0xff
	.byte	0x1
	.uleb128 .LLSDACSE2048-.LLSDACSB2048
.LLSDACSB2048:
	.uleb128 .LEHB7-.LFB2048
	.uleb128 .LEHE7-.LEHB7
	.uleb128 0
	.uleb128 0
	.uleb128 .LEHB8-.LFB2048
	.uleb128 .LEHE8-.LEHB8
	.uleb128 .L513-.LFB2048
	.uleb128 0
	.uleb128 .LEHB9-.LFB2048
	.uleb128 .LEHE9-.LEHB9
	.uleb128 0
	.uleb128 0
.LLSDACSE2048:
	.section	.text._ZN4asio6detail14do_throw_errorERKSt10error_codePKc,"axG",%progbits,_ZN4asio6detail14do_throw_errorERKSt10error_codePKc,comdat
	.fnend
	.size	_ZN4asio6detail14do_throw_errorERKSt10error_codePKc, .-_ZN4asio6detail14do_throw_errorERKSt10error_codePKc
	.section	.text._ZN4asio6detail13epoll_reactor12fork_serviceENS_10io_service10fork_eventE,"axG",%progbits,_ZN4asio6detail13epoll_reactor12fork_serviceENS_10io_service10fork_eventE,comdat
	.align	2
	.weak	_ZN4asio6detail13epoll_reactor12fork_serviceENS_10io_service10fork_eventE
	.syntax unified
	.arm
	.fpu vfp
	.type	_ZN4asio6detail13epoll_reactor12fork_serviceENS_10io_service10fork_eventE, %function
_ZN4asio6detail13epoll_reactor12fork_serviceENS_10io_service10fork_eventE:
	.fnstart
.LFB3028:
	@ args = 0, pretend = 0, frame = 72
	@ frame_needed = 0, uses_anonymous_args = 0
	push	{r4, r5, r6, r7, r8, r9, r10, fp, lr}
	.save {r4, r5, r6, r7, r8, r9, r10, fp, lr}
	cmp	r1, #2
	ldr	fp, .L642
	.pad #76
	sub	sp, sp, #76
.LPIC45:
	add	fp, pc, fp
	beq	.L629
	add	sp, sp, #76
	@ sp needed
	pop	{r4, r5, r6, r7, r8, r9, r10, fp, pc}
.L629:
	mov	r5, r0
	ldr	r0, [r0, #56]
	cmn	r0, #1
	beq	.L519
.LEHB10:
	bl	close(PLT)
.L519:
	mvn	r3, #0
	str	r3, [r5, #56]
	mov	r0, #524288
	bl	epoll_create1(PLT)
	cmn	r0, #1
	mov	r4, r0
	beq	.L630
.L520:
	ldr	r0, [r5, #60]
	str	r4, [r5, #56]
	cmn	r0, #1
	beq	.L526
	bl	close(PLT)
.L526:
	mvn	r3, #0
	str	r3, [r5, #60]
	mov	r1, #524288
	mov	r0, #1
	bl	timerfd_create(PLT)
	cmn	r0, #1
	mov	r4, r0
	beq	.L631
.L527:
	ldr	r3, [r5, #52]
	str	r4, [r5, #60]
	cmn	r3, #1
	add	r4, r5, #48
	beq	.L528
	ldr	r0, [r5, #48]
	cmp	r3, r0
	beq	.L529
	mov	r0, r3
	bl	close(PLT)
.L528:
	ldr	r0, [r5, #48]
	cmn	r0, #1
	beq	.L530
.L529:
	bl	close(PLT)
.L530:
	mvn	r3, #0
	str	r3, [r5, #52]
	str	r3, [r5, #48]
	ldr	r1, .L642+4
	mov	r0, #0
	bl	eventfd(PLT)
	cmn	r0, #1
	mov	r2, r0
	str	r0, [r5, #48]
	str	r0, [r5, #52]
	beq	.L632
.L531:
	add	r10, sp, #24
	mov	ip, #-2147483639
	mov	r3, r10
	mov	r6, #0
	mov	r1, #1
	ldr	r0, [r5, #56]
	str	ip, [sp, #24]
	add	r9, sp, #72
	str	r4, [sp, #32]
	str	r6, [r10, #4]
	str	r6, [r10, #12]
	bl	epoll_ctl(PLT)
	mov	r2, #1
	mov	r3, #0
	ldr	r0, [r5, #52]
	strd	r2, [r9, #-16]!
	mov	r2, #8
	mov	r1, r9
	bl	write(PLT)
	ldr	r2, [r5, #60]
	cmn	r2, #1
	beq	.L539
	mov	r0, #9
	add	ip, r5, #60
	str	r0, [sp, #24]
	mov	r3, r10
	mov	r1, #1
	ldr	r0, [r5, #56]
	str	ip, [sp, #32]
	bl	epoll_ctl(PLT)
	ldr	r0, [r5, #60]
	cmn	r0, #1
	beq	.L539
	ldr	r4, [r5, #64]
	str	r6, [sp, #40]
	cmp	r4, r6
	str	r6, [sp, #44]
	beq	.L540
	ldr	r3, .L642+8
	ldr	r8, .L642+12
	add	r2, sp, #16
	ldr	r7, [fp, r3]
	str	fp, [sp]
	str	r10, [sp, #4]
	str	r5, [sp, #12]
	mov	r10, r7
	str	r9, [sp, #8]
	mov	fp, r2
	mov	r5, r8
	b	.L548
.L635:
	ldr	r6, [r4, #12]
	ldr	r3, [r4, #16]
	cmp	r6, r3
	beq	.L542
	mov	r0, fp
	bl	_ZNSt6chrono3_V212steady_clock3nowEv(PLT)
	ldrd	r0, [r6]
	ldrd	r2, [sp, #16]
	cmp	r0, #0
	sbcs	ip, r1, #0
	blt	.L543
	cmp	r2, #0
	sbcs	ip, r3, #0
	blt	.L633
.L626:
	subs	r0, r0, r2
	sbc	r1, r1, r3
	cmp	r0, #1
	sbcs	r3, r1, #0
	blt	.L567
.L547:
	mov	r3, #0
	mov	r2, #1000
	bl	__aeabi_ldivmod(PLT)
	orrs	r3, r0, r1
	moveq	r5, #1
	beq	.L542
	asr	r3, r5, #31
	cmp	r5, r0
	sbcs	r3, r3, r1
	movge	r5, r0
.L542:
	ldr	r4, [r4, #4]
	cmp	r4, #0
	beq	.L634
.L548:
	ldr	r3, [r4]
	ldr	r3, [r3, #16]
	cmp	r3, r10
	beq	.L635
	mov	r1, r5
	mov	r0, r4
	blx	r3
.LEHE10:
	ldr	r4, [r4, #4]
	cmp	r4, #0
	mov	r5, r0
	bne	.L548
.L634:
	ldr	r2, .L642+16
	mov	r8, r5
	cmp	r8, #0
	smull	r1, r2, r2, r8
	ldr	fp, [sp]
	asr	r3, r8, #31
	rsb	r3, r3, r2, asr #18
	ldr	r10, [sp, #4]
	ldr	r9, [sp, #8]
	ldr	r5, [sp, #12]
	str	r3, [sp, #48]
	beq	.L636
	ldr	r2, .L642+20
	mov	r4, #1000
	ldr	r0, [r5, #60]
	mul	r3, r2, r3
	sub	r3, r8, r3
	mul	r4, r4, r3
.L565:
	mov	r1, #0
.L550:
	mov	r3, r9
	add	r2, sp, #40
	str	r4, [sp, #52]
	bl	timerfd_settime(PLT)
	b	.L551
.L539:
	mov	r0, #0
	mov	ip, #-2147483639
	str	r0, [r9, #4]
	str	r0, [r9, #12]
	mov	r3, r9
	ldr	r2, [r5, #48]
	mov	r1, #3
	ldr	r0, [r5, #56]
	str	r4, [sp, #64]
	str	ip, [sp, #56]
	bl	epoll_ctl(PLT)
.L551:
	add	r3, r5, #72
	mov	r0, r3
	str	r3, [sp]
	bl	pthread_mutex_lock(PLT)
	ldr	r4, [r5, #96]
	cmp	r4, #0
	beq	.L558
	ldr	r3, .L642+24
	mov	r6, #1
.LPIC50:
	add	r3, pc, r3
	str	r3, [sp, #4]
	b	.L559
.L553:
	ldr	r4, [r4, #12]
	cmp	r4, #0
	beq	.L558
.L559:
	ldr	ip, [r4, #52]
	mov	r3, r10
	ldr	r2, [r4, #48]
	mov	r1, r6
	ldr	r0, [r5, #56]
	str	r4, [sp, #32]
	str	ip, [sp, #24]
	bl	epoll_ctl(PLT)
	cmp	r0, #0
	beq	.L553
	bl	__errno_location(PLT)
	ldr	r3, .L642+28
	ldr	r8, [fp, r3]
	ldr	r7, [r0]
	ldrb	r3, [r8]	@ zero_extendqisi2
	mcr	p15, 0, r0, c7, c10, 5
	tst	r3, #1
	beq	.L637
.L627:
	ldr	r3, .L642+32
	ldr	r8, [fp, r3]
.L555:
	cmp	r7, #0
	str	r7, [sp, #56]
	str	r8, [sp, #60]
	beq	.L553
	ldr	r1, .L642+36
	mov	r0, r9
.LPIC51:
	add	r1, pc, r1
.LEHB11:
	bl	_ZN4asio6detail14do_throw_errorERKSt10error_codePKc(PLT)
.LEHE11:
.L637:
	mov	r0, r8
	bl	__cxa_guard_acquire(PLT)
	cmp	r0, #0
	beq	.L627
	mov	r0, r8
	bl	__cxa_guard_release(PLT)
	ldr	r3, .L642+32
	ldr	r1, .L642+40
	ldr	r2, [sp, #4]
	ldr	r8, [fp, r3]
	ldr	r1, [fp, r1]
	mov	r0, r8
	bl	__aeabi_atexit(PLT)
	b	.L555
.L543:
	cmp	r2, #0
	sbcs	ip, r3, #0
	blt	.L626
.L567:
	mov	r5, #0
	b	.L542
.L633:
	cmp	r3, #-2147483648
	cmpeq	r2, #0
	beq	.L542
	mvn	r8, #0
	subs	r8, r8, r0
	mvn	r9, #-2147483648
	sbc	r9, r9, r1
	rsbs	r6, r2, #0
	rsc	r7, r3, #0
	cmp	r8, r6
	sbcs	ip, r9, r7
	blt	.L542
	subs	r0, r0, r2
	sbc	r1, r1, r3
	b	.L547
.L558:
	ldr	r0, [sp]
	bl	pthread_mutex_unlock(PLT)
	add	sp, sp, #76
	@ sp needed
	pop	{r4, r5, r6, r7, r8, r9, r10, fp, pc}
.L631:
	bl	__errno_location(PLT)
	ldr	r3, [r0]
	cmp	r3, #22
	bne	.L527
	mov	r1, #0
	mov	r0, #1
	bl	timerfd_create(PLT)
	cmn	r0, #1
	mov	r4, r0
	beq	.L527
	mov	r2, #1
	mov	r1, #2
.LEHB12:
	bl	fcntl(PLT)
	b	.L527
.L630:
	bl	__errno_location(PLT)
	ldr	r6, [r0]
	mov	r7, r0
	sub	r3, r6, #22
	bics	r3, r3, #16
	beq	.L638
.L521:
	ldr	r3, .L642+28
	ldr	r7, [fp, r3]
	ldrb	r3, [r7]	@ zero_extendqisi2
	mcr	p15, 0, r0, c7, c10, 5
	tst	r3, #1
	beq	.L561
.L624:
	ldr	r3, .L642+32
	ldr	r7, [fp, r3]
.L524:
	cmp	r6, #0
	str	r6, [sp, #56]
	str	r7, [sp, #60]
	beq	.L520
	ldr	r1, .L642+44
	add	r0, sp, #56
.LPIC47:
	add	r1, pc, r1
	bl	_ZN4asio6detail14do_throw_errorERKSt10error_codePKc(PLT)
.L632:
	bl	__errno_location(PLT)
	ldr	r3, [r0]
	mov	r6, r0
	cmp	r3, #22
	beq	.L639
.L533:
	add	r0, sp, #40
	bl	pipe(PLT)
	cmp	r0, #0
	bne	.L640
	ldr	r0, [sp, #40]
	mov	r2, #2048
	mov	r1, #4
	str	r0, [r5, #48]
	bl	fcntl(PLT)
	mov	r2, #1
	mov	r1, #2
	ldr	r0, [r5, #48]
	bl	fcntl(PLT)
	ldr	r0, [sp, #44]
	mov	r2, #2048
	mov	r1, #4
	str	r0, [r5, #52]
	bl	fcntl(PLT)
	mov	r2, #1
	mov	r1, #2
	ldr	r0, [r5, #52]
	bl	fcntl(PLT)
.L534:
	ldr	r2, [r5, #48]
	b	.L531
.L636:
	mov	r1, #1
	mov	r4, r1
	ldr	r0, [r5, #60]
	b	.L550
.L569:
	ldr	r0, [sp]
	bl	pthread_mutex_unlock(PLT)
	bl	__cxa_end_cleanup(PLT)
.L640:
	ldr	r3, .L642+28
	ldr	r6, [r6]
	ldr	r7, [fp, r3]
	ldrb	r3, [r7]	@ zero_extendqisi2
	mcr	p15, 0, r0, c7, c10, 5
	tst	r3, #1
	beq	.L641
.L625:
	ldr	r3, .L642+32
	ldr	r7, [fp, r3]
.L536:
	cmp	r6, #0
	str	r6, [sp, #56]
	str	r7, [sp, #60]
	beq	.L534
	ldr	r1, .L642+48
	add	r0, sp, #56
.LPIC49:
	add	r1, pc, r1
	bl	_ZN4asio6detail14do_throw_errorERKSt10error_codePKc(PLT)
.L638:
	ldr	r0, .L642+52
	bl	epoll_create(PLT)
	cmn	r0, #1
	bne	.L522
	ldr	r6, [r7]
	b	.L521
.L561:
	mov	r0, r7
	bl	__cxa_guard_acquire(PLT)
	cmp	r0, #0
	beq	.L624
	mov	r0, r7
	bl	__cxa_guard_release(PLT)
	ldr	r3, .L642+32
	ldr	r1, .L642+40
	ldr	r2, .L642+56
	ldr	r7, [fp, r3]
.LPIC46:
	add	r2, pc, r2
	ldr	r1, [fp, r1]
	mov	r0, r7
	bl	__aeabi_atexit(PLT)
	b	.L524
.L540:
	mov	r3, #300
	str	r3, [sp, #48]
	b	.L565
.L522:
	mov	r2, #1
	mov	r1, #2
	mov	r4, r0
	bl	fcntl(PLT)
	b	.L520
.L641:
	mov	r0, r7
	bl	__cxa_guard_acquire(PLT)
	cmp	r0, #0
	beq	.L625
	mov	r0, r7
	bl	__cxa_guard_release(PLT)
	ldr	r3, .L642+32
	ldr	r1, .L642+40
	ldr	r2, .L642+60
	ldr	r7, [fp, r3]
.LPIC48:
	add	r2, pc, r2
	ldr	r1, [fp, r1]
	mov	r0, r7
	bl	__aeabi_atexit(PLT)
	b	.L536
.L639:
	mov	r1, #0
	mov	r0, r1
	bl	eventfd(PLT)
	cmn	r0, #1
	str	r0, [r5, #48]
	str	r0, [r5, #52]
	beq	.L533
	mov	r2, #2048
	mov	r1, #4
	bl	fcntl(PLT)
	mov	r2, #1
	mov	r1, #2
	ldr	r0, [r5, #48]
	bl	fcntl(PLT)
.LEHE12:
	ldr	r2, [r5, #48]
	cmn	r2, #1
	bne	.L531
	b	.L533
.L643:
	.align	2
.L642:
	.word	_GLOBAL_OFFSET_TABLE_-(.LPIC45+8)
	.word	526336
	.word	_ZNK4asio6detail11timer_queueINS0_18chrono_time_traitsINSt6chrono3_V212steady_clockENS_11wait_traitsIS5_EEEEE18wait_duration_usecEl(GOT)
	.word	300000000
	.word	1125899907
	.word	1000000
	.word	__dso_handle-(.LPIC50+8)
	.word	_ZGVZN4asio15system_categoryEvE8instance(GOT)
	.word	_ZZN4asio15system_categoryEvE8instance(GOT)
	.word	.LC22-(.LPIC51+8)
	.word	_ZN4asio6detail15system_categoryD1Ev(GOT)
	.word	.LC20-(.LPIC47+8)
	.word	.LC21-(.LPIC49+8)
	.word	20000
	.word	__dso_handle-(.LPIC46+8)
	.word	__dso_handle-(.LPIC48+8)
	.personality	__gxx_personality_v0
	.handlerdata
.LLSDA3028:
	.byte	0xff
	.byte	0xff
	.byte	0x1
	.uleb128 .LLSDACSE3028-.LLSDACSB3028
.LLSDACSB3028:
	.uleb128 .LEHB10-.LFB3028
	.uleb128 .LEHE10-.LEHB10
	.uleb128 0
	.uleb128 0
	.uleb128 .LEHB11-.LFB3028
	.uleb128 .LEHE11-.LEHB11
	.uleb128 .L569-.LFB3028
	.uleb128 0
	.uleb128 .LEHB12-.LFB3028
	.uleb128 .LEHE12-.LEHB12
	.uleb128 0
	.uleb128 0
.LLSDACSE3028:
	.section	.text._ZN4asio6detail13epoll_reactor12fork_serviceENS_10io_service10fork_eventE,"axG",%progbits,_ZN4asio6detail13epoll_reactor12fork_serviceENS_10io_service10fork_eventE,comdat
	.fnend
	.size	_ZN4asio6detail13epoll_reactor12fork_serviceENS_10io_service10fork_eventE, .-_ZN4asio6detail13epoll_reactor12fork_serviceENS_10io_service10fork_eventE
	.section	.text._ZN4asio6detail20posix_tss_ptr_createERj,"axG",%progbits,_ZN4asio6detail20posix_tss_ptr_createERj,comdat
	.align	2
	.weak	_ZN4asio6detail20posix_tss_ptr_createERj
	.syntax unified
	.arm
	.fpu vfp
	.type	_ZN4asio6detail20posix_tss_ptr_createERj, %function
_ZN4asio6detail20posix_tss_ptr_createERj:
	.fnstart
.LFB2072:
	@ args = 0, pretend = 0, frame = 8
	@ frame_needed = 0, uses_anonymous_args = 0
	push	{r4, r5, r6, lr}
	.save {r4, r5, r6, lr}
	mov	r1, #0
	.pad #8
	sub	sp, sp, #8
	bl	pthread_key_create(PLT)
	ldr	r4, .L656
	ldr	r3, .L656+4
.LPIC52:
	add	r4, pc, r4
	ldr	r6, [r4, r3]
	ldrb	r3, [r6]	@ zero_extendqisi2
	mcr	p15, 0, r0, c7, c10, 5
	tst	r3, #1
	mov	r5, r0
	beq	.L654
.L653:
	ldr	r3, .L656+8
	ldr	r4, [r4, r3]
.L646:
	cmp	r5, #0
	str	r5, [sp]
	str	r4, [sp, #4]
	bne	.L655
	add	sp, sp, #8
	@ sp needed
	pop	{r4, r5, r6, pc}
.L654:
	mov	r0, r6
	bl	__cxa_guard_acquire(PLT)
	cmp	r0, #0
	beq	.L653
	mov	r0, r6
	bl	__cxa_guard_release(PLT)
	ldr	r3, .L656+8
	ldr	r1, .L656+12
	ldr	r2, .L656+16
	ldr	r1, [r4, r1]
	ldr	r4, [r4, r3]
.LPIC53:
	add	r2, pc, r2
	mov	r0, r4
	bl	__aeabi_atexit(PLT)
	b	.L646
.L655:
	ldr	r1, .L656+20
	mov	r0, sp
.LPIC54:
	add	r1, pc, r1
	bl	_ZN4asio6detail14do_throw_errorERKSt10error_codePKc(PLT)
.L657:
	.align	2
.L656:
	.word	_GLOBAL_OFFSET_TABLE_-(.LPIC52+8)
	.word	_ZGVZN4asio15system_categoryEvE8instance(GOT)
	.word	_ZZN4asio15system_categoryEvE8instance(GOT)
	.word	_ZN4asio6detail15system_categoryD1Ev(GOT)
	.word	__dso_handle-(.LPIC53+8)
	.word	.LC23-(.LPIC54+8)
	.fnend
	.size	_ZN4asio6detail20posix_tss_ptr_createERj, .-_ZN4asio6detail20posix_tss_ptr_createERj
	.section	.text._ZN4asio6detail11object_poolINS0_13epoll_reactor16descriptor_stateEED2Ev,"axG",%progbits,_ZN4asio6detail11object_poolINS0_13epoll_reactor16descriptor_stateEED5Ev,comdat
	.align	2
	.weak	_ZN4asio6detail11object_poolINS0_13epoll_reactor16descriptor_stateEED2Ev
	.syntax unified
	.arm
	.fpu vfp
	.type	_ZN4asio6detail11object_poolINS0_13epoll_reactor16descriptor_stateEED2Ev, %function
_ZN4asio6detail11object_poolINS0_13epoll_reactor16descriptor_stateEED2Ev:
	.fnstart
.LFB6528:
	@ args = 0, pretend = 0, frame = 16
	@ frame_needed = 0, uses_anonymous_args = 0
	push	{r4, r5, r6, r7, r8, r9, r10, fp, lr}
	.save {r4, r5, r6, r7, r8, r9, r10, fp, lr}
	.pad #20
	sub	sp, sp, #20
	ldr	r10, [r0]
	str	r0, [sp, #4]
	cmp	r10, #0
	addne	r8, sp, #8
	movne	r5, #0
	beq	.L697
.L669:
	ldr	fp, [r10, #12]
	add	r9, r10, #56
	add	r4, r10, #80
.L664:
	ldr	r1, [r4, #-8]
	cmp	r1, #0
	beq	.L666
	str	r1, [sp]
	bl	_ZNSt3_V215system_categoryEv(PLT)
	ldr	r1, [sp]
	mov	r7, r0
.L667:
	ldr	r3, [r1]
	ldr	r6, [r1, #4]
	cmp	r3, #0
	streq	r3, [r4, #-4]
	str	r3, [r4, #-8]
	mov	r3, #0
	str	r5, [r1]
	mov	r0, r3
	str	r5, [sp, #8]
	str	r7, [sp, #12]
	mov	r2, r8
	blx	r6
	ldr	r1, [r4, #-8]
	cmp	r1, #0
	bne	.L667
.L666:
	sub	r4, r4, #8
	cmp	r9, r4
	bne	.L664
	add	r0, r10, #20
	bl	pthread_mutex_destroy(PLT)
	mov	r0, r10
	mov	r1, #84
	bl	_ZdlPvj(PLT)
	subs	r10, fp, #0
	bne	.L669
	ldr	r3, [sp, #4]
.L668:
	ldr	r10, [r3, #4]
	cmp	r10, #0
	addne	r8, sp, #8
	movne	r5, #0
	beq	.L682
.L676:
	ldr	fp, [r10, #12]
	add	r9, r10, #56
	add	r4, r10, #80
.L672:
	ldr	r1, [r4, #-8]
	cmp	r1, #0
	beq	.L674
	str	r1, [sp]
	bl	_ZNSt3_V215system_categoryEv(PLT)
	ldr	r1, [sp]
	mov	r7, r0
.L675:
	ldr	r3, [r1]
	ldr	r6, [r1, #4]
	cmp	r3, #0
	streq	r3, [r4, #-4]
	str	r3, [r4, #-8]
	mov	r3, #0
	str	r5, [r1]
	mov	r0, r3
	str	r5, [sp, #8]
	str	r7, [sp, #12]
	mov	r2, r8
	blx	r6
	ldr	r1, [r4, #-8]
	cmp	r1, #0
	bne	.L675
.L674:
	sub	r4, r4, #8
	cmp	r9, r4
	bne	.L672
	add	r0, r10, #20
	bl	pthread_mutex_destroy(PLT)
	mov	r0, r10
	mov	r1, #84
	bl	_ZdlPvj(PLT)
	subs	r10, fp, #0
	bne	.L676
.L682:
	ldr	r0, [sp, #4]
	add	sp, sp, #20
	@ sp needed
	pop	{r4, r5, r6, r7, r8, r9, r10, fp, pc}
.L697:
	mov	r3, r0
	b	.L668
	.personality	__gxx_personality_v0
	.handlerdata
.LLSDA6528:
	.byte	0xff
	.byte	0xff
	.byte	0x1
	.uleb128 .LLSDACSE6528-.LLSDACSB6528
.LLSDACSB6528:
.LLSDACSE6528:
	.section	.text._ZN4asio6detail11object_poolINS0_13epoll_reactor16descriptor_stateEED2Ev,"axG",%progbits,_ZN4asio6detail11object_poolINS0_13epoll_reactor16descriptor_stateEED5Ev,comdat
	.fnend
	.size	_ZN4asio6detail11object_poolINS0_13epoll_reactor16descriptor_stateEED2Ev, .-_ZN4asio6detail11object_poolINS0_13epoll_reactor16descriptor_stateEED2Ev
	.weak	_ZN4asio6detail11object_poolINS0_13epoll_reactor16descriptor_stateEED1Ev
	.set	_ZN4asio6detail11object_poolINS0_13epoll_reactor16descriptor_stateEED1Ev,_ZN4asio6detail11object_poolINS0_13epoll_reactor16descriptor_stateEED2Ev
	.section	.text._ZN4asio6detail16service_registry6createINS0_13epoll_reactorEEEPNS_10io_service7serviceERS4_,"axG",%progbits,_ZN4asio6detail16service_registry6createINS0_13epoll_reactorEEEPNS_10io_service7serviceERS4_,comdat
	.align	2
	.weak	_ZN4asio6detail16service_registry6createINS0_13epoll_reactorEEEPNS_10io_service7serviceERS4_
	.syntax unified
	.arm
	.fpu vfp
	.type	_ZN4asio6detail16service_registry6createINS0_13epoll_reactorEEEPNS_10io_service7serviceERS4_, %function
_ZN4asio6detail16service_registry6createINS0_13epoll_reactorEEEPNS_10io_service7serviceERS4_:
	.fnstart
.LFB7056:
	@ args = 0, pretend = 0, frame = 64
	@ frame_needed = 0, uses_anonymous_args = 0
	push	{r4, r5, r6, r7, r8, r9, r10, fp, lr}
	.save {r4, r5, r6, r7, r8, r9, r10, fp, lr}
	mov	r5, r0
	.pad #68
	sub	sp, sp, #68
	mov	r0, #104
.LEHB13:
	bl	_Znwj(PLT)
.LEHE13:
	ldr	r6, .L797
	ldr	r3, .L797+4
.LPIC55:
	add	r6, pc, r6
	mov	r1, #0
	ldr	r2, [r5, #4]
	str	r5, [r0, #12]
	str	r1, [r0, #4]
	str	r1, [r0, #8]
	str	r1, [r0, #16]
	ldr	r3, [r6, r3]
	mov	r4, r0
	add	r8, r0, #24
	add	r3, r3, #8
	mov	r0, r8
	str	r3, [r4]
	str	r2, [r4, #20]
	bl	pthread_mutex_init(PLT)
	ldr	r3, .L797+8
	ldr	r7, [r6, r3]
	ldrb	r3, [r7]	@ zero_extendqisi2
	mcr	p15, 0, r0, c7, c10, 5
	tst	r3, #1
	mov	r5, r0
	beq	.L784
.L780:
	ldr	r3, .L797+12
	ldr	fp, [r6, r3]
.L700:
	cmp	r5, #0
	str	r5, [sp, #16]
	str	fp, [sp, #20]
	bne	.L785
	ldr	r1, .L797+16
	mov	r0, r5
	bl	eventfd(PLT)
	add	r10, r4, #48
	cmn	r0, #1
	str	r0, [r4, #48]
	str	r0, [r4, #52]
	beq	.L786
.L704:
	mov	r0, #524288
	bl	epoll_create1(PLT)
	cmn	r0, #1
	mov	r5, r0
	beq	.L787
.L713:
	mov	r1, #524288
	mov	r0, #1
	str	r5, [r4, #56]
	bl	timerfd_create(PLT)
	cmn	r0, #1
	mov	r5, r0
	beq	.L788
.L719:
	mov	r3, #0
	add	r9, r4, #72
	mov	r1, r3
	mov	r0, r9
	str	r5, [r4, #60]
	str	r3, [r4, #64]
	strb	r3, [r4, #68]
	bl	pthread_mutex_init(PLT)
	ldrb	r3, [r7]	@ zero_extendqisi2
	mcr	p15, 0, r0, c7, c10, 5
	tst	r3, #1
	mov	r5, r0
	beq	.L789
.L723:
	cmp	r5, #0
	str	r5, [sp, #48]
	str	fp, [sp, #52]
	bne	.L790
	add	r6, sp, #48
	mov	r3, r6
	mov	ip, #-2147483639
	ldr	r2, [r4, #48]
	mov	r1, #1
	ldr	r0, [r4, #56]
	str	r5, [r4, #96]
	str	r5, [r4, #100]
	str	r10, [sp, #56]
	str	r5, [r6, #4]
	str	r5, [r6, #12]
	str	ip, [sp, #48]
	bl	epoll_ctl(PLT)
	mov	r2, #1
	mov	r3, #0
	add	r1, sp, #64
	ldr	r0, [r4, #52]
	strd	r2, [r1, #-56]!
	mov	r2, #8
.LEHB14:
	bl	write(PLT)
.LEHE14:
	ldr	r2, [r4, #60]
	cmn	r2, #1
	beq	.L754
	mov	lr, #9
	add	ip, r4, #60
	mov	r3, r6
	mov	r1, #1
	ldr	r0, [r4, #56]
	str	lr, [sp, #48]
	str	ip, [sp, #56]
	bl	epoll_ctl(PLT)
.L754:
	mov	r0, r4
	add	sp, sp, #68
	@ sp needed
	pop	{r4, r5, r6, r7, r8, r9, r10, fp, pc}
.L784:
	mov	r0, r7
	bl	__cxa_guard_acquire(PLT)
	cmp	r0, #0
	beq	.L780
	mov	r0, r7
	bl	__cxa_guard_release(PLT)
	ldr	r3, .L797+12
	ldr	r1, .L797+20
	ldr	r2, .L797+24
	ldr	fp, [r6, r3]
.LPIC56:
	add	r2, pc, r2
	ldr	r1, [r6, r1]
	mov	r0, fp
	bl	__aeabi_atexit(PLT)
	b	.L700
.L789:
	mov	r0, r7
	bl	__cxa_guard_acquire(PLT)
	cmp	r0, #0
	beq	.L723
	mov	r0, r7
	bl	__cxa_guard_release(PLT)
	ldr	r3, .L797+20
	ldr	r2, .L797+28
	mov	r0, fp
.LPIC62:
	add	r2, pc, r2
	ldr	r1, [r6, r3]
	bl	__aeabi_atexit(PLT)
	b	.L723
.L788:
	bl	__errno_location(PLT)
	ldr	r3, [r0]
	cmp	r3, #22
	bne	.L719
	mov	r1, #0
	mov	r0, #1
	bl	timerfd_create(PLT)
	cmn	r0, #1
	mov	r9, r0
	beq	.L719
	mov	r2, #1
	mov	r1, #2
.LEHB15:
	bl	fcntl(PLT)
	mov	r5, r9
	b	.L719
.L787:
	bl	__errno_location(PLT)
	ldr	r9, [r0]
	sub	r2, r9, #22
	bics	r2, r2, #16
	beq	.L791
.L714:
	ldrb	r3, [r7]	@ zero_extendqisi2
	mcr	p15, 0, r0, c7, c10, 5
	tst	r3, #1
	beq	.L792
.L717:
	cmp	r9, #0
	str	r9, [sp, #40]
	str	fp, [sp, #44]
	beq	.L713
	ldr	r1, .L797+32
	add	r0, sp, #40
.LPIC61:
	add	r1, pc, r1
	bl	_ZN4asio6detail14do_throw_errorERKSt10error_codePKc(PLT)
.LEHE15:
.L786:
	bl	__errno_location(PLT)
	ldr	r3, [r0]
	mov	r9, r0
	cmp	r3, #22
	beq	.L793
.L706:
	add	r0, sp, #24
	bl	pipe(PLT)
	cmp	r0, #0
	bne	.L794
	ldr	r3, [sp, #24]
	mov	r2, #2048
	mov	r0, r3
	mov	r1, #4
	str	r3, [r4, #48]
.LEHB16:
	bl	fcntl(PLT)
	mov	r2, #1
	mov	r1, #2
	ldr	r0, [r4, #48]
	bl	fcntl(PLT)
	ldr	r3, [sp, #28]
	mov	r2, #2048
	mov	r0, r3
	mov	r1, #4
	str	r3, [r4, #52]
	bl	fcntl(PLT)
	mov	r2, #1
	mov	r1, #2
	ldr	r0, [r4, #52]
	bl	fcntl(PLT)
	b	.L704
.L794:
	ldr	r5, [r9]
	ldrb	r3, [r7]	@ zero_extendqisi2
	mcr	p15, 0, r0, c7, c10, 5
	tst	r3, #1
	beq	.L795
.L710:
	cmp	r5, #0
	str	r5, [sp, #32]
	str	fp, [sp, #36]
	beq	.L704
	ldr	r1, .L797+36
	add	r0, sp, #32
.LPIC59:
	add	r1, pc, r1
	bl	_ZN4asio6detail14do_throw_errorERKSt10error_codePKc(PLT)
.LEHE16:
.L792:
	mov	r0, r7
	bl	__cxa_guard_acquire(PLT)
	cmp	r0, #0
	beq	.L717
	mov	r0, r7
	bl	__cxa_guard_release(PLT)
	ldr	r3, .L797+20
	ldr	r2, .L797+40
	mov	r0, fp
.LPIC60:
	add	r2, pc, r2
	ldr	r1, [r6, r3]
	bl	__aeabi_atexit(PLT)
	b	.L717
.L791:
	str	r0, [sp, #4]
	ldr	r0, .L797+44
	bl	epoll_create(PLT)
	cmn	r0, #1
	mov	r9, r0
	beq	.L796
	mov	r2, #1
	mov	r1, #2
.LEHB17:
	bl	fcntl(PLT)
.LEHE17:
	mov	r5, r9
	b	.L713
.L796:
	ldr	r3, [sp, #4]
	ldr	r9, [r3]
	b	.L714
.L741:
.L728:
	ldr	r0, [r4, #52]
	cmn	r0, #1
	beq	.L729
	ldr	r3, [r4, #48]
	cmp	r0, r3
	beq	.L730
	bl	close(PLT)
.L729:
	ldr	r3, [r4, #48]
	cmn	r3, #1
	beq	.L732
.L730:
	mov	r0, r3
	bl	close(PLT)
.L732:
	mov	r0, r8
	bl	pthread_mutex_destroy(PLT)
.L733:
	mov	r0, r4
	mov	r1, #104
	bl	_ZdlPvj(PLT)
.LEHB18:
	bl	__cxa_end_cleanup(PLT)
.LEHE18:
.L795:
	mov	r0, r7
	bl	__cxa_guard_acquire(PLT)
	cmp	r0, #0
	beq	.L710
	mov	r0, r7
	bl	__cxa_guard_release(PLT)
	ldr	r3, .L797+20
	ldr	r2, .L797+48
	mov	r0, fp
.LPIC58:
	add	r2, pc, r2
	ldr	r1, [r6, r3]
	bl	__aeabi_atexit(PLT)
	b	.L710
.L793:
	mov	r1, r5
	mov	r0, r5
	bl	eventfd(PLT)
	cmn	r0, #1
	str	r0, [r4, #48]
	str	r0, [r4, #52]
	beq	.L706
	mov	r2, #2048
	mov	r1, #4
.LEHB19:
	bl	fcntl(PLT)
	mov	r2, #1
	mov	r1, #2
	ldr	r0, [r4, #48]
	bl	fcntl(PLT)
.LEHE19:
	ldr	r3, [r4, #48]
	cmn	r3, #1
	bne	.L704
	b	.L706
.L785:
	ldr	r1, .L797+52
	add	r0, sp, #16
.LPIC57:
	add	r1, pc, r1
.LEHB20:
	bl	_ZN4asio6detail14do_throw_errorERKSt10error_codePKc(PLT)
.LEHE20:
.L739:
	b	.L733
.L790:
	ldr	r1, .L797+56
	add	r0, sp, #48
.LPIC63:
	add	r1, pc, r1
.LEHB21:
	bl	_ZN4asio6detail14do_throw_errorERKSt10error_codePKc(PLT)
.LEHE21:
.L742:
	add	r0, r4, #96
	bl	_ZN4asio6detail11object_poolINS0_13epoll_reactor16descriptor_stateEED1Ev(PLT)
	mov	r0, r9
	bl	pthread_mutex_destroy(PLT)
	b	.L728
.L740:
	b	.L732
.L798:
	.align	2
.L797:
	.word	_GLOBAL_OFFSET_TABLE_-(.LPIC55+8)
	.word	_ZTVN4asio6detail13epoll_reactorE(GOT)
	.word	_ZGVZN4asio15system_categoryEvE8instance(GOT)
	.word	_ZZN4asio15system_categoryEvE8instance(GOT)
	.word	526336
	.word	_ZN4asio6detail15system_categoryD1Ev(GOT)
	.word	__dso_handle-(.LPIC56+8)
	.word	__dso_handle-(.LPIC62+8)
	.word	.LC20-(.LPIC61+8)
	.word	.LC21-(.LPIC59+8)
	.word	__dso_handle-(.LPIC60+8)
	.word	20000
	.word	__dso_handle-(.LPIC58+8)
	.word	.LC24-(.LPIC57+8)
	.word	.LC24-(.LPIC63+8)
	.personality	__gxx_personality_v0
	.handlerdata
.LLSDA7056:
	.byte	0xff
	.byte	0xff
	.byte	0x1
	.uleb128 .LLSDACSE7056-.LLSDACSB7056
.LLSDACSB7056:
	.uleb128 .LEHB13-.LFB7056
	.uleb128 .LEHE13-.LEHB13
	.uleb128 0
	.uleb128 0
	.uleb128 .LEHB14-.LFB7056
	.uleb128 .LEHE14-.LEHB14
	.uleb128 .L742-.LFB7056
	.uleb128 0
	.uleb128 .LEHB15-.LFB7056
	.uleb128 .LEHE15-.LEHB15
	.uleb128 .L741-.LFB7056
	.uleb128 0
	.uleb128 .LEHB16-.LFB7056
	.uleb128 .LEHE16-.LEHB16
	.uleb128 .L740-.LFB7056
	.uleb128 0
	.uleb128 .LEHB17-.LFB7056
	.uleb128 .LEHE17-.LEHB17
	.uleb128 .L741-.LFB7056
	.uleb128 0
	.uleb128 .LEHB18-.LFB7056
	.uleb128 .LEHE18-.LEHB18
	.uleb128 0
	.uleb128 0
	.uleb128 .LEHB19-.LFB7056
	.uleb128 .LEHE19-.LEHB19
	.uleb128 .L740-.LFB7056
	.uleb128 0
	.uleb128 .LEHB20-.LFB7056
	.uleb128 .LEHE20-.LEHB20
	.uleb128 .L739-.LFB7056
	.uleb128 0
	.uleb128 .LEHB21-.LFB7056
	.uleb128 .LEHE21-.LEHB21
	.uleb128 .L741-.LFB7056
	.uleb128 0
.LLSDACSE7056:
	.section	.text._ZN4asio6detail16service_registry6createINS0_13epoll_reactorEEEPNS_10io_service7serviceERS4_,"axG",%progbits,_ZN4asio6detail16service_registry6createINS0_13epoll_reactorEEEPNS_10io_service7serviceERS4_,comdat
	.fnend
	.size	_ZN4asio6detail16service_registry6createINS0_13epoll_reactorEEEPNS_10io_service7serviceERS4_, .-_ZN4asio6detail16service_registry6createINS0_13epoll_reactorEEEPNS_10io_service7serviceERS4_
	.section	.text._ZN4asio6detail13epoll_reactor12cancel_timerINS0_18chrono_time_traitsINSt6chrono3_V212steady_clockENS_11wait_traitsIS6_EEEEEEjRNS0_11timer_queueIT_EERNSC_14per_timer_dataEj,"axG",%progbits,_ZN4asio6detail13epoll_reactor12cancel_timerINS0_18chrono_time_traitsINSt6chrono3_V212steady_clockENS_11wait_traitsIS6_EEEEEEjRNS0_11timer_queueIT_EERNSC_14per_timer_dataEj,comdat
	.align	2
	.weak	_ZN4asio6detail13epoll_reactor12cancel_timerINS0_18chrono_time_traitsINSt6chrono3_V212steady_clockENS_11wait_traitsIS6_EEEEEEjRNS0_11timer_queueIT_EERNSC_14per_timer_dataEj
	.syntax unified
	.arm
	.fpu vfp
	.type	_ZN4asio6detail13epoll_reactor12cancel_timerINS0_18chrono_time_traitsINSt6chrono3_V212steady_clockENS_11wait_traitsIS6_EEEEEEjRNS0_11timer_queueIT_EERNSC_14per_timer_dataEj, %function
_ZN4asio6detail13epoll_reactor12cancel_timerINS0_18chrono_time_traitsINSt6chrono3_V212steady_clockENS_11wait_traitsIS6_EEEEEEjRNS0_11timer_queueIT_EERNSC_14per_timer_dataEj:
	.fnstart
.LFB7166:
	@ args = 0, pretend = 0, frame = 64
	@ frame_needed = 0, uses_anonymous_args = 0
	push	{r4, r5, r6, r7, r8, r9, r10, fp, lr}
	sub	sp, sp, #68
	mov	r7, r2
	add	r2, r0, #24
	str	r0, [sp, #16]
	mov	r0, r2
	mov	r10, r3
	str	r2, [sp, #12]
	str	r1, [sp, #20]
	bl	pthread_mutex_lock(PLT)
	ldr	r4, [r7, #16]
	ldr	r3, .L916
	cmp	r4, #0
.LPIC64:
	add	r3, pc, r3
	str	r3, [sp, #4]
	mov	fp, r4
	beq	.L800
.L804:
	cmp	r10, #0
	beq	.L911
	ldr	r4, [r7]
	cmp	r4, #0
	beq	.L855
	ldr	r1, [sp, #4]
	ldr	r3, .L916+4
	ldr	r2, .L916+8
	mov	r6, #0
	ldr	fp, [r1, r3]
	ldr	r3, .L916+12
	ldr	r9, [r1, r2]
.LPIC65:
	add	r3, pc, r3
	str	r6, [sp]
	str	r3, [sp, #8]
	ldrb	r2, [fp]	@ zero_extendqisi2
	mov	r5, r6
	mov	r8, r6
	tst	r2, #1
	mcr	p15, 0, r0, c7, c10, 5
	beq	.L912
.L810:
	ldr	r1, [r7]
	mov	r3, #125
	cmp	r1, #0
	str	r3, [r4, #12]
	str	r9, [r4, #16]
	beq	.L913
	ldr	r2, [r1]
	add	r5, r5, #1
	cmp	r2, #0
	streq	r2, [r7, #4]
	cmp	r6, #0
	str	r2, [r7]
	streq	r4, [sp]
	str	r8, [r1]
	str	r8, [r4]
	strne	r4, [r6]
	cmp	r10, r5
	beq	.L914
	cmp	r2, #0
	mov	r6, r4
	beq	.L814
	mov	r4, r2
	ldrb	r2, [fp]	@ zero_extendqisi2
	mcr	p15, 0, r0, c7, c10, 5
	tst	r2, #1
	bne	.L810
.L912:
	mov	r0, fp
	bl	__cxa_guard_acquire(PLT)
	cmp	r0, #0
	beq	.L810
	mov	r0, fp
	bl	__cxa_guard_release(PLT)
	ldr	r3, [sp, #4]
	ldr	r1, .L916+16
	ldr	r2, [sp, #8]
	mov	r0, r9
	ldr	r1, [r3, r1]
	bl	__aeabi_atexit(PLT)
	b	.L810
.L913:
	cmp	r6, #0
	add	r5, r5, #1
	str	r1, [r4]
	beq	.L915
	cmp	r10, r5
	str	r4, [r6]
	beq	.L895
.L814:
	ldr	fp, [r7, #16]
	mov	r6, r4
.L853:
	ldr	r3, [sp, #20]
	ldr	r10, [r3, #12]
	ldr	ip, [r3, #16]
	ldr	r3, [r7, #8]
	cmp	r10, ip
	str	r3, [sp, #24]
	beq	.L821
	sub	r4, ip, r10
	asr	r4, r4, #4
	cmp	r3, r4
	bcs	.L821
	sub	r9, r4, #1
	cmp	r3, r9
	bne	.L898
	ldr	r3, [sp, #20]
	sub	ip, ip, #16
	str	ip, [r3, #16]
.L821:
	ldr	r3, [sp, #20]
	ldr	r3, [r3, #8]
	cmp	r7, r3
	ldr	r3, [r7, #12]
	ldreq	r2, [sp, #20]
	streq	r3, [r2, #8]
	cmp	fp, #0
	strne	r3, [fp, #12]
	ldrne	r3, [r7, #12]
	cmp	r3, #0
	strne	fp, [r3, #16]
	mov	r3, #0
	str	r3, [r7, #12]
	str	r3, [r7, #16]
	b	.L819
.L914:
	cmp	r2, #0
	movne	r6, r4
	beq	.L895
.L819:
	ldr	r0, [sp, #12]
	bl	pthread_mutex_unlock(PLT)
	ldr	r3, [sp]
	cmp	r3, #0
	ldr	r3, [sp, #16]
	ldr	r4, [r3, #20]
	beq	.L799
	ldrb	r3, [r4, #20]	@ zero_extendqisi2
	cmp	r3, #0
	beq	.L836
	ldr	r2, [sp, #4]
	ldr	r3, .L916+20
	ldr	r3, [r2, r3]
	ldr	r0, [r3]
	bl	pthread_getspecific(PLT)
	cmp	r0, #0
	bne	.L897
	b	.L836
.L839:
	ldr	r0, [r0, #8]
	cmp	r0, #0
	beq	.L836
.L897:
	ldr	r3, [r0]
	cmp	r4, r3
	bne	.L839
	ldr	r3, [r0, #4]
	cmp	r3, #0
	beq	.L836
	ldr	r2, [r3, #8]
	mov	r0, r5
	cmp	r2, #0
	ldrne	r1, [sp]
	ldreq	r2, [sp]
	strne	r1, [r2]
	streq	r2, [r3, #4]
	str	r6, [r3, #8]
	add	sp, sp, #68
	@ sp needed
	pop	{r4, r5, r6, r7, r8, r9, r10, fp, pc}
.L836:
	add	r7, r4, #24
	mov	r0, r7
	bl	pthread_mutex_lock(PLT)
	ldr	r3, [r4, #132]
	cmp	r3, #0
	ldreq	r3, [sp]
	ldrne	r2, [sp]
	streq	r3, [r4, #128]
	strne	r2, [r3]
	ldr	r3, [r4, #96]
	str	r6, [r4, #132]
	orr	r3, r3, #1
	cmp	r3, #1
	str	r3, [r4, #96]
	add	r6, r4, #48
	beq	.L846
	mov	r0, r7
	bl	pthread_mutex_unlock(PLT)
	mov	r0, r6
	bl	pthread_cond_signal(PLT)
.L799:
	mov	r0, r5
	add	sp, sp, #68
	@ sp needed
	pop	{r4, r5, r6, r7, r8, r9, r10, fp, pc}
.L846:
	ldrb	r2, [r4, #120]	@ zero_extendqisi2
	cmp	r2, #0
	bne	.L848
	ldr	r0, [r4, #104]
	cmp	r0, #0
	beq	.L848
	strb	r3, [r4, #120]
	add	r3, sp, #48
	add	r1, r0, #48
	mov	ip, #-2147483639
	str	r1, [sp, #56]
	str	r2, [r3, #4]
	str	r2, [r3, #12]
	str	ip, [sp, #48]
	mov	r1, #3
	ldr	r2, [r0, #48]
	ldr	r0, [r0, #56]
	bl	epoll_ctl(PLT)
.L848:
	mov	r0, r7
	bl	pthread_mutex_unlock(PLT)
	mov	r0, r5
	add	sp, sp, #68
	@ sp needed
	pop	{r4, r5, r6, r7, r8, r9, r10, fp, pc}
.L915:
	cmp	r10, r5
	str	r4, [sp]
	bne	.L814
.L895:
	mov	r6, r4
	ldr	r4, [r7, #16]
.L802:
	mov	fp, r4
	b	.L853
.L800:
	ldr	r3, [sp, #20]
	ldr	r3, [r3, #8]
	cmp	r7, r3
	beq	.L804
	ldr	r0, [sp, #12]
	bl	pthread_mutex_unlock(PLT)
	mov	r5, r4
	mov	r0, r5
	add	sp, sp, #68
	@ sp needed
	pop	{r4, r5, r6, r7, r8, r9, r10, fp, pc}
.L911:
	ldr	r3, [r7]
	cmp	r3, #0
	moveq	r5, r10
	streq	r5, [sp]
	moveq	r6, r5
	beq	.L802
	ldr	r0, [sp, #12]
	bl	pthread_mutex_unlock(PLT)
	mov	r5, r10
	b	.L799
.L855:
	mov	r6, r4
	str	r4, [sp]
	mov	r5, r4
	b	.L853
.L898:
	lsl	r3, r3, #4
	add	r4, r10, r3
	str	r3, [sp, #32]
	ldm	r4, {r0, r1, r2, r3}
	add	lr, r10, r9, lsl #4
	add	r8, sp, #48
	sub	ip, ip, #16
	str	ip, [sp, #8]
	ldr	ip, [sp, #24]
	stm	r8, {r0, r1, r2, r3}
	mov	r3, r8
	ldr	r1, [lr, #4]	@ unaligned
	ldr	r2, [lr, #8]	@ unaligned
	ldr	r0, [lr]	@ unaligned
	cmp	ip, #0
	str	r0, [r10, ip, lsl #4]	@ unaligned
	str	r2, [r4, #8]	@ unaligned
	str	r1, [r4, #4]	@ unaligned
	ldmia	r3!, {r0, r1, r2}
	str	r8, [sp, #28]
	str	r0, [r10, r9, lsl #4]	@ unaligned
	str	r2, [lr, #8]	@ unaligned
	str	r1, [lr, #4]	@ unaligned
	ldr	r2, [r4, #8]
	ldr	r3, [lr, #8]
	str	ip, [r2, #8]
	ldr	r2, [sp, #20]
	str	r9, [r3, #8]
	ldr	r3, [sp, #8]
	str	r3, [r2, #16]
	beq	.L824
	sub	r9, ip, #1
	ldr	r3, [sp, #32]
	lsr	r9, r9, #1
	ldrd	r0, [r10, r3]
	lsl	r3, r9, #4
	add	ip, r10, r3
	ldrd	r2, [r3, r10]
	cmp	r0, r2
	sbcs	r3, r1, r3
	blt	.L900
	ldr	r3, [sp, #8]
.L824:
	ldr	r2, [sp, #24]
	sub	r3, r3, r10
	lsl	r2, r2, #1
	asr	r3, r3, #4
	add	r9, r2, #1
	cmp	r3, r9
	str	r3, [sp, #8]
	bls	.L821
	ldr	r4, [sp, #24]
	str	r5, [sp, #40]
	str	r6, [sp, #24]
	str	fp, [sp, #36]
	str	r7, [sp, #44]
	ldr	r5, [sp, #28]
	ldr	r8, [sp, #32]
	mov	r2, r3
	b	.L830
.L828:
	ldrd	r6, [r10, fp]
	ldrd	r0, [r10, r3]
	add	ip, r10, r3
	add	fp, r10, fp
	cmp	r6, r0
	mov	r3, r1
	sbcs	r1, r7, r1
	mov	r2, r0
	movlt	r3, r7
	movlt	r2, r6
	movlt	ip, fp
	movlt	lr, r9
.L829:
	ldrd	r0, [r10, r8]
	lsl	r9, lr, #1
	mov	r6, r5
	cmp	r0, r2
	sbcs	r3, r1, r3
	add	r9, r9, #1
	add	r7, r10, r8
	blt	.L903
	ldm	r7, {r0, r1, r2, r3}
	ldr	fp, [sp, #8]
	stm	r5, {r0, r1, r2, r3}
	cmp	fp, r9
	ldr	r1, [ip]	@ unaligned
	ldr	r2, [ip, #4]	@ unaligned
	ldr	r3, [ip, #8]	@ unaligned
	str	r1, [r10, r8]	@ unaligned
	str	r3, [r7, #8]	@ unaligned
	str	r2, [r7, #4]	@ unaligned
	ldmia	r6!, {r0, r1, r2}
	str	r2, [ip, #8]	@ unaligned
	str	r0, [ip]	@ unaligned
	str	r1, [ip, #4]	@ unaligned
	ldr	r3, [ip, #8]
	ldr	r2, [r7, #8]
	str	r4, [r2, #8]
	str	lr, [r3, #8]
	mov	r4, lr
	bls	.L903
	lsl	r8, lr, #4
	mov	r2, fp
.L830:
	add	lr, r9, #1
	lsl	fp, r9, #4
	cmp	r2, lr
	add	r3, fp, #16
	bne	.L828
	mov	lr, r9
	add	ip, r10, fp
	ldrd	r2, [r10, fp]
	b	.L829
.L903:
	ldr	r6, [sp, #24]
	ldr	fp, [sp, #36]
	ldr	r5, [sp, #40]
	ldr	r7, [sp, #44]
	b	.L821
.L900:
	ldr	r8, [sp, #24]
	str	r5, [sp, #32]
	str	r6, [sp, #8]
	str	fp, [sp, #24]
	ldr	r5, [sp, #28]
	b	.L826
.L896:
	ldrd	r2, [r10, r6]
	ldrd	r0, [r10, fp]
	mov	r8, r9
	add	ip, r10, fp
	cmp	r2, r0
	sbcs	r3, r3, r1
	mov	r9, lr
	bge	.L901
.L826:
	ldm	r4, {r0, r1, r2, r3}
	sub	lr, r9, #1
	lsl	r6, r9, #4
	lsr	lr, lr, #1
	stm	r5, {r0, r1, r2, r3}
	cmp	r9, #0
	ldr	r3, [ip]	@ unaligned
	ldr	r1, [ip, #4]	@ unaligned
	ldr	r2, [ip, #8]	@ unaligned
	str	r3, [r4]	@ unaligned
	mov	r3, r5
	str	r2, [r4, #8]	@ unaligned
	str	r1, [r4, #4]	@ unaligned
	ldmia	r3!, {r0, r1, r2}
	lsl	fp, lr, #4
	str	r2, [ip, #8]	@ unaligned
	str	r0, [ip]	@ unaligned
	str	r1, [ip, #4]	@ unaligned
	ldr	r3, [ip, #8]
	ldr	r2, [r4, #8]
	add	r4, r10, r6
	str	r8, [r2, #8]
	str	r9, [r3, #8]
	bne	.L896
.L901:
	ldr	r6, [sp, #8]
	ldr	fp, [sp, #24]
	ldr	r5, [sp, #32]
	b	.L821
.L917:
	.align	2
.L916:
	.word	_GLOBAL_OFFSET_TABLE_-(.LPIC64+8)
	.word	_ZGVZN4asio15system_categoryEvE8instance(GOT)
	.word	_ZZN4asio15system_categoryEvE8instance(GOT)
	.word	__dso_handle-(.LPIC65+8)
	.word	_ZN4asio6detail15system_categoryD1Ev(GOT)
	.word	_ZN4asio6detail10call_stackINS0_15task_io_serviceENS0_27task_io_service_thread_infoEE4top_E(GOT)
	.cantunwind
	.fnend
	.size	_ZN4asio6detail13epoll_reactor12cancel_timerINS0_18chrono_time_traitsINSt6chrono3_V212steady_clockENS_11wait_traitsIS6_EEEEEEjRNS0_11timer_queueIT_EERNSC_14per_timer_dataEj, .-_ZN4asio6detail13epoll_reactor12cancel_timerINS0_18chrono_time_traitsINSt6chrono3_V212steady_clockENS_11wait_traitsIS6_EEEEEEjRNS0_11timer_queueIT_EERNSC_14per_timer_dataEj
	.section	.text._ZN7asiopal5TimerD0Ev,"axG",%progbits,_ZN7asiopal5TimerD5Ev,comdat
	.align	2
	.weak	_ZN7asiopal5TimerD0Ev
	.syntax unified
	.arm
	.fpu vfp
	.type	_ZN7asiopal5TimerD0Ev, %function
_ZN7asiopal5TimerD0Ev:
	.fnstart
.LFB7424:
	@ args = 0, pretend = 0, frame = 8
	@ frame_needed = 0, uses_anonymous_args = 0
	ldr	r3, .L932
	ldr	r2, .L932+4
.LPIC66:
	add	r3, pc, r3
	push	{r4, r5, r6, r7, r8, lr}
	.save {r4, r5, r6, r7, r8, lr}
	.pad #8
	sub	sp, sp, #8
	ldr	r3, [r3, r2]
	mov	r4, r0
	add	r3, r3, #8
	str	r3, [r0]
	ldr	r5, [r0, #8]
	bl	_ZNSt3_V215system_categoryEv(PLT)
	ldrb	r3, [r4, #24]	@ zero_extendqisi2
	cmp	r3, #0
	mov	r7, r0
	beq	.L919
	mvn	r3, #0
	add	r2, r4, #28
	add	r1, r5, #20
	ldr	r0, [r5, #44]
	bl	_ZN4asio6detail13epoll_reactor12cancel_timerINS0_18chrono_time_traitsINSt6chrono3_V212steady_clockENS_11wait_traitsIS6_EEEEEEjRNS0_11timer_queueIT_EERNSC_14per_timer_dataEj(PLT)
	mov	r3, #0
	strb	r3, [r4, #24]
.L919:
	ldr	r1, [r4, #28]
	cmp	r1, #0
	beq	.L922
	mov	r8, sp
	mov	r5, #0
.L923:
	ldr	r3, [r1]
	ldr	r6, [r1, #4]
	cmp	r3, #0
	streq	r3, [r4, #32]
	str	r3, [r4, #28]
	mov	r3, #0
	str	r5, [r1]
	mov	r0, r3
	str	r5, [sp]
	str	r7, [sp, #4]
	mov	r2, r8
	blx	r6
	ldr	r1, [r4, #28]
	cmp	r1, #0
	bne	.L923
.L922:
	mov	r0, r4
	mov	r1, #48
	bl	_ZdlPvj(PLT)
	mov	r0, r4
	add	sp, sp, #8
	@ sp needed
	pop	{r4, r5, r6, r7, r8, pc}
.L933:
	.align	2
.L932:
	.word	_GLOBAL_OFFSET_TABLE_-(.LPIC66+8)
	.word	_ZTVN7asiopal5TimerE(GOT)
	.personality	__gxx_personality_v0
	.handlerdata
.LLSDA7424:
	.byte	0xff
	.byte	0xff
	.byte	0x1
	.uleb128 .LLSDACSE7424-.LLSDACSB7424
.LLSDACSB7424:
.LLSDACSE7424:
	.section	.text._ZN7asiopal5TimerD0Ev,"axG",%progbits,_ZN7asiopal5TimerD5Ev,comdat
	.fnend
	.size	_ZN7asiopal5TimerD0Ev, .-_ZN7asiopal5TimerD0Ev
	.text
	.align	2
	.global	_ZN7asiopal5Timer6CancelEv
	.syntax unified
	.arm
	.fpu vfp
	.type	_ZN7asiopal5Timer6CancelEv, %function
_ZN7asiopal5Timer6CancelEv:
	.fnstart
.LFB6234:
	@ args = 0, pretend = 0, frame = 0
	@ frame_needed = 0, uses_anonymous_args = 0
	ldrb	r3, [r0, #24]	@ zero_extendqisi2
	cmp	r3, #0
	bxeq	lr
	ldr	r2, [r0, #8]
	push	{r4, lr}
	mov	r4, r0
	mvn	r3, #0
	add	r1, r2, #20
	ldr	r0, [r2, #44]
	add	r2, r4, #28
	bl	_ZN4asio6detail13epoll_reactor12cancel_timerINS0_18chrono_time_traitsINSt6chrono3_V212steady_clockENS_11wait_traitsIS6_EEEEEEjRNS0_11timer_queueIT_EERNSC_14per_timer_dataEj(PLT)
	mov	r3, #0
	strb	r3, [r4, #24]
	pop	{r4, pc}
	.cantunwind
	.fnend
	.size	_ZN7asiopal5Timer6CancelEv, .-_ZN7asiopal5Timer6CancelEv
	.section	.text._ZN7asiopal5TimerD2Ev,"axG",%progbits,_ZN7asiopal5TimerD5Ev,comdat
	.align	2
	.weak	_ZN7asiopal5TimerD2Ev
	.syntax unified
	.arm
	.fpu vfp
	.type	_ZN7asiopal5TimerD2Ev, %function
_ZN7asiopal5TimerD2Ev:
	.fnstart
.LFB7422:
	@ args = 0, pretend = 0, frame = 8
	@ frame_needed = 0, uses_anonymous_args = 0
	ldr	r3, .L957
	ldr	r2, .L957+4
.LPIC67:
	add	r3, pc, r3
	push	{r4, r5, r6, r7, r8, lr}
	.save {r4, r5, r6, r7, r8, lr}
	.pad #8
	sub	sp, sp, #8
	ldr	r3, [r3, r2]
	mov	r4, r0
	add	r3, r3, #8
	str	r3, [r0]
	ldr	r5, [r0, #8]
	bl	_ZNSt3_V215system_categoryEv(PLT)
	ldrb	r3, [r4, #24]	@ zero_extendqisi2
	cmp	r3, #0
	mov	r7, r0
	beq	.L944
	mvn	r3, #0
	add	r2, r4, #28
	add	r1, r5, #20
	ldr	r0, [r5, #44]
	bl	_ZN4asio6detail13epoll_reactor12cancel_timerINS0_18chrono_time_traitsINSt6chrono3_V212steady_clockENS_11wait_traitsIS6_EEEEEEjRNS0_11timer_queueIT_EERNSC_14per_timer_dataEj(PLT)
	mov	r3, #0
	strb	r3, [r4, #24]
.L944:
	ldr	r1, [r4, #28]
	cmp	r1, #0
	beq	.L951
	mov	r8, sp
	mov	r5, #0
.L948:
	ldr	r3, [r1]
	ldr	r6, [r1, #4]
	cmp	r3, #0
	streq	r3, [r4, #32]
	str	r3, [r4, #28]
	mov	r3, #0
	str	r5, [r1]
	mov	r0, r3
	str	r5, [sp]
	str	r7, [sp, #4]
	mov	r2, r8
	blx	r6
	ldr	r1, [r4, #28]
	cmp	r1, #0
	bne	.L948
.L951:
	mov	r0, r4
	add	sp, sp, #8
	@ sp needed
	pop	{r4, r5, r6, r7, r8, pc}
.L958:
	.align	2
.L957:
	.word	_GLOBAL_OFFSET_TABLE_-(.LPIC67+8)
	.word	_ZTVN7asiopal5TimerE(GOT)
	.personality	__gxx_personality_v0
	.handlerdata
.LLSDA7422:
	.byte	0xff
	.byte	0xff
	.byte	0x1
	.uleb128 .LLSDACSE7422-.LLSDACSB7422
.LLSDACSB7422:
.LLSDACSE7422:
	.section	.text._ZN7asiopal5TimerD2Ev,"axG",%progbits,_ZN7asiopal5TimerD5Ev,comdat
	.fnend
	.size	_ZN7asiopal5TimerD2Ev, .-_ZN7asiopal5TimerD2Ev
	.weak	_ZN7asiopal5TimerD1Ev
	.set	_ZN7asiopal5TimerD1Ev,_ZN7asiopal5TimerD2Ev
	.section	.text._ZN4asio6detail16service_registry6createINS_22waitable_timer_serviceINSt6chrono3_V212steady_clockENS_11wait_traitsIS6_EEEEEEPNS_10io_service7serviceERSA_,"axG",%progbits,_ZN4asio6detail16service_registry6createINS_22waitable_timer_serviceINSt6chrono3_V212steady_clockENS_11wait_traitsIS6_EEEEEEPNS_10io_service7serviceERSA_,comdat
	.align	2
	.weak	_ZN4asio6detail16service_registry6createINS_22waitable_timer_serviceINSt6chrono3_V212steady_clockENS_11wait_traitsIS6_EEEEEEPNS_10io_service7serviceERSA_
	.syntax unified
	.arm
	.fpu vfp
	.type	_ZN4asio6detail16service_registry6createINS_22waitable_timer_serviceINSt6chrono3_V212steady_clockENS_11wait_traitsIS6_EEEEEEPNS_10io_service7serviceERSA_, %function
_ZN4asio6detail16service_registry6createINS_22waitable_timer_serviceINSt6chrono3_V212steady_clockENS_11wait_traitsIS6_EEEEEEPNS_10io_service7serviceERSA_:
	.fnstart
.LFB7247:
	@ args = 0, pretend = 0, frame = 24
	@ frame_needed = 0, uses_anonymous_args = 0
	push	{r4, r5, r6, r7, r8, r9, r10, fp, lr}
	.save {r4, r5, r6, r7, r8, r9, r10, fp, lr}
	mov	r4, r0
	.pad #28
	sub	sp, sp, #28
	mov	r0, #48
.LEHB22:
	bl	_Znwj(PLT)
.LEHE22:
	ldr	r7, .L1033
	ldr	r1, .L1033+4
.LPIC68:
	add	r7, pc, r7
	mov	r3, #0
	ldr	r2, .L1033+8
	ldr	r8, [r4]
	add	r9, r8, #4
	str	r4, [r0, #12]
	str	r3, [r0, #4]
	str	r3, [r0, #8]
	str	r3, [r0, #16]
	ldr	r1, [r7, r1]
	mov	r6, r0
	add	r1, r1, #8
	str	r1, [r6], #20
	str	r3, [r0, #24]
	ldr	r2, [r7, r2]
	mov	r5, r0
	str	r3, [r0, #28]
	str	r3, [r0, #32]
	str	r3, [r0, #36]
	str	r3, [r0, #40]
	str	r2, [sp, #4]
	mov	r0, r9
	add	r2, r2, #8
	str	r2, [r5, #20]
	bl	pthread_mutex_lock(PLT)
	ldr	fp, [r8, #32]
	cmp	fp, #0
	bne	.L980
	b	.L960
.L961:
	ldr	fp, [fp, #16]
	cmp	fp, #0
	beq	.L960
.L980:
	ldr	r0, [fp, #4]
	cmp	r0, #0
	beq	.L961
	ldr	r3, .L1033+12
	ldr	r4, [r7, r3]
	mov	r1, r4
	bl	_ZNKSt9type_infoeqERKS_(PLT)
	cmp	r0, #0
	beq	.L961
.L962:
	mov	r0, r9
	bl	pthread_mutex_unlock(PLT)
	ldr	r7, [fp, #20]
	str	fp, [r5, #44]
	add	r8, r7, #24
	mov	r0, r8
	bl	pthread_mutex_lock(PLT)
	ldrb	r3, [r7, #137]	@ zero_extendqisi2
	cmp	r3, #0
	bne	.L966
	ldr	r3, [r7, #104]
	cmp	r3, #0
	beq	.L1030
.L966:
	mov	r0, r8
	bl	pthread_mutex_unlock(PLT)
.L986:
	ldr	r4, [r5, #44]
	add	r7, r4, #24
	mov	r0, r7
	bl	pthread_mutex_lock(PLT)
	ldr	r3, [r4, #64]
	mov	r0, r7
	str	r3, [r5, #24]
	str	r6, [r4, #64]
	bl	pthread_mutex_unlock(PLT)
	mov	r0, r5
	add	sp, sp, #28
	@ sp needed
	pop	{r4, r5, r6, r7, r8, r9, r10, fp, pc}
.L960:
	mov	r0, r9
	bl	pthread_mutex_unlock(PLT)
	ldr	r0, [r8, #28]
.LEHB23:
	bl	_ZN4asio6detail16service_registry6createINS0_13epoll_reactorEEEPNS_10io_service7serviceERS4_(PLT)
.LEHE23:
	ldr	r3, .L1033+12
	mov	r2, #0
	mov	r10, r0
	ldr	r4, [r7, r3]
	str	r2, [r0, #8]
	str	r4, [r0, #4]
	mov	r0, r9
	bl	pthread_mutex_lock(PLT)
	ldr	fp, [r8, #32]
	cmp	fp, #0
	bne	.L981
	str	fp, [r10, #16]
	str	r10, [r8, #32]
	mov	fp, r10
	b	.L962
.L964:
	ldr	fp, [fp, #16]
	cmp	fp, #0
	beq	.L1031
.L981:
	ldr	r0, [fp, #4]
	cmp	r0, #0
	beq	.L964
	mov	r1, r4
	bl	_ZNKSt9type_infoeqERKS_(PLT)
	cmp	r0, #0
	beq	.L964
	ldr	r3, [r10]
	mov	r0, r10
	ldr	r3, [r3, #4]
	blx	r3
	b	.L962
.L1031:
	ldr	fp, [r8, #32]
	str	fp, [r10, #16]
	str	r10, [r8, #32]
	mov	fp, r10
	b	.L962
.L1030:
	ldr	r3, [r7, #12]
	ldr	r10, [r3]
	add	fp, r10, #4
	mov	r0, fp
	bl	pthread_mutex_lock(PLT)
	ldr	r9, [r10, #32]
	cmp	r9, #0
	bne	.L982
	b	.L967
.L968:
	ldr	r9, [r9, #16]
	cmp	r9, #0
	beq	.L967
.L982:
	ldr	r0, [r9, #4]
	cmp	r0, #0
	beq	.L968
	mov	r1, r4
	bl	_ZNKSt9type_infoeqERKS_(PLT)
	cmp	r0, #0
	beq	.L968
.L969:
	mov	r0, fp
	bl	pthread_mutex_unlock(PLT)
	ldr	r2, [r7, #132]
	mov	r3, #0
	cmp	r2, r3
	str	r3, [r7, #108]
	add	r3, r7, #108
	streq	r3, [r7, #132]
	streq	r3, [r7, #128]
	str	r9, [r7, #104]
	strne	r3, [r2]
	strne	r3, [r7, #132]
	ldr	r3, [r7, #96]
	add	r4, r7, #48
	orr	r3, r3, #1
	cmp	r3, #1
	str	r3, [r7, #96]
	beq	.L975
	mov	r0, r8
	bl	pthread_mutex_unlock(PLT)
	mov	r0, r4
	bl	pthread_cond_signal(PLT)
	b	.L986
.L975:
	ldrb	r1, [r7, #120]	@ zero_extendqisi2
	cmp	r1, #0
	bne	.L966
	add	r2, sp, #8
	strb	r3, [r7, #120]
	mov	lr, #-2147483639
	mov	r3, r2
	str	r1, [sp, #12]
	str	r1, [sp, #20]
	add	ip, r9, #48
	ldr	r2, [r9, #48]
	ldr	r0, [r9, #56]
	mov	r1, #3
	str	lr, [sp, #8]
	str	ip, [sp, #16]
	bl	epoll_ctl(PLT)
	b	.L966
.L967:
	mov	r0, fp
	bl	pthread_mutex_unlock(PLT)
	ldr	r0, [r10, #28]
.LEHB24:
	bl	_ZN4asio6detail16service_registry6createINS0_13epoll_reactorEEEPNS_10io_service7serviceERS4_(PLT)
.LEHE24:
	mov	r3, #0
	str	r0, [sp, #4]
	str	r4, [r0, #4]
	str	r3, [r0, #8]
	mov	r0, fp
	bl	pthread_mutex_lock(PLT)
	ldr	r9, [r10, #32]
	cmp	r9, #0
	bne	.L983
	b	.L970
.L971:
	ldr	r9, [r9, #16]
	cmp	r9, #0
	beq	.L1032
.L983:
	ldr	r0, [r9, #4]
	cmp	r0, #0
	beq	.L971
	mov	r1, r4
	bl	_ZNKSt9type_infoeqERKS_(PLT)
	cmp	r0, #0
	beq	.L971
	ldr	r0, [sp, #4]
	ldr	r3, [r0]
	ldr	r3, [r3, #4]
	blx	r3
	b	.L969
.L1032:
	ldr	r9, [r10, #32]
.L970:
	ldr	r3, [sp, #4]
	str	r9, [r3, #16]
	str	r3, [r10, #32]
	mov	r9, r3
	b	.L969
.L988:
	mov	r0, r8
	bl	pthread_mutex_unlock(PLT)
.L978:
	ldr	r0, [r5, #32]
	ldr	r3, [sp, #4]
	cmp	r0, #0
	add	r3, r3, #8
	str	r3, [r5, #20]
	beq	.L979
	bl	_ZdlPv(PLT)
.L979:
	mov	r0, r5
	mov	r1, #48
	bl	_ZdlPvj(PLT)
.LEHB25:
	bl	__cxa_end_cleanup(PLT)
.LEHE25:
.L987:
	b	.L978
.L1034:
	.align	2
.L1033:
	.word	_GLOBAL_OFFSET_TABLE_-(.LPIC68+8)
	.word	_ZTVN4asio22waitable_timer_serviceINSt6chrono3_V212steady_clockENS_11wait_traitsIS3_EEEE(GOT)
	.word	_ZTVN4asio6detail11timer_queueINS0_18chrono_time_traitsINSt6chrono3_V212steady_clockENS_11wait_traitsIS5_EEEEEE(GOT)
	.word	_ZTIN4asio6detail14typeid_wrapperINS0_13epoll_reactorEEE(GOT)
	.personality	__gxx_personality_v0
	.handlerdata
.LLSDA7247:
	.byte	0xff
	.byte	0xff
	.byte	0x1
	.uleb128 .LLSDACSE7247-.LLSDACSB7247
.LLSDACSB7247:
	.uleb128 .LEHB22-.LFB7247
	.uleb128 .LEHE22-.LEHB22
	.uleb128 0
	.uleb128 0
	.uleb128 .LEHB23-.LFB7247
	.uleb128 .LEHE23-.LEHB23
	.uleb128 .L987-.LFB7247
	.uleb128 0
	.uleb128 .LEHB24-.LFB7247
	.uleb128 .LEHE24-.LEHB24
	.uleb128 .L988-.LFB7247
	.uleb128 0
	.uleb128 .LEHB25-.LFB7247
	.uleb128 .LEHE25-.LEHB25
	.uleb128 0
	.uleb128 0
.LLSDACSE7247:
	.section	.text._ZN4asio6detail16service_registry6createINS_22waitable_timer_serviceINSt6chrono3_V212steady_clockENS_11wait_traitsIS6_EEEEEEPNS_10io_service7serviceERSA_,"axG",%progbits,_ZN4asio6detail16service_registry6createINS_22waitable_timer_serviceINSt6chrono3_V212steady_clockENS_11wait_traitsIS6_EEEEEEPNS_10io_service7serviceERSA_,comdat
	.fnend
	.size	_ZN4asio6detail16service_registry6createINS_22waitable_timer_serviceINSt6chrono3_V212steady_clockENS_11wait_traitsIS6_EEEEEEPNS_10io_service7serviceERSA_, .-_ZN4asio6detail16service_registry6createINS_22waitable_timer_serviceINSt6chrono3_V212steady_clockENS_11wait_traitsIS6_EEEEEEPNS_10io_service7serviceERSA_
	.text
	.align	2
	.global	_ZN7asiopal5TimerC2ERN4asio10io_serviceE
	.syntax unified
	.arm
	.fpu vfp
	.type	_ZN7asiopal5TimerC2ERN4asio10io_serviceE, %function
_ZN7asiopal5TimerC2ERN4asio10io_serviceE:
	.fnstart
.LFB6250:
	@ args = 0, pretend = 0, frame = 0
	@ frame_needed = 0, uses_anonymous_args = 0
	push	{r4, r5, r6, r7, r8, r9, r10, lr}
	.save {r4, r5, r6, r7, r8, r9, r10, lr}
	mov	r6, r0
	ldr	r5, .L1064
	ldr	r3, .L1064+4
.LPIC69:
	add	r5, pc, r5
	ldr	r7, [r1]
	ldr	r3, [r5, r3]
	add	r8, r7, #4
	add	r3, r3, #8
	str	r3, [r0]
	mov	r0, r8
	bl	pthread_mutex_lock(PLT)
	ldr	r4, [r7, #32]
	ldr	r3, .L1064+8
	cmp	r4, #0
	ldr	r5, [r5, r3]
	bne	.L1042
	b	.L1036
.L1037:
	ldr	r4, [r4, #16]
	cmp	r4, #0
	beq	.L1036
.L1042:
	ldr	r3, [r4, #4]
	mov	r1, r5
	subs	r0, r3, #0
	beq	.L1037
	bl	_ZNKSt9type_infoeqERKS_(PLT)
	cmp	r0, #0
	beq	.L1037
.L1038:
	mov	r0, r8
	bl	pthread_mutex_unlock(PLT)
	mov	r0, #0
	mov	r1, #0
	mov	r3, #0
	strd	r0, [r6, #16]
	str	r4, [r6, #8]
	str	r3, [r6, #28]
	str	r3, [r6, #32]
	str	r3, [r6, #40]
	str	r3, [r6, #44]
	strb	r3, [r6, #24]
	mov	r0, r6
	pop	{r4, r5, r6, r7, r8, r9, r10, pc}
.L1036:
	mov	r0, r8
	bl	pthread_mutex_unlock(PLT)
	ldr	r0, [r7, #28]
	bl	_ZN4asio6detail16service_registry6createINS_22waitable_timer_serviceINSt6chrono3_V212steady_clockENS_11wait_traitsIS6_EEEEEEPNS_10io_service7serviceERSA_(PLT)
	mov	r3, #0
	str	r5, [r0, #4]
	str	r3, [r0, #8]
	mov	r9, r0
	mov	r0, r8
	bl	pthread_mutex_lock(PLT)
	ldr	r4, [r7, #32]
	cmp	r4, #0
	bne	.L1043
	str	r4, [r9, #16]
	str	r9, [r7, #32]
	mov	r4, r9
	b	.L1038
.L1040:
	ldr	r4, [r4, #16]
	cmp	r4, #0
	beq	.L1063
.L1043:
	ldr	r3, [r4, #4]
	mov	r1, r5
	subs	r0, r3, #0
	beq	.L1040
	bl	_ZNKSt9type_infoeqERKS_(PLT)
	cmp	r0, #0
	beq	.L1040
	ldr	r3, [r9]
	mov	r0, r9
	ldr	r3, [r3, #4]
	blx	r3
	b	.L1038
.L1063:
	ldr	r4, [r7, #32]
	str	r4, [r9, #16]
	str	r9, [r7, #32]
	mov	r4, r9
	b	.L1038
.L1065:
	.align	2
.L1064:
	.word	_GLOBAL_OFFSET_TABLE_-(.LPIC69+8)
	.word	_ZTVN7asiopal5TimerE(GOT)
	.word	_ZTIN4asio6detail14typeid_wrapperINS_22waitable_timer_serviceINSt6chrono3_V212steady_clockENS_11wait_traitsIS5_EEEEEE(GOT)
	.fnend
	.size	_ZN7asiopal5TimerC2ERN4asio10io_serviceE, .-_ZN7asiopal5TimerC2ERN4asio10io_serviceE
	.global	_ZN7asiopal5TimerC1ERN4asio10io_serviceE
	.set	_ZN7asiopal5TimerC1ERN4asio10io_serviceE,_ZN7asiopal5TimerC2ERN4asio10io_serviceE
	.section	.text.startup,"ax",%progbits
	.align	2
	.syntax unified
	.arm
	.fpu vfp
	.type	_GLOBAL__sub_I_Timer.cpp, %function
_GLOBAL__sub_I_Timer.cpp:
	.fnstart
.LFB7561:
	@ args = 0, pretend = 0, frame = 0
	@ frame_needed = 0, uses_anonymous_args = 0
	push	{r4, r5, r6, lr}
	ldr	r4, .L1107
	ldr	r3, .L1107+4
.LPIC70:
	add	r4, pc, r4
	ldr	r5, [r4, r3]
	ldrb	r3, [r5]	@ zero_extendqisi2
	mcr	p15, 0, r0, c7, c10, 5
	tst	r3, #1
	beq	.L1098
.L1068:
	ldr	r3, .L1107+8
	ldr	r5, [r4, r3]
	ldrb	r3, [r5]	@ zero_extendqisi2
	mcr	p15, 0, r0, c7, c10, 5
	tst	r3, #1
	beq	.L1099
.L1071:
	ldr	r3, .L1107+12
	ldr	r5, [r4, r3]
	ldrb	r3, [r5]	@ zero_extendqisi2
	mcr	p15, 0, r0, c7, c10, 5
	tst	r3, #1
	beq	.L1100
.L1074:
	ldr	r3, .L1107+16
	ldr	r5, [r4, r3]
	ldrb	r3, [r5]	@ zero_extendqisi2
	mcr	p15, 0, r0, c7, c10, 5
	tst	r3, #1
	beq	.L1101
.L1077:
	ldr	r3, .L1107+20
	ldr	r3, [r4, r3]
	ldr	r2, [r3]
	tst	r2, #1
	beq	.L1102
.L1079:
	ldr	r3, .L1107+24
	ldr	r3, [r4, r3]
	ldr	r2, [r3]
	tst	r2, #1
	beq	.L1103
.L1080:
	ldr	r3, .L1107+28
	ldr	r3, [r4, r3]
	ldr	r2, [r3]
	tst	r2, #1
	beq	.L1104
.L1081:
	ldr	r3, .L1107+32
	ldr	r3, [r4, r3]
	ldr	r2, [r3]
	tst	r2, #1
	beq	.L1105
.L1082:
	ldr	r3, .L1107+36
	ldr	r3, [r4, r3]
	ldr	r2, [r3]
	tst	r2, #1
	beq	.L1106
.L1083:
	ldr	r3, .L1107+40
	ldr	r3, [r4, r3]
	ldr	r2, [r3]
	tst	r2, #1
	popne	{r4, r5, r6, pc}
	ldr	r2, .L1107+44
	mov	r0, #1
	ldr	r1, .L1107+48
	str	r0, [r3]
	ldr	r0, [r4, r2]
	ldr	r2, .L1107+52
	ldr	r1, [r4, r1]
.LPIC80:
	add	r2, pc, r2
	pop	{r4, r5, r6, lr}
	b	__aeabi_atexit(PLT)
.L1101:
	mov	r0, r5
	bl	__cxa_guard_acquire(PLT)
	cmp	r0, #0
	beq	.L1077
	mov	r0, r5
	bl	__cxa_guard_release(PLT)
	ldr	r3, .L1107+56
	ldr	r1, .L1107+60
	ldr	r2, .L1107+64
	ldr	r0, [r4, r3]
.LPIC74:
	add	r2, pc, r2
	ldr	r1, [r4, r1]
	bl	__aeabi_atexit(PLT)
	b	.L1077
.L1100:
	mov	r0, r5
	bl	__cxa_guard_acquire(PLT)
	cmp	r0, #0
	beq	.L1074
	mov	r0, r5
	bl	__cxa_guard_release(PLT)
	ldr	r3, .L1107+68
	ldr	r1, .L1107+72
	ldr	r2, .L1107+76
	ldr	r0, [r4, r3]
.LPIC73:
	add	r2, pc, r2
	ldr	r1, [r4, r1]
	bl	__aeabi_atexit(PLT)
	b	.L1074
.L1099:
	mov	r0, r5
	bl	__cxa_guard_acquire(PLT)
	cmp	r0, #0
	beq	.L1071
	mov	r0, r5
	bl	__cxa_guard_release(PLT)
	ldr	r3, .L1107+80
	ldr	r1, .L1107+84
	ldr	r2, .L1107+88
	ldr	r0, [r4, r3]
.LPIC72:
	add	r2, pc, r2
	ldr	r1, [r4, r1]
	bl	__aeabi_atexit(PLT)
	b	.L1071
.L1098:
	mov	r0, r5
	bl	__cxa_guard_acquire(PLT)
	cmp	r0, #0
	beq	.L1068
	mov	r0, r5
	bl	__cxa_guard_release(PLT)
	ldr	r3, .L1107+92
	ldr	r1, .L1107+96
	ldr	r2, .L1107+100
	ldr	r0, [r4, r3]
.LPIC71:
	add	r2, pc, r2
	ldr	r1, [r4, r1]
	bl	__aeabi_atexit(PLT)
	b	.L1068
.L1106:
	ldr	r2, .L1107+104
	mov	r0, #1
	ldr	r1, .L1107+108
	str	r0, [r3]
	ldr	r0, [r4, r2]
	ldr	r2, .L1107+112
	ldr	r1, [r4, r1]
.LPIC79:
	add	r2, pc, r2
	bl	__aeabi_atexit(PLT)
	b	.L1083
.L1105:
	ldr	r2, .L1107+116
	mov	r1, #1
	str	r1, [r3]
	ldr	r5, [r4, r2]
	mov	r0, r5
	bl	_ZN4asio6detail20posix_tss_ptr_createERj(PLT)
	ldr	r3, .L1107+120
	ldr	r2, .L1107+124
	mov	r0, r5
.LPIC78:
	add	r2, pc, r2
	ldr	r1, [r4, r3]
	bl	__aeabi_atexit(PLT)
	b	.L1082
.L1104:
	ldr	r2, .L1107+128
	mov	r0, #1
	ldr	r1, .L1107+132
	str	r0, [r3]
	ldr	r0, [r4, r2]
	ldr	r2, .L1107+136
	ldr	r1, [r4, r1]
.LPIC77:
	add	r2, pc, r2
	bl	__aeabi_atexit(PLT)
	b	.L1081
.L1103:
	ldr	r2, .L1107+140
	mov	r0, #1
	ldr	r1, .L1107+144
	str	r0, [r3]
	ldr	r0, [r4, r2]
	ldr	r2, .L1107+148
	ldr	r1, [r4, r1]
.LPIC76:
	add	r2, pc, r2
	bl	__aeabi_atexit(PLT)
	b	.L1080
.L1102:
	ldr	r2, .L1107+152
	mov	r1, #1
	str	r1, [r3]
	ldr	r5, [r4, r2]
	mov	r0, r5
	bl	_ZN4asio6detail20posix_tss_ptr_createERj(PLT)
	ldr	r3, .L1107+156
	ldr	r2, .L1107+160
	mov	r0, r5
.LPIC75:
	add	r2, pc, r2
	ldr	r1, [r4, r3]
	bl	__aeabi_atexit(PLT)
	b	.L1079
.L1108:
	.align	2
.L1107:
	.word	_GLOBAL_OFFSET_TABLE_-(.LPIC70+8)
	.word	_ZGVZN4asio15system_categoryEvE8instance(GOT)
	.word	_ZGVZN4asio5error18get_netdb_categoryEvE8instance(GOT)
	.word	_ZGVZN4asio5error21get_addrinfo_categoryEvE8instance(GOT)
	.word	_ZGVZN4asio5error17get_misc_categoryEvE8instance(GOT)
	.word	_ZGVN4asio6detail10call_stackINS0_15task_io_serviceENS0_27task_io_service_thread_infoEE4top_E(GOT)
	.word	_ZGVN4asio6detail12service_baseINS0_13epoll_reactorEE2idE(GOT)
	.word	_ZGVN4asio6detail12service_baseINS0_15task_io_serviceEE2idE(GOT)
	.word	_ZGVN4asio6detail10call_stackINS0_14strand_service11strand_implEhE4top_E(GOT)
	.word	_ZGVN4asio6detail12service_baseINS0_14strand_serviceEE2idE(GOT)
	.word	_ZGVN4asio6detail12service_baseINS_22waitable_timer_serviceINSt6chrono3_V212steady_clockENS_11wait_traitsIS5_EEEEE2idE(GOT)
	.word	_ZN4asio6detail12service_baseINS_22waitable_timer_serviceINSt6chrono3_V212steady_clockENS_11wait_traitsIS5_EEEEE2idE(GOT)
	.word	_ZN4asio6detail10service_idINS_22waitable_timer_serviceINSt6chrono3_V212steady_clockENS_11wait_traitsIS5_EEEEED1Ev(GOT)
	.word	__dso_handle-(.LPIC80+8)
	.word	_ZZN4asio5error17get_misc_categoryEvE8instance(GOT)
	.word	_ZN4asio5error6detail13misc_categoryD1Ev(GOT)
	.word	__dso_handle-(.LPIC74+8)
	.word	_ZZN4asio5error21get_addrinfo_categoryEvE8instance(GOT)
	.word	_ZN4asio5error6detail17addrinfo_categoryD1Ev(GOT)
	.word	__dso_handle-(.LPIC73+8)
	.word	_ZZN4asio5error18get_netdb_categoryEvE8instance(GOT)
	.word	_ZN4asio5error6detail14netdb_categoryD1Ev(GOT)
	.word	__dso_handle-(.LPIC72+8)
	.word	_ZZN4asio15system_categoryEvE8instance(GOT)
	.word	_ZN4asio6detail15system_categoryD1Ev(GOT)
	.word	__dso_handle-(.LPIC71+8)
	.word	_ZN4asio6detail12service_baseINS0_14strand_serviceEE2idE(GOT)
	.word	_ZN4asio6detail10service_idINS0_14strand_serviceEED1Ev(GOT)
	.word	__dso_handle-(.LPIC79+8)
	.word	_ZN4asio6detail10call_stackINS0_14strand_service11strand_implEhE4top_E(GOT)
	.word	_ZN4asio6detail7tss_ptrINS0_10call_stackINS0_14strand_service11strand_implEhE7contextEED1Ev(GOT)
	.word	__dso_handle-(.LPIC78+8)
	.word	_ZN4asio6detail12service_baseINS0_15task_io_serviceEE2idE(GOT)
	.word	_ZN4asio6detail10service_idINS0_15task_io_serviceEED1Ev(GOT)
	.word	__dso_handle-(.LPIC77+8)
	.word	_ZN4asio6detail12service_baseINS0_13epoll_reactorEE2idE(GOT)
	.word	_ZN4asio6detail10service_idINS0_13epoll_reactorEED1Ev(GOT)
	.word	__dso_handle-(.LPIC76+8)
	.word	_ZN4asio6detail10call_stackINS0_15task_io_serviceENS0_27task_io_service_thread_infoEE4top_E(GOT)
	.word	_ZN4asio6detail7tss_ptrINS0_10call_stackINS0_15task_io_serviceENS0_27task_io_service_thread_infoEE7contextEED1Ev(GOT)
	.word	__dso_handle-(.LPIC75+8)
	.cantunwind
	.fnend
	.size	_GLOBAL__sub_I_Timer.cpp, .-_GLOBAL__sub_I_Timer.cpp
	.section	.init_array,"aw"
	.align	2
	.word	_GLOBAL__sub_I_Timer.cpp
	.weak	_ZTSN7openpal10UncopyableE
	.section	.rodata._ZTSN7openpal10UncopyableE,"aG",%progbits,_ZTSN7openpal10UncopyableE,comdat
	.align	2
	.type	_ZTSN7openpal10UncopyableE, %object
	.size	_ZTSN7openpal10UncopyableE, 23
_ZTSN7openpal10UncopyableE:
	.ascii	"N7openpal10UncopyableE\000"
	.weak	_ZTIN7openpal10UncopyableE
	.section	.data.rel.ro._ZTIN7openpal10UncopyableE,"awG",%progbits,_ZTIN7openpal10UncopyableE,comdat
	.align	2
	.type	_ZTIN7openpal10UncopyableE, %object
	.size	_ZTIN7openpal10UncopyableE, 8
_ZTIN7openpal10UncopyableE:
	.word	_ZTVN10__cxxabiv117__class_type_infoE+8
	.word	_ZTSN7openpal10UncopyableE
	.weak	_ZTSN4asio6detail11noncopyableE
	.section	.rodata._ZTSN4asio6detail11noncopyableE,"aG",%progbits,_ZTSN4asio6detail11noncopyableE,comdat
	.align	2
	.type	_ZTSN4asio6detail11noncopyableE, %object
	.size	_ZTSN4asio6detail11noncopyableE, 28
_ZTSN4asio6detail11noncopyableE:
	.ascii	"N4asio6detail11noncopyableE\000"
	.weak	_ZTIN4asio6detail11noncopyableE
	.section	.data.rel.ro._ZTIN4asio6detail11noncopyableE,"awG",%progbits,_ZTIN4asio6detail11noncopyableE,comdat
	.align	2
	.type	_ZTIN4asio6detail11noncopyableE, %object
	.size	_ZTIN4asio6detail11noncopyableE, 8
_ZTIN4asio6detail11noncopyableE:
	.word	_ZTVN10__cxxabiv117__class_type_infoE+8
	.word	_ZTSN4asio6detail11noncopyableE
	.weak	_ZGVN4asio6detail12service_baseINS_22waitable_timer_serviceINSt6chrono3_V212steady_clockENS_11wait_traitsIS5_EEEEE2idE
	.section	.bss._ZGVN4asio6detail12service_baseINS_22waitable_timer_serviceINSt6chrono3_V212steady_clockENS_11wait_traitsIS5_EEEEE2idE,"awG",%nobits,_ZGVN4asio6detail12service_baseINS_22waitable_timer_serviceINSt6chrono3_V212steady_clockENS_11wait_traitsIS5_EEEEE2idE,comdat
	.align	2
	.type	_ZGVN4asio6detail12service_baseINS_22waitable_timer_serviceINSt6chrono3_V212steady_clockENS_11wait_traitsIS5_EEEEE2idE, %gnu_unique_object
	.size	_ZGVN4asio6detail12service_baseINS_22waitable_timer_serviceINSt6chrono3_V212steady_clockENS_11wait_traitsIS5_EEEEE2idE, 4
_ZGVN4asio6detail12service_baseINS_22waitable_timer_serviceINSt6chrono3_V212steady_clockENS_11wait_traitsIS5_EEEEE2idE:
	.space	4
	.weak	_ZGVN4asio6detail12service_baseINS0_14strand_serviceEE2idE
	.section	.bss._ZGVN4asio6detail12service_baseINS0_14strand_serviceEE2idE,"awG",%nobits,_ZGVN4asio6detail12service_baseINS0_14strand_serviceEE2idE,comdat
	.align	2
	.type	_ZGVN4asio6detail12service_baseINS0_14strand_serviceEE2idE, %gnu_unique_object
	.size	_ZGVN4asio6detail12service_baseINS0_14strand_serviceEE2idE, 4
_ZGVN4asio6detail12service_baseINS0_14strand_serviceEE2idE:
	.space	4
	.weak	_ZGVN4asio6detail10call_stackINS0_14strand_service11strand_implEhE4top_E
	.section	.bss._ZGVN4asio6detail10call_stackINS0_14strand_service11strand_implEhE4top_E,"awG",%nobits,_ZGVN4asio6detail10call_stackINS0_14strand_service11strand_implEhE4top_E,comdat
	.align	2
	.type	_ZGVN4asio6detail10call_stackINS0_14strand_service11strand_implEhE4top_E, %gnu_unique_object
	.size	_ZGVN4asio6detail10call_stackINS0_14strand_service11strand_implEhE4top_E, 4
_ZGVN4asio6detail10call_stackINS0_14strand_service11strand_implEhE4top_E:
	.space	4
	.weak	_ZGVN4asio6detail12service_baseINS0_15task_io_serviceEE2idE
	.section	.bss._ZGVN4asio6detail12service_baseINS0_15task_io_serviceEE2idE,"awG",%nobits,_ZGVN4asio6detail12service_baseINS0_15task_io_serviceEE2idE,comdat
	.align	2
	.type	_ZGVN4asio6detail12service_baseINS0_15task_io_serviceEE2idE, %gnu_unique_object
	.size	_ZGVN4asio6detail12service_baseINS0_15task_io_serviceEE2idE, 4
_ZGVN4asio6detail12service_baseINS0_15task_io_serviceEE2idE:
	.space	4
	.weak	_ZGVN4asio6detail12service_baseINS0_13epoll_reactorEE2idE
	.section	.bss._ZGVN4asio6detail12service_baseINS0_13epoll_reactorEE2idE,"awG",%nobits,_ZGVN4asio6detail12service_baseINS0_13epoll_reactorEE2idE,comdat
	.align	2
	.type	_ZGVN4asio6detail12service_baseINS0_13epoll_reactorEE2idE, %gnu_unique_object
	.size	_ZGVN4asio6detail12service_baseINS0_13epoll_reactorEE2idE, 4
_ZGVN4asio6detail12service_baseINS0_13epoll_reactorEE2idE:
	.space	4
	.weak	_ZGVN4asio6detail10call_stackINS0_15task_io_serviceENS0_27task_io_service_thread_infoEE4top_E
	.section	.bss._ZGVN4asio6detail10call_stackINS0_15task_io_serviceENS0_27task_io_service_thread_infoEE4top_E,"awG",%nobits,_ZGVN4asio6detail10call_stackINS0_15task_io_serviceENS0_27task_io_service_thread_infoEE4top_E,comdat
	.align	2
	.type	_ZGVN4asio6detail10call_stackINS0_15task_io_serviceENS0_27task_io_service_thread_infoEE4top_E, %gnu_unique_object
	.size	_ZGVN4asio6detail10call_stackINS0_15task_io_serviceENS0_27task_io_service_thread_infoEE4top_E, 4
_ZGVN4asio6detail10call_stackINS0_15task_io_serviceENS0_27task_io_service_thread_infoEE4top_E:
	.space	4
	.weak	_ZN4asio6detail12service_baseINS_22waitable_timer_serviceINSt6chrono3_V212steady_clockENS_11wait_traitsIS5_EEEEE2idE
	.section	.bss._ZN4asio6detail12service_baseINS_22waitable_timer_serviceINSt6chrono3_V212steady_clockENS_11wait_traitsIS5_EEEEE2idE,"awG",%nobits,_ZN4asio6detail12service_baseINS_22waitable_timer_serviceINSt6chrono3_V212steady_clockENS_11wait_traitsIS5_EEEEE2idE,comdat
	.align	2
	.type	_ZN4asio6detail12service_baseINS_22waitable_timer_serviceINSt6chrono3_V212steady_clockENS_11wait_traitsIS5_EEEEE2idE, %gnu_unique_object
	.size	_ZN4asio6detail12service_baseINS_22waitable_timer_serviceINSt6chrono3_V212steady_clockENS_11wait_traitsIS5_EEEEE2idE, 1
_ZN4asio6detail12service_baseINS_22waitable_timer_serviceINSt6chrono3_V212steady_clockENS_11wait_traitsIS5_EEEEE2idE:
	.space	1
	.weak	_ZN4asio6detail12service_baseINS0_14strand_serviceEE2idE
	.section	.bss._ZN4asio6detail12service_baseINS0_14strand_serviceEE2idE,"awG",%nobits,_ZN4asio6detail12service_baseINS0_14strand_serviceEE2idE,comdat
	.align	2
	.type	_ZN4asio6detail12service_baseINS0_14strand_serviceEE2idE, %gnu_unique_object
	.size	_ZN4asio6detail12service_baseINS0_14strand_serviceEE2idE, 1
_ZN4asio6detail12service_baseINS0_14strand_serviceEE2idE:
	.space	1
	.weak	_ZN4asio6detail10call_stackINS0_14strand_service11strand_implEhE4top_E
	.section	.bss._ZN4asio6detail10call_stackINS0_14strand_service11strand_implEhE4top_E,"awG",%nobits,_ZN4asio6detail10call_stackINS0_14strand_service11strand_implEhE4top_E,comdat
	.align	2
	.type	_ZN4asio6detail10call_stackINS0_14strand_service11strand_implEhE4top_E, %gnu_unique_object
	.size	_ZN4asio6detail10call_stackINS0_14strand_service11strand_implEhE4top_E, 4
_ZN4asio6detail10call_stackINS0_14strand_service11strand_implEhE4top_E:
	.space	4
	.weak	_ZN4asio6detail12service_baseINS0_15task_io_serviceEE2idE
	.section	.bss._ZN4asio6detail12service_baseINS0_15task_io_serviceEE2idE,"awG",%nobits,_ZN4asio6detail12service_baseINS0_15task_io_serviceEE2idE,comdat
	.align	2
	.type	_ZN4asio6detail12service_baseINS0_15task_io_serviceEE2idE, %gnu_unique_object
	.size	_ZN4asio6detail12service_baseINS0_15task_io_serviceEE2idE, 1
_ZN4asio6detail12service_baseINS0_15task_io_serviceEE2idE:
	.space	1
	.weak	_ZN4asio6detail12service_baseINS0_13epoll_reactorEE2idE
	.section	.bss._ZN4asio6detail12service_baseINS0_13epoll_reactorEE2idE,"awG",%nobits,_ZN4asio6detail12service_baseINS0_13epoll_reactorEE2idE,comdat
	.align	2
	.type	_ZN4asio6detail12service_baseINS0_13epoll_reactorEE2idE, %gnu_unique_object
	.size	_ZN4asio6detail12service_baseINS0_13epoll_reactorEE2idE, 1
_ZN4asio6detail12service_baseINS0_13epoll_reactorEE2idE:
	.space	1
	.weak	_ZN4asio6detail10call_stackINS0_15task_io_serviceENS0_27task_io_service_thread_infoEE4top_E
	.section	.bss._ZN4asio6detail10call_stackINS0_15task_io_serviceENS0_27task_io_service_thread_infoEE4top_E,"awG",%nobits,_ZN4asio6detail10call_stackINS0_15task_io_serviceENS0_27task_io_service_thread_infoEE4top_E,comdat
	.align	2
	.type	_ZN4asio6detail10call_stackINS0_15task_io_serviceENS0_27task_io_service_thread_infoEE4top_E, %gnu_unique_object
	.size	_ZN4asio6detail10call_stackINS0_15task_io_serviceENS0_27task_io_service_thread_infoEE4top_E, 4
_ZN4asio6detail10call_stackINS0_15task_io_serviceENS0_27task_io_service_thread_infoEE4top_E:
	.space	4
	.weak	_ZTSN4asio6detail15system_categoryE
	.section	.rodata._ZTSN4asio6detail15system_categoryE,"aG",%progbits,_ZTSN4asio6detail15system_categoryE,comdat
	.align	2
	.type	_ZTSN4asio6detail15system_categoryE, %object
	.size	_ZTSN4asio6detail15system_categoryE, 32
_ZTSN4asio6detail15system_categoryE:
	.ascii	"N4asio6detail15system_categoryE\000"
	.weak	_ZTIN4asio6detail15system_categoryE
	.section	.data.rel.ro._ZTIN4asio6detail15system_categoryE,"awG",%progbits,_ZTIN4asio6detail15system_categoryE,comdat
	.align	2
	.type	_ZTIN4asio6detail15system_categoryE, %object
	.size	_ZTIN4asio6detail15system_categoryE, 12
_ZTIN4asio6detail15system_categoryE:
	.word	_ZTVN10__cxxabiv120__si_class_type_infoE+8
	.word	_ZTSN4asio6detail15system_categoryE
	.word	_ZTINSt3_V214error_categoryE
	.weak	_ZTSN4asio5error6detail14netdb_categoryE
	.section	.rodata._ZTSN4asio5error6detail14netdb_categoryE,"aG",%progbits,_ZTSN4asio5error6detail14netdb_categoryE,comdat
	.align	2
	.type	_ZTSN4asio5error6detail14netdb_categoryE, %object
	.size	_ZTSN4asio5error6detail14netdb_categoryE, 37
_ZTSN4asio5error6detail14netdb_categoryE:
	.ascii	"N4asio5error6detail14netdb_categoryE\000"
	.weak	_ZTIN4asio5error6detail14netdb_categoryE
	.section	.data.rel.ro._ZTIN4asio5error6detail14netdb_categoryE,"awG",%progbits,_ZTIN4asio5error6detail14netdb_categoryE,comdat
	.align	2
	.type	_ZTIN4asio5error6detail14netdb_categoryE, %object
	.size	_ZTIN4asio5error6detail14netdb_categoryE, 12
_ZTIN4asio5error6detail14netdb_categoryE:
	.word	_ZTVN10__cxxabiv120__si_class_type_infoE+8
	.word	_ZTSN4asio5error6detail14netdb_categoryE
	.word	_ZTINSt3_V214error_categoryE
	.weak	_ZTSN4asio5error6detail17addrinfo_categoryE
	.section	.rodata._ZTSN4asio5error6detail17addrinfo_categoryE,"aG",%progbits,_ZTSN4asio5error6detail17addrinfo_categoryE,comdat
	.align	2
	.type	_ZTSN4asio5error6detail17addrinfo_categoryE, %object
	.size	_ZTSN4asio5error6detail17addrinfo_categoryE, 40
_ZTSN4asio5error6detail17addrinfo_categoryE:
	.ascii	"N4asio5error6detail17addrinfo_categoryE\000"
	.weak	_ZTIN4asio5error6detail17addrinfo_categoryE
	.section	.data.rel.ro._ZTIN4asio5error6detail17addrinfo_categoryE,"awG",%progbits,_ZTIN4asio5error6detail17addrinfo_categoryE,comdat
	.align	2
	.type	_ZTIN4asio5error6detail17addrinfo_categoryE, %object
	.size	_ZTIN4asio5error6detail17addrinfo_categoryE, 12
_ZTIN4asio5error6detail17addrinfo_categoryE:
	.word	_ZTVN10__cxxabiv120__si_class_type_infoE+8
	.word	_ZTSN4asio5error6detail17addrinfo_categoryE
	.word	_ZTINSt3_V214error_categoryE
	.weak	_ZTSN4asio5error6detail13misc_categoryE
	.section	.rodata._ZTSN4asio5error6detail13misc_categoryE,"aG",%progbits,_ZTSN4asio5error6detail13misc_categoryE,comdat
	.align	2
	.type	_ZTSN4asio5error6detail13misc_categoryE, %object
	.size	_ZTSN4asio5error6detail13misc_categoryE, 36
_ZTSN4asio5error6detail13misc_categoryE:
	.ascii	"N4asio5error6detail13misc_categoryE\000"
	.weak	_ZTIN4asio5error6detail13misc_categoryE
	.section	.data.rel.ro._ZTIN4asio5error6detail13misc_categoryE,"awG",%progbits,_ZTIN4asio5error6detail13misc_categoryE,comdat
	.align	2
	.type	_ZTIN4asio5error6detail13misc_categoryE, %object
	.size	_ZTIN4asio5error6detail13misc_categoryE, 12
_ZTIN4asio5error6detail13misc_categoryE:
	.word	_ZTVN10__cxxabiv120__si_class_type_infoE+8
	.word	_ZTSN4asio5error6detail13misc_categoryE
	.word	_ZTINSt3_V214error_categoryE
	.weak	_ZTSN4asio10io_service7serviceE
	.section	.rodata._ZTSN4asio10io_service7serviceE,"aG",%progbits,_ZTSN4asio10io_service7serviceE,comdat
	.align	2
	.type	_ZTSN4asio10io_service7serviceE, %object
	.size	_ZTSN4asio10io_service7serviceE, 28
_ZTSN4asio10io_service7serviceE:
	.ascii	"N4asio10io_service7serviceE\000"
	.weak	_ZTIN4asio10io_service7serviceE
	.section	.data.rel.ro._ZTIN4asio10io_service7serviceE,"awG",%progbits,_ZTIN4asio10io_service7serviceE,comdat
	.align	2
	.type	_ZTIN4asio10io_service7serviceE, %object
	.size	_ZTIN4asio10io_service7serviceE, 24
_ZTIN4asio10io_service7serviceE:
	.word	_ZTVN10__cxxabiv121__vmi_class_type_infoE+8
	.word	_ZTSN4asio10io_service7serviceE
	.word	0
	.word	1
	.word	_ZTIN4asio6detail11noncopyableE
	.word	0
	.weak	_ZTSN4asio6detail16timer_queue_baseE
	.section	.rodata._ZTSN4asio6detail16timer_queue_baseE,"aG",%progbits,_ZTSN4asio6detail16timer_queue_baseE,comdat
	.align	2
	.type	_ZTSN4asio6detail16timer_queue_baseE, %object
	.size	_ZTSN4asio6detail16timer_queue_baseE, 33
_ZTSN4asio6detail16timer_queue_baseE:
	.ascii	"N4asio6detail16timer_queue_baseE\000"
	.weak	_ZTIN4asio6detail16timer_queue_baseE
	.section	.data.rel.ro._ZTIN4asio6detail16timer_queue_baseE,"awG",%progbits,_ZTIN4asio6detail16timer_queue_baseE,comdat
	.align	2
	.type	_ZTIN4asio6detail16timer_queue_baseE, %object
	.size	_ZTIN4asio6detail16timer_queue_baseE, 24
_ZTIN4asio6detail16timer_queue_baseE:
	.word	_ZTVN10__cxxabiv121__vmi_class_type_infoE+8
	.word	_ZTSN4asio6detail16timer_queue_baseE
	.word	0
	.word	1
	.word	_ZTIN4asio6detail11noncopyableE
	.word	0
	.weak	_ZTSN4asio6detail12service_baseINS0_13epoll_reactorEEE
	.section	.rodata._ZTSN4asio6detail12service_baseINS0_13epoll_reactorEEE,"aG",%progbits,_ZTSN4asio6detail12service_baseINS0_13epoll_reactorEEE,comdat
	.align	2
	.type	_ZTSN4asio6detail12service_baseINS0_13epoll_reactorEEE, %object
	.size	_ZTSN4asio6detail12service_baseINS0_13epoll_reactorEEE, 51
_ZTSN4asio6detail12service_baseINS0_13epoll_reactorEEE:
	.ascii	"N4asio6detail12service_baseINS0_13epoll_reactorEEE\000"
	.weak	_ZTIN4asio6detail12service_baseINS0_13epoll_reactorEEE
	.section	.data.rel.ro._ZTIN4asio6detail12service_baseINS0_13epoll_reactorEEE,"awG",%progbits,_ZTIN4asio6detail12service_baseINS0_13epoll_reactorEEE,comdat
	.align	2
	.type	_ZTIN4asio6detail12service_baseINS0_13epoll_reactorEEE, %object
	.size	_ZTIN4asio6detail12service_baseINS0_13epoll_reactorEEE, 12
_ZTIN4asio6detail12service_baseINS0_13epoll_reactorEEE:
	.word	_ZTVN10__cxxabiv120__si_class_type_infoE+8
	.word	_ZTSN4asio6detail12service_baseINS0_13epoll_reactorEEE
	.word	_ZTIN4asio10io_service7serviceE
	.weak	_ZTSN4asio6detail13epoll_reactorE
	.section	.rodata._ZTSN4asio6detail13epoll_reactorE,"aG",%progbits,_ZTSN4asio6detail13epoll_reactorE,comdat
	.align	2
	.type	_ZTSN4asio6detail13epoll_reactorE, %object
	.size	_ZTSN4asio6detail13epoll_reactorE, 30
_ZTSN4asio6detail13epoll_reactorE:
	.ascii	"N4asio6detail13epoll_reactorE\000"
	.weak	_ZTIN4asio6detail13epoll_reactorE
	.section	.data.rel.ro._ZTIN4asio6detail13epoll_reactorE,"awG",%progbits,_ZTIN4asio6detail13epoll_reactorE,comdat
	.align	2
	.type	_ZTIN4asio6detail13epoll_reactorE, %object
	.size	_ZTIN4asio6detail13epoll_reactorE, 12
_ZTIN4asio6detail13epoll_reactorE:
	.word	_ZTVN10__cxxabiv120__si_class_type_infoE+8
	.word	_ZTSN4asio6detail13epoll_reactorE
	.word	_ZTIN4asio6detail12service_baseINS0_13epoll_reactorEEE
	.weak	_ZTSN4asio6detail12service_baseINS_22waitable_timer_serviceINSt6chrono3_V212steady_clockENS_11wait_traitsIS5_EEEEEE
	.section	.rodata._ZTSN4asio6detail12service_baseINS_22waitable_timer_serviceINSt6chrono3_V212steady_clockENS_11wait_traitsIS5_EEEEEE,"aG",%progbits,_ZTSN4asio6detail12service_baseINS_22waitable_timer_serviceINSt6chrono3_V212steady_clockENS_11wait_traitsIS5_EEEEEE,comdat
	.align	2
	.type	_ZTSN4asio6detail12service_baseINS_22waitable_timer_serviceINSt6chrono3_V212steady_clockENS_11wait_traitsIS5_EEEEEE, %object
	.size	_ZTSN4asio6detail12service_baseINS_22waitable_timer_serviceINSt6chrono3_V212steady_clockENS_11wait_traitsIS5_EEEEEE, 112
_ZTSN4asio6detail12service_baseINS_22waitable_timer_serviceINSt6chrono3_V212steady_clockENS_11wait_traitsIS5_EEEEEE:
	.ascii	"N4asio6detail12service_baseINS_22waitable_timer_ser"
	.ascii	"viceINSt6chrono3_V212steady_clockENS_11wait_traitsI"
	.ascii	"S5_EEEEEE\000"
	.weak	_ZTIN4asio6detail12service_baseINS_22waitable_timer_serviceINSt6chrono3_V212steady_clockENS_11wait_traitsIS5_EEEEEE
	.section	.data.rel.ro._ZTIN4asio6detail12service_baseINS_22waitable_timer_serviceINSt6chrono3_V212steady_clockENS_11wait_traitsIS5_EEEEEE,"awG",%progbits,_ZTIN4asio6detail12service_baseINS_22waitable_timer_serviceINSt6chrono3_V212steady_clockENS_11wait_traitsIS5_EEEEEE,comdat
	.align	2
	.type	_ZTIN4asio6detail12service_baseINS_22waitable_timer_serviceINSt6chrono3_V212steady_clockENS_11wait_traitsIS5_EEEEEE, %object
	.size	_ZTIN4asio6detail12service_baseINS_22waitable_timer_serviceINSt6chrono3_V212steady_clockENS_11wait_traitsIS5_EEEEEE, 12
_ZTIN4asio6detail12service_baseINS_22waitable_timer_serviceINSt6chrono3_V212steady_clockENS_11wait_traitsIS5_EEEEEE:
	.word	_ZTVN10__cxxabiv120__si_class_type_infoE+8
	.word	_ZTSN4asio6detail12service_baseINS_22waitable_timer_serviceINSt6chrono3_V212steady_clockENS_11wait_traitsIS5_EEEEEE
	.word	_ZTIN4asio10io_service7serviceE
	.weak	_ZTSN4asio6detail11timer_queueINS0_18chrono_time_traitsINSt6chrono3_V212steady_clockENS_11wait_traitsIS5_EEEEEE
	.section	.rodata._ZTSN4asio6detail11timer_queueINS0_18chrono_time_traitsINSt6chrono3_V212steady_clockENS_11wait_traitsIS5_EEEEEE,"aG",%progbits,_ZTSN4asio6detail11timer_queueINS0_18chrono_time_traitsINSt6chrono3_V212steady_clockENS_11wait_traitsIS5_EEEEEE,comdat
	.align	2
	.type	_ZTSN4asio6detail11timer_queueINS0_18chrono_time_traitsINSt6chrono3_V212steady_clockENS_11wait_traitsIS5_EEEEEE, %object
	.size	_ZTSN4asio6detail11timer_queueINS0_18chrono_time_traitsINSt6chrono3_V212steady_clockENS_11wait_traitsIS5_EEEEEE, 108
_ZTSN4asio6detail11timer_queueINS0_18chrono_time_traitsINSt6chrono3_V212steady_clockENS_11wait_traitsIS5_EEEEEE:
	.ascii	"N4asio6detail11timer_queueINS0_18chrono_time_traits"
	.ascii	"INSt6chrono3_V212steady_clockENS_11wait_traitsIS5_E"
	.ascii	"EEEEE\000"
	.weak	_ZTIN4asio6detail11timer_queueINS0_18chrono_time_traitsINSt6chrono3_V212steady_clockENS_11wait_traitsIS5_EEEEEE
	.section	.data.rel.ro._ZTIN4asio6detail11timer_queueINS0_18chrono_time_traitsINSt6chrono3_V212steady_clockENS_11wait_traitsIS5_EEEEEE,"awG",%progbits,_ZTIN4asio6detail11timer_queueINS0_18chrono_time_traitsINSt6chrono3_V212steady_clockENS_11wait_traitsIS5_EEEEEE,comdat
	.align	2
	.type	_ZTIN4asio6detail11timer_queueINS0_18chrono_time_traitsINSt6chrono3_V212steady_clockENS_11wait_traitsIS5_EEEEEE, %object
	.size	_ZTIN4asio6detail11timer_queueINS0_18chrono_time_traitsINSt6chrono3_V212steady_clockENS_11wait_traitsIS5_EEEEEE, 12
_ZTIN4asio6detail11timer_queueINS0_18chrono_time_traitsINSt6chrono3_V212steady_clockENS_11wait_traitsIS5_EEEEEE:
	.word	_ZTVN10__cxxabiv120__si_class_type_infoE+8
	.word	_ZTSN4asio6detail11timer_queueINS0_18chrono_time_traitsINSt6chrono3_V212steady_clockENS_11wait_traitsIS5_EEEEEE
	.word	_ZTIN4asio6detail16timer_queue_baseE
	.weak	_ZTSN4asio22waitable_timer_serviceINSt6chrono3_V212steady_clockENS_11wait_traitsIS3_EEEE
	.section	.rodata._ZTSN4asio22waitable_timer_serviceINSt6chrono3_V212steady_clockENS_11wait_traitsIS3_EEEE,"aG",%progbits,_ZTSN4asio22waitable_timer_serviceINSt6chrono3_V212steady_clockENS_11wait_traitsIS3_EEEE,comdat
	.align	2
	.type	_ZTSN4asio22waitable_timer_serviceINSt6chrono3_V212steady_clockENS_11wait_traitsIS3_EEEE, %object
	.size	_ZTSN4asio22waitable_timer_serviceINSt6chrono3_V212steady_clockENS_11wait_traitsIS3_EEEE, 85
_ZTSN4asio22waitable_timer_serviceINSt6chrono3_V212steady_clockENS_11wait_traitsIS3_EEEE:
	.ascii	"N4asio22waitable_timer_serviceINSt6chrono3_V212stea"
	.ascii	"dy_clockENS_11wait_traitsIS3_EEEE\000"
	.weak	_ZTIN4asio22waitable_timer_serviceINSt6chrono3_V212steady_clockENS_11wait_traitsIS3_EEEE
	.section	.data.rel.ro._ZTIN4asio22waitable_timer_serviceINSt6chrono3_V212steady_clockENS_11wait_traitsIS3_EEEE,"awG",%progbits,_ZTIN4asio22waitable_timer_serviceINSt6chrono3_V212steady_clockENS_11wait_traitsIS3_EEEE,comdat
	.align	2
	.type	_ZTIN4asio22waitable_timer_serviceINSt6chrono3_V212steady_clockENS_11wait_traitsIS3_EEEE, %object
	.size	_ZTIN4asio22waitable_timer_serviceINSt6chrono3_V212steady_clockENS_11wait_traitsIS3_EEEE, 12
_ZTIN4asio22waitable_timer_serviceINSt6chrono3_V212steady_clockENS_11wait_traitsIS3_EEEE:
	.word	_ZTVN10__cxxabiv120__si_class_type_infoE+8
	.word	_ZTSN4asio22waitable_timer_serviceINSt6chrono3_V212steady_clockENS_11wait_traitsIS3_EEEE
	.word	_ZTIN4asio6detail12service_baseINS_22waitable_timer_serviceINSt6chrono3_V212steady_clockENS_11wait_traitsIS5_EEEEEE
	.weak	_ZTSN7openpal6ITimerE
	.section	.rodata._ZTSN7openpal6ITimerE,"aG",%progbits,_ZTSN7openpal6ITimerE,comdat
	.align	2
	.type	_ZTSN7openpal6ITimerE, %object
	.size	_ZTSN7openpal6ITimerE, 18
_ZTSN7openpal6ITimerE:
	.ascii	"N7openpal6ITimerE\000"
	.weak	_ZTIN7openpal6ITimerE
	.section	.data.rel.ro._ZTIN7openpal6ITimerE,"awG",%progbits,_ZTIN7openpal6ITimerE,comdat
	.align	2
	.type	_ZTIN7openpal6ITimerE, %object
	.size	_ZTIN7openpal6ITimerE, 8
_ZTIN7openpal6ITimerE:
	.word	_ZTVN10__cxxabiv117__class_type_infoE+8
	.word	_ZTSN7openpal6ITimerE
	.global	_ZTSN7asiopal5TimerE
	.global	_ZTIN7asiopal5TimerE
	.weak	_ZTSN4asio6detail14typeid_wrapperINS0_13epoll_reactorEEE
	.section	.rodata._ZTSN4asio6detail14typeid_wrapperINS0_13epoll_reactorEEE,"aG",%progbits,_ZTSN4asio6detail14typeid_wrapperINS0_13epoll_reactorEEE,comdat
	.align	2
	.type	_ZTSN4asio6detail14typeid_wrapperINS0_13epoll_reactorEEE, %object
	.size	_ZTSN4asio6detail14typeid_wrapperINS0_13epoll_reactorEEE, 53
_ZTSN4asio6detail14typeid_wrapperINS0_13epoll_reactorEEE:
	.ascii	"N4asio6detail14typeid_wrapperINS0_13epoll_reactorEE"
	.ascii	"E\000"
	.weak	_ZTIN4asio6detail14typeid_wrapperINS0_13epoll_reactorEEE
	.section	.data.rel.ro._ZTIN4asio6detail14typeid_wrapperINS0_13epoll_reactorEEE,"awG",%progbits,_ZTIN4asio6detail14typeid_wrapperINS0_13epoll_reactorEEE,comdat
	.align	2
	.type	_ZTIN4asio6detail14typeid_wrapperINS0_13epoll_reactorEEE, %object
	.size	_ZTIN4asio6detail14typeid_wrapperINS0_13epoll_reactorEEE, 8
_ZTIN4asio6detail14typeid_wrapperINS0_13epoll_reactorEEE:
	.word	_ZTVN10__cxxabiv117__class_type_infoE+8
	.word	_ZTSN4asio6detail14typeid_wrapperINS0_13epoll_reactorEEE
	.weak	_ZTSN4asio6detail14typeid_wrapperINS_22waitable_timer_serviceINSt6chrono3_V212steady_clockENS_11wait_traitsIS5_EEEEEE
	.section	.rodata._ZTSN4asio6detail14typeid_wrapperINS_22waitable_timer_serviceINSt6chrono3_V212steady_clockENS_11wait_traitsIS5_EEEEEE,"aG",%progbits,_ZTSN4asio6detail14typeid_wrapperINS_22waitable_timer_serviceINSt6chrono3_V212steady_clockENS_11wait_traitsIS5_EEEEEE,comdat
	.align	2
	.type	_ZTSN4asio6detail14typeid_wrapperINS_22waitable_timer_serviceINSt6chrono3_V212steady_clockENS_11wait_traitsIS5_EEEEEE, %object
	.size	_ZTSN4asio6detail14typeid_wrapperINS_22waitable_timer_serviceINSt6chrono3_V212steady_clockENS_11wait_traitsIS5_EEEEEE, 114
_ZTSN4asio6detail14typeid_wrapperINS_22waitable_timer_serviceINSt6chrono3_V212steady_clockENS_11wait_traitsIS5_EEEEEE:
	.ascii	"N4asio6detail14typeid_wrapperINS_22waitable_timer_s"
	.ascii	"erviceINSt6chrono3_V212steady_clockENS_11wait_trait"
	.ascii	"sIS5_EEEEEE\000"
	.weak	_ZTIN4asio6detail14typeid_wrapperINS_22waitable_timer_serviceINSt6chrono3_V212steady_clockENS_11wait_traitsIS5_EEEEEE
	.section	.data.rel.ro._ZTIN4asio6detail14typeid_wrapperINS_22waitable_timer_serviceINSt6chrono3_V212steady_clockENS_11wait_traitsIS5_EEEEEE,"awG",%progbits,_ZTIN4asio6detail14typeid_wrapperINS_22waitable_timer_serviceINSt6chrono3_V212steady_clockENS_11wait_traitsIS5_EEEEEE,comdat
	.align	2
	.type	_ZTIN4asio6detail14typeid_wrapperINS_22waitable_timer_serviceINSt6chrono3_V212steady_clockENS_11wait_traitsIS5_EEEEEE, %object
	.size	_ZTIN4asio6detail14typeid_wrapperINS_22waitable_timer_serviceINSt6chrono3_V212steady_clockENS_11wait_traitsIS5_EEEEEE, 8
_ZTIN4asio6detail14typeid_wrapperINS_22waitable_timer_serviceINSt6chrono3_V212steady_clockENS_11wait_traitsIS5_EEEEEE:
	.word	_ZTVN10__cxxabiv117__class_type_infoE+8
	.word	_ZTSN4asio6detail14typeid_wrapperINS_22waitable_timer_serviceINSt6chrono3_V212steady_clockENS_11wait_traitsIS5_EEEEEE
	.weak	_ZTVN4asio6detail15system_categoryE
	.section	.data.rel.ro._ZTVN4asio6detail15system_categoryE,"awG",%progbits,_ZTVN4asio6detail15system_categoryE,comdat
	.align	2
	.type	_ZTVN4asio6detail15system_categoryE, %object
	.size	_ZTVN4asio6detail15system_categoryE, 40
_ZTVN4asio6detail15system_categoryE:
	.word	0
	.word	_ZTIN4asio6detail15system_categoryE
	.word	_ZN4asio6detail15system_categoryD1Ev
	.word	_ZN4asio6detail15system_categoryD0Ev
	.word	_ZNK4asio6detail15system_category4nameEv
	.word	_ZNKSt3_V214error_category10_M_messageB5cxx11Ei
	.word	_ZNK4asio6detail15system_category7messageB5cxx11Ei
	.word	_ZNKSt3_V214error_category23default_error_conditionEi
	.word	_ZNKSt3_V214error_category10equivalentEiRKSt15error_condition
	.word	_ZNKSt3_V214error_category10equivalentERKSt10error_codei
	.weak	_ZTVN4asio5error6detail14netdb_categoryE
	.section	.data.rel.ro._ZTVN4asio5error6detail14netdb_categoryE,"awG",%progbits,_ZTVN4asio5error6detail14netdb_categoryE,comdat
	.align	2
	.type	_ZTVN4asio5error6detail14netdb_categoryE, %object
	.size	_ZTVN4asio5error6detail14netdb_categoryE, 40
_ZTVN4asio5error6detail14netdb_categoryE:
	.word	0
	.word	_ZTIN4asio5error6detail14netdb_categoryE
	.word	_ZN4asio5error6detail14netdb_categoryD1Ev
	.word	_ZN4asio5error6detail14netdb_categoryD0Ev
	.word	_ZNK4asio5error6detail14netdb_category4nameEv
	.word	_ZNKSt3_V214error_category10_M_messageB5cxx11Ei
	.word	_ZNK4asio5error6detail14netdb_category7messageB5cxx11Ei
	.word	_ZNKSt3_V214error_category23default_error_conditionEi
	.word	_ZNKSt3_V214error_category10equivalentEiRKSt15error_condition
	.word	_ZNKSt3_V214error_category10equivalentERKSt10error_codei
	.weak	_ZTVN4asio5error6detail17addrinfo_categoryE
	.section	.data.rel.ro._ZTVN4asio5error6detail17addrinfo_categoryE,"awG",%progbits,_ZTVN4asio5error6detail17addrinfo_categoryE,comdat
	.align	2
	.type	_ZTVN4asio5error6detail17addrinfo_categoryE, %object
	.size	_ZTVN4asio5error6detail17addrinfo_categoryE, 40
_ZTVN4asio5error6detail17addrinfo_categoryE:
	.word	0
	.word	_ZTIN4asio5error6detail17addrinfo_categoryE
	.word	_ZN4asio5error6detail17addrinfo_categoryD1Ev
	.word	_ZN4asio5error6detail17addrinfo_categoryD0Ev
	.word	_ZNK4asio5error6detail17addrinfo_category4nameEv
	.word	_ZNKSt3_V214error_category10_M_messageB5cxx11Ei
	.word	_ZNK4asio5error6detail17addrinfo_category7messageB5cxx11Ei
	.word	_ZNKSt3_V214error_category23default_error_conditionEi
	.word	_ZNKSt3_V214error_category10equivalentEiRKSt15error_condition
	.word	_ZNKSt3_V214error_category10equivalentERKSt10error_codei
	.weak	_ZTVN4asio5error6detail13misc_categoryE
	.section	.data.rel.ro._ZTVN4asio5error6detail13misc_categoryE,"awG",%progbits,_ZTVN4asio5error6detail13misc_categoryE,comdat
	.align	2
	.type	_ZTVN4asio5error6detail13misc_categoryE, %object
	.size	_ZTVN4asio5error6detail13misc_categoryE, 40
_ZTVN4asio5error6detail13misc_categoryE:
	.word	0
	.word	_ZTIN4asio5error6detail13misc_categoryE
	.word	_ZN4asio5error6detail13misc_categoryD1Ev
	.word	_ZN4asio5error6detail13misc_categoryD0Ev
	.word	_ZNK4asio5error6detail13misc_category4nameEv
	.word	_ZNKSt3_V214error_category10_M_messageB5cxx11Ei
	.word	_ZNK4asio5error6detail13misc_category7messageB5cxx11Ei
	.word	_ZNKSt3_V214error_category23default_error_conditionEi
	.word	_ZNKSt3_V214error_category10equivalentEiRKSt15error_condition
	.word	_ZNKSt3_V214error_category10equivalentERKSt10error_codei
	.weak	_ZTVN4asio6detail13epoll_reactorE
	.section	.data.rel.ro._ZTVN4asio6detail13epoll_reactorE,"awG",%progbits,_ZTVN4asio6detail13epoll_reactorE,comdat
	.align	2
	.type	_ZTVN4asio6detail13epoll_reactorE, %object
	.size	_ZTVN4asio6detail13epoll_reactorE, 24
_ZTVN4asio6detail13epoll_reactorE:
	.word	0
	.word	_ZTIN4asio6detail13epoll_reactorE
	.word	_ZN4asio6detail13epoll_reactorD1Ev
	.word	_ZN4asio6detail13epoll_reactorD0Ev
	.word	_ZN4asio6detail13epoll_reactor16shutdown_serviceEv
	.word	_ZN4asio6detail13epoll_reactor12fork_serviceENS_10io_service10fork_eventE
	.weak	_ZTVN4asio6detail11timer_queueINS0_18chrono_time_traitsINSt6chrono3_V212steady_clockENS_11wait_traitsIS5_EEEEEE
	.section	.data.rel.ro._ZTVN4asio6detail11timer_queueINS0_18chrono_time_traitsINSt6chrono3_V212steady_clockENS_11wait_traitsIS5_EEEEEE,"awG",%progbits,_ZTVN4asio6detail11timer_queueINS0_18chrono_time_traitsINSt6chrono3_V212steady_clockENS_11wait_traitsIS5_EEEEEE,comdat
	.align	2
	.type	_ZTVN4asio6detail11timer_queueINS0_18chrono_time_traitsINSt6chrono3_V212steady_clockENS_11wait_traitsIS5_EEEEEE, %object
	.size	_ZTVN4asio6detail11timer_queueINS0_18chrono_time_traitsINSt6chrono3_V212steady_clockENS_11wait_traitsIS5_EEEEEE, 36
_ZTVN4asio6detail11timer_queueINS0_18chrono_time_traitsINSt6chrono3_V212steady_clockENS_11wait_traitsIS5_EEEEEE:
	.word	0
	.word	_ZTIN4asio6detail11timer_queueINS0_18chrono_time_traitsINSt6chrono3_V212steady_clockENS_11wait_traitsIS5_EEEEEE
	.word	_ZN4asio6detail11timer_queueINS0_18chrono_time_traitsINSt6chrono3_V212steady_clockENS_11wait_traitsIS5_EEEEED1Ev
	.word	_ZN4asio6detail11timer_queueINS0_18chrono_time_traitsINSt6chrono3_V212steady_clockENS_11wait_traitsIS5_EEEEED0Ev
	.word	_ZNK4asio6detail11timer_queueINS0_18chrono_time_traitsINSt6chrono3_V212steady_clockENS_11wait_traitsIS5_EEEEE5emptyEv
	.word	_ZNK4asio6detail11timer_queueINS0_18chrono_time_traitsINSt6chrono3_V212steady_clockENS_11wait_traitsIS5_EEEEE18wait_duration_msecEl
	.word	_ZNK4asio6detail11timer_queueINS0_18chrono_time_traitsINSt6chrono3_V212steady_clockENS_11wait_traitsIS5_EEEEE18wait_duration_usecEl
	.word	_ZN4asio6detail11timer_queueINS0_18chrono_time_traitsINSt6chrono3_V212steady_clockENS_11wait_traitsIS5_EEEEE16get_ready_timersERNS0_8op_queueINS0_25task_io_service_operationEEE
	.word	_ZN4asio6detail11timer_queueINS0_18chrono_time_traitsINSt6chrono3_V212steady_clockENS_11wait_traitsIS5_EEEEE14get_all_timersERNS0_8op_queueINS0_25task_io_service_operationEEE
	.weak	_ZTVN4asio22waitable_timer_serviceINSt6chrono3_V212steady_clockENS_11wait_traitsIS3_EEEE
	.section	.data.rel.ro._ZTVN4asio22waitable_timer_serviceINSt6chrono3_V212steady_clockENS_11wait_traitsIS3_EEEE,"awG",%progbits,_ZTVN4asio22waitable_timer_serviceINSt6chrono3_V212steady_clockENS_11wait_traitsIS3_EEEE,comdat
	.align	2
	.type	_ZTVN4asio22waitable_timer_serviceINSt6chrono3_V212steady_clockENS_11wait_traitsIS3_EEEE, %object
	.size	_ZTVN4asio22waitable_timer_serviceINSt6chrono3_V212steady_clockENS_11wait_traitsIS3_EEEE, 24
_ZTVN4asio22waitable_timer_serviceINSt6chrono3_V212steady_clockENS_11wait_traitsIS3_EEEE:
	.word	0
	.word	_ZTIN4asio22waitable_timer_serviceINSt6chrono3_V212steady_clockENS_11wait_traitsIS3_EEEE
	.word	_ZN4asio22waitable_timer_serviceINSt6chrono3_V212steady_clockENS_11wait_traitsIS3_EEED1Ev
	.word	_ZN4asio22waitable_timer_serviceINSt6chrono3_V212steady_clockENS_11wait_traitsIS3_EEED0Ev
	.word	_ZN4asio22waitable_timer_serviceINSt6chrono3_V212steady_clockENS_11wait_traitsIS3_EEE16shutdown_serviceEv
	.word	_ZN4asio10io_service7service12fork_serviceENS0_10fork_eventE
	.global	_ZTVN7asiopal5TimerE
	.weak	_ZGVZN4asio5error17get_misc_categoryEvE8instance
	.section	.bss._ZGVZN4asio5error17get_misc_categoryEvE8instance,"awG",%nobits,_ZGVZN4asio5error17get_misc_categoryEvE8instance,comdat
	.align	2
	.type	_ZGVZN4asio5error17get_misc_categoryEvE8instance, %gnu_unique_object
	.size	_ZGVZN4asio5error17get_misc_categoryEvE8instance, 4
_ZGVZN4asio5error17get_misc_categoryEvE8instance:
	.space	4
	.weak	_ZZN4asio5error17get_misc_categoryEvE8instance
	.section	.data.rel._ZZN4asio5error17get_misc_categoryEvE8instance,"awG",%progbits,_ZZN4asio5error17get_misc_categoryEvE8instance,comdat
	.align	2
	.type	_ZZN4asio5error17get_misc_categoryEvE8instance, %gnu_unique_object
	.size	_ZZN4asio5error17get_misc_categoryEvE8instance, 4
_ZZN4asio5error17get_misc_categoryEvE8instance:
	.word	_ZTVN4asio5error6detail13misc_categoryE+8
	.weak	_ZGVZN4asio5error21get_addrinfo_categoryEvE8instance
	.section	.bss._ZGVZN4asio5error21get_addrinfo_categoryEvE8instance,"awG",%nobits,_ZGVZN4asio5error21get_addrinfo_categoryEvE8instance,comdat
	.align	2
	.type	_ZGVZN4asio5error21get_addrinfo_categoryEvE8instance, %gnu_unique_object
	.size	_ZGVZN4asio5error21get_addrinfo_categoryEvE8instance, 4
_ZGVZN4asio5error21get_addrinfo_categoryEvE8instance:
	.space	4
	.weak	_ZZN4asio5error21get_addrinfo_categoryEvE8instance
	.section	.data.rel._ZZN4asio5error21get_addrinfo_categoryEvE8instance,"awG",%progbits,_ZZN4asio5error21get_addrinfo_categoryEvE8instance,comdat
	.align	2
	.type	_ZZN4asio5error21get_addrinfo_categoryEvE8instance, %gnu_unique_object
	.size	_ZZN4asio5error21get_addrinfo_categoryEvE8instance, 4
_ZZN4asio5error21get_addrinfo_categoryEvE8instance:
	.word	_ZTVN4asio5error6detail17addrinfo_categoryE+8
	.weak	_ZGVZN4asio5error18get_netdb_categoryEvE8instance
	.section	.bss._ZGVZN4asio5error18get_netdb_categoryEvE8instance,"awG",%nobits,_ZGVZN4asio5error18get_netdb_categoryEvE8instance,comdat
	.align	2
	.type	_ZGVZN4asio5error18get_netdb_categoryEvE8instance, %gnu_unique_object
	.size	_ZGVZN4asio5error18get_netdb_categoryEvE8instance, 4
_ZGVZN4asio5error18get_netdb_categoryEvE8instance:
	.space	4
	.weak	_ZZN4asio5error18get_netdb_categoryEvE8instance
	.section	.data.rel._ZZN4asio5error18get_netdb_categoryEvE8instance,"awG",%progbits,_ZZN4asio5error18get_netdb_categoryEvE8instance,comdat
	.align	2
	.type	_ZZN4asio5error18get_netdb_categoryEvE8instance, %gnu_unique_object
	.size	_ZZN4asio5error18get_netdb_categoryEvE8instance, 4
_ZZN4asio5error18get_netdb_categoryEvE8instance:
	.word	_ZTVN4asio5error6detail14netdb_categoryE+8
	.weak	_ZGVZN4asio15system_categoryEvE8instance
	.section	.bss._ZGVZN4asio15system_categoryEvE8instance,"awG",%nobits,_ZGVZN4asio15system_categoryEvE8instance,comdat
	.align	2
	.type	_ZGVZN4asio15system_categoryEvE8instance, %gnu_unique_object
	.size	_ZGVZN4asio15system_categoryEvE8instance, 4
_ZGVZN4asio15system_categoryEvE8instance:
	.space	4
	.weak	_ZZN4asio15system_categoryEvE8instance
	.section	.data.rel._ZZN4asio15system_categoryEvE8instance,"awG",%progbits,_ZZN4asio15system_categoryEvE8instance,comdat
	.align	2
	.type	_ZZN4asio15system_categoryEvE8instance, %gnu_unique_object
	.size	_ZZN4asio15system_categoryEvE8instance, 4
_ZZN4asio15system_categoryEvE8instance:
	.word	_ZTVN4asio6detail15system_categoryE+8
	.section	.rodata
	.align	2
	.type	_ZTSN7asiopal5TimerE, %object
	.size	_ZTSN7asiopal5TimerE, 17
_ZTSN7asiopal5TimerE:
	.ascii	"N7asiopal5TimerE\000"
	.section	.data.rel.ro,"aw",%progbits
	.align	2
	.type	_ZTIN7asiopal5TimerE, %object
	.size	_ZTIN7asiopal5TimerE, 32
_ZTIN7asiopal5TimerE:
	.word	_ZTVN10__cxxabiv121__vmi_class_type_infoE+8
	.word	_ZTSN7asiopal5TimerE
	.word	0
	.word	2
	.word	_ZTIN7openpal6ITimerE
	.word	2
	.word	_ZTIN7openpal10UncopyableE
	.word	0
	.type	_ZTVN7asiopal5TimerE, %object
	.size	_ZTVN7asiopal5TimerE, 24
_ZTVN7asiopal5TimerE:
	.word	0
	.word	_ZTIN7asiopal5TimerE
	.word	_ZN7asiopal5TimerD1Ev
	.word	_ZN7asiopal5TimerD0Ev
	.word	_ZN7asiopal5Timer6CancelEv
	.word	_ZN7asiopal5Timer9ExpiresAtEv
	.section	.rodata._ZN4asio6detail13epoll_reactor12fork_serviceENS_10io_service10fork_eventE.str1.4,"aMS",%progbits,1
	.align	2
.LC20:
	.ascii	"epoll\000"
	.space	2
.LC21:
	.ascii	"eventfd_select_interrupter\000"
	.space	1
.LC22:
	.ascii	"epoll re-registration\000"
	.section	.rodata._ZN4asio6detail16service_registry6createINS0_13epoll_reactorEEEPNS_10io_service7serviceERS4_.str1.4,"aMS",%progbits,1
	.align	2
.LC24:
	.ascii	"mutex\000"
	.section	.rodata._ZN4asio6detail20posix_tss_ptr_createERj.str1.4,"aMS",%progbits,1
	.align	2
.LC23:
	.ascii	"tss\000"
	.section	.rodata._ZNK4asio5error6detail13misc_category4nameEv.str1.4,"aMS",%progbits,1
	.align	2
.LC3:
	.ascii	"asio.misc\000"
	.section	.rodata._ZNK4asio5error6detail13misc_category7messageB5cxx11Ei.str1.4,"aMS",%progbits,1
	.align	2
.LC14:
	.ascii	"Already open\000"
	.space	3
.LC15:
	.ascii	"End of file\000"
.LC16:
	.ascii	"Element not found\000"
	.space	2
.LC17:
	.ascii	"The descriptor does not fit into the select call's "
	.ascii	"fd_set\000"
	.space	2
.LC18:
	.ascii	"asio.misc error\000"
	.section	.rodata._ZNK4asio5error6detail14netdb_category4nameEv.str1.4,"aMS",%progbits,1
	.align	2
.LC1:
	.ascii	"asio.netdb\000"
	.section	.rodata._ZNK4asio5error6detail14netdb_category7messageB5cxx11Ei.str1.4,"aMS",%progbits,1
	.align	2
.LC9:
	.ascii	"Host not found (authoritative)\000"
	.space	1
.LC10:
	.ascii	"Host not found (non-authoritative), try again later"
	.ascii	"\000"
.LC11:
	.ascii	"The query is valid, but it does not have associated"
	.ascii	" data\000"
	.space	3
.LC12:
	.ascii	"A non-recoverable error occurred during database lo"
	.ascii	"okup\000"
.LC13:
	.ascii	"asio.netdb error\000"
	.section	.rodata._ZNK4asio5error6detail17addrinfo_category4nameEv.str1.4,"aMS",%progbits,1
	.align	2
.LC2:
	.ascii	"asio.addrinfo\000"
	.section	.rodata._ZNK4asio5error6detail17addrinfo_category7messageB5cxx11Ei.str1.4,"aMS",%progbits,1
	.align	2
.LC6:
	.ascii	"Service not found\000"
	.space	2
.LC7:
	.ascii	"Socket type not supported\000"
	.space	2
.LC8:
	.ascii	"asio.addrinfo error\000"
	.section	.rodata._ZNK4asio6detail15system_category4nameEv.str1.4,"aMS",%progbits,1
	.align	2
.LC0:
	.ascii	"asio.system\000"
	.section	.rodata._ZNK4asio6detail15system_category7messageB5cxx11Ei.str1.4,"aMS",%progbits,1
	.align	2
.LC4:
	.ascii	"Operation aborted.\000"
	.space	1
.LC5:
	.ascii	"basic_string::_M_construct null not valid\000"
	.section	.rodata._ZNSt12system_errorC2ESt10error_codePKc.str1.4,"aMS",%progbits,1
	.align	2
.LC19:
	.ascii	": \000"
	.hidden	__dso_handle
	.ident	"GCC: (Raspbian 6.3.0-18+rpi1+deb9u1) 6.3.0 20170516"
	.section	.note.GNU-stack,"",%progbits
