	.arch armv6
	.eabi_attribute 28, 1
	.eabi_attribute 20, 1
	.eabi_attribute 21, 1
	.eabi_attribute 23, 3
	.eabi_attribute 24, 1
	.eabi_attribute 25, 1
	.eabi_attribute 26, 2
	.eabi_attribute 30, 2
	.eabi_attribute 34, 1
	.eabi_attribute 18, 4
	.file	"WriteHandler.cpp"
	.section	.text._ZN8opendnp312IAPDUHandler14OnHeaderResultERKNS_12HeaderRecordERKNS_8IINFieldE,"axG",%progbits,_ZN8opendnp312IAPDUHandler14OnHeaderResultERKNS_12HeaderRecordERKNS_8IINFieldE,comdat
	.align	2
	.weak	_ZN8opendnp312IAPDUHandler14OnHeaderResultERKNS_12HeaderRecordERKNS_8IINFieldE
	.syntax unified
	.arm
	.fpu vfp
	.type	_ZN8opendnp312IAPDUHandler14OnHeaderResultERKNS_12HeaderRecordERKNS_8IINFieldE, %function
_ZN8opendnp312IAPDUHandler14OnHeaderResultERKNS_12HeaderRecordERKNS_8IINFieldE:
	.fnstart
.LFB313:
	@ args = 0, pretend = 0, frame = 0
	@ frame_needed = 0, uses_anonymous_args = 0
	@ link register save eliminated.
	bx	lr
	.cantunwind
	.fnend
	.size	_ZN8opendnp312IAPDUHandler14OnHeaderResultERKNS_12HeaderRecordERKNS_8IINFieldE, .-_ZN8opendnp312IAPDUHandler14OnHeaderResultERKNS_12HeaderRecordERKNS_8IINFieldE
	.section	.text._ZN8opendnp322IOutstationApplication25SupportsWriteAbsoluteTimeEv,"axG",%progbits,_ZN8opendnp322IOutstationApplication25SupportsWriteAbsoluteTimeEv,comdat
	.align	2
	.weak	_ZN8opendnp322IOutstationApplication25SupportsWriteAbsoluteTimeEv
	.syntax unified
	.arm
	.fpu vfp
	.type	_ZN8opendnp322IOutstationApplication25SupportsWriteAbsoluteTimeEv, %function
_ZN8opendnp322IOutstationApplication25SupportsWriteAbsoluteTimeEv:
	.fnstart
.LFB2200:
	@ args = 0, pretend = 0, frame = 0
	@ frame_needed = 0, uses_anonymous_args = 0
	@ link register save eliminated.
	mov	r0, #0
	bx	lr
	.cantunwind
	.fnend
	.size	_ZN8opendnp322IOutstationApplication25SupportsWriteAbsoluteTimeEv, .-_ZN8opendnp322IOutstationApplication25SupportsWriteAbsoluteTimeEv
	.section	.text._ZN8opendnp322IOutstationApplication17WriteAbsoluteTimeERKN7openpal12UTCTimestampE,"axG",%progbits,_ZN8opendnp322IOutstationApplication17WriteAbsoluteTimeERKN7openpal12UTCTimestampE,comdat
	.align	2
	.weak	_ZN8opendnp322IOutstationApplication17WriteAbsoluteTimeERKN7openpal12UTCTimestampE
	.syntax unified
	.arm
	.fpu vfp
	.type	_ZN8opendnp322IOutstationApplication17WriteAbsoluteTimeERKN7openpal12UTCTimestampE, %function
_ZN8opendnp322IOutstationApplication17WriteAbsoluteTimeERKN7openpal12UTCTimestampE:
	.fnstart
.LFB2201:
	@ args = 0, pretend = 0, frame = 0
	@ frame_needed = 0, uses_anonymous_args = 0
	@ link register save eliminated.
	mov	r0, #0
	bx	lr
	.cantunwind
	.fnend
	.size	_ZN8opendnp322IOutstationApplication17WriteAbsoluteTimeERKN7openpal12UTCTimestampE, .-_ZN8opendnp322IOutstationApplication17WriteAbsoluteTimeERKN7openpal12UTCTimestampE
	.section	.text._ZN8opendnp322IOutstationApplication28SupportsWriteTimeAndIntervalEv,"axG",%progbits,_ZN8opendnp322IOutstationApplication28SupportsWriteTimeAndIntervalEv,comdat
	.align	2
	.weak	_ZN8opendnp322IOutstationApplication28SupportsWriteTimeAndIntervalEv
	.syntax unified
	.arm
	.fpu vfp
	.type	_ZN8opendnp322IOutstationApplication28SupportsWriteTimeAndIntervalEv, %function
_ZN8opendnp322IOutstationApplication28SupportsWriteTimeAndIntervalEv:
	.fnstart
.LFB2202:
	@ args = 0, pretend = 0, frame = 0
	@ frame_needed = 0, uses_anonymous_args = 0
	@ link register save eliminated.
	mov	r0, #0
	bx	lr
	.cantunwind
	.fnend
	.size	_ZN8opendnp322IOutstationApplication28SupportsWriteTimeAndIntervalEv, .-_ZN8opendnp322IOutstationApplication28SupportsWriteTimeAndIntervalEv
	.section	.text._ZN8opendnp322IOutstationApplication20WriteTimeAndIntervalERKNS_11ICollectionINS_7IndexedINS_15TimeAndIntervalEEEEE,"axG",%progbits,_ZN8opendnp322IOutstationApplication20WriteTimeAndIntervalERKNS_11ICollectionINS_7IndexedINS_15TimeAndIntervalEEEEE,comdat
	.align	2
	.weak	_ZN8opendnp322IOutstationApplication20WriteTimeAndIntervalERKNS_11ICollectionINS_7IndexedINS_15TimeAndIntervalEEEEE
	.syntax unified
	.arm
	.fpu vfp
	.type	_ZN8opendnp322IOutstationApplication20WriteTimeAndIntervalERKNS_11ICollectionINS_7IndexedINS_15TimeAndIntervalEEEEE, %function
_ZN8opendnp322IOutstationApplication20WriteTimeAndIntervalERKNS_11ICollectionINS_7IndexedINS_15TimeAndIntervalEEEEE:
	.fnstart
.LFB2203:
	@ args = 0, pretend = 0, frame = 0
	@ frame_needed = 0, uses_anonymous_args = 0
	@ link register save eliminated.
	mov	r0, #0
	bx	lr
	.cantunwind
	.fnend
	.size	_ZN8opendnp322IOutstationApplication20WriteTimeAndIntervalERKNS_11ICollectionINS_7IndexedINS_15TimeAndIntervalEEEEE, .-_ZN8opendnp322IOutstationApplication20WriteTimeAndIntervalERKNS_11ICollectionINS_7IndexedINS_15TimeAndIntervalEEEEE
	.section	.text._ZN8opendnp312WriteHandler9IsAllowedEjNS_14GroupVariationENS_13QualifierCodeE,"axG",%progbits,_ZN8opendnp312WriteHandler9IsAllowedEjNS_14GroupVariationENS_13QualifierCodeE,comdat
	.align	2
	.weak	_ZN8opendnp312WriteHandler9IsAllowedEjNS_14GroupVariationENS_13QualifierCodeE
	.syntax unified
	.arm
	.fpu vfp
	.type	_ZN8opendnp312WriteHandler9IsAllowedEjNS_14GroupVariationENS_13QualifierCodeE, %function
_ZN8opendnp312WriteHandler9IsAllowedEjNS_14GroupVariationENS_13QualifierCodeE:
	.fnstart
.LFB2299:
	@ args = 0, pretend = 0, frame = 0
	@ frame_needed = 0, uses_anonymous_args = 0
	@ link register save eliminated.
	mov	r0, #1
	bx	lr
	.cantunwind
	.fnend
	.size	_ZN8opendnp312WriteHandler9IsAllowedEjNS_14GroupVariationENS_13QualifierCodeE, .-_ZN8opendnp312WriteHandler9IsAllowedEjNS_14GroupVariationENS_13QualifierCodeE
	.section	.text._ZN8opendnp314FunctorVisitorINS_11Group50Var1EZNKS_11ICollectionIS1_E13ReadOnlyValueERS1_EUlRKS1_E_E7OnValueES6_,"axG",%progbits,_ZN8opendnp314FunctorVisitorINS_11Group50Var1EZNKS_11ICollectionIS1_E13ReadOnlyValueERS1_EUlRKS1_E_E7OnValueES6_,comdat
	.align	2
	.weak	_ZN8opendnp314FunctorVisitorINS_11Group50Var1EZNKS_11ICollectionIS1_E13ReadOnlyValueERS1_EUlRKS1_E_E7OnValueES6_
	.syntax unified
	.arm
	.fpu vfp
	.type	_ZN8opendnp314FunctorVisitorINS_11Group50Var1EZNKS_11ICollectionIS1_E13ReadOnlyValueERS1_EUlRKS1_E_E7OnValueES6_, %function
_ZN8opendnp314FunctorVisitorINS_11Group50Var1EZNKS_11ICollectionIS1_E13ReadOnlyValueERS1_EUlRKS1_E_E7OnValueES6_:
	.fnstart
.LFB3080:
	@ args = 0, pretend = 0, frame = 0
	@ frame_needed = 0, uses_anonymous_args = 0
	@ link register save eliminated.
	ldr	r3, [r0, #4]
	ldrd	r0, [r1]
	strd	r0, [r3]
	bx	lr
	.cantunwind
	.fnend
	.size	_ZN8opendnp314FunctorVisitorINS_11Group50Var1EZNKS_11ICollectionIS1_E13ReadOnlyValueERS1_EUlRKS1_E_E7OnValueES6_, .-_ZN8opendnp314FunctorVisitorINS_11Group50Var1EZNKS_11ICollectionIS1_E13ReadOnlyValueERS1_EUlRKS1_E_E7OnValueES6_
	.section	.text._ZN8opendnp314FunctorVisitorINS_7IndexedINS_8IINValueEEEZNKS_11ICollectionIS3_E13ReadOnlyValueERS3_EUlRKS3_E_E7OnValueES8_,"axG",%progbits,_ZN8opendnp314FunctorVisitorINS_7IndexedINS_8IINValueEEEZNKS_11ICollectionIS3_E13ReadOnlyValueERS3_EUlRKS3_E_E7OnValueES8_,comdat
	.align	2
	.weak	_ZN8opendnp314FunctorVisitorINS_7IndexedINS_8IINValueEEEZNKS_11ICollectionIS3_E13ReadOnlyValueERS3_EUlRKS3_E_E7OnValueES8_
	.syntax unified
	.arm
	.fpu vfp
	.type	_ZN8opendnp314FunctorVisitorINS_7IndexedINS_8IINValueEEEZNKS_11ICollectionIS3_E13ReadOnlyValueERS3_EUlRKS3_E_E7OnValueES8_, %function
_ZN8opendnp314FunctorVisitorINS_7IndexedINS_8IINValueEEEZNKS_11ICollectionIS3_E13ReadOnlyValueERS3_EUlRKS3_E_E7OnValueES8_:
	.fnstart
.LFB3081:
	@ args = 0, pretend = 0, frame = 0
	@ frame_needed = 0, uses_anonymous_args = 0
	@ link register save eliminated.
	ldr	r3, [r0, #4]
	ldr	r2, [r1]	@ unaligned
	str	r2, [r3]	@ unaligned
	bx	lr
	.cantunwind
	.fnend
	.size	_ZN8opendnp314FunctorVisitorINS_7IndexedINS_8IINValueEEEZNKS_11ICollectionIS3_E13ReadOnlyValueERS3_EUlRKS3_E_E7OnValueES8_, .-_ZN8opendnp314FunctorVisitorINS_7IndexedINS_8IINValueEEEZNKS_11ICollectionIS3_E13ReadOnlyValueERS3_EUlRKS3_E_E7OnValueES8_
	.text
	.align	2
	.global	_ZN8opendnp312WriteHandler13ProcessHeaderERKNS_11RangeHeaderERKNS_11ICollectionINS_7IndexedINS_8IINValueEEEEE
	.syntax unified
	.arm
	.fpu vfp
	.type	_ZN8opendnp312WriteHandler13ProcessHeaderERKNS_11RangeHeaderERKNS_11ICollectionINS_7IndexedINS_8IINValueEEEEE, %function
_ZN8opendnp312WriteHandler13ProcessHeaderERKNS_11RangeHeaderERKNS_11ICollectionINS_7IndexedINS_8IINValueEEEEE:
	.fnstart
.LFB2303:
	@ args = 0, pretend = 0, frame = 16
	@ frame_needed = 0, uses_anonymous_args = 0
	ldr	r3, [r2]
	push	{r4, r5, r6, r7, lr}
	.save {r4, r5, r6, r7, lr}
	.pad #20
	sub	sp, sp, #20
	mov	r4, #0
	ldr	r3, [r3]
	mov	r6, r0
	strb	r4, [sp, #4]
	mov	r0, r2
	strh	r4, [sp, #6]	@ movhi
	mov	r5, r2
	blx	r3
	ldr	r2, .L20
.LPIC0:
	add	r2, pc, r2
	cmp	r0, #1
	beq	.L19
.L10:
	mov	r1, #10
	mov	r0, sp
	strb	r4, [sp]
	strb	r4, [sp, #1]
	bl	_ZN8opendnp38IINField6SetBitENS_6IINBitE(PLT)
	ldrh	r3, [sp]
	strh	r3, [sp, #8]	@ movhi
.L12:
	ldrb	r3, [sp, #9]	@ zero_extendqisi2
	ldrb	r0, [sp, #8]	@ zero_extendqisi2
	orr	r0, r0, r3, lsl #8
	add	sp, sp, #20
	@ sp needed
	pop	{r4, r5, r6, r7, pc}
.L19:
	ldr	r3, .L20+4
	ldr	r1, [r5]
	mov	r7, r0
	ldr	r3, [r2, r3]
	mov	r0, r5
	add	r3, r3, #8
	str	r3, [sp, #8]
	add	r3, sp, #4
	ldr	r2, [r1, #4]
	str	r3, [sp, #12]
	add	r1, sp, #8
	blx	r2
	ldrb	r3, [r6, #25]	@ zero_extendqisi2
	cmp	r3, r4
	bne	.L10
	ldrh	r1, [sp, #6]
	cmp	r1, #7
	bne	.L17
	ldrb	r4, [sp, #4]	@ zero_extendqisi2
	cmp	r4, #0
	bne	.L17
	strb	r7, [r6, #25]
	ldr	r0, [r6, #20]
	bl	_ZN8opendnp38IINField8ClearBitENS_6IINBitE(PLT)
	strb	r4, [sp, #8]
	strb	r4, [sp, #9]
	b	.L12
.L17:
	mov	r1, #10
	mov	r0, sp
	strb	r3, [sp]
	strb	r3, [sp, #1]
	bl	_ZN8opendnp38IINField6SetBitENS_6IINBitE(PLT)
	ldrh	r3, [sp]
	strh	r3, [sp, #8]	@ movhi
	b	.L12
.L21:
	.align	2
.L20:
	.word	_GLOBAL_OFFSET_TABLE_-(.LPIC0+8)
	.word	_ZTVN8opendnp314FunctorVisitorINS_7IndexedINS_8IINValueEEEZNKS_11ICollectionIS3_E13ReadOnlyValueERS3_EUlRKS3_E_EE(GOT)
	.fnend
	.size	_ZN8opendnp312WriteHandler13ProcessHeaderERKNS_11RangeHeaderERKNS_11ICollectionINS_7IndexedINS_8IINValueEEEEE, .-_ZN8opendnp312WriteHandler13ProcessHeaderERKNS_11RangeHeaderERKNS_11ICollectionINS_7IndexedINS_8IINValueEEEEE
	.align	2
	.global	_ZN8opendnp312WriteHandler13ProcessHeaderERKNS_12PrefixHeaderERKNS_11ICollectionINS_7IndexedINS_15TimeAndIntervalEEEEE
	.syntax unified
	.arm
	.fpu vfp
	.type	_ZN8opendnp312WriteHandler13ProcessHeaderERKNS_12PrefixHeaderERKNS_11ICollectionINS_7IndexedINS_15TimeAndIntervalEEEEE, %function
_ZN8opendnp312WriteHandler13ProcessHeaderERKNS_12PrefixHeaderERKNS_11ICollectionINS_7IndexedINS_15TimeAndIntervalEEEEE:
	.fnstart
.LFB2305:
	@ args = 0, pretend = 0, frame = 16
	@ frame_needed = 0, uses_anonymous_args = 0
	push	{r4, r5, lr}
	.save {r4, r5, lr}
	mov	r5, r0
	ldr	r0, [r0, #16]
	ldr	r4, .L35
	ldr	r3, .L35+4
	ldr	lr, [r0]
.LPIC1:
	add	r4, pc, r4
	.pad #20
	sub	sp, sp, #20
	ldr	ip, [r4, r3]
	ldr	r3, [lr, #24]
	cmp	r3, ip
	bne	.L23
.L25:
	mov	r3, #0
	mov	r1, #8
	add	r0, sp, #12
	strb	r3, [sp, #12]
	strb	r3, [sp, #13]
	bl	_ZN8opendnp38IINField6SetBitENS_6IINBitE(PLT)
	ldrh	r3, [sp, #12]
	strh	r3, [sp, #8]	@ movhi
.L24:
	ldrb	r0, [sp, #9]	@ zero_extendqisi2
	ldrb	r3, [sp, #8]	@ zero_extendqisi2
	orr	r0, r3, r0, lsl #8
	add	sp, sp, #20
	@ sp needed
	pop	{r4, r5, pc}
.L23:
	str	r2, [sp, #4]
	blx	r3
	cmp	r0, #0
	beq	.L25
	ldr	r0, [r5, #16]
	ldr	r3, .L35+8
	ldr	r2, [sp, #4]
	ldr	ip, [r0]
	ldr	r1, [r4, r3]
	ldr	r3, [ip, #28]
	cmp	r3, r1
	bne	.L34
.L26:
	mov	r3, #0
	mov	r1, #10
	add	r0, sp, #12
	strb	r3, [sp, #12]
	strb	r3, [sp, #13]
	bl	_ZN8opendnp38IINField6SetBitENS_6IINBitE(PLT)
	ldrb	r2, [sp, #13]	@ zero_extendqisi2
	ldrb	r3, [sp, #12]	@ zero_extendqisi2
	strb	r2, [sp, #9]
	strb	r3, [sp, #8]
	b	.L24
.L34:
	mov	r1, r2
	blx	r3
	cmp	r0, #0
	beq	.L26
	mov	r3, #0
	strb	r3, [sp, #8]
	strb	r3, [sp, #9]
	b	.L24
.L36:
	.align	2
.L35:
	.word	_GLOBAL_OFFSET_TABLE_-(.LPIC1+8)
	.word	_ZN8opendnp322IOutstationApplication28SupportsWriteTimeAndIntervalEv(GOT)
	.word	_ZN8opendnp322IOutstationApplication20WriteTimeAndIntervalERKNS_11ICollectionINS_7IndexedINS_15TimeAndIntervalEEEEE(GOT)
	.fnend
	.size	_ZN8opendnp312WriteHandler13ProcessHeaderERKNS_12PrefixHeaderERKNS_11ICollectionINS_7IndexedINS_15TimeAndIntervalEEEEE, .-_ZN8opendnp312WriteHandler13ProcessHeaderERKNS_12PrefixHeaderERKNS_11ICollectionINS_7IndexedINS_15TimeAndIntervalEEEEE
	.align	2
	.global	_ZN8opendnp312WriteHandler13ProcessHeaderERKNS_11CountHeaderERKNS_11ICollectionINS_11Group50Var1EEE
	.syntax unified
	.arm
	.fpu vfp
	.type	_ZN8opendnp312WriteHandler13ProcessHeaderERKNS_11CountHeaderERKNS_11ICollectionINS_11Group50Var1EEE, %function
_ZN8opendnp312WriteHandler13ProcessHeaderERKNS_11CountHeaderERKNS_11ICollectionINS_11Group50Var1EEE:
	.fnstart
.LFB2304:
	@ args = 0, pretend = 0, frame = 24
	@ frame_needed = 0, uses_anonymous_args = 0
	push	{r4, r5, r6, r7, r8, r9, lr}
	.save {r4, r5, r6, r7, r8, r9, lr}
	.pad #28
	sub	sp, sp, #28
	ldrb	r4, [r0, #24]	@ zero_extendqisi2
	ldr	r6, .L55
	cmp	r4, #0
.LPIC2:
	add	r6, pc, r6
	bne	.L51
	mov	r5, r2
	add	r8, sp, #8
	mov	r7, r0
	mov	r0, r8
	bl	_ZN8opendnp311Group50Var1C1Ev(PLT)
	ldr	r3, [r5]
	mov	r0, r5
	ldr	r3, [r3]
	blx	r3
	cmp	r0, #1
	mov	r9, r0
	beq	.L52
	mov	r1, #10
	add	r0, sp, #16
	strb	r4, [sp, #16]
	strb	r4, [sp, #17]
	bl	_ZN8opendnp38IINField6SetBitENS_6IINBitE(PLT)
	ldrh	r4, [sp, #16]
	lsr	r3, r4, #8
	uxtb	r4, r4
.L44:
	strb	r4, [sp, #16]
	strb	r3, [sp, #17]
.L39:
	ldrb	r3, [sp, #17]	@ zero_extendqisi2
	ldrb	r0, [sp, #16]	@ zero_extendqisi2
	orr	r0, r0, r3, lsl #8
	add	sp, sp, #28
	@ sp needed
	pop	{r4, r5, r6, r7, r8, r9, pc}
.L52:
	ldr	r3, .L55+4
	ldr	r2, [r5]
	mov	r0, r5
	ldr	r3, [r6, r3]
	add	r5, sp, #16
	add	r3, r3, #8
	str	r3, [sp, #16]
	mov	r1, r5
	ldr	r3, [r2, #4]
	str	r8, [sp, #20]
	blx	r3
	ldr	r0, [r7, #16]
	ldr	r3, .L55+8
	ldr	r1, [r0]
	ldr	r2, [r6, r3]
	ldr	r3, [r1, #16]
	cmp	r3, r2
	bne	.L53
.L41:
	mov	r3, #0
	mov	r0, r5
	mov	r1, #8
	strb	r3, [sp, #16]
	strb	r3, [sp, #17]
	bl	_ZN8opendnp38IINField6SetBitENS_6IINBitE(PLT)
	ldrh	r4, [sp, #16]
	lsr	r3, r4, #8
	uxtb	r4, r4
	b	.L44
.L51:
	mov	r3, #0
	mov	r1, #10
	add	r0, sp, #8
	strb	r3, [sp, #8]
	strb	r3, [sp, #9]
	bl	_ZN8opendnp38IINField6SetBitENS_6IINBitE(PLT)
	ldrh	r3, [sp, #8]
	strh	r3, [sp, #16]	@ movhi
	b	.L39
.L53:
	blx	r3
	cmp	r0, #0
	beq	.L41
	ldr	r0, [r7, #16]
	ldrd	r2, [sp, #8]
	ldr	r1, .L55+12
	ldr	ip, [r0]
	strb	r9, [r7, #24]
	ldr	r7, [ip, #20]
	strd	r2, [sp, #16]
	ldr	r3, [r6, r1]
	cmp	r7, r3
	bne	.L54
.L42:
	mov	r3, #0
	mov	r1, #10
	add	r0, sp, #4
	strb	r3, [sp, #4]
	strb	r3, [sp, #5]
	bl	_ZN8opendnp38IINField6SetBitENS_6IINBitE(PLT)
	ldrb	r3, [sp, #5]	@ zero_extendqisi2
	ldrb	r4, [sp, #4]	@ zero_extendqisi2
	b	.L44
.L54:
	mov	r1, r5
	blx	r7
	cmp	r0, #0
	movne	r3, r4
	bne	.L44
	b	.L42
.L56:
	.align	2
.L55:
	.word	_GLOBAL_OFFSET_TABLE_-(.LPIC2+8)
	.word	_ZTVN8opendnp314FunctorVisitorINS_11Group50Var1EZNKS_11ICollectionIS1_E13ReadOnlyValueERS1_EUlRKS1_E_EE(GOT)
	.word	_ZN8opendnp322IOutstationApplication25SupportsWriteAbsoluteTimeEv(GOT)
	.word	_ZN8opendnp322IOutstationApplication17WriteAbsoluteTimeERKN7openpal12UTCTimestampE(GOT)
	.fnend
	.size	_ZN8opendnp312WriteHandler13ProcessHeaderERKNS_11CountHeaderERKNS_11ICollectionINS_11Group50Var1EEE, .-_ZN8opendnp312WriteHandler13ProcessHeaderERKNS_11CountHeaderERKNS_11ICollectionINS_11Group50Var1EEE
	.align	2
	.global	_ZN8opendnp312WriteHandlerC2ERNS_22IOutstationApplicationEPNS_8IINFieldE
	.syntax unified
	.arm
	.fpu vfp
	.type	_ZN8opendnp312WriteHandlerC2ERNS_22IOutstationApplicationEPNS_8IINFieldE, %function
_ZN8opendnp312WriteHandlerC2ERNS_22IOutstationApplicationEPNS_8IINFieldE:
	.fnstart
.LFB2301:
	@ args = 0, pretend = 0, frame = 0
	@ frame_needed = 0, uses_anonymous_args = 0
	push	{r4, r5, r6, r7, r8, lr}
	.save {r4, r5, r6, r7, r8, lr}
	mov	r4, r0
	ldr	r5, .L59
	mov	r7, r1
	mov	r6, r2
	bl	_ZN8opendnp312IAPDUHandlerC2Ev(PLT)
	ldr	ip, .L59+4
.LPIC3:
	add	r5, pc, r5
	mov	r3, r5
	ldr	r3, [r5, ip]
	mov	lr, #0
	add	r3, r3, #8
	mov	r0, r4
	str	r7, [r4, #16]
	str	r3, [r4]
	str	r6, [r4, #20]
	strb	lr, [r4, #24]
	strb	lr, [r4, #25]
	pop	{r4, r5, r6, r7, r8, pc}
.L60:
	.align	2
.L59:
	.word	_GLOBAL_OFFSET_TABLE_-(.LPIC3+8)
	.word	_ZTVN8opendnp312WriteHandlerE(GOT)
	.fnend
	.size	_ZN8opendnp312WriteHandlerC2ERNS_22IOutstationApplicationEPNS_8IINFieldE, .-_ZN8opendnp312WriteHandlerC2ERNS_22IOutstationApplicationEPNS_8IINFieldE
	.global	_ZN8opendnp312WriteHandlerC1ERNS_22IOutstationApplicationEPNS_8IINFieldE
	.set	_ZN8opendnp312WriteHandlerC1ERNS_22IOutstationApplicationEPNS_8IINFieldE,_ZN8opendnp312WriteHandlerC2ERNS_22IOutstationApplicationEPNS_8IINFieldE
	.global	_ZTSN8opendnp312WriteHandlerE
	.global	_ZTIN8opendnp312WriteHandlerE
	.weak	_ZTSN8opendnp38IVisitorINS_7IndexedINS_8IINValueEEEEE
	.section	.rodata._ZTSN8opendnp38IVisitorINS_7IndexedINS_8IINValueEEEEE,"aG",%progbits,_ZTSN8opendnp38IVisitorINS_7IndexedINS_8IINValueEEEEE,comdat
	.align	2
	.type	_ZTSN8opendnp38IVisitorINS_7IndexedINS_8IINValueEEEEE, %object
	.size	_ZTSN8opendnp38IVisitorINS_7IndexedINS_8IINValueEEEEE, 50
_ZTSN8opendnp38IVisitorINS_7IndexedINS_8IINValueEEEEE:
	.ascii	"N8opendnp38IVisitorINS_7IndexedINS_8IINValueEEEEE\000"
	.weak	_ZTIN8opendnp38IVisitorINS_7IndexedINS_8IINValueEEEEE
	.section	.data.rel.ro._ZTIN8opendnp38IVisitorINS_7IndexedINS_8IINValueEEEEE,"awG",%progbits,_ZTIN8opendnp38IVisitorINS_7IndexedINS_8IINValueEEEEE,comdat
	.align	2
	.type	_ZTIN8opendnp38IVisitorINS_7IndexedINS_8IINValueEEEEE, %object
	.size	_ZTIN8opendnp38IVisitorINS_7IndexedINS_8IINValueEEEEE, 8
_ZTIN8opendnp38IVisitorINS_7IndexedINS_8IINValueEEEEE:
	.word	_ZTVN10__cxxabiv117__class_type_infoE+8
	.word	_ZTSN8opendnp38IVisitorINS_7IndexedINS_8IINValueEEEEE
	.weak	_ZTSN8opendnp314FunctorVisitorINS_7IndexedINS_8IINValueEEEZNKS_11ICollectionIS3_E13ReadOnlyValueERS3_EUlRKS3_E_EE
	.section	.rodata._ZTSN8opendnp314FunctorVisitorINS_7IndexedINS_8IINValueEEEZNKS_11ICollectionIS3_E13ReadOnlyValueERS3_EUlRKS3_E_EE,"aG",%progbits,_ZTSN8opendnp314FunctorVisitorINS_7IndexedINS_8IINValueEEEZNKS_11ICollectionIS3_E13ReadOnlyValueERS3_EUlRKS3_E_EE,comdat
	.align	2
	.type	_ZTSN8opendnp314FunctorVisitorINS_7IndexedINS_8IINValueEEEZNKS_11ICollectionIS3_E13ReadOnlyValueERS3_EUlRKS3_E_EE, %object
	.size	_ZTSN8opendnp314FunctorVisitorINS_7IndexedINS_8IINValueEEEZNKS_11ICollectionIS3_E13ReadOnlyValueERS3_EUlRKS3_E_EE, 110
_ZTSN8opendnp314FunctorVisitorINS_7IndexedINS_8IINValueEEEZNKS_11ICollectionIS3_E13ReadOnlyValueERS3_EUlRKS3_E_EE:
	.ascii	"N8opendnp314FunctorVisitorINS_7IndexedINS_8IINValue"
	.ascii	"EEEZNKS_11ICollectionIS3_E13ReadOnlyValueERS3_EUlRK"
	.ascii	"S3_E_EE\000"
	.weak	_ZTIN8opendnp314FunctorVisitorINS_7IndexedINS_8IINValueEEEZNKS_11ICollectionIS3_E13ReadOnlyValueERS3_EUlRKS3_E_EE
	.section	.data.rel.ro._ZTIN8opendnp314FunctorVisitorINS_7IndexedINS_8IINValueEEEZNKS_11ICollectionIS3_E13ReadOnlyValueERS3_EUlRKS3_E_EE,"awG",%progbits,_ZTIN8opendnp314FunctorVisitorINS_7IndexedINS_8IINValueEEEZNKS_11ICollectionIS3_E13ReadOnlyValueERS3_EUlRKS3_E_EE,comdat
	.align	2
	.type	_ZTIN8opendnp314FunctorVisitorINS_7IndexedINS_8IINValueEEEZNKS_11ICollectionIS3_E13ReadOnlyValueERS3_EUlRKS3_E_EE, %object
	.size	_ZTIN8opendnp314FunctorVisitorINS_7IndexedINS_8IINValueEEEZNKS_11ICollectionIS3_E13ReadOnlyValueERS3_EUlRKS3_E_EE, 12
_ZTIN8opendnp314FunctorVisitorINS_7IndexedINS_8IINValueEEEZNKS_11ICollectionIS3_E13ReadOnlyValueERS3_EUlRKS3_E_EE:
	.word	_ZTVN10__cxxabiv120__si_class_type_infoE+8
	.word	_ZTSN8opendnp314FunctorVisitorINS_7IndexedINS_8IINValueEEEZNKS_11ICollectionIS3_E13ReadOnlyValueERS3_EUlRKS3_E_EE
	.word	_ZTIN8opendnp38IVisitorINS_7IndexedINS_8IINValueEEEEE
	.weak	_ZTSN8opendnp38IVisitorINS_11Group50Var1EEE
	.section	.rodata._ZTSN8opendnp38IVisitorINS_11Group50Var1EEE,"aG",%progbits,_ZTSN8opendnp38IVisitorINS_11Group50Var1EEE,comdat
	.align	2
	.type	_ZTSN8opendnp38IVisitorINS_11Group50Var1EEE, %object
	.size	_ZTSN8opendnp38IVisitorINS_11Group50Var1EEE, 40
_ZTSN8opendnp38IVisitorINS_11Group50Var1EEE:
	.ascii	"N8opendnp38IVisitorINS_11Group50Var1EEE\000"
	.weak	_ZTIN8opendnp38IVisitorINS_11Group50Var1EEE
	.section	.data.rel.ro._ZTIN8opendnp38IVisitorINS_11Group50Var1EEE,"awG",%progbits,_ZTIN8opendnp38IVisitorINS_11Group50Var1EEE,comdat
	.align	2
	.type	_ZTIN8opendnp38IVisitorINS_11Group50Var1EEE, %object
	.size	_ZTIN8opendnp38IVisitorINS_11Group50Var1EEE, 8
_ZTIN8opendnp38IVisitorINS_11Group50Var1EEE:
	.word	_ZTVN10__cxxabiv117__class_type_infoE+8
	.word	_ZTSN8opendnp38IVisitorINS_11Group50Var1EEE
	.weak	_ZTSN8opendnp314FunctorVisitorINS_11Group50Var1EZNKS_11ICollectionIS1_E13ReadOnlyValueERS1_EUlRKS1_E_EE
	.section	.rodata._ZTSN8opendnp314FunctorVisitorINS_11Group50Var1EZNKS_11ICollectionIS1_E13ReadOnlyValueERS1_EUlRKS1_E_EE,"aG",%progbits,_ZTSN8opendnp314FunctorVisitorINS_11Group50Var1EZNKS_11ICollectionIS1_E13ReadOnlyValueERS1_EUlRKS1_E_EE,comdat
	.align	2
	.type	_ZTSN8opendnp314FunctorVisitorINS_11Group50Var1EZNKS_11ICollectionIS1_E13ReadOnlyValueERS1_EUlRKS1_E_EE, %object
	.size	_ZTSN8opendnp314FunctorVisitorINS_11Group50Var1EZNKS_11ICollectionIS1_E13ReadOnlyValueERS1_EUlRKS1_E_EE, 100
_ZTSN8opendnp314FunctorVisitorINS_11Group50Var1EZNKS_11ICollectionIS1_E13ReadOnlyValueERS1_EUlRKS1_E_EE:
	.ascii	"N8opendnp314FunctorVisitorINS_11Group50Var1EZNKS_11"
	.ascii	"ICollectionIS1_E13ReadOnlyValueERS1_EUlRKS1_E_EE\000"
	.weak	_ZTIN8opendnp314FunctorVisitorINS_11Group50Var1EZNKS_11ICollectionIS1_E13ReadOnlyValueERS1_EUlRKS1_E_EE
	.section	.data.rel.ro._ZTIN8opendnp314FunctorVisitorINS_11Group50Var1EZNKS_11ICollectionIS1_E13ReadOnlyValueERS1_EUlRKS1_E_EE,"awG",%progbits,_ZTIN8opendnp314FunctorVisitorINS_11Group50Var1EZNKS_11ICollectionIS1_E13ReadOnlyValueERS1_EUlRKS1_E_EE,comdat
	.align	2
	.type	_ZTIN8opendnp314FunctorVisitorINS_11Group50Var1EZNKS_11ICollectionIS1_E13ReadOnlyValueERS1_EUlRKS1_E_EE, %object
	.size	_ZTIN8opendnp314FunctorVisitorINS_11Group50Var1EZNKS_11ICollectionIS1_E13ReadOnlyValueERS1_EUlRKS1_E_EE, 12
_ZTIN8opendnp314FunctorVisitorINS_11Group50Var1EZNKS_11ICollectionIS1_E13ReadOnlyValueERS1_EUlRKS1_E_EE:
	.word	_ZTVN10__cxxabiv120__si_class_type_infoE+8
	.word	_ZTSN8opendnp314FunctorVisitorINS_11Group50Var1EZNKS_11ICollectionIS1_E13ReadOnlyValueERS1_EUlRKS1_E_EE
	.word	_ZTIN8opendnp38IVisitorINS_11Group50Var1EEE
	.global	_ZTVN8opendnp312WriteHandlerE
	.weak	_ZTVN8opendnp314FunctorVisitorINS_7IndexedINS_8IINValueEEEZNKS_11ICollectionIS3_E13ReadOnlyValueERS3_EUlRKS3_E_EE
	.section	.data.rel.ro._ZTVN8opendnp314FunctorVisitorINS_7IndexedINS_8IINValueEEEZNKS_11ICollectionIS3_E13ReadOnlyValueERS3_EUlRKS3_E_EE,"awG",%progbits,_ZTVN8opendnp314FunctorVisitorINS_7IndexedINS_8IINValueEEEZNKS_11ICollectionIS3_E13ReadOnlyValueERS3_EUlRKS3_E_EE,comdat
	.align	2
	.type	_ZTVN8opendnp314FunctorVisitorINS_7IndexedINS_8IINValueEEEZNKS_11ICollectionIS3_E13ReadOnlyValueERS3_EUlRKS3_E_EE, %object
	.size	_ZTVN8opendnp314FunctorVisitorINS_7IndexedINS_8IINValueEEEZNKS_11ICollectionIS3_E13ReadOnlyValueERS3_EUlRKS3_E_EE, 12
_ZTVN8opendnp314FunctorVisitorINS_7IndexedINS_8IINValueEEEZNKS_11ICollectionIS3_E13ReadOnlyValueERS3_EUlRKS3_E_EE:
	.word	0
	.word	_ZTIN8opendnp314FunctorVisitorINS_7IndexedINS_8IINValueEEEZNKS_11ICollectionIS3_E13ReadOnlyValueERS3_EUlRKS3_E_EE
	.word	_ZN8opendnp314FunctorVisitorINS_7IndexedINS_8IINValueEEEZNKS_11ICollectionIS3_E13ReadOnlyValueERS3_EUlRKS3_E_E7OnValueES8_
	.weak	_ZTVN8opendnp314FunctorVisitorINS_11Group50Var1EZNKS_11ICollectionIS1_E13ReadOnlyValueERS1_EUlRKS1_E_EE
	.section	.data.rel.ro._ZTVN8opendnp314FunctorVisitorINS_11Group50Var1EZNKS_11ICollectionIS1_E13ReadOnlyValueERS1_EUlRKS1_E_EE,"awG",%progbits,_ZTVN8opendnp314FunctorVisitorINS_11Group50Var1EZNKS_11ICollectionIS1_E13ReadOnlyValueERS1_EUlRKS1_E_EE,comdat
	.align	2
	.type	_ZTVN8opendnp314FunctorVisitorINS_11Group50Var1EZNKS_11ICollectionIS1_E13ReadOnlyValueERS1_EUlRKS1_E_EE, %object
	.size	_ZTVN8opendnp314FunctorVisitorINS_11Group50Var1EZNKS_11ICollectionIS1_E13ReadOnlyValueERS1_EUlRKS1_E_EE, 12
_ZTVN8opendnp314FunctorVisitorINS_11Group50Var1EZNKS_11ICollectionIS1_E13ReadOnlyValueERS1_EUlRKS1_E_EE:
	.word	0
	.word	_ZTIN8opendnp314FunctorVisitorINS_11Group50Var1EZNKS_11ICollectionIS1_E13ReadOnlyValueERS1_EUlRKS1_E_EE
	.word	_ZN8opendnp314FunctorVisitorINS_11Group50Var1EZNKS_11ICollectionIS1_E13ReadOnlyValueERS1_EUlRKS1_E_E7OnValueES6_
	.section	.rodata
	.align	2
	.type	_ZTSN8opendnp312WriteHandlerE, %object
	.size	_ZTSN8opendnp312WriteHandlerE, 26
_ZTSN8opendnp312WriteHandlerE:
	.ascii	"N8opendnp312WriteHandlerE\000"
	.section	.data.rel.ro,"aw",%progbits
	.align	2
	.type	_ZTIN8opendnp312WriteHandlerE, %object
	.size	_ZTIN8opendnp312WriteHandlerE, 12
_ZTIN8opendnp312WriteHandlerE:
	.word	_ZTVN10__cxxabiv120__si_class_type_infoE+8
	.word	_ZTSN8opendnp312WriteHandlerE
	.word	_ZTIN8opendnp312IAPDUHandlerE
	.type	_ZTVN8opendnp312WriteHandlerE, %object
	.size	_ZTVN8opendnp312WriteHandlerE, 224
_ZTVN8opendnp312WriteHandlerE:
	.word	0
	.word	_ZTIN8opendnp312WriteHandlerE
	.word	_ZN8opendnp312WriteHandler9IsAllowedEjNS_14GroupVariationENS_13QualifierCodeE
	.word	_ZN8opendnp312IAPDUHandler13ProcessHeaderERKNS_16AllObjectsHeaderE
	.word	_ZN8opendnp312IAPDUHandler13ProcessHeaderERKNS_11RangeHeaderE
	.word	_ZN8opendnp312IAPDUHandler13ProcessHeaderERKNS_11CountHeaderE
	.word	_ZN8opendnp312IAPDUHandler13ProcessHeaderERKNS_16FreeFormatHeaderERKNS_12Group120Var1ERKN7openpal6RSliceE
	.word	_ZN8opendnp312IAPDUHandler13ProcessHeaderERKNS_16FreeFormatHeaderERKNS_12Group120Var2ERKN7openpal6RSliceE
	.word	_ZN8opendnp312IAPDUHandler13ProcessHeaderERKNS_16FreeFormatHeaderERKNS_12Group120Var5ERKN7openpal6RSliceE
	.word	_ZN8opendnp312IAPDUHandler13ProcessHeaderERKNS_16FreeFormatHeaderERKNS_12Group120Var6ERKN7openpal6RSliceE
	.word	_ZN8opendnp312IAPDUHandler13ProcessHeaderERKNS_16FreeFormatHeaderERKNS_12Group120Var8ERKN7openpal6RSliceE
	.word	_ZN8opendnp312IAPDUHandler13ProcessHeaderERKNS_16FreeFormatHeaderERKNS_12Group120Var7ERKN7openpal6RSliceE
	.word	_ZN8opendnp312IAPDUHandler13ProcessHeaderERKNS_16FreeFormatHeaderERKNS_12Group120Var9ERKN7openpal6RSliceE
	.word	_ZN8opendnp312IAPDUHandler13ProcessHeaderERKNS_16FreeFormatHeaderERKNS_13Group120Var10ERKN7openpal6RSliceE
	.word	_ZN8opendnp312IAPDUHandler13ProcessHeaderERKNS_16FreeFormatHeaderERKNS_13Group120Var11ERKN7openpal6RSliceE
	.word	_ZN8opendnp312IAPDUHandler13ProcessHeaderERKNS_16FreeFormatHeaderERKNS_13Group120Var12ERKN7openpal6RSliceE
	.word	_ZN8opendnp312IAPDUHandler13ProcessHeaderERKNS_16FreeFormatHeaderERKNS_13Group120Var13ERKN7openpal6RSliceE
	.word	_ZN8opendnp312IAPDUHandler13ProcessHeaderERKNS_16FreeFormatHeaderERKNS_13Group120Var14ERKN7openpal6RSliceE
	.word	_ZN8opendnp312IAPDUHandler13ProcessHeaderERKNS_16FreeFormatHeaderERKNS_13Group120Var15ERKN7openpal6RSliceE
	.word	_ZN8opendnp312WriteHandler13ProcessHeaderERKNS_11CountHeaderERKNS_11ICollectionINS_11Group50Var1EEE
	.word	_ZN8opendnp312IAPDUHandler13ProcessHeaderERKNS_11CountHeaderERKNS_11ICollectionINS_11Group51Var1EEE
	.word	_ZN8opendnp312IAPDUHandler13ProcessHeaderERKNS_11CountHeaderERKNS_11ICollectionINS_11Group51Var2EEE
	.word	_ZN8opendnp312IAPDUHandler13ProcessHeaderERKNS_11CountHeaderERKNS_11ICollectionINS_11Group52Var1EEE
	.word	_ZN8opendnp312IAPDUHandler13ProcessHeaderERKNS_11CountHeaderERKNS_11ICollectionINS_11Group52Var2EEE
	.word	_ZN8opendnp312IAPDUHandler13ProcessHeaderERKNS_11CountHeaderERKNS_11ICollectionINS_12Group120Var3EEE
	.word	_ZN8opendnp312IAPDUHandler13ProcessHeaderERKNS_11CountHeaderERKNS_11ICollectionINS_12Group120Var4EEE
	.word	_ZN8opendnp312WriteHandler13ProcessHeaderERKNS_11RangeHeaderERKNS_11ICollectionINS_7IndexedINS_8IINValueEEEEE
	.word	_ZN8opendnp312IAPDUHandler13ProcessHeaderERKNS_11RangeHeaderERKNS_11ICollectionINS_7IndexedINS_6BinaryEEEEE
	.word	_ZN8opendnp312IAPDUHandler13ProcessHeaderERKNS_11RangeHeaderERKNS_11ICollectionINS_7IndexedINS_15DoubleBitBinaryEEEEE
	.word	_ZN8opendnp312IAPDUHandler13ProcessHeaderERKNS_11RangeHeaderERKNS_11ICollectionINS_7IndexedINS_18BinaryOutputStatusEEEEE
	.word	_ZN8opendnp312IAPDUHandler13ProcessHeaderERKNS_11RangeHeaderERKNS_11ICollectionINS_7IndexedINS_7CounterEEEEE
	.word	_ZN8opendnp312IAPDUHandler13ProcessHeaderERKNS_11RangeHeaderERKNS_11ICollectionINS_7IndexedINS_13FrozenCounterEEEEE
	.word	_ZN8opendnp312IAPDUHandler13ProcessHeaderERKNS_11RangeHeaderERKNS_11ICollectionINS_7IndexedINS_6AnalogEEEEE
	.word	_ZN8opendnp312IAPDUHandler13ProcessHeaderERKNS_11RangeHeaderERKNS_11ICollectionINS_7IndexedINS_18AnalogOutputStatusEEEEE
	.word	_ZN8opendnp312IAPDUHandler13ProcessHeaderERKNS_11RangeHeaderERKNS_11ICollectionINS_7IndexedINS_11OctetStringEEEEE
	.word	_ZN8opendnp312IAPDUHandler13ProcessHeaderERKNS_11RangeHeaderERKNS_11ICollectionINS_7IndexedINS_15TimeAndIntervalEEEEE
	.word	_ZN8opendnp312IAPDUHandler13ProcessHeaderERKNS_11RangeHeaderERKNS_11ICollectionINS_7IndexedINS_12Group121Var1EEEEE
	.word	_ZN8opendnp312IAPDUHandler13ProcessHeaderERKNS_12PrefixHeaderERKNS_11ICollectionINS_7IndexedINS_6BinaryEEEEE
	.word	_ZN8opendnp312IAPDUHandler13ProcessHeaderERKNS_12PrefixHeaderERKNS_11ICollectionINS_7IndexedINS_18BinaryOutputStatusEEEEE
	.word	_ZN8opendnp312IAPDUHandler13ProcessHeaderERKNS_12PrefixHeaderERKNS_11ICollectionINS_7IndexedINS_15DoubleBitBinaryEEEEE
	.word	_ZN8opendnp312IAPDUHandler13ProcessHeaderERKNS_12PrefixHeaderERKNS_11ICollectionINS_7IndexedINS_7CounterEEEEE
	.word	_ZN8opendnp312IAPDUHandler13ProcessHeaderERKNS_12PrefixHeaderERKNS_11ICollectionINS_7IndexedINS_13FrozenCounterEEEEE
	.word	_ZN8opendnp312IAPDUHandler13ProcessHeaderERKNS_12PrefixHeaderERKNS_11ICollectionINS_7IndexedINS_6AnalogEEEEE
	.word	_ZN8opendnp312IAPDUHandler13ProcessHeaderERKNS_12PrefixHeaderERKNS_11ICollectionINS_7IndexedINS_18AnalogOutputStatusEEEEE
	.word	_ZN8opendnp312IAPDUHandler13ProcessHeaderERKNS_12PrefixHeaderERKNS_11ICollectionINS_7IndexedINS_11OctetStringEEEEE
	.word	_ZN8opendnp312WriteHandler13ProcessHeaderERKNS_12PrefixHeaderERKNS_11ICollectionINS_7IndexedINS_15TimeAndIntervalEEEEE
	.word	_ZN8opendnp312IAPDUHandler13ProcessHeaderERKNS_12PrefixHeaderERKNS_11ICollectionINS_7IndexedINS_18BinaryCommandEventEEEEE
	.word	_ZN8opendnp312IAPDUHandler13ProcessHeaderERKNS_12PrefixHeaderERKNS_11ICollectionINS_7IndexedINS_18AnalogCommandEventEEEEE
	.word	_ZN8opendnp312IAPDUHandler13ProcessHeaderERKNS_12PrefixHeaderERKNS_11ICollectionINS_7IndexedINS_12Group122Var1EEEEE
	.word	_ZN8opendnp312IAPDUHandler13ProcessHeaderERKNS_12PrefixHeaderERKNS_11ICollectionINS_7IndexedINS_12Group122Var2EEEEE
	.word	_ZN8opendnp312IAPDUHandler13ProcessHeaderERKNS_12PrefixHeaderERKNS_11ICollectionINS_7IndexedINS_23ControlRelayOutputBlockEEEEE
	.word	_ZN8opendnp312IAPDUHandler13ProcessHeaderERKNS_12PrefixHeaderERKNS_11ICollectionINS_7IndexedINS_17AnalogOutputInt16EEEEE
	.word	_ZN8opendnp312IAPDUHandler13ProcessHeaderERKNS_12PrefixHeaderERKNS_11ICollectionINS_7IndexedINS_17AnalogOutputInt32EEEEE
	.word	_ZN8opendnp312IAPDUHandler13ProcessHeaderERKNS_12PrefixHeaderERKNS_11ICollectionINS_7IndexedINS_19AnalogOutputFloat32EEEEE
	.word	_ZN8opendnp312IAPDUHandler13ProcessHeaderERKNS_12PrefixHeaderERKNS_11ICollectionINS_7IndexedINS_20AnalogOutputDouble64EEEEE
	.word	_ZN8opendnp312IAPDUHandler14OnHeaderResultERKNS_12HeaderRecordERKNS_8IINFieldE
	.ident	"GCC: (Raspbian 6.3.0-18+rpi1+deb9u1) 6.3.0 20170516"
	.section	.note.GNU-stack,"",%progbits
